 PhysX_64

 Timestamp is 64bdfea1 (Mon Jul 24 10:01:29 2023)

 Preferred load address is 0000000180000000

 Start         Length     Name                   Class
 0001:00000000 00003310H .text$di                CODE
 0001:00003310 00190e40H .text$mn                CODE
 0001:00194150 00000040H .text$mn$00             CODE
 0001:00194190 00000680H .text$x                 CODE
 0001:00194810 0000000fH .text$yd                CODE
 0002:00000000 000002b8H .idata$5                DATA
 0002:000002b8 00000038H .00cfg                  DATA
 0002:000002f0 00000008H .CRT$XCA                DATA
 0002:000002f8 00001940H .CRT$XCU                DATA
 0002:00001c38 00000008H .CRT$XCZ                DATA
 0002:00001c40 00000008H .CRT$XIA                DATA
 0002:00001c48 00000018H .CRT$XIC                DATA
 0002:00001c60 00000008H .CRT$XIZ                DATA
 0002:00001c68 00000008H .CRT$XPA                DATA
 0002:00001c70 00000010H .CRT$XPX                DATA
 0002:00001c80 00000008H .CRT$XPXA               DATA
 0002:00001c88 00000008H .CRT$XPZ                DATA
 0002:00001c90 00000008H .CRT$XTA                DATA
 0002:00001c98 00000008H .CRT$XTZ                DATA
 0002:00001ca0 00000000H .gehcont$y              DATA
 0002:00001ca0 00000000H .gfids$y                DATA
 0002:00001ca0 00023e60H .rdata                  DATA
 0002:00025b00 00000000H .rdata$CastGuardVftablesA DATA
 0002:00025b00 00000000H .rdata$CastGuardVftablesC DATA
 0002:00025b00 0000043cH .rdata$r                DATA
 0002:00025f3c 00000c6cH .rdata$voltmd           DATA
 0002:00026ba8 00000438H .rdata$zzzdbg           DATA
 0002:00026fe0 00000008H .rtc$IAA                DATA
 0002:00026fe8 00000008H .rtc$IZZ                DATA
 0002:00026ff0 00000008H .rtc$TAA                DATA
 0002:00026ff8 00000008H .rtc$TZZ                DATA
 0002:00027000 000178f8H .xdata                  DATA
 0002:0003e8f8 00000084H .xdata$x                DATA
 0002:0003e97c 00000040H .didat$2                DATA
 0002:0003e9bc 00000024H .didat$3                DATA
 0002:0003e9e0 00000710H .didat$4                DATA
 0002:0003f0f0 00004f48H .didat$6                DATA
 0002:00044038 00000718H .didat$7                DATA
 0002:00044750 00002ce4H .edata                  DATA
 0002:00047434 00000014H .idata$2                DATA
 0002:00047448 00000018H .idata$3                DATA
 0002:00047460 000002b8H .idata$4                DATA
 0002:00047718 00000642H .idata$6                DATA
 0003:00000000 00001c40H .data                   DATA
 0003:00001c40 00003630H .data$r                 DATA
 0003:00005270 000000f0H .data$rs                DATA
 0003:00005360 00000710H .didat$5                DATA
 0003:00005a70 000045e0H .bss                    DATA
 0004:00000000 00013e6cH .pdata                  DATA
 0005:00000000 0000236cH _RDATA                  DATA
 0006:00000000 000000a0H .rsrc$01                DATA
 0006:000000a0 00000488H .rsrc$02                DATA

  Address         Publics by Value              Rva+Base               Lib:Object

 0000:00000000       __AbsoluteZero             0000000000000000     <absolute>
 0000:00000000       ___safe_se_handler_count   0000000000000000     <absolute>
 0000:00000000       ___safe_se_handler_table   0000000000000000     <absolute>
 0000:00000000       __arm64x_extra_rfe_table   0000000000000000     <absolute>
 0000:00000000       __arm64x_extra_rfe_table_size 0000000000000000     <absolute>
 0000:00000000       __arm64x_native_entrypoint 0000000000000000     <absolute>
 0000:00000000       __arm64x_redirection_metadata 0000000000000000     <absolute>
 0000:00000000       __arm64x_redirection_metadata_count 0000000000000000     <absolute>
 0000:00000000       __dynamic_value_reloc_table 0000000000000000     <absolute>
 0000:00000000       __enclave_config           0000000000000000     <absolute>
 0000:00000000       __guard_check_icall_a64n_fptr 0000000000000000     <absolute>
 0000:00000000       __guard_eh_cont_count      0000000000000000     <absolute>
 0000:00000000       __guard_eh_cont_table      0000000000000000     <absolute>
 0000:00000000       __guard_fids_count         0000000000000000     <absolute>
 0000:00000000       __guard_fids_table         0000000000000000     <absolute>
 0000:00000000       __guard_iat_count          0000000000000000     <absolute>
 0000:00000000       __guard_iat_table          0000000000000000     <absolute>
 0000:00000000       __guard_longjmp_count      0000000000000000     <absolute>
 0000:00000000       __guard_longjmp_table      0000000000000000     <absolute>
 0000:00000000       __hybrid_auxiliary_delayload_iat 0000000000000000     <absolute>
 0000:00000000       __hybrid_auxiliary_delayload_iat_copy 0000000000000000     <absolute>
 0000:00000000       __hybrid_auxiliary_iat     0000000000000000     <absolute>
 0000:00000000       __hybrid_auxiliary_iat_copy 0000000000000000     <absolute>
 0000:00000000       __hybrid_code_map          0000000000000000     <absolute>
 0000:00000000       __hybrid_code_map_count    0000000000000000     <absolute>
 0000:00000000       __x64_code_ranges_to_entry_points 0000000000000000     <absolute>
 0000:00000000       __x64_code_ranges_to_entry_points_count 0000000000000000     <absolute>
 0000:00000100       __guard_flags              0000000000000100     <absolute>
 0000:00000000       __ImageBase                0000000180000000     <linker-defined>
 0001:00003310       ??0PxFoundation@physx@@QEAA@AEBV01@@Z 0000000180004310 f i NpOmniPvd.obj
 0001:00003310       ??0PxFoundation@physx@@QEAA@XZ 0000000180004310 f i NpOmniPvd.obj
 0001:00003320       ??1PxFoundation@physx@@MEAA@XZ 0000000180004320 f i NpOmniPvd.obj
 0001:00003330       ??0PxGeometryGeneratedInfo@physx@@QEAA@XZ 0000000180004330 f i PxAutoGeneratedMetaDataObjects.obj
 0001:00003330       ??0PxGeometryGeneratedValues@physx@@QEAA@PEBVPxGeometry@1@@Z 0000000180004330 f i PxAutoGeneratedMetaDataObjects.obj
 0001:00003330       ??0PxPlaneGeometryGeneratedInfo@physx@@QEAA@XZ 0000000180004330 f i PxAutoGeneratedMetaDataObjects.obj
 0001:00003330       ??0PxPlaneGeometryGeneratedValues@physx@@QEAA@PEBVPxPlaneGeometry@1@@Z 0000000180004330 f i PxAutoGeneratedMetaDataObjects.obj
 0001:00003330       ??4PxFoundation@physx@@QEAAAEAV01@AEBV01@@Z 0000000180004330 f i NpOmniPvd.obj
 0001:00003330       ??4PxMutexImpl@physx@@QEAAAEAV01@AEBV01@@Z 0000000180004330 f i NpPvdSceneQueryCollector.obj
 0001:00003330       ??4PxSListImpl@physx@@QEAAAEAU01@AEBU01@@Z 0000000180004330 f i NpActor.obj
 0001:00003330       ??4PxSyncImpl@physx@@QEAAAEAV01@AEBV01@@Z 0000000180004330 f i NpActor.obj
 0001:00003330       ??4PxThreadImpl@physx@@QEAAAEAV01@AEBV01@@Z 0000000180004330 f i NpActor.obj
 0001:00003340       ??_EPxFoundation@physx@@MEAAPEAXI@Z 0000000180004340 f i NpOmniPvd.obj
 0001:000033d0       ?addClothAttachment@NpSoftBody@physx@@UEAAIPEAVPxFEMCloth@2@IAEBV?$PxVec4T@M@2@I1PEAUPxConeLimitedConstraint@2@M@Z 00000001800043d0 f   NpSoftBody.obj
 0001:000033d0       ?addClothAttachment@PxsSimulationController@physx@@UEAAIPEAVSoftBody@Dy@2@PEAVFEMCloth@42@IAEBV?$PxVec4T@M@2@I2PEAUPxConeLimitedConstraint@2@M_N@Z 00000001800043d0 f   SimulationController_static_64:ScScene.obj
 0001:000033d0       ?addParticleAttachment@PxsSimulationController@physx@@UEAAIPEAVSoftBody@Dy@2@PEBVParticleSystem@42@IIIAEBV?$PxVec4T@M@2@_N@Z 00000001800043d0 f   SimulationController_static_64:ScScene.obj
 0001:000033d0       ?addRigidAttachment@PxsSimulationController@physx@@UEAAIPEAVFEMCloth@Dy@2@AEBVPxNodeIndex@2@PEAVPxsRigidBody@2@1IAEBV?$PxVec3T@M@2@PEAUPxConeLimitedConstraint@2@_N@Z 00000001800043d0 f   SimulationController_static_64:ScScene.obj
 0001:000033d0       ?addRigidAttachment@PxsSimulationController@physx@@UEAAIPEAVSoftBody@Dy@2@AEBVPxNodeIndex@2@PEAVPxsRigidBody@2@1IAEBV?$PxVec3T@M@2@PEAUPxConeLimitedConstraint@2@_N@Z 00000001800043d0 f   SimulationController_static_64:ScScene.obj
 0001:000033d0       ?addSoftBodyAttachment@PxsSimulationController@physx@@UEAAIPEAVSoftBody@Dy@2@0IIAEBV?$PxVec4T@M@2@1PEAUPxConeLimitedConstraint@2@M_N@Z 00000001800043d0 f   SimulationController_static_64:ScScene.obj
 0001:000033d0       ?addTetRigidAttachment@PxsSimulationController@physx@@UEAAIPEAVSoftBody@Dy@2@PEAVPxsRigidBody@2@AEBVPxNodeIndex@2@IAEBV?$PxVec4T@M@2@AEBV?$PxVec3T@M@2@PEAUPxConeLimitedConstraint@2@_N@Z 00000001800043d0 f   SimulationController_static_64:ScScene.obj
 0001:000033d0       ?addTriClothAttachment@PxsSimulationController@physx@@UEAAIPEAVFEMCloth@Dy@2@0IIAEBV?$PxVec4T@M@2@1_N@Z 00000001800043d0 f   SimulationController_static_64:ScScene.obj
 0001:000033d0       ?addTriRigidAttachment@PxsSimulationController@physx@@UEAAIPEAVFEMCloth@Dy@2@PEAVPxsRigidBody@2@AEBVPxNodeIndex@2@IAEBV?$PxVec4T@M@2@AEBV?$PxVec3T@M@2@PEAUPxConeLimitedConstraint@2@_N@Z 00000001800043d0 f   SimulationController_static_64:ScScene.obj
 0001:000033d0       ?createFEMCloth@NpPhysics@physx@@UEAAPEAVPxFEMCloth@2@AEAVPxCudaContextManager@2@@Z 00000001800043d0 f   NpPhysics.obj
 0001:000033d0       ?createFEMClothMaterial@NpPhysics@physx@@UEAAPEAVPxFEMClothMaterial@2@MMM@Z 00000001800043d0 f   NpPhysics.obj
 0001:000033d0       ?createFLIPMaterial@NpPhysics@physx@@UEAAPEAVPxFLIPMaterial@2@MMMMM@Z 00000001800043d0 f   NpPhysics.obj
 0001:000033d0       ?createFLIPParticleSystem@NpPhysics@physx@@UEAAPEAVPxFLIPParticleSystem@2@AEAVPxCudaContextManager@2@@Z 00000001800043d0 f   NpPhysics.obj
 0001:000033d0       ?createHairSystem@NpPhysics@physx@@UEAAPEAVPxHairSystem@2@AEAVPxCudaContextManager@2@@Z 00000001800043d0 f   NpPhysics.obj
 0001:000033d0       ?createMPMMaterial@NpPhysics@physx@@UEAAPEAVPxMPMMaterial@2@MMM_NMMMMMMMMM@Z 00000001800043d0 f   NpPhysics.obj
 0001:000033d0       ?createMPMParticleSystem@NpPhysics@physx@@UEAAPEAVPxMPMParticleSystem@2@AEAVPxCudaContextManager@2@@Z 00000001800043d0 f   NpPhysics.obj
 0001:000033d0       ?createShape@NpPhysics@physx@@UEAAPEAVPxShape@2@AEBVPxGeometry@2@PEBQEAVPxFEMClothMaterial@2@G_NV?$PxFlags@W4Enum@PxShapeFlag@physx@@E@2@@Z 00000001800043d0 f   NpPhysics.obj
 0001:000033d0       ?getActivatedFEMCloths@PxsSimulationController@physx@@UEBAPEAPEAVFEMCloth@Dy@2@XZ 00000001800043d0 f   SimulationController_static_64:ScScene.obj
 0001:000033d0       ?getActivatedHairSystems@PxsSimulationController@physx@@UEBAPEAPEAVHairSystem@Dy@2@XZ 00000001800043d0 f   SimulationController_static_64:ScScene.obj
 0001:000033d0       ?getActivatedSoftbodies@PxsSimulationController@physx@@UEBAPEAPEAVSoftBody@Dy@2@XZ 00000001800043d0 f   SimulationController_static_64:ScScene.obj
 0001:000033d0       ?getActiveBodies@PxsSimulationController@physx@@UEAAPEAIXZ 00000001800043d0 f   SimulationController_static_64:ScScene.obj
 0001:000033d0       ?getClothMaterials@NpShape@physx@@UEBAIPEAPEAVPxFEMClothMaterial@2@II@Z 00000001800043d0 f   NpShape.obj
 0001:000033d0       ?getDeactivatedFEMCloths@PxsSimulationController@physx@@UEBAPEAPEAVFEMCloth@Dy@2@XZ 00000001800043d0 f   SimulationController_static_64:ScScene.obj
 0001:000033d0       ?getDeactivatedHairSystems@PxsSimulationController@physx@@UEBAPEAPEAVHairSystem@Dy@2@XZ 00000001800043d0 f   SimulationController_static_64:ScScene.obj
 0001:000033d0       ?getDeactivatedSoftbodies@PxsSimulationController@physx@@UEBAPEAPEAVSoftBody@Dy@2@XZ 00000001800043d0 f   SimulationController_static_64:ScScene.obj
 0001:000033d0       ?getDeactiveBodies@PxsSimulationController@physx@@UEAAPEAIXZ 00000001800043d0 f   SimulationController_static_64:ScScene.obj
 0001:000033d0       ?getFEMClothMaterials@NpPhysics@physx@@UEBAIPEAPEAVPxFEMClothMaterial@2@II@Z 00000001800043d0 f   NpPhysics.obj
 0001:000033d0       ?getFEMCloths@NpScene@physx@@UEBAIPEAPEAVPxFEMCloth@2@II@Z 00000001800043d0 f   NpScene.obj
 0001:000033d0       ?getFLIPMaterials@NpPhysics@physx@@UEBAIPEAPEAVPxFLIPMaterial@2@II@Z 00000001800043d0 f   NpPhysics.obj
 0001:000033d0       ?getFrozenShapes@PxsSimulationController@physx@@UEAAPEAIXZ 00000001800043d0 f   SimulationController_static_64:ScScene.obj
 0001:000033d0       ?getGPUContactManagerOutputBase@PxsNphaseImplementationContext@physx@@UEAAPEAUPxsContactManagerOutput@2@XZ 00000001800043d0 f   LowLevel_static_64:PxsNphaseImplementationContext.obj
 0001:000033d0       ?getGPURestDistances@PxsNphaseImplementationContext@physx@@UEAAPEAMXZ 00000001800043d0 f   LowLevel_static_64:PxsNphaseImplementationContext.obj
 0001:000033d0       ?getGPUShapeInteractions@PxsNphaseImplementationContext@physx@@UEAAPEAPEAVShapeInteraction@Sc@2@XZ 00000001800043d0 f   LowLevel_static_64:PxsNphaseImplementationContext.obj
 0001:000033d0       ?getGPUTorsionalData@PxsNphaseImplementationContext@physx@@UEAAPEAUPxsTorsionalFrictionData@2@XZ 00000001800043d0 f   LowLevel_static_64:PxsNphaseImplementationContext.obj
 0001:000033d0       ?getHairSystemWakeCounters@PxsSimulationController@physx@@UEBAPEBMXZ 00000001800043d0 f   SimulationController_static_64:ScScene.obj
 0001:000033d0       ?getHairSystems@NpScene@physx@@UEBAIPEAPEAVPxHairSystem@2@II@Z 00000001800043d0 f   NpScene.obj
 0001:000033d0       ?getMPMDataPointer@PxsSimulationController@physx@@UEAAPEAXAEBVParticleSystem@Dy@2@W4Enum@PxMPMParticleDataFlag@@@Z 00000001800043d0 f   SimulationController_static_64:ScScene.obj
 0001:000033d0       ?getMPMMaterials@NpPhysics@physx@@UEBAIPEAPEAVPxMPMMaterial@2@II@Z 00000001800043d0 f   NpPhysics.obj
 0001:000033d0       ?getNbActivatedFEMCloth@PxsSimulationController@physx@@UEBAIXZ 00000001800043d0 f   SimulationController_static_64:ScScene.obj
 0001:000033d0       ?getNbActivatedHairSystems@PxsSimulationController@physx@@UEBAIXZ 00000001800043d0 f   SimulationController_static_64:ScScene.obj
 0001:000033d0       ?getNbActivatedSoftbodies@PxsSimulationController@physx@@UEBAIXZ 00000001800043d0 f   SimulationController_static_64:ScScene.obj
 0001:000033d0       ?getNbBodies@PxsSimulationController@physx@@UEAAIXZ 00000001800043d0 f   SimulationController_static_64:ScScene.obj
 0001:000033d0       ?getNbDeactivatedFEMCloth@PxsSimulationController@physx@@UEBAIXZ 00000001800043d0 f   SimulationController_static_64:ScScene.obj
 0001:000033d0       ?getNbDeactivatedHairSystems@PxsSimulationController@physx@@UEBAIXZ 00000001800043d0 f   SimulationController_static_64:ScScene.obj
 0001:000033d0       ?getNbDeactivatedSoftbodies@PxsSimulationController@physx@@UEBAIXZ 00000001800043d0 f   SimulationController_static_64:ScScene.obj
 0001:000033d0       ?getNbFEMClothMaterials@NpPhysics@physx@@UEBAIXZ 00000001800043d0 f   NpPhysics.obj
 0001:000033d0       ?getNbFEMCloths@NpScene@physx@@UEBAIXZ 00000001800043d0 f   NpScene.obj
 0001:000033d0       ?getNbFLIPMaterials@NpPhysics@physx@@UEBAIXZ 00000001800043d0 f   NpPhysics.obj
 0001:000033d0       ?getNbFrozenShapes@PxsSimulationController@physx@@UEAAIXZ 00000001800043d0 f   SimulationController_static_64:ScScene.obj
 0001:000033d0       ?getNbHairSystems@NpScene@physx@@UEBAIXZ 00000001800043d0 f   NpScene.obj
 0001:000033d0       ?getNbMPMMaterials@NpPhysics@physx@@UEBAIXZ 00000001800043d0 f   NpPhysics.obj
 0001:000033d0       ?getNbOutOfBoundsObjects@BroadPhaseBase@Bp@physx@@UEBAIXZ 00000001800043d0 f   LowLevelAABB_static_64:BpBroadPhaseSap.obj
 0001:000033d0       ?getNbRegions@BroadPhaseBase@Bp@physx@@UEBAIXZ 00000001800043d0 f   LowLevelAABB_static_64:BpBroadPhaseSap.obj
 0001:000033d0       ?getNbShapes@PxsSimulationController@physx@@UEAAIXZ 00000001800043d0 f   SimulationController_static_64:ScScene.obj
 0001:000033d0       ?getNbUnfrozenShapes@PxsSimulationController@physx@@UEAAIXZ 00000001800043d0 f   SimulationController_static_64:ScScene.obj
 0001:000033d0       ?getNumCountedInteractions@ActorSim@Sc@physx@@UEBAIXZ 00000001800043d0 f   SimulationController_static_64:ScSoftBodySim.obj
 0001:000033d0       ?getOmniPvd@NpPhysics@physx@@UEAAPEAVPxOmniPvd@2@XZ 00000001800043d0 f   NpPhysics.obj
 0001:000033d0       ?getOutOfBoundsObjects@BroadPhaseBase@Bp@physx@@UEBAPEBIXZ 00000001800043d0 f   LowLevelAABB_static_64:BpBroadPhaseSap.obj
 0001:000033d0       ?getRegions@BroadPhaseBase@Bp@physx@@UEBAIPEAUPxBroadPhaseRegionInfo@3@II@Z 00000001800043d0 f   LowLevelAABB_static_64:BpBroadPhaseSap.obj
 0001:000033d0       ?getRigidBodies@PxsSimulationController@physx@@UEAAPEAPEAXXZ 00000001800043d0 f   SimulationController_static_64:ScScene.obj
 0001:000033d0       ?getScenePvdClient@NpScene@physx@@UEAAPEAVPxPvdSceneClient@2@XZ 00000001800043d0 f   NpScene.obj
 0001:000033d0       ?getShapeSims@PxsSimulationController@physx@@UEAAPEAPEAUPxsShapeSim@2@XZ 00000001800043d0 f   SimulationController_static_64:ScScene.obj
 0001:000033d0       ?getSoftBodyWakeCounters@PxsSimulationController@physx@@UEBAPEBMXZ 00000001800043d0 f   SimulationController_static_64:ScScene.obj
 0001:000033d0       ?getSolverType@DynamicsContext@Dy@physx@@UEBA?AW4Enum@PxSolverType@3@XZ 00000001800043d0 f   LowLevelDynamics_static_64:DyDynamics.obj
 0001:000033d0       ?getSparseGridDataPointer@PxsSimulationController@physx@@UEAAPEAXAEBVParticleSystem@Dy@2@W4Enum@PxSparseGridDataFlag@@W45PxParticleSolverType@2@@Z 00000001800043d0 f   SimulationController_static_64:ScScene.obj
 0001:000033d0       ?getType@BroadPhaseSap@Bp@physx@@UEBA?AW4Enum@PxBroadPhaseType@3@XZ 00000001800043d0 f   LowLevelAABB_static_64:BpBroadPhaseSap.obj
 0001:000033d0       ?getType@NpRigidStatic@physx@@UEBA?AW4Enum@PxActorType@2@XZ 00000001800043d0 f   NpRigidStatic.obj
 0001:000033d0       ?getUnfrozenShapes@PxsSimulationController@physx@@UEAAPEAIXZ 00000001800043d0 f   SimulationController_static_64:ScScene.obj
 0001:000033d0       PxCreateOmniPvd            00000001800043d0 f   NpOmniPvd.obj
 0001:000033d0       PxGetBroadPhaseStaticFilterGroup 00000001800043d0 f   NpImmediateMode.obj
 0001:000033e0       ??1ActorCore@Sc@physx@@QEAA@XZ 00000001800043e0 f i SimulationController_static_64:ScActorCore.obj
 0001:000033e0       ??1ArticulationCore@Sc@physx@@QEAA@XZ 00000001800043e0 f i SimulationController_static_64:ScArticulationCore.obj
 0001:000033e0       ??1ArticulationJointCore@Sc@physx@@QEAA@XZ 00000001800043e0 f i SimulationController_static_64:ScArticulationJointCore.obj
 0001:000033e0       ??1BpFilter@Bp@physx@@QEAA@XZ 00000001800043e0 f i LowLevelAABB_static_64:BpFiltering.obj
 0001:000033e0       ??1ConstraintInteraction@Sc@physx@@QEAA@XZ 00000001800043e0 f i SimulationController_static_64:ScConstraintInteraction.obj
 0001:000033e0       ??1PxsContactManager@physx@@QEAA@XZ 00000001800043e0 f i LowLevel_static_64:PxsContactManager.obj
 0001:000033e0       ??1SapPairManager@Bp@physx@@QEAA@XZ 00000001800043e0 f i LowLevelAABB_static_64:BpBroadPhaseSapAux.obj
 0001:000033e0       ?PxcClearContactCacheStats@@YAXXZ 00000001800043e0 f i LowLevel_static_64:PxcContactCache.obj
 0001:000033e0       ?PxcDisplayContactCacheStats@@YAXXZ 00000001800043e0 f i LowLevel_static_64:PxcContactCache.obj
 0001:000033e0       ?__empty_global_delete@@YAXPEAX_K@Z 00000001800043e0 f i OmniPvdChunkAlloc.obj
 0001:000033e0       ?__global_delete@@YAXPEAX_K@Z 00000001800043e0 f i OmniPvdChunkAlloc.obj
 0001:000033e0       ?acquireContext@PxsNphaseImplementationContext@physx@@UEAAXXZ 00000001800043e0 f i LowLevel_static_64:PxsNphaseImplementationContext.obj
 0001:000033e0       ?activateCloth@PxsSimulationController@physx@@UEAAXPEAVFEMCloth@Dy@2@@Z 00000001800043e0 f i SimulationController_static_64:ScScene.obj
 0001:000033e0       ?activateHairSystem@PxsSimulationController@physx@@UEAAXPEAVHairSystem@Dy@2@@Z 00000001800043e0 f i SimulationController_static_64:ScScene.obj
 0001:000033e0       ?activateSoftbody@PxsSimulationController@physx@@UEAAXPEAVSoftBody@Dy@2@@Z 00000001800043e0 f i SimulationController_static_64:ScScene.obj
 0001:000033e0       ?activateSoftbodySelfCollision@PxsSimulationController@physx@@UEAAXPEAVSoftBody@Dy@2@@Z 00000001800043e0 f i SimulationController_static_64:ScScene.obj
 0001:000033e0       ?addArticulation@PxsSimulationController@physx@@UEAAXPEAVFeatherstoneArticulation@Dy@2@AEBVPxNodeIndex@2@@Z 00000001800043e0 f i SimulationController_static_64:ScScene.obj
 0001:000033e0       ?addClothFilter@NpSoftBody@physx@@UEAAXPEAVPxFEMCloth@2@II@Z 00000001800043e0 f i NpSoftBody.obj
 0001:000033e0       ?addClothFilter@PxsSimulationController@physx@@UEAAXPEAVFEMCloth@Dy@2@0II@Z 00000001800043e0 f i SimulationController_static_64:ScScene.obj
 0001:000033e0       ?addClothFilter@PxsSimulationController@physx@@UEAAXPEAVSoftBody@Dy@2@PEAVFEMCloth@42@II@Z 00000001800043e0 f i SimulationController_static_64:ScScene.obj
 0001:000033e0       ?addDynamic@PxsSimulationController@physx@@UEAAXPEAVPxsRigidBody@2@AEBVPxNodeIndex@2@@Z 00000001800043e0 f i SimulationController_static_64:ScScene.obj
 0001:000033e0       ?addDynamics@PxsSimulationController@physx@@UEAAXPEAPEAVPxsRigidBody@2@PEBII@Z 00000001800043e0 f i SimulationController_static_64:ScScene.obj
 0001:000033e0       ?addFEMCloth@PxsSimulationController@physx@@UEAAXPEAVFEMCloth@Dy@2@AEBVPxNodeIndex@2@@Z 00000001800043e0 f i SimulationController_static_64:ScScene.obj
 0001:000033e0       ?addHairSystem@PxsSimulationController@physx@@UEAAXPEAVHairSystem@Dy@2@AEBVPxNodeIndex@2@@Z 00000001800043e0 f i SimulationController_static_64:ScScene.obj
 0001:000033e0       ?addJoint@PxsSimulationController@physx@@UEAAXIPEAUConstraint@Dy@2@AEAVIslandSim@IG@2@AEAV?$PxArray@IV?$PxReflectionAllocator@I@physx@@@2@AEAV?$PxArray@UPxgSolverConstraintManagerConstants@physx@@VPxVirtualAllocator@2@@2@I@Z 00000001800043e0 f i SimulationController_static_64:ScScene.obj
 0001:000033e0       ?addParticleFilter@PxsSimulationController@physx@@UEAAXPEAVSoftBody@Dy@2@PEAVParticleSystem@42@III@Z 00000001800043e0 f i SimulationController_static_64:ScScene.obj
 0001:000033e0       ?addParticleSystem@PxsSimulationController@physx@@UEAAXPEAVParticleSystem@Dy@2@AEBVPxNodeIndex@2@W4Enum@PxParticleSolverType@2@@Z 00000001800043e0 f i SimulationController_static_64:ScScene.obj
 0001:000033e0       ?addRigidFilter@PxsSimulationController@physx@@UEAAXPEAVFEMCloth@Dy@2@AEBVPxNodeIndex@2@I@Z 00000001800043e0 f i SimulationController_static_64:ScScene.obj
 0001:000033e0       ?addRigidFilter@PxsSimulationController@physx@@UEAAXPEAVSoftBody@Dy@2@AEBVPxNodeIndex@2@1I@Z 00000001800043e0 f i SimulationController_static_64:ScScene.obj
 0001:000033e0       ?addShape@PxsSimulationController@physx@@UEAAXPEAUPxsShapeSim@2@I@Z 00000001800043e0 f i SimulationController_static_64:ScScene.obj
 0001:000033e0       ?addSoftBody@PxsSimulationController@physx@@UEAAXPEAVSoftBody@Dy@2@AEBVPxNodeIndex@2@@Z 00000001800043e0 f i SimulationController_static_64:ScScene.obj
 0001:000033e0       ?addSoftBodyFilter@PxsSimulationController@physx@@UEAAXPEAVSoftBody@Dy@2@0II@Z 00000001800043e0 f i SimulationController_static_64:ScScene.obj
 0001:000033e0       ?addSoftBodyFilters@PxsSimulationController@physx@@UEAAXPEAVSoftBody@Dy@2@0PEAI1I@Z 00000001800043e0 f i SimulationController_static_64:ScScene.obj
 0001:000033e0       ?addTetRigidFilter@PxsSimulationController@physx@@UEAAXPEAVSoftBody@Dy@2@AEBVPxNodeIndex@2@I@Z 00000001800043e0 f i SimulationController_static_64:ScScene.obj
 0001:000033e0       ?addTriRigidFilter@PxsSimulationController@physx@@UEAAXPEAVFEMCloth@Dy@2@AEBVPxNodeIndex@2@I@Z 00000001800043e0 f i SimulationController_static_64:ScScene.obj
 0001:000033e0       ?applyActorData@PxsSimulationController@physx@@UEAAXPEAXPEAUPxGpuActorPair@2@W4Enum@PxActorCacheFlag@2@I00@Z 00000001800043e0 f i SimulationController_static_64:ScScene.obj
 0001:000033e0       ?applyArticulationData@PxsSimulationController@physx@@UEAAXPEAX0W4Enum@PxArticulationGpuDataType@2@I00@Z 00000001800043e0 f i SimulationController_static_64:ScScene.obj
 0001:000033e0       ?applyParticleBufferData@PxsSimulationController@physx@@UEAAXPEBIPEBUPxGpuParticleBufferIndexPair@2@PEBV?$PxFlags@W4Enum@PxParticleBufferFlag@physx@@I@2@IPEAX3@Z 00000001800043e0 f i SimulationController_static_64:ScScene.obj
 0001:000033e0       ?applySoftBodyData@PxsSimulationController@physx@@UEAAXPEAPEAXPEAX1W4Enum@PxSoftBodyGpuDataFlag@2@II1@Z 00000001800043e0 f i SimulationController_static_64:ScScene.obj
 0001:000033e0       ?clear@PxsSimulationController@physx@@UEAAXXZ 00000001800043e0 f i SimulationController_static_64:ScScene.obj
 0001:000033e0       ?clearOutOfBoundsObjects@AABBManagerBase@Bp@physx@@UEAAXXZ 00000001800043e0 f i LowLevelAABB_static_64:BpAABBManagerBase.obj
 0001:000033e0       ?clearShapesOnRelease@NpShapeManager@physx@@QEAAXAEAVNpScene@2@AEAVPxRigidActor@2@@Z 00000001800043e0 f i NpShapeManager.obj
 0001:000033e0       ?computeCoriolisAndCentrifugalForces@PxsSimulationController@physx@@UEAAXPEBUPxIndexDataPair@2@IPEAX@Z 00000001800043e0 f i SimulationController_static_64:ScScene.obj
 0001:000033e0       ?computeDenseJacobians@PxsSimulationController@physx@@UEAAXPEBUPxIndexDataPair@2@IPEAX@Z 00000001800043e0 f i SimulationController_static_64:ScScene.obj
 0001:000033e0       ?computeGeneralizedGravityForces@PxsSimulationController@physx@@UEAAXPEBUPxIndexDataPair@2@IAEBV?$PxVec3T@M@2@PEAX@Z 00000001800043e0 f i SimulationController_static_64:ScScene.obj
 0001:000033e0       ?computeGeneralizedMassMatrices@PxsSimulationController@physx@@UEAAXPEBUPxIndexDataPair@2@IPEAX@Z 00000001800043e0 f i SimulationController_static_64:ScScene.obj
 0001:000033e0       ?concludeContact@Dy@physx@@YAXAEBUPxSolverConstraintDesc@2@@Z 00000001800043e0 f i LowLevelDynamics_static_64:DyTGSContactPrep.obj
 0001:000033e0       ?copyArticulationData@PxsSimulationController@physx@@UEAAXPEAX0W4Enum@PxArticulationGpuDataType@2@I0@Z 00000001800043e0 f i SimulationController_static_64:ScScene.obj
 0001:000033e0       ?copyBodyData@PxsSimulationController@physx@@UEAAXPEAUPxGpuBodyData@2@PEAUPxGpuActorPair@2@IPEAX@Z 00000001800043e0 f i SimulationController_static_64:ScScene.obj
 0001:000033e0       ?copyContactData@PxsSimulationController@physx@@UEAAXPEAVContext@Dy@2@PEAXI11@Z 00000001800043e0 f i SimulationController_static_64:ScScene.obj
 0001:000033e0       ?copySoftBodyData@PxsSimulationController@physx@@UEAAXPEAPEAXPEAX1W4Enum@PxSoftBodyGpuDataFlag@2@II1@Z 00000001800043e0 f i SimulationController_static_64:ScScene.obj
 0001:000033e0       ?deactivateCloth@PxsSimulationController@physx@@UEAAXPEAVFEMCloth@Dy@2@@Z 00000001800043e0 f i SimulationController_static_64:ScScene.obj
 0001:000033e0       ?deactivateHairSystem@PxsSimulationController@physx@@UEAAXPEAVHairSystem@Dy@2@@Z 00000001800043e0 f i SimulationController_static_64:ScScene.obj
 0001:000033e0       ?deactivateSoftbody@PxsSimulationController@physx@@UEAAXPEAVSoftBody@Dy@2@@Z 00000001800043e0 f i SimulationController_static_64:ScScene.obj
 0001:000033e0       ?deactivateSoftbodySelfCollision@PxsSimulationController@physx@@UEAAXPEAVSoftBody@Dy@2@@Z 00000001800043e0 f i SimulationController_static_64:ScScene.obj
 0001:000033e0       ?evaluateSDFDistances@PxsSimulationController@physx@@UEAAXPEBIIPEBV?$PxVec4T@M@2@0IPEAV32@PEAX@Z 00000001800043e0 f i SimulationController_static_64:ScScene.obj
 0001:000033e0       ?exportData@?$NpParticleSystem@VPxPBDParticleSystem@physx@@@physx@@UEBAXAEAVPxSerializationContext@2@@Z 00000001800043e0 f i NpParticleSystem.obj
 0001:000033e0       ?exportExtraData@?$PxSerializerDefaultAdapter@VNpArticulationJointReducedCoordinate@physx@@@physx@@UEBAXAEAVPxBase@2@AEAVPxSerializationContext@2@@Z 00000001800043e0 f i NpSerializerAdapter.obj
 0001:000033e0       ?exportExtraData@?$PxSerializerDefaultAdapter@VNpConstraint@physx@@@physx@@UEBAXAEAVPxBase@2@AEAVPxSerializationContext@2@@Z 00000001800043e0 f i NpSerializerAdapter.obj
 0001:000033e0       ?exportExtraData@?$PxSerializerDefaultAdapter@VNpMaterial@physx@@@physx@@UEBAXAEAVPxBase@2@AEAVPxSerializationContext@2@@Z 00000001800043e0 f i NpSerializerAdapter.obj
 0001:000033e0       ?exportExtraData@NpArticulationSensor@physx@@UEAAXAEAVPxSerializationContext@2@@Z 00000001800043e0 f i NpArticulationSensor.obj
 0001:000033e0       ?fetchBroadPhaseResults@BroadPhaseABP@Bp@physx@@UEAAXXZ 00000001800043e0 f i LowLevelAABB_static_64:BpBroadPhaseABP.obj
 0001:000033e0       ?fetchBroadPhaseResults@BroadPhaseMBP@Bp@physx@@UEAAXXZ 00000001800043e0 f i LowLevelAABB_static_64:BpBroadPhaseMBP.obj
 0001:000033e0       ?fetchBroadPhaseResults@BroadPhaseSap@Bp@physx@@UEAAXXZ 00000001800043e0 f i LowLevelAABB_static_64:BpBroadPhaseSap.obj
 0001:000033e0       ?fetchUpdateContactManager@PxsNphaseImplementationContext@physx@@UEAAXXZ 00000001800043e0 f i LowLevel_static_64:PxsNphaseImplementationContext.obj
 0001:000033e0       ?finalizeQuery@?$PxHitCallback@UPxRaycastHit@physx@@@physx@@UEAAXXZ 00000001800043e0 f i SceneQuery_static_64:SqQuery.obj
 0001:000033e0       ?finalizeQuery@?$PxHitCallback@UPxSweepHit@physx@@@physx@@UEAAXXZ 00000001800043e0 f i SceneQuery_static_64:SqQuery.obj
 0001:000033e0       ?flush@PxsSimulationController@physx@@UEAAXXZ 00000001800043e0 f i SimulationController_static_64:ScScene.obj
 0001:000033e0       ?flushInsertions@PxsSimulationController@physx@@UEAAXXZ 00000001800043e0 f i SimulationController_static_64:ScScene.obj
 0001:000033e0       ?frameEnd@NpScene@physx@@UEAAXXZ 00000001800043e0 f i NpScene.obj
 0001:000033e0       ?getDataStreamBase@Context@Dy@physx@@UEAAXAEAPEAX00@Z 00000001800043e0 f i LowLevelDynamics_static_64:DyTGSDynamics.obj
 0001:000033e0       ?gpuDmabackData@PxsSimulationController@physx@@UEAAXAEAVPxsTransformCache@2@AEAVBoundsArray@Bp@2@AEAV?$PxBitMapBase@VPxVirtualAllocator@physx@@@2@_N@Z 00000001800043e0 f i SimulationController_static_64:ScScene.obj
 0001:000033e0       ?internalWakeUp@ActorSim@Sc@physx@@UEAAXM@Z 00000001800043e0 f i SimulationController_static_64:ScSoftBodySim.obj
 0001:000033e0       ?mergeChangedAABBMgHandle@PxsSimulationController@physx@@UEAAXI_N@Z 00000001800043e0 f i SimulationController_static_64:ScScene.obj
 0001:000033e0       ?mergeResults@DynamicsTGSContext@Dy@physx@@UEAAXXZ 00000001800043e0 f i LowLevelDynamics_static_64:DyTGSDynamics.obj
 0001:000033e0       ?postActorFlagChange@ActorSim@Sc@physx@@UEAAXII@Z 00000001800043e0 f i SimulationController_static_64:ScSoftBodySim.obj
 0001:000033e0       ?postBroadPhaseUpdateContactManager@PxsNphaseImplementationContext@physx@@UEAAXPEAVPxBaseTask@2@@Z 00000001800043e0 f i LowLevel_static_64:PxsNphaseImplementationContext.obj
 0001:000033e0       ?preBroadPhase@BroadPhaseABP@Bp@physx@@UEAAXAEBVBroadPhaseUpdateData@23@@Z 00000001800043e0 f i LowLevelAABB_static_64:BpBroadPhaseABP.obj
 0001:000033e0       ?preBroadPhase@BroadPhaseMBP@Bp@physx@@UEAAXAEBVBroadPhaseUpdateData@23@@Z 00000001800043e0 f i LowLevelAABB_static_64:BpBroadPhaseMBP.obj
 0001:000033e0       ?preBroadPhase@BroadPhaseSap@Bp@physx@@UEAAXAEBVBroadPhaseUpdateData@23@@Z 00000001800043e0 f i LowLevelAABB_static_64:BpBroadPhaseSap.obj
 0001:000033e0       ?preExportDataReset@NpShapeManager@physx@@QEAAXXZ 00000001800043e0 f i NpShapeManager.obj
 0001:000033e0       ?preIntegrateAndUpdateBound@PxsSimulationController@physx@@UEAAXPEAVPxBaseTask@2@V?$PxVec3T@M@2@M@Z 00000001800043e0 f i SimulationController_static_64:ScScene.obj
 0001:000033e0       ?preallocateNewBuffers@PxsNphaseImplementationContext@physx@@UEAAXII@Z 00000001800043e0 f i LowLevel_static_64:PxsNphaseImplementationContext.obj
 0001:000033e0       ?processFoundPatches@Context@Dy@physx@@UEAAXAEAVSimpleIslandManager@IG@3@PEAPEAVPxsContactManager@3@IPEAUPxsContactManagerOutputCounts@3@@Z 00000001800043e0 f i LowLevelDynamics_static_64:DyTGSDynamics.obj
 0001:000033e0       ?processLostPatches@Context@Dy@physx@@UEAAXAEAVSimpleIslandManager@IG@3@PEAPEAVPxsContactManager@3@IPEAUPxsContactManagerOutputCounts@3@@Z 00000001800043e0 f i LowLevelDynamics_static_64:DyTGSDynamics.obj
 0001:000033e0       ?registerAggregate@PxsNphaseImplementationContext@physx@@UEAAXI@Z 00000001800043e0 f i LowLevel_static_64:PxsNphaseImplementationContext.obj
 0001:000033e0       ?registerCountedInteraction@ActorSim@Sc@physx@@UEAAXXZ 00000001800043e0 f i SimulationController_static_64:ScSoftBodySim.obj
 0001:000033e0       ?registerMaterial@PxsNphaseImplementationContext@physx@@UEAAXAEBV?$MaterialCoreT@UPxsFEMClothMaterialData@physx@@VPxFEMClothMaterial@2@@2@@Z 00000001800043e0 f i LowLevel_static_64:PxsNphaseImplementationContext.obj
 0001:000033e0       ?registerMaterial@PxsNphaseImplementationContext@physx@@UEAAXAEBV?$MaterialCoreT@UPxsFEMSoftBodyMaterialData@physx@@VPxFEMSoftBodyMaterial@2@@2@@Z 00000001800043e0 f i LowLevel_static_64:PxsNphaseImplementationContext.obj
 0001:000033e0       ?registerMaterial@PxsNphaseImplementationContext@physx@@UEAAXAEBV?$MaterialCoreT@UPxsFLIPMaterialData@physx@@VPxFLIPMaterial@2@@2@@Z 00000001800043e0 f i LowLevel_static_64:PxsNphaseImplementationContext.obj
 0001:000033e0       ?registerMaterial@PxsNphaseImplementationContext@physx@@UEAAXAEBV?$MaterialCoreT@UPxsMPMMaterialData@physx@@VPxMPMMaterial@2@@2@@Z 00000001800043e0 f i LowLevel_static_64:PxsNphaseImplementationContext.obj
 0001:000033e0       ?registerMaterial@PxsNphaseImplementationContext@physx@@UEAAXAEBV?$MaterialCoreT@UPxsMaterialData@physx@@VPxMaterial@2@@2@@Z 00000001800043e0 f i LowLevel_static_64:PxsNphaseImplementationContext.obj
 0001:000033e0       ?registerMaterial@PxsNphaseImplementationContext@physx@@UEAAXAEBV?$MaterialCoreT@UPxsPBDMaterialData@physx@@VPxPBDMaterial@2@@2@@Z 00000001800043e0 f i LowLevel_static_64:PxsNphaseImplementationContext.obj
 0001:000033e0       ?registerShape@PxsNphaseImplementationContext@physx@@UEAAXAEBVPxNodeIndex@2@AEBUPxsShapeCore@2@IPEAVPxActor@2@_N@Z 00000001800043e0 f i LowLevel_static_64:PxsNphaseImplementationContext.obj
 0001:000033e0       ?reinsertShape@PxsSimulationController@physx@@UEAAXPEAUPxsShapeSim@2@I@Z 00000001800043e0 f i SimulationController_static_64:ScScene.obj
 0001:000033e0       ?releaseArticulation@PxsSimulationController@physx@@UEAAXPEAVFeatherstoneArticulation@Dy@2@AEBVPxNodeIndex@2@@Z 00000001800043e0 f i SimulationController_static_64:ScScene.obj
 0001:000033e0       ?releaseContext@PxsNphaseImplementationContext@physx@@UEAAXXZ 00000001800043e0 f i LowLevel_static_64:PxsNphaseImplementationContext.obj
 0001:000033e0       ?releaseDeferredAggregateIds@AABBManager@Bp@physx@@UEAAXXZ 00000001800043e0 f i LowLevelAABB_static_64:BpAABBManager.obj
 0001:000033e0       ?releaseDeferredArticulationIds@PxsSimulationController@physx@@UEAAXXZ 00000001800043e0 f i SimulationController_static_64:ScScene.obj
 0001:000033e0       ?releaseDeferredFEMClothIds@PxsSimulationController@physx@@UEAAXXZ 00000001800043e0 f i SimulationController_static_64:ScScene.obj
 0001:000033e0       ?releaseDeferredHairSystemIds@PxsSimulationController@physx@@UEAAXXZ 00000001800043e0 f i SimulationController_static_64:ScScene.obj
 0001:000033e0       ?releaseDeferredParticleSystemIds@PxsSimulationController@physx@@UEAAXXZ 00000001800043e0 f i SimulationController_static_64:ScScene.obj
 0001:000033e0       ?releaseDeferredSoftBodyIds@PxsSimulationController@physx@@UEAAXXZ 00000001800043e0 f i SimulationController_static_64:ScScene.obj
 0001:000033e0       ?releaseFEMCloth@PxsSimulationController@physx@@UEAAXPEAVFEMCloth@Dy@2@@Z 00000001800043e0 f i SimulationController_static_64:ScScene.obj
 0001:000033e0       ?releaseHairSystem@PxsSimulationController@physx@@UEAAXPEAVHairSystem@Dy@2@@Z 00000001800043e0 f i SimulationController_static_64:ScScene.obj
 0001:000033e0       ?releaseParticleSystem@PxsSimulationController@physx@@UEAAXPEAVParticleSystem@Dy@2@W4Enum@PxParticleSolverType@2@@Z 00000001800043e0 f i SimulationController_static_64:ScScene.obj
 0001:000033e0       ?releaseSoftBody@PxsSimulationController@physx@@UEAAXPEAVSoftBody@Dy@2@@Z 00000001800043e0 f i SimulationController_static_64:ScScene.obj
 0001:000033e0       ?removeClothAttachment@NpSoftBody@physx@@UEAAXPEAVPxFEMCloth@2@I@Z 00000001800043e0 f i NpSoftBody.obj
 0001:000033e0       ?removeClothAttachment@PxsSimulationController@physx@@UEAAXPEAVSoftBody@Dy@2@I@Z 00000001800043e0 f i SimulationController_static_64:ScScene.obj
 0001:000033e0       ?removeClothFilter@NpSoftBody@physx@@UEAAXPEAVPxFEMCloth@2@II@Z 00000001800043e0 f i NpSoftBody.obj
 0001:000033e0       ?removeClothFilter@PxsSimulationController@physx@@UEAAXPEAVFEMCloth@Dy@2@0II@Z 00000001800043e0 f i SimulationController_static_64:ScScene.obj
 0001:000033e0       ?removeClothFilter@PxsSimulationController@physx@@UEAAXPEAVSoftBody@Dy@2@PEAVFEMCloth@42@II@Z 00000001800043e0 f i SimulationController_static_64:ScScene.obj
 0001:000033e0       ?removeJoint@PxsSimulationController@physx@@UEAAXIPEAUConstraint@Dy@2@AEAV?$PxArray@IV?$PxReflectionAllocator@I@physx@@@2@AEAVIslandSim@IG@2@@Z 00000001800043e0 f i SimulationController_static_64:ScScene.obj
 0001:000033e0       ?removeParticleAttachment@PxsSimulationController@physx@@UEAAXPEAVSoftBody@Dy@2@I@Z 00000001800043e0 f i SimulationController_static_64:ScScene.obj
 0001:000033e0       ?removeParticleFilter@PxsSimulationController@physx@@UEAAXPEAVSoftBody@Dy@2@PEBVParticleSystem@42@III@Z 00000001800043e0 f i SimulationController_static_64:ScScene.obj
 0001:000033e0       ?removeRigidAttachment@PxsSimulationController@physx@@UEAAXPEAVFEMCloth@Dy@2@I@Z 00000001800043e0 f i SimulationController_static_64:ScScene.obj
 0001:000033e0       ?removeRigidAttachment@PxsSimulationController@physx@@UEAAXPEAVSoftBody@Dy@2@I@Z 00000001800043e0 f i SimulationController_static_64:ScScene.obj
 0001:000033e0       ?removeRigidFilter@PxsSimulationController@physx@@UEAAXPEAVFEMCloth@Dy@2@AEBVPxNodeIndex@2@I@Z 00000001800043e0 f i SimulationController_static_64:ScScene.obj
 0001:000033e0       ?removeRigidFilter@PxsSimulationController@physx@@UEAAXPEAVSoftBody@Dy@2@AEBVPxNodeIndex@2@I@Z 00000001800043e0 f i SimulationController_static_64:ScScene.obj
 0001:000033e0       ?removeShape@PxsSimulationController@physx@@UEAAXI@Z 00000001800043e0 f i SimulationController_static_64:ScScene.obj
 0001:000033e0       ?removeSoftBodyAttachment@PxsSimulationController@physx@@UEAAXPEAVSoftBody@Dy@2@I@Z 00000001800043e0 f i SimulationController_static_64:ScScene.obj
 0001:000033e0       ?removeSoftBodyFilter@PxsSimulationController@physx@@UEAAXPEAVSoftBody@Dy@2@0II@Z 00000001800043e0 f i SimulationController_static_64:ScScene.obj
 0001:000033e0       ?removeSoftBodyFilters@PxsSimulationController@physx@@UEAAXPEAVSoftBody@Dy@2@0PEAI1I@Z 00000001800043e0 f i SimulationController_static_64:ScScene.obj
 0001:000033e0       ?removeTetRigidFilter@PxsSimulationController@physx@@UEAAXPEAVSoftBody@Dy@2@AEBVPxNodeIndex@2@I@Z 00000001800043e0 f i SimulationController_static_64:ScScene.obj
 0001:000033e0       ?removeTriClothAttachment@PxsSimulationController@physx@@UEAAXPEAVFEMCloth@Dy@2@I@Z 00000001800043e0 f i SimulationController_static_64:ScScene.obj
 0001:000033e0       ?removeTriRigidAttachment@PxsSimulationController@physx@@UEAAXPEAVFEMCloth@Dy@2@I@Z 00000001800043e0 f i SimulationController_static_64:ScScene.obj
 0001:000033e0       ?removeTriRigidFilter@PxsSimulationController@physx@@UEAAXPEAVFEMCloth@Dy@2@AEBVPxNodeIndex@2@I@Z 00000001800043e0 f i SimulationController_static_64:ScScene.obj
 0001:000033e0       ?requiresObjects@NpArticulationJointReducedCoordinate@physx@@UEAAXAEAVPxProcessPxBaseCallback@2@@Z 00000001800043e0 f i NpArticulationJointReducedCoordinate.obj
 0001:000033e0       ?requiresObjects@NpArticulationSensor@physx@@UEAAXAEAVPxProcessPxBaseCallback@2@@Z 00000001800043e0 f i NpArticulationSensor.obj
 0001:000033e0       ?requiresObjects@NpConstraint@physx@@UEAAXAEAVPxProcessPxBaseCallback@2@@Z 00000001800043e0 f i NpConstraint.obj
 0001:000033e0       ?requiresObjects@NpFEMSoftBodyMaterial@physx@@UEAAXAEAVPxProcessPxBaseCallback@2@@Z 00000001800043e0 f i NpFEMSoftBodyMaterial.obj
 0001:000033e0       ?requiresObjects@NpMaterial@physx@@UEAAXAEAVPxProcessPxBaseCallback@2@@Z 00000001800043e0 f i NpMaterial.obj
 0001:000033e0       ?requiresObjects@NpPBDMaterial@physx@@UEAAXAEAVPxProcessPxBaseCallback@2@@Z 00000001800043e0 f i NpPBDMaterial.obj
 0001:000033e0       ?reserve@PxsSimulationController@physx@@UEAAXI@Z 00000001800043e0 f i SimulationController_static_64:ScScene.obj
 0001:000033e0       ?runInternal@FanoutTask@Cm@physx@@UEAAXXZ 00000001800043e0 f i SimulationController_static_64:ScScene.obj
 0001:000033e0       ?runInternal@SceneCompletion@NpScene@physx@@UEAAXXZ 00000001800043e0 f i NpScene.obj
 0001:000033e0       ?setBounds@PxsSimulationController@physx@@UEAAXPEAVBoundsArray@Bp@2@@Z 00000001800043e0 f i SimulationController_static_64:ScScene.obj
 0001:000033e0       ?setClothMaterials@NpShape@physx@@UEAAXPEBQEAVPxFEMClothMaterial@2@G@Z 00000001800043e0 f i NpShape.obj
 0001:000033e0       ?setClothWakeCounter@PxsSimulationController@physx@@UEAAXPEAVFEMCloth@Dy@2@@Z 00000001800043e0 f i SimulationController_static_64:ScScene.obj
 0001:000033e0       ?setGPUStateChanged@AABBManagerBase@Bp@physx@@UEAAXXZ 00000001800043e0 f i LowLevelAABB_static_64:BpAABBManagerBase.obj
 0001:000033e0       ?setGlobalPose@NpArticulationLink@physx@@UEAAXAEBV?$PxTransformT@M@2@_N@Z 00000001800043e0 f i NpArticulationLink.obj
 0001:000033e0       ?setHairSystemWakeCounter@PxsSimulationController@physx@@UEAAXPEAVHairSystem@Dy@2@@Z 00000001800043e0 f i SimulationController_static_64:ScScene.obj
 0001:000033e0       ?setPersistentStateChanged@AABBManagerBase@Bp@physx@@UEAAXXZ 00000001800043e0 f i LowLevelAABB_static_64:BpAABBManagerBase.obj
 0001:000033e0       ?setSoftBodyWakeCounter@PxsSimulationController@physx@@UEAAXPEAVSoftBody@Dy@2@@Z 00000001800043e0 f i SimulationController_static_64:ScScene.obj
 0001:000033e0       ?shiftOrigin@BroadPhaseABP@Bp@physx@@UEAAXAEBV?$PxVec3T@M@3@PEBVPxBounds3@3@PEBM@Z 00000001800043e0 f i LowLevelAABB_static_64:BpBroadPhaseABP.obj
 0001:000033e0       ?sortContacts@PxsSimulationController@physx@@UEAAXXZ 00000001800043e0 f i SimulationController_static_64:ScScene.obj
 0001:000033e0       ?startNarrowPhaseTasks@PxsNphaseImplementationContext@physx@@UEAAXXZ 00000001800043e0 f i LowLevel_static_64:PxsNphaseImplementationContext.obj
 0001:000033e0       ?stopSimulation@PxTaskMgr@physx@@UEAAXXZ 00000001800043e0 f i PhysXTask_static_64:TaskManager.obj
 0001:000033e0       ?switchFromNoSim@?$NpRigidActorTemplate@VPxArticulationLink@physx@@@physx@@UEAAXXZ 00000001800043e0 f i NpArticulationLink.obj
 0001:000033e0       ?switchFromNoSim@?$NpRigidActorTemplate@VPxRigidDynamic@physx@@@physx@@UEAAXXZ 00000001800043e0 f i NpRigidDynamic.obj
 0001:000033e0       ?switchFromNoSim@?$NpRigidActorTemplate@VPxRigidStatic@physx@@@physx@@UEAAXXZ 00000001800043e0 f i NpRigidStatic.obj
 0001:000033e0       ?switchToNoSim@?$NpRigidActorTemplate@VPxArticulationLink@physx@@@physx@@UEAAXXZ 00000001800043e0 f i NpArticulationLink.obj
 0001:000033e0       ?switchToNoSim@?$NpRigidActorTemplate@VPxRigidDynamic@physx@@@physx@@UEAAXXZ 00000001800043e0 f i NpRigidDynamic.obj
 0001:000033e0       ?switchToNoSim@?$NpRigidActorTemplate@VPxRigidStatic@physx@@@physx@@UEAAXXZ 00000001800043e0 f i NpRigidStatic.obj
 0001:000033e0       ?syncParticleData@PxsSimulationController@physx@@UEAAXXZ 00000001800043e0 f i SimulationController_static_64:ScScene.obj
 0001:000033e0       ?unregisterCountedInteraction@ActorSim@Sc@physx@@UEAAXXZ 00000001800043e0 f i SimulationController_static_64:ScSoftBodySim.obj
 0001:000033e0       ?unregisterMaterial@PxsNphaseImplementationContext@physx@@UEAAXAEBV?$MaterialCoreT@UPxsFEMClothMaterialData@physx@@VPxFEMClothMaterial@2@@2@@Z 00000001800043e0 f i LowLevel_static_64:PxsNphaseImplementationContext.obj
 0001:000033e0       ?unregisterMaterial@PxsNphaseImplementationContext@physx@@UEAAXAEBV?$MaterialCoreT@UPxsFEMSoftBodyMaterialData@physx@@VPxFEMSoftBodyMaterial@2@@2@@Z 00000001800043e0 f i LowLevel_static_64:PxsNphaseImplementationContext.obj
 0001:000033e0       ?unregisterMaterial@PxsNphaseImplementationContext@physx@@UEAAXAEBV?$MaterialCoreT@UPxsFLIPMaterialData@physx@@VPxFLIPMaterial@2@@2@@Z 00000001800043e0 f i LowLevel_static_64:PxsNphaseImplementationContext.obj
 0001:000033e0       ?unregisterMaterial@PxsNphaseImplementationContext@physx@@UEAAXAEBV?$MaterialCoreT@UPxsMPMMaterialData@physx@@VPxMPMMaterial@2@@2@@Z 00000001800043e0 f i LowLevel_static_64:PxsNphaseImplementationContext.obj
 0001:000033e0       ?unregisterMaterial@PxsNphaseImplementationContext@physx@@UEAAXAEBV?$MaterialCoreT@UPxsMaterialData@physx@@VPxMaterial@2@@2@@Z 00000001800043e0 f i LowLevel_static_64:PxsNphaseImplementationContext.obj
 0001:000033e0       ?unregisterMaterial@PxsNphaseImplementationContext@physx@@UEAAXAEBV?$MaterialCoreT@UPxsPBDMaterialData@physx@@VPxPBDMaterial@2@@2@@Z 00000001800043e0 f i LowLevel_static_64:PxsNphaseImplementationContext.obj
 0001:000033e0       ?unregisterShape@PxsNphaseImplementationContext@physx@@UEAAXAEBUPxsShapeCore@2@I_N@Z 00000001800043e0 f i LowLevel_static_64:PxsNphaseImplementationContext.obj
 0001:000033e0       ?update@PxsSimulationController@physx@@UEAAXAEAV?$PxBitMapBase@VPxVirtualAllocator@physx@@@2@@Z 00000001800043e0 f i SimulationController_static_64:ScScene.obj
 0001:000033e0       ?updateArticulation@PxsSimulationController@physx@@UEAAXPEAVFeatherstoneArticulation@Dy@2@AEBVPxNodeIndex@2@@Z 00000001800043e0 f i SimulationController_static_64:ScScene.obj
 0001:000033e0       ?updateArticulationAfterIntegration@PxsSimulationController@physx@@UEAAXPEAVPxsContext@2@PEAVAABBManagerBase@Bp@2@AEAV?$PxArray@PEAVBodySim@Sc@physx@@V?$PxReflectionAllocator@PEAVBodySim@Sc@physx@@@3@@2@PEAVPxBaseTask@2@AEAVIslandSim@IG@2@M@Z 00000001800043e0 f i SimulationController_static_64:ScScene.obj
 0001:000033e0       ?updateArticulationExtAccel@PxsSimulationController@physx@@UEAAXPEAVFeatherstoneArticulation@Dy@2@AEBVPxNodeIndex@2@@Z 00000001800043e0 f i SimulationController_static_64:ScScene.obj
 0001:000033e0       ?updateArticulationJoint@PxsSimulationController@physx@@UEAAXPEAVFeatherstoneArticulation@Dy@2@AEBVPxNodeIndex@2@@Z 00000001800043e0 f i SimulationController_static_64:ScScene.obj
 0001:000033e0       ?updateBodies@PxsSimulationController@physx@@UEAAXPEAPEAVPxsRigidBody@2@PEAII@Z 00000001800043e0 f i SimulationController_static_64:ScScene.obj
 0001:000033e0       ?updateBodies@PxsSimulationController@physx@@UEAAXPEAVPxBaseTask@2@@Z 00000001800043e0 f i SimulationController_static_64:ScScene.obj
 0001:000033e0       ?updateBodyCore@Context@Dy@physx@@UEAAXPEAVPxBaseTask@3@@Z 00000001800043e0 f i LowLevelDynamics_static_64:DyTGSDynamics.obj
 0001:000033e0       ?updateBoundsAndShapes@PxsSimulationController@physx@@UEAAXAEAVAABBManagerBase@Bp@2@_N1@Z 00000001800043e0 f i SimulationController_static_64:ScScene.obj
 0001:000033e0       ?updateDynamic@PxsSimulationController@physx@@UEAAXPEAVFeatherstoneArticulation@Dy@2@AEBVPxNodeIndex@2@@Z 00000001800043e0 f i SimulationController_static_64:ScScene.obj
 0001:000033e0       ?updateJoint@PxsSimulationController@physx@@UEAAXIPEAUConstraint@Dy@2@@Z 00000001800043e0 f i SimulationController_static_64:ScScene.obj
 0001:000033e0       ?updateMaterial@PxsNphaseImplementationContext@physx@@UEAAXAEBV?$MaterialCoreT@UPxsFEMClothMaterialData@physx@@VPxFEMClothMaterial@2@@2@@Z 00000001800043e0 f i LowLevel_static_64:PxsNphaseImplementationContext.obj
 0001:000033e0       ?updateMaterial@PxsNphaseImplementationContext@physx@@UEAAXAEBV?$MaterialCoreT@UPxsFEMSoftBodyMaterialData@physx@@VPxFEMSoftBodyMaterial@2@@2@@Z 00000001800043e0 f i LowLevel_static_64:PxsNphaseImplementationContext.obj
 0001:000033e0       ?updateMaterial@PxsNphaseImplementationContext@physx@@UEAAXAEBV?$MaterialCoreT@UPxsFLIPMaterialData@physx@@VPxFLIPMaterial@2@@2@@Z 00000001800043e0 f i LowLevel_static_64:PxsNphaseImplementationContext.obj
 0001:000033e0       ?updateMaterial@PxsNphaseImplementationContext@physx@@UEAAXAEBV?$MaterialCoreT@UPxsMPMMaterialData@physx@@VPxMPMMaterial@2@@2@@Z 00000001800043e0 f i LowLevel_static_64:PxsNphaseImplementationContext.obj
 0001:000033e0       ?updateMaterial@PxsNphaseImplementationContext@physx@@UEAAXAEBV?$MaterialCoreT@UPxsMaterialData@physx@@VPxMaterial@2@@2@@Z 00000001800043e0 f i LowLevel_static_64:PxsNphaseImplementationContext.obj
 0001:000033e0       ?updateMaterial@PxsNphaseImplementationContext@physx@@UEAAXAEBV?$MaterialCoreT@UPxsPBDMaterialData@physx@@VPxPBDMaterial@2@@2@@Z 00000001800043e0 f i LowLevel_static_64:PxsNphaseImplementationContext.obj
 0001:000033e0       ?updateParticleSystemsAndSoftBodies@PxsSimulationController@physx@@UEAAXXZ 00000001800043e0 f i SimulationController_static_64:ScScene.obj
 0001:000033e0       ?updateShape@PxsSimulationController@physx@@UEAAXAEAUPxsShapeSim@2@AEBVPxNodeIndex@2@@Z 00000001800043e0 f i SimulationController_static_64:ScScene.obj
 0001:000033e0       ?updateShapeMaterial@PxsNphaseImplementationContext@physx@@UEAAXAEBUPxsShapeCore@2@@Z 00000001800043e0 f i LowLevel_static_64:PxsNphaseImplementationContext.obj
 0001:000033e0       ?updateShapes@PxsSimulationController@physx@@UEAAXPEAVPxBaseTask@2@@Z 00000001800043e0 f i SimulationController_static_64:ScScene.obj
 0001:000033e0       ?visualize@BasePruner@Gu@physx@@UEBAXAEAVPxRenderOutput@3@II@Z 00000001800043e0 f i SceneQuery_static_64:SqCompoundPruner.obj
 0001:000033e0       _guard_check_icall_nop     00000001800043e0 f i LIBCMT:guard_support.obj
 0001:000033f0       ??0PxActorGeneratedInfo@physx@@QEAA@XZ 00000001800043f0 f   PxAutoGeneratedMetaDataObjects.obj
 0001:00003520       ??0PxActorGeneratedValues@physx@@QEAA@PEBVPxActor@1@@Z 0000000180004520 f   PxAutoGeneratedMetaDataObjects.obj
 0001:000035a0       ??0PxAggregateGeneratedInfo@physx@@QEAA@XZ 00000001800045a0 f   PxAutoGeneratedMetaDataObjects.obj
 0001:00003680       ??0PxAggregateGeneratedValues@physx@@QEAA@PEBVPxAggregate@1@@Z 0000000180004680 f   PxAutoGeneratedMetaDataObjects.obj
 0001:000036e0       ??0PxArticulationDriveGeneratedInfo@physx@@QEAA@XZ 00000001800046e0 f   PxAutoGeneratedMetaDataObjects.obj
 0001:00003790       ??0PxArticulationDriveGeneratedValues@physx@@QEAA@PEBUPxArticulationDrive@1@@Z 0000000180004790 f   PxAutoGeneratedMetaDataObjects.obj
 0001:000037b0       ??0PxArticulationJointReducedCoordinateGeneratedInfo@physx@@QEAA@XZ 00000001800047b0 f   PxAutoGeneratedMetaDataObjects.obj
 0001:00003a20       ??0PxArticulationJointReducedCoordinateGeneratedValues@physx@@QEAA@PEBVPxArticulationJointReducedCoordinate@1@@Z 0000000180004a20 f   PxAutoGeneratedMetaDataObjects.obj
 0001:00003be0       ??0PxArticulationLimitGeneratedInfo@physx@@QEAA@XZ 0000000180004be0 f   PxAutoGeneratedMetaDataObjects.obj
 0001:00003c40       ??0PxArticulationLimitGeneratedValues@physx@@QEAA@PEBUPxArticulationLimit@1@@Z 0000000180004c40 f   PxAutoGeneratedMetaDataObjects.obj
 0001:00003c50       ??0PxArticulationLinkGeneratedInfo@physx@@QEAA@XZ 0000000180004c50 f   PxAutoGeneratedMetaDataObjects.obj
 0001:00003dc0       ??0PxArticulationLinkGeneratedValues@physx@@QEAA@PEBVPxArticulationLink@1@@Z 0000000180004dc0 f   PxAutoGeneratedMetaDataObjects.obj
 0001:00003e70       ??0PxArticulationReducedCoordinateGeneratedInfo@physx@@QEAA@XZ 0000000180004e70 f   PxAutoGeneratedMetaDataObjects.obj
 0001:00004180       ??0PxArticulationReducedCoordinateGeneratedValues@physx@@QEAA@PEBVPxArticulationReducedCoordinate@1@@Z 0000000180005180 f   PxAutoGeneratedMetaDataObjects.obj
 0001:00004280       ??0PxBaseMaterialGeneratedInfo@physx@@QEAA@XZ 0000000180005280 f   PxAutoGeneratedMetaDataObjects.obj
 0001:000042d0       ??0PxBaseMaterialGeneratedValues@physx@@QEAA@PEBVPxBaseMaterial@1@@Z 00000001800052d0 f   PxAutoGeneratedMetaDataObjects.obj
 0001:00004310       ??0PxBoxGeometryGeneratedInfo@physx@@QEAA@XZ 0000000180005310 f   PxAutoGeneratedMetaDataObjects.obj
 0001:00004340       ??0PxBoxGeometryGeneratedValues@physx@@QEAA@PEBVPxBoxGeometry@1@@Z 0000000180005340 f   PxAutoGeneratedMetaDataObjects.obj
 0001:00004340       ?getPxBoxGeometryHalfExtents@@YA?AV?$PxVec3T@M@physx@@PEBVPxBoxGeometry@2@@Z 0000000180005340 f   PxAutoGeneratedMetaDataObjects.obj
 0001:00004360       ??0PxBroadPhaseDescGeneratedInfo@physx@@QEAA@XZ 0000000180005360 f   PxAutoGeneratedMetaDataObjects.obj
 0001:000044a0       ??0PxBroadPhaseDescGeneratedValues@physx@@QEAA@PEBVPxBroadPhaseDesc@1@@Z 00000001800054a0 f   PxAutoGeneratedMetaDataObjects.obj
 0001:000044f0       ??0PxCapsuleGeometryGeneratedInfo@physx@@QEAA@XZ 00000001800054f0 f   PxAutoGeneratedMetaDataObjects.obj
 0001:00004550       ??0PxCapsuleGeometryGeneratedValues@physx@@QEAA@PEBVPxCapsuleGeometry@1@@Z 0000000180005550 f   PxAutoGeneratedMetaDataObjects.obj
 0001:00004560       ??0PxConstraintGeneratedInfo@physx@@QEAA@XZ 0000000180005560 f   PxAutoGeneratedMetaDataObjects.obj
 0001:000046f0       ??0PxConstraintGeneratedValues@physx@@QEAA@PEBVPxConstraint@1@@Z 00000001800056f0 f   PxAutoGeneratedMetaDataObjects.obj
 0001:00004780       ??0PxConvexMeshGeometryGeneratedInfo@physx@@QEAA@XZ 0000000180005780 f   PxAutoGeneratedMetaDataObjects.obj
 0001:00004800       ??0PxConvexMeshGeometryGeneratedValues@physx@@QEAA@PEBVPxConvexMeshGeometry@1@@Z 0000000180005800 f   PxAutoGeneratedMetaDataObjects.obj
 0001:00004840       ??0PxCustomGeometryGeneratedInfo@physx@@QEAA@XZ 0000000180005840 f   PxAutoGeneratedMetaDataObjects.obj
 0001:00004860       ??0PxCustomGeometryGeneratedValues@physx@@QEAA@PEBVPxCustomGeometry@1@@Z 0000000180005860 f   PxAutoGeneratedMetaDataObjects.obj
 0001:00004890       ??0PxFEMMaterialGeneratedInfo@physx@@QEAA@XZ 0000000180005890 f   PxAutoGeneratedMetaDataObjects.obj
 0001:00004960       ??0PxFEMMaterialGeneratedValues@physx@@QEAA@PEBVPxFEMMaterial@1@@Z 0000000180005960 f   PxAutoGeneratedMetaDataObjects.obj
 0001:000049c0       ??0PxFEMSoftBodyMaterialGeneratedInfo@physx@@QEAA@XZ 00000001800059c0 f   PxAutoGeneratedMetaDataObjects.obj
 0001:00004aa0       ??0PxFEMSoftBodyMaterialGeneratedValues@physx@@QEAA@PEBVPxFEMSoftBodyMaterial@1@@Z 0000000180005aa0 f   PxAutoGeneratedMetaDataObjects.obj
 0001:00004b40       ??0PxHeightFieldDescGeneratedInfo@physx@@QEAA@XZ 0000000180005b40 f   PxAutoGeneratedMetaDataObjects.obj
 0001:00004c50       ??0PxHeightFieldDescGeneratedValues@physx@@QEAA@PEBVPxHeightFieldDesc@1@@Z 0000000180005c50 f   PxAutoGeneratedMetaDataObjects.obj
 0001:00004c80       ??0PxHeightFieldGeometryGeneratedInfo@physx@@QEAA@XZ 0000000180005c80 f   PxAutoGeneratedMetaDataObjects.obj
 0001:00004d60       ??0PxHeightFieldGeometryGeneratedValues@physx@@QEAA@PEBVPxHeightFieldGeometry@1@@Z 0000000180005d60 f   PxAutoGeneratedMetaDataObjects.obj
 0001:00004d90       ??0PxMaterialGeneratedInfo@physx@@QEAA@XZ 0000000180005d90 f   PxAutoGeneratedMetaDataObjects.obj
 0001:00004f50       ??0PxMaterialGeneratedValues@physx@@QEAA@PEBVPxMaterial@1@@Z 0000000180005f50 f   PxAutoGeneratedMetaDataObjects.obj
 0001:00005000       ??0PxMeshScaleGeneratedInfo@physx@@QEAA@XZ 0000000180006000 f   PxAutoGeneratedMetaDataObjects.obj
 0001:00005060       ??0PxMeshScaleGeneratedValues@physx@@QEAA@PEBVPxMeshScale@1@@Z 0000000180006060 f   PxAutoGeneratedMetaDataObjects.obj
 0001:00005090       ??0PxPBDMaterialGeneratedInfo@physx@@QEAA@XZ 0000000180006090 f   PxAutoGeneratedMetaDataObjects.obj
 0001:000052b0       ??0PxPBDMaterialGeneratedValues@physx@@QEAA@PEBVPxPBDMaterial@1@@Z 00000001800062b0 f   PxAutoGeneratedMetaDataObjects.obj
 0001:00005380       ??0PxParticleMaterialGeneratedInfo@physx@@QEAA@XZ 0000000180006380 f   PxAutoGeneratedMetaDataObjects.obj
 0001:000054c0       ??0PxParticleMaterialGeneratedValues@physx@@QEAA@PEBVPxParticleMaterial@1@@Z 00000001800064c0 f   PxAutoGeneratedMetaDataObjects.obj
 0001:00005540       ??0PxPhysicsGeneratedInfo@physx@@QEAA@XZ 0000000180006540 f   PxAutoGeneratedMetaDataObjects.obj
 0001:000057d0       ??0PxPhysicsGeneratedValues@physx@@QEAA@PEBVPxPhysics@1@@Z 00000001800067d0 f   PxAutoGeneratedMetaDataObjects.obj
 0001:000057d0       ?getPxPhysics_TolerancesScale@@YA?BVPxTolerancesScale@physx@@PEBVPxPhysics@2@@Z 00000001800067d0 f   PxAutoGeneratedMetaDataObjects.obj
 0001:00005800       ??0PxPruningStructureGeneratedInfo@physx@@QEAA@XZ 0000000180006800 f   PxAutoGeneratedMetaDataObjects.obj
 0001:00005890       ??0PxPruningStructureGeneratedValues@physx@@QEAA@PEBVPxPruningStructure@1@@Z 0000000180006890 f   PxAutoGeneratedMetaDataObjects.obj
 0001:000058e0       ??0PxRefCountedGeneratedInfo@physx@@QEAA@XZ 00000001800068e0 f   PxAutoGeneratedMetaDataObjects.obj
 0001:00005900       ??0PxRefCountedGeneratedValues@physx@@QEAA@PEBVPxRefCounted@1@@Z 0000000180006900 f   PxAutoGeneratedMetaDataObjects.obj
 0001:00005920       ??0PxRigidActorGeneratedInfo@physx@@QEAA@XZ 0000000180006920 f   PxAutoGeneratedMetaDataObjects.obj
 0001:000059e0       ??0PxRigidActorGeneratedValues@physx@@QEAA@PEBVPxRigidActor@1@@Z 00000001800069e0 f   PxAutoGeneratedMetaDataObjects.obj
 0001:00005a20       ??0PxRigidBodyGeneratedInfo@physx@@QEAA@XZ 0000000180006a20 f   PxAutoGeneratedMetaDataObjects.obj
 0001:00005d00       ??0PxRigidBodyGeneratedValues@physx@@QEAA@PEBVPxRigidBody@1@@Z 0000000180006d00 f   PxAutoGeneratedMetaDataObjects.obj
 0001:00005e40       ??0PxRigidDynamicGeneratedInfo@physx@@QEAA@XZ 0000000180006e40 f   PxAutoGeneratedMetaDataObjects.obj
 0001:00006060       ??0PxRigidDynamicGeneratedValues@physx@@QEAA@PEBVPxRigidDynamic@1@@Z 0000000180007060 f   PxAutoGeneratedMetaDataObjects.obj
 0001:00006150       ??0PxRigidStaticGeneratedInfo@physx@@QEAA@XZ 0000000180007150 f   PxAutoGeneratedMetaDataObjects.obj
 0001:00006190       ??0PxRigidStaticGeneratedValues@physx@@QEAA@PEBVPxRigidStatic@1@@Z 0000000180007190 f   PxAutoGeneratedMetaDataObjects.obj
 0001:000061d0       ??0PxSceneDescGeneratedInfo@physx@@QEAA@XZ 00000001800071d0 f   PxAutoGeneratedMetaDataObjects.obj
 0001:000069d0       ??0PxSceneDescGeneratedValues@physx@@QEAA@PEBVPxSceneDesc@1@@Z 00000001800079d0 f   PxAutoGeneratedMetaDataObjects.obj
 0001:00006c40       ??0PxSceneGeneratedInfo@physx@@QEAA@XZ 0000000180007c40 f   PxAutoGeneratedMetaDataObjects.obj
 0001:000073f0       ??0PxSceneGeneratedValues@physx@@QEAA@PEBVPxScene@1@@Z 00000001800083f0 f   PxAutoGeneratedMetaDataObjects.obj
 0001:000076b0       ??0PxSceneLimitsGeneratedInfo@physx@@QEAA@XZ 00000001800086b0 f   PxAutoGeneratedMetaDataObjects.obj
 0001:00007830       ??0PxSceneLimitsGeneratedValues@physx@@QEAA@PEBVPxSceneLimits@1@@Z 0000000180008830 f   PxAutoGeneratedMetaDataObjects.obj
 0001:00007870       ??0PxSceneQueryDescGeneratedInfo@physx@@QEAA@XZ 0000000180008870 f   PxAutoGeneratedMetaDataObjects.obj
 0001:00007a40       ??0PxSceneQueryDescGeneratedValues@physx@@QEAA@PEBVPxSceneQueryDesc@1@@Z 0000000180008a40 f   PxAutoGeneratedMetaDataObjects.obj
 0001:00007aa0       ??0PxSceneQuerySystemBaseGeneratedInfo@physx@@QEAA@XZ 0000000180008aa0 f   PxAutoGeneratedMetaDataObjects.obj
 0001:00007b10       ??0PxSceneQuerySystemBaseGeneratedValues@physx@@QEAA@PEBVPxSceneQuerySystemBase@1@@Z 0000000180008b10 f   PxAutoGeneratedMetaDataObjects.obj
 0001:00007b60       ??0PxSceneSQSystemGeneratedInfo@physx@@QEAA@XZ 0000000180008b60 f   PxAutoGeneratedMetaDataObjects.obj
 0001:00007c70       ??0PxSceneSQSystemGeneratedValues@physx@@QEAA@PEBVPxSceneSQSystem@1@@Z 0000000180008c70 f   PxAutoGeneratedMetaDataObjects.obj
 0001:00007cf0       ??0PxShapeGeneratedInfo@physx@@QEAA@XZ 0000000180008cf0 f   PxAutoGeneratedMetaDataObjects.obj
 0001:00008000       ??0PxShapeGeneratedValues@physx@@QEAA@PEBVPxShape@1@@Z 0000000180009000 f   PxAutoGeneratedMetaDataObjects.obj
 0001:000082c0       ??0PxSimulationStatistics@physx@@QEAA@XZ 00000001800092c0 f i PxAutoGeneratedMetaDataObjects.obj
 0001:00008450       ??0PxSimulationStatisticsGeneratedInfo@physx@@QEAA@XZ 0000000180009450 f   PxAutoGeneratedMetaDataObjects.obj
 0001:00008d00       ??0PxSimulationStatisticsGeneratedValues@physx@@QEAA@PEBVPxSimulationStatistics@1@@Z 0000000180009d00 f   PxAutoGeneratedMetaDataObjects.obj
 0001:00009150       ??0PxSphereGeometryGeneratedInfo@physx@@QEAA@XZ 000000018000a150 f   PxAutoGeneratedMetaDataObjects.obj
 0001:00009180       ??0PxSphereGeometryGeneratedValues@physx@@QEAA@PEBVPxSphereGeometry@1@@Z 000000018000a180 f   PxAutoGeneratedMetaDataObjects.obj
 0001:00009190       ??0PxTetrahedronMeshGeometryGeneratedInfo@physx@@QEAA@XZ 000000018000a190 f   PxAutoGeneratedMetaDataObjects.obj
 0001:000091c0       ??0PxTetrahedronMeshGeometryGeneratedValues@physx@@QEAA@PEBVPxTetrahedronMeshGeometry@1@@Z 000000018000a1c0 f   PxAutoGeneratedMetaDataObjects.obj
 0001:000091d0       ??0PxTolerancesScaleGeneratedInfo@physx@@QEAA@XZ 000000018000a1d0 f   PxAutoGeneratedMetaDataObjects.obj
 0001:00009240       ??0PxTolerancesScaleGeneratedValues@physx@@QEAA@PEBVPxTolerancesScale@1@@Z 000000018000a240 f   PxAutoGeneratedMetaDataObjects.obj
 0001:00009260       ??0PxTriangleMeshGeometryGeneratedInfo@physx@@QEAA@XZ 000000018000a260 f   PxAutoGeneratedMetaDataObjects.obj
 0001:000092e0       ??0PxTriangleMeshGeometryGeneratedValues@physx@@QEAA@PEBVPxTriangleMeshGeometry@1@@Z 000000018000a2e0 f   PxAutoGeneratedMetaDataObjects.obj
 0001:00009320       ??0PxgDynamicsMemoryConfigGeneratedInfo@physx@@QEAA@XZ 000000018000a320 f   PxAutoGeneratedMetaDataObjects.obj
 0001:00009590       ??0PxgDynamicsMemoryConfigGeneratedValues@physx@@QEAA@PEBUPxgDynamicsMemoryConfig@1@@Z 000000018000a590 f   PxAutoGeneratedMetaDataObjects.obj
 0001:00009600       ?createPxPhysics_BVHs@@YAPEAVPxBVH@physx@@PEAVPxPhysics@2@AEAVPxInputStream@2@@Z 000000018000a600 f   PxAutoGeneratedMetaDataObjects.obj
 0001:00009600       ?getPxFEMSoftBodyMaterial_MaterialModel@@YA?AW4Enum@PxFEMSoftBodyMaterialModel@physx@@PEBVPxFEMSoftBodyMaterial@3@@Z 000000018000a600 f   PxAutoGeneratedMetaDataObjects.obj
 0001:00009600       ?getPxPBDMaterial_Viscosity@@YAMPEBVPxPBDMaterial@physx@@@Z 000000018000a600 f   PxAutoGeneratedMetaDataObjects.obj
 0001:00009600       ?setPxArticulationReducedCoordinate_MaxCOMAngularVelocity@@YAXPEAVPxArticulationReducedCoordinate@physx@@M@Z 000000018000a600 f   PxAutoGeneratedMetaDataObjects.obj
 0001:00009600       ?setPxMaterial_FrictionCombineMode@@YAXPEAVPxMaterial@physx@@W4Enum@PxCombineMode@2@@Z 000000018000a600 f   PxAutoGeneratedMetaDataObjects.obj
 0001:00009600       ?setPxScene_Limits@@YAXPEAVPxScene@physx@@AEBVPxSceneLimits@2@@Z 000000018000a600 f   PxAutoGeneratedMetaDataObjects.obj
 0001:00009610       ?createPxPhysics_ConvexMeshes@@YAPEAVPxConvexMesh@physx@@PEAVPxPhysics@2@AEAVPxInputStream@2@@Z 000000018000a610 f   PxAutoGeneratedMetaDataObjects.obj
 0001:00009610       ?getPxActor_OwnerClient@@YAEPEBVPxActor@physx@@@Z 000000018000a610 f   PxAutoGeneratedMetaDataObjects.obj
 0001:00009610       ?setPxConstraint_MinResponseThreshold@@YAXPEAVPxConstraint@physx@@M@Z 000000018000a610 f   PxAutoGeneratedMetaDataObjects.obj
 0001:00009610       ?setPxFEMSoftBodyMaterial_DampingScale@@YAXPEAVPxFEMSoftBodyMaterial@physx@@M@Z 000000018000a610 f   PxAutoGeneratedMetaDataObjects.obj
 0001:00009610       ?setPxParticleMaterial_AdhesionRadiusScale@@YAXPEAVPxParticleMaterial@physx@@M@Z 000000018000a610 f   PxAutoGeneratedMetaDataObjects.obj
 0001:00009620       ?createPxPhysics_HeightFields@@YAPEAVPxHeightField@physx@@PEAVPxPhysics@2@AEAVPxInputStream@2@@Z 000000018000a620 f   PxAutoGeneratedMetaDataObjects.obj
 0001:00009620       ?getPxConstraint_IsValid@@YA_NPEBVPxConstraint@physx@@@Z 000000018000a620 f   PxAutoGeneratedMetaDataObjects.obj
 0001:00009620       ?getPxFEMMaterial_DynamicFriction@@YAMPEBVPxFEMMaterial@physx@@@Z 000000018000a620 f   PxAutoGeneratedMetaDataObjects.obj
 0001:00009620       ?getPxMaterial_Restitution@@YAMPEBVPxMaterial@physx@@@Z 000000018000a620 f   PxAutoGeneratedMetaDataObjects.obj
 0001:00009620       ?getPxParticleMaterial_Adhesion@@YAMPEBVPxParticleMaterial@physx@@@Z 000000018000a620 f   PxAutoGeneratedMetaDataObjects.obj
 0001:00009620       ?setPxActor_DominanceGroup@@YAXPEAVPxActor@physx@@E@Z 000000018000a620 f   PxAutoGeneratedMetaDataObjects.obj
 0001:00009620       ?setPxArticulationJointReducedCoordinate_Motion@@YAXPEAVPxArticulationJointReducedCoordinate@physx@@W4Enum@PxArticulationAxis@2@W43PxArticulationMotion@2@@Z 000000018000a620 f   PxAutoGeneratedMetaDataObjects.obj
 0001:00009620       ?setPxArticulationReducedCoordinate_WakeCounter@@YAXPEAVPxArticulationReducedCoordinate@physx@@M@Z 000000018000a620 f   PxAutoGeneratedMetaDataObjects.obj
 0001:00009620       ?setPxShape_SimulationFilterData@@YAXPEAVPxShape@physx@@AEBUPxFilterData@2@@Z 000000018000a620 f   PxAutoGeneratedMetaDataObjects.obj
 0001:00009630       ?createPxPhysics_Scenes@@YAPEAVPxScene@physx@@PEAVPxPhysics@2@AEBVPxSceneDesc@2@@Z 000000018000a630 f   PxAutoGeneratedMetaDataObjects.obj
 0001:00009630       ?getNbPxArticulationReducedCoordinate_Links@@YAIPEBVPxArticulationReducedCoordinate@physx@@@Z 000000018000a630 f   PxAutoGeneratedMetaDataObjects.obj
 0001:00009630       ?getPxMaterial_RestitutionCombineMode@@YA?AW4Enum@PxCombineMode@physx@@PEBVPxMaterial@3@@Z 000000018000a630 f   PxAutoGeneratedMetaDataObjects.obj
 0001:00009630       ?getPxScene_Timestamp@@YAIPEBVPxScene@physx@@@Z 000000018000a630 f   PxAutoGeneratedMetaDataObjects.obj
 0001:00009630       ?setPxPBDMaterial_SurfaceTension@@YAXPEAVPxPBDMaterial@physx@@M@Z 000000018000a630 f   PxAutoGeneratedMetaDataObjects.obj
 0001:00009640       ?createPxPhysics_TetrahedronMeshes@@YAPEAVPxTetrahedronMesh@physx@@PEAVPxPhysics@2@AEAVPxInputStream@2@@Z 000000018000a640 f   PxAutoGeneratedMetaDataObjects.obj
 0001:00009640       ?getNbPxAggregate_Actors@@YAIPEBVPxAggregate@physx@@@Z 000000018000a640 f   PxAutoGeneratedMetaDataObjects.obj
 0001:00009640       ?getPxFEMMaterial_YoungsModulus@@YAMPEBVPxFEMMaterial@physx@@@Z 000000018000a640 f   PxAutoGeneratedMetaDataObjects.obj
 0001:00009640       ?getPxMaterial_DynamicFriction@@YAMPEBVPxMaterial@physx@@@Z 000000018000a640 f   PxAutoGeneratedMetaDataObjects.obj
 0001:00009640       ?getPxParticleMaterial_Friction@@YAMPEBVPxParticleMaterial@physx@@@Z 000000018000a640 f   PxAutoGeneratedMetaDataObjects.obj
 0001:00009640       ?setPxArticulationJointReducedCoordinate_ChildPose@@YAXPEAVPxArticulationJointReducedCoordinate@physx@@AEBV?$PxTransformT@M@2@@Z 000000018000a640 f   PxAutoGeneratedMetaDataObjects.obj
 0001:00009640       ?setPxArticulationReducedCoordinate_SleepThreshold@@YAXPEAVPxArticulationReducedCoordinate@physx@@M@Z 000000018000a640 f   PxAutoGeneratedMetaDataObjects.obj
 0001:00009650       ?createPxPhysics_TriangleMeshes@@YAPEAVPxTriangleMesh@physx@@PEAVPxPhysics@2@AEAVPxInputStream@2@@Z 000000018000a650 f   PxAutoGeneratedMetaDataObjects.obj
 0001:00009650       ?getNbPxPruningStructure_RigidActors@@YAIPEBVPxPruningStructure@physx@@@Z 000000018000a650 f   PxAutoGeneratedMetaDataObjects.obj
 0001:00009650       ?getPxActor_Scene@@YAPEAVPxScene@physx@@PEBVPxActor@2@@Z 000000018000a650 f   PxAutoGeneratedMetaDataObjects.obj
 0001:00009650       ?getPxConstraint_Actors@@YAXPEBVPxConstraint@physx@@AEAPEAVPxRigidActor@2@1@Z 000000018000a650 f   PxAutoGeneratedMetaDataObjects.obj
 0001:00009650       ?getPxSceneQuerySystemBase_StaticTimestamp@@YAIPEBVPxSceneQuerySystemBase@physx@@@Z 000000018000a650 f   PxAutoGeneratedMetaDataObjects.obj
 0001:00009650       ?getPxSceneSQSystem_SceneQueryStaticTimestamp@@YAIPEBVPxSceneSQSystem@physx@@@Z 000000018000a650 f   PxAutoGeneratedMetaDataObjects.obj
 0001:00009650       ?setPxArticulationJointReducedCoordinate_ParentPose@@YAXPEAVPxArticulationJointReducedCoordinate@physx@@AEBV?$PxTransformT@M@2@@Z 000000018000a650 f   PxAutoGeneratedMetaDataObjects.obj
 0001:00009650       ?setPxArticulationReducedCoordinate_SolverIterationCounts@@YAXPEAVPxArticulationReducedCoordinate@physx@@II@Z 000000018000a650 f   PxAutoGeneratedMetaDataObjects.obj
 0001:00009660       ?getNbPxArticulationLink_Children@@YAIPEBVPxArticulationLink@physx@@@Z 000000018000a660 f   PxAutoGeneratedMetaDataObjects.obj
 0001:00009660       ?setPxRigidDynamic_SleepThreshold@@YAXPEAVPxRigidDynamic@physx@@M@Z 000000018000a660 f   PxAutoGeneratedMetaDataObjects.obj
 0001:00009670       ?getNbPxPhysics_BVHs@@YAIPEBVPxPhysics@physx@@@Z 000000018000a670 f   PxAutoGeneratedMetaDataObjects.obj
 0001:00009670       ?getPxArticulationReducedCoordinate_MaxCOMAngularVelocity@@YAMPEBVPxArticulationReducedCoordinate@physx@@@Z 000000018000a670 f   PxAutoGeneratedMetaDataObjects.obj
 0001:00009670       ?getPxMaterial_FrictionCombineMode@@YA?AW4Enum@PxCombineMode@physx@@PEBVPxMaterial@3@@Z 000000018000a670 f   PxAutoGeneratedMetaDataObjects.obj
 0001:00009670       ?setPxPBDMaterial_VorticityConfinement@@YAXPEAVPxPBDMaterial@physx@@M@Z 000000018000a670 f   PxAutoGeneratedMetaDataObjects.obj
 0001:00009680       ?getNbPxPhysics_ConvexMeshes@@YAIPEBVPxPhysics@physx@@@Z 000000018000a680 f   PxAutoGeneratedMetaDataObjects.obj
 0001:00009680       ?getPxActor_Aggregate@@YAPEAVPxAggregate@physx@@PEBVPxActor@2@@Z 000000018000a680 f   PxAutoGeneratedMetaDataObjects.obj
 0001:00009680       ?getPxConstraint_MinResponseThreshold@@YAMPEBVPxConstraint@physx@@@Z 000000018000a680 f   PxAutoGeneratedMetaDataObjects.obj
 0001:00009680       ?getPxFEMSoftBodyMaterial_DampingScale@@YAMPEBVPxFEMSoftBodyMaterial@physx@@@Z 000000018000a680 f   PxAutoGeneratedMetaDataObjects.obj
 0001:00009680       ?getPxParticleMaterial_AdhesionRadiusScale@@YAMPEBVPxParticleMaterial@physx@@@Z 000000018000a680 f   PxAutoGeneratedMetaDataObjects.obj
 0001:00009680       ?setPxArticulationReducedCoordinate_MaxCOMLinearVelocity@@YAXPEAVPxArticulationReducedCoordinate@physx@@M@Z 000000018000a680 f   PxAutoGeneratedMetaDataObjects.obj
 0001:00009690       ?getNbPxPhysics_FEMClothMaterials@@YAIPEBVPxPhysics@physx@@@Z 000000018000a690 f   PxAutoGeneratedMetaDataObjects.obj
 0001:000096a0       ?getNbPxPhysics_FEMSoftBodyMaterials@@YAIPEBVPxPhysics@physx@@@Z 000000018000a6a0 f   PxAutoGeneratedMetaDataObjects.obj
 0001:000096b0       ?getNbPxPhysics_HeightFields@@YAIPEBVPxPhysics@physx@@@Z 000000018000a6b0 f   PxAutoGeneratedMetaDataObjects.obj
 0001:000096b0       ?getPxActor_DominanceGroup@@YAEPEBVPxActor@physx@@@Z 000000018000a6b0 f   PxAutoGeneratedMetaDataObjects.obj
 0001:000096b0       ?getPxAggregate_SelfCollision@@YA_NPEBVPxAggregate@physx@@@Z 000000018000a6b0 f   PxAutoGeneratedMetaDataObjects.obj
 0001:000096b0       ?getPxArticulationJointReducedCoordinate_Motion@@YA?AW4Enum@PxArticulationMotion@physx@@PEBVPxArticulationJointReducedCoordinate@3@W41PxArticulationAxis@3@@Z 000000018000a6b0 f   PxAutoGeneratedMetaDataObjects.obj
 0001:000096b0       ?getPxArticulationReducedCoordinate_WakeCounter@@YAMPEBVPxArticulationReducedCoordinate@physx@@@Z 000000018000a6b0 f   PxAutoGeneratedMetaDataObjects.obj
 0001:000096b0       ?setPxConstraint_BreakForce@@YAXPEAVPxConstraint@physx@@MM@Z 000000018000a6b0 f   PxAutoGeneratedMetaDataObjects.obj
 0001:000096b0       ?setPxFEMSoftBodyMaterial_Damping@@YAXPEAVPxFEMSoftBodyMaterial@physx@@M@Z 000000018000a6b0 f   PxAutoGeneratedMetaDataObjects.obj
 0001:000096b0       ?setPxMaterial_Damping@@YAXPEAVPxMaterial@physx@@M@Z 000000018000a6b0 f   PxAutoGeneratedMetaDataObjects.obj
 0001:000096b0       ?setPxParticleMaterial_GravityScale@@YAXPEAVPxParticleMaterial@physx@@M@Z 000000018000a6b0 f   PxAutoGeneratedMetaDataObjects.obj
 0001:000096c0       ?getNbPxPhysics_Materials@@YAIPEBVPxPhysics@physx@@@Z 000000018000a6c0 f   PxAutoGeneratedMetaDataObjects.obj
 0001:000096c0       ?getNbPxScene_Articulations@@YAIPEBVPxScene@physx@@@Z 000000018000a6c0 f   PxAutoGeneratedMetaDataObjects.obj
 0001:000096d0       ?getNbPxPhysics_PBDMaterials@@YAIPEBVPxPhysics@physx@@@Z 000000018000a6d0 f   PxAutoGeneratedMetaDataObjects.obj
 0001:000096d0       ?getPxScene_CudaContextManager@@YAPEAVPxCudaContextManager@physx@@PEBVPxScene@2@@Z 000000018000a6d0 f   PxAutoGeneratedMetaDataObjects.obj
 0001:000096d0       ?setPxRigidBody_MaxDepenetrationVelocity@@YAXPEAVPxRigidBody@physx@@M@Z 000000018000a6d0 f   PxAutoGeneratedMetaDataObjects.obj
 0001:000096e0       ?getNbPxPhysics_Scenes@@YAIPEBVPxPhysics@physx@@@Z 000000018000a6e0 f   PxAutoGeneratedMetaDataObjects.obj
 0001:000096e0       ?getNbPxRigidActor_Shapes@@YAIPEBVPxRigidActor@physx@@@Z 000000018000a6e0 f   PxAutoGeneratedMetaDataObjects.obj
 0001:000096e0       ?getPxPBDMaterial_SurfaceTension@@YAMPEBVPxPBDMaterial@physx@@@Z 000000018000a6e0 f   PxAutoGeneratedMetaDataObjects.obj
 0001:000096e0       ?setPxArticulationJointReducedCoordinate_Armature@@YAXPEAVPxArticulationJointReducedCoordinate@physx@@W4Enum@PxArticulationAxis@2@M@Z 000000018000a6e0 f   PxAutoGeneratedMetaDataObjects.obj
 0001:000096e0       ?setPxScene_Name@@YAXPEAVPxScene@physx@@PEBD@Z 000000018000a6e0 f   PxAutoGeneratedMetaDataObjects.obj
 0001:000096f0       ?getNbPxPhysics_Shapes@@YAIPEBVPxPhysics@physx@@@Z 000000018000a6f0 f   PxAutoGeneratedMetaDataObjects.obj
 0001:000096f0       ?getPxPBDMaterial_CFLCoefficient@@YAMPEBVPxPBDMaterial@physx@@@Z 000000018000a6f0 f   PxAutoGeneratedMetaDataObjects.obj
 0001:000096f0       ?getPxRigidBody_InvMass@@YAMPEBVPxRigidBody@physx@@@Z 000000018000a6f0 f   PxAutoGeneratedMetaDataObjects.obj
 0001:000096f0       ?setPxArticulationJointReducedCoordinate_JointVelocity@@YAXPEAVPxArticulationJointReducedCoordinate@physx@@W4Enum@PxArticulationAxis@2@M@Z 000000018000a6f0 f   PxAutoGeneratedMetaDataObjects.obj
 0001:000096f0       ?setPxShape_TorsionalPatchRadius@@YAXPEAVPxShape@physx@@M@Z 000000018000a6f0 f   PxAutoGeneratedMetaDataObjects.obj
 0001:00009700       ?getNbPxPhysics_TetrahedronMeshes@@YAIPEBVPxPhysics@physx@@@Z 000000018000a700 f   PxAutoGeneratedMetaDataObjects.obj
 0001:00009700       ?getPxAggregate_MaxNbShapes@@YAIPEBVPxAggregate@physx@@@Z 000000018000a700 f   PxAutoGeneratedMetaDataObjects.obj
 0001:00009700       ?getPxFEMMaterial_Poissons@@YAMPEBVPxFEMMaterial@physx@@@Z 000000018000a700 f   PxAutoGeneratedMetaDataObjects.obj
 0001:00009700       ?getPxMaterial_StaticFriction@@YAMPEBVPxMaterial@physx@@@Z 000000018000a700 f   PxAutoGeneratedMetaDataObjects.obj
 0001:00009700       ?getPxParticleMaterial_Damping@@YAMPEBVPxParticleMaterial@physx@@@Z 000000018000a700 f   PxAutoGeneratedMetaDataObjects.obj
 0001:00009700       ?getPxSceneSQSystem_StaticStructure@@YA?AW4Enum@PxPruningStructureType@physx@@PEBVPxSceneSQSystem@3@@Z 000000018000a700 f   PxAutoGeneratedMetaDataObjects.obj
 0001:00009700       ?setPxArticulationJointReducedCoordinate_JointType@@YAXPEAVPxArticulationJointReducedCoordinate@physx@@W4Enum@PxArticulationJointType@2@@Z 000000018000a700 f   PxAutoGeneratedMetaDataObjects.obj
 0001:00009700       ?setPxArticulationReducedCoordinate_StabilizationThreshold@@YAXPEAVPxArticulationReducedCoordinate@physx@@M@Z 000000018000a700 f   PxAutoGeneratedMetaDataObjects.obj
 0001:00009700       ?setPxShape_LocalPose@@YAXPEAVPxShape@physx@@AEBV?$PxTransformT@M@2@@Z 000000018000a700 f   PxAutoGeneratedMetaDataObjects.obj
 0001:00009710       ?getNbPxPhysics_TriangleMeshes@@YAIPEBVPxPhysics@physx@@@Z 000000018000a710 f   PxAutoGeneratedMetaDataObjects.obj
 0001:00009710       ?getPxArticulationReducedCoordinate_SolverIterationCounts@@YAXPEBVPxArticulationReducedCoordinate@physx@@AEAI1@Z 000000018000a710 f   PxAutoGeneratedMetaDataObjects.obj
 0001:00009710       ?getPxPruningStructure_StaticMergeData@@YAPEBXPEBVPxPruningStructure@physx@@@Z 000000018000a710 f   PxAutoGeneratedMetaDataObjects.obj
 0001:00009710       ?setPxActor_Name@@YAXPEAVPxActor@physx@@PEBD@Z 000000018000a710 f   PxAutoGeneratedMetaDataObjects.obj
 0001:00009710       ?setPxConstraint_Actors@@YAXPEAVPxConstraint@physx@@PEAVPxRigidActor@2@1@Z 000000018000a710 f   PxAutoGeneratedMetaDataObjects.obj
 0001:00009720       ?getNbPxRigidActor_Constraints@@YAIPEBVPxRigidActor@physx@@@Z 000000018000a720 f   PxAutoGeneratedMetaDataObjects.obj
 0001:00009720       ?getPxPBDMaterial_Cohesion@@YAMPEBVPxPBDMaterial@physx@@@Z 000000018000a720 f   PxAutoGeneratedMetaDataObjects.obj
 0001:00009720       ?setPxArticulationJointReducedCoordinate_FrictionCoefficient@@YAXPEAVPxArticulationJointReducedCoordinate@physx@@M@Z 000000018000a720 f   PxAutoGeneratedMetaDataObjects.obj
 0001:00009720       ?setPxArticulationReducedCoordinate_Name@@YAXPEAVPxArticulationReducedCoordinate@physx@@PEBD@Z 000000018000a720 f   PxAutoGeneratedMetaDataObjects.obj
 0001:00009720       ?setPxShape_ContactOffset@@YAXPEAVPxShape@physx@@M@Z 000000018000a720 f   PxAutoGeneratedMetaDataObjects.obj
 0001:00009730       ?getNbPxScene_Actors@@YAIPEBVPxScene@physx@@V?$PxFlags@W4Enum@PxActorTypeFlag@physx@@G@2@@Z 000000018000a730 f   PxAutoGeneratedMetaDataObjects.obj
 0001:00009750       ?getNbPxScene_Aggregates@@YAIPEBVPxScene@physx@@@Z 000000018000a750 f   PxAutoGeneratedMetaDataObjects.obj
 0001:00009760       ?getNbPxScene_BroadPhaseRegions@@YAIPEBVPxScene@physx@@@Z 000000018000a760 f   PxAutoGeneratedMetaDataObjects.obj
 0001:00009770       ?getNbPxScene_Constraints@@YAIPEBVPxScene@physx@@@Z 000000018000a770 f   PxAutoGeneratedMetaDataObjects.obj
 0001:00009780       ?getNbPxScene_SoftBodies@@YAIPEBVPxScene@physx@@@Z 000000018000a780 f   PxAutoGeneratedMetaDataObjects.obj
 0001:00009780       ?getPxRigidBody_AngularDamping@@YAMPEBVPxRigidBody@physx@@@Z 000000018000a780 f   PxAutoGeneratedMetaDataObjects.obj
 0001:00009790       ?getNbPxShape_Materials@@YAIPEBVPxShape@physx@@@Z 000000018000a790 f   PxAutoGeneratedMetaDataObjects.obj
 0001:000097b0       ?getCpuDispatcher@PxTaskMgr@physx@@UEBAPEAVPxCpuDispatcher@2@XZ 000000018000a7b0 f i PhysXTask_static_64:TaskManager.obj
 0001:000097b0       ?getPxActorUserData@@YAPEAXPEBVPxActor@physx@@@Z 000000018000a7b0 f i PxAutoGeneratedMetaDataObjects.obj
 0001:000097b0       ?getPxAggregateUserData@@YAPEAXPEBVPxAggregate@physx@@@Z 000000018000a7b0 f i PxAutoGeneratedMetaDataObjects.obj
 0001:000097b0       ?getPxArticulationJointReducedCoordinateUserData@@YAPEAXPEBVPxArticulationJointReducedCoordinate@physx@@@Z 000000018000a7b0 f i PxAutoGeneratedMetaDataObjects.obj
 0001:000097b0       ?getPxArticulationReducedCoordinateUserData@@YAPEAXPEBVPxArticulationReducedCoordinate@physx@@@Z 000000018000a7b0 f i PxAutoGeneratedMetaDataObjects.obj
 0001:000097b0       ?getPxBaseMaterialUserData@@YAPEAXPEBVPxBaseMaterial@physx@@@Z 000000018000a7b0 f i PxAutoGeneratedMetaDataObjects.obj
 0001:000097b0       ?getPxBroadPhaseDescMContextManager@@YAPEAVPxCudaContextManager@physx@@PEBVPxBroadPhaseDesc@2@@Z 000000018000a7b0 f i PxAutoGeneratedMetaDataObjects.obj
 0001:000097b0       ?getPxConstraintUserData@@YAPEAXPEBVPxConstraint@physx@@@Z 000000018000a7b0 f i PxAutoGeneratedMetaDataObjects.obj
 0001:000097b0       ?getPxShapeUserData@@YAPEAXPEBVPxShape@physx@@@Z 000000018000a7b0 f i PxAutoGeneratedMetaDataObjects.obj
 0001:000097c0       ?getPxActor_ActorFlags@@YA?AV?$PxFlags@W4Enum@PxActorFlag@physx@@E@physx@@PEBVPxActor@2@@Z 000000018000a7c0 f   PxAutoGeneratedMetaDataObjects.obj
 0001:000097c0       ?getPxShape_LocalPose@@YA?AV?$PxTransformT@M@physx@@PEBVPxShape@2@@Z 000000018000a7c0 f   PxAutoGeneratedMetaDataObjects.obj
 0001:000097f0       ?getPxActor_Name@@YAPEBDPEBVPxActor@physx@@@Z 000000018000a7f0 f   PxAutoGeneratedMetaDataObjects.obj
 0001:000097f0       ?getPxArticulationReducedCoordinate_IsSleeping@@YA_NPEBVPxArticulationReducedCoordinate@physx@@@Z 000000018000a7f0 f   PxAutoGeneratedMetaDataObjects.obj
 0001:000097f0       ?getPxPruningStructure_DynamicMergeData@@YAPEBXPEBVPxPruningStructure@physx@@@Z 000000018000a7f0 f   PxAutoGeneratedMetaDataObjects.obj
 0001:000097f0       ?setPxFEMMaterial_YoungsModulus@@YAXPEAVPxFEMMaterial@physx@@M@Z 000000018000a7f0 f   PxAutoGeneratedMetaDataObjects.obj
 0001:000097f0       ?setPxMaterial_DynamicFriction@@YAXPEAVPxMaterial@physx@@M@Z 000000018000a7f0 f   PxAutoGeneratedMetaDataObjects.obj
 0001:000097f0       ?setPxParticleMaterial_Friction@@YAXPEAVPxParticleMaterial@physx@@M@Z 000000018000a7f0 f   PxAutoGeneratedMetaDataObjects.obj
 0001:000097f0       ?setPxShape_Geom@PxShapeGeomProperty@physx@@SAXPEAVPxShape@2@AEBVPxGeometry@2@@Z 000000018000a7f0 f   PxAutoGeneratedMetaDataObjects.obj
 0001:00009800       ?getPxAggregate_Actors@@YAIPEBVPxAggregate@physx@@PEAPEAVPxActor@2@I@Z 000000018000a800 f   PxAutoGeneratedMetaDataObjects.obj
 0001:00009800       ?getPxPhysics_TetrahedronMeshes@@YAIPEBVPxPhysics@physx@@PEAPEAVPxTetrahedronMesh@2@I@Z 000000018000a800 f   PxAutoGeneratedMetaDataObjects.obj
 0001:00009810       ?getPxAggregate_ConcreteTypeName@@YAPEBDPEBVPxAggregate@physx@@@Z 000000018000a810 f   PxAutoGeneratedMetaDataObjects.obj
 0001:00009810       ?getPxArticulationJointReducedCoordinate_ConcreteTypeName@@YAPEBDPEBVPxArticulationJointReducedCoordinate@physx@@@Z 000000018000a810 f   PxAutoGeneratedMetaDataObjects.obj
 0001:00009810       ?getPxArticulationLink_ConcreteTypeName@@YAPEBDPEBVPxArticulationLink@physx@@@Z 000000018000a810 f   PxAutoGeneratedMetaDataObjects.obj
 0001:00009810       ?getPxConstraint_ConcreteTypeName@@YAPEBDPEBVPxConstraint@physx@@@Z 000000018000a810 f   PxAutoGeneratedMetaDataObjects.obj
 0001:00009810       ?getPxFEMSoftBodyMaterial_ConcreteTypeName@@YAPEBDPEBVPxFEMSoftBodyMaterial@physx@@@Z 000000018000a810 f   PxAutoGeneratedMetaDataObjects.obj
 0001:00009810       ?getPxMaterial_ConcreteTypeName@@YAPEBDPEBVPxMaterial@physx@@@Z 000000018000a810 f   PxAutoGeneratedMetaDataObjects.obj
 0001:00009810       ?getPxPBDMaterial_ConcreteTypeName@@YAPEBDPEBVPxPBDMaterial@physx@@@Z 000000018000a810 f   PxAutoGeneratedMetaDataObjects.obj
 0001:00009810       ?getPxPruningStructure_ConcreteTypeName@@YAPEBDPEBVPxPruningStructure@physx@@@Z 000000018000a810 f   PxAutoGeneratedMetaDataObjects.obj
 0001:00009810       ?getPxRigidDynamic_ConcreteTypeName@@YAPEBDPEBVPxRigidDynamic@physx@@@Z 000000018000a810 f   PxAutoGeneratedMetaDataObjects.obj
 0001:00009810       ?getPxRigidStatic_ConcreteTypeName@@YAPEBDPEBVPxRigidStatic@physx@@@Z 000000018000a810 f   PxAutoGeneratedMetaDataObjects.obj
 0001:00009810       ?getPxShape_ConcreteTypeName@@YAPEBDPEBVPxShape@physx@@@Z 000000018000a810 f   PxAutoGeneratedMetaDataObjects.obj
 0001:00009810       ?setPxSceneQuerySystemBase_DynamicTreeRebuildRateHint@@YAXPEAVPxSceneQuerySystemBase@physx@@I@Z 000000018000a810 f   PxAutoGeneratedMetaDataObjects.obj
 0001:00009820       ?getPxAggregate_MaxNbActors@@YAIPEBVPxAggregate@physx@@@Z 000000018000a820 f   PxAutoGeneratedMetaDataObjects.obj
 0001:00009820       ?getPxArticulationReducedCoordinate_SleepThreshold@@YAMPEBVPxArticulationReducedCoordinate@physx@@@Z 000000018000a820 f   PxAutoGeneratedMetaDataObjects.obj
 0001:00009820       ?setPxFEMMaterial_Poissons@@YAXPEAVPxFEMMaterial@physx@@M@Z 000000018000a820 f   PxAutoGeneratedMetaDataObjects.obj
 0001:00009820       ?setPxMaterial_StaticFriction@@YAXPEAVPxMaterial@physx@@M@Z 000000018000a820 f   PxAutoGeneratedMetaDataObjects.obj
 0001:00009820       ?setPxParticleMaterial_Damping@@YAXPEAVPxParticleMaterial@physx@@M@Z 000000018000a820 f   PxAutoGeneratedMetaDataObjects.obj
 0001:00009830       ?getDamping@ArticulationFixedTendonCore@Sc@physx@@QEBAMXZ 000000018000a830 f i SimulationController_static_64:ScArticulationTendonCore.obj
 0001:00009830       ?getDamping@ArticulationSpatialTendonCore@Sc@physx@@QEBAMXZ 000000018000a830 f i SimulationController_static_64:ScArticulationTendonCore.obj
 0001:00009830       ?getPxArticulationDriveDamping@@YAMPEBUPxArticulationDrive@physx@@@Z 000000018000a830 f i PxAutoGeneratedMetaDataObjects.obj
 0001:00009830       ?getPxArticulationLimitHigh@@YAMPEBUPxArticulationLimit@physx@@@Z 000000018000a830 f i PxAutoGeneratedMetaDataObjects.obj
 0001:00009830       ?getPxTolerancesScaleSpeed@@YAMPEBVPxTolerancesScale@physx@@@Z 000000018000a830 f i PxAutoGeneratedMetaDataObjects.obj
 0001:00009840       ?getPxArticulationDriveDriveType@@YA?AW4Enum@PxArticulationDriveType@physx@@PEBUPxArticulationDrive@3@@Z 000000018000a840 f i PxAutoGeneratedMetaDataObjects.obj
 0001:00009840       ?getPxSceneLimitsMaxNbDynamicShapes@@YAIPEBVPxSceneLimits@physx@@@Z 000000018000a840 f i PxAutoGeneratedMetaDataObjects.obj
 0001:00009840       ?getPxSceneQueryDescDynamicTreeSecondaryPruner@@YA?AW4Enum@PxDynamicTreeSecondaryPruner@physx@@PEBVPxSceneQueryDesc@3@@Z 000000018000a840 f i PxAutoGeneratedMetaDataObjects.obj
 0001:00009840       ?getPxSimulationStatisticsNbStaticBodies@@YAIPEBVPxSimulationStatistics@physx@@@Z 000000018000a840 f i PxAutoGeneratedMetaDataObjects.obj
 0001:00009840       ?getPxgDynamicsMemoryConfigHeapCapacity@@YAIPEBUPxgDynamicsMemoryConfig@physx@@@Z 000000018000a840 f i PxAutoGeneratedMetaDataObjects.obj
 0001:00009840       ?getReferenceCount@NpFEMSoftBodyMaterial@physx@@UEBAIXZ 000000018000a840 f i NpFEMSoftBodyMaterial.obj
 0001:00009840       ?getReferenceCount@NpMaterial@physx@@UEBAIXZ 000000018000a840 f i NpMaterial.obj
 0001:00009840       ?getReferenceCount@NpPBDMaterial@physx@@UEBAIXZ 000000018000a840 f i NpPBDMaterial.obj
 0001:00009840       ?getReferenceCount@NpShape@physx@@UEBAIXZ 000000018000a840 f i NpShape.obj
 0001:00009840       ?length@DNameStatusNode@@UEBAHXZ 000000018000a840 f i libvcruntime:undname.obj
 0001:00009840       ?raw_length@DNameStatusNode@@UEBAHXZ 000000018000a840 f i libvcruntime:undname.obj
 0001:00009850       ?getOffset@ArticulationFixedTendonCore@Sc@physx@@QEBAMXZ 000000018000a850 f i SimulationController_static_64:ScArticulationTendonCore.obj
 0001:00009850       ?getOffset@ArticulationSpatialTendonCore@Sc@physx@@QEBAMXZ 000000018000a850 f i SimulationController_static_64:ScArticulationTendonCore.obj
 0001:00009850       ?getPxArticulationDriveMaxForce@@YAMPEBUPxArticulationDrive@physx@@@Z 000000018000a850 f i PxAutoGeneratedMetaDataObjects.obj
 0001:00009850       ?getPxCapsuleGeometryRadius@@YAMPEBVPxCapsuleGeometry@physx@@@Z 000000018000a850 f i PxAutoGeneratedMetaDataObjects.obj
 0001:00009850       ?getPxSphereGeometryRadius@@YAMPEBVPxSphereGeometry@physx@@@Z 000000018000a850 f i PxAutoGeneratedMetaDataObjects.obj
 0001:00009860       ?getPxArticulationDriveStiffness@@YAMPEBUPxArticulationDrive@physx@@@Z 000000018000a860 f i PxAutoGeneratedMetaDataObjects.obj
 0001:00009860       ?getPxArticulationLimitLow@@YAMPEBUPxArticulationLimit@physx@@@Z 000000018000a860 f i PxAutoGeneratedMetaDataObjects.obj
 0001:00009860       ?getPxTolerancesScaleLength@@YAMPEBVPxTolerancesScale@physx@@@Z 000000018000a860 f i PxAutoGeneratedMetaDataObjects.obj
 0001:00009860       ?getStiffness@ArticulationFixedTendonCore@Sc@physx@@QEBAMXZ 000000018000a860 f i SimulationController_static_64:ScArticulationTendonCore.obj
 0001:00009860       ?getStiffness@ArticulationSpatialTendonCore@Sc@physx@@QEBAMXZ 000000018000a860 f i SimulationController_static_64:ScArticulationTendonCore.obj
 0001:00009870       ?getPxArticulationJointReducedCoordinate_Armature@@YAMPEBVPxArticulationJointReducedCoordinate@physx@@W4Enum@PxArticulationAxis@2@@Z 000000018000a870 f   PxAutoGeneratedMetaDataObjects.obj
 0001:00009870       ?getPxScene_Name@@YAPEBDPEBVPxScene@physx@@@Z 000000018000a870 f   PxAutoGeneratedMetaDataObjects.obj
 0001:00009870       ?setPxPBDMaterial_Cohesion@@YAXPEAVPxPBDMaterial@physx@@M@Z 000000018000a870 f   PxAutoGeneratedMetaDataObjects.obj
 0001:00009880       ?getPxArticulationJointReducedCoordinate_ChildPose@@YA?AV?$PxTransformT@M@physx@@PEBVPxArticulationJointReducedCoordinate@2@@Z 000000018000a880 f   PxAutoGeneratedMetaDataObjects.obj
 0001:000098b0       ?getPxArticulationJointReducedCoordinate_DriveParams@@YA?AUPxArticulationDrive@physx@@PEBVPxArticulationJointReducedCoordinate@2@W4Enum@PxArticulationAxis@2@@Z 000000018000a8b0 f   PxAutoGeneratedMetaDataObjects.obj
 0001:000098e0       ?getPxArticulationJointReducedCoordinate_FrictionCoefficient@@YAMPEBVPxArticulationJointReducedCoordinate@physx@@@Z 000000018000a8e0 f   PxAutoGeneratedMetaDataObjects.obj
 0001:000098e0       ?getPxArticulationReducedCoordinate_Name@@YAPEBDPEBVPxArticulationReducedCoordinate@physx@@@Z 000000018000a8e0 f   PxAutoGeneratedMetaDataObjects.obj
 0001:000098e0       ?getPxShape_ContactOffset@@YAMPEBVPxShape@physx@@@Z 000000018000a8e0 f   PxAutoGeneratedMetaDataObjects.obj
 0001:000098e0       ?setPxPBDMaterial_Lift@@YAXPEAVPxPBDMaterial@physx@@M@Z 000000018000a8e0 f   PxAutoGeneratedMetaDataObjects.obj
 0001:000098f0       ?getPxArticulationJointReducedCoordinate_JointPosition@@YAMPEBVPxArticulationJointReducedCoordinate@physx@@W4Enum@PxArticulationAxis@2@@Z 000000018000a8f0 f   PxAutoGeneratedMetaDataObjects.obj
 0001:000098f0       ?getPxRigidBody_Mass@@YAMPEBVPxRigidBody@physx@@@Z 000000018000a8f0 f   PxAutoGeneratedMetaDataObjects.obj
 0001:000098f0       ?getPxShape_DensityForFluid@@YAMPEBVPxShape@physx@@@Z 000000018000a8f0 f   PxAutoGeneratedMetaDataObjects.obj
 0001:000098f0       ?setPxPBDMaterial_CFLCoefficient@@YAXPEAVPxPBDMaterial@physx@@M@Z 000000018000a8f0 f   PxAutoGeneratedMetaDataObjects.obj
 0001:00009900       ?getPxArticulationJointReducedCoordinate_JointType@@YA?AW4Enum@PxArticulationJointType@physx@@PEBVPxArticulationJointReducedCoordinate@3@@Z 000000018000a900 f   PxAutoGeneratedMetaDataObjects.obj
 0001:00009900       ?getPxArticulationReducedCoordinate_StabilizationThreshold@@YAMPEBVPxArticulationReducedCoordinate@physx@@@Z 000000018000a900 f   PxAutoGeneratedMetaDataObjects.obj
 0001:00009900       ?getPxSceneSQSystem_DynamicStructure@@YA?AW4Enum@PxPruningStructureType@physx@@PEBVPxSceneSQSystem@3@@Z 000000018000a900 f   PxAutoGeneratedMetaDataObjects.obj
 0001:00009900       ?setPxFEMMaterial_DynamicFriction@@YAXPEAVPxFEMMaterial@physx@@M@Z 000000018000a900 f   PxAutoGeneratedMetaDataObjects.obj
 0001:00009900       ?setPxMaterial_Restitution@@YAXPEAVPxMaterial@physx@@M@Z 000000018000a900 f   PxAutoGeneratedMetaDataObjects.obj
 0001:00009900       ?setPxParticleMaterial_Adhesion@@YAXPEAVPxParticleMaterial@physx@@M@Z 000000018000a900 f   PxAutoGeneratedMetaDataObjects.obj
 0001:00009910       ?getPxArticulationJointReducedCoordinate_JointVelocity@@YAMPEBVPxArticulationJointReducedCoordinate@physx@@W4Enum@PxArticulationAxis@2@@Z 000000018000a910 f   PxAutoGeneratedMetaDataObjects.obj
 0001:00009910       ?getPxShape_TorsionalPatchRadius@@YAMPEBVPxShape@physx@@@Z 000000018000a910 f   PxAutoGeneratedMetaDataObjects.obj
 0001:00009910       ?setPxPBDMaterial_ParticleFrictionScale@@YAXPEAVPxPBDMaterial@physx@@M@Z 000000018000a910 f   PxAutoGeneratedMetaDataObjects.obj
 0001:00009910       ?setPxRigidBody_MassSpaceInertiaTensor@@YAXPEAVPxRigidBody@physx@@AEBV?$PxVec3T@M@2@@Z 000000018000a910 f   PxAutoGeneratedMetaDataObjects.obj
 0001:00009920       ?getPxArticulationJointReducedCoordinate_LimitParams@@YA?AUPxArticulationLimit@physx@@PEBVPxArticulationJointReducedCoordinate@2@W4Enum@PxArticulationAxis@2@@Z 000000018000a920 f   PxAutoGeneratedMetaDataObjects.obj
 0001:00009950       ?getPxArticulationJointReducedCoordinate_MaxJointVelocity@@YAMPEBVPxArticulationJointReducedCoordinate@physx@@@Z 000000018000a950 f   PxAutoGeneratedMetaDataObjects.obj
 0001:00009950       ?getPxArticulationReducedCoordinate_Aggregate@@YAPEAVPxAggregate@physx@@PEBVPxArticulationReducedCoordinate@2@@Z 000000018000a950 f   PxAutoGeneratedMetaDataObjects.obj
 0001:00009950       ?getPxShape_RestOffset@@YAMPEBVPxShape@physx@@@Z 000000018000a950 f   PxAutoGeneratedMetaDataObjects.obj
 0001:00009950       ?setPxPBDMaterial_Drag@@YAXPEAVPxPBDMaterial@physx@@M@Z 000000018000a950 f   PxAutoGeneratedMetaDataObjects.obj
 0001:00009960       ?getPxArticulationJointReducedCoordinate_ParentPose@@YA?AV?$PxTransformT@M@physx@@PEBVPxArticulationJointReducedCoordinate@2@@Z 000000018000a960 f   PxAutoGeneratedMetaDataObjects.obj
 0001:00009990       ?getPxArticulationLink_AngularVelocity@@YA?AV?$PxVec3T@M@physx@@PEBVPxArticulationLink@2@@Z 000000018000a990 f   PxAutoGeneratedMetaDataObjects.obj
 0001:00009990       ?getPxRigidDynamic_AngularVelocity@@YA?AV?$PxVec3T@M@physx@@PEBVPxRigidDynamic@2@@Z 000000018000a990 f   PxAutoGeneratedMetaDataObjects.obj
 0001:000099c0       ?getPxArticulationLink_CfmScale@@YAMPEBVPxArticulationLink@physx@@@Z 000000018000a9c0 f   PxAutoGeneratedMetaDataObjects.obj
 0001:000099c0       ?getPxScene_FilterCallback@@YAPEAVPxSimulationFilterCallback@physx@@PEBVPxScene@2@@Z 000000018000a9c0 f   PxAutoGeneratedMetaDataObjects.obj
 0001:000099d0       ?getPxArticulationLink_Children@@YAIPEBVPxArticulationLink@physx@@PEAPEAV12@I@Z 000000018000a9d0 f   PxAutoGeneratedMetaDataObjects.obj
 0001:000099e0       ?getPxArticulationLink_InboundJoint@@YAPEAVPxArticulationJointReducedCoordinate@physx@@PEBVPxArticulationLink@2@@Z 000000018000a9e0 f   PxAutoGeneratedMetaDataObjects.obj
 0001:000099e0       ?setPxScene_BroadPhaseCallback@@YAXPEAVPxScene@physx@@PEAVPxBroadPhaseCallback@2@@Z 000000018000a9e0 f   PxAutoGeneratedMetaDataObjects.obj
 0001:000099f0       ?getPxArticulationLink_InboundJointDof@@YAIPEBVPxArticulationLink@physx@@@Z 000000018000a9f0 f   PxAutoGeneratedMetaDataObjects.obj
 0001:000099f0       ?getPxRigidDynamic_IsSleeping@@YA_NPEBVPxRigidDynamic@physx@@@Z 000000018000a9f0 f   PxAutoGeneratedMetaDataObjects.obj
 0001:000099f0       ?getPxScene_BroadPhaseCallback@@YAPEAVPxBroadPhaseCallback@physx@@PEBVPxScene@2@@Z 000000018000a9f0 f   PxAutoGeneratedMetaDataObjects.obj
 0001:00009a00       ?getPxArticulationLink_LinearVelocity@@YA?AV?$PxVec3T@M@physx@@PEBVPxArticulationLink@2@@Z 000000018000aa00 f   PxAutoGeneratedMetaDataObjects.obj
 0001:00009a00       ?getPxRigidDynamic_LinearVelocity@@YA?AV?$PxVec3T@M@physx@@PEBVPxRigidDynamic@2@@Z 000000018000aa00 f   PxAutoGeneratedMetaDataObjects.obj
 0001:00009a30       ?getPxArticulationLink_LinkIndex@@YAIPEBVPxArticulationLink@physx@@@Z 000000018000aa30 f   PxAutoGeneratedMetaDataObjects.obj
 0001:00009a30       ?getPxRigidDynamic_SleepThreshold@@YAMPEBVPxRigidDynamic@physx@@@Z 000000018000aa30 f   PxAutoGeneratedMetaDataObjects.obj
 0001:00009a40       ?getPxArticulationReducedCoordinate_ArticulationFlags@@YA?AV?$PxFlags@W4Enum@PxArticulationFlag@physx@@E@physx@@PEBVPxArticulationReducedCoordinate@2@@Z 000000018000aa40 f   PxAutoGeneratedMetaDataObjects.obj
 0001:00009a70       ?getPxArticulationReducedCoordinate_Links@@YAIPEBVPxArticulationReducedCoordinate@physx@@PEAPEAVPxArticulationLink@2@I@Z 000000018000aa70 f   PxAutoGeneratedMetaDataObjects.obj
 0001:00009a80       ?getPxArticulationReducedCoordinate_MaxCOMLinearVelocity@@YAMPEBVPxArticulationReducedCoordinate@physx@@@Z 000000018000aa80 f   PxAutoGeneratedMetaDataObjects.obj
 0001:00009a80       ?setPxFEMSoftBodyMaterial_MaterialModel@@YAXPEAVPxFEMSoftBodyMaterial@physx@@W4Enum@PxFEMSoftBodyMaterialModel@2@@Z 000000018000aa80 f   PxAutoGeneratedMetaDataObjects.obj
 0001:00009a80       ?setPxPBDMaterial_Viscosity@@YAXPEAVPxPBDMaterial@physx@@M@Z 000000018000aa80 f   PxAutoGeneratedMetaDataObjects.obj
 0001:00009a90       ?getPxArticulationReducedCoordinate_RootAngularVelocity@@YA?AV?$PxVec3T@M@physx@@PEBVPxArticulationReducedCoordinate@2@@Z 000000018000aa90 f   PxAutoGeneratedMetaDataObjects.obj
 0001:00009ac0       ?getPxArticulationReducedCoordinate_RootGlobalPose@@YA?AV?$PxTransformT@M@physx@@PEBVPxArticulationReducedCoordinate@2@@Z 000000018000aac0 f   PxAutoGeneratedMetaDataObjects.obj
 0001:00009af0       ?getPxArticulationReducedCoordinate_RootLinearVelocity@@YA?AV?$PxVec3T@M@physx@@PEBVPxArticulationReducedCoordinate@2@@Z 000000018000aaf0 f   PxAutoGeneratedMetaDataObjects.obj
 0001:00009b20       ?getPxArticulationReducedCoordinate_Scene@@YAPEAVPxScene@physx@@PEBVPxArticulationReducedCoordinate@2@@Z 000000018000ab20 f   PxAutoGeneratedMetaDataObjects.obj
 0001:00009b20       ?getPxConstraint_Scene@@YAPEAVPxScene@physx@@PEBVPxConstraint@2@@Z 000000018000ab20 f   PxAutoGeneratedMetaDataObjects.obj
 0001:00009b20       ?getPxRefCounted_ReferenceCount@@YAIPEBVPxRefCounted@physx@@@Z 000000018000ab20 f   PxAutoGeneratedMetaDataObjects.obj
 0001:00009b20       ?getPxSceneQuerySystemBase_UpdateMode@@YA?AW4Enum@PxSceneQueryUpdateMode@physx@@PEBVPxSceneQuerySystemBase@3@@Z 000000018000ab20 f   PxAutoGeneratedMetaDataObjects.obj
 0001:00009b20       ?getPxSceneSQSystem_SceneQueryUpdateMode@@YA?AW4Enum@PxSceneQueryUpdateMode@physx@@PEBVPxSceneSQSystem@3@@Z 000000018000ab20 f   PxAutoGeneratedMetaDataObjects.obj
 0001:00009b30       ?getConcreteTypeName@?$PxSerializerDefaultAdapter@VBV4TriangleMesh@Gu@physx@@@physx@@UEBAPEBDXZ 000000018000ab30 f i NpSerializerAdapter.obj
 0001:00009b30       ?getConcreteTypeName@?$PxSerializerDefaultAdapter@VConvexMesh@Gu@physx@@@physx@@UEBAPEBDXZ 000000018000ab30 f i NpSerializerAdapter.obj
 0001:00009b30       ?getConcreteTypeName@?$PxSerializerDefaultAdapter@VHeightField@Gu@physx@@@physx@@UEBAPEBDXZ 000000018000ab30 f i NpSerializerAdapter.obj
 0001:00009b30       ?getConcreteTypeName@?$PxSerializerDefaultAdapter@VNpAggregate@physx@@@physx@@UEBAPEBDXZ 000000018000ab30 f i NpSerializerAdapter.obj
 0001:00009b30       ?getConcreteTypeName@?$PxSerializerDefaultAdapter@VNpArticulationAttachment@physx@@@physx@@UEBAPEBDXZ 000000018000ab30 f i NpSerializerAdapter.obj
 0001:00009b30       ?getConcreteTypeName@?$PxSerializerDefaultAdapter@VNpArticulationFixedTendon@physx@@@physx@@UEBAPEBDXZ 000000018000ab30 f i NpSerializerAdapter.obj
 0001:00009b30       ?getConcreteTypeName@?$PxSerializerDefaultAdapter@VNpArticulationJointReducedCoordinate@physx@@@physx@@UEBAPEBDXZ 000000018000ab30 f i NpSerializerAdapter.obj
 0001:00009b30       ?getConcreteTypeName@?$PxSerializerDefaultAdapter@VNpArticulationLink@physx@@@physx@@UEBAPEBDXZ 000000018000ab30 f i NpSerializerAdapter.obj
 0001:00009b30       ?getConcreteTypeName@?$PxSerializerDefaultAdapter@VNpArticulationReducedCoordinate@physx@@@physx@@UEBAPEBDXZ 000000018000ab30 f i NpSerializerAdapter.obj
 0001:00009b30       ?getConcreteTypeName@?$PxSerializerDefaultAdapter@VNpArticulationSensor@physx@@@physx@@UEBAPEBDXZ 000000018000ab30 f i NpSerializerAdapter.obj
 0001:00009b30       ?getConcreteTypeName@?$PxSerializerDefaultAdapter@VNpArticulationSpatialTendon@physx@@@physx@@UEBAPEBDXZ 000000018000ab30 f i NpSerializerAdapter.obj
 0001:00009b30       ?getConcreteTypeName@?$PxSerializerDefaultAdapter@VNpArticulationTendonJoint@physx@@@physx@@UEBAPEBDXZ 000000018000ab30 f i NpSerializerAdapter.obj
 0001:00009b30       ?getConcreteTypeName@?$PxSerializerDefaultAdapter@VNpConstraint@physx@@@physx@@UEBAPEBDXZ 000000018000ab30 f i NpSerializerAdapter.obj
 0001:00009b30       ?getConcreteTypeName@?$PxSerializerDefaultAdapter@VNpMaterial@physx@@@physx@@UEBAPEBDXZ 000000018000ab30 f i NpSerializerAdapter.obj
 0001:00009b30       ?getConcreteTypeName@?$PxSerializerDefaultAdapter@VNpRigidDynamic@physx@@@physx@@UEBAPEBDXZ 000000018000ab30 f i NpSerializerAdapter.obj
 0001:00009b30       ?getConcreteTypeName@?$PxSerializerDefaultAdapter@VNpRigidStatic@physx@@@physx@@UEBAPEBDXZ 000000018000ab30 f i NpSerializerAdapter.obj
 0001:00009b30       ?getConcreteTypeName@?$PxSerializerDefaultAdapter@VNpShape@physx@@@physx@@UEBAPEBDXZ 000000018000ab30 f i NpSerializerAdapter.obj
 0001:00009b30       ?getConcreteTypeName@?$PxSerializerDefaultAdapter@VPruningStructure@Sq@physx@@@physx@@UEBAPEBDXZ 000000018000ab30 f i NpSerializerAdapter.obj
 0001:00009b30       ?getConcreteTypeName@?$PxSerializerDefaultAdapter@VRTreeTriangleMesh@Gu@physx@@@physx@@UEBAPEBDXZ 000000018000ab30 f i NpSerializerAdapter.obj
 0001:00009b30       ?getPoints@RenderBuffer@Cm@physx@@UEBAPEBUPxDebugPoint@3@XZ 000000018000ab30 f i NpScene.obj
 0001:00009b30       ?getPxBroadPhaseDescMContextID@@YA_KPEBVPxBroadPhaseDesc@physx@@@Z 000000018000ab30 f i PxAutoGeneratedMetaDataObjects.obj
 0001:00009b30       ?getPxHeightFieldGeometryHeightField@@YAPEAVPxHeightField@physx@@PEBVPxHeightFieldGeometry@2@@Z 000000018000ab30 f i PxAutoGeneratedMetaDataObjects.obj
 0001:00009b30       ?getPxSceneUserData@@YAPEAXPEBVPxScene@physx@@@Z 000000018000ab30 f i PxAutoGeneratedMetaDataObjects.obj
 0001:00009b30       ?getPxTetrahedronMeshGeometryTetrahedronMesh@@YAPEAVPxTetrahedronMesh@physx@@PEBVPxTetrahedronMeshGeometry@2@@Z 000000018000ab30 f i PxAutoGeneratedMetaDataObjects.obj
 0001:00009b40       ?getPxBroadPhaseDescMDiscardKinematicVsKinematic@@YA_NPEBVPxBroadPhaseDesc@physx@@@Z 000000018000ab40 f i PxAutoGeneratedMetaDataObjects.obj
 0001:00009b50       ?getPxBroadPhaseDescMDiscardStaticVsKinematic@@YA_NPEBVPxBroadPhaseDesc@physx@@@Z 000000018000ab50 f i PxAutoGeneratedMetaDataObjects.obj
 0001:00009b60       ?getPxBroadPhaseDescMFoundLostPairsCapacity@@YAIPEBVPxBroadPhaseDesc@physx@@@Z 000000018000ab60 f i PxAutoGeneratedMetaDataObjects.obj
 0001:00009b60       ?getPxSceneLimitsMaxNbRegions@@YAIPEBVPxSceneLimits@physx@@@Z 000000018000ab60 f i PxAutoGeneratedMetaDataObjects.obj
 0001:00009b60       ?getPxSceneQueryDescStaticNbObjectsPerNode@@YAIPEBVPxSceneQueryDesc@physx@@@Z 000000018000ab60 f i PxAutoGeneratedMetaDataObjects.obj
 0001:00009b60       ?getPxgDynamicsMemoryConfigTotalAggregatePairsCapacity@@YAIPEBUPxgDynamicsMemoryConfig@physx@@@Z 000000018000ab60 f i PxAutoGeneratedMetaDataObjects.obj
 0001:00009b60       ?getReference@FanoutTask@Cm@physx@@UEBAHXZ 000000018000ab60 f i SimulationController_static_64:ScScene.obj
 0001:00009b60       ?raw_length@pairNode@@UEBAHXZ 000000018000ab60 f i libvcruntime:undname.obj
 0001:00009b70       ?getPxBroadPhaseDescMType@@YA?AW4Enum@PxBroadPhaseType@physx@@PEBVPxBroadPhaseDesc@3@@Z 000000018000ab70 f i PxAutoGeneratedMetaDataObjects.obj
 0001:00009b70       ?getPxHeightFieldDescNbRows@@YAIPEBVPxHeightFieldDesc@physx@@@Z 000000018000ab70 f i PxAutoGeneratedMetaDataObjects.obj
 0001:00009b70       ?getPxSceneLimitsMaxNbActors@@YAIPEBVPxSceneLimits@physx@@@Z 000000018000ab70 f i PxAutoGeneratedMetaDataObjects.obj
 0001:00009b70       ?getPxSceneQueryDescStaticStructure@@YA?AW4Enum@PxPruningStructureType@physx@@PEBVPxSceneQueryDesc@3@@Z 000000018000ab70 f i PxAutoGeneratedMetaDataObjects.obj
 0001:00009b70       ?getPxSimulationStatisticsNbActiveConstraints@@YAIPEBVPxSimulationStatistics@physx@@@Z 000000018000ab70 f i PxAutoGeneratedMetaDataObjects.obj
 0001:00009b70       ?getPxgDynamicsMemoryConfigTempBufferCapacity@@YAIPEBUPxgDynamicsMemoryConfig@physx@@@Z 000000018000ab70 f i PxAutoGeneratedMetaDataObjects.obj
 0001:00009b80       ?getPxBroadPhaseDesc_IsValid@@YA_NPEBVPxBroadPhaseDesc@physx@@@Z 000000018000ab80 f   PxAutoGeneratedMetaDataObjects.obj
 0001:00009ba0       ?getLimitStiffness@ArticulationFixedTendonCore@Sc@physx@@QEBAMXZ 000000018000aba0 f i SimulationController_static_64:ScArticulationTendonCore.obj
 0001:00009ba0       ?getLimitStiffness@ArticulationSpatialTendonCore@Sc@physx@@QEBAMXZ 000000018000aba0 f i SimulationController_static_64:ScArticulationTendonCore.obj
 0001:00009ba0       ?getPxCapsuleGeometryHalfHeight@@YAMPEBVPxCapsuleGeometry@physx@@@Z 000000018000aba0 f i PxAutoGeneratedMetaDataObjects.obj
 0001:00009bb0       ?getPxConstraint_BreakForce@@YAXPEBVPxConstraint@physx@@AEAM1@Z 000000018000abb0 f   PxAutoGeneratedMetaDataObjects.obj
 0001:00009bb0       ?getPxFEMSoftBodyMaterial_Damping@@YAMPEBVPxFEMSoftBodyMaterial@physx@@@Z 000000018000abb0 f   PxAutoGeneratedMetaDataObjects.obj
 0001:00009bb0       ?getPxMaterial_Damping@@YAMPEBVPxMaterial@physx@@@Z 000000018000abb0 f   PxAutoGeneratedMetaDataObjects.obj
 0001:00009bb0       ?getPxParticleMaterial_GravityScale@@YAMPEBVPxParticleMaterial@physx@@@Z 000000018000abb0 f   PxAutoGeneratedMetaDataObjects.obj
 0001:00009bb0       ?setPxActor_OwnerClient@@YAXPEAVPxActor@physx@@E@Z 000000018000abb0 f   PxAutoGeneratedMetaDataObjects.obj
 0001:00009bb0       ?setPxShape_QueryFilterData@@YAXPEAVPxShape@physx@@AEBUPxFilterData@2@@Z 000000018000abb0 f   PxAutoGeneratedMetaDataObjects.obj
 0001:00009bc0       ?getPxConstraint_Flags@@YA?AV?$PxFlags@W4Enum@PxConstraintFlag@physx@@G@physx@@PEBVPxConstraint@2@@Z 000000018000abc0 f   PxAutoGeneratedMetaDataObjects.obj
 0001:00009bf0       ?getLink@NpArticulationAttachment@physx@@UEBAPEAVPxArticulationLink@2@XZ 000000018000abf0 f i NpArticulationTendon.obj
 0001:00009bf0       ?getLink@NpArticulationSensor@physx@@UEBAPEAVPxArticulationLink@2@XZ 000000018000abf0 f i NpArticulationSensor.obj
 0001:00009bf0       ?getLink@NpArticulationTendonJoint@physx@@UEBAPEAVPxArticulationLink@2@XZ 000000018000abf0 f i NpArticulationTendon.obj
 0001:00009bf0       ?getName@?$NpActorTemplate@VPxArticulationLink@physx@@@physx@@UEBAPEBDXZ 000000018000abf0 f i NpArticulationLink.obj
 0001:00009bf0       ?getName@?$NpActorTemplate@VPxPBDParticleSystem@physx@@@physx@@UEBAPEBDXZ 000000018000abf0 f i NpParticleSystem.obj
 0001:00009bf0       ?getName@?$NpActorTemplate@VPxRigidDynamic@physx@@@physx@@UEBAPEBDXZ 000000018000abf0 f i NpRigidDynamic.obj
 0001:00009bf0       ?getName@?$NpActorTemplate@VPxRigidStatic@physx@@@physx@@UEBAPEBDXZ 000000018000abf0 f i NpRigidStatic.obj
 0001:00009bf0       ?getName@?$NpActorTemplate@VPxSoftBody@physx@@@physx@@UEBAPEBDXZ 000000018000abf0 f i NpSoftBody.obj
 0001:00009bf0       ?getName@?$NpParticleSystem@VPxPBDParticleSystem@physx@@@physx@@UEBAPEBDXZ 000000018000abf0 f i NpParticleSystem.obj
 0001:00009bf0       ?getName@NpSoftBody@physx@@UEBAPEBDXZ 000000018000abf0 f i NpSoftBody.obj
 0001:00009bf0       ?getPxConvexMeshGeometryConvexMesh@@YAPEAVPxConvexMesh@physx@@PEBVPxConvexMeshGeometry@2@@Z 000000018000abf0 f i PxAutoGeneratedMetaDataObjects.obj
 0001:00009bf0       ?getPxTriangleMeshGeometryTriangleMesh@@YAPEAVPxTriangleMesh@physx@@PEBVPxTriangleMeshGeometry@2@@Z 000000018000abf0 f i PxAutoGeneratedMetaDataObjects.obj
 0001:00009bf0       ?getTriangles@RenderBuffer@Cm@physx@@UEBAPEBUPxDebugTriangle@3@XZ 000000018000abf0 f i NpScene.obj
 0001:00009c00       ?getPxConvexMeshGeometryMeshFlags@@YA?AV?$PxFlags@W4Enum@PxConvexMeshGeometryFlag@physx@@E@physx@@PEBVPxConvexMeshGeometry@2@@Z 000000018000ac00 f i PxAutoGeneratedMetaDataObjects.obj
 0001:00009c10       ?getPxConvexMeshGeometryScale@@YA?AVPxMeshScale@physx@@PEBVPxConvexMeshGeometry@2@@Z 000000018000ac10 f i PxAutoGeneratedMetaDataObjects.obj
 0001:00009c10       ?getPxTriangleMeshGeometryScale@@YA?AVPxMeshScale@physx@@PEBVPxTriangleMeshGeometry@2@@Z 000000018000ac10 f i PxAutoGeneratedMetaDataObjects.obj
 0001:00009c40       ?getAdhesion@NpPBDMaterial@physx@@UEBAMXZ 000000018000ac40 f i NpPBDMaterial.obj
 0001:00009c40       ?getPxHeightFieldDescConvexEdgeThreshold@@YAMPEBVPxHeightFieldDesc@physx@@@Z 000000018000ac40 f i PxAutoGeneratedMetaDataObjects.obj
 0001:00009c40       ?getRestitution@NpMaterial@physx@@UEBAMXZ 000000018000ac40 f i NpMaterial.obj
 0001:00009c40       ?getYoungsModulus@NpFEMSoftBodyMaterial@physx@@UEBAMXZ 000000018000ac40 f i NpFEMSoftBodyMaterial.obj
 0001:00009c50       ?getPxHeightFieldDescFlags@@YA?AV?$PxFlags@W4Enum@PxHeightFieldFlag@physx@@G@physx@@PEBVPxHeightFieldDesc@2@@Z 000000018000ac50 f i PxAutoGeneratedMetaDataObjects.obj
 0001:00009c60       ?getPxHeightFieldDescFormat@@YA?AW4Enum@PxHeightFieldFormat@physx@@PEBVPxHeightFieldDesc@3@@Z 000000018000ac60 f i PxAutoGeneratedMetaDataObjects.obj
 0001:00009c60       ?getPxSceneLimitsMaxNbStaticShapes@@YAIPEBVPxSceneLimits@physx@@@Z 000000018000ac60 f i PxAutoGeneratedMetaDataObjects.obj
 0001:00009c60       ?getPxSceneQueryDescDynamicTreeRebuildRateHint@@YAIPEBVPxSceneQueryDesc@physx@@@Z 000000018000ac60 f i PxAutoGeneratedMetaDataObjects.obj
 0001:00009c60       ?getPxSimulationStatisticsNbActiveKinematicBodies@@YAIPEBVPxSimulationStatistics@physx@@@Z 000000018000ac60 f i PxAutoGeneratedMetaDataObjects.obj
 0001:00009c60       ?getPxgDynamicsMemoryConfigMaxRigidPatchCount@@YAIPEBUPxgDynamicsMemoryConfig@physx@@@Z 000000018000ac60 f i PxAutoGeneratedMetaDataObjects.obj
 0001:00009c70       ?getPxHeightFieldDescNbColumns@@YAIPEBVPxHeightFieldDesc@physx@@@Z 000000018000ac70 f i PxAutoGeneratedMetaDataObjects.obj
 0001:00009c70       ?getPxSceneLimitsMaxNbBodies@@YAIPEBVPxSceneLimits@physx@@@Z 000000018000ac70 f i PxAutoGeneratedMetaDataObjects.obj
 0001:00009c70       ?getPxSceneQueryDescDynamicStructure@@YA?AW4Enum@PxPruningStructureType@physx@@PEBVPxSceneQueryDesc@3@@Z 000000018000ac70 f i PxAutoGeneratedMetaDataObjects.obj
 0001:00009c70       ?getPxSimulationStatisticsNbActiveDynamicBodies@@YAIPEBVPxSimulationStatistics@physx@@@Z 000000018000ac70 f i PxAutoGeneratedMetaDataObjects.obj
 0001:00009c70       ?getPxgDynamicsMemoryConfigMaxRigidContactCount@@YAIPEBUPxgDynamicsMemoryConfig@physx@@@Z 000000018000ac70 f i PxAutoGeneratedMetaDataObjects.obj
 0001:00009c80       ?getPxHeightFieldDescSamples@@YA?AUPxStridedData@physx@@PEBVPxHeightFieldDesc@2@@Z 000000018000ac80 f i PxAutoGeneratedMetaDataObjects.obj
 0001:00009c90       ?getDynamicFriction@NpMaterial@physx@@UEBAMXZ 000000018000ac90 f i NpMaterial.obj
 0001:00009c90       ?getFriction@NpPBDMaterial@physx@@UEBAMXZ 000000018000ac90 f i NpPBDMaterial.obj
 0001:00009c90       ?getPxHeightFieldGeometryColumnScale@@YAMPEBVPxHeightFieldGeometry@physx@@@Z 000000018000ac90 f i PxAutoGeneratedMetaDataObjects.obj
 0001:00009c90       ?getSpringRestLength@ArticulationFixedTendonCore@Sc@physx@@QEBAMXZ 000000018000ac90 f i SimulationController_static_64:ScArticulationTendonCore.obj
 0001:00009ca0       ?getPxHeightFieldGeometryHeightFieldFlags@@YA?AV?$PxFlags@W4Enum@PxMeshGeometryFlag@physx@@E@physx@@PEBVPxHeightFieldGeometry@2@@Z 000000018000aca0 f i PxAutoGeneratedMetaDataObjects.obj
 0001:00009cb0       ?getPxHeightFieldGeometryHeightScale@@YAMPEBVPxHeightFieldGeometry@physx@@@Z 000000018000acb0 f i PxAutoGeneratedMetaDataObjects.obj
 0001:00009cc0       ?getPxHeightFieldGeometryRowScale@@YAMPEBVPxHeightFieldGeometry@physx@@@Z 000000018000acc0 f i PxAutoGeneratedMetaDataObjects.obj
 0001:00009cd0       ?getPxMaterial_Flags@@YA?AV?$PxFlags@W4Enum@PxMaterialFlag@physx@@G@physx@@PEBVPxMaterial@2@@Z 000000018000acd0 f   PxAutoGeneratedMetaDataObjects.obj
 0001:00009cd0       ?getPxScene_Flags@@YA?AV?$PxFlags@W4Enum@PxSceneFlag@physx@@I@physx@@PEBVPxScene@2@@Z 000000018000acd0 f   PxAutoGeneratedMetaDataObjects.obj
 0001:00009d00       ?getPxMeshScaleRotation@@YA?AV?$PxQuatT@M@physx@@PEBVPxMeshScale@2@@Z 000000018000ad00 f i PxAutoGeneratedMetaDataObjects.obj
 0001:00009d20       ?getPxMeshScaleScale@@YA?AV?$PxVec3T@M@physx@@PEBVPxMeshScale@2@@Z 000000018000ad20 f i PxAutoGeneratedMetaDataObjects.obj
 0001:00009d40       ?getPxPBDMaterial_Drag@@YAMPEBVPxPBDMaterial@physx@@@Z 000000018000ad40 f   PxAutoGeneratedMetaDataObjects.obj
 0001:00009d40       ?setPxArticulationJointReducedCoordinate_JointPosition@@YAXPEAVPxArticulationJointReducedCoordinate@physx@@W4Enum@PxArticulationAxis@2@M@Z 000000018000ad40 f   PxAutoGeneratedMetaDataObjects.obj
 0001:00009d40       ?setPxRigidBody_Mass@@YAXPEAVPxRigidBody@physx@@M@Z 000000018000ad40 f   PxAutoGeneratedMetaDataObjects.obj
 0001:00009d40       ?setPxShape_DensityForFluid@@YAXPEAVPxShape@physx@@M@Z 000000018000ad40 f   PxAutoGeneratedMetaDataObjects.obj
 0001:00009d50       ?getPxPBDMaterial_Lift@@YAMPEBVPxPBDMaterial@physx@@@Z 000000018000ad50 f   PxAutoGeneratedMetaDataObjects.obj
 0001:00009d50       ?setPxArticulationJointReducedCoordinate_MaxJointVelocity@@YAXPEAVPxArticulationJointReducedCoordinate@physx@@M@Z 000000018000ad50 f   PxAutoGeneratedMetaDataObjects.obj
 0001:00009d50       ?setPxRigidBody_CMassLocalPose@@YAXPEAVPxRigidBody@physx@@AEBV?$PxTransformT@M@2@@Z 000000018000ad50 f   PxAutoGeneratedMetaDataObjects.obj
 0001:00009d50       ?setPxShape_RestOffset@@YAXPEAVPxShape@physx@@M@Z 000000018000ad50 f   PxAutoGeneratedMetaDataObjects.obj
 0001:00009d60       ?getPxPBDMaterial_ParticleAdhesionScale@@YAMPEBVPxPBDMaterial@physx@@@Z 000000018000ad60 f   PxAutoGeneratedMetaDataObjects.obj
 0001:00009d60       ?getPxShape_InternalShapeIndex@@YAIPEBVPxShape@physx@@@Z 000000018000ad60 f   PxAutoGeneratedMetaDataObjects.obj
 0001:00009d60       ?setPxRigidBody_LinearDamping@@YAXPEAVPxRigidBody@physx@@M@Z 000000018000ad60 f   PxAutoGeneratedMetaDataObjects.obj
 0001:00009d70       ?getPxPBDMaterial_ParticleFrictionScale@@YAMPEBVPxPBDMaterial@physx@@@Z 000000018000ad70 f   PxAutoGeneratedMetaDataObjects.obj
 0001:00009d70       ?setPxShape_MinTorsionalPatchRadius@@YAXPEAVPxShape@physx@@M@Z 000000018000ad70 f   PxAutoGeneratedMetaDataObjects.obj
 0001:00009d80       ?getPxPBDMaterial_VorticityConfinement@@YAMPEBVPxPBDMaterial@physx@@@Z 000000018000ad80 f   PxAutoGeneratedMetaDataObjects.obj
 0001:00009d80       ?setPxMaterial_RestitutionCombineMode@@YAXPEAVPxMaterial@physx@@W4Enum@PxCombineMode@2@@Z 000000018000ad80 f   PxAutoGeneratedMetaDataObjects.obj
 0001:00009d90       ?getPxPhysics_BVHs@@YAIPEBVPxPhysics@physx@@PEAPEAVPxBVH@2@I@Z 000000018000ad90 f   PxAutoGeneratedMetaDataObjects.obj
 0001:00009d90       ?getPxShape_Materials@@YAIPEBVPxShape@physx@@PEAPEAVPxMaterial@2@I@Z 000000018000ad90 f   PxAutoGeneratedMetaDataObjects.obj
 0001:00009da0       ?getPxPhysics_ConvexMeshes@@YAIPEBVPxPhysics@physx@@PEAPEAVPxConvexMesh@2@I@Z 000000018000ada0 f   PxAutoGeneratedMetaDataObjects.obj
 0001:00009db0       ?getPxPhysics_FEMClothMaterials@@YAIPEBVPxPhysics@physx@@PEAPEAVPxFEMClothMaterial@2@I@Z 000000018000adb0 f   PxAutoGeneratedMetaDataObjects.obj
 0001:00009dc0       ?getPxPhysics_FEMSoftBodyMaterials@@YAIPEBVPxPhysics@physx@@PEAPEAVPxFEMSoftBodyMaterial@2@I@Z 000000018000adc0 f   PxAutoGeneratedMetaDataObjects.obj
 0001:00009dd0       ?getPxPhysics_HeightFields@@YAIPEBVPxPhysics@physx@@PEAPEAVPxHeightField@2@I@Z 000000018000add0 f   PxAutoGeneratedMetaDataObjects.obj
 0001:00009de0       ?getPxPhysics_Materials@@YAIPEBVPxPhysics@physx@@PEAPEAVPxMaterial@2@I@Z 000000018000ade0 f   PxAutoGeneratedMetaDataObjects.obj
 0001:00009de0       ?getPxScene_Articulations@@YAIPEBVPxScene@physx@@PEAPEAVPxArticulationReducedCoordinate@2@I@Z 000000018000ade0 f   PxAutoGeneratedMetaDataObjects.obj
 0001:00009df0       ?getPxPhysics_PBDMaterials@@YAIPEBVPxPhysics@physx@@PEAPEAVPxPBDMaterial@2@I@Z 000000018000adf0 f   PxAutoGeneratedMetaDataObjects.obj
 0001:00009e00       ?getPxPhysics_Scenes@@YAIPEBVPxPhysics@physx@@PEAPEAVPxScene@2@I@Z 000000018000ae00 f   PxAutoGeneratedMetaDataObjects.obj
 0001:00009e00       ?getPxRigidActor_Shapes@@YAIPEBVPxRigidActor@physx@@PEAPEAVPxShape@2@I@Z 000000018000ae00 f   PxAutoGeneratedMetaDataObjects.obj
 0001:00009e10       ?getPxPhysics_Shapes@@YAIPEBVPxPhysics@physx@@PEAPEAVPxShape@2@I@Z 000000018000ae10 f   PxAutoGeneratedMetaDataObjects.obj
 0001:00009e20       ?getPxPhysics_TriangleMeshes@@YAIPEBVPxPhysics@physx@@PEAPEAVPxTriangleMesh@2@I@Z 000000018000ae20 f   PxAutoGeneratedMetaDataObjects.obj
 0001:00009e30       ?getPxPruningStructure_RigidActors@@YAIPEBVPxPruningStructure@physx@@PEAPEAVPxRigidActor@2@I@Z 000000018000ae30 f   PxAutoGeneratedMetaDataObjects.obj
 0001:00009e40       ?getPxRigidActor_Constraints@@YAIPEBVPxRigidActor@physx@@PEAPEAVPxConstraint@2@I@Z 000000018000ae40 f   PxAutoGeneratedMetaDataObjects.obj
 0001:00009e50       ?getPxRigidActor_GlobalPose@@YA?AV?$PxTransformT@M@physx@@PEBVPxRigidActor@2@@Z 000000018000ae50 f   PxAutoGeneratedMetaDataObjects.obj
 0001:00009e80       ?getPxRigidBody_CMassLocalPose@@YA?AV?$PxTransformT@M@physx@@PEBVPxRigidBody@2@@Z 000000018000ae80 f   PxAutoGeneratedMetaDataObjects.obj
 0001:00009eb0       ?getPxRigidBody_ContactSlopCoefficient@@YAMPEBVPxRigidBody@physx@@@Z 000000018000aeb0 f   PxAutoGeneratedMetaDataObjects.obj
 0001:00009eb0       ?setPxScene_CCDContactModifyCallback@@YAXPEAVPxScene@physx@@PEAVPxCCDContactModifyCallback@2@@Z 000000018000aeb0 f   PxAutoGeneratedMetaDataObjects.obj
 0001:00009ec0       ?getPxRigidBody_LinearDamping@@YAMPEBVPxRigidBody@physx@@@Z 000000018000aec0 f   PxAutoGeneratedMetaDataObjects.obj
 0001:00009ed0       ?getPxRigidBody_MassSpaceInertiaTensor@@YA?AV?$PxVec3T@M@physx@@PEBVPxRigidBody@2@@Z 000000018000aed0 f   PxAutoGeneratedMetaDataObjects.obj
 0001:00009f00       ?getPxRigidBody_MassSpaceInvInertiaTensor@@YA?AV?$PxVec3T@M@physx@@PEBVPxRigidBody@2@@Z 000000018000af00 f   PxAutoGeneratedMetaDataObjects.obj
 0001:00009f30       ?getPxRigidBody_MaxAngularVelocity@@YAMPEBVPxRigidBody@physx@@@Z 000000018000af30 f   PxAutoGeneratedMetaDataObjects.obj
 0001:00009f40       ?getPxRigidBody_MaxContactImpulse@@YAMPEBVPxRigidBody@physx@@@Z 000000018000af40 f   PxAutoGeneratedMetaDataObjects.obj
 0001:00009f40       ?getPxScene_SimulationEventCallback@@YAPEAVPxSimulationEventCallback@physx@@PEBVPxScene@2@@Z 000000018000af40 f   PxAutoGeneratedMetaDataObjects.obj
 0001:00009f50       ?getPxRigidBody_MaxDepenetrationVelocity@@YAMPEBVPxRigidBody@physx@@@Z 000000018000af50 f   PxAutoGeneratedMetaDataObjects.obj
 0001:00009f60       ?getPxRigidBody_MaxLinearVelocity@@YAMPEBVPxRigidBody@physx@@@Z 000000018000af60 f   PxAutoGeneratedMetaDataObjects.obj
 0001:00009f70       ?getPxRigidBody_MinCCDAdvanceCoefficient@@YAMPEBVPxRigidBody@physx@@@Z 000000018000af70 f   PxAutoGeneratedMetaDataObjects.obj
 0001:00009f70       ?getPxScene_CpuDispatcher@@YAPEAVPxCpuDispatcher@physx@@PEBVPxScene@2@@Z 000000018000af70 f   PxAutoGeneratedMetaDataObjects.obj
 0001:00009f80       ?getPxRigidBody_RigidBodyFlags@@YA?AV?$PxFlags@W4Enum@PxRigidBodyFlag@physx@@G@physx@@PEBVPxRigidBody@2@@Z 000000018000af80 f   PxAutoGeneratedMetaDataObjects.obj
 0001:00009fb0       ?getPxRigidDynamic_ContactReportThreshold@@YAMPEBVPxRigidDynamic@physx@@@Z 000000018000afb0 f   PxAutoGeneratedMetaDataObjects.obj
 0001:00009fc0       ?getPxRigidDynamic_RigidDynamicLockFlags@@YA?AV?$PxFlags@W4Enum@PxRigidDynamicLockFlag@physx@@E@physx@@PEBVPxRigidDynamic@2@@Z 000000018000afc0 f   PxAutoGeneratedMetaDataObjects.obj
 0001:00009ff0       ?getPxRigidDynamic_SolverIterationCounts@@YAXPEBVPxRigidDynamic@physx@@AEAI1@Z 000000018000aff0 f   PxAutoGeneratedMetaDataObjects.obj
 0001:0000a000       ?getPxRigidDynamic_StabilizationThreshold@@YAMPEBVPxRigidDynamic@physx@@@Z 000000018000b000 f   PxAutoGeneratedMetaDataObjects.obj
 0001:0000a000       ?getPxScene_FilterShader@@YAP6A?AV?$PxFlags@W4Enum@PxFilterFlag@physx@@G@physx@@IUPxFilterData@2@I0AEAV?$PxFlags@W4Enum@PxPairFlag@physx@@G@2@PEBXI@ZPEBVPxScene@2@@Z 000000018000b000 f   PxAutoGeneratedMetaDataObjects.obj
 0001:0000a000       ?setPxArticulationLink_CfmScale@@YAXPEAVPxArticulationLink@physx@@M@Z 000000018000b000 f   PxAutoGeneratedMetaDataObjects.obj
 0001:0000a010       ?getPxRigidDynamic_WakeCounter@@YAMPEBVPxRigidDynamic@physx@@@Z 000000018000b010 f   PxAutoGeneratedMetaDataObjects.obj
 0001:0000a020       ?getPxSceneDescBounceThresholdVelocity@@YAMPEBVPxSceneDesc@physx@@@Z 000000018000b020 f i PxAutoGeneratedMetaDataObjects.obj
 0001:0000a020       ?getTorsionalPatchRadius@NpShape@physx@@UEBAMXZ 000000018000b020 f i NpShape.obj
 0001:0000a030       ?getPxSceneDescBroadPhaseCallback@@YAPEAVPxBroadPhaseCallback@physx@@PEBVPxSceneDesc@2@@Z 000000018000b030 f i PxAutoGeneratedMetaDataObjects.obj
 0001:0000a030       ?getTendon@NpArticulationAttachment@physx@@UEBAPEAVPxArticulationSpatialTendon@2@XZ 000000018000b030 f i NpArticulationTendon.obj
 0001:0000a040       ?getPxSceneDescBroadPhaseType@@YA?AW4Enum@PxBroadPhaseType@physx@@PEBVPxSceneDesc@3@@Z 000000018000b040 f i PxAutoGeneratedMetaDataObjects.obj
 0001:0000a040       ?getPxSimulationStatisticsNbNewTouches@@YAIPEBVPxSimulationStatistics@physx@@@Z 000000018000b040 f i PxAutoGeneratedMetaDataObjects.obj
 0001:0000a050       ?getPxSceneDescCcdContactModifyCallback@@YAPEAVPxCCDContactModifyCallback@physx@@PEBVPxSceneDesc@2@@Z 000000018000b050 f i PxAutoGeneratedMetaDataObjects.obj
 0001:0000a050       ?getSimulationMesh@NpSoftBody@physx@@UEAAPEAVPxTetrahedronMesh@2@XZ 000000018000b050 f i NpSoftBody.obj
 0001:0000a050       ?getSimulationMesh@NpSoftBody@physx@@UEBAPEBVPxTetrahedronMesh@2@XZ 000000018000b050 f i NpSoftBody.obj
 0001:0000a060       ?getPeakConstraintBlockCount@PxcNpMemBlockPool@physx@@QEBAIXZ 000000018000b060 f i LowLevel_static_64:PxcNpMemBlockPool.obj
 0001:0000a060       ?getPxSceneDescCcdMaxPasses@@YAIPEBVPxSceneDesc@physx@@@Z 000000018000b060 f i PxAutoGeneratedMetaDataObjects.obj
 0001:0000a070       ?getMaxVelocity@ParticleSystemCore@Sc@physx@@QEBAMXZ 000000018000b070 f i SimulationController_static_64:ScParticleSystemCore.obj
 0001:0000a070       ?getPxSceneDescCcdMaxSeparation@@YAMPEBVPxSceneDesc@physx@@@Z 000000018000b070 f i PxAutoGeneratedMetaDataObjects.obj
 0001:0000a080       ?getMaxDepenetrationVelocity@ParticleSystemCore@Sc@physx@@QEBAMXZ 000000018000b080 f i SimulationController_static_64:ScParticleSystemCore.obj
 0001:0000a080       ?getPxSceneDescCcdThreshold@@YAMPEBVPxSceneDesc@physx@@@Z 000000018000b080 f i PxAutoGeneratedMetaDataObjects.obj
 0001:0000a090       ?getPxSceneDescContactModifyCallback@@YAPEAVPxContactModifyCallback@physx@@PEBVPxSceneDesc@2@@Z 000000018000b090 f i PxAutoGeneratedMetaDataObjects.obj
 0001:0000a090       ?getShape@NpSoftBody@physx@@UEAAPEAVPxShape@2@XZ 000000018000b090 f i NpSoftBody.obj
 0001:0000a0a0       ?getPxSceneDescContactPairSlabSize@@YAIPEBVPxSceneDesc@physx@@@Z 000000018000b0a0 f i PxAutoGeneratedMetaDataObjects.obj
 0001:0000a0b0       ?getPxSceneDescContactReportStreamBufferSize@@YAIPEBVPxSceneDesc@physx@@@Z 000000018000b0b0 f i PxAutoGeneratedMetaDataObjects.obj
 0001:0000a0c0       ?getName@NpShape@physx@@UEBAPEBDXZ 000000018000b0c0 f i NpShape.obj
 0001:0000a0c0       ?getPositionInvMassBufferD@NpSoftBody@physx@@UEAAPEAV?$PxVec4T@M@2@XZ 000000018000b0c0 f i NpSoftBody.obj
 0001:0000a0c0       ?getPxSceneDescCpuDispatcher@@YAPEAVPxCpuDispatcher@physx@@PEBVPxSceneDesc@2@@Z 000000018000b0c0 f i PxAutoGeneratedMetaDataObjects.obj
 0001:0000a0c0       ?getPxSimulationStatisticsGpuMemHeapSolver@@YA_KPEBVPxSimulationStatistics@physx@@@Z 000000018000b0c0 f i PxAutoGeneratedMetaDataObjects.obj
 0001:0000a0d0       ?getPxSceneDescCudaContextManager@@YAPEAVPxCudaContextManager@physx@@PEBVPxSceneDesc@2@@Z 000000018000b0d0 f i PxAutoGeneratedMetaDataObjects.obj
 0001:0000a0d0       ?getPxSimulationStatisticsGpuMemHeapArticulation@@YA_KPEBVPxSimulationStatistics@physx@@@Z 000000018000b0d0 f i PxAutoGeneratedMetaDataObjects.obj
 0001:0000a0d0       ?getRestPositionBufferD@NpSoftBody@physx@@UEAAPEAV?$PxVec4T@M@2@XZ 000000018000b0d0 f i NpSoftBody.obj
 0001:0000a0e0       ?getArticulation@NpArticulationFixedTendon@physx@@UEBAPEAVPxArticulationReducedCoordinate@2@XZ 000000018000b0e0 f i NpArticulationTendon.obj
 0001:0000a0e0       ?getArticulation@NpArticulationSpatialTendon@physx@@UEBAPEAVPxArticulationReducedCoordinate@2@XZ 000000018000b0e0 f i NpArticulationTendon.obj
 0001:0000a0e0       ?getPxSceneDescFilterCallback@@YAPEAVPxSimulationFilterCallback@physx@@PEBVPxSceneDesc@2@@Z 000000018000b0e0 f i PxAutoGeneratedMetaDataObjects.obj
 0001:0000a0e0       ?getShapeInteractions@PxsNphaseImplementationContext@physx@@UEAAPEAPEAVShapeInteraction@Sc@2@XZ 000000018000b0e0 f i LowLevel_static_64:PxsNphaseImplementationContext.obj
 0001:0000a0f0       ?getPxSceneDescFilterShader@@YAP6A?AV?$PxFlags@W4Enum@PxFilterFlag@physx@@G@physx@@IUPxFilterData@2@I0AEAV?$PxFlags@W4Enum@PxPairFlag@physx@@G@2@PEBXI@ZPEBVPxSceneDesc@2@@Z 000000018000b0f0 f i PxAutoGeneratedMetaDataObjects.obj
 0001:0000a100       ?getPxSceneDescFilterShaderData@@YAPEBXPEBVPxSceneDesc@physx@@@Z 000000018000b100 f i PxAutoGeneratedMetaDataObjects.obj
 0001:0000a100       ?getSoftBodyAuxData@NpSoftBody@physx@@UEAAPEAVPxSoftBodyAuxData@2@XZ 000000018000b100 f i NpSoftBody.obj
 0001:0000a100       ?getSoftBodyAuxData@NpSoftBody@physx@@UEBAPEBVPxSoftBodyAuxData@2@XZ 000000018000b100 f i NpSoftBody.obj
 0001:0000a110       ?getDefaultContactReportStreamBufferSize@NPhaseCore@Sc@physx@@QEBAIXZ 000000018000b110 f i SimulationController_static_64:ScNPhaseCore.obj
 0001:0000a110       ?getNbRigidActors@PruningStructure@Sq@physx@@UEBAIXZ 000000018000b110 f i NpPruningStructure.obj
 0001:0000a110       ?getPxSceneDescFilterShaderDataSize@@YAIPEBVPxSceneDesc@physx@@@Z 000000018000b110 f i PxAutoGeneratedMetaDataObjects.obj
 0001:0000a110       ?getPxSimulationStatisticsCompressedContactSize@@YAIPEBVPxSimulationStatistics@physx@@@Z 000000018000b110 f i PxAutoGeneratedMetaDataObjects.obj
 0001:0000a120       ?getPxSceneDescFlags@@YA?AV?$PxFlags@W4Enum@PxSceneFlag@physx@@I@physx@@PEBVPxSceneDesc@2@@Z 000000018000b120 f i PxAutoGeneratedMetaDataObjects.obj
 0001:0000a130       ?getPxSceneDescFrictionCorrelationDistance@@YAMPEBVPxSceneDesc@physx@@@Z 000000018000b130 f i PxAutoGeneratedMetaDataObjects.obj
 0001:0000a140       ?getMinTorsionalPatchRadius@NpShape@physx@@UEBAMXZ 000000018000b140 f i NpShape.obj
 0001:0000a140       ?getPxSceneDescFrictionOffsetThreshold@@YAMPEBVPxSceneDesc@physx@@@Z 000000018000b140 f i PxAutoGeneratedMetaDataObjects.obj
 0001:0000a150       ?getPxSceneDescFrictionType@@YA?AW4Enum@PxFrictionType@physx@@PEBVPxSceneDesc@3@@Z 000000018000b150 f i PxAutoGeneratedMetaDataObjects.obj
 0001:0000a160       ?getNbChildren@NpArticulationLink@physx@@UEBAIXZ 000000018000b160 f i NpArticulationLink.obj
 0001:0000a160       ?getPxSceneDescGpuComputeVersion@@YAIPEBVPxSceneDesc@physx@@@Z 000000018000b160 f i PxAutoGeneratedMetaDataObjects.obj
 0001:0000a170       ?getPxSceneDescGpuDynamicsConfig@@YA?AUPxgDynamicsMemoryConfig@physx@@PEBVPxSceneDesc@2@@Z 000000018000b170 f i PxAutoGeneratedMetaDataObjects.obj
 0001:0000a1a0       ?getPxSceneDescGpuMaxNumPartitions@@YAIPEBVPxSceneDesc@physx@@@Z 000000018000b1a0 f i PxAutoGeneratedMetaDataObjects.obj
 0001:0000a1b0       ?getPxSceneDescGpuMaxNumStaticPartitions@@YAIPEBVPxSceneDesc@physx@@@Z 000000018000b1b0 f i PxAutoGeneratedMetaDataObjects.obj
 0001:0000a1c0       ?getPxSceneDescGravity@@YA?AV?$PxVec3T@M@physx@@PEBVPxSceneDesc@2@@Z 000000018000b1c0 f i PxAutoGeneratedMetaDataObjects.obj
 0001:0000a1e0       ?getPxSceneDescKineKineFilteringMode@@YA?AW4Enum@PxPairFilteringMode@physx@@PEBVPxSceneDesc@3@@Z 000000018000b1e0 f i PxAutoGeneratedMetaDataObjects.obj
 0001:0000a1e0       ?getPxSimulationStatisticsNbNewPairs@@YAIPEBVPxSimulationStatistics@physx@@@Z 000000018000b1e0 f i PxAutoGeneratedMetaDataObjects.obj
 0001:0000a1f0       ?getPxSceneDescLimits@@YA?AVPxSceneLimits@physx@@PEBVPxSceneDesc@2@@Z 000000018000b1f0 f i PxAutoGeneratedMetaDataObjects.obj
 0001:0000a210       ?getFluidRestOffset@ParticleSystemCore@Sc@physx@@QEBAMXZ 000000018000b210 f i SimulationController_static_64:ScParticleSystemCore.obj
 0001:0000a210       ?getMaxContactImpulse@?$NpRigidBodyTemplate@VPxArticulationLink@physx@@@physx@@UEBAMXZ 000000018000b210 f i NpArticulationLink.obj
 0001:0000a210       ?getMaxContactImpulse@?$NpRigidBodyTemplate@VPxRigidDynamic@physx@@@physx@@UEBAMXZ 000000018000b210 f i NpRigidDynamic.obj
 0001:0000a210       ?getPxSceneDescMaxBiasCoefficient@@YAMPEBVPxSceneDesc@physx@@@Z 000000018000b210 f i PxAutoGeneratedMetaDataObjects.obj
 0001:0000a220       ?getPxSceneDescMaxNbContactDataBlocks@@YAIPEBVPxSceneDesc@physx@@@Z 000000018000b220 f i PxAutoGeneratedMetaDataObjects.obj
 0001:0000a230       ?getPxSceneDescNbContactDataBlocks@@YAIPEBVPxSceneDesc@physx@@@Z 000000018000b230 f i PxAutoGeneratedMetaDataObjects.obj
 0001:0000a240       ?getPxSceneDescSanityBounds@@YA?AVPxBounds3@physx@@PEBVPxSceneDesc@2@@Z 000000018000b240 f i PxAutoGeneratedMetaDataObjects.obj
 0001:0000a280       ?getName@?$DelegateTask@VAABBManager@Bp@physx@@$H?postBpStage3@123@AEAAXPEAVPxBaseTask@3@@ZA@@Cm@physx@@UEBAPEBDXZ 000000018000b280 f i LowLevelAABB_static_64:BpAABBManager.obj
 0001:0000a280       ?getName@?$DelegateTask@VNPhaseCore@Sc@physx@@$1?mergeProcessedTriggerInteractions@123@QEAAXPEAVPxBaseTask@3@@Z@Cm@physx@@UEBAPEBDXZ 000000018000b280 f i SimulationController_static_64:ScNPhaseCore.obj
 0001:0000a280       ?getName@?$DelegateTask@VNpScene@physx@@$H?executeAdvance@12@QEAAXPEAVPxBaseTask@2@@ZA@@Cm@physx@@UEBAPEBDXZ 000000018000b280 f i NpScene.obj
 0001:0000a280       ?getName@?$DelegateTask@VNpScene@physx@@$H?executeCollide@12@QEAAXPEAVPxBaseTask@2@@ZA@@Cm@physx@@UEBAPEBDXZ 000000018000b280 f i NpScene.obj
 0001:0000a280       ?getName@?$DelegateTask@VNpScene@physx@@$H?executeScene@12@QEAAXPEAVPxBaseTask@2@@ZA@@Cm@physx@@UEBAPEBDXZ 000000018000b280 f i NpScene.obj
 0001:0000a280       ?getName@?$DelegateTask@VNpScene@physx@@$H?sceneQueriesDynamicPrunerUpdate@12@AEAAXPEAVPxBaseTask@2@@ZA@@Cm@physx@@UEBAPEBDXZ 000000018000b280 f i NpScene.obj
 0001:0000a280       ?getName@?$DelegateTask@VNpScene@physx@@$H?sceneQueriesStaticPrunerUpdate@12@AEAAXPEAVPxBaseTask@2@@ZA@@Cm@physx@@UEBAPEBDXZ 000000018000b280 f i NpScene.obj
 0001:0000a280       ?getName@?$DelegateTask@VPxsCCDContext@physx@@$1?postCCDAdvance@12@AEAAXPEAVPxBaseTask@2@@Z@Cm@physx@@UEBAPEBDXZ 000000018000b280 f i LowLevel_static_64:PxsCCD.obj
 0001:0000a280       ?getName@?$DelegateTask@VPxsCCDContext@physx@@$1?postCCDDepenetrate@12@AEAAXPEAVPxBaseTask@2@@Z@Cm@physx@@UEBAPEBDXZ 000000018000b280 f i LowLevel_static_64:PxsCCD.obj
 0001:0000a280       ?getName@?$DelegateTask@VPxsCCDContext@physx@@$1?postCCDSweep@12@AEAAXPEAVPxBaseTask@2@@Z@Cm@physx@@UEBAPEBDXZ 000000018000b280 f i LowLevel_static_64:PxsCCD.obj
 0001:0000a280       ?getName@?$DelegateTask@VScene@Sc@physx@@$1?advanceStep@123@AEAAXPEAVPxBaseTask@3@@Z@Cm@physx@@UEBAPEBDXZ 000000018000b280 f i SimulationController_static_64:ScScene.obj
 0001:0000a280       ?getName@?$DelegateTask@VScene@Sc@physx@@$1?afterIntegration@123@AEAAXPEAVPxBaseTask@3@@Z@Cm@physx@@UEBAPEBDXZ 000000018000b280 f i SimulationController_static_64:ScScene.obj
 0001:0000a280       ?getName@?$DelegateTask@VScene@Sc@physx@@$1?broadPhase@123@AEAAXPEAVPxBaseTask@3@@Z@Cm@physx@@UEBAPEBDXZ 000000018000b280 f i SimulationController_static_64:ScScene.obj
 0001:0000a280       ?getName@?$DelegateTask@VScene@Sc@physx@@$1?broadPhaseFirstPass@123@AEAAXPEAVPxBaseTask@3@@Z@Cm@physx@@UEBAPEBDXZ 000000018000b280 f i SimulationController_static_64:ScScene.obj
 0001:0000a280       ?getName@?$DelegateTask@VScene@Sc@physx@@$1?broadPhaseSecondPass@123@AEAAXPEAVPxBaseTask@3@@Z@Cm@physx@@UEBAPEBDXZ 000000018000b280 f i SimulationController_static_64:ScScene.obj
 0001:0000a280       ?getName@?$DelegateTask@VScene@Sc@physx@@$1?ccdBroadPhase@123@AEAAXPEAVPxBaseTask@3@@Z@Cm@physx@@UEBAPEBDXZ 000000018000b280 f i SimulationController_static_64:ScCCD.obj
 0001:0000a280       ?getName@?$DelegateTask@VScene@Sc@physx@@$1?ccdBroadPhaseAABB@123@AEAAXPEAVPxBaseTask@3@@Z@Cm@physx@@UEBAPEBDXZ 000000018000b280 f i SimulationController_static_64:ScCCD.obj
 0001:0000a280       ?getName@?$DelegateTask@VScene@Sc@physx@@$1?collideStep@123@AEAAXPEAVPxBaseTask@3@@Z@Cm@physx@@UEBAPEBDXZ 000000018000b280 f i SimulationController_static_64:ScScene.obj
 0001:0000a280       ?getName@?$DelegateTask@VScene@Sc@physx@@$1?destroyManagers@123@AEAAXPEAVPxBaseTask@3@@Z@Cm@physx@@UEBAPEBDXZ 000000018000b280 f i SimulationController_static_64:ScScene.obj
 0001:0000a280       ?getName@?$DelegateTask@VScene@Sc@physx@@$1?islandGen@123@AEAAXPEAVPxBaseTask@3@@Z@Cm@physx@@UEBAPEBDXZ 000000018000b280 f i SimulationController_static_64:ScScene.obj
 0001:0000a280       ?getName@?$DelegateTask@VScene@Sc@physx@@$1?islandInsertion@123@QEAAXPEAVPxBaseTask@3@@Z@Cm@physx@@UEBAPEBDXZ 000000018000b280 f i SimulationController_static_64:ScScene.obj
 0001:0000a280       ?getName@?$DelegateTask@VScene@Sc@physx@@$1?lostTouchReports@123@AEAAXPEAVPxBaseTask@3@@Z@Cm@physx@@UEBAPEBDXZ 000000018000b280 f i SimulationController_static_64:ScScene.obj
 0001:0000a280       ?getName@?$DelegateTask@VScene@Sc@physx@@$1?postBroadPhase@123@AEAAXPEAVPxBaseTask@3@@Z@Cm@physx@@UEBAPEBDXZ 000000018000b280 f i SimulationController_static_64:ScScene.obj
 0001:0000a280       ?getName@?$DelegateTask@VScene@Sc@physx@@$1?postBroadPhaseContinuation@123@AEAAXPEAVPxBaseTask@3@@Z@Cm@physx@@UEBAPEBDXZ 000000018000b280 f i SimulationController_static_64:ScScene.obj
 0001:0000a280       ?getName@?$DelegateTask@VScene@Sc@physx@@$1?postBroadPhaseStage2@123@AEAAXPEAVPxBaseTask@3@@Z@Cm@physx@@UEBAPEBDXZ 000000018000b280 f i SimulationController_static_64:ScScene.obj
 0001:0000a280       ?getName@?$DelegateTask@VScene@Sc@physx@@$1?postCCDPass@123@AEAAXPEAVPxBaseTask@3@@Z@Cm@physx@@UEBAPEBDXZ 000000018000b280 f i SimulationController_static_64:ScCCD.obj
 0001:0000a280       ?getName@?$DelegateTask@VScene@Sc@physx@@$1?postIslandGen@123@AEAAXPEAVPxBaseTask@3@@Z@Cm@physx@@UEBAPEBDXZ 000000018000b280 f i SimulationController_static_64:ScScene.obj
 0001:0000a280       ?getName@?$DelegateTask@VScene@Sc@physx@@$1?postSolver@123@AEAAXPEAVPxBaseTask@3@@Z@Cm@physx@@UEBAPEBDXZ 000000018000b280 f i SimulationController_static_64:ScScene.obj
 0001:0000a280       ?getName@?$DelegateTask@VScene@Sc@physx@@$1?postThirdPassIslandGen@123@AEAAXPEAVPxBaseTask@3@@Z@Cm@physx@@UEBAPEBDXZ 000000018000b280 f i SimulationController_static_64:ScScene.obj
 0001:0000a280       ?getName@?$DelegateTask@VScene@Sc@physx@@$1?preIntegrate@123@AEAAXPEAVPxBaseTask@3@@Z@Cm@physx@@UEBAPEBDXZ 000000018000b280 f i SimulationController_static_64:ScScene.obj
 0001:0000a280       ?getName@?$DelegateTask@VScene@Sc@physx@@$1?preRigidBodyNarrowPhase@123@AEAAXPEAVPxBaseTask@3@@Z@Cm@physx@@UEBAPEBDXZ 000000018000b280 f i SimulationController_static_64:ScScene.obj
 0001:0000a280       ?getName@?$DelegateTask@VScene@Sc@physx@@$1?preallocateContactManagers@123@QEAAXPEAVPxBaseTask@3@@Z@Cm@physx@@UEBAPEBDXZ 000000018000b280 f i SimulationController_static_64:ScScene.obj
 0001:0000a280       ?getName@?$DelegateTask@VScene@Sc@physx@@$1?processFoundSolverPatches@123@AEAAXPEAVPxBaseTask@3@@Z@Cm@physx@@UEBAPEBDXZ 000000018000b280 f i SimulationController_static_64:ScScene.obj
 0001:0000a280       ?getName@?$DelegateTask@VScene@Sc@physx@@$1?processLostContacts2@123@AEAAXPEAVPxBaseTask@3@@Z@Cm@physx@@UEBAPEBDXZ 000000018000b280 f i SimulationController_static_64:ScScene.obj
 0001:0000a280       ?getName@?$DelegateTask@VScene@Sc@physx@@$1?processLostContacts3@123@AEAAXPEAVPxBaseTask@3@@Z@Cm@physx@@UEBAPEBDXZ 000000018000b280 f i SimulationController_static_64:ScScene.obj
 0001:0000a280       ?getName@?$DelegateTask@VScene@Sc@physx@@$1?processLostContacts@123@AEAAXPEAVPxBaseTask@3@@Z@Cm@physx@@UEBAPEBDXZ 000000018000b280 f i SimulationController_static_64:ScScene.obj
 0001:0000a280       ?getName@?$DelegateTask@VScene@Sc@physx@@$1?processLostSolverPatches@123@AEAAXPEAVPxBaseTask@3@@Z@Cm@physx@@UEBAPEBDXZ 000000018000b280 f i SimulationController_static_64:ScScene.obj
 0001:0000a280       ?getName@?$DelegateTask@VScene@Sc@physx@@$1?processNarrowPhaseLostTouchEvents@123@AEAAXPEAVPxBaseTask@3@@Z@Cm@physx@@UEBAPEBDXZ 000000018000b280 f i SimulationController_static_64:ScScene.obj
 0001:0000a280       ?getName@?$DelegateTask@VScene@Sc@physx@@$1?processNarrowPhaseLostTouchEventsIslands@123@AEAAXPEAVPxBaseTask@3@@Z@Cm@physx@@UEBAPEBDXZ 000000018000b280 f i SimulationController_static_64:ScScene.obj
 0001:0000a280       ?getName@?$DelegateTask@VScene@Sc@physx@@$1?registerContactManagers@123@QEAAXPEAVPxBaseTask@3@@Z@Cm@physx@@UEBAPEBDXZ 000000018000b280 f i SimulationController_static_64:ScScene.obj
 0001:0000a280       ?getName@?$DelegateTask@VScene@Sc@physx@@$1?registerInteractions@123@QEAAXPEAVPxBaseTask@3@@Z@Cm@physx@@UEBAPEBDXZ 000000018000b280 f i SimulationController_static_64:ScScene.obj
 0001:0000a280       ?getName@?$DelegateTask@VScene@Sc@physx@@$1?registerSceneInteractions@123@QEAAXPEAVPxBaseTask@3@@Z@Cm@physx@@UEBAPEBDXZ 000000018000b280 f i SimulationController_static_64:ScScene.obj
 0001:0000a280       ?getName@?$DelegateTask@VScene@Sc@physx@@$1?rigidBodyNarrowPhase@123@AEAAXPEAVPxBaseTask@3@@Z@Cm@physx@@UEBAPEBDXZ 000000018000b280 f i SimulationController_static_64:ScScene.obj
 0001:0000a280       ?getName@?$DelegateTask@VScene@Sc@physx@@$1?secondPassNarrowPhase@123@QEAAXPEAVPxBaseTask@3@@Z@Cm@physx@@UEBAPEBDXZ 000000018000b280 f i SimulationController_static_64:ScScene.obj
 0001:0000a280       ?getName@?$DelegateTask@VScene@Sc@physx@@$1?setEdgesConnected@123@AEAAXPEAVPxBaseTask@3@@Z@Cm@physx@@UEBAPEBDXZ 000000018000b280 f i SimulationController_static_64:ScScene.obj
 0001:0000a280       ?getName@?$DelegateTask@VScene@Sc@physx@@$1?solver@123@AEAAXPEAVPxBaseTask@3@@Z@Cm@physx@@UEBAPEBDXZ 000000018000b280 f i SimulationController_static_64:ScScene.obj
 0001:0000a280       ?getName@?$DelegateTask@VScene@Sc@physx@@$1?unblockNarrowPhase@123@AEAAXPEAVPxBaseTask@3@@Z@Cm@physx@@UEBAPEBDXZ 000000018000b280 f i SimulationController_static_64:ScScene.obj
 0001:0000a280       ?getName@?$DelegateTask@VScene@Sc@physx@@$1?unregisterInteractions@123@AEAAXPEAVPxBaseTask@3@@Z@Cm@physx@@UEBAPEBDXZ 000000018000b280 f i SimulationController_static_64:ScScene.obj
 0001:0000a280       ?getName@?$DelegateTask@VScene@Sc@physx@@$1?updateBodies@123@AEAAXPEAVPxBaseTask@3@@Z@Cm@physx@@UEBAPEBDXZ 000000018000b280 f i SimulationController_static_64:ScScene.obj
 0001:0000a280       ?getName@?$DelegateTask@VScene@Sc@physx@@$1?updateBroadPhase@123@AEAAXPEAVPxBaseTask@3@@Z@Cm@physx@@UEBAPEBDXZ 000000018000b280 f i SimulationController_static_64:ScScene.obj
 0001:0000a280       ?getName@?$DelegateTask@VScene@Sc@physx@@$1?updateCCDMultiPass@123@AEAAXPEAVPxBaseTask@3@@Z@Cm@physx@@UEBAPEBDXZ 000000018000b280 f i SimulationController_static_64:ScScene.obj
 0001:0000a280       ?getName@?$DelegateTask@VScene@Sc@physx@@$1?updateCCDSinglePass@123@AEAAXPEAVPxBaseTask@3@@Z@Cm@physx@@UEBAPEBDXZ 000000018000b280 f i SimulationController_static_64:ScCCD.obj
 0001:0000a280       ?getName@?$DelegateTask@VScene@Sc@physx@@$1?updateCCDSinglePassStage2@123@AEAAXPEAVPxBaseTask@3@@Z@Cm@physx@@UEBAPEBDXZ 000000018000b280 f i SimulationController_static_64:ScCCD.obj
 0001:0000a280       ?getName@?$DelegateTask@VScene@Sc@physx@@$1?updateCCDSinglePassStage3@123@AEAAXPEAVPxBaseTask@3@@Z@Cm@physx@@UEBAPEBDXZ 000000018000b280 f i SimulationController_static_64:ScCCD.obj
 0001:0000a280       ?getName@?$DelegateTask@VScene@Sc@physx@@$1?updateDynamics@123@AEAAXPEAVPxBaseTask@3@@Z@Cm@physx@@UEBAPEBDXZ 000000018000b280 f i SimulationController_static_64:ScScene.obj
 0001:0000a280       ?getName@?$DelegateTask@VScene@Sc@physx@@$1?updateShapes@123@AEAAXPEAVPxBaseTask@3@@Z@Cm@physx@@UEBAPEBDXZ 000000018000b280 f i SimulationController_static_64:ScScene.obj
 0001:0000a280       ?getName@?$DelegateTask@VScene@Sc@physx@@$1?updateSimulationController@123@AEAAXPEAVPxBaseTask@3@@Z@Cm@physx@@UEBAPEBDXZ 000000018000b280 f i SimulationController_static_64:ScScene.obj
 0001:0000a280       ?getParent@NpArticulationAttachment@physx@@UEBAPEAVPxArticulationAttachment@2@XZ 000000018000b280 f i NpArticulationTendon.obj
 0001:0000a280       ?getParent@NpArticulationTendonJoint@physx@@UEBAPEAVPxArticulationTendonJoint@2@XZ 000000018000b280 f i NpArticulationTendon.obj
 0001:0000a280       ?getPxSceneDescSimulationEventCallback@@YAPEAVPxSimulationEventCallback@physx@@PEBVPxSceneDesc@2@@Z 000000018000b280 f i PxAutoGeneratedMetaDataObjects.obj
 0001:0000a290       ?getPxSceneDescSolverArticulationBatchSize@@YAIPEBVPxSceneDesc@physx@@@Z 000000018000b290 f i PxAutoGeneratedMetaDataObjects.obj
 0001:0000a2a0       ?getNbFixedTendons@NpArticulationReducedCoordinate@physx@@UEAAIXZ 000000018000b2a0 f i NpArticulationReducedCoordinate.obj
 0001:0000a2a0       ?getPxSceneDescSolverBatchSize@@YAIPEBVPxSceneDesc@physx@@@Z 000000018000b2a0 f i PxAutoGeneratedMetaDataObjects.obj
 0001:0000a2b0       ?getPxSceneDescSolverType@@YA?AW4Enum@PxSolverType@physx@@PEBVPxSceneDesc@3@@Z 000000018000b2b0 f i PxAutoGeneratedMetaDataObjects.obj
 0001:0000a2c0       ?getPxSceneDescStaticKineFilteringMode@@YA?AW4Enum@PxPairFilteringMode@physx@@PEBVPxSceneDesc@3@@Z 000000018000b2c0 f i PxAutoGeneratedMetaDataObjects.obj
 0001:0000a2c0       ?getPxSimulationStatisticsNbLostPairs@@YAIPEBVPxSimulationStatistics@physx@@@Z 000000018000b2c0 f i PxAutoGeneratedMetaDataObjects.obj
 0001:0000a2d0       ?getPxSceneDescUserData@@YAPEAXPEBVPxSceneDesc@physx@@@Z 000000018000b2d0 f i PxAutoGeneratedMetaDataObjects.obj
 0001:0000a2d0       ?getPxSimulationStatisticsGpuMemHeapSimulation@@YA_KPEBVPxSimulationStatistics@physx@@@Z 000000018000b2d0 f i PxAutoGeneratedMetaDataObjects.obj
 0001:0000a2d0       ?getSimPositionInvMassBufferD@NpSoftBody@physx@@UEAAPEAV?$PxVec4T@M@2@XZ 000000018000b2d0 f i NpSoftBody.obj
 0001:0000a2e0       ?getPxSceneDescWakeCounterResetValue@@YAMPEBVPxSceneDesc@physx@@@Z 000000018000b2e0 f i PxAutoGeneratedMetaDataObjects.obj
 0001:0000a2f0       ?getNbPoints@RenderBuffer@Cm@physx@@UEBAIXZ 000000018000b2f0 f i NpScene.obj
 0001:0000a2f0       ?getPxSceneLimitsMaxNbAggregates@@YAIPEBVPxSceneLimits@physx@@@Z 000000018000b2f0 f i PxAutoGeneratedMetaDataObjects.obj
 0001:0000a2f0       ?getPxSceneQueryDescStaticBVHBuildStrategy@@YA?AW4Enum@PxBVHBuildStrategy@physx@@PEBVPxSceneQueryDesc@3@@Z 000000018000b2f0 f i PxAutoGeneratedMetaDataObjects.obj
 0001:0000a2f0       ?getPxSimulationStatisticsNbDynamicBodies@@YAIPEBVPxSimulationStatistics@physx@@@Z 000000018000b2f0 f i PxAutoGeneratedMetaDataObjects.obj
 0001:0000a2f0       ?getPxgDynamicsMemoryConfigFoundLostPairsCapacity@@YAIPEBUPxgDynamicsMemoryConfig@physx@@@Z 000000018000b2f0 f i PxAutoGeneratedMetaDataObjects.obj
 0001:0000a2f0       ?length@pcharNode@@UEBAHXZ 000000018000b2f0 f i libvcruntime:undname.obj
 0001:0000a2f0       ?raw_length@pcharNode@@UEBAHXZ 000000018000b2f0 f i libvcruntime:undname.obj
 0001:0000a300       ?getPxSceneLimitsMaxNbBroadPhaseOverlaps@@YAIPEBVPxSceneLimits@physx@@@Z 000000018000b300 f i PxAutoGeneratedMetaDataObjects.obj
 0001:0000a300       ?getPxSceneQueryDescDynamicNbObjectsPerNode@@YAIPEBVPxSceneQueryDesc@physx@@@Z 000000018000b300 f i PxAutoGeneratedMetaDataObjects.obj
 0001:0000a300       ?getPxgDynamicsMemoryConfigMaxSoftBodyContacts@@YAIPEBUPxgDynamicsMemoryConfig@physx@@@Z 000000018000b300 f i PxAutoGeneratedMetaDataObjects.obj
 0001:0000a310       ?getPxSceneLimitsMaxNbConstraints@@YAIPEBVPxSceneLimits@physx@@@Z 000000018000b310 f i PxAutoGeneratedMetaDataObjects.obj
 0001:0000a310       ?getPxSceneQueryDescDynamicBVHBuildStrategy@@YA?AW4Enum@PxBVHBuildStrategy@physx@@PEBVPxSceneQueryDesc@3@@Z 000000018000b310 f i PxAutoGeneratedMetaDataObjects.obj
 0001:0000a310       ?getPxSimulationStatisticsNbKinematicBodies@@YAIPEBVPxSimulationStatistics@physx@@@Z 000000018000b310 f i PxAutoGeneratedMetaDataObjects.obj
 0001:0000a310       ?getPxgDynamicsMemoryConfigFoundLostAggregatePairsCapacity@@YAIPEBUPxgDynamicsMemoryConfig@physx@@@Z 000000018000b310 f i PxAutoGeneratedMetaDataObjects.obj
 0001:0000a320       ?getNbLines@RenderBuffer@Cm@physx@@UEBAIXZ 000000018000b320 f i NpScene.obj
 0001:0000a320       ?getPxSceneQueryDescSceneQueryUpdateMode@@YA?AW4Enum@PxSceneQueryUpdateMode@physx@@PEBVPxSceneQueryDesc@3@@Z 000000018000b320 f i PxAutoGeneratedMetaDataObjects.obj
 0001:0000a320       ?getPxgDynamicsMemoryConfigMaxFemClothContacts@@YAIPEBUPxgDynamicsMemoryConfig@physx@@@Z 000000018000b320 f i PxAutoGeneratedMetaDataObjects.obj
 0001:0000a320       ?getReference@PxLightCpuTask@physx@@UEBAHXZ 000000018000b320 f i NpScene.obj
 0001:0000a320       ?getStaticStructure@NpScene@physx@@UEBA?AW4Enum@PxPruningStructureType@2@XZ 000000018000b320 f i NpSceneQueries.obj
 0001:0000a330       ?getPxSceneQueryDesc_IsValid@@YA_NPEBVPxSceneQueryDesc@physx@@@Z 000000018000b330 f   PxAutoGeneratedMetaDataObjects.obj
 0001:0000a350       ?getPxSceneQuerySystemBase_DynamicTreeRebuildRateHint@@YAIPEBVPxSceneQuerySystemBase@physx@@@Z 000000018000b350 f   PxAutoGeneratedMetaDataObjects.obj
 0001:0000a360       ?getPxScene_Actors@@YAIPEBVPxScene@physx@@V?$PxFlags@W4Enum@PxActorTypeFlag@physx@@G@2@PEAPEAVPxActor@2@I@Z 000000018000b360 f   PxAutoGeneratedMetaDataObjects.obj
 0001:0000a390       ?getPxScene_Aggregates@@YAIPEBVPxScene@physx@@PEAPEAVPxAggregate@2@I@Z 000000018000b390 f   PxAutoGeneratedMetaDataObjects.obj
 0001:0000a3a0       ?getPxScene_BounceThresholdVelocity@@YAMPEBVPxScene@physx@@@Z 000000018000b3a0 f   PxAutoGeneratedMetaDataObjects.obj
 0001:0000a3b0       ?getPxScene_BroadPhaseRegions@@YAIPEBVPxScene@physx@@PEAUPxBroadPhaseRegionInfo@2@I@Z 000000018000b3b0 f   PxAutoGeneratedMetaDataObjects.obj
 0001:0000a3c0       ?getPxScene_BroadPhaseType@@YA?AW4Enum@PxBroadPhaseType@physx@@PEBVPxScene@3@@Z 000000018000b3c0 f   PxAutoGeneratedMetaDataObjects.obj
 0001:0000a3d0       ?getPxScene_CCDContactModifyCallback@@YAPEAVPxCCDContactModifyCallback@physx@@PEBVPxScene@2@@Z 000000018000b3d0 f   PxAutoGeneratedMetaDataObjects.obj
 0001:0000a3e0       ?getPxScene_CCDMaxPasses@@YAIPEBVPxScene@physx@@@Z 000000018000b3e0 f   PxAutoGeneratedMetaDataObjects.obj
 0001:0000a3f0       ?getPxScene_CCDMaxSeparation@@YAMPEBVPxScene@physx@@@Z 000000018000b3f0 f   PxAutoGeneratedMetaDataObjects.obj
 0001:0000a400       ?getPxScene_CCDThreshold@@YAMPEBVPxScene@physx@@@Z 000000018000b400 f   PxAutoGeneratedMetaDataObjects.obj
 0001:0000a410       ?getPxScene_Constraints@@YAIPEBVPxScene@physx@@PEAPEAVPxConstraint@2@I@Z 000000018000b410 f   PxAutoGeneratedMetaDataObjects.obj
 0001:0000a420       ?getPxScene_ContactModifyCallback@@YAPEAVPxContactModifyCallback@physx@@PEBVPxScene@2@@Z 000000018000b420 f   PxAutoGeneratedMetaDataObjects.obj
 0001:0000a430       ?getPxScene_ContactReportStreamBufferSize@@YAIPEBVPxScene@physx@@@Z 000000018000b430 f   PxAutoGeneratedMetaDataObjects.obj
 0001:0000a440       ?getPxScene_FilterShaderDataSize@@YAIPEBVPxScene@physx@@@Z 000000018000b440 f   PxAutoGeneratedMetaDataObjects.obj
 0001:0000a440       ?setPxRigidDynamic_StabilizationThreshold@@YAXPEAVPxRigidDynamic@physx@@M@Z 000000018000b440 f   PxAutoGeneratedMetaDataObjects.obj
 0001:0000a450       ?getPxScene_FrictionCorrelationDistance@@YAMPEBVPxScene@physx@@@Z 000000018000b450 f   PxAutoGeneratedMetaDataObjects.obj
 0001:0000a460       ?getPxScene_FrictionOffsetThreshold@@YAMPEBVPxScene@physx@@@Z 000000018000b460 f   PxAutoGeneratedMetaDataObjects.obj
 0001:0000a470       ?getPxScene_FrictionType@@YA?AW4Enum@PxFrictionType@physx@@PEBVPxScene@3@@Z 000000018000b470 f   PxAutoGeneratedMetaDataObjects.obj
 0001:0000a480       ?getPxScene_GpuDynamicsConfig@@YA?AUPxgDynamicsMemoryConfig@physx@@PEBVPxScene@2@@Z 000000018000b480 f   PxAutoGeneratedMetaDataObjects.obj
 0001:0000a4b0       ?getPxScene_Gravity@@YA?AV?$PxVec3T@M@physx@@PEBVPxScene@2@@Z 000000018000b4b0 f   PxAutoGeneratedMetaDataObjects.obj
 0001:0000a4e0       ?getPxScene_KinematicKinematicFilteringMode@@YA?AW4Enum@PxPairFilteringMode@physx@@PEBVPxScene@3@@Z 000000018000b4e0 f   PxAutoGeneratedMetaDataObjects.obj
 0001:0000a4f0       ?getPxScene_Limits@@YA?AVPxSceneLimits@physx@@PEBVPxScene@2@@Z 000000018000b4f0 f   PxAutoGeneratedMetaDataObjects.obj
 0001:0000a520       ?getPxScene_MaxBiasCoefficient@@YAMPEBVPxScene@physx@@@Z 000000018000b520 f   PxAutoGeneratedMetaDataObjects.obj
 0001:0000a530       ?getPxScene_MaxNbContactDataBlocksUsed@@YAIPEBVPxScene@physx@@@Z 000000018000b530 f   PxAutoGeneratedMetaDataObjects.obj
 0001:0000a540       ?getPxScene_SoftBodies@@YAIPEBVPxScene@physx@@PEAPEAVPxSoftBody@2@I@Z 000000018000b540 f   PxAutoGeneratedMetaDataObjects.obj
 0001:0000a550       ?getPxScene_SolverArticulationBatchSize@@YAIPEBVPxScene@physx@@@Z 000000018000b550 f   PxAutoGeneratedMetaDataObjects.obj
 0001:0000a560       ?getPxScene_SolverBatchSize@@YAIPEBVPxScene@physx@@@Z 000000018000b560 f   PxAutoGeneratedMetaDataObjects.obj
 0001:0000a570       ?getPxScene_SolverType@@YA?AW4Enum@PxSolverType@physx@@PEBVPxScene@3@@Z 000000018000b570 f   PxAutoGeneratedMetaDataObjects.obj
 0001:0000a580       ?getPxScene_StaticKinematicFilteringMode@@YA?AW4Enum@PxPairFilteringMode@physx@@PEBVPxScene@3@@Z 000000018000b580 f   PxAutoGeneratedMetaDataObjects.obj
 0001:0000a590       ?getPxScene_TaskManager@@YAPEAVPxTaskManager@physx@@PEBVPxScene@2@@Z 000000018000b590 f   PxAutoGeneratedMetaDataObjects.obj
 0001:0000a5a0       ?getPxScene_VisualizationCullingBox@@YA?AVPxBounds3@physx@@PEBVPxScene@2@@Z 000000018000b5a0 f   PxAutoGeneratedMetaDataObjects.obj
 0001:0000a5d0       ?getPxScene_WakeCounterResetValue@@YAMPEBVPxScene@physx@@@Z 000000018000b5d0 f   PxAutoGeneratedMetaDataObjects.obj
 0001:0000a5e0       ?getPxShape_Flags@@YA?AV?$PxFlags@W4Enum@PxShapeFlag@physx@@E@physx@@PEBVPxShape@2@@Z 000000018000b5e0 f   PxAutoGeneratedMetaDataObjects.obj
 0001:0000a610       ?getPxShape_IsExclusive@@YA_NPEBVPxShape@physx@@@Z 000000018000b610 f   PxAutoGeneratedMetaDataObjects.obj
 0001:0000a620       ?getPxShape_MinTorsionalPatchRadius@@YAMPEBVPxShape@physx@@@Z 000000018000b620 f   PxAutoGeneratedMetaDataObjects.obj
 0001:0000a620       ?setPxPBDMaterial_ParticleAdhesionScale@@YAXPEAVPxPBDMaterial@physx@@M@Z 000000018000b620 f   PxAutoGeneratedMetaDataObjects.obj
 0001:0000a630       ?getPxShape_Name@@YAPEBDPEBVPxShape@physx@@@Z 000000018000b630 f   PxAutoGeneratedMetaDataObjects.obj
 0001:0000a630       ?setPxRigidBody_MaxLinearVelocity@@YAXPEAVPxRigidBody@physx@@M@Z 000000018000b630 f   PxAutoGeneratedMetaDataObjects.obj
 0001:0000a640       ?getPxShape_QueryFilterData@@YA?AUPxFilterData@physx@@PEBVPxShape@2@@Z 000000018000b640 f   PxAutoGeneratedMetaDataObjects.obj
 0001:0000a670       ?getPxShape_SimulationFilterData@@YA?AUPxFilterData@physx@@PEBVPxShape@2@@Z 000000018000b670 f   PxAutoGeneratedMetaDataObjects.obj
 0001:0000a6a0       ?getAggregate@NpArticulationReducedCoordinate@physx@@UEBAPEAVPxAggregate@2@XZ 000000018000b6a0 f i NpArticulationReducedCoordinate.obj
 0001:0000a6a0       ?getPxSimulationStatisticsGpuMemFEMCloths@@YA_KPEBVPxSimulationStatistics@physx@@@Z 000000018000b6a0 f i PxAutoGeneratedMetaDataObjects.obj
 0001:0000a6b0       ?getName@NpArticulationReducedCoordinate@physx@@UEBAPEBDXZ 000000018000b6b0 f i NpArticulationReducedCoordinate.obj
 0001:0000a6b0       ?getPxSimulationStatisticsGpuMemHairSystems@@YA_KPEBVPxSimulationStatistics@physx@@@Z 000000018000b6b0 f i PxAutoGeneratedMetaDataObjects.obj
 0001:0000a6c0       ?getPxSimulationStatisticsGpuMemHeap@@YA_KPEBVPxSimulationStatistics@physx@@@Z 000000018000b6c0 f i PxAutoGeneratedMetaDataObjects.obj
 0001:0000a6c0       ?getTorsionalData@PxsNphaseImplementationContext@physx@@UEAAPEAUPxsTorsionalFrictionData@2@XZ 000000018000b6c0 f i LowLevel_static_64:PxsNphaseImplementationContext.obj
 0001:0000a6d0       ?getPxSimulationStatisticsGpuMemHeapBroadPhase@@YA_KPEBVPxSimulationStatistics@physx@@@Z 000000018000b6d0 f i PxAutoGeneratedMetaDataObjects.obj
 0001:0000a6e0       ?getInboundJoint@NpArticulationLink@physx@@UEBAPEAVPxArticulationJointReducedCoordinate@2@XZ 000000018000b6e0 f i NpArticulationLink.obj
 0001:0000a6e0       ?getPxSimulationStatisticsGpuMemHeapFEMCloths@@YA_KPEBVPxSimulationStatistics@physx@@@Z 000000018000b6e0 f i PxAutoGeneratedMetaDataObjects.obj
 0001:0000a6f0       ?getPxSimulationStatisticsGpuMemHeapHairSystems@@YA_KPEBVPxSimulationStatistics@physx@@@Z 000000018000b6f0 f i PxAutoGeneratedMetaDataObjects.obj
 0001:0000a700       ?getPxSimulationStatisticsGpuMemHeapNarrowPhase@@YA_KPEBVPxSimulationStatistics@physx@@@Z 000000018000b700 f i PxAutoGeneratedMetaDataObjects.obj
 0001:0000a710       ?getPxSimulationStatisticsGpuMemHeapOther@@YA_KPEBVPxSimulationStatistics@physx@@@Z 000000018000b710 f i PxAutoGeneratedMetaDataObjects.obj
 0001:0000a720       ?getCudaContextManager@NpSoftBody@physx@@UEBAPEAVPxCudaContextManager@2@XZ 000000018000b720 f i NpSoftBody.obj
 0001:0000a720       ?getFoundation@NpPhysics@physx@@UEAAAEAVPxFoundation@2@XZ 000000018000b720 f i NpPhysics.obj
 0001:0000a720       ?getPxSimulationStatisticsGpuMemHeapParticles@@YA_KPEBVPxSimulationStatistics@physx@@@Z 000000018000b720 f i PxAutoGeneratedMetaDataObjects.obj
 0001:0000a730       ?getPxSimulationStatisticsGpuMemHeapSimulationArticulation@@YA_KPEBVPxSimulationStatistics@physx@@@Z 000000018000b730 f i PxAutoGeneratedMetaDataObjects.obj
 0001:0000a730       ?getSimVelocityBufferD@NpSoftBody@physx@@UEAAPEAV?$PxVec4T@M@2@XZ 000000018000b730 f i NpSoftBody.obj
 0001:0000a740       ?getPxSimulationStatisticsGpuMemHeapSimulationFEMCloth@@YA_KPEBVPxSimulationStatistics@physx@@@Z 000000018000b740 f i PxAutoGeneratedMetaDataObjects.obj
 0001:0000a750       ?getPxSimulationStatisticsGpuMemHeapSimulationHairSystem@@YA_KPEBVPxSimulationStatistics@physx@@@Z 000000018000b750 f i PxAutoGeneratedMetaDataObjects.obj
 0001:0000a760       ?getPxSimulationStatisticsGpuMemHeapSimulationParticles@@YA_KPEBVPxSimulationStatistics@physx@@@Z 000000018000b760 f i PxAutoGeneratedMetaDataObjects.obj
 0001:0000a770       ?getPxSimulationStatisticsGpuMemHeapSimulationSoftBody@@YA_KPEBVPxSimulationStatistics@physx@@@Z 000000018000b770 f i PxAutoGeneratedMetaDataObjects.obj
 0001:0000a780       ?getArticulation@NpArticulationLink@physx@@UEBAAEAVPxArticulationReducedCoordinate@2@XZ 000000018000b780 f i NpArticulationLink.obj
 0001:0000a780       ?getPxSimulationStatisticsGpuMemHeapSoftBodies@@YA_KPEBVPxSimulationStatistics@physx@@@Z 000000018000b780 f i PxAutoGeneratedMetaDataObjects.obj
 0001:0000a790       ?getPxSimulationStatisticsGpuMemParticles@@YA_KPEBVPxSimulationStatistics@physx@@@Z 000000018000b790 f i PxAutoGeneratedMetaDataObjects.obj
 0001:0000a790       ?getRestDistances@PxsNphaseImplementationContext@physx@@UEAAPEAMXZ 000000018000b790 f i LowLevel_static_64:PxsNphaseImplementationContext.obj
 0001:0000a7a0       ?getPxSimulationStatisticsGpuMemSoftBodies@@YA_KPEBVPxSimulationStatistics@physx@@@Z 000000018000b7a0 f i PxAutoGeneratedMetaDataObjects.obj
 0001:0000a7b0       ?getPxSimulationStatisticsNbAggregates@@YAIPEBVPxSimulationStatistics@physx@@@Z 000000018000b7b0 f i PxAutoGeneratedMetaDataObjects.obj
 0001:0000a7c0       ?getPxSimulationStatisticsNbArticulations@@YAIPEBVPxSimulationStatistics@physx@@@Z 000000018000b7c0 f i PxAutoGeneratedMetaDataObjects.obj
 0001:0000a7d0       ?getPxSimulationStatisticsNbAxisSolverConstraints@@YAIPEBVPxSimulationStatistics@physx@@@Z 000000018000b7d0 f i PxAutoGeneratedMetaDataObjects.obj
 0001:0000a7e0       ?getPxSimulationStatisticsNbBroadPhaseAdds@@YAIPEBVPxSimulationStatistics@physx@@@Z 000000018000b7e0 f i PxAutoGeneratedMetaDataObjects.obj
 0001:0000a7f0       ?getPxSimulationStatisticsNbBroadPhaseRemoves@@YAIPEBVPxSimulationStatistics@physx@@@Z 000000018000b7f0 f i PxAutoGeneratedMetaDataObjects.obj
 0001:0000a800       ?getPxSimulationStatisticsNbDiscreteContactPairsTotal@@YAIPEBVPxSimulationStatistics@physx@@@Z 000000018000b800 f i PxAutoGeneratedMetaDataObjects.obj
 0001:0000a810       ?getPxSimulationStatisticsNbDiscreteContactPairsWithCacheHits@@YAIPEBVPxSimulationStatistics@physx@@@Z 000000018000b810 f i PxAutoGeneratedMetaDataObjects.obj
 0001:0000a820       ?getPxSimulationStatisticsNbDiscreteContactPairsWithContacts@@YAIPEBVPxSimulationStatistics@physx@@@Z 000000018000b820 f i PxAutoGeneratedMetaDataObjects.obj
 0001:0000a830       ?getPxSimulationStatisticsNbLostTouches@@YAIPEBVPxSimulationStatistics@physx@@@Z 000000018000b830 f i PxAutoGeneratedMetaDataObjects.obj
 0001:0000a840       ?getPxSimulationStatisticsNbPartitions@@YAIPEBVPxSimulationStatistics@physx@@@Z 000000018000b840 f i PxAutoGeneratedMetaDataObjects.obj
 0001:0000a850       ?getNbAttachments@NpArticulationSpatialTendon@physx@@UEBAIXZ 000000018000b850 f i NpArticulationTendon.obj
 0001:0000a850       ?getNbTendonJoints@NpArticulationFixedTendon@physx@@UEBAIXZ 000000018000b850 f i NpArticulationTendon.obj
 0001:0000a850       ?getPxSimulationStatisticsPeakConstraintMemory@@YAIPEBVPxSimulationStatistics@physx@@@Z 000000018000b850 f i PxAutoGeneratedMetaDataObjects.obj
 0001:0000a860       ?getPxSimulationStatisticsRequiredContactConstraintMemory@@YAIPEBVPxSimulationStatistics@physx@@@Z 000000018000b860 f i PxAutoGeneratedMetaDataObjects.obj
 0001:0000a870       ?getPxTolerancesScale_IsValid@@YA_NPEBVPxTolerancesScale@physx@@@Z 000000018000b870 f   PxAutoGeneratedMetaDataObjects.obj
 0001:0000a880       ?getPxTriangleMeshGeometryMeshFlags@@YA?AV?$PxFlags@W4Enum@PxMeshGeometryFlag@physx@@E@physx@@PEBVPxTriangleMeshGeometry@2@@Z 000000018000b880 f i PxAutoGeneratedMetaDataObjects.obj
 0001:0000a890       ?getPxgDynamicsMemoryConfigCollisionStackSize@@YAIPEBUPxgDynamicsMemoryConfig@physx@@@Z 000000018000b890 f i PxAutoGeneratedMetaDataObjects.obj
 0001:0000a8a0       ?getMaxNbActors@NpAggregate@physx@@UEBAIXZ 000000018000b8a0 f i NpAggregate.obj
 0001:0000a8a0       ?getPxgDynamicsMemoryConfigMaxHairContacts@@YAIPEBUPxgDynamicsMemoryConfig@physx@@@Z 000000018000b8a0 f i PxAutoGeneratedMetaDataObjects.obj
 0001:0000a8b0       ?getDynamicStructure@NpScene@physx@@UEBA?AW4Enum@PxPruningStructureType@2@XZ 000000018000b8b0 f i NpSceneQueries.obj
 0001:0000a8b0       ?getPxgDynamicsMemoryConfigMaxParticleContacts@@YAIPEBUPxgDynamicsMemoryConfig@physx@@@Z 000000018000b8b0 f i PxAutoGeneratedMetaDataObjects.obj
 0001:0000a8c0       ?getPxgDynamicsMemoryConfig_IsValid@@YA_NPEBUPxgDynamicsMemoryConfig@physx@@@Z 000000018000b8c0 f   PxAutoGeneratedMetaDataObjects.obj
 0001:0000a8c0       ?isValid@PxgDynamicsMemoryConfig@physx@@QEBA_NXZ 000000018000b8c0 f   PxAutoGeneratedMetaDataObjects.obj
 0001:0000a8e0       ?setCpuDispatcher@PxTaskMgr@physx@@UEAAXAEAVPxCpuDispatcher@2@@Z 000000018000b8e0 f i PhysXTask_static_64:TaskManager.obj
 0001:0000a8e0       ?setPxActorUserData@@YAXPEAVPxActor@physx@@PEAX@Z 000000018000b8e0 f i PxAutoGeneratedMetaDataObjects.obj
 0001:0000a8e0       ?setPxAggregateUserData@@YAXPEAVPxAggregate@physx@@PEAX@Z 000000018000b8e0 f i PxAutoGeneratedMetaDataObjects.obj
 0001:0000a8e0       ?setPxArticulationJointReducedCoordinateUserData@@YAXPEAVPxArticulationJointReducedCoordinate@physx@@PEAX@Z 000000018000b8e0 f i PxAutoGeneratedMetaDataObjects.obj
 0001:0000a8e0       ?setPxArticulationReducedCoordinateUserData@@YAXPEAVPxArticulationReducedCoordinate@physx@@PEAX@Z 000000018000b8e0 f i PxAutoGeneratedMetaDataObjects.obj
 0001:0000a8e0       ?setPxBaseMaterialUserData@@YAXPEAVPxBaseMaterial@physx@@PEAX@Z 000000018000b8e0 f i PxAutoGeneratedMetaDataObjects.obj
 0001:0000a8e0       ?setPxBroadPhaseDescMContextManager@@YAXPEAVPxBroadPhaseDesc@physx@@PEAVPxCudaContextManager@2@@Z 000000018000b8e0 f i PxAutoGeneratedMetaDataObjects.obj
 0001:0000a8e0       ?setPxConstraintUserData@@YAXPEAVPxConstraint@physx@@PEAX@Z 000000018000b8e0 f i PxAutoGeneratedMetaDataObjects.obj
 0001:0000a8e0       ?setPxShapeUserData@@YAXPEAVPxShape@physx@@PEAX@Z 000000018000b8e0 f i PxAutoGeneratedMetaDataObjects.obj
 0001:0000a8f0       ?setPxActor_ActorFlags@@YAXPEAVPxActor@physx@@V?$PxFlags@W4Enum@PxActorFlag@physx@@E@2@@Z 000000018000b8f0 f   PxAutoGeneratedMetaDataObjects.obj
 0001:0000a910       ?setPxArticulationDriveDamping@@YAXPEAUPxArticulationDrive@physx@@M@Z 000000018000b910 f i PxAutoGeneratedMetaDataObjects.obj
 0001:0000a910       ?setPxArticulationLimitHigh@@YAXPEAUPxArticulationLimit@physx@@M@Z 000000018000b910 f i PxAutoGeneratedMetaDataObjects.obj
 0001:0000a910       ?setPxTolerancesScaleSpeed@@YAXPEAVPxTolerancesScale@physx@@M@Z 000000018000b910 f i PxAutoGeneratedMetaDataObjects.obj
 0001:0000a920       ?setPxArticulationDriveDriveType@@YAXPEAUPxArticulationDrive@physx@@W4Enum@PxArticulationDriveType@2@@Z 000000018000b920 f i PxAutoGeneratedMetaDataObjects.obj
 0001:0000a920       ?setPxSceneLimitsMaxNbDynamicShapes@@YAXPEAVPxSceneLimits@physx@@I@Z 000000018000b920 f i PxAutoGeneratedMetaDataObjects.obj
 0001:0000a920       ?setPxSceneQueryDescDynamicTreeSecondaryPruner@@YAXPEAVPxSceneQueryDesc@physx@@W4Enum@PxDynamicTreeSecondaryPruner@2@@Z 000000018000b920 f i PxAutoGeneratedMetaDataObjects.obj
 0001:0000a920       ?setPxSimulationStatisticsNbStaticBodies@@YAXPEAVPxSimulationStatistics@physx@@I@Z 000000018000b920 f i PxAutoGeneratedMetaDataObjects.obj
 0001:0000a920       ?setPxgDynamicsMemoryConfigHeapCapacity@@YAXPEAUPxgDynamicsMemoryConfig@physx@@I@Z 000000018000b920 f i PxAutoGeneratedMetaDataObjects.obj
 0001:0000a930       ?setPxArticulationDriveMaxForce@@YAXPEAUPxArticulationDrive@physx@@M@Z 000000018000b930 f i PxAutoGeneratedMetaDataObjects.obj
 0001:0000a930       ?setPxCapsuleGeometryRadius@@YAXPEAVPxCapsuleGeometry@physx@@M@Z 000000018000b930 f i PxAutoGeneratedMetaDataObjects.obj
 0001:0000a930       ?setPxSphereGeometryRadius@@YAXPEAVPxSphereGeometry@physx@@M@Z 000000018000b930 f i PxAutoGeneratedMetaDataObjects.obj
 0001:0000a940       ?setPxArticulationDriveStiffness@@YAXPEAUPxArticulationDrive@physx@@M@Z 000000018000b940 f i PxAutoGeneratedMetaDataObjects.obj
 0001:0000a940       ?setPxArticulationLimitLow@@YAXPEAUPxArticulationLimit@physx@@M@Z 000000018000b940 f i PxAutoGeneratedMetaDataObjects.obj
 0001:0000a940       ?setPxTolerancesScaleLength@@YAXPEAVPxTolerancesScale@physx@@M@Z 000000018000b940 f i PxAutoGeneratedMetaDataObjects.obj
 0001:0000a950       ?setPxArticulationJointReducedCoordinate_DriveParams@@YAXPEAVPxArticulationJointReducedCoordinate@physx@@W4Enum@PxArticulationAxis@2@UPxArticulationDrive@2@@Z 000000018000b950 f   PxAutoGeneratedMetaDataObjects.obj
 0001:0000a970       ?setPxArticulationJointReducedCoordinate_LimitParams@@YAXPEAVPxArticulationJointReducedCoordinate@physx@@W4Enum@PxArticulationAxis@2@UPxArticulationLimit@2@@Z 000000018000b970 f   PxAutoGeneratedMetaDataObjects.obj
 0001:0000a990       ?setPxArticulationReducedCoordinate_ArticulationFlags@@YAXPEAVPxArticulationReducedCoordinate@physx@@V?$PxFlags@W4Enum@PxArticulationFlag@physx@@E@2@@Z 000000018000b990 f   PxAutoGeneratedMetaDataObjects.obj
 0001:0000a9b0       ?setPxArticulationReducedCoordinate_RootAngularVelocity@@YAXPEAVPxArticulationReducedCoordinate@physx@@AEBV?$PxVec3T@M@2@@Z 000000018000b9b0 f   PxAutoGeneratedMetaDataObjects.obj
 0001:0000a9c0       ?setPxArticulationReducedCoordinate_RootGlobalPose@@YAXPEAVPxArticulationReducedCoordinate@physx@@AEBV?$PxTransformT@M@2@@Z 000000018000b9c0 f   PxAutoGeneratedMetaDataObjects.obj
 0001:0000a9d0       ?setPxArticulationReducedCoordinate_RootLinearVelocity@@YAXPEAVPxArticulationReducedCoordinate@physx@@AEBV?$PxVec3T@M@2@@Z 000000018000b9d0 f   PxAutoGeneratedMetaDataObjects.obj
 0001:0000a9e0       ?setPxBoxGeometryHalfExtents@@YAXPEAVPxBoxGeometry@physx@@V?$PxVec3T@M@2@@Z 000000018000b9e0 f i PxAutoGeneratedMetaDataObjects.obj
 0001:0000aa00       ?setPxBroadPhaseDescMContextID@@YAXPEAVPxBroadPhaseDesc@physx@@_K@Z 000000018000ba00 f i PxAutoGeneratedMetaDataObjects.obj
 0001:0000aa00       ?setPxHeightFieldGeometryHeightField@@YAXPEAVPxHeightFieldGeometry@physx@@PEAVPxHeightField@2@@Z 000000018000ba00 f i PxAutoGeneratedMetaDataObjects.obj
 0001:0000aa00       ?setPxSceneUserData@@YAXPEAVPxScene@physx@@PEAX@Z 000000018000ba00 f i PxAutoGeneratedMetaDataObjects.obj
 0001:0000aa00       ?setPxTetrahedronMeshGeometryTetrahedronMesh@@YAXPEAVPxTetrahedronMeshGeometry@physx@@PEAVPxTetrahedronMesh@2@@Z 000000018000ba00 f i PxAutoGeneratedMetaDataObjects.obj
 0001:0000aa10       ?setPxBroadPhaseDescMDiscardKinematicVsKinematic@@YAXPEAVPxBroadPhaseDesc@physx@@_N@Z 000000018000ba10 f i PxAutoGeneratedMetaDataObjects.obj
 0001:0000aa20       ?setPxBroadPhaseDescMDiscardStaticVsKinematic@@YAXPEAVPxBroadPhaseDesc@physx@@_N@Z 000000018000ba20 f i PxAutoGeneratedMetaDataObjects.obj
 0001:0000aa30       ?setPxBroadPhaseDescMFoundLostPairsCapacity@@YAXPEAVPxBroadPhaseDesc@physx@@I@Z 000000018000ba30 f i PxAutoGeneratedMetaDataObjects.obj
 0001:0000aa30       ?setPxSceneLimitsMaxNbRegions@@YAXPEAVPxSceneLimits@physx@@I@Z 000000018000ba30 f i PxAutoGeneratedMetaDataObjects.obj
 0001:0000aa30       ?setPxSceneQueryDescStaticNbObjectsPerNode@@YAXPEAVPxSceneQueryDesc@physx@@I@Z 000000018000ba30 f i PxAutoGeneratedMetaDataObjects.obj
 0001:0000aa30       ?setPxgDynamicsMemoryConfigTotalAggregatePairsCapacity@@YAXPEAUPxgDynamicsMemoryConfig@physx@@I@Z 000000018000ba30 f i PxAutoGeneratedMetaDataObjects.obj
 0001:0000aa40       ?setPxBroadPhaseDescMType@@YAXPEAVPxBroadPhaseDesc@physx@@W4Enum@PxBroadPhaseType@2@@Z 000000018000ba40 f i PxAutoGeneratedMetaDataObjects.obj
 0001:0000aa40       ?setPxHeightFieldDescNbRows@@YAXPEAVPxHeightFieldDesc@physx@@I@Z 000000018000ba40 f i PxAutoGeneratedMetaDataObjects.obj
 0001:0000aa40       ?setPxSceneLimitsMaxNbActors@@YAXPEAVPxSceneLimits@physx@@I@Z 000000018000ba40 f i PxAutoGeneratedMetaDataObjects.obj
 0001:0000aa40       ?setPxSceneQueryDescStaticStructure@@YAXPEAVPxSceneQueryDesc@physx@@W4Enum@PxPruningStructureType@2@@Z 000000018000ba40 f i PxAutoGeneratedMetaDataObjects.obj
 0001:0000aa40       ?setPxSimulationStatisticsNbActiveConstraints@@YAXPEAVPxSimulationStatistics@physx@@I@Z 000000018000ba40 f i PxAutoGeneratedMetaDataObjects.obj
 0001:0000aa40       ?setPxgDynamicsMemoryConfigTempBufferCapacity@@YAXPEAUPxgDynamicsMemoryConfig@physx@@I@Z 000000018000ba40 f i PxAutoGeneratedMetaDataObjects.obj
 0001:0000aa50       ?setPxCapsuleGeometryHalfHeight@@YAXPEAVPxCapsuleGeometry@physx@@M@Z 000000018000ba50 f i PxAutoGeneratedMetaDataObjects.obj
 0001:0000aa60       ?setPxConstraint_Flags@@YAXPEAVPxConstraint@physx@@V?$PxFlags@W4Enum@PxConstraintFlag@physx@@G@2@@Z 000000018000ba60 f   PxAutoGeneratedMetaDataObjects.obj
 0001:0000aa80       ?setName@?$NpParticleSystem@VPxPBDParticleSystem@physx@@@physx@@UEAAXPEBD@Z 000000018000ba80 f i NpParticleSystem.obj
 0001:0000aa80       ?setName@NpSoftBody@physx@@UEAAXPEBD@Z 000000018000ba80 f i NpSoftBody.obj
 0001:0000aa80       ?setPxConvexMeshGeometryConvexMesh@@YAXPEAVPxConvexMeshGeometry@physx@@PEAVPxConvexMesh@2@@Z 000000018000ba80 f i PxAutoGeneratedMetaDataObjects.obj
 0001:0000aa80       ?setPxTriangleMeshGeometryTriangleMesh@@YAXPEAVPxTriangleMeshGeometry@physx@@PEAVPxTriangleMesh@2@@Z 000000018000ba80 f i PxAutoGeneratedMetaDataObjects.obj
 0001:0000aa90       ?setPxConvexMeshGeometryMeshFlags@@YAXPEAVPxConvexMeshGeometry@physx@@V?$PxFlags@W4Enum@PxConvexMeshGeometryFlag@physx@@E@2@@Z 000000018000ba90 f i PxAutoGeneratedMetaDataObjects.obj
 0001:0000aaa0       ?setPxConvexMeshGeometryScale@@YAXPEAVPxConvexMeshGeometry@physx@@VPxMeshScale@2@@Z 000000018000baa0 f i PxAutoGeneratedMetaDataObjects.obj
 0001:0000aaa0       ?setPxTriangleMeshGeometryScale@@YAXPEAVPxTriangleMeshGeometry@physx@@VPxMeshScale@2@@Z 000000018000baa0 f i PxAutoGeneratedMetaDataObjects.obj
 0001:0000aad0       ?setPxHeightFieldDescConvexEdgeThreshold@@YAXPEAVPxHeightFieldDesc@physx@@M@Z 000000018000bad0 f i PxAutoGeneratedMetaDataObjects.obj
 0001:0000aae0       ?setPxHeightFieldDescFlags@@YAXPEAVPxHeightFieldDesc@physx@@V?$PxFlags@W4Enum@PxHeightFieldFlag@physx@@G@2@@Z 000000018000bae0 f i PxAutoGeneratedMetaDataObjects.obj
 0001:0000aaf0       ?setPxHeightFieldDescFormat@@YAXPEAVPxHeightFieldDesc@physx@@W4Enum@PxHeightFieldFormat@2@@Z 000000018000baf0 f i PxAutoGeneratedMetaDataObjects.obj
 0001:0000aaf0       ?setPxSceneLimitsMaxNbStaticShapes@@YAXPEAVPxSceneLimits@physx@@I@Z 000000018000baf0 f i PxAutoGeneratedMetaDataObjects.obj
 0001:0000aaf0       ?setPxSceneQueryDescDynamicTreeRebuildRateHint@@YAXPEAVPxSceneQueryDesc@physx@@I@Z 000000018000baf0 f i PxAutoGeneratedMetaDataObjects.obj
 0001:0000aaf0       ?setPxSimulationStatisticsNbActiveKinematicBodies@@YAXPEAVPxSimulationStatistics@physx@@I@Z 000000018000baf0 f i PxAutoGeneratedMetaDataObjects.obj
 0001:0000aaf0       ?setPxgDynamicsMemoryConfigMaxRigidPatchCount@@YAXPEAUPxgDynamicsMemoryConfig@physx@@I@Z 000000018000baf0 f i PxAutoGeneratedMetaDataObjects.obj
 0001:0000ab00       ?setPxHeightFieldDescNbColumns@@YAXPEAVPxHeightFieldDesc@physx@@I@Z 000000018000bb00 f i PxAutoGeneratedMetaDataObjects.obj
 0001:0000ab00       ?setPxSceneLimitsMaxNbBodies@@YAXPEAVPxSceneLimits@physx@@I@Z 000000018000bb00 f i PxAutoGeneratedMetaDataObjects.obj
 0001:0000ab00       ?setPxSceneQueryDescDynamicStructure@@YAXPEAVPxSceneQueryDesc@physx@@W4Enum@PxPruningStructureType@2@@Z 000000018000bb00 f i PxAutoGeneratedMetaDataObjects.obj
 0001:0000ab00       ?setPxSimulationStatisticsNbActiveDynamicBodies@@YAXPEAVPxSimulationStatistics@physx@@I@Z 000000018000bb00 f i PxAutoGeneratedMetaDataObjects.obj
 0001:0000ab00       ?setPxgDynamicsMemoryConfigMaxRigidContactCount@@YAXPEAUPxgDynamicsMemoryConfig@physx@@I@Z 000000018000bb00 f i PxAutoGeneratedMetaDataObjects.obj
 0001:0000ab10       ?setPxHeightFieldDescSamples@@YAXPEAVPxHeightFieldDesc@physx@@UPxStridedData@2@@Z 000000018000bb10 f i PxAutoGeneratedMetaDataObjects.obj
 0001:0000ab20       ?setPxHeightFieldGeometryColumnScale@@YAXPEAVPxHeightFieldGeometry@physx@@M@Z 000000018000bb20 f i PxAutoGeneratedMetaDataObjects.obj
 0001:0000ab30       ?setPxHeightFieldGeometryHeightFieldFlags@@YAXPEAVPxHeightFieldGeometry@physx@@V?$PxFlags@W4Enum@PxMeshGeometryFlag@physx@@E@2@@Z 000000018000bb30 f i PxAutoGeneratedMetaDataObjects.obj
 0001:0000ab40       ?setPxHeightFieldGeometryHeightScale@@YAXPEAVPxHeightFieldGeometry@physx@@M@Z 000000018000bb40 f i PxAutoGeneratedMetaDataObjects.obj
 0001:0000ab50       ?setPxHeightFieldGeometryRowScale@@YAXPEAVPxHeightFieldGeometry@physx@@M@Z 000000018000bb50 f i PxAutoGeneratedMetaDataObjects.obj
 0001:0000ab60       ?setPxMaterial_Flags@@YAXPEAVPxMaterial@physx@@V?$PxFlags@W4Enum@PxMaterialFlag@physx@@G@2@@Z 000000018000bb60 f   PxAutoGeneratedMetaDataObjects.obj
 0001:0000ab80       ?setPxMeshScaleRotation@@YAXPEAVPxMeshScale@physx@@V?$PxQuatT@M@2@@Z 000000018000bb80 f i PxAutoGeneratedMetaDataObjects.obj
 0001:0000aba0       ?setPxMeshScaleScale@@YAXPEAVPxMeshScale@physx@@V?$PxVec3T@M@2@@Z 000000018000bba0 f i PxAutoGeneratedMetaDataObjects.obj
 0001:0000abc0       ?setPxRigidActor_GlobalPose@@YAXPEAVPxRigidActor@physx@@AEBV?$PxTransformT@M@2@@Z 000000018000bbc0 f   PxAutoGeneratedMetaDataObjects.obj
 0001:0000abd0       ?setPxRigidBody_AngularDamping@@YAXPEAVPxRigidBody@physx@@M@Z 000000018000bbd0 f   PxAutoGeneratedMetaDataObjects.obj
 0001:0000abe0       ?setPxRigidBody_ContactSlopCoefficient@@YAXPEAVPxRigidBody@physx@@M@Z 000000018000bbe0 f   PxAutoGeneratedMetaDataObjects.obj
 0001:0000abe0       ?setPxScene_ContactModifyCallback@@YAXPEAVPxScene@physx@@PEAVPxContactModifyCallback@2@@Z 000000018000bbe0 f   PxAutoGeneratedMetaDataObjects.obj
 0001:0000abf0       ?setPxRigidBody_MaxAngularVelocity@@YAXPEAVPxRigidBody@physx@@M@Z 000000018000bbf0 f   PxAutoGeneratedMetaDataObjects.obj
 0001:0000ac00       ?setPxRigidBody_MaxContactImpulse@@YAXPEAVPxRigidBody@physx@@M@Z 000000018000bc00 f   PxAutoGeneratedMetaDataObjects.obj
 0001:0000ac00       ?setPxScene_SimulationEventCallback@@YAXPEAVPxScene@physx@@PEAVPxSimulationEventCallback@2@@Z 000000018000bc00 f   PxAutoGeneratedMetaDataObjects.obj
 0001:0000ac10       ?setPxRigidBody_MinCCDAdvanceCoefficient@@YAXPEAVPxRigidBody@physx@@M@Z 000000018000bc10 f   PxAutoGeneratedMetaDataObjects.obj
 0001:0000ac20       ?setPxRigidBody_RigidBodyFlags@@YAXPEAVPxRigidBody@physx@@V?$PxFlags@W4Enum@PxRigidBodyFlag@physx@@G@2@@Z 000000018000bc20 f   PxAutoGeneratedMetaDataObjects.obj
 0001:0000ac40       ?setPxRigidDynamic_AngularVelocity@@YAXPEAVPxRigidDynamic@physx@@AEBV?$PxVec3T@M@2@@Z 000000018000bc40 f   PxAutoGeneratedMetaDataObjects.obj
 0001:0000ac50       ?setPxRigidDynamic_ContactReportThreshold@@YAXPEAVPxRigidDynamic@physx@@M@Z 000000018000bc50 f   PxAutoGeneratedMetaDataObjects.obj
 0001:0000ac60       ?setPxRigidDynamic_LinearVelocity@@YAXPEAVPxRigidDynamic@physx@@AEBV?$PxVec3T@M@2@@Z 000000018000bc60 f   PxAutoGeneratedMetaDataObjects.obj
 0001:0000ac70       ?setPxRigidDynamic_RigidDynamicLockFlags@@YAXPEAVPxRigidDynamic@physx@@V?$PxFlags@W4Enum@PxRigidDynamicLockFlag@physx@@E@2@@Z 000000018000bc70 f   PxAutoGeneratedMetaDataObjects.obj
 0001:0000ac90       ?setPxRigidDynamic_SolverIterationCounts@@YAXPEAVPxRigidDynamic@physx@@II@Z 000000018000bc90 f   PxAutoGeneratedMetaDataObjects.obj
 0001:0000aca0       ?setPxRigidDynamic_WakeCounter@@YAXPEAVPxRigidDynamic@physx@@M@Z 000000018000bca0 f   PxAutoGeneratedMetaDataObjects.obj
 0001:0000acb0       ?setPxSceneDescBounceThresholdVelocity@@YAXPEAVPxSceneDesc@physx@@M@Z 000000018000bcb0 f i PxAutoGeneratedMetaDataObjects.obj
 0001:0000acc0       ?setPxSceneDescBroadPhaseCallback@@YAXPEAVPxSceneDesc@physx@@PEAVPxBroadPhaseCallback@2@@Z 000000018000bcc0 f i PxAutoGeneratedMetaDataObjects.obj
 0001:0000acd0       ?setPxSceneDescBroadPhaseType@@YAXPEAVPxSceneDesc@physx@@W4Enum@PxBroadPhaseType@2@@Z 000000018000bcd0 f i PxAutoGeneratedMetaDataObjects.obj
 0001:0000acd0       ?setPxSimulationStatisticsNbNewTouches@@YAXPEAVPxSimulationStatistics@physx@@I@Z 000000018000bcd0 f i PxAutoGeneratedMetaDataObjects.obj
 0001:0000ace0       ?setPxSceneDescCcdContactModifyCallback@@YAXPEAVPxSceneDesc@physx@@PEAVPxCCDContactModifyCallback@2@@Z 000000018000bce0 f i PxAutoGeneratedMetaDataObjects.obj
 0001:0000acf0       ?setPxSceneDescCcdMaxPasses@@YAXPEAVPxSceneDesc@physx@@I@Z 000000018000bcf0 f i PxAutoGeneratedMetaDataObjects.obj
 0001:0000ad00       ?setMaxVelocity@ParticleSystemCore@Sc@physx@@QEAAXM@Z 000000018000bd00 f i SimulationController_static_64:ScParticleSystemCore.obj
 0001:0000ad00       ?setPxSceneDescCcdMaxSeparation@@YAXPEAVPxSceneDesc@physx@@M@Z 000000018000bd00 f i PxAutoGeneratedMetaDataObjects.obj
 0001:0000ad10       ?setMaxDepenetrationVelocity@ParticleSystemCore@Sc@physx@@QEAAXM@Z 000000018000bd10 f i SimulationController_static_64:ScParticleSystemCore.obj
 0001:0000ad10       ?setPxSceneDescCcdThreshold@@YAXPEAVPxSceneDesc@physx@@M@Z 000000018000bd10 f i PxAutoGeneratedMetaDataObjects.obj
 0001:0000ad20       ?setPxSceneDescContactModifyCallback@@YAXPEAVPxSceneDesc@physx@@PEAVPxContactModifyCallback@2@@Z 000000018000bd20 f i PxAutoGeneratedMetaDataObjects.obj
 0001:0000ad30       ?setPxSceneDescContactPairSlabSize@@YAXPEAVPxSceneDesc@physx@@I@Z 000000018000bd30 f i PxAutoGeneratedMetaDataObjects.obj
 0001:0000ad40       ?setPxSceneDescContactReportStreamBufferSize@@YAXPEAVPxSceneDesc@physx@@I@Z 000000018000bd40 f i PxAutoGeneratedMetaDataObjects.obj
 0001:0000ad50       ?setName@NpShape@physx@@UEAAXPEBD@Z 000000018000bd50 f i NpShape.obj
 0001:0000ad50       ?setPxSceneDescCpuDispatcher@@YAXPEAVPxSceneDesc@physx@@PEAVPxCpuDispatcher@2@@Z 000000018000bd50 f i PxAutoGeneratedMetaDataObjects.obj
 0001:0000ad50       ?setPxSimulationStatisticsGpuMemHeapSolver@@YAXPEAVPxSimulationStatistics@physx@@_K@Z 000000018000bd50 f i PxAutoGeneratedMetaDataObjects.obj
 0001:0000ad60       ?setPxSceneDescCudaContextManager@@YAXPEAVPxSceneDesc@physx@@PEAVPxCudaContextManager@2@@Z 000000018000bd60 f i PxAutoGeneratedMetaDataObjects.obj
 0001:0000ad60       ?setPxSimulationStatisticsGpuMemHeapArticulation@@YAXPEAVPxSimulationStatistics@physx@@_K@Z 000000018000bd60 f i PxAutoGeneratedMetaDataObjects.obj
 0001:0000ad70       ?setPxSceneDescFilterCallback@@YAXPEAVPxSceneDesc@physx@@PEAVPxSimulationFilterCallback@2@@Z 000000018000bd70 f i PxAutoGeneratedMetaDataObjects.obj
 0001:0000ad80       ?setPxSceneDescFilterShader@@YAXPEAVPxSceneDesc@physx@@P6A?AV?$PxFlags@W4Enum@PxFilterFlag@physx@@G@2@IUPxFilterData@2@I1AEAV?$PxFlags@W4Enum@PxPairFlag@physx@@G@2@PEBXI@Z@Z 000000018000bd80 f i PxAutoGeneratedMetaDataObjects.obj
 0001:0000ad90       ?setPxSceneDescFilterShaderData@@YAXPEAVPxSceneDesc@physx@@PEBX@Z 000000018000bd90 f i PxAutoGeneratedMetaDataObjects.obj
 0001:0000ada0       ?setPxSceneDescFilterShaderDataSize@@YAXPEAVPxSceneDesc@physx@@I@Z 000000018000bda0 f i PxAutoGeneratedMetaDataObjects.obj
 0001:0000ada0       ?setPxSimulationStatisticsCompressedContactSize@@YAXPEAVPxSimulationStatistics@physx@@I@Z 000000018000bda0 f i PxAutoGeneratedMetaDataObjects.obj
 0001:0000adb0       ?setPxSceneDescFlags@@YAXPEAVPxSceneDesc@physx@@V?$PxFlags@W4Enum@PxSceneFlag@physx@@I@2@@Z 000000018000bdb0 f i PxAutoGeneratedMetaDataObjects.obj
 0001:0000adc0       ?setPxSceneDescFrictionCorrelationDistance@@YAXPEAVPxSceneDesc@physx@@M@Z 000000018000bdc0 f i PxAutoGeneratedMetaDataObjects.obj
 0001:0000add0       ?setPxSceneDescFrictionOffsetThreshold@@YAXPEAVPxSceneDesc@physx@@M@Z 000000018000bdd0 f i PxAutoGeneratedMetaDataObjects.obj
 0001:0000ade0       ?setPxSceneDescFrictionType@@YAXPEAVPxSceneDesc@physx@@W4Enum@PxFrictionType@2@@Z 000000018000bde0 f i PxAutoGeneratedMetaDataObjects.obj
 0001:0000adf0       ?setPxSceneDescGpuComputeVersion@@YAXPEAVPxSceneDesc@physx@@I@Z 000000018000bdf0 f i PxAutoGeneratedMetaDataObjects.obj
 0001:0000ae00       ?setPxSceneDescGpuDynamicsConfig@@YAXPEAVPxSceneDesc@physx@@UPxgDynamicsMemoryConfig@2@@Z 000000018000be00 f i PxAutoGeneratedMetaDataObjects.obj
 0001:0000ae30       ?setPxSceneDescGpuMaxNumPartitions@@YAXPEAVPxSceneDesc@physx@@I@Z 000000018000be30 f i PxAutoGeneratedMetaDataObjects.obj
 0001:0000ae40       ?setPxSceneDescGpuMaxNumStaticPartitions@@YAXPEAVPxSceneDesc@physx@@I@Z 000000018000be40 f i PxAutoGeneratedMetaDataObjects.obj
 0001:0000ae50       ?setPxSceneDescGravity@@YAXPEAVPxSceneDesc@physx@@V?$PxVec3T@M@2@@Z 000000018000be50 f i PxAutoGeneratedMetaDataObjects.obj
 0001:0000ae70       ?setPxSceneDescKineKineFilteringMode@@YAXPEAVPxSceneDesc@physx@@W4Enum@PxPairFilteringMode@2@@Z 000000018000be70 f i PxAutoGeneratedMetaDataObjects.obj
 0001:0000ae70       ?setPxSimulationStatisticsNbNewPairs@@YAXPEAVPxSimulationStatistics@physx@@I@Z 000000018000be70 f i PxAutoGeneratedMetaDataObjects.obj
 0001:0000ae80       ?setPxSceneDescLimits@@YAXPEAVPxSceneDesc@physx@@VPxSceneLimits@2@@Z 000000018000be80 f i PxAutoGeneratedMetaDataObjects.obj
 0001:0000aea0       ?setFluidRestOffset@ParticleSystemCore@Sc@physx@@QEAAXM@Z 000000018000bea0 f i SimulationController_static_64:ScParticleSystemCore.obj
 0001:0000aea0       ?setPxSceneDescMaxBiasCoefficient@@YAXPEAVPxSceneDesc@physx@@M@Z 000000018000bea0 f i PxAutoGeneratedMetaDataObjects.obj
 0001:0000aeb0       ?setPxSceneDescMaxNbContactDataBlocks@@YAXPEAVPxSceneDesc@physx@@I@Z 000000018000beb0 f i PxAutoGeneratedMetaDataObjects.obj
 0001:0000aec0       ?setPxSceneDescNbContactDataBlocks@@YAXPEAVPxSceneDesc@physx@@I@Z 000000018000bec0 f i PxAutoGeneratedMetaDataObjects.obj
 0001:0000aed0       ?setPxSceneDescSanityBounds@@YAXPEAVPxSceneDesc@physx@@VPxBounds3@2@@Z 000000018000bed0 f i PxAutoGeneratedMetaDataObjects.obj
 0001:0000af10       ?setPxSceneDescSimulationEventCallback@@YAXPEAVPxSceneDesc@physx@@PEAVPxSimulationEventCallback@2@@Z 000000018000bf10 f i PxAutoGeneratedMetaDataObjects.obj
 0001:0000af20       ?setPxSceneDescSolverArticulationBatchSize@@YAXPEAVPxSceneDesc@physx@@I@Z 000000018000bf20 f i PxAutoGeneratedMetaDataObjects.obj
 0001:0000af30       ?setPxSceneDescSolverBatchSize@@YAXPEAVPxSceneDesc@physx@@I@Z 000000018000bf30 f i PxAutoGeneratedMetaDataObjects.obj
 0001:0000af40       ?setPxSceneDescSolverType@@YAXPEAVPxSceneDesc@physx@@W4Enum@PxSolverType@2@@Z 000000018000bf40 f i PxAutoGeneratedMetaDataObjects.obj
 0001:0000af50       ?setPxSceneDescStaticKineFilteringMode@@YAXPEAVPxSceneDesc@physx@@W4Enum@PxPairFilteringMode@2@@Z 000000018000bf50 f i PxAutoGeneratedMetaDataObjects.obj
 0001:0000af50       ?setPxSimulationStatisticsNbLostPairs@@YAXPEAVPxSimulationStatistics@physx@@I@Z 000000018000bf50 f i PxAutoGeneratedMetaDataObjects.obj
 0001:0000af60       ?setPxSceneDescUserData@@YAXPEAVPxSceneDesc@physx@@PEAX@Z 000000018000bf60 f i PxAutoGeneratedMetaDataObjects.obj
 0001:0000af60       ?setPxSimulationStatisticsGpuMemHeapSimulation@@YAXPEAVPxSimulationStatistics@physx@@_K@Z 000000018000bf60 f i PxAutoGeneratedMetaDataObjects.obj
 0001:0000af70       ?setPxSceneDescWakeCounterResetValue@@YAXPEAVPxSceneDesc@physx@@M@Z 000000018000bf70 f i PxAutoGeneratedMetaDataObjects.obj
 0001:0000af80       ?setPxSceneDesc_ToDefault@@YAXPEAVPxSceneDesc@physx@@AEBVPxTolerancesScale@2@@Z 000000018000bf80 f   PxAutoGeneratedMetaDataObjects.obj
 0001:0000b1f0       ?setPxSceneLimitsMaxNbAggregates@@YAXPEAVPxSceneLimits@physx@@I@Z 000000018000c1f0 f i PxAutoGeneratedMetaDataObjects.obj
 0001:0000b1f0       ?setPxSceneQueryDescStaticBVHBuildStrategy@@YAXPEAVPxSceneQueryDesc@physx@@W4Enum@PxBVHBuildStrategy@2@@Z 000000018000c1f0 f i PxAutoGeneratedMetaDataObjects.obj
 0001:0000b1f0       ?setPxSimulationStatisticsNbDynamicBodies@@YAXPEAVPxSimulationStatistics@physx@@I@Z 000000018000c1f0 f i PxAutoGeneratedMetaDataObjects.obj
 0001:0000b1f0       ?setPxgDynamicsMemoryConfigFoundLostPairsCapacity@@YAXPEAUPxgDynamicsMemoryConfig@physx@@I@Z 000000018000c1f0 f i PxAutoGeneratedMetaDataObjects.obj
 0001:0000b200       ?setPxSceneLimitsMaxNbBroadPhaseOverlaps@@YAXPEAVPxSceneLimits@physx@@I@Z 000000018000c200 f i PxAutoGeneratedMetaDataObjects.obj
 0001:0000b200       ?setPxSceneQueryDescDynamicNbObjectsPerNode@@YAXPEAVPxSceneQueryDesc@physx@@I@Z 000000018000c200 f i PxAutoGeneratedMetaDataObjects.obj
 0001:0000b200       ?setPxgDynamicsMemoryConfigMaxSoftBodyContacts@@YAXPEAUPxgDynamicsMemoryConfig@physx@@I@Z 000000018000c200 f i PxAutoGeneratedMetaDataObjects.obj
 0001:0000b210       ?setPxSceneLimitsMaxNbConstraints@@YAXPEAVPxSceneLimits@physx@@I@Z 000000018000c210 f i PxAutoGeneratedMetaDataObjects.obj
 0001:0000b210       ?setPxSceneQueryDescDynamicBVHBuildStrategy@@YAXPEAVPxSceneQueryDesc@physx@@W4Enum@PxBVHBuildStrategy@2@@Z 000000018000c210 f i PxAutoGeneratedMetaDataObjects.obj
 0001:0000b210       ?setPxSimulationStatisticsNbKinematicBodies@@YAXPEAVPxSimulationStatistics@physx@@I@Z 000000018000c210 f i PxAutoGeneratedMetaDataObjects.obj
 0001:0000b210       ?setPxgDynamicsMemoryConfigFoundLostAggregatePairsCapacity@@YAXPEAUPxgDynamicsMemoryConfig@physx@@I@Z 000000018000c210 f i PxAutoGeneratedMetaDataObjects.obj
 0001:0000b220       ?setPxSceneQueryDescSceneQueryUpdateMode@@YAXPEAVPxSceneQueryDesc@physx@@W4Enum@PxSceneQueryUpdateMode@2@@Z 000000018000c220 f i PxAutoGeneratedMetaDataObjects.obj
 0001:0000b220       ?setPxgDynamicsMemoryConfigMaxFemClothContacts@@YAXPEAUPxgDynamicsMemoryConfig@physx@@I@Z 000000018000c220 f i PxAutoGeneratedMetaDataObjects.obj
 0001:0000b230       ?setPxSceneQuerySystemBase_UpdateMode@@YAXPEAVPxSceneQuerySystemBase@physx@@W4Enum@PxSceneQueryUpdateMode@2@@Z 000000018000c230 f   PxAutoGeneratedMetaDataObjects.obj
 0001:0000b230       ?setPxSceneSQSystem_SceneQueryUpdateMode@@YAXPEAVPxSceneSQSystem@physx@@W4Enum@PxSceneQueryUpdateMode@2@@Z 000000018000c230 f   PxAutoGeneratedMetaDataObjects.obj
 0001:0000b240       ?setPxScene_BounceThresholdVelocity@@YAXPEAVPxScene@physx@@M@Z 000000018000c240 f   PxAutoGeneratedMetaDataObjects.obj
 0001:0000b250       ?setPxScene_CCDMaxPasses@@YAXPEAVPxScene@physx@@I@Z 000000018000c250 f   PxAutoGeneratedMetaDataObjects.obj
 0001:0000b260       ?setPxScene_CCDMaxSeparation@@YAXPEAVPxScene@physx@@M@Z 000000018000c260 f   PxAutoGeneratedMetaDataObjects.obj
 0001:0000b270       ?setPxScene_CCDThreshold@@YAXPEAVPxScene@physx@@M@Z 000000018000c270 f   PxAutoGeneratedMetaDataObjects.obj
 0001:0000b280       ?setPxScene_FrictionCorrelationDistance@@YAXPEAVPxScene@physx@@M@Z 000000018000c280 f   PxAutoGeneratedMetaDataObjects.obj
 0001:0000b290       ?setPxScene_FrictionOffsetThreshold@@YAXPEAVPxScene@physx@@M@Z 000000018000c290 f   PxAutoGeneratedMetaDataObjects.obj
 0001:0000b2a0       ?setPxScene_Gravity@@YAXPEAVPxScene@physx@@AEBV?$PxVec3T@M@2@@Z 000000018000c2a0 f   PxAutoGeneratedMetaDataObjects.obj
 0001:0000b2b0       ?setPxScene_MaxBiasCoefficient@@YAXPEAVPxScene@physx@@M@Z 000000018000c2b0 f   PxAutoGeneratedMetaDataObjects.obj
 0001:0000b2c0       ?setPxScene_NbContactDataBlocks@@YAXPEAVPxScene@physx@@I@Z 000000018000c2c0 f   PxAutoGeneratedMetaDataObjects.obj
 0001:0000b2d0       ?setPxScene_SolverArticulationBatchSize@@YAXPEAVPxScene@physx@@I@Z 000000018000c2d0 f   PxAutoGeneratedMetaDataObjects.obj
 0001:0000b2e0       ?setPxScene_SolverBatchSize@@YAXPEAVPxScene@physx@@I@Z 000000018000c2e0 f   PxAutoGeneratedMetaDataObjects.obj
 0001:0000b2f0       ?setPxScene_VisualizationCullingBox@@YAXPEAVPxScene@physx@@AEBVPxBounds3@2@@Z 000000018000c2f0 f   PxAutoGeneratedMetaDataObjects.obj
 0001:0000b300       ?setPxShape_Flags@@YAXPEAVPxShape@physx@@V?$PxFlags@W4Enum@PxShapeFlag@physx@@E@2@@Z 000000018000c300 f   PxAutoGeneratedMetaDataObjects.obj
 0001:0000b320       ?setPxShape_Name@@YAXPEAVPxShape@physx@@PEBD@Z 000000018000c320 f   PxAutoGeneratedMetaDataObjects.obj
 0001:0000b330       ?setAggregate@NpArticulationReducedCoordinate@physx@@QEAAXPEAVPxAggregate@2@@Z 000000018000c330 f i NpArticulationReducedCoordinate.obj
 0001:0000b330       ?setPxSimulationStatisticsGpuMemFEMCloths@@YAXPEAVPxSimulationStatistics@physx@@_K@Z 000000018000c330 f i PxAutoGeneratedMetaDataObjects.obj
 0001:0000b340       ?setName@NpArticulationReducedCoordinate@physx@@UEAAXPEBD@Z 000000018000c340 f i NpArticulationReducedCoordinate.obj
 0001:0000b340       ?setPxSimulationStatisticsGpuMemHairSystems@@YAXPEAVPxSimulationStatistics@physx@@_K@Z 000000018000c340 f i PxAutoGeneratedMetaDataObjects.obj
 0001:0000b350       ?setPxSimulationStatisticsGpuMemHeap@@YAXPEAVPxSimulationStatistics@physx@@_K@Z 000000018000c350 f i PxAutoGeneratedMetaDataObjects.obj
 0001:0000b360       ?setPxSimulationStatisticsGpuMemHeapBroadPhase@@YAXPEAVPxSimulationStatistics@physx@@_K@Z 000000018000c360 f i PxAutoGeneratedMetaDataObjects.obj
 0001:0000b370       ?setPxSimulationStatisticsGpuMemHeapFEMCloths@@YAXPEAVPxSimulationStatistics@physx@@_K@Z 000000018000c370 f i PxAutoGeneratedMetaDataObjects.obj
 0001:0000b380       ?setPxSimulationStatisticsGpuMemHeapHairSystems@@YAXPEAVPxSimulationStatistics@physx@@_K@Z 000000018000c380 f i PxAutoGeneratedMetaDataObjects.obj
 0001:0000b390       ?setPxSimulationStatisticsGpuMemHeapNarrowPhase@@YAXPEAVPxSimulationStatistics@physx@@_K@Z 000000018000c390 f i PxAutoGeneratedMetaDataObjects.obj
 0001:0000b3a0       ?setPxSimulationStatisticsGpuMemHeapOther@@YAXPEAVPxSimulationStatistics@physx@@_K@Z 000000018000c3a0 f i PxAutoGeneratedMetaDataObjects.obj
 0001:0000b3b0       ?setPxSimulationStatisticsGpuMemHeapParticles@@YAXPEAVPxSimulationStatistics@physx@@_K@Z 000000018000c3b0 f i PxAutoGeneratedMetaDataObjects.obj
 0001:0000b3c0       ?setPxSimulationStatisticsGpuMemHeapSimulationArticulation@@YAXPEAVPxSimulationStatistics@physx@@_K@Z 000000018000c3c0 f i PxAutoGeneratedMetaDataObjects.obj
 0001:0000b3d0       ?setPxSimulationStatisticsGpuMemHeapSimulationFEMCloth@@YAXPEAVPxSimulationStatistics@physx@@_K@Z 000000018000c3d0 f i PxAutoGeneratedMetaDataObjects.obj
 0001:0000b3e0       ?setPxSimulationStatisticsGpuMemHeapSimulationHairSystem@@YAXPEAVPxSimulationStatistics@physx@@_K@Z 000000018000c3e0 f i PxAutoGeneratedMetaDataObjects.obj
 0001:0000b3f0       ?setPxSimulationStatisticsGpuMemHeapSimulationParticles@@YAXPEAVPxSimulationStatistics@physx@@_K@Z 000000018000c3f0 f i PxAutoGeneratedMetaDataObjects.obj
 0001:0000b400       ?setPxSimulationStatisticsGpuMemHeapSimulationSoftBody@@YAXPEAVPxSimulationStatistics@physx@@_K@Z 000000018000c400 f i PxAutoGeneratedMetaDataObjects.obj
 0001:0000b410       ?setPxSimulationStatisticsGpuMemHeapSoftBodies@@YAXPEAVPxSimulationStatistics@physx@@_K@Z 000000018000c410 f i PxAutoGeneratedMetaDataObjects.obj
 0001:0000b420       ?setPxSimulationStatisticsGpuMemParticles@@YAXPEAVPxSimulationStatistics@physx@@_K@Z 000000018000c420 f i PxAutoGeneratedMetaDataObjects.obj
 0001:0000b430       ?setPxSimulationStatisticsGpuMemSoftBodies@@YAXPEAVPxSimulationStatistics@physx@@_K@Z 000000018000c430 f i PxAutoGeneratedMetaDataObjects.obj
 0001:0000b440       ?setPxSimulationStatisticsNbAggregates@@YAXPEAVPxSimulationStatistics@physx@@I@Z 000000018000c440 f i PxAutoGeneratedMetaDataObjects.obj
 0001:0000b450       ?setPxSimulationStatisticsNbArticulations@@YAXPEAVPxSimulationStatistics@physx@@I@Z 000000018000c450 f i PxAutoGeneratedMetaDataObjects.obj
 0001:0000b460       ?setPxSimulationStatisticsNbAxisSolverConstraints@@YAXPEAVPxSimulationStatistics@physx@@I@Z 000000018000c460 f i PxAutoGeneratedMetaDataObjects.obj
 0001:0000b470       ?setPxSimulationStatisticsNbBroadPhaseAdds@@YAXPEAVPxSimulationStatistics@physx@@I@Z 000000018000c470 f i PxAutoGeneratedMetaDataObjects.obj
 0001:0000b480       ?setPxSimulationStatisticsNbBroadPhaseRemoves@@YAXPEAVPxSimulationStatistics@physx@@I@Z 000000018000c480 f i PxAutoGeneratedMetaDataObjects.obj
 0001:0000b490       ?setPxSimulationStatisticsNbDiscreteContactPairsTotal@@YAXPEAVPxSimulationStatistics@physx@@I@Z 000000018000c490 f i PxAutoGeneratedMetaDataObjects.obj
 0001:0000b4a0       ?setPxSimulationStatisticsNbDiscreteContactPairsWithCacheHits@@YAXPEAVPxSimulationStatistics@physx@@I@Z 000000018000c4a0 f i PxAutoGeneratedMetaDataObjects.obj
 0001:0000b4b0       ?setPxSimulationStatisticsNbDiscreteContactPairsWithContacts@@YAXPEAVPxSimulationStatistics@physx@@I@Z 000000018000c4b0 f i PxAutoGeneratedMetaDataObjects.obj
 0001:0000b4c0       ?setPxSimulationStatisticsNbLostTouches@@YAXPEAVPxSimulationStatistics@physx@@I@Z 000000018000c4c0 f i PxAutoGeneratedMetaDataObjects.obj
 0001:0000b4d0       ?setPxSimulationStatisticsNbPartitions@@YAXPEAVPxSimulationStatistics@physx@@I@Z 000000018000c4d0 f i PxAutoGeneratedMetaDataObjects.obj
 0001:0000b4e0       ?setPxSimulationStatisticsPeakConstraintMemory@@YAXPEAVPxSimulationStatistics@physx@@I@Z 000000018000c4e0 f i PxAutoGeneratedMetaDataObjects.obj
 0001:0000b4f0       ?setPxSimulationStatisticsRequiredContactConstraintMemory@@YAXPEAVPxSimulationStatistics@physx@@I@Z 000000018000c4f0 f i PxAutoGeneratedMetaDataObjects.obj
 0001:0000b500       ?setPxTriangleMeshGeometryMeshFlags@@YAXPEAVPxTriangleMeshGeometry@physx@@V?$PxFlags@W4Enum@PxMeshGeometryFlag@physx@@E@2@@Z 000000018000c500 f i PxAutoGeneratedMetaDataObjects.obj
 0001:0000b510       ?setPxgDynamicsMemoryConfigCollisionStackSize@@YAXPEAUPxgDynamicsMemoryConfig@physx@@I@Z 000000018000c510 f i PxAutoGeneratedMetaDataObjects.obj
 0001:0000b520       ?setPxgDynamicsMemoryConfigMaxHairContacts@@YAXPEAUPxgDynamicsMemoryConfig@physx@@I@Z 000000018000c520 f i PxAutoGeneratedMetaDataObjects.obj
 0001:0000b530       ?setPxgDynamicsMemoryConfigMaxParticleContacts@@YAXPEAUPxgDynamicsMemoryConfig@physx@@I@Z 000000018000c530 f i PxAutoGeneratedMetaDataObjects.obj
 0001:0000b540       ??0NbCCDPairsProperty@physx@@QEAA@XZ 000000018000c540 f   PxMetaDataObjects.obj
 0001:0000b570       ??0NbDiscreteContactPairsProperty@physx@@QEAA@XZ 000000018000c570 f   PxMetaDataObjects.obj
 0001:0000b5a0       ??0NbModifiedContactPairsProperty@physx@@QEAA@XZ 000000018000c5a0 f   PxMetaDataObjects.obj
 0001:0000b5d0       ??0NbShapesProperty@physx@@QEAA@XZ 000000018000c5d0 f   PxMetaDataObjects.obj
 0001:0000b600       ??0NbTriggerPairsProperty@physx@@QEAA@XZ 000000018000c600 f   PxMetaDataObjects.obj
 0001:0000b630       ??0PxCustomGeometryCustomTypeProperty@physx@@QEAA@XZ 000000018000c630 f   PxMetaDataObjects.obj
 0001:0000b650       ??0SimulationStatisticsProperty@physx@@QEAA@XZ 000000018000c650 f   PxMetaDataObjects.obj
 0001:0000b670       ?GetCustomType@@YAIPEBVPxCustomGeometry@physx@@@Z 000000018000c670 f i PxMetaDataObjects.obj
 0001:0000b690       ?GetNbCCDPairs@@YAIPEBVPxSimulationStatistics@physx@@W4Enum@PxGeometryType@2@1@Z 000000018000c690 f i PxMetaDataObjects.obj
 0001:0000b6b0       ?GetNbDiscreteContactPairs@@YAIPEBVPxSimulationStatistics@physx@@W4Enum@PxGeometryType@2@1@Z 000000018000c6b0 f i PxMetaDataObjects.obj
 0001:0000b6d0       ?GetNbModifiedContactPairs@@YAIPEBVPxSimulationStatistics@physx@@W4Enum@PxGeometryType@2@1@Z 000000018000c6d0 f i PxMetaDataObjects.obj
 0001:0000b6f0       ?GetNbShape@@YAIPEBVPxSimulationStatistics@physx@@W4Enum@PxGeometryType@2@@Z 000000018000c6f0 f i PxMetaDataObjects.obj
 0001:0000b700       ?GetNbTriggerPairs@@YAIPEBVPxSimulationStatistics@physx@@W4Enum@PxGeometryType@2@1@Z 000000018000c700 f i PxMetaDataObjects.obj
 0001:0000b720       ?GetStats@@YA?AVPxSimulationStatistics@physx@@PEBVPxScene@2@@Z 000000018000c720 f i PxMetaDataObjects.obj
 0001:0000b760       ?SetNbCCDPairs@@YAXPEAVPxSimulationStatistics@physx@@W4Enum@PxGeometryType@2@1I@Z 000000018000c760 f i PxMetaDataObjects.obj
 0001:0000b780       ?SetNbDiscreteContactPairs@@YAXPEAVPxSimulationStatistics@physx@@W4Enum@PxGeometryType@2@1I@Z 000000018000c780 f i PxMetaDataObjects.obj
 0001:0000b7a0       ?SetNbModifiedContactPairs@@YAXPEAVPxSimulationStatistics@physx@@W4Enum@PxGeometryType@2@1I@Z 000000018000c7a0 f i PxMetaDataObjects.obj
 0001:0000b7c0       ?SetNbShape@@YAXPEAVPxSimulationStatistics@physx@@W4Enum@PxGeometryType@2@I@Z 000000018000c7c0 f i PxMetaDataObjects.obj
 0001:0000b7d0       ?SetNbTriggerPairs@@YAXPEAVPxSimulationStatistics@physx@@W4Enum@PxGeometryType@2@1I@Z 000000018000c7d0 f i PxMetaDataObjects.obj
 0001:0000b7f0       ?createLink@PxArticulationReducedCoordinateLinkCollectionPropHelper@physx@@QEBAPEAVPxArticulationLink@2@PEAVPxArticulationReducedCoordinate@2@PEAV32@AEBV?$PxTransformT@M@2@@Z 000000018000c7f0 f   PxMetaDataObjects.obj
 0001:0000b810       ?createShape@PxRigidActorShapeCollectionHelper@physx@@QEBAPEAVPxShape@2@PEAVPxRigidActor@2@AEBVPxGeometry@2@AEAVPxMaterial@2@V?$PxFlags@W4Enum@PxShapeFlag@physx@@E@2@@Z 000000018000c810 f   PxMetaDataObjects.obj
 0001:0000b890       ?createShape@PxRigidActorShapeCollectionHelper@physx@@QEBAPEAVPxShape@2@PEAVPxRigidActor@2@AEBVPxGeometry@2@PEBQEAVPxMaterial@2@GV?$PxFlags@W4Enum@PxShapeFlag@physx@@E@2@@Z 000000018000c890 f   PxMetaDataObjects.obj
 0001:0000b920       ?getGeometry@PxShapeGeomPropertyHelper@physx@@QEBA_NPEBVPxShape@2@AEAVPxBoxGeometry@2@@Z 000000018000c920 f   PxMetaDataObjects.obj
 0001:0000b960       ?getGeometry@PxShapeGeomPropertyHelper@physx@@QEBA_NPEBVPxShape@2@AEAVPxCapsuleGeometry@2@@Z 000000018000c960 f   PxMetaDataObjects.obj
 0001:0000b9a0       ?getGeometry@PxShapeGeomPropertyHelper@physx@@QEBA_NPEBVPxShape@2@AEAVPxConvexMeshGeometry@2@@Z 000000018000c9a0 f   PxMetaDataObjects.obj
 0001:0000ba10       ?getGeometry@PxShapeGeomPropertyHelper@physx@@QEBA_NPEBVPxShape@2@AEAVPxHeightFieldGeometry@2@@Z 000000018000ca10 f   PxMetaDataObjects.obj
 0001:0000ba60       ?getGeometry@PxShapeGeomPropertyHelper@physx@@QEBA_NPEBVPxShape@2@AEAVPxParticleSystemGeometry@2@@Z 000000018000ca60 f   PxMetaDataObjects.obj
 0001:0000baa0       ?getGeometry@PxShapeGeomPropertyHelper@physx@@QEBA_NPEBVPxShape@2@AEAVPxPlaneGeometry@2@@Z 000000018000caa0 f   PxMetaDataObjects.obj
 0001:0000bad0       ?getGeometry@PxShapeGeomPropertyHelper@physx@@QEBA_NPEBVPxShape@2@AEAVPxSphereGeometry@2@@Z 000000018000cad0 f   PxMetaDataObjects.obj
 0001:0000bb10       ?getGeometry@PxShapeGeomPropertyHelper@physx@@QEBA_NPEBVPxShape@2@AEAVPxTetrahedronMeshGeometry@2@@Z 000000018000cb10 f   PxMetaDataObjects.obj
 0001:0000bb50       ?getGeometry@PxShapeGeomPropertyHelper@physx@@QEBA_NPEBVPxShape@2@AEAVPxTriangleMeshGeometry@2@@Z 000000018000cb50 f   PxMetaDataObjects.obj
 0001:0000bbc0       ?getGeometryType@PxShapeGeomPropertyHelper@physx@@QEBA?AW4Enum@PxGeometryType@2@PEBVPxShape@2@@Z 000000018000cbc0 f   PxMetaDataObjects.obj
 0001:0000bbe0       ?setMaterials@PxShapeMaterialsPropertyHelper@physx@@QEBAXPEAVPxShape@2@PEBQEAVPxMaterial@2@G@Z 000000018000cbe0 f   PxMetaDataObjects.obj
 0001:0000bc00       ??0NpActor@physx@@QEAA@W4Enum@NpType@1@@Z 000000018000cc00 f   NpActor.obj
 0001:0000bc20       ??4PxFPUGuard@physx@@QEAAAEAV01@AEBV01@@Z 000000018000cc20 f i NpActor.obj
 0001:0000bc40       ??4PxPartitionedParticleCloth@physx@@QEAAAEAU01@AEBU01@@Z 000000018000cc40 f i NpActor.obj
 0001:0000bc70       ?addConnector@NpActor@physx@@QEAAXW4Enum@NpConnectorType@2@PEAVPxBase@2@PEBD@Z 000000018000cc70 f   NpActor.obj
 0001:0000bdc0       ?addConstraintsToSceneInternal@NpActor@physx@@AEAAXXZ 000000018000cdc0 f   NpActor.obj
 0001:0000be60       ?allocate@?$PxArray@VNpConnector@physx@@V?$PxInlineAllocator@$0EA@V?$PxReflectionAllocator@VNpConnector@physx@@@physx@@@2@@physx@@IEAAPEAVNpConnector@2@I@Z 000000018000ce60 f i NpActor.obj
 0001:0000bf10       ?exportExtraData@NpActor@physx@@QEAAXAEAVPxSerializationContext@2@@Z 000000018000cf10 f   NpActor.obj
 0001:0000c110       ?findConnector@NpActor@physx@@QEBAIW4Enum@NpConnectorType@2@PEAVPxBase@2@@Z 000000018000d110 f   NpActor.obj
 0001:0000c160       ?getAggregate@NpActor@physx@@QEBAPEAVPxAggregate@2@XZ 000000018000d160 f   NpActor.obj
 0001:0000c1a0       ?getBodyCore@physx@@YAPEBVBodyCore@Sc@1@PEBVPxRigidActor@1@@Z 000000018000d1a0 f   NpActor.obj
 0001:0000c1c0       ?getNbConnectors@NpActor@physx@@QEBAIW4Enum@NpConnectorType@2@@Z 000000018000d1c0 f   NpActor.obj
 0001:0000c200       ?getNpAggregate@NpActor@physx@@QEBAPEAVNpAggregate@2@AEAI@Z 000000018000d200 f   NpActor.obj
 0001:0000c240       ?getShapeManager_@NpActor@physx@@SAPEAVNpShapeManager@2@AEAVPxRigidActor@2@@Z 000000018000d240 f   NpActor.obj
 0001:0000c260       ?growAndPushBack@?$PxArray@VNpConnector@physx@@V?$PxInlineAllocator@$0EA@V?$PxReflectionAllocator@VNpConnector@physx@@@physx@@@2@@physx@@IEAAAEAVNpConnector@2@AEBV32@@Z 000000018000d260 f i NpActor.obj
 0001:0000c340       ?importExtraData@NpActor@physx@@QEAAXAEAVPxDeserializationContext@2@@Z 000000018000d340 f   NpActor.obj
 0001:0000c3e0       ?onActorRelease@NpActor@physx@@SAXPEAVPxActor@2@@Z 000000018000d3e0 f   NpActor.obj
 0001:0000c3f0       ?recreate@?$PxArray@VNpConnector@physx@@V?$PxInlineAllocator@$0EA@V?$PxReflectionAllocator@VNpConnector@physx@@@physx@@@2@@physx@@IEAAXI@Z 000000018000d3f0 f i NpActor.obj
 0001:0000c490       ?removeConnector@NpActor@physx@@AEAAXAEAVPxActor@2@I@Z 000000018000d490 f   NpActor.obj
 0001:0000c4f0       ?removeConnector@NpActor@physx@@QEAAXAEAVPxActor@2@W4Enum@NpConnectorType@2@PEAVPxBase@2@PEBD@Z 000000018000d4f0 f   NpActor.obj
 0001:0000c5a0       ?removeConstraints@NpActor@physx@@QEAAXAEAVPxRigidActor@2@@Z 000000018000d5a0 f   NpActor.obj
 0001:0000c690       ?removeConstraintsFromScene@NpActor@physx@@QEAAXXZ 000000018000d690 f   NpActor.obj
 0001:0000c700       ?removeFromAggregate@NpActor@physx@@QEAAXAEAVPxActor@2@@Z 000000018000d700 f   NpActor.obj
 0001:0000c720       ?resizeUninitialized@?$PxArray@VNpConnector@physx@@V?$PxInlineAllocator@$0EA@V?$PxReflectionAllocator@VNpConnector@physx@@@physx@@@2@@physx@@QEAAXI@Z 000000018000d720 f i NpActor.obj
 0001:0000c760       ?resolveReferences@NpActor@physx@@QEAAXAEAVPxDeserializationContext@2@@Z 000000018000d760 f   NpActor.obj
 0001:0000c7f0       ?scSetDominanceGroup@NpActor@physx@@QEAAXE@Z 000000018000d7f0 f   NpActor.obj
 0001:0000c810       ?scSetOwnerClient@NpActor@physx@@QEAAXE@Z 000000018000d810 f   NpActor.obj
 0001:0000c840       ?setAggregate@NpActor@physx@@QEAAXPEAVNpAggregate@2@AEAVPxActor@2@@Z 000000018000d840 f   NpActor.obj
 0001:0000ca30       ??0NpAggregate@physx@@QEAA@III@Z 000000018000da30 f   NpAggregate.obj
 0001:0000cae0       ??_ENpAggregate@physx@@UEAAPEAXI@Z 000000018000dae0 f i NpAggregate.obj
 0001:0000cae0       ??_GNpAggregate@physx@@UEAAPEAXI@Z 000000018000dae0 f i NpAggregate.obj
 0001:0000cb90       ??_EPxBase@physx@@MEAAPEAXI@Z 000000018000db90 f i NpAggregate.obj
 0001:0000cb90       ??_GPxBase@physx@@MEAAPEAXI@Z 000000018000db90 f i NpAggregate.obj
 0001:0000cbc0       ?addActor@NpAggregate@physx@@UEAA_NAEAVPxActor@2@PEBVPxBVH@2@@Z 000000018000dbc0 f   NpAggregate.obj
 0001:0000ce30       ?addActorInternal@NpAggregate@physx@@AEAAXAEAVPxActor@2@AEAVNpScene@2@PEBVPxBVH@2@@Z 000000018000de30 f   NpAggregate.obj
 0001:0000cf50       ?addArticulation@NpAggregate@physx@@UEAA_NAEAVPxArticulationReducedCoordinate@2@@Z 000000018000df50 f   NpAggregate.obj
 0001:0000d180       ?addToScene@NpAggregate@physx@@QEAAXAEAVNpScene@2@@Z 000000018000e180 f   NpAggregate.obj
 0001:0000d2b0       ?createObject@NpAggregate@physx@@SAPEAV12@AEAPEAEAEAVPxDeserializationContext@2@@Z 000000018000e2b0 f   NpAggregate.obj
 0001:0000d410       ?decShapeCount@NpAggregate@physx@@QEAAXXZ 000000018000e410 f   NpAggregate.obj
 0001:0000d420       ?erase@?$PxHashBase@PEAVArticulationCore@Sc@physx@@PEAV123@U?$PxHash@PEAVArticulationCore@Sc@physx@@@3@UGetKey@?$PxHashSetBase@PEAVArticulationCore@Sc@physx@@U?$PxHash@PEAVArticulationCore@Sc@physx@@@3@VPxAllocator@3@$00@3@VPxAllocator@3@$00@physx@@QEAA_NAEBQEAVArticulationCore@Sc@2@@Z 000000018000e420 f i SimulationController_static_64:ScScene.obj
 0001:0000d420       ?erase@?$PxHashBase@PEAVArticulationSim@Sc@physx@@PEAV123@U?$PxHash@PEAVArticulationSim@Sc@physx@@@3@UGetKey@?$PxHashSetBase@PEAVArticulationSim@Sc@physx@@U?$PxHash@PEAVArticulationSim@Sc@physx@@@3@VPxAllocator@3@$00@3@VPxAllocator@3@$00@physx@@QEAA_NAEBQEAVArticulationSim@Sc@2@@Z 000000018000e420 f i SimulationController_static_64:ScScene.obj
 0001:0000d420       ?erase@?$PxHashBase@PEAVBodyCore@Sc@physx@@PEAV123@U?$PxHash@PEAVBodyCore@Sc@physx@@@3@UGetKey@?$PxHashSetBase@PEAVBodyCore@Sc@physx@@U?$PxHash@PEAVBodyCore@Sc@physx@@@3@VPxAllocator@3@$00@3@VPxAllocator@3@$00@physx@@QEAA_NAEBQEAVBodyCore@Sc@2@@Z 000000018000e420 f i SimulationController_static_64:ScScene.obj
 0001:0000d420       ?erase@?$PxHashBase@PEAVConstraintCore@Sc@physx@@PEAV123@U?$PxHash@PEAVConstraintCore@Sc@physx@@@3@UGetKey@?$PxHashSetBase@PEAVConstraintCore@Sc@physx@@U?$PxHash@PEAVConstraintCore@Sc@physx@@@3@VPxAllocator@3@$00@3@VPxAllocator@3@$00@physx@@QEAA_NAEBQEAVConstraintCore@Sc@2@@Z 000000018000e420 f i SimulationController_static_64:ScScene.obj
 0001:0000d420       ?erase@?$PxHashBase@PEAVConstraintSim@Sc@physx@@PEAV123@U?$PxHash@PEAVConstraintSim@Sc@physx@@@3@UGetKey@?$PxHashSetBase@PEAVConstraintSim@Sc@physx@@U?$PxHash@PEAVConstraintSim@Sc@physx@@@3@VPxAllocator@3@$00@3@VPxAllocator@3@$00@physx@@QEAA_NAEBQEAVConstraintSim@Sc@2@@Z 000000018000e420 f i SimulationController_static_64:ScConstraintBreakage.obj
 0001:0000d420       ?erase@?$PxHashBase@PEAVHairSystemCore@Sc@physx@@PEAV123@U?$PxHash@PEAVHairSystemCore@Sc@physx@@@3@UGetKey@?$PxHashSetBase@PEAVHairSystemCore@Sc@physx@@U?$PxHash@PEAVHairSystemCore@Sc@physx@@@3@VPxAllocator@3@$00@3@VPxAllocator@3@$00@physx@@QEAA_NAEBQEAVHairSystemCore@Sc@2@@Z 000000018000e420 f i SimulationController_static_64:ScScene.obj
 0001:0000d420       ?erase@?$PxHashBase@PEAVInteraction@Sc@physx@@PEAV123@U?$PxHash@PEAVInteraction@Sc@physx@@@3@UGetKey@?$PxHashSetBase@PEAVInteraction@Sc@physx@@U?$PxHash@PEAVInteraction@Sc@physx@@@3@VPxAllocator@3@$00@3@VPxAllocator@3@$00@physx@@QEAA_NAEBQEAVInteraction@Sc@2@@Z 000000018000e420 f i SimulationController_static_64:ScNPhaseCore.obj
 0001:0000d420       ?erase@?$PxHashBase@PEAVParticleSystemCore@Sc@physx@@PEAV123@U?$PxHash@PEAVParticleSystemCore@Sc@physx@@@3@UGetKey@?$PxHashSetBase@PEAVParticleSystemCore@Sc@physx@@U?$PxHash@PEAVParticleSystemCore@Sc@physx@@@3@VPxAllocator@3@$00@3@VPxAllocator@3@$00@physx@@QEAA_NAEBQEAVParticleSystemCore@Sc@2@@Z 000000018000e420 f i SimulationController_static_64:ScScene.obj
 0001:0000d420       ?erase@?$PxHashBase@PEAVPxAggregate@physx@@PEAV12@U?$PxHash@PEAVPxAggregate@physx@@@2@UGetKey@?$PxHashSetBase@PEAVPxAggregate@physx@@U?$PxHash@PEAVPxAggregate@physx@@@2@VPxAllocator@2@$00@2@VPxAllocator@2@$00@physx@@QEAA_NAEBQEAVPxAggregate@2@@Z 000000018000e420 f i NpAggregate.obj
 0001:0000d420       ?erase@?$PxHashBase@PEAVPxArticulationReducedCoordinate@physx@@PEAV12@U?$PxHash@PEAVPxArticulationReducedCoordinate@physx@@@2@UGetKey@?$PxHashSetBase@PEAVPxArticulationReducedCoordinate@physx@@U?$PxHash@PEAVPxArticulationReducedCoordinate@physx@@@2@VPxAllocator@2@$00@2@VPxAllocator@2@$00@physx@@QEAA_NAEBQEAVPxArticulationReducedCoordinate@2@@Z 000000018000e420 f i NpScene.obj
 0001:0000d420       ?erase@?$PxHashBase@PEAVPxPBDParticleSystem@physx@@PEAV12@U?$PxHash@PEAVPxPBDParticleSystem@physx@@@2@UGetKey@?$PxHashSetBase@PEAVPxPBDParticleSystem@physx@@U?$PxHash@PEAVPxPBDParticleSystem@physx@@@2@VPxAllocator@2@$00@2@VPxAllocator@2@$00@physx@@QEAA_NAEBQEAVPxPBDParticleSystem@2@@Z 000000018000e420 f i NpParticleSystem.obj
 0001:0000d420       ?erase@?$PxHashBase@PEAVPxShape@physx@@PEAV12@U?$PxHash@PEAVPxShape@physx@@@2@UGetKey@?$PxHashSetBase@PEAVPxShape@physx@@U?$PxHash@PEAVPxShape@physx@@@2@VPxAllocator@2@$00@2@VPxAllocator@2@$00@physx@@QEAA_NAEBQEAVPxShape@2@@Z 000000018000e420 f i NpFactory.obj
 0001:0000d420       ?erase@?$PxHashBase@PEAVPxSoftBody@physx@@PEAV12@U?$PxHash@PEAVPxSoftBody@physx@@@2@UGetKey@?$PxHashSetBase@PEAVPxSoftBody@physx@@U?$PxHash@PEAVPxSoftBody@physx@@@2@VPxAllocator@2@$00@2@VPxAllocator@2@$00@physx@@QEAA_NAEBQEAVPxSoftBody@2@@Z 000000018000e420 f i NpSoftBody.obj
 0001:0000d420       ?erase@?$PxHashBase@PEAVSoftBodyCore@Sc@physx@@PEAV123@U?$PxHash@PEAVSoftBodyCore@Sc@physx@@@3@UGetKey@?$PxHashSetBase@PEAVSoftBodyCore@Sc@physx@@U?$PxHash@PEAVSoftBodyCore@Sc@physx@@@3@VPxAllocator@3@$00@3@VPxAllocator@3@$00@physx@@QEAA_NAEBQEAVSoftBodyCore@Sc@2@@Z 000000018000e420 f i SimulationController_static_64:ScScene.obj
 0001:0000d420       ?erase@?$PxHashBase@PEBVBodySim@Sc@physx@@PEBV123@U?$PxHash@PEBVBodySim@Sc@physx@@@3@UGetKey@?$PxHashSetBase@PEBVBodySim@Sc@physx@@U?$PxHash@PEBVBodySim@Sc@physx@@@3@VPxAllocator@3@$00@3@VPxAllocator@3@$00@physx@@QEAA_NAEBQEBVBodySim@Sc@2@@Z 000000018000e420 f i SimulationController_static_64:ScScene.obj
 0001:0000d5a0       ?exportExtraData@NpAggregate@physx@@UEAAXAEAVPxSerializationContext@2@@Z 000000018000e5a0 f   NpAggregate.obj
 0001:0000d5f0       ?getActors@NpAggregate@physx@@UEBAIPEAPEAVPxActor@2@II@Z 000000018000e5f0 f   NpAggregate.obj
 0001:0000d640       ?getConcreteTypeName@PxAggregate@physx@@UEBAPEBDXZ 000000018000e640 f i NpAggregate.obj
 0001:0000d650       ?getMaxNbShapes@NpAggregate@physx@@UEBAIXZ 000000018000e650 f   NpAggregate.obj
 0001:0000d650       ?getNbTriangles@RenderBuffer@Cm@physx@@UEBAIXZ 000000018000e650 f   NpScene.obj
 0001:0000d660       ?getNbActors@NpAggregate@physx@@UEBAIXZ 000000018000e660 f   NpAggregate.obj
 0001:0000d670       ?getLines@RenderBuffer@Cm@physx@@UEBAPEBUPxDebugLine@3@XZ 000000018000e670 f   NpScene.obj
 0001:0000d670       ?getScene@?$NpActorTemplate@VPxArticulationLink@physx@@@physx@@UEBAPEAVPxScene@2@XZ 000000018000e670 f   NpArticulationLink.obj
 0001:0000d670       ?getScene@?$NpActorTemplate@VPxPBDParticleSystem@physx@@@physx@@UEBAPEAVPxScene@2@XZ 000000018000e670 f   NpParticleSystem.obj
 0001:0000d670       ?getScene@?$NpActorTemplate@VPxRigidDynamic@physx@@@physx@@UEBAPEAVPxScene@2@XZ 000000018000e670 f   NpRigidDynamic.obj
 0001:0000d670       ?getScene@?$NpActorTemplate@VPxRigidStatic@physx@@@physx@@UEBAPEAVPxScene@2@XZ 000000018000e670 f   NpRigidStatic.obj
 0001:0000d670       ?getScene@?$NpActorTemplate@VPxSoftBody@physx@@@physx@@UEBAPEAVPxScene@2@XZ 000000018000e670 f   NpSoftBody.obj
 0001:0000d670       ?getScene@NpAggregate@physx@@UEAAPEAVPxScene@2@XZ 000000018000e670 f   NpAggregate.obj
 0001:0000d670       ?getScene@NpArticulationReducedCoordinate@physx@@UEBAPEAVPxScene@2@XZ 000000018000e670 f   NpArticulationReducedCoordinate.obj
 0001:0000d670       ?getScene@NpConstraint@physx@@UEBAPEAVPxScene@2@XZ 000000018000e670 f   NpConstraint.obj
 0001:0000d680       ?getSelfCollision@NpAggregate@physx@@UEBA_NXZ 000000018000e680 f   NpAggregate.obj
 0001:0000d690       ?incShapeCount@NpAggregate@physx@@QEAAXXZ 000000018000e690 f   NpAggregate.obj
 0001:0000d6d0       ?isKindOf@PxAggregate@physx@@MEBA_NPEBD@Z 000000018000e6d0 f i NpAggregate.obj
 0001:0000d720       ?isKindOf@PxBase@physx@@MEBA_NPEBD@Z 000000018000e720 f i NpAggregate.obj
 0001:0000d750       ?isReleasable@PxBase@physx@@UEBA_NXZ 000000018000e750 f i NpAggregate.obj
 0001:0000d760       ?preExportDataReset@NpAggregate@physx@@QEAAXXZ 000000018000e760 f   NpAggregate.obj
 0001:0000d770       ?release@NpAggregate@physx@@UEAAXXZ 000000018000e770 f   NpAggregate.obj
 0001:0000d900       ?removeActor@NpAggregate@physx@@UEAA_NAEAVPxActor@2@@Z 000000018000e900 f   NpAggregate.obj
 0001:0000db40       ?removeActorAndReinsert@NpAggregate@physx@@QEAA_NAEAVPxActor@2@_N@Z 000000018000eb40 f   NpAggregate.obj
 0001:0000dc60       ?removeAndReinsert@NpAggregate@physx@@AEAAXAEAVPxActor@2@_N@Z 000000018000ec60 f   NpAggregate.obj
 0001:0000dce0       ?removeArticulation@NpAggregate@physx@@UEAA_NAEAVPxArticulationReducedCoordinate@2@@Z 000000018000ece0 f   NpAggregate.obj
 0001:0000de90       ?removeArticulationAndReinsert@NpAggregate@physx@@QEAA_NAEAVPxArticulationReducedCoordinate@2@_N@Z 000000018000ee90 f   NpAggregate.obj
 0001:0000df80       ?requiresObjects@NpAggregate@physx@@UEAAXAEAVPxProcessPxBaseCallback@2@@Z 000000018000ef80 f   NpAggregate.obj
 0001:0000dff0       ?scRemoveActor@NpAggregate@physx@@QEAAXAEAVNpActor@2@_N@Z 000000018000eff0 f   NpAggregate.obj
 0001:0000e030       ??0NpSoftBody@physx@@QEAA@AEAVPxCudaContextManager@1@@Z 000000018000f030 f   NpSoftBody.obj
 0001:0000e0a0       ??_E?$NpActorTemplate@VPxSoftBody@physx@@@physx@@UEAAPEAXI@Z 000000018000f0a0 f i NpSoftBody.obj
 0001:0000e0a0       ??_G?$NpActorTemplate@VPxSoftBody@physx@@@physx@@UEAAPEAXI@Z 000000018000f0a0 f i NpSoftBody.obj
 0001:0000e120       ??_ENpSoftBody@physx@@UEAAPEAXI@Z 000000018000f120 f i NpSoftBody.obj
 0001:0000e120       ??_GNpSoftBody@physx@@UEAAPEAXI@Z 000000018000f120 f i NpSoftBody.obj
 0001:0000e1b0       ??_EPxArticulationLink@physx@@MEAAPEAXI@Z 000000018000f1b0 f i NpArticulationLink.obj
 0001:0000e1b0       ??_EPxPBDParticleSystem@physx@@UEAAPEAXI@Z 000000018000f1b0 f i NpParticleSystem.obj
 0001:0000e1b0       ??_EPxRigidDynamic@physx@@MEAAPEAXI@Z 000000018000f1b0 f i NpRigidDynamic.obj
 0001:0000e1b0       ??_EPxRigidStatic@physx@@MEAAPEAXI@Z 000000018000f1b0 f i NpRigidStatic.obj
 0001:0000e1b0       ??_EPxSoftBody@physx@@UEAAPEAXI@Z 000000018000f1b0 f i NpSoftBody.obj
 0001:0000e1b0       ??_GPxArticulationLink@physx@@MEAAPEAXI@Z 000000018000f1b0 f i NpArticulationLink.obj
 0001:0000e1b0       ??_GPxPBDParticleSystem@physx@@UEAAPEAXI@Z 000000018000f1b0 f i NpParticleSystem.obj
 0001:0000e1b0       ??_GPxRigidDynamic@physx@@MEAAPEAXI@Z 000000018000f1b0 f i NpRigidDynamic.obj
 0001:0000e1b0       ??_GPxRigidStatic@physx@@MEAAPEAXI@Z 000000018000f1b0 f i NpRigidStatic.obj
 0001:0000e1b0       ??_GPxSoftBody@physx@@UEAAPEAXI@Z 000000018000f1b0 f i NpSoftBody.obj
 0001:0000e1e0       ?addParticleAttachment@NpSoftBody@physx@@UEAAIPEAVPxPBDParticleSystem@2@PEBVPxParticleBuffer@2@IIAEBV?$PxVec4T@M@2@@Z 000000018000f1e0 f   NpSoftBody.obj
 0001:0000e260       ?addParticleFilter@NpSoftBody@physx@@UEAAXPEAVPxPBDParticleSystem@2@PEBVPxParticleBuffer@2@II@Z 000000018000f260 f   NpSoftBody.obj
 0001:0000e2d0       ?addRigidAttachment@NpSoftBody@physx@@UEAAIPEAVPxRigidActor@2@IAEBV?$PxVec3T@M@2@PEAUPxConeLimitedConstraint@2@@Z 000000018000f2d0 f   NpSoftBody.obj
 0001:0000e570       ?addRigidFilter@NpSoftBody@physx@@UEAAXPEAVPxRigidActor@2@I@Z 000000018000f570 f   NpSoftBody.obj
 0001:0000e5f0       ?addSoftBodyAttachment@NpSoftBody@physx@@UEAAIPEAVPxSoftBody@2@IAEBV?$PxVec4T@M@2@I1PEAUPxConeLimitedConstraint@2@M@Z 000000018000f5f0 f   NpSoftBody.obj
 0001:0000e650       ?addSoftBodyFilter@NpSoftBody@physx@@UEAAXPEAVPxSoftBody@2@II@Z 000000018000f650 f   NpSoftBody.obj
 0001:0000e6b0       ?addSoftBodyFilters@NpSoftBody@physx@@UEAAXPEAVPxSoftBody@2@PEAI1I@Z 000000018000f6b0 f   NpSoftBody.obj
 0001:0000e710       ?addTetRigidAttachment@NpSoftBody@physx@@UEAAIPEAVPxRigidActor@2@IAEBV?$PxVec4T@M@2@AEBV?$PxVec3T@M@2@PEAUPxConeLimitedConstraint@2@@Z 000000018000f710 f   NpSoftBody.obj
 0001:0000e9c0       ?addTetRigidFilter@NpSoftBody@physx@@UEAAXPEAVPxRigidActor@2@I@Z 000000018000f9c0 f   NpSoftBody.obj
 0001:0000ea40       ?attachShape@NpSoftBody@physx@@UEAA_NAEAVPxShape@2@@Z 000000018000fa40 f   NpSoftBody.obj
 0001:0000ebf0       ?attachSimulationMesh@NpSoftBody@physx@@UEAA_NAEAVPxTetrahedronMesh@2@AEAVPxSoftBodyAuxData@2@@Z 000000018000fbf0 f   NpSoftBody.obj
 0001:0000ec70       ?detachShape@NpSoftBody@physx@@UEAAXXZ 000000018000fc70 f   NpSoftBody.obj
 0001:0000ecf0       ?detachSimulationMesh@NpSoftBody@physx@@UEAAXXZ 000000018000fcf0 f   NpSoftBody.obj
 0001:0000ed70       ?exportExtraData@?$NpActorTemplate@VPxArticulationLink@physx@@@physx@@UEAAXAEAVPxSerializationContext@2@@Z 000000018000fd70 f i NpArticulationLink.obj
 0001:0000ed70       ?exportExtraData@?$NpActorTemplate@VPxPBDParticleSystem@physx@@@physx@@UEAAXAEAVPxSerializationContext@2@@Z 000000018000fd70 f i NpParticleSystem.obj
 0001:0000ed70       ?exportExtraData@?$NpActorTemplate@VPxRigidDynamic@physx@@@physx@@UEAAXAEAVPxSerializationContext@2@@Z 000000018000fd70 f i NpRigidDynamic.obj
 0001:0000ed70       ?exportExtraData@?$NpActorTemplate@VPxRigidStatic@physx@@@physx@@UEAAXAEAVPxSerializationContext@2@@Z 000000018000fd70 f i NpRigidStatic.obj
 0001:0000ed70       ?exportExtraData@?$NpActorTemplate@VPxSoftBody@physx@@@physx@@UEAAXAEAVPxSerializationContext@2@@Z 000000018000fd70 f i NpSoftBody.obj
 0001:0000ed80       ?getActorFlags@?$NpActorTemplate@VPxArticulationLink@physx@@@physx@@UEBA?AV?$PxFlags@W4Enum@PxActorFlag@physx@@E@2@XZ 000000018000fd80 f i NpArticulationLink.obj
 0001:0000ed80       ?getActorFlags@?$NpActorTemplate@VPxPBDParticleSystem@physx@@@physx@@UEBA?AV?$PxFlags@W4Enum@PxActorFlag@physx@@E@2@XZ 000000018000fd80 f i NpParticleSystem.obj
 0001:0000ed80       ?getActorFlags@?$NpActorTemplate@VPxRigidDynamic@physx@@@physx@@UEBA?AV?$PxFlags@W4Enum@PxActorFlag@physx@@E@2@XZ 000000018000fd80 f i NpRigidDynamic.obj
 0001:0000ed80       ?getActorFlags@?$NpActorTemplate@VPxRigidStatic@physx@@@physx@@UEBA?AV?$PxFlags@W4Enum@PxActorFlag@physx@@E@2@XZ 000000018000fd80 f i NpRigidStatic.obj
 0001:0000ed80       ?getActorFlags@?$NpActorTemplate@VPxSoftBody@physx@@@physx@@UEBA?AV?$PxFlags@W4Enum@PxActorFlag@physx@@E@2@XZ 000000018000fd80 f i NpSoftBody.obj
 0001:0000eda0       ?getAggregate@?$NpActorTemplate@VPxArticulationLink@physx@@@physx@@UEBAPEAVPxAggregate@2@XZ 000000018000fda0 f i NpArticulationLink.obj
 0001:0000eda0       ?getAggregate@?$NpActorTemplate@VPxPBDParticleSystem@physx@@@physx@@UEBAPEAVPxAggregate@2@XZ 000000018000fda0 f i NpParticleSystem.obj
 0001:0000eda0       ?getAggregate@?$NpActorTemplate@VPxRigidDynamic@physx@@@physx@@UEBAPEAVPxAggregate@2@XZ 000000018000fda0 f i NpRigidDynamic.obj
 0001:0000eda0       ?getAggregate@?$NpActorTemplate@VPxRigidStatic@physx@@@physx@@UEBAPEAVPxAggregate@2@XZ 000000018000fda0 f i NpRigidStatic.obj
 0001:0000eda0       ?getAggregate@?$NpActorTemplate@VPxSoftBody@physx@@@physx@@UEBAPEAVPxAggregate@2@XZ 000000018000fda0 f i NpSoftBody.obj
 0001:0000edb0       ?getCollisionMesh@NpSoftBody@physx@@UEAAPEAVPxTetrahedronMesh@2@XZ 000000018000fdb0 f   NpSoftBody.obj
 0001:0000edb0       ?getCollisionMesh@NpSoftBody@physx@@UEBAPEBVPxTetrahedronMesh@2@XZ 000000018000fdb0 f   NpSoftBody.obj
 0001:0000edd0       ?getConcreteTypeName@PxSoftBody@physx@@UEBAPEBDXZ 000000018000fdd0 f i NpSoftBody.obj
 0001:0000ede0       ?getDominanceGroup@?$NpActorTemplate@VPxArticulationLink@physx@@@physx@@UEBAEXZ 000000018000fde0 f i NpArticulationLink.obj
 0001:0000ede0       ?getDominanceGroup@?$NpActorTemplate@VPxPBDParticleSystem@physx@@@physx@@UEBAEXZ 000000018000fde0 f i NpParticleSystem.obj
 0001:0000ede0       ?getDominanceGroup@?$NpActorTemplate@VPxRigidDynamic@physx@@@physx@@UEBAEXZ 000000018000fde0 f i NpRigidDynamic.obj
 0001:0000ede0       ?getDominanceGroup@?$NpActorTemplate@VPxRigidStatic@physx@@@physx@@UEBAEXZ 000000018000fde0 f i NpRigidStatic.obj
 0001:0000ede0       ?getDominanceGroup@?$NpActorTemplate@VPxSoftBody@physx@@@physx@@UEBAEXZ 000000018000fde0 f i NpSoftBody.obj
 0001:0000ee00       ?getGpuSoftBodyIndex@NpSoftBody@physx@@UEAAIXZ 000000018000fe00 f   NpSoftBody.obj
 0001:0000ee10       ?getOwnerClient@?$NpActorTemplate@VPxArticulationLink@physx@@@physx@@UEBAEXZ 000000018000fe10 f i NpArticulationLink.obj
 0001:0000ee10       ?getOwnerClient@?$NpActorTemplate@VPxPBDParticleSystem@physx@@@physx@@UEBAEXZ 000000018000fe10 f i NpParticleSystem.obj
 0001:0000ee10       ?getOwnerClient@?$NpActorTemplate@VPxRigidDynamic@physx@@@physx@@UEBAEXZ 000000018000fe10 f i NpRigidDynamic.obj
 0001:0000ee10       ?getOwnerClient@?$NpActorTemplate@VPxRigidStatic@physx@@@physx@@UEBAEXZ 000000018000fe10 f i NpRigidStatic.obj
 0001:0000ee10       ?getOwnerClient@?$NpActorTemplate@VPxSoftBody@physx@@@physx@@UEBAEXZ 000000018000fe10 f i NpSoftBody.obj
 0001:0000ee30       ?getParameter@NpSoftBody@physx@@UEBA?AUPxFEMParameters@2@XZ 000000018000fe30 f   NpSoftBody.obj
 0001:0000ee50       ?getSoftBodyFlag@NpSoftBody@physx@@UEBA?AV?$PxFlags@W4Enum@PxSoftBodyFlag@physx@@I@2@XZ 000000018000fe50 f   NpSoftBody.obj
 0001:0000ee60       ?getSolverIterationCounts@NpSoftBody@physx@@UEBAXAEAI0@Z 000000018000fe60 f   NpSoftBody.obj
 0001:0000ee80       ?getType@NpSoftBody@physx@@UEBA?AW4Enum@PxActorType@2@XZ 000000018000fe80 f i NpSoftBody.obj
 0001:0000ee90       ?getWakeCounter@NpSoftBody@physx@@UEBAMXZ 000000018000fe90 f   NpSoftBody.obj
 0001:0000eea0       ?getWorldBounds@NpSoftBody@physx@@UEBA?AVPxBounds3@2@M@Z 000000018000fea0 f   NpSoftBody.obj
 0001:0000f090       ?growAndPushBack@?$PxArray@GV?$PxReflectionAllocator@G@physx@@@physx@@IEAAAEAGAEBG@Z 0000000180010090 f i NpSoftBody.obj
 0001:0000f1a0       ?importExtraData@?$NpActorTemplate@VPxArticulationLink@physx@@@physx@@UEAAXAEAVPxDeserializationContext@2@@Z 00000001800101a0 f i NpArticulationLink.obj
 0001:0000f1a0       ?importExtraData@?$NpActorTemplate@VPxPBDParticleSystem@physx@@@physx@@UEAAXAEAVPxDeserializationContext@2@@Z 00000001800101a0 f i NpParticleSystem.obj
 0001:0000f1a0       ?importExtraData@?$NpActorTemplate@VPxRigidDynamic@physx@@@physx@@UEAAXAEAVPxDeserializationContext@2@@Z 00000001800101a0 f i NpRigidDynamic.obj
 0001:0000f1a0       ?importExtraData@?$NpActorTemplate@VPxRigidStatic@physx@@@physx@@UEAAXAEAVPxDeserializationContext@2@@Z 00000001800101a0 f i NpRigidStatic.obj
 0001:0000f1a0       ?importExtraData@?$NpActorTemplate@VPxSoftBody@physx@@@physx@@UEAAXAEAVPxDeserializationContext@2@@Z 00000001800101a0 f i NpSoftBody.obj
 0001:0000f1b0       ?isKindOf@PxSoftBody@physx@@MEBA_NPEBD@Z 00000001800101b0 f i NpSoftBody.obj
 0001:0000f240       ?isSleeping@NpSoftBody@physx@@UEBA_NXZ 0000000180010240 f   NpSoftBody.obj
 0001:0000f250       ?markDirty@NpSoftBody@physx@@UEAAXV?$PxFlags@W4Enum@PxSoftBodyDataFlag@physx@@I@2@@Z 0000000180010250 f   NpSoftBody.obj
 0001:0000f260       ?release@NpSoftBody@physx@@UEAAXXZ 0000000180010260 f   NpSoftBody.obj
 0001:0000f2d0       ?removeParticleAttachment@NpSoftBody@physx@@UEAAXPEAVPxPBDParticleSystem@2@I@Z 00000001800102d0 f   NpSoftBody.obj
 0001:0000f330       ?removeParticleFilter@NpSoftBody@physx@@UEAAXPEAVPxPBDParticleSystem@2@PEBVPxParticleBuffer@2@II@Z 0000000180010330 f   NpSoftBody.obj
 0001:0000f3a0       ?removeRigidAttachment@NpSoftBody@physx@@UEAAXPEAVPxRigidActor@2@I@Z 00000001800103a0 f   NpSoftBody.obj
 0001:0000f420       ?removeRigidFilter@NpSoftBody@physx@@UEAAXPEAVPxRigidActor@2@I@Z 0000000180010420 f   NpSoftBody.obj
 0001:0000f4a0       ?removeSoftBodyAttachment@NpSoftBody@physx@@UEAAXPEAVPxSoftBody@2@I@Z 00000001800104a0 f   NpSoftBody.obj
 0001:0000f500       ?removeSoftBodyFilter@NpSoftBody@physx@@UEAAXPEAVPxSoftBody@2@II@Z 0000000180010500 f   NpSoftBody.obj
 0001:0000f560       ?removeSoftBodyFilters@NpSoftBody@physx@@UEAAXPEAVPxSoftBody@2@PEAI1I@Z 0000000180010560 f   NpSoftBody.obj
 0001:0000f5c0       ?removeTetRigidFilter@NpSoftBody@physx@@UEAAXPEAVPxRigidActor@2@I@Z 00000001800105c0 f   NpSoftBody.obj
 0001:0000f640       ?resolveReferences@?$NpActorTemplate@VPxArticulationLink@physx@@@physx@@UEAAXAEAVPxDeserializationContext@2@@Z 0000000180010640 f i NpArticulationLink.obj
 0001:0000f640       ?resolveReferences@?$NpActorTemplate@VPxPBDParticleSystem@physx@@@physx@@UEAAXAEAVPxDeserializationContext@2@@Z 0000000180010640 f i NpParticleSystem.obj
 0001:0000f640       ?resolveReferences@?$NpActorTemplate@VPxRigidDynamic@physx@@@physx@@UEAAXAEAVPxDeserializationContext@2@@Z 0000000180010640 f i NpRigidDynamic.obj
 0001:0000f640       ?resolveReferences@?$NpActorTemplate@VPxRigidStatic@physx@@@physx@@UEAAXAEAVPxDeserializationContext@2@@Z 0000000180010640 f i NpRigidStatic.obj
 0001:0000f640       ?resolveReferences@?$NpActorTemplate@VPxSoftBody@physx@@@physx@@UEAAXAEAVPxDeserializationContext@2@@Z 0000000180010640 f i NpSoftBody.obj
 0001:0000f650       ?setActorFlag@?$NpActorTemplate@VPxArticulationLink@physx@@@physx@@UEAAXW4Enum@PxActorFlag@2@_N@Z 0000000180010650 f i NpArticulationLink.obj
 0001:0000f650       ?setActorFlag@?$NpActorTemplate@VPxPBDParticleSystem@physx@@@physx@@UEAAXW4Enum@PxActorFlag@2@_N@Z 0000000180010650 f i NpParticleSystem.obj
 0001:0000f650       ?setActorFlag@?$NpActorTemplate@VPxRigidDynamic@physx@@@physx@@UEAAXW4Enum@PxActorFlag@2@_N@Z 0000000180010650 f i NpRigidDynamic.obj
 0001:0000f650       ?setActorFlag@?$NpActorTemplate@VPxRigidStatic@physx@@@physx@@UEAAXW4Enum@PxActorFlag@2@_N@Z 0000000180010650 f i NpRigidStatic.obj
 0001:0000f650       ?setActorFlag@?$NpActorTemplate@VPxSoftBody@physx@@@physx@@UEAAXW4Enum@PxActorFlag@2@_N@Z 0000000180010650 f i NpSoftBody.obj
 0001:0000f6f0       ?setActorFlags@?$NpActorTemplate@VPxArticulationLink@physx@@@physx@@UEAAXV?$PxFlags@W4Enum@PxActorFlag@physx@@E@2@@Z 00000001800106f0 f i NpArticulationLink.obj
 0001:0000f6f0       ?setActorFlags@?$NpActorTemplate@VPxPBDParticleSystem@physx@@@physx@@UEAAXV?$PxFlags@W4Enum@PxActorFlag@physx@@E@2@@Z 00000001800106f0 f i NpParticleSystem.obj
 0001:0000f6f0       ?setActorFlags@?$NpActorTemplate@VPxRigidDynamic@physx@@@physx@@UEAAXV?$PxFlags@W4Enum@PxActorFlag@physx@@E@2@@Z 00000001800106f0 f i NpRigidDynamic.obj
 0001:0000f6f0       ?setActorFlags@?$NpActorTemplate@VPxRigidStatic@physx@@@physx@@UEAAXV?$PxFlags@W4Enum@PxActorFlag@physx@@E@2@@Z 00000001800106f0 f i NpRigidStatic.obj
 0001:0000f6f0       ?setActorFlags@?$NpActorTemplate@VPxSoftBody@physx@@@physx@@UEAAXV?$PxFlags@W4Enum@PxActorFlag@physx@@E@2@@Z 00000001800106f0 f i NpSoftBody.obj
 0001:0000f770       ?setDominanceGroup@?$NpActorTemplate@VPxArticulationLink@physx@@@physx@@UEAAXE@Z 0000000180010770 f i NpArticulationLink.obj
 0001:0000f770       ?setDominanceGroup@?$NpActorTemplate@VPxPBDParticleSystem@physx@@@physx@@UEAAXE@Z 0000000180010770 f i NpParticleSystem.obj
 0001:0000f770       ?setDominanceGroup@?$NpActorTemplate@VPxRigidDynamic@physx@@@physx@@UEAAXE@Z 0000000180010770 f i NpRigidDynamic.obj
 0001:0000f770       ?setDominanceGroup@?$NpActorTemplate@VPxRigidStatic@physx@@@physx@@UEAAXE@Z 0000000180010770 f i NpRigidStatic.obj
 0001:0000f770       ?setDominanceGroup@?$NpActorTemplate@VPxSoftBody@physx@@@physx@@UEAAXE@Z 0000000180010770 f i NpSoftBody.obj
 0001:0000f7d0       ?setKinematicTargetBufferD@NpSoftBody@physx@@UEAAXPEBV?$PxVec4T@M@2@V?$PxFlags@W4Enum@PxSoftBodyFlag@physx@@I@2@@Z 00000001800107d0 f   NpSoftBody.obj
 0001:0000f840       ?setName@?$NpActorTemplate@VPxArticulationLink@physx@@@physx@@UEAAXPEBD@Z 0000000180010840 f i NpArticulationLink.obj
 0001:0000f840       ?setName@?$NpActorTemplate@VPxPBDParticleSystem@physx@@@physx@@UEAAXPEBD@Z 0000000180010840 f i NpParticleSystem.obj
 0001:0000f840       ?setName@?$NpActorTemplate@VPxRigidDynamic@physx@@@physx@@UEAAXPEBD@Z 0000000180010840 f i NpRigidDynamic.obj
 0001:0000f840       ?setName@?$NpActorTemplate@VPxRigidStatic@physx@@@physx@@UEAAXPEBD@Z 0000000180010840 f i NpRigidStatic.obj
 0001:0000f840       ?setName@?$NpActorTemplate@VPxSoftBody@physx@@@physx@@UEAAXPEBD@Z 0000000180010840 f i NpSoftBody.obj
 0001:0000f8a0       ?setOwnerClient@?$NpActorTemplate@VPxArticulationLink@physx@@@physx@@UEAAXE@Z 00000001800108a0 f i NpArticulationLink.obj
 0001:0000f8a0       ?setOwnerClient@?$NpActorTemplate@VPxPBDParticleSystem@physx@@@physx@@UEAAXE@Z 00000001800108a0 f i NpParticleSystem.obj
 0001:0000f8a0       ?setOwnerClient@?$NpActorTemplate@VPxRigidDynamic@physx@@@physx@@UEAAXE@Z 00000001800108a0 f i NpRigidDynamic.obj
 0001:0000f8a0       ?setOwnerClient@?$NpActorTemplate@VPxRigidStatic@physx@@@physx@@UEAAXE@Z 00000001800108a0 f i NpRigidStatic.obj
 0001:0000f8a0       ?setOwnerClient@?$NpActorTemplate@VPxSoftBody@physx@@@physx@@UEAAXE@Z 00000001800108a0 f i NpSoftBody.obj
 0001:0000f8f0       ?setParameter@NpSoftBody@physx@@UEAAXUPxFEMParameters@2@@Z 00000001800108f0 f   NpSoftBody.obj
 0001:0000f960       ?setSoftBodyFlag@NpSoftBody@physx@@UEAAXW4Enum@PxSoftBodyFlag@2@_N@Z 0000000180010960 f   NpSoftBody.obj
 0001:0000f990       ?setSoftBodyFlags@NpSoftBody@physx@@UEAAXV?$PxFlags@W4Enum@PxSoftBodyFlag@physx@@I@2@@Z 0000000180010990 f   NpSoftBody.obj
 0001:0000f9b0       ?setSolverIterationCounts@NpSoftBody@physx@@UEAAXII@Z 00000001800109b0 f   NpSoftBody.obj
 0001:0000fa20       ?setWakeCounter@NpSoftBody@physx@@UEAAXM@Z 0000000180010a20 f   NpSoftBody.obj
 0001:0000fa80       ?updateMaterials@NpSoftBody@physx@@QEAAXXZ 0000000180010a80 f   NpSoftBody.obj
 0001:0000fb30       ??$PxSort@UPxParticleCloth@physx@@U?$PxLess@UPxParticleCloth@physx@@@2@V?$PxReflectionAllocator@UPxParticleCloth@physx@@@2@@physx@@YAXPEAUPxParticleCloth@0@IAEBU?$PxLess@UPxParticleCloth@physx@@@0@AEBV?$PxReflectionAllocator@UPxParticleCloth@physx@@@0@I@Z 0000000180010b30 f i NpParticleSystem.obj
 0001:000100e0       ??0NpPBDParticleSystem@physx@@QEAA@IAEAVPxCudaContextManager@1@@Z 00000001800110e0 f   NpParticleSystem.obj
 0001:000101c0       ??0PxPartitionedParticleCloth@physx@@QEAA@XZ 00000001800111c0 f   NpParticleSystem.obj
 0001:000101e0       ??1PxPartitionedParticleCloth@physx@@QEAA@XZ 00000001800111e0 f   NpParticleSystem.obj
 0001:000102b0       ??_E?$NpActorTemplate@VPxPBDParticleSystem@physx@@@physx@@UEAAPEAXI@Z 00000001800112b0 f i NpParticleSystem.obj
 0001:000102b0       ??_G?$NpActorTemplate@VPxPBDParticleSystem@physx@@@physx@@UEAAPEAXI@Z 00000001800112b0 f i NpParticleSystem.obj
 0001:00010330       ??_E?$NpParticleSystem@VPxPBDParticleSystem@physx@@@physx@@UEAAPEAXI@Z 0000000180011330 f i NpParticleSystem.obj
 0001:00010330       ??_ENpPBDParticleSystem@physx@@UEAAPEAXI@Z 0000000180011330 f i NpParticleSystem.obj
 0001:00010330       ??_G?$NpParticleSystem@VPxPBDParticleSystem@physx@@@physx@@UEAAPEAXI@Z 0000000180011330 f i NpParticleSystem.obj
 0001:00010330       ??_GNpPBDParticleSystem@physx@@UEAAPEAXI@Z 0000000180011330 f i NpParticleSystem.obj
 0001:000103c0       ??_ENpParticleClothPreProcessor@physx@@UEAAPEAXI@Z 00000001800113c0 f i NpParticleSystem.obj
 0001:000103c0       ??_GNpParticleClothPreProcessor@physx@@UEAAPEAXI@Z 00000001800113c0 f i NpParticleSystem.obj
 0001:00010410       ??_EPxConstraintAllocator@physx@@UEAAPEAXI@Z 0000000180011410 f i LowLevelDynamics_static_64:DyFeatherstoneArticulation.obj
 0001:00010410       ??_EPxParticleClothPreProcessor@physx@@MEAAPEAXI@Z 0000000180011410 f i NpParticleSystem.obj
 0001:00010410       ??_GPxConstraintAllocator@physx@@UEAAPEAXI@Z 0000000180011410 f i LowLevelDynamics_static_64:DyFeatherstoneArticulation.obj
 0001:00010410       ??_GPxParticleClothPreProcessor@physx@@MEAAPEAXI@Z 0000000180011410 f i NpParticleSystem.obj
 0001:00010440       ?addParticleBuffer@NpPBDParticleSystem@physx@@UEAAXPEAVPxParticleBuffer@2@@Z 0000000180011440 f   NpParticleSystem.obj
 0001:00010450       ?addRigidAttachment@NpPBDParticleSystem@physx@@UEAAXPEAVPxRigidActor@2@@Z 0000000180011450 f   NpParticleSystem.obj
 0001:000104c0       ?allocate@?$PxArray@IV?$PxReflectionAllocator@I@physx@@@physx@@IEAAPEAII@Z 00000001800114c0 f i NpParticleSystem.obj
 0001:00010550       ?allocateBuffers@PxPartitionedParticleCloth@physx@@QEAAXIPEAVPxCudaContextManager@2@@Z 0000000180011550 f   NpParticleSystem.obj
 0001:00010690       ?classifySprings@NpParticleClothPreProcessor@physx@@AEAAXPEBUPxParticleSpring@2@PEAI1AEAV?$PxArray@IV?$PxReflectionAllocator@I@physx@@@2@@Z 0000000180011690 f   NpParticleSystem.obj
 0001:00010870       ?combinePartitions@NpParticleClothPreProcessor@physx@@AEAAIPEBUPxParticleSpring@2@PEBI1PEAIPEAU32@22@Z 0000000180011870 f   NpParticleSystem.obj
 0001:00010e50       ?createPhase@NpPBDParticleSystem@physx@@UEAAIPEAVPxParticleMaterial@2@V?$PxFlags@W4Enum@PxParticlePhaseFlag@physx@@I@2@@Z 0000000180011e50 f   NpParticleSystem.obj
 0001:00010f30       ?enableCCD@?$NpParticleSystem@VPxPBDParticleSystem@physx@@@physx@@UEAAX_N@Z 0000000180011f30 f i NpParticleSystem.obj
 0001:00010f70       ?getConcreteTypeName@PxPBDParticleSystem@physx@@UEBAPEBDXZ 0000000180011f70 f i NpParticleSystem.obj
 0001:00010f80       ?getContactOffset@?$NpParticleSystem@VPxPBDParticleSystem@physx@@@physx@@UEBAMXZ 0000000180011f80 f i NpParticleSystem.obj
 0001:00010f90       ?getCudaContextManager@?$NpParticleSystem@VPxPBDParticleSystem@physx@@@physx@@UEBAPEAVPxCudaContextManager@2@XZ 0000000180011f90 f i NpParticleSystem.obj
 0001:00010f90       ?getParentArticulationLink@NpArticulationJointReducedCoordinate@physx@@UEBAAEAVPxArticulationLink@2@XZ 0000000180011f90 f i NpArticulationJointReducedCoordinate.obj
 0001:00010fa0       ?getFluidBoundaryDensityScale@NpPBDParticleSystem@physx@@UEBAMXZ 0000000180011fa0 f i NpParticleSystem.obj
 0001:00010fb0       ?getFluidRestOffset@NpPBDParticleSystem@physx@@UEBAMXZ 0000000180011fb0 f i NpParticleSystem.obj
 0001:00010fc0       ?getGpuParticleSystemIndex@?$NpParticleSystem@VPxPBDParticleSystem@physx@@@physx@@UEAAIXZ 0000000180011fc0 f i NpParticleSystem.obj
 0001:00011010       ?getMaxDepenetrationVelocity@?$NpParticleSystem@VPxPBDParticleSystem@physx@@@physx@@UEAAMXZ 0000000180012010 f i NpParticleSystem.obj
 0001:00011020       ?getMaxVelocity@?$NpParticleSystem@VPxPBDParticleSystem@physx@@@physx@@UEAAMXZ 0000000180012020 f i NpParticleSystem.obj
 0001:00011030       ?getNbParticleMaterials@?$NpParticleSystem@VPxPBDParticleSystem@physx@@@physx@@UEBAIXZ 0000000180012030 f i NpParticleSystem.obj
 0001:00011050       ?getParticleContactOffset@?$NpParticleSystem@VPxPBDParticleSystem@physx@@@physx@@UEBAMXZ 0000000180012050 f i NpParticleSystem.obj
 0001:00011060       ?getParticleFlags@?$NpParticleSystem@VPxPBDParticleSystem@physx@@@physx@@UEBA?AV?$PxFlags@W4Enum@PxParticleFlag@physx@@I@2@XZ 0000000180012060 f i NpParticleSystem.obj
 0001:00011070       ?getParticleSystemCallback@?$NpParticleSystem@VPxPBDParticleSystem@physx@@@physx@@UEBAPEAVPxParticleSystemCallback@2@XZ 0000000180012070 f i NpParticleSystem.obj
 0001:00011080       ?getRestOffset@?$NpParticleSystem@VPxPBDParticleSystem@physx@@@physx@@UEBAMXZ 0000000180012080 f i NpParticleSystem.obj
 0001:00011090       ?getSimulationFilterData@?$NpParticleSystem@VPxPBDParticleSystem@physx@@@physx@@UEBA?AUPxFilterData@2@XZ 0000000180012090 f i NpParticleSystem.obj
 0001:000110b0       ?getSolidRestOffset@?$NpParticleSystem@VPxPBDParticleSystem@physx@@@physx@@UEBAMXZ 00000001800120b0 f i NpParticleSystem.obj
 0001:000110c0       ?getSolverIterationCounts@?$NpParticleSystem@VPxPBDParticleSystem@physx@@@physx@@UEBAXAEAI0@Z 00000001800120c0 f i NpParticleSystem.obj
 0001:000110e0       ?getSolverType@?$NpParticleSystem@VPxPBDParticleSystem@physx@@@physx@@UEBA?AW4Enum@PxParticleSolverType@2@XZ 00000001800120e0 f i NpParticleSystem.obj
 0001:000110f0       ?getType@NpPBDParticleSystem@physx@@UEBA?AW4Enum@PxActorType@2@XZ 00000001800120f0 f i NpParticleSystem.obj
 0001:00011100       ?getWind@NpPBDParticleSystem@physx@@UEBA?AV?$PxVec3T@M@2@XZ 0000000180012100 f i NpParticleSystem.obj
 0001:00011120       ?getWorldBounds@?$NpParticleSystem@VPxPBDParticleSystem@physx@@@physx@@UEBA?AVPxBounds3@2@M@Z 0000000180012120 f i NpParticleSystem.obj
 0001:00011310       ?isKindOf@PxPBDParticleSystem@physx@@MEBA_NPEBD@Z 0000000180012310 f i NpParticleSystem.obj
 0001:000113a0       ?partitionSprings@NpParticleClothPreProcessor@physx@@UEAAXAEBUPxParticleClothDesc@2@AEAUPxPartitionedParticleCloth@2@@Z 00000001800123a0 f   NpParticleSystem.obj
 0001:000115d0       ?partitions@NpParticleClothPreProcessor@physx@@AEAAPEAIPEBUPxParticleSpring@2@PEAI@Z 00000001800125d0 f   NpParticleSystem.obj
 0001:00011800       ?recreate@?$PxArray@IV?$PxReflectionAllocator@I@physx@@@physx@@IEAAXI@Z 0000000180012800 f i NpParticleSystem.obj
 0001:000118a0       ?release@NpPBDParticleSystem@physx@@UEAAXXZ 00000001800128a0 f   NpParticleSystem.obj
 0001:000118f0       ?release@NpParticleClothPreProcessor@physx@@UEAAXXZ 00000001800128f0 f   NpParticleSystem.obj
 0001:00011910       ?removeParticleBuffer@NpPBDParticleSystem@physx@@UEAAXPEAVPxParticleBuffer@2@@Z 0000000180012910 f   NpParticleSystem.obj
 0001:00011920       ?removeRigidAttachment@NpPBDParticleSystem@physx@@UEAAXPEAVPxRigidActor@2@@Z 0000000180012920 f   NpParticleSystem.obj
 0001:00011990       ?resize@?$PxArray@IV?$PxReflectionAllocator@I@physx@@@physx@@QEAAXIAEBI@Z 0000000180012990 f i NpParticleSystem.obj
 0001:00011a50       ?setContactOffset@?$NpParticleSystem@VPxPBDParticleSystem@physx@@@physx@@UEAAXM@Z 0000000180012a50 f i NpParticleSystem.obj
 0001:00011a90       ?setFluidBoundaryDensityScale@NpPBDParticleSystem@physx@@UEAAXM@Z 0000000180012a90 f i NpParticleSystem.obj
 0001:00011ad0       ?setFluidRestOffset@NpPBDParticleSystem@physx@@UEAAXM@Z 0000000180012ad0 f i NpParticleSystem.obj
 0001:00011b10       ?setGridSizeX@?$NpParticleSystem@VPxPBDParticleSystem@physx@@@physx@@UEAAXI@Z 0000000180012b10 f i NpParticleSystem.obj
 0001:00011b20       ?setGridSizeY@?$NpParticleSystem@VPxPBDParticleSystem@physx@@@physx@@UEAAXI@Z 0000000180012b20 f i NpParticleSystem.obj
 0001:00011b30       ?setGridSizeZ@?$NpParticleSystem@VPxPBDParticleSystem@physx@@@physx@@UEAAXI@Z 0000000180012b30 f i NpParticleSystem.obj
 0001:00011b40       ?setMaxDepenetrationVelocity@?$NpParticleSystem@VPxPBDParticleSystem@physx@@@physx@@UEAAXM@Z 0000000180012b40 f i NpParticleSystem.obj
 0001:00011b80       ?setMaxVelocity@?$NpParticleSystem@VPxPBDParticleSystem@physx@@@physx@@UEAAXM@Z 0000000180012b80 f i NpParticleSystem.obj
 0001:00011bc0       ?setParticleContactOffset@?$NpParticleSystem@VPxPBDParticleSystem@physx@@@physx@@UEAAXM@Z 0000000180012bc0 f i NpParticleSystem.obj
 0001:00011c00       ?setParticleFlag@?$NpParticleSystem@VPxPBDParticleSystem@physx@@@physx@@UEAAXW4Enum@PxParticleFlag@2@_N@Z 0000000180012c00 f i NpParticleSystem.obj
 0001:00011c60       ?setParticleFlags@?$NpParticleSystem@VPxPBDParticleSystem@physx@@@physx@@UEAAXV?$PxFlags@W4Enum@PxParticleFlag@physx@@I@2@@Z 0000000180012c60 f i NpParticleSystem.obj
 0001:00011cb0       ?setParticleSystemCallback@?$NpParticleSystem@VPxPBDParticleSystem@physx@@@physx@@UEAAXPEAVPxParticleSystemCallback@2@@Z 0000000180012cb0 f i NpParticleSystem.obj
 0001:00011cc0       ?setRestOffset@?$NpParticleSystem@VPxPBDParticleSystem@physx@@@physx@@UEAAXM@Z 0000000180012cc0 f i NpParticleSystem.obj
 0001:00011d00       ?setSimulationFilterData@?$NpParticleSystem@VPxPBDParticleSystem@physx@@@physx@@UEAAXAEBUPxFilterData@2@@Z 0000000180012d00 f i NpParticleSystem.obj
 0001:00011d20       ?setSolidRestOffset@?$NpParticleSystem@VPxPBDParticleSystem@physx@@@physx@@UEAAXM@Z 0000000180012d20 f i NpParticleSystem.obj
 0001:00011d60       ?setSolverIterationCounts@?$NpParticleSystem@VPxPBDParticleSystem@physx@@@physx@@UEAAXII@Z 0000000180012d60 f i NpParticleSystem.obj
 0001:00011dd0       ?setWind@NpPBDParticleSystem@physx@@UEAAXAEBV?$PxVec3T@M@2@@Z 0000000180012dd0 f i NpParticleSystem.obj
 0001:00011e10       ?visualize@NpPBDParticleSystem@physx@@UEBAXAEAVPxRenderOutput@2@AEAVNpScene@2@@Z 0000000180012e10 f   NpParticleSystem.obj
 0001:00011ea0       ?writeSprings@NpParticleClothPreProcessor@physx@@AEAAXPEBUPxParticleSpring@2@PEAI111@Z 0000000180012ea0 f   NpParticleSystem.obj
 0001:00012050       PxCreateParticleClothPreProcessor 0000000180013050 f   NpParticleSystem.obj
 0001:00012120       ??0NpConstraint@physx@@QEAA@PEAVPxRigidActor@1@0AEAVPxConstraintConnector@1@AEBUPxConstraintShaderTable@1@I@Z 0000000180013120 f   NpConstraint.obj
 0001:000122c0       ??_ENpConstraint@physx@@UEAAPEAXI@Z 00000001800132c0 f i NpConstraint.obj
 0001:000122c0       ??_GNpConstraint@physx@@UEAAPEAXI@Z 00000001800132c0 f i NpConstraint.obj
 0001:00012350       ?actorDeleted@NpConstraint@physx@@QEAAXPEAVPxRigidActor@2@@Z 0000000180013350 f   NpConstraint.obj
 0001:00012370       ?comShift@NpConstraint@physx@@QEAAXPEAVPxRigidActor@2@@Z 0000000180013370 f   NpConstraint.obj
 0001:000123c0       ?createObject@NpConstraint@physx@@SAPEAV12@AEAPEAEAEAVPxDeserializationContext@2@@Z 00000001800133c0 f   NpConstraint.obj
 0001:00012460       ?getActors@NpConstraint@physx@@UEBAXAEAPEAVPxRigidActor@2@0@Z 0000000180013460 f   NpConstraint.obj
 0001:00012470       ?getBreakForce@NpConstraint@physx@@UEBAXAEAM0@Z 0000000180013470 f   NpConstraint.obj
 0001:00012480       ?getConcreteTypeName@PxConstraint@physx@@UEBAPEBDXZ 0000000180013480 f i NpConstraint.obj
 0001:00012490       ?getExternalReference@NpConstraint@physx@@UEAAPEAXAEAI@Z 0000000180013490 f   NpConstraint.obj
 0001:000124a0       ?getFlags@NpConstraint@physx@@UEBA?AV?$PxFlags@W4Enum@PxConstraintFlag@physx@@G@2@XZ 00000001800134a0 f   NpConstraint.obj
 0001:000124c0       ?getForce@NpConstraint@physx@@UEBAXAEAV?$PxVec3T@M@2@0@Z 00000001800134c0 f   NpConstraint.obj
 0001:00012520       ?getMinResponseThreshold@NpConstraint@physx@@UEBAMXZ 0000000180013520 f   NpConstraint.obj
 0001:00012530       ?getSceneFromActors@NpConstraint@physx@@QEBAPEAVNpScene@2@XZ 0000000180013530 f   NpConstraint.obj
 0001:000125d0       ?isKindOf@PxConstraint@physx@@MEBA_NPEBD@Z 00000001800135d0 f i NpConstraint.obj
 0001:00012620       ?isSubordinate@?$PxSerializerDefaultAdapter@VNpArticulationJointReducedCoordinate@physx@@@physx@@UEBA_NXZ 0000000180013620 f i NpSerializerAdapter.obj
 0001:00012620       ?isSubordinate@?$PxSerializerDefaultAdapter@VNpArticulationLink@physx@@@physx@@UEBA_NXZ 0000000180013620 f i NpSerializerAdapter.obj
 0001:00012620       ?isSubordinate@?$PxSerializerDefaultAdapter@VNpConstraint@physx@@@physx@@UEBA_NXZ 0000000180013620 f i NpSerializerAdapter.obj
 0001:00012620       ?isSubordinate@NpArticulationAttachment@physx@@UEBA_NXZ 0000000180013620 f i NpArticulationTendon.obj
 0001:00012620       ?isSubordinate@NpArticulationFixedTendon@physx@@UEBA_NXZ 0000000180013620 f i NpArticulationTendon.obj
 0001:00012620       ?isSubordinate@NpArticulationJointReducedCoordinate@physx@@UEBA_NXZ 0000000180013620 f i NpArticulationJointReducedCoordinate.obj
 0001:00012620       ?isSubordinate@NpArticulationLink@physx@@UEBA_NXZ 0000000180013620 f i NpArticulationLink.obj
 0001:00012620       ?isSubordinate@NpArticulationSensor@physx@@UEBA_NXZ 0000000180013620 f i NpArticulationSensor.obj
 0001:00012620       ?isSubordinate@NpArticulationSpatialTendon@physx@@UEBA_NXZ 0000000180013620 f i NpArticulationTendon.obj
 0001:00012620       ?isSubordinate@NpArticulationTendonJoint@physx@@UEBA_NXZ 0000000180013620 f i NpArticulationTendon.obj
 0001:00012620       ?isSubordinate@NpConstraint@physx@@UEBA_NXZ 0000000180013620 f i NpConstraint.obj
 0001:00012620       __acrt_uninitialize_command_line 0000000180013620 f i libucrt:argv_data.obj
 0001:00012630       ?isValid@NpConstraint@physx@@UEBA_NXZ 0000000180013630 f   NpConstraint.obj
 0001:00012670       ?markDirty@NpConstraint@physx@@UEAAXXZ 0000000180013670 f   NpConstraint.obj
 0001:000126b0       ?release@NpConstraint@physx@@UEAAXXZ 00000001800136b0 f   NpConstraint.obj
 0001:00012760       ?removeConnectors@NpConstraint@physx@@AEAAXPEBD0@Z 0000000180013760 f   NpConstraint.obj
 0001:000127e0       ?setActors@NpConstraint@physx@@UEAAXPEAVPxRigidActor@2@0@Z 00000001800137e0 f   NpConstraint.obj
 0001:00012a20       ?setBreakForce@NpConstraint@physx@@UEAAXMM@Z 0000000180013a20 f   NpConstraint.obj
 0001:00012a90       ?setConstraintFunctions@NpConstraint@physx@@UEAAXAEAVPxConstraintConnector@2@AEBUPxConstraintShaderTable@2@@Z 0000000180013a90 f   NpConstraint.obj
 0001:00012c00       ?setFlag@NpConstraint@physx@@UEAAXW4Enum@PxConstraintFlag@2@_N@Z 0000000180013c00 f   NpConstraint.obj
 0001:00012c90       ?setFlags@NpConstraint@physx@@UEAAXV?$PxFlags@W4Enum@PxConstraintFlag@physx@@G@2@@Z 0000000180013c90 f   NpConstraint.obj
 0001:00012d10       ?setMinResponseThreshold@NpConstraint@physx@@UEAAXM@Z 0000000180013d10 f   NpConstraint.obj
 0001:00012d70       ?updateConstants@NpConstraint@physx@@QEAAXAEAVPxsSimulationController@2@@Z 0000000180013d70 f   NpConstraint.obj
 0001:00012e00       ??$PxSort@PEAXU?$PxLess@PEAX@physx@@V?$PxReflectionAllocator@V?$PtrBlock@$03@NpPtrTableStorageManager@physx@@@2@@physx@@YAXPEAPEAXIAEBU?$PxLess@PEAX@0@AEBV?$PxReflectionAllocator@V?$PtrBlock@$03@NpPtrTableStorageManager@physx@@@0@I@Z 0000000180013e00 f i NpFactory.obj
 0001:00013260       ??$PxSort@PEAXU?$PxLess@PEAX@physx@@V?$PxReflectionAllocator@V?$PtrBlock@$0BA@@NpPtrTableStorageManager@physx@@@2@@physx@@YAXPEAPEAXIAEBU?$PxLess@PEAX@0@AEBV?$PxReflectionAllocator@V?$PtrBlock@$0BA@@NpPtrTableStorageManager@physx@@@0@I@Z 0000000180014260 f i NpFactory.obj
 0001:000136c0       ??$PxSort@PEAXU?$PxLess@PEAX@physx@@V?$PxReflectionAllocator@V?$PtrBlock@$0EA@@NpPtrTableStorageManager@physx@@@2@@physx@@YAXPEAPEAXIAEBU?$PxLess@PEAX@0@AEBV?$PxReflectionAllocator@V?$PtrBlock@$0EA@@NpPtrTableStorageManager@physx@@@0@I@Z 00000001800146c0 f i NpFactory.obj
 0001:00013b20       ??$PxSort@PEAXU?$PxLess@PEAX@physx@@V?$PxReflectionAllocator@VNpAggregate@physx@@@2@@physx@@YAXPEAPEAXIAEBU?$PxLess@PEAX@0@AEBV?$PxReflectionAllocator@VNpAggregate@physx@@@0@I@Z 0000000180014b20 f i NpFactory.obj
 0001:00013f80       ??$PxSort@PEAXU?$PxLess@PEAX@physx@@V?$PxReflectionAllocator@VNpArticulationJointReducedCoordinate@physx@@@2@@physx@@YAXPEAPEAXIAEBU?$PxLess@PEAX@0@AEBV?$PxReflectionAllocator@VNpArticulationJointReducedCoordinate@physx@@@0@I@Z 0000000180014f80 f i NpFactory.obj
 0001:000143e0       ??$PxSort@PEAXU?$PxLess@PEAX@physx@@V?$PxReflectionAllocator@VNpArticulationLink@physx@@@2@@physx@@YAXPEAPEAXIAEBU?$PxLess@PEAX@0@AEBV?$PxReflectionAllocator@VNpArticulationLink@physx@@@0@I@Z 00000001800153e0 f i NpFactory.obj
 0001:00014840       ??$PxSort@PEAXU?$PxLess@PEAX@physx@@V?$PxReflectionAllocator@VNpArticulationReducedCoordinate@physx@@@2@@physx@@YAXPEAPEAXIAEBU?$PxLess@PEAX@0@AEBV?$PxReflectionAllocator@VNpArticulationReducedCoordinate@physx@@@0@I@Z 0000000180015840 f i NpFactory.obj
 0001:00014ca0       ??$PxSort@PEAXU?$PxLess@PEAX@physx@@V?$PxReflectionAllocator@VNpConnectorArray@physx@@@2@@physx@@YAXPEAPEAXIAEBU?$PxLess@PEAX@0@AEBV?$PxReflectionAllocator@VNpConnectorArray@physx@@@0@I@Z 0000000180015ca0 f i NpFactory.obj
 0001:00015100       ??$PxSort@PEAXU?$PxLess@PEAX@physx@@V?$PxReflectionAllocator@VNpConstraint@physx@@@2@@physx@@YAXPEAPEAXIAEBU?$PxLess@PEAX@0@AEBV?$PxReflectionAllocator@VNpConstraint@physx@@@0@I@Z 0000000180016100 f i NpFactory.obj
 0001:00015560       ??$PxSort@PEAXU?$PxLess@PEAX@physx@@V?$PxReflectionAllocator@VNpFEMSoftBodyMaterial@physx@@@2@@physx@@YAXPEAPEAXIAEBU?$PxLess@PEAX@0@AEBV?$PxReflectionAllocator@VNpFEMSoftBodyMaterial@physx@@@0@I@Z 0000000180016560 f i NpFactory.obj
 0001:000159c0       ??$PxSort@PEAXU?$PxLess@PEAX@physx@@V?$PxReflectionAllocator@VNpMaterial@physx@@@2@@physx@@YAXPEAPEAXIAEBU?$PxLess@PEAX@0@AEBV?$PxReflectionAllocator@VNpMaterial@physx@@@0@I@Z 00000001800169c0 f i NpFactory.obj
 0001:00015e20       ??$PxSort@PEAXU?$PxLess@PEAX@physx@@V?$PxReflectionAllocator@VNpPBDMaterial@physx@@@2@@physx@@YAXPEAPEAXIAEBU?$PxLess@PEAX@0@AEBV?$PxReflectionAllocator@VNpPBDMaterial@physx@@@0@I@Z 0000000180016e20 f i NpFactory.obj
 0001:00016280       ??$PxSort@PEAXU?$PxLess@PEAX@physx@@V?$PxReflectionAllocator@VNpPBDParticleSystem@physx@@@2@@physx@@YAXPEAPEAXIAEBU?$PxLess@PEAX@0@AEBV?$PxReflectionAllocator@VNpPBDParticleSystem@physx@@@0@I@Z 0000000180017280 f i NpFactory.obj
 0001:000166e0       ??$PxSort@PEAXU?$PxLess@PEAX@physx@@V?$PxReflectionAllocator@VNpRigidDynamic@physx@@@2@@physx@@YAXPEAPEAXIAEBU?$PxLess@PEAX@0@AEBV?$PxReflectionAllocator@VNpRigidDynamic@physx@@@0@I@Z 00000001800176e0 f i NpFactory.obj
 0001:00016b40       ??$PxSort@PEAXU?$PxLess@PEAX@physx@@V?$PxReflectionAllocator@VNpRigidStatic@physx@@@2@@physx@@YAXPEAPEAXIAEBU?$PxLess@PEAX@0@AEBV?$PxReflectionAllocator@VNpRigidStatic@physx@@@0@I@Z 0000000180017b40 f i NpFactory.obj
 0001:00016fa0       ??$PxSort@PEAXU?$PxLess@PEAX@physx@@V?$PxReflectionAllocator@VNpShape@physx@@@2@@physx@@YAXPEAPEAXIAEBU?$PxLess@PEAX@0@AEBV?$PxReflectionAllocator@VNpShape@physx@@@0@I@Z 0000000180017fa0 f i NpFactory.obj
 0001:00017400       ??$PxSort@PEAXU?$PxLess@PEAX@physx@@V?$PxReflectionAllocator@VNpSoftBody@physx@@@2@@physx@@YAXPEAPEAXIAEBU?$PxLess@PEAX@0@AEBV?$PxReflectionAllocator@VNpSoftBody@physx@@@0@I@Z 0000000180018400 f i NpFactory.obj
 0001:00017860       ??$construct@$$CBVPxGeometry@physx@@V?$PxFlags@W4Enum@PxShapeFlag@physx@@E@2@PEAGG_NW4Enum@PxShapeCoreFlag@2@@?$PxPoolBase@VNpShape@physx@@V?$PxReflectionAllocator@VNpShape@physx@@@2@@physx@@QEAAPEAVNpShape@1@AEBVPxGeometry@1@AEAV?$PxFlags@W4Enum@PxShapeFlag@physx@@E@1@AEAPEAGAEAGAEA_NAEAW4Enum@PxShapeCoreFlag@1@@Z 0000000180018860 f i NpFactory.obj
 0001:000179e0       ??$createShapeInternal@VPxFEMSoftBodyMaterial@physx@@VNpFEMSoftBodyMaterial@2@@NpFactory@physx@@AEAAPEAVNpShape@1@AEBVPxGeometry@1@V?$PxFlags@W4Enum@PxShapeFlag@physx@@E@1@PEBQEAVPxFEMSoftBodyMaterial@1@G_NW4Enum@PxShapeCoreFlag@1@@Z 00000001800189e0 f i NpFactory.obj
 0001:00017ba0       ??$createShapeInternal@VPxMaterial@physx@@VNpMaterial@2@@NpFactory@physx@@AEAAPEAVNpShape@1@AEBVPxGeometry@1@V?$PxFlags@W4Enum@PxShapeFlag@physx@@E@1@PEBQEAVPxMaterial@1@G_NW4Enum@PxShapeCoreFlag@1@@Z 0000000180018ba0 f i NpFactory.obj
 0001:00018440       ??0?$PxMutexT@V?$PxReflectionAllocator@VPxMutexImpl@physx@@@physx@@@physx@@QEAA@AEBV?$PxReflectionAllocator@VPxMutexImpl@physx@@@1@@Z 0000000180019440 f i NpFactory.obj
 0001:000184d0       ??0NpFactory@physx@@QEAA@XZ 00000001800194d0 f   NpFactory.obj
 0001:00019000       ??1?$PxPoolBase@V?$PtrBlock@$03@NpPtrTableStorageManager@physx@@V?$PxReflectionAllocator@V?$PtrBlock@$03@NpPtrTableStorageManager@physx@@@3@@physx@@QEAA@XZ 000000018001a000 f i NpFactory.obj
 0001:00019160       ??1?$PxPoolBase@V?$PtrBlock@$0BA@@NpPtrTableStorageManager@physx@@V?$PxReflectionAllocator@V?$PtrBlock@$0BA@@NpPtrTableStorageManager@physx@@@3@@physx@@QEAA@XZ 000000018001a160 f i NpFactory.obj
 0001:000192c0       ??1?$PxPoolBase@V?$PtrBlock@$0EA@@NpPtrTableStorageManager@physx@@V?$PxReflectionAllocator@V?$PtrBlock@$0EA@@NpPtrTableStorageManager@physx@@@3@@physx@@QEAA@XZ 000000018001a2c0 f i NpFactory.obj
 0001:00019420       ??1?$PxPoolBase@VNpAggregate@physx@@V?$PxReflectionAllocator@VNpAggregate@physx@@@2@@physx@@QEAA@XZ 000000018001a420 f i NpFactory.obj
 0001:00019630       ??1?$PxPoolBase@VNpArticulationJointReducedCoordinate@physx@@V?$PxReflectionAllocator@VNpArticulationJointReducedCoordinate@physx@@@2@@physx@@QEAA@XZ 000000018001a630 f i NpFactory.obj
 0001:00019840       ??1?$PxPoolBase@VNpArticulationLink@physx@@V?$PxReflectionAllocator@VNpArticulationLink@physx@@@2@@physx@@QEAA@XZ 000000018001a840 f i NpFactory.obj
 0001:00019a50       ??1?$PxPoolBase@VNpArticulationReducedCoordinate@physx@@V?$PxReflectionAllocator@VNpArticulationReducedCoordinate@physx@@@2@@physx@@QEAA@XZ 000000018001aa50 f i NpFactory.obj
 0001:00019c60       ??1?$PxPoolBase@VNpConnectorArray@physx@@V?$PxReflectionAllocator@VNpConnectorArray@physx@@@2@@physx@@QEAA@XZ 000000018001ac60 f i NpFactory.obj
 0001:00019d00       ??1?$PxPoolBase@VNpConstraint@physx@@V?$PxReflectionAllocator@VNpConstraint@physx@@@2@@physx@@QEAA@XZ 000000018001ad00 f i NpFactory.obj
 0001:00019f10       ??1?$PxPoolBase@VNpFEMSoftBodyMaterial@physx@@V?$PxReflectionAllocator@VNpFEMSoftBodyMaterial@physx@@@2@@physx@@QEAA@XZ 000000018001af10 f i NpFactory.obj
 0001:0001a120       ??1?$PxPoolBase@VNpMaterial@physx@@V?$PxReflectionAllocator@VNpMaterial@physx@@@2@@physx@@QEAA@XZ 000000018001b120 f i NpFactory.obj
 0001:0001a330       ??1?$PxPoolBase@VNpPBDMaterial@physx@@V?$PxReflectionAllocator@VNpPBDMaterial@physx@@@2@@physx@@QEAA@XZ 000000018001b330 f i NpFactory.obj
 0001:0001a540       ??1?$PxPoolBase@VNpPBDParticleSystem@physx@@V?$PxReflectionAllocator@VNpPBDParticleSystem@physx@@@2@@physx@@QEAA@XZ 000000018001b540 f i NpFactory.obj
 0001:0001a750       ??1?$PxPoolBase@VNpRigidDynamic@physx@@V?$PxReflectionAllocator@VNpRigidDynamic@physx@@@2@@physx@@QEAA@XZ 000000018001b750 f i NpFactory.obj
 0001:0001a960       ??1?$PxPoolBase@VNpRigidStatic@physx@@V?$PxReflectionAllocator@VNpRigidStatic@physx@@@2@@physx@@QEAA@XZ 000000018001b960 f i NpFactory.obj
 0001:0001ab70       ??1?$PxPoolBase@VNpShape@physx@@V?$PxReflectionAllocator@VNpShape@physx@@@2@@physx@@QEAA@XZ 000000018001bb70 f i NpFactory.obj
 0001:0001ad80       ??1?$PxPoolBase@VNpSoftBody@physx@@V?$PxReflectionAllocator@VNpSoftBody@physx@@@2@@physx@@QEAA@XZ 000000018001bd80 f i NpFactory.obj
 0001:0001af90       ??1NpFactory@physx@@EEAA@XZ 000000018001bf90 f   NpFactory.obj
 0001:0001b3b0       ??_ENpFactory@physx@@EEAAPEAXI@Z 000000018001c3b0 f i NpFactory.obj
 0001:0001b3b0       ??_GNpFactory@physx@@EEAAPEAXI@Z 000000018001c3b0 f i NpFactory.obj
 0001:0001b420       ??_ENpPtrTableStorageManager@physx@@UEAAPEAXI@Z 000000018001c420 f i NpFactory.obj
 0001:0001b420       ??_GNpPtrTableStorageManager@physx@@UEAAPEAXI@Z 000000018001c420 f i NpFactory.obj
 0001:0001b4e0       ??_EPtrTableStorageManager@Cm@physx@@MEAAPEAXI@Z 000000018001c4e0 f i NpFactory.obj
 0001:0001b4e0       ??_GPtrTableStorageManager@Cm@physx@@MEAAPEAXI@Z 000000018001c4e0 f i NpFactory.obj
 0001:0001b510       ?NpDestroyAggregate@physx@@YAXPEAVNpAggregate@1@@Z 000000018001c510 f   NpFactory.obj
 0001:0001b5a0       ?NpDestroyArticulation@physx@@YAXPEAVPxArticulationReducedCoordinate@1@@Z 000000018001c5a0 f   NpFactory.obj
 0001:0001b630       ?NpDestroyArticulationJoint@physx@@YAXPEAVPxArticulationJointReducedCoordinate@1@@Z 000000018001c630 f   NpFactory.obj
 0001:0001b6c0       ?NpDestroyArticulationLink@physx@@YAXPEAVNpArticulationLink@1@@Z 000000018001c6c0 f   NpFactory.obj
 0001:0001b750       ?NpDestroyConstraint@physx@@YAXPEAVNpConstraint@1@@Z 000000018001c750 f   NpFactory.obj
 0001:0001b7e0       ?NpDestroyParticleSystem@physx@@YAXPEAVNpPBDParticleSystem@1@@Z 000000018001c7e0 f   NpFactory.obj
 0001:0001b870       ?NpDestroyRigidActor@physx@@YAXPEAVNpRigidStatic@1@@Z 000000018001c870 f   NpFactory.obj
 0001:0001b900       ?NpDestroyRigidDynamic@physx@@YAXPEAVNpRigidDynamic@1@@Z 000000018001c900 f   NpFactory.obj
 0001:0001b990       ?NpDestroyShape@physx@@YAXPEAVNpShape@1@@Z 000000018001c990 f   NpFactory.obj
 0001:0001ba20       ?NpDestroySoftBody@physx@@YAXPEAVNpSoftBody@1@@Z 000000018001ca20 f   NpFactory.obj
 0001:0001bab0       ?acquireConnectorArray@NpFactory@physx@@QEAAPEAVNpConnectorArray@2@XZ 000000018001cab0 f   NpFactory.obj
 0001:0001bc00       ?addCollection@NpFactory@physx@@QEAAXAEBVCollection@Cm@2@@Z 000000018001cc00 f   NpFactory.obj
 0001:0001be70       ?allocate@?$PxArray@GV?$PxInlineAllocator@$07V?$PxReflectionAllocator@G@physx@@@physx@@@physx@@IEAAPEAGI@Z 000000018001ce70 f i NpFactory.obj
 0001:0001bf20       ?allocate@?$PxArray@PEAVPxActor@physx@@V?$PxReflectionAllocator@PEAVPxActor@physx@@@2@@physx@@IEAAPEAPEAVPxActor@2@I@Z 000000018001cf20 f i NpFactory.obj
 0001:0001bfb0       ?allocate@?$PxArray@PEAVPxAggregate@physx@@V?$PxReflectionAllocator@PEAVPxAggregate@physx@@@2@@physx@@IEAAPEAPEAVPxAggregate@2@I@Z 000000018001cfb0 f i NpFactory.obj
 0001:0001c040       ?allocate@?$PxArray@PEAVPxArticulationReducedCoordinate@physx@@V?$PxReflectionAllocator@PEAVPxArticulationReducedCoordinate@physx@@@2@@physx@@IEAAPEAPEAVPxArticulationReducedCoordinate@2@I@Z 000000018001d040 f i NpFactory.obj
 0001:0001c0d0       ?allocate@?$PxArray@PEAVPxConstraint@physx@@V?$PxReflectionAllocator@PEAVPxConstraint@physx@@@2@@physx@@IEAAPEAPEAVPxConstraint@2@I@Z 000000018001d0d0 f i NpFactory.obj
 0001:0001c160       ?allocate@?$PxArray@PEAVPxParticleBuffer@physx@@V?$PxReflectionAllocator@PEAVPxParticleBuffer@physx@@@2@@physx@@IEAAPEAPEAVPxParticleBuffer@2@I@Z 000000018001d160 f i NpFactory.obj
 0001:0001c1f0       ?allocate@?$PxArray@PEAXV?$PxReflectionAllocator@V?$PtrBlock@$03@NpPtrTableStorageManager@physx@@@physx@@@physx@@IEAAPEAPEAXI@Z 000000018001d1f0 f i NpFactory.obj
 0001:0001c280       ?allocate@?$PxArray@PEAXV?$PxReflectionAllocator@V?$PtrBlock@$0BA@@NpPtrTableStorageManager@physx@@@physx@@@physx@@IEAAPEAPEAXI@Z 000000018001d280 f i NpFactory.obj
 0001:0001c310       ?allocate@?$PxArray@PEAXV?$PxReflectionAllocator@V?$PtrBlock@$0EA@@NpPtrTableStorageManager@physx@@@physx@@@physx@@IEAAPEAPEAXI@Z 000000018001d310 f i NpFactory.obj
 0001:0001c3a0       ?allocate@?$PxArray@PEAXV?$PxReflectionAllocator@VNpAggregate@physx@@@physx@@@physx@@IEAAPEAPEAXI@Z 000000018001d3a0 f i NpFactory.obj
 0001:0001c430       ?allocate@?$PxArray@PEAXV?$PxReflectionAllocator@VNpArticulationJointReducedCoordinate@physx@@@physx@@@physx@@IEAAPEAPEAXI@Z 000000018001d430 f i NpFactory.obj
 0001:0001c4c0       ?allocate@?$PxArray@PEAXV?$PxReflectionAllocator@VNpArticulationLink@physx@@@physx@@@physx@@IEAAPEAPEAXI@Z 000000018001d4c0 f i NpFactory.obj
 0001:0001c550       ?allocate@?$PxArray@PEAXV?$PxReflectionAllocator@VNpArticulationReducedCoordinate@physx@@@physx@@@physx@@IEAAPEAPEAXI@Z 000000018001d550 f i NpFactory.obj
 0001:0001c5e0       ?allocate@?$PxArray@PEAXV?$PxReflectionAllocator@VNpConnectorArray@physx@@@physx@@@physx@@IEAAPEAPEAXI@Z 000000018001d5e0 f i NpFactory.obj
 0001:0001c670       ?allocate@?$PxArray@PEAXV?$PxReflectionAllocator@VNpConstraint@physx@@@physx@@@physx@@IEAAPEAPEAXI@Z 000000018001d670 f i NpFactory.obj
 0001:0001c700       ?allocate@?$PxArray@PEAXV?$PxReflectionAllocator@VNpFEMSoftBodyMaterial@physx@@@physx@@@physx@@IEAAPEAPEAXI@Z 000000018001d700 f i NpFactory.obj
 0001:0001c790       ?allocate@?$PxArray@PEAXV?$PxReflectionAllocator@VNpMaterial@physx@@@physx@@@physx@@IEAAPEAPEAXI@Z 000000018001d790 f i NpFactory.obj
 0001:0001c820       ?allocate@?$PxArray@PEAXV?$PxReflectionAllocator@VNpPBDMaterial@physx@@@physx@@@physx@@IEAAPEAPEAXI@Z 000000018001d820 f i NpFactory.obj
 0001:0001c8b0       ?allocate@?$PxArray@PEAXV?$PxReflectionAllocator@VNpPBDParticleSystem@physx@@@physx@@@physx@@IEAAPEAPEAXI@Z 000000018001d8b0 f i NpFactory.obj
 0001:0001c940       ?allocate@?$PxArray@PEAXV?$PxReflectionAllocator@VNpRigidDynamic@physx@@@physx@@@physx@@IEAAPEAPEAXI@Z 000000018001d940 f i NpFactory.obj
 0001:0001c9d0       ?allocate@?$PxArray@PEAXV?$PxReflectionAllocator@VNpRigidStatic@physx@@@physx@@@physx@@IEAAPEAPEAXI@Z 000000018001d9d0 f i NpFactory.obj
 0001:0001ca60       ?allocate@?$PxArray@PEAXV?$PxReflectionAllocator@VNpShape@physx@@@physx@@@physx@@IEAAPEAPEAXI@Z 000000018001da60 f i NpFactory.obj
 0001:0001caf0       ?allocate@?$PxArray@PEAXV?$PxReflectionAllocator@VNpSoftBody@physx@@@physx@@@physx@@IEAAPEAPEAXI@Z 000000018001daf0 f i NpFactory.obj
 0001:0001cb80       ?allocate@NpPtrTableStorageManager@physx@@UEAAPEAPEAXI@Z 000000018001db80 f i NpFactory.obj
 0001:0001cf10       ?canReuse@NpPtrTableStorageManager@physx@@UEAA_NII@Z 000000018001df10 f i NpFactory.obj
 0001:0001cf60       ?create@?$PxHashBase@PEAVPxActor@physx@@PEAV12@U?$PxHash@PEAVPxActor@physx@@@2@UGetKey@?$PxHashSetBase@PEAVPxActor@physx@@U?$PxHash@PEAVPxActor@physx@@@2@VPxAllocator@2@$0A@@2@VPxAllocator@2@$0A@@physx@@QEAAPEAPEAVPxActor@2@AEBQEAV32@AEA_N@Z 000000018001df60 f i NpFactory.obj
 0001:0001cf60       ?create@?$PxHashBase@PEAVPxAggregate@physx@@PEAV12@U?$PxHash@PEAVPxAggregate@physx@@@2@UGetKey@?$PxHashSetBase@PEAVPxAggregate@physx@@U?$PxHash@PEAVPxAggregate@physx@@@2@VPxAllocator@2@$0A@@2@VPxAllocator@2@$0A@@physx@@QEAAPEAPEAVPxAggregate@2@AEBQEAV32@AEA_N@Z 000000018001df60 f i NpFactory.obj
 0001:0001cf60       ?create@?$PxHashBase@PEAVPxArticulationReducedCoordinate@physx@@PEAV12@U?$PxHash@PEAVPxArticulationReducedCoordinate@physx@@@2@UGetKey@?$PxHashSetBase@PEAVPxArticulationReducedCoordinate@physx@@U?$PxHash@PEAVPxArticulationReducedCoordinate@physx@@@2@VPxAllocator@2@$0A@@2@VPxAllocator@2@$0A@@physx@@QEAAPEAPEAVPxArticulationReducedCoordinate@2@AEBQEAV32@AEA_N@Z 000000018001df60 f i NpFactory.obj
 0001:0001cf60       ?create@?$PxHashBase@PEAVPxConstraint@physx@@PEAV12@U?$PxHash@PEAVPxConstraint@physx@@@2@UGetKey@?$PxHashSetBase@PEAVPxConstraint@physx@@U?$PxHash@PEAVPxConstraint@physx@@@2@VPxAllocator@2@$0A@@2@VPxAllocator@2@$0A@@physx@@QEAAPEAPEAVPxConstraint@2@AEBQEAV32@AEA_N@Z 000000018001df60 f i NpFactory.obj
 0001:0001cf60       ?create@?$PxHashBase@PEAVPxParticleBuffer@physx@@PEAV12@U?$PxHash@PEAVPxParticleBuffer@physx@@@2@UGetKey@?$PxHashSetBase@PEAVPxParticleBuffer@physx@@U?$PxHash@PEAVPxParticleBuffer@physx@@@2@VPxAllocator@2@$0A@@2@VPxAllocator@2@$0A@@physx@@QEAAPEAPEAVPxParticleBuffer@2@AEBQEAV32@AEA_N@Z 000000018001df60 f i NpFactory.obj
 0001:0001cf60       ?create@?$PxHashBase@PEBVPxBase@physx@@PEBV12@U?$PxHash@PEBVPxBase@physx@@@2@UGetKey@?$PxHashSetBase@PEBVPxBase@physx@@U?$PxHash@PEBVPxBase@physx@@@2@VPxAllocator@2@$0A@@2@VPxAllocator@2@$0A@@physx@@QEAAPEAPEBVPxBase@2@AEBQEBV32@AEA_N@Z 000000018001df60 f i NpPhysics.obj
 0001:0001d100       ?create@?$PxHashBase@PEAVPxAggregate@physx@@PEAV12@U?$PxHash@PEAVPxAggregate@physx@@@2@UGetKey@?$PxHashSetBase@PEAVPxAggregate@physx@@U?$PxHash@PEAVPxAggregate@physx@@@2@VPxAllocator@2@$00@2@VPxAllocator@2@$00@physx@@QEAAPEAPEAVPxAggregate@2@AEBQEAV32@AEA_N@Z 000000018001e100 f i NpScene.obj
 0001:0001d100       ?create@?$PxHashBase@PEAVPxArticulationReducedCoordinate@physx@@PEAV12@U?$PxHash@PEAVPxArticulationReducedCoordinate@physx@@@2@UGetKey@?$PxHashSetBase@PEAVPxArticulationReducedCoordinate@physx@@U?$PxHash@PEAVPxArticulationReducedCoordinate@physx@@@2@VPxAllocator@2@$00@2@VPxAllocator@2@$00@physx@@QEAAPEAPEAVPxArticulationReducedCoordinate@2@AEBQEAV32@AEA_N@Z 000000018001e100 f i NpScene.obj
 0001:0001d100       ?create@?$PxHashBase@PEAVPxPBDParticleSystem@physx@@PEAV12@U?$PxHash@PEAVPxPBDParticleSystem@physx@@@2@UGetKey@?$PxHashSetBase@PEAVPxPBDParticleSystem@physx@@U?$PxHash@PEAVPxPBDParticleSystem@physx@@@2@VPxAllocator@2@$00@2@VPxAllocator@2@$00@physx@@QEAAPEAPEAVPxPBDParticleSystem@2@AEBQEAV32@AEA_N@Z 000000018001e100 f i NpScene.obj
 0001:0001d100       ?create@?$PxHashBase@PEAVPxShape@physx@@PEAV12@U?$PxHash@PEAVPxShape@physx@@@2@UGetKey@?$PxHashSetBase@PEAVPxShape@physx@@U?$PxHash@PEAVPxShape@physx@@@2@VPxAllocator@2@$00@2@VPxAllocator@2@$00@physx@@QEAAPEAPEAVPxShape@2@AEBQEAV32@AEA_N@Z 000000018001e100 f i NpFactory.obj
 0001:0001d100       ?create@?$PxHashBase@PEAVPxSoftBody@physx@@PEAV12@U?$PxHash@PEAVPxSoftBody@physx@@@2@UGetKey@?$PxHashSetBase@PEAVPxSoftBody@physx@@U?$PxHash@PEAVPxSoftBody@physx@@@2@VPxAllocator@2@$00@2@VPxAllocator@2@$00@physx@@QEAAPEAPEAVPxSoftBody@2@AEBQEAV32@AEA_N@Z 000000018001e100 f i NpScene.obj
 0001:0001d290       ?createAggregate@NpFactory@physx@@QEAAPEAVPxAggregate@2@III@Z 000000018001e290 f   NpFactory.obj
 0001:0001d440       ?createArticulationLink@NpFactory@physx@@QEAAPEAVPxArticulationLink@2@AEAVNpArticulationReducedCoordinate@2@PEAVNpArticulationLink@2@AEBV?$PxTransformT@M@2@@Z 000000018001e440 f   NpFactory.obj
 0001:0001d950       ?createArticulationRC@NpFactory@physx@@QEAAPEAVPxArticulationReducedCoordinate@2@XZ 000000018001e950 f   NpFactory.obj
 0001:0001db20       ?createConstraint@NpFactory@physx@@QEAAPEAVPxConstraint@2@PEAVPxRigidActor@2@0AEAVPxConstraintConnector@2@AEBUPxConstraintShaderTable@2@I@Z 000000018001eb20 f   NpFactory.obj
 0001:0001dd00       ?createFEMSoftBodyMaterial@NpFactory@physx@@QEAAPEAVPxFEMSoftBodyMaterial@2@MMM@Z 000000018001ed00 f   NpFactory.obj
 0001:0001dec0       ?createInstance@NpFactory@physx@@SAXXZ 000000018001eec0 f   NpFactory.obj
 0001:0001df50       ?createMaterial@NpFactory@physx@@QEAAPEAVPxMaterial@2@MMM@Z 000000018001ef50 f   NpFactory.obj
 0001:0001e110       ?createNpArticulationJointRC@NpFactory@physx@@QEAAPEAVNpArticulationJointReducedCoordinate@2@AEAVNpArticulationLink@2@AEBV?$PxTransformT@M@2@01@Z 000000018001f110 f   NpFactory.obj
 0001:0001e290       ?createPBDMaterial@NpFactory@physx@@QEAAPEAVPxPBDMaterial@2@MMMMMMMMMMM@Z 000000018001f290 f   NpFactory.obj
 0001:0001e490       ?createPBDParticleSystem@NpFactory@physx@@QEAAPEAVPxPBDParticleSystem@2@IAEAVPxCudaContextManager@2@@Z 000000018001f490 f   NpFactory.obj
 0001:0001e5f0       ?createParticleAndDiffuseBuffer@NpFactory@physx@@QEAAPEAVPxParticleAndDiffuseBuffer@2@IIIPEAVPxCudaContextManager@2@@Z 000000018001f5f0 f   NpFactory.obj
 0001:0001e6d0       ?createParticleBuffer@NpFactory@physx@@QEAAPEAVPxParticleBuffer@2@IIPEAVPxCudaContextManager@2@@Z 000000018001f6d0 f   NpFactory.obj
 0001:0001e780       ?createParticleClothBuffer@NpFactory@physx@@QEAAPEAVPxParticleClothBuffer@2@IIIIIPEAVPxCudaContextManager@2@@Z 000000018001f780 f   NpFactory.obj
 0001:0001e870       ?createParticleRigidBuffer@NpFactory@physx@@QEAAPEAVPxParticleRigidBuffer@2@IIIPEAVPxCudaContextManager@2@@Z 000000018001f870 f   NpFactory.obj
 0001:0001e950       ?createRigidDynamic@NpFactory@physx@@QEAAPEAVPxRigidDynamic@2@AEBV?$PxTransformT@M@2@@Z 000000018001f950 f   NpFactory.obj
 0001:0001eae0       ?createRigidStatic@NpFactory@physx@@QEAAPEAVPxRigidStatic@2@AEBV?$PxTransformT@M@2@@Z 000000018001fae0 f   NpFactory.obj
 0001:0001ec70       ?createShape@NpFactory@physx@@QEAAPEAVNpShape@2@AEBVPxGeometry@2@V?$PxFlags@W4Enum@PxShapeFlag@physx@@E@2@PEBQEAVPxFEMSoftBodyMaterial@2@G_N@Z 000000018001fc70 f   NpFactory.obj
 0001:0001ecb0       ?createShape@NpFactory@physx@@QEAAPEAVNpShape@2@AEBVPxGeometry@2@V?$PxFlags@W4Enum@PxShapeFlag@physx@@E@2@PEBQEAVPxMaterial@2@G_N@Z 000000018001fcb0 f   NpFactory.obj
 0001:0001ecf0       ?createSoftBody@NpFactory@physx@@QEAAPEAVPxSoftBody@2@AEAVPxCudaContextManager@2@@Z 000000018001fcf0 f   NpFactory.obj
 0001:0001ee40       ?deallocate@NpPtrTableStorageManager@physx@@UEAAXPEAPEAXI@Z 000000018001fe40 f i NpFactory.obj
 0001:0001eee0       ?destroyInstance@NpFactory@physx@@SAXXZ 000000018001fee0 f   NpFactory.obj
 0001:0001ef70       ?disposeElements@?$PxPoolBase@VNpConnectorArray@physx@@V?$PxReflectionAllocator@VNpConnectorArray@physx@@@2@@physx@@IEAAXXZ 000000018001ff70 f i NpFactory.obj
 0001:0001f170       ?getNbAggregates@NpScene@physx@@UEBAIXZ 0000000180020170 f   NpScene.obj
 0001:0001f170       ?getNbShapes@NpFactory@physx@@QEBAIXZ 0000000180020170 f   NpFactory.obj
 0001:0001f180       ?getAggregates@NpScene@physx@@UEBAIPEAPEAVPxAggregate@2@II@Z 0000000180020180 f   NpScene.obj
 0001:0001f180       ?getShapes@NpFactory@physx@@QEBAIPEAPEAVPxShape@2@II@Z 0000000180020180 f   NpFactory.obj
 0001:0001f1e0       ?growAndPushBack@?$PxArray@PEAVPxActor@physx@@V?$PxReflectionAllocator@PEAVPxActor@physx@@@2@@physx@@IEAAAEAPEAVPxActor@2@AEBQEAV32@@Z 00000001800201e0 f i NpFactory.obj
 0001:0001f2a0       ?growAndPushBack@?$PxArray@PEAVPxAggregate@physx@@V?$PxReflectionAllocator@PEAVPxAggregate@physx@@@2@@physx@@IEAAAEAPEAVPxAggregate@2@AEBQEAV32@@Z 00000001800202a0 f i NpFactory.obj
 0001:0001f360       ?growAndPushBack@?$PxArray@PEAVPxArticulationReducedCoordinate@physx@@V?$PxReflectionAllocator@PEAVPxArticulationReducedCoordinate@physx@@@2@@physx@@IEAAAEAPEAVPxArticulationReducedCoordinate@2@AEBQEAV32@@Z 0000000180020360 f i NpFactory.obj
 0001:0001f420       ?growAndPushBack@?$PxArray@PEAVPxConstraint@physx@@V?$PxReflectionAllocator@PEAVPxConstraint@physx@@@2@@physx@@IEAAAEAPEAVPxConstraint@2@AEBQEAV32@@Z 0000000180020420 f i NpFactory.obj
 0001:0001f4e0       ?growAndPushBack@?$PxArray@PEAVPxParticleBuffer@physx@@V?$PxReflectionAllocator@PEAVPxParticleBuffer@physx@@@2@@physx@@IEAAAEAPEAVPxParticleBuffer@2@AEBQEAV32@@Z 00000001800204e0 f i NpFactory.obj
 0001:0001f5a0       ?growAndPushBack@?$PxArray@PEAXV?$PxReflectionAllocator@V?$PtrBlock@$03@NpPtrTableStorageManager@physx@@@physx@@@physx@@IEAAAEAPEAXAEBQEAX@Z 00000001800205a0 f i NpFactory.obj
 0001:0001f660       ?growAndPushBack@?$PxArray@PEAXV?$PxReflectionAllocator@V?$PtrBlock@$0BA@@NpPtrTableStorageManager@physx@@@physx@@@physx@@IEAAAEAPEAXAEBQEAX@Z 0000000180020660 f i NpFactory.obj
 0001:0001f720       ?growAndPushBack@?$PxArray@PEAXV?$PxReflectionAllocator@V?$PtrBlock@$0EA@@NpPtrTableStorageManager@physx@@@physx@@@physx@@IEAAAEAPEAXAEBQEAX@Z 0000000180020720 f i NpFactory.obj
 0001:0001f7e0       ?growAndPushBack@?$PxArray@PEAXV?$PxReflectionAllocator@VNpAggregate@physx@@@physx@@@physx@@IEAAAEAPEAXAEBQEAX@Z 00000001800207e0 f i NpFactory.obj
 0001:0001f8a0       ?growAndPushBack@?$PxArray@PEAXV?$PxReflectionAllocator@VNpArticulationJointReducedCoordinate@physx@@@physx@@@physx@@IEAAAEAPEAXAEBQEAX@Z 00000001800208a0 f i NpFactory.obj
 0001:0001f960       ?growAndPushBack@?$PxArray@PEAXV?$PxReflectionAllocator@VNpArticulationLink@physx@@@physx@@@physx@@IEAAAEAPEAXAEBQEAX@Z 0000000180020960 f i NpFactory.obj
 0001:0001fa20       ?growAndPushBack@?$PxArray@PEAXV?$PxReflectionAllocator@VNpArticulationReducedCoordinate@physx@@@physx@@@physx@@IEAAAEAPEAXAEBQEAX@Z 0000000180020a20 f i NpFactory.obj
 0001:0001fae0       ?growAndPushBack@?$PxArray@PEAXV?$PxReflectionAllocator@VNpConnectorArray@physx@@@physx@@@physx@@IEAAAEAPEAXAEBQEAX@Z 0000000180020ae0 f i NpFactory.obj
 0001:0001fba0       ?growAndPushBack@?$PxArray@PEAXV?$PxReflectionAllocator@VNpConstraint@physx@@@physx@@@physx@@IEAAAEAPEAXAEBQEAX@Z 0000000180020ba0 f i NpFactory.obj
 0001:0001fc60       ?growAndPushBack@?$PxArray@PEAXV?$PxReflectionAllocator@VNpFEMSoftBodyMaterial@physx@@@physx@@@physx@@IEAAAEAPEAXAEBQEAX@Z 0000000180020c60 f i NpFactory.obj
 0001:0001fd20       ?growAndPushBack@?$PxArray@PEAXV?$PxReflectionAllocator@VNpMaterial@physx@@@physx@@@physx@@IEAAAEAPEAXAEBQEAX@Z 0000000180020d20 f i NpFactory.obj
 0001:0001fde0       ?growAndPushBack@?$PxArray@PEAXV?$PxReflectionAllocator@VNpPBDMaterial@physx@@@physx@@@physx@@IEAAAEAPEAXAEBQEAX@Z 0000000180020de0 f i NpFactory.obj
 0001:0001fea0       ?growAndPushBack@?$PxArray@PEAXV?$PxReflectionAllocator@VNpPBDParticleSystem@physx@@@physx@@@physx@@IEAAAEAPEAXAEBQEAX@Z 0000000180020ea0 f i NpFactory.obj
 0001:0001ff60       ?growAndPushBack@?$PxArray@PEAXV?$PxReflectionAllocator@VNpRigidDynamic@physx@@@physx@@@physx@@IEAAAEAPEAXAEBQEAX@Z 0000000180020f60 f i NpFactory.obj
 0001:00020020       ?growAndPushBack@?$PxArray@PEAXV?$PxReflectionAllocator@VNpRigidStatic@physx@@@physx@@@physx@@IEAAAEAPEAXAEBQEAX@Z 0000000180021020 f i NpFactory.obj
 0001:000200e0       ?growAndPushBack@?$PxArray@PEAXV?$PxReflectionAllocator@VNpShape@physx@@@physx@@@physx@@IEAAAEAPEAXAEBQEAX@Z 00000001800210e0 f i NpFactory.obj
 0001:000201a0       ?growAndPushBack@?$PxArray@PEAXV?$PxReflectionAllocator@VNpSoftBody@physx@@@physx@@@physx@@IEAAAEAPEAXAEBQEAX@Z 00000001800211a0 f i NpFactory.obj
 0001:00020260       ?onActorRelease@NpFactory@physx@@QEAAXPEAVPxActor@2@@Z 0000000180021260 f   NpFactory.obj
 0001:00020380       ?onAggregateRelease@NpFactory@physx@@QEAAXPEAVPxAggregate@2@@Z 0000000180021380 f   NpFactory.obj
 0001:000204a0       ?onArticulationRelease@NpFactory@physx@@QEAAXPEAVPxArticulationReducedCoordinate@2@@Z 00000001800214a0 f   NpFactory.obj
 0001:000205c0       ?onConstraintRelease@NpFactory@physx@@QEAAXPEAVPxConstraint@2@@Z 00000001800215c0 f   NpFactory.obj
 0001:000206e0       ?onParticleBufferRelease@NpFactory@physx@@SAXPEAVPxParticleBuffer@2@@Z 00000001800216e0 f   NpFactory.obj
 0001:00020810       ?onShapeRelease@NpFactory@physx@@QEAAXPEAVPxShape@2@@Z 0000000180021810 f   NpFactory.obj
 0001:00020850       ?recreate@?$PxArray@GV?$PxInlineAllocator@$07V?$PxReflectionAllocator@G@physx@@@physx@@@physx@@IEAAXI@Z 0000000180021850 f i NpFactory.obj
 0001:000208f0       ?recreate@?$PxArray@PEAVPxActor@physx@@V?$PxReflectionAllocator@PEAVPxActor@physx@@@2@@physx@@IEAAXI@Z 00000001800218f0 f i NpFactory.obj
 0001:00020990       ?recreate@?$PxArray@PEAVPxAggregate@physx@@V?$PxReflectionAllocator@PEAVPxAggregate@physx@@@2@@physx@@IEAAXI@Z 0000000180021990 f i NpFactory.obj
 0001:00020a30       ?recreate@?$PxArray@PEAVPxArticulationReducedCoordinate@physx@@V?$PxReflectionAllocator@PEAVPxArticulationReducedCoordinate@physx@@@2@@physx@@IEAAXI@Z 0000000180021a30 f i NpFactory.obj
 0001:00020ad0       ?recreate@?$PxArray@PEAVPxConstraint@physx@@V?$PxReflectionAllocator@PEAVPxConstraint@physx@@@2@@physx@@IEAAXI@Z 0000000180021ad0 f i NpFactory.obj
 0001:00020b70       ?recreate@?$PxArray@PEAVPxParticleBuffer@physx@@V?$PxReflectionAllocator@PEAVPxParticleBuffer@physx@@@2@@physx@@IEAAXI@Z 0000000180021b70 f i NpFactory.obj
 0001:00020c10       ?recreate@?$PxArray@PEAXV?$PxReflectionAllocator@V?$PtrBlock@$03@NpPtrTableStorageManager@physx@@@physx@@@physx@@IEAAXI@Z 0000000180021c10 f i NpFactory.obj
 0001:00020cb0       ?recreate@?$PxArray@PEAXV?$PxReflectionAllocator@V?$PtrBlock@$0BA@@NpPtrTableStorageManager@physx@@@physx@@@physx@@IEAAXI@Z 0000000180021cb0 f i NpFactory.obj
 0001:00020d50       ?recreate@?$PxArray@PEAXV?$PxReflectionAllocator@V?$PtrBlock@$0EA@@NpPtrTableStorageManager@physx@@@physx@@@physx@@IEAAXI@Z 0000000180021d50 f i NpFactory.obj
 0001:00020df0       ?recreate@?$PxArray@PEAXV?$PxReflectionAllocator@VNpAggregate@physx@@@physx@@@physx@@IEAAXI@Z 0000000180021df0 f i NpFactory.obj
 0001:00020e90       ?recreate@?$PxArray@PEAXV?$PxReflectionAllocator@VNpArticulationJointReducedCoordinate@physx@@@physx@@@physx@@IEAAXI@Z 0000000180021e90 f i NpFactory.obj
 0001:00020f30       ?recreate@?$PxArray@PEAXV?$PxReflectionAllocator@VNpArticulationLink@physx@@@physx@@@physx@@IEAAXI@Z 0000000180021f30 f i NpFactory.obj
 0001:00020fd0       ?recreate@?$PxArray@PEAXV?$PxReflectionAllocator@VNpArticulationReducedCoordinate@physx@@@physx@@@physx@@IEAAXI@Z 0000000180021fd0 f i NpFactory.obj
 0001:00021070       ?recreate@?$PxArray@PEAXV?$PxReflectionAllocator@VNpConnectorArray@physx@@@physx@@@physx@@IEAAXI@Z 0000000180022070 f i NpFactory.obj
 0001:00021110       ?recreate@?$PxArray@PEAXV?$PxReflectionAllocator@VNpConstraint@physx@@@physx@@@physx@@IEAAXI@Z 0000000180022110 f i NpFactory.obj
 0001:000211b0       ?recreate@?$PxArray@PEAXV?$PxReflectionAllocator@VNpFEMSoftBodyMaterial@physx@@@physx@@@physx@@IEAAXI@Z 00000001800221b0 f i NpFactory.obj
 0001:00021250       ?recreate@?$PxArray@PEAXV?$PxReflectionAllocator@VNpMaterial@physx@@@physx@@@physx@@IEAAXI@Z 0000000180022250 f i NpFactory.obj
 0001:000212f0       ?recreate@?$PxArray@PEAXV?$PxReflectionAllocator@VNpPBDMaterial@physx@@@physx@@@physx@@IEAAXI@Z 00000001800222f0 f i NpFactory.obj
 0001:00021390       ?recreate@?$PxArray@PEAXV?$PxReflectionAllocator@VNpPBDParticleSystem@physx@@@physx@@@physx@@IEAAXI@Z 0000000180022390 f i NpFactory.obj
 0001:00021430       ?recreate@?$PxArray@PEAXV?$PxReflectionAllocator@VNpRigidDynamic@physx@@@physx@@@physx@@IEAAXI@Z 0000000180022430 f i NpFactory.obj
 0001:000214d0       ?recreate@?$PxArray@PEAXV?$PxReflectionAllocator@VNpRigidStatic@physx@@@physx@@@physx@@IEAAXI@Z 00000001800224d0 f i NpFactory.obj
 0001:00021570       ?recreate@?$PxArray@PEAXV?$PxReflectionAllocator@VNpShape@physx@@@physx@@@physx@@IEAAXI@Z 0000000180022570 f i NpFactory.obj
 0001:00021610       ?recreate@?$PxArray@PEAXV?$PxReflectionAllocator@VNpSoftBody@physx@@@physx@@@physx@@IEAAXI@Z 0000000180022610 f i NpFactory.obj
 0001:000216b0       ?releaseConnectorArray@NpFactory@physx@@QEAAXPEAVNpConnectorArray@2@@Z 00000001800226b0 f   NpFactory.obj
 0001:00021740       ?releaseFEMMaterialToPool@NpFactory@physx@@QEAAXAEAVPxFEMSoftBodyMaterial@2@@Z 0000000180022740 f   NpFactory.obj
 0001:000217a0       ?releaseMaterialToPool@NpFactory@physx@@QEAAXAEAVNpMaterial@2@@Z 00000001800227a0 f   NpFactory.obj
 0001:00021800       ?releasePBDMaterialToPool@NpFactory@physx@@QEAAXAEAVPxPBDMaterial@2@@Z 0000000180022800 f   NpFactory.obj
 0001:00021860       ?reserveInternal@?$PxHashBase@PEAVPxActor@physx@@PEAV12@U?$PxHash@PEAVPxActor@physx@@@2@UGetKey@?$PxHashSetBase@PEAVPxActor@physx@@U?$PxHash@PEAVPxActor@physx@@@2@VPxAllocator@2@$0A@@2@VPxAllocator@2@$0A@@physx@@AEAAXI@Z 0000000180022860 f i NpFactory.obj
 0001:00021860       ?reserveInternal@?$PxHashBase@PEAVPxAggregate@physx@@PEAV12@U?$PxHash@PEAVPxAggregate@physx@@@2@UGetKey@?$PxHashSetBase@PEAVPxAggregate@physx@@U?$PxHash@PEAVPxAggregate@physx@@@2@VPxAllocator@2@$0A@@2@VPxAllocator@2@$0A@@physx@@AEAAXI@Z 0000000180022860 f i NpFactory.obj
 0001:00021860       ?reserveInternal@?$PxHashBase@PEAVPxArticulationReducedCoordinate@physx@@PEAV12@U?$PxHash@PEAVPxArticulationReducedCoordinate@physx@@@2@UGetKey@?$PxHashSetBase@PEAVPxArticulationReducedCoordinate@physx@@U?$PxHash@PEAVPxArticulationReducedCoordinate@physx@@@2@VPxAllocator@2@$0A@@2@VPxAllocator@2@$0A@@physx@@AEAAXI@Z 0000000180022860 f i NpFactory.obj
 0001:00021860       ?reserveInternal@?$PxHashBase@PEAVPxConstraint@physx@@PEAV12@U?$PxHash@PEAVPxConstraint@physx@@@2@UGetKey@?$PxHashSetBase@PEAVPxConstraint@physx@@U?$PxHash@PEAVPxConstraint@physx@@@2@VPxAllocator@2@$0A@@2@VPxAllocator@2@$0A@@physx@@AEAAXI@Z 0000000180022860 f i NpFactory.obj
 0001:00021860       ?reserveInternal@?$PxHashBase@PEAVPxParticleBuffer@physx@@PEAV12@U?$PxHash@PEAVPxParticleBuffer@physx@@@2@UGetKey@?$PxHashSetBase@PEAVPxParticleBuffer@physx@@U?$PxHash@PEAVPxParticleBuffer@physx@@@2@VPxAllocator@2@$0A@@2@VPxAllocator@2@$0A@@physx@@AEAAXI@Z 0000000180022860 f i NpFactory.obj
 0001:00021860       ?reserveInternal@?$PxHashBase@PEBVPxBase@physx@@PEBV12@U?$PxHash@PEBVPxBase@physx@@@2@UGetKey@?$PxHashSetBase@PEBVPxBase@physx@@U?$PxHash@PEBVPxBase@physx@@@2@VPxAllocator@2@$0A@@2@VPxAllocator@2@$0A@@physx@@AEAAXI@Z 0000000180022860 f i NpPhysics.obj
 0001:00021c50       ?reserveInternal@?$PxHashBase@PEAVPxAggregate@physx@@PEAV12@U?$PxHash@PEAVPxAggregate@physx@@@2@UGetKey@?$PxHashSetBase@PEAVPxAggregate@physx@@U?$PxHash@PEAVPxAggregate@physx@@@2@VPxAllocator@2@$00@2@VPxAllocator@2@$00@physx@@AEAAXI@Z 0000000180022c50 f i NpScene.obj
 0001:00021c50       ?reserveInternal@?$PxHashBase@PEAVPxArticulationReducedCoordinate@physx@@PEAV12@U?$PxHash@PEAVPxArticulationReducedCoordinate@physx@@@2@UGetKey@?$PxHashSetBase@PEAVPxArticulationReducedCoordinate@physx@@U?$PxHash@PEAVPxArticulationReducedCoordinate@physx@@@2@VPxAllocator@2@$00@2@VPxAllocator@2@$00@physx@@AEAAXI@Z 0000000180022c50 f i NpScene.obj
 0001:00021c50       ?reserveInternal@?$PxHashBase@PEAVPxFEMCloth@physx@@PEAV12@U?$PxHash@PEAVPxFEMCloth@physx@@@2@UGetKey@?$PxHashSetBase@PEAVPxFEMCloth@physx@@U?$PxHash@PEAVPxFEMCloth@physx@@@2@VPxAllocator@2@$00@2@VPxAllocator@2@$00@physx@@AEAAXI@Z 0000000180022c50 f i NpScene.obj
 0001:00021c50       ?reserveInternal@?$PxHashBase@PEAVPxFLIPParticleSystem@physx@@PEAV12@U?$PxHash@PEAVPxFLIPParticleSystem@physx@@@2@UGetKey@?$PxHashSetBase@PEAVPxFLIPParticleSystem@physx@@U?$PxHash@PEAVPxFLIPParticleSystem@physx@@@2@VPxAllocator@2@$00@2@VPxAllocator@2@$00@physx@@AEAAXI@Z 0000000180022c50 f i NpScene.obj
 0001:00021c50       ?reserveInternal@?$PxHashBase@PEAVPxHairSystem@physx@@PEAV12@U?$PxHash@PEAVPxHairSystem@physx@@@2@UGetKey@?$PxHashSetBase@PEAVPxHairSystem@physx@@U?$PxHash@PEAVPxHairSystem@physx@@@2@VPxAllocator@2@$00@2@VPxAllocator@2@$00@physx@@AEAAXI@Z 0000000180022c50 f i NpScene.obj
 0001:00021c50       ?reserveInternal@?$PxHashBase@PEAVPxMPMParticleSystem@physx@@PEAV12@U?$PxHash@PEAVPxMPMParticleSystem@physx@@@2@UGetKey@?$PxHashSetBase@PEAVPxMPMParticleSystem@physx@@U?$PxHash@PEAVPxMPMParticleSystem@physx@@@2@VPxAllocator@2@$00@2@VPxAllocator@2@$00@physx@@AEAAXI@Z 0000000180022c50 f i NpScene.obj
 0001:00021c50       ?reserveInternal@?$PxHashBase@PEAVPxPBDParticleSystem@physx@@PEAV12@U?$PxHash@PEAVPxPBDParticleSystem@physx@@@2@UGetKey@?$PxHashSetBase@PEAVPxPBDParticleSystem@physx@@U?$PxHash@PEAVPxPBDParticleSystem@physx@@@2@VPxAllocator@2@$00@2@VPxAllocator@2@$00@physx@@AEAAXI@Z 0000000180022c50 f i NpScene.obj
 0001:00021c50       ?reserveInternal@?$PxHashBase@PEAVPxShape@physx@@PEAV12@U?$PxHash@PEAVPxShape@physx@@@2@UGetKey@?$PxHashSetBase@PEAVPxShape@physx@@U?$PxHash@PEAVPxShape@physx@@@2@VPxAllocator@2@$00@2@VPxAllocator@2@$00@physx@@AEAAXI@Z 0000000180022c50 f i NpFactory.obj
 0001:00021c50       ?reserveInternal@?$PxHashBase@PEAVPxSoftBody@physx@@PEAV12@U?$PxHash@PEAVPxSoftBody@physx@@@2@UGetKey@?$PxHashSetBase@PEAVPxSoftBody@physx@@U?$PxHash@PEAVPxSoftBody@physx@@@2@VPxAllocator@2@$00@2@VPxAllocator@2@$00@physx@@AEAAXI@Z 0000000180022c50 f i NpScene.obj
 0001:00021e20       ?resize@?$PxArray@GV?$PxInlineAllocator@$07V?$PxReflectionAllocator@G@physx@@@physx@@@physx@@QEAAXIAEBG@Z 0000000180022e20 f i NpFactory.obj
 0001:00021ee0       ?getBinaryMetaData@NpAggregate@physx@@SAXAEAVPxOutputStream@2@@Z 0000000180022ee0 f   NpMetaData.obj
 0001:000221e0       ?getBinaryMetaData@NpArticulationAttachment@physx@@SAXAEAVPxOutputStream@2@@Z 00000001800231e0 f   NpMetaData.obj
 0001:000224b0       ?getBinaryMetaData@NpArticulationAttachmentArray@physx@@SAXAEAVPxOutputStream@2@@Z 00000001800234b0 f   NpMetaData.obj
 0001:000226e0       ?getBinaryMetaData@NpArticulationFixedTendon@physx@@SAXAEAVPxOutputStream@2@@Z 00000001800236e0 f   NpMetaData.obj
 0001:00022940       ?getBinaryMetaData@NpArticulationLink@physx@@SAXAEAVPxOutputStream@2@@Z 0000000180023940 f   NpMetaData.obj
 0001:00022cd0       ?getBinaryMetaData@NpArticulationLinkArray@physx@@SAXAEAVPxOutputStream@2@@Z 0000000180023cd0 f   NpMetaData.obj
 0001:00022f00       ?getBinaryMetaData@NpArticulationReducedCoordinate@physx@@SAXAEAVPxOutputStream@2@@Z 0000000180023f00 f   NpMetaData.obj
 0001:00023770       ?getBinaryMetaData@NpArticulationSpatialTendon@physx@@SAXAEAVPxOutputStream@2@@Z 0000000180024770 f   NpMetaData.obj
 0001:000239d0       ?getBinaryMetaData@NpArticulationTendonJoint@physx@@SAXAEAVPxOutputStream@2@@Z 00000001800249d0 f   NpMetaData.obj
 0001:00023c80       ?getBinaryMetaData@NpArticulationTendonJointArray@physx@@SAXAEAVPxOutputStream@2@@Z 0000000180024c80 f   NpMetaData.obj
 0001:00023eb0       ?getBinaryMetaData@NpConnectorArray@physx@@SAXAEAVPxOutputStream@2@@Z 0000000180024eb0 f   NpMetaData.obj
 0001:000240e0       ?getBinaryMetaData@NpRigidDynamic@physx@@SAXAEAVPxOutputStream@2@@Z 00000001800250e0 f   NpMetaData.obj
 0001:000242f0       ?getBinaryMetaData@NpRigidStatic@physx@@SAXAEAVPxOutputStream@2@@Z 00000001800252f0 f   NpMetaData.obj
 0001:00025330       PxGetPhysicsBinaryMetaData 0000000180026330 f   NpMetaData.obj
 0001:00026200       ??0NpPhysics@physx@@IEAA@AEBVPxTolerancesScale@1@AEBUPxvOffsetTable@1@_NPEAVPsPvd@pvdsdk@1@AEAVPxFoundation@1@PEAVPxOmniPvd@1@@Z 0000000180027200 f   NpPhysics.obj
 0001:00026500       ??1NpPhysics@physx@@MEAA@XZ 0000000180027500 f   NpPhysics.obj
 0001:00026a10       ??_EAdapter@Sq@physx@@UEAAPEAXI@Z 0000000180027a10 f i NpSceneQueries.obj
 0001:00026a10       ??_ECompoundPrunerOverlapCallback@Sq@physx@@UEAAPEAXI@Z 0000000180027a10 f i SceneQuery_static_64:SqQuery.obj
 0001:00026a10       ??_ECompoundPrunerRaycastCallback@Sq@physx@@UEAAPEAXI@Z 0000000180027a10 f i SceneQuery_static_64:SqQuery.obj
 0001:00026a10       ??_EDebugVizCallback@physx@@UEAAPEAXI@Z 0000000180027a10 f i SceneQuery_static_64:SqCompoundPruner.obj
 0001:00026a10       ??_EMeshDeletionListener@NpPhysics@physx@@UEAAPEAXI@Z 0000000180027a10 f i NpPhysics.obj
 0001:00026a10       ??_EMeshFactoryListener@Gu@physx@@MEAAPEAXI@Z 0000000180027a10 f i NpPhysics.obj
 0001:00026a10       ??_EPrunerOverlapCallback@Gu@physx@@UEAAPEAXI@Z 0000000180027a10 f i SceneQuery_static_64:SqQuery.obj
 0001:00026a10       ??_EPrunerPayloadRemovalCallback@Gu@physx@@UEAAPEAXI@Z 0000000180027a10 f i NpSceneQueries.obj
 0001:00026a10       ??_EPrunerRaycastCallback@Gu@physx@@UEAAPEAXI@Z 0000000180027a10 f i SceneQuery_static_64:SqQuery.obj
 0001:00026a10       ??_EPxProcessPxBaseCallback@physx@@UEAAPEAXI@Z 0000000180027a10 f i NpSerializerAdapter.obj
 0001:00026a10       ??_GAdapter@Sq@physx@@UEAAPEAXI@Z 0000000180027a10 f i NpSceneQueries.obj
 0001:00026a10       ??_GCompoundPrunerOverlapCallback@Sq@physx@@UEAAPEAXI@Z 0000000180027a10 f i SceneQuery_static_64:SqQuery.obj
 0001:00026a10       ??_GCompoundPrunerRaycastCallback@Sq@physx@@UEAAPEAXI@Z 0000000180027a10 f i SceneQuery_static_64:SqQuery.obj
 0001:00026a10       ??_GDebugVizCallback@physx@@UEAAPEAXI@Z 0000000180027a10 f i SceneQuery_static_64:SqCompoundPruner.obj
 0001:00026a10       ??_GMeshDeletionListener@NpPhysics@physx@@UEAAPEAXI@Z 0000000180027a10 f i NpPhysics.obj
 0001:00026a10       ??_GMeshFactoryListener@Gu@physx@@MEAAPEAXI@Z 0000000180027a10 f i NpPhysics.obj
 0001:00026a10       ??_GPrunerOverlapCallback@Gu@physx@@UEAAPEAXI@Z 0000000180027a10 f i SceneQuery_static_64:SqQuery.obj
 0001:00026a10       ??_GPrunerPayloadRemovalCallback@Gu@physx@@UEAAPEAXI@Z 0000000180027a10 f i NpSceneQueries.obj
 0001:00026a10       ??_GPrunerRaycastCallback@Gu@physx@@UEAAPEAXI@Z 0000000180027a10 f i SceneQuery_static_64:SqQuery.obj
 0001:00026a10       ??_GPxProcessPxBaseCallback@physx@@UEAAPEAXI@Z 0000000180027a10 f i NpSerializerAdapter.obj
 0001:00026a40       ??_ENpPhysics@physx@@MEAAPEAXI@Z 0000000180027a40 f i NpPhysics.obj
 0001:00026a40       ??_GNpPhysics@physx@@MEAAPEAXI@Z 0000000180027a40 f i NpPhysics.obj
 0001:00026ab0       ??_ENpPhysicsInsertionCallback@physx@@UEAAPEAXI@Z 0000000180027ab0 f i NpPhysics.obj
 0001:00026ab0       ??_EPxInsertionCallback@physx@@MEAAPEAXI@Z 0000000180027ab0 f i NpPhysics.obj
 0001:00026ab0       ??_ESqBoundsSync@Sc@physx@@UEAAPEAXI@Z 0000000180027ab0 f i NpSceneQueries.obj
 0001:00026ab0       ??_ESqRefFinder@Sc@physx@@UEAAPEAXI@Z 0000000180027ab0 f i NpSceneQueries.obj
 0001:00026ab0       ??_GNpPhysicsInsertionCallback@physx@@UEAAPEAXI@Z 0000000180027ab0 f i NpPhysics.obj
 0001:00026ab0       ??_GPxInsertionCallback@physx@@MEAAPEAXI@Z 0000000180027ab0 f i NpPhysics.obj
 0001:00026ab0       ??_GSqBoundsSync@Sc@physx@@UEAAPEAXI@Z 0000000180027ab0 f i NpSceneQueries.obj
 0001:00026ab0       ??_GSqRefFinder@Sc@physx@@UEAAPEAXI@Z 0000000180027ab0 f i NpSceneQueries.obj
 0001:00026ae0       ??_EPxPhysics@physx@@UEAAPEAXI@Z 0000000180027ae0 f i NpPhysics.obj
 0001:00026ae0       ??_GPxPhysics@physx@@UEAAPEAXI@Z 0000000180027ae0 f i NpPhysics.obj
 0001:00026b10       ?addMaterial@NpPhysics@physx@@QEAAPEAVNpFEMSoftBodyMaterial@2@PEAV32@@Z 0000000180027b10 f   NpPhysics.obj
 0001:00026c00       ?addMaterial@NpPhysics@physx@@QEAAPEAVNpMaterial@2@PEAV32@@Z 0000000180027c00 f   NpPhysics.obj
 0001:00026cf0       ?buildObjectFromData@NpPhysicsInsertionCallback@physx@@UEAAPEAVPxBase@2@W4Enum@PxConcreteType@2@PEAX@Z 0000000180027cf0 f i NpPhysics.obj
 0001:00026dd0       ?create@?$PxHashBase@V?$PxPair@QEAVPxDeletionListener@physx@@PEAUNpDelListenerEntry@NpPhysics@2@@physx@@PEAVPxDeletionListener@2@U?$PxHash@PEAVPxDeletionListener@physx@@@2@UGetKey@?$PxHashMapBase@PEAVPxDeletionListener@physx@@PEAUNpDelListenerEntry@NpPhysics@2@U?$PxHash@PEAVPxDeletionListener@physx@@@2@VPxAllocator@2@@2@VPxAllocator@2@$00@physx@@QEAAPEAV?$PxPair@QEAVPxDeletionListener@physx@@PEAUNpDelListenerEntry@NpPhysics@2@@2@AEBQEAVPxDeletionListener@2@AEA_N@Z 0000000180027dd0 f i NpPhysics.obj
 0001:00026f60       ?createAggregate@NpPhysics@physx@@UEAAPEAVPxAggregate@2@III@Z 0000000180027f60 f   NpPhysics.obj
 0001:00026f70       ?createArticulationReducedCoordinate@NpPhysics@physx@@UEAAPEAVPxArticulationReducedCoordinate@2@XZ 0000000180027f70 f   NpPhysics.obj
 0001:00026f80       ?createBVH@NpPhysics@physx@@UEAAPEAVPxBVH@2@AEAVPxInputStream@2@@Z 0000000180027f80 f   NpPhysics.obj
 0001:00026f90       ?createConstraint@NpPhysics@physx@@UEAAPEAVPxConstraint@2@PEAVPxRigidActor@2@0AEAVPxConstraintConnector@2@AEBUPxConstraintShaderTable@2@I@Z 0000000180027f90 f   NpPhysics.obj
 0001:00026fa0       ?createConvexMesh@NpPhysics@physx@@UEAAPEAVPxConvexMesh@2@AEAVPxInputStream@2@@Z 0000000180027fa0 f   NpPhysics.obj
 0001:00026fb0       ?createFEMSoftBodyMaterial@NpPhysics@physx@@UEAAPEAVPxFEMSoftBodyMaterial@2@MMM@Z 0000000180027fb0 f   NpPhysics.obj
 0001:000270b0       ?createHeightField@NpPhysics@physx@@UEAAPEAVPxHeightField@2@AEAVPxInputStream@2@@Z 00000001800280b0 f   NpPhysics.obj
 0001:000270c0       ?createInstance@NpPhysics@physx@@SAPEAV12@IAEAVPxFoundation@2@AEBVPxTolerancesScale@2@_NPEAVPsPvd@pvdsdk@2@PEAVPxOmniPvd@2@@Z 00000001800280c0 f   NpPhysics.obj
 0001:00027340       ?createMaterial@NpPhysics@physx@@UEAAPEAVPxMaterial@2@MMM@Z 0000000180028340 f   NpPhysics.obj
 0001:00027440       ?createPBDMaterial@NpPhysics@physx@@UEAAPEAVPxPBDMaterial@2@MMMMMMMMMMM@Z 0000000180028440 f   NpPhysics.obj
 0001:000275c0       ?createPBDParticleSystem@NpPhysics@physx@@UEAAPEAVPxPBDParticleSystem@2@AEAVPxCudaContextManager@2@I@Z 00000001800285c0 f   NpPhysics.obj
 0001:000275e0       ?createParticleAndDiffuseBuffer@NpPhysics@physx@@UEAAPEAVPxParticleAndDiffuseBuffer@2@IIIPEAVPxCudaContextManager@2@@Z 00000001800285e0 f   NpPhysics.obj
 0001:000275f0       ?createParticleBuffer@NpPhysics@physx@@UEAAPEAVPxParticleBuffer@2@IIPEAVPxCudaContextManager@2@@Z 00000001800285f0 f   NpPhysics.obj
 0001:00027600       ?createParticleClothBuffer@NpPhysics@physx@@UEAAPEAVPxParticleClothBuffer@2@IIIIIPEAVPxCudaContextManager@2@@Z 0000000180028600 f   NpPhysics.obj
 0001:00027610       ?createParticleRigidBuffer@NpPhysics@physx@@UEAAPEAVPxParticleRigidBuffer@2@IIIPEAVPxCudaContextManager@2@@Z 0000000180028610 f   NpPhysics.obj
 0001:00027620       ?createPruningStructure@NpPhysics@physx@@UEAAPEAVPxPruningStructure@2@PEBQEAVPxRigidActor@2@I@Z 0000000180028620 f   NpPhysics.obj
 0001:00027710       ?createRigidDynamic@NpPhysics@physx@@UEAAPEAVPxRigidDynamic@2@AEBV?$PxTransformT@M@2@@Z 0000000180028710 f   NpPhysics.obj
 0001:000277d0       ?createRigidStatic@NpPhysics@physx@@UEAAPEAVPxRigidStatic@2@AEBV?$PxTransformT@M@2@@Z 00000001800287d0 f   NpPhysics.obj
 0001:00027890       ?createScene@NpPhysics@physx@@UEAAPEAVPxScene@2@AEBVPxSceneDesc@2@@Z 0000000180028890 f   NpPhysics.obj
 0001:00027a10       ?createShape@NpPhysics@physx@@UEAAPEAVPxShape@2@AEBVPxGeometry@2@PEBQEAVPxFEMSoftBodyMaterial@2@G_NV?$PxFlags@W4Enum@PxShapeFlag@physx@@E@2@@Z 0000000180028a10 f   NpPhysics.obj
 0001:00027a50       ?createShape@NpPhysics@physx@@UEAAPEAVPxShape@2@AEBVPxGeometry@2@PEBQEAVPxMaterial@2@G_NV?$PxFlags@W4Enum@PxShapeFlag@physx@@E@2@@Z 0000000180028a50 f   NpPhysics.obj
 0001:00027a90       ?createSoftBody@NpPhysics@physx@@UEAAPEAVPxSoftBody@2@AEAVPxCudaContextManager@2@@Z 0000000180028a90 f   NpPhysics.obj
 0001:00027aa0       ?createSoftBodyMesh@NpPhysics@physx@@UEAAPEAVPxSoftBodyMesh@2@AEAVPxInputStream@2@@Z 0000000180028aa0 f   NpPhysics.obj
 0001:00027ab0       ?createTetrahedronMesh@NpPhysics@physx@@UEAAPEAVPxTetrahedronMesh@2@AEAVPxInputStream@2@@Z 0000000180028ab0 f   NpPhysics.obj
 0001:00027ac0       ?createTriangleMesh@NpPhysics@physx@@UEAAPEAVPxTriangleMesh@2@AEAVPxInputStream@2@@Z 0000000180028ac0 f   NpPhysics.obj
 0001:00027ad0       ?erase@?$PxHashBase@V?$PxPair@QEAVPxDeletionListener@physx@@PEAUNpDelListenerEntry@NpPhysics@2@@physx@@PEAVPxDeletionListener@2@U?$PxHash@PEAVPxDeletionListener@physx@@@2@UGetKey@?$PxHashMapBase@PEAVPxDeletionListener@physx@@PEAUNpDelListenerEntry@NpPhysics@2@U?$PxHash@PEAVPxDeletionListener@physx@@@2@VPxAllocator@2@@2@VPxAllocator@2@$00@physx@@QEAA_NAEBQEAVPxDeletionListener@2@@Z 0000000180028ad0 f i NpPhysics.obj
 0001:00027c80       ?getBVHs@NpPhysics@physx@@UEBAIPEAPEAVPxBVH@2@II@Z 0000000180028c80 f   NpPhysics.obj
 0001:00027c90       ?getConvexMeshes@NpPhysics@physx@@UEBAIPEAPEAVPxConvexMesh@2@II@Z 0000000180028c90 f   NpPhysics.obj
 0001:00027ca0       ?getFEMSoftBodyMaterials@NpPhysics@physx@@UEBAIPEAPEAVPxFEMSoftBodyMaterial@2@II@Z 0000000180028ca0 f   NpPhysics.obj
 0001:00027d60       ?getHeightFields@NpPhysics@physx@@UEBAIPEAPEAVPxHeightField@2@II@Z 0000000180028d60 f   NpPhysics.obj
 0001:00027d70       ?getMaterials@NpPhysics@physx@@UEBAIPEAPEAVPxMaterial@2@II@Z 0000000180028d70 f   NpPhysics.obj
 0001:00027e30       ?getNbBVHs@NpPhysics@physx@@UEBAIXZ 0000000180028e30 f   NpPhysics.obj
 0001:00027e40       ?getNbConvexMeshes@NpPhysics@physx@@UEBAIXZ 0000000180028e40 f   NpPhysics.obj
 0001:00027e50       ?getNbFEMSoftBodyMaterials@NpPhysics@physx@@UEBAIXZ 0000000180028e50 f   NpPhysics.obj
 0001:00027e90       ?getNbHeightFields@NpPhysics@physx@@UEBAIXZ 0000000180028e90 f   NpPhysics.obj
 0001:00027ea0       ?getNbMaterials@NpPhysics@physx@@UEBAIXZ 0000000180028ea0 f   NpPhysics.obj
 0001:00027ee0       ?getNbPBDMaterials@NpPhysics@physx@@UEBAIXZ 0000000180028ee0 f   NpPhysics.obj
 0001:00027f20       ?getNbScenes@NpPhysics@physx@@UEBAIXZ 0000000180028f20 f   NpPhysics.obj
 0001:00027f60       ?getNbShapes@NpPhysics@physx@@UEBAIXZ 0000000180028f60 f   NpPhysics.obj
 0001:00027f70       ?getNbTetrahedronMeshes@NpPhysics@physx@@UEBAIXZ 0000000180028f70 f   NpPhysics.obj
 0001:00027f80       ?getNbTriangleMeshes@NpPhysics@physx@@UEBAIXZ 0000000180028f80 f   NpPhysics.obj
 0001:00027f90       ?getPBDMaterials@NpPhysics@physx@@UEBAIPEAPEAVPxPBDMaterial@2@II@Z 0000000180028f90 f   NpPhysics.obj
 0001:00028050       ?getPhysicsInsertionCallback@NpPhysics@physx@@UEAAAEAVPxInsertionCallback@2@XZ 0000000180029050 f i NpPhysics.obj
 0001:00028060       ?getScenes@NpPhysics@physx@@UEBAIPEAPEAVPxScene@2@II@Z 0000000180029060 f   NpPhysics.obj
 0001:000280f0       ?getShapes@NpPhysics@physx@@UEBAIPEAPEAVPxShape@2@II@Z 00000001800290f0 f   NpPhysics.obj
 0001:00028100       ?getTetrahedronMeshes@NpPhysics@physx@@UEBAIPEAPEAVPxTetrahedronMesh@2@II@Z 0000000180029100 f   NpPhysics.obj
 0001:00028110       ?getTolerancesScale@NpPhysics@physx@@UEBAAEBVPxTolerancesScale@2@XZ 0000000180029110 f   NpPhysics.obj
 0001:00028120       ?getTriangleMeshes@NpPhysics@physx@@UEBAIPEAPEAVPxTriangleMesh@2@II@Z 0000000180029120 f   NpPhysics.obj
 0001:00028130       ?growAndPushBack@?$PxArray@IV?$PxReflectionAllocator@I@physx@@@physx@@IEAAAEAIAEBI@Z 0000000180029130 f i NpPhysics.obj
 0001:000281f0       ?growAndPushBack@?$PxArray@PEAVNpScene@physx@@V?$PxReflectionAllocator@PEAVNpScene@physx@@@2@@physx@@IEAAAEAPEAVNpScene@2@AEBQEAV32@@Z 00000001800291f0 f i NpPhysics.obj
 0001:00028310       ?notifyDeletionListeners@NpPhysics@physx@@QEAAXPEBVPxBase@2@PEAXW4Enum@PxDeletionEventFlag@2@@Z 0000000180029310 f   NpPhysics.obj
 0001:00028470       ?onMeshFactoryBufferRelease@MeshDeletionListener@NpPhysics@physx@@UEAAXPEBVPxBase@3@G@Z 0000000180029470 f i NpPhysics.obj
 0001:000285c0       ?registerDeletionListener@NpPhysics@physx@@UEAAXAEAVPxDeletionListener@2@AEBV?$PxFlags@W4Enum@PxDeletionEventFlag@physx@@E@2@_N@Z 00000001800295c0 f   NpPhysics.obj
 0001:000287c0       ?registerDeletionListenerObjects@NpPhysics@physx@@UEAAXAEAVPxDeletionListener@2@PEBQEBVPxBase@2@I@Z 00000001800297c0 f   NpPhysics.obj
 0001:00028910       ?release@NpPhysics@physx@@UEAAXXZ 0000000180029910 f   NpPhysics.obj
 0001:00028960       ?releaseSceneInternal@NpPhysics@physx@@QEAAXAEAVPxScene@2@@Z 0000000180029960 f   NpPhysics.obj
 0001:000289e0       ?removeMaterialFromTable@NpPhysics@physx@@QEAAXAEAVNpFEMSoftBodyMaterial@2@@Z 00000001800299e0 f   NpPhysics.obj
 0001:00028ad0       ?removeMaterialFromTable@NpPhysics@physx@@QEAAXAEAVNpMaterial@2@@Z 0000000180029ad0 f   NpPhysics.obj
 0001:00028bc0       ?removeMaterialFromTable@NpPhysics@physx@@QEAAXAEAVNpPBDMaterial@2@@Z 0000000180029bc0 f   NpPhysics.obj
 0001:00028cc0       ?reserveInternal@?$PxHashBase@V?$PxPair@QEAVPxDeletionListener@physx@@PEAUNpDelListenerEntry@NpPhysics@2@@physx@@PEAVPxDeletionListener@2@U?$PxHash@PEAVPxDeletionListener@physx@@@2@UGetKey@?$PxHashMapBase@PEAVPxDeletionListener@physx@@PEAUNpDelListenerEntry@NpPhysics@2@U?$PxHash@PEAVPxDeletionListener@physx@@@2@VPxAllocator@2@@2@VPxAllocator@2@$00@physx@@AEAAXI@Z 0000000180029cc0 f i NpPhysics.obj
 0001:00028ea0       ?sendMaterialTable@NpPhysics@physx@@QEAA_NAEAVNpScene@2@@Z 0000000180029ea0 f   NpPhysics.obj
 0001:00028fb0       ?setMaterial@?$NpMaterialManager@VNpFEMSoftBodyMaterial@physx@@@physx@@QEAA_NAEAVNpFEMSoftBodyMaterial@2@@Z 0000000180029fb0 f i NpPhysics.obj
 0001:000290f0       ?setMaterial@?$NpMaterialManager@VNpMaterial@physx@@@physx@@QEAA_NAEAVNpMaterial@2@@Z 000000018002a0f0 f i NpPhysics.obj
 0001:00029230       ?setMaterial@?$NpMaterialManager@VNpPBDMaterial@physx@@@physx@@QEAA_NAEAVNpPBDMaterial@2@@Z 000000018002a230 f i NpPhysics.obj
 0001:00029370       ?unregisterDeletionListener@NpPhysics@physx@@UEAAXAEAVPxDeletionListener@2@@Z 000000018002a370 f   NpPhysics.obj
 0001:000294c0       ?unregisterDeletionListenerObjects@NpPhysics@physx@@UEAAXAEAVPxDeletionListener@2@PEBQEBVPxBase@2@I@Z 000000018002a4c0 f   NpPhysics.obj
 0001:000296c0       ?updateMaterial@NpPhysics@physx@@QEAAXAEAVNpFEMSoftBodyMaterial@2@@Z 000000018002a6c0 f   NpPhysics.obj
 0001:00029750       ?updateMaterial@NpPhysics@physx@@QEAAXAEAVNpMaterial@2@@Z 000000018002a750 f   NpPhysics.obj
 0001:000297e0       ?updateMaterial@NpPhysics@physx@@QEAAXAEAVNpPBDMaterial@2@@Z 000000018002a7e0 f   NpPhysics.obj
 0001:00029870       PxAddCollectionToPhysics   000000018002a870 f   NpPhysics.obj
 0001:00029880       PxCreatePhysics            000000018002a880 f   NpPhysics.obj
 0001:00029890       PxGetPhysics               000000018002a890 f   NpPhysics.obj
 0001:00029d10       ??0PruningStructure@Sq@physx@@QEAA@XZ 000000018002ad10 f   NpPruningStructure.obj
 0001:00029d60       ??_EPruningStructure@Sq@physx@@UEAAPEAXI@Z 000000018002ad60 f i NpPruningStructure.obj
 0001:00029d60       ??_GPruningStructure@Sq@physx@@UEAAPEAXI@Z 000000018002ad60 f i NpPruningStructure.obj
 0001:00029e70       ?build@PruningStructure@Sq@physx@@QEAA_NPEBQEAVPxRigidActor@3@I@Z 000000018002ae70 f   NpPruningStructure.obj
 0001:0002a4c0       ?createObject@PruningStructure@Sq@physx@@SAPEAV123@AEAPEAEAEAVPxDeserializationContext@3@@Z 000000018002b4c0 f   NpPruningStructure.obj
 0001:0002a600       ?exportExtraData@PruningStructure@Sq@physx@@QEAAXAEAVPxSerializationContext@3@@Z 000000018002b600 f   NpPruningStructure.obj
 0001:0002a700       ?getConcreteTypeName@PxPruningStructure@physx@@UEBAPEBDXZ 000000018002b700 f i NpPruningStructure.obj
 0001:0002a710       ?getDynamicMergeData@PruningStructure@Sq@physx@@UEBAPEBXXZ 000000018002b710 f   NpPruningStructure.obj
 0001:0002a720       ?getRigidActors@PruningStructure@Sq@physx@@UEBAIPEAPEAVPxRigidActor@3@II@Z 000000018002b720 f   NpPruningStructure.obj
 0001:0002a7b0       ?getStaticMergeData@PruningStructure@Sq@physx@@UEBAPEBXXZ 000000018002b7b0 f   NpPruningStructure.obj
 0001:0002a7c0       ?invalidate@PruningStructure@Sq@physx@@QEAAXPEAVPxActor@3@@Z 000000018002b7c0 f   NpPruningStructure.obj
 0001:0002a850       ?isKindOf@PxPruningStructure@physx@@MEBA_NPEBD@Z 000000018002b850 f i NpPruningStructure.obj
 0001:0002a8a0       ?release@PruningStructure@Sq@physx@@UEAAXXZ 000000018002b8a0 f   NpPruningStructure.obj
 0001:0002a900       ?requiresObjects@PruningStructure@Sq@physx@@UEAAXAEAVPxProcessPxBaseCallback@3@@Z 000000018002b900 f   NpPruningStructure.obj
 0001:0002a950       ?resolveReferences@PruningStructure@Sq@physx@@UEAAXAEAVPxDeserializationContext@3@@Z 000000018002b950 f   NpPruningStructure.obj
 0001:0002aa40       ??0NpRigidDynamic@physx@@QEAA@AEBV?$PxTransformT@M@1@@Z 000000018002ba40 f   NpRigidDynamic.obj
 0001:0002aad0       ??_E?$NpActorTemplate@VPxRigidDynamic@physx@@@physx@@UEAAPEAXI@Z 000000018002bad0 f i NpRigidDynamic.obj
 0001:0002aad0       ??_G?$NpActorTemplate@VPxRigidDynamic@physx@@@physx@@UEAAPEAXI@Z 000000018002bad0 f i NpRigidDynamic.obj
 0001:0002ab50       ??_E?$NpRigidActorTemplate@VPxRigidDynamic@physx@@@physx@@UEAAPEAXI@Z 000000018002bb50 f i NpRigidDynamic.obj
 0001:0002ab50       ??_G?$NpRigidActorTemplate@VPxRigidDynamic@physx@@@physx@@UEAAPEAXI@Z 000000018002bb50 f i NpRigidDynamic.obj
 0001:0002abe0       ??_E?$NpRigidBodyTemplate@VPxRigidDynamic@physx@@@physx@@UEAAPEAXI@Z 000000018002bbe0 f i NpRigidDynamic.obj
 0001:0002abe0       ??_ENpRigidDynamic@physx@@UEAAPEAXI@Z 000000018002bbe0 f i NpRigidDynamic.obj
 0001:0002abe0       ??_G?$NpRigidBodyTemplate@VPxRigidDynamic@physx@@@physx@@UEAAPEAXI@Z 000000018002bbe0 f i NpRigidDynamic.obj
 0001:0002abe0       ??_GNpRigidDynamic@physx@@UEAAPEAXI@Z 000000018002bbe0 f i NpRigidDynamic.obj
 0001:0002ac80       ?NpArticulationGetShapes@physx@@YAIAEAVNpArticulationLink@1@AEAPEBQEAVNpShape@1@PEA_N@Z 000000018002bc80 f   NpArticulationLink.obj
 0001:0002ac80       ?NpRigidDynamicGetShapes@physx@@YAIAEAVNpRigidDynamic@1@AEAPEBQEAVNpShape@1@PEA_N@Z 000000018002bc80 f   NpRigidDynamic.obj
 0001:0002acb0       ?addForce@NpRigidDynamic@physx@@UEAAXAEBV?$PxVec3T@M@2@W4Enum@PxForceMode@2@_N@Z 000000018002bcb0 f   NpRigidDynamic.obj
 0001:0002ad90       ?addSpatialForce@?$NpRigidBodyTemplate@VPxRigidDynamic@physx@@@physx@@IEAAXPEBV?$PxVec3T@M@2@0W4Enum@PxForceMode@2@@Z 000000018002bd90 f i NpRigidDynamic.obj
 0001:0002afc0       ?addTorque@NpRigidDynamic@physx@@UEAAXAEBV?$PxVec3T@M@2@W4Enum@PxForceMode@2@_N@Z 000000018002bfc0 f   NpRigidDynamic.obj
 0001:0002b0a0       ?attachShape@?$NpRigidActorTemplate@VPxArticulationLink@physx@@@physx@@UEAA_NAEAVPxShape@2@@Z 000000018002c0a0 f i NpArticulationLink.obj
 0001:0002b0a0       ?attachShape@?$NpRigidActorTemplate@VPxRigidDynamic@physx@@@physx@@UEAA_NAEAVPxShape@2@@Z 000000018002c0a0 f i NpRigidDynamic.obj
 0001:0002b0a0       ?attachShape@?$NpRigidActorTemplate@VPxRigidStatic@physx@@@physx@@UEAA_NAEAVPxShape@2@@Z 000000018002c0a0 f i NpRigidStatic.obj
 0001:0002b0a0       ?attachShape@?$NpRigidBodyTemplate@VPxRigidDynamic@physx@@@physx@@UEAA_NAEAVPxShape@2@@Z 000000018002c0a0 f i NpRigidDynamic.obj
 0001:0002b190       ?clearForce@NpRigidDynamic@physx@@UEAAXW4Enum@PxForceMode@2@@Z 000000018002c190 f   NpRigidDynamic.obj
 0001:0002b240       ?clearTorque@NpRigidDynamic@physx@@UEAAXW4Enum@PxForceMode@2@@Z 000000018002c240 f   NpRigidDynamic.obj
 0001:0002b2f0       ?createObject@NpRigidDynamic@physx@@SAPEAV12@AEAPEAEAEAVPxDeserializationContext@2@@Z 000000018002c2f0 f   NpRigidDynamic.obj
 0001:0002b3a0       ?detachShape@?$NpRigidActorTemplate@VPxArticulationLink@physx@@@physx@@UEAAXAEAVPxShape@2@_N@Z 000000018002c3a0 f i NpArticulationLink.obj
 0001:0002b3a0       ?detachShape@?$NpRigidActorTemplate@VPxRigidDynamic@physx@@@physx@@UEAAXAEAVPxShape@2@_N@Z 000000018002c3a0 f i NpRigidDynamic.obj
 0001:0002b3a0       ?detachShape@?$NpRigidActorTemplate@VPxRigidStatic@physx@@@physx@@UEAAXAEAVPxShape@2@_N@Z 000000018002c3a0 f i NpRigidStatic.obj
 0001:0002b480       ?exportExtraData@?$NpRigidActorTemplate@VPxArticulationLink@physx@@@physx@@UEAAXAEAVPxSerializationContext@2@@Z 000000018002c480 f i NpArticulationLink.obj
 0001:0002b480       ?exportExtraData@?$NpRigidActorTemplate@VPxRigidDynamic@physx@@@physx@@UEAAXAEAVPxSerializationContext@2@@Z 000000018002c480 f i NpRigidDynamic.obj
 0001:0002b480       ?exportExtraData@?$NpRigidActorTemplate@VPxRigidStatic@physx@@@physx@@UEAAXAEAVPxSerializationContext@2@@Z 000000018002c480 f i NpRigidStatic.obj
 0001:0002b4b0       ?getAngularDamping@?$NpRigidBodyTemplate@VPxArticulationLink@physx@@@physx@@UEBAMXZ 000000018002c4b0 f i NpArticulationLink.obj
 0001:0002b4b0       ?getAngularDamping@?$NpRigidBodyTemplate@VPxRigidDynamic@physx@@@physx@@UEBAMXZ 000000018002c4b0 f i NpRigidDynamic.obj
 0001:0002b4c0       ?getAngularVelocity@?$NpRigidBodyTemplate@VPxArticulationLink@physx@@@physx@@UEBA?AV?$PxVec3T@M@2@XZ 000000018002c4c0 f i NpArticulationLink.obj
 0001:0002b4c0       ?getAngularVelocity@?$NpRigidBodyTemplate@VPxRigidDynamic@physx@@@physx@@UEBA?AV?$PxVec3T@M@2@XZ 000000018002c4c0 f i NpRigidDynamic.obj
 0001:0002b550       ?getCMassLocalPose@?$NpRigidBodyTemplate@VPxArticulationLink@physx@@@physx@@UEBA?AV?$PxTransformT@M@2@XZ 000000018002c550 f i NpArticulationLink.obj
 0001:0002b550       ?getCMassLocalPose@?$NpRigidBodyTemplate@VPxRigidDynamic@physx@@@physx@@UEBA?AV?$PxTransformT@M@2@XZ 000000018002c550 f i NpRigidDynamic.obj
 0001:0002b5a0       ?getConcreteTypeName@PxRigidDynamic@physx@@UEBAPEBDXZ 000000018002c5a0 f i NpRigidDynamic.obj
 0001:0002b5b0       ?getConstraints@?$NpRigidActorTemplate@VPxArticulationLink@physx@@@physx@@UEBAIPEAPEAVPxConstraint@2@II@Z 000000018002c5b0 f i NpArticulationLink.obj
 0001:0002b5b0       ?getConstraints@?$NpRigidActorTemplate@VPxRigidDynamic@physx@@@physx@@UEBAIPEAPEAVPxConstraint@2@II@Z 000000018002c5b0 f i NpRigidDynamic.obj
 0001:0002b5b0       ?getConstraints@?$NpRigidActorTemplate@VPxRigidStatic@physx@@@physx@@UEBAIPEAPEAVPxConstraint@2@II@Z 000000018002c5b0 f i NpRigidStatic.obj
 0001:0002b630       ?getContactReportThreshold@NpRigidDynamic@physx@@UEBAMXZ 000000018002c630 f   NpRigidDynamic.obj
 0001:0002b640       ?getContactSlopCoefficient@?$NpRigidBodyTemplate@VPxArticulationLink@physx@@@physx@@UEBAMXZ 000000018002c640 f i NpArticulationLink.obj
 0001:0002b640       ?getContactSlopCoefficient@?$NpRigidBodyTemplate@VPxRigidDynamic@physx@@@physx@@UEBAMXZ 000000018002c640 f i NpRigidDynamic.obj
 0001:0002b650       ?getGlobalPose@NpRigidDynamic@physx@@UEBA?AV?$PxTransformT@M@2@XZ 000000018002c650 f i NpRigidDynamic.obj
 0001:0002bad0       ?getInternalActorIndex@?$NpRigidActorTemplate@VPxArticulationLink@physx@@@physx@@UEBAIXZ 000000018002cad0 f i NpArticulationLink.obj
 0001:0002bad0       ?getInternalActorIndex@?$NpRigidActorTemplate@VPxRigidDynamic@physx@@@physx@@UEBAIXZ 000000018002cad0 f i NpRigidDynamic.obj
 0001:0002bad0       ?getInternalActorIndex@?$NpRigidActorTemplate@VPxRigidStatic@physx@@@physx@@UEBAIXZ 000000018002cad0 f i NpRigidStatic.obj
 0001:0002baf0       ?getInternalIslandNodeIndex@?$NpRigidBodyTemplate@VPxArticulationLink@physx@@@physx@@UEBA?AVPxNodeIndex@2@XZ 000000018002caf0 f i NpArticulationLink.obj
 0001:0002baf0       ?getInternalIslandNodeIndex@?$NpRigidBodyTemplate@VPxRigidDynamic@physx@@@physx@@UEBA?AVPxNodeIndex@2@XZ 000000018002caf0 f i NpRigidDynamic.obj
 0001:0002bb10       ?getInvMass@?$NpRigidBodyTemplate@VPxArticulationLink@physx@@@physx@@UEBAMXZ 000000018002cb10 f i NpArticulationLink.obj
 0001:0002bb10       ?getInvMass@?$NpRigidBodyTemplate@VPxRigidDynamic@physx@@@physx@@UEBAMXZ 000000018002cb10 f i NpRigidDynamic.obj
 0001:0002bb20       ?getKinematicTarget@NpRigidDynamic@physx@@UEBA_NAEAV?$PxTransformT@M@2@@Z 000000018002cb20 f   NpRigidDynamic.obj
 0001:0002bf30       ?getLinearDamping@?$NpRigidBodyTemplate@VPxArticulationLink@physx@@@physx@@UEBAMXZ 000000018002cf30 f i NpArticulationLink.obj
 0001:0002bf30       ?getLinearDamping@?$NpRigidBodyTemplate@VPxRigidDynamic@physx@@@physx@@UEBAMXZ 000000018002cf30 f i NpRigidDynamic.obj
 0001:0002bf40       ?getLinearVelocity@?$NpRigidBodyTemplate@VPxArticulationLink@physx@@@physx@@UEBA?AV?$PxVec3T@M@2@XZ 000000018002cf40 f i NpArticulationLink.obj
 0001:0002bf40       ?getLinearVelocity@?$NpRigidBodyTemplate@VPxRigidDynamic@physx@@@physx@@UEBA?AV?$PxVec3T@M@2@XZ 000000018002cf40 f i NpRigidDynamic.obj
 0001:0002bfd0       ?getMass@?$NpRigidBodyTemplate@VPxArticulationLink@physx@@@physx@@UEBAMXZ 000000018002cfd0 f i NpArticulationLink.obj
 0001:0002bfd0       ?getMass@?$NpRigidBodyTemplate@VPxRigidDynamic@physx@@@physx@@UEBAMXZ 000000018002cfd0 f i NpRigidDynamic.obj
 0001:0002c000       ?getMassSpaceInertiaTensor@?$NpRigidBodyTemplate@VPxArticulationLink@physx@@@physx@@UEBA?AV?$PxVec3T@M@2@XZ 000000018002d000 f i NpArticulationLink.obj
 0001:0002c000       ?getMassSpaceInertiaTensor@?$NpRigidBodyTemplate@VPxRigidDynamic@physx@@@physx@@UEBA?AV?$PxVec3T@M@2@XZ 000000018002d000 f i NpRigidDynamic.obj
 0001:0002c070       ?getMassSpaceInvInertiaTensor@?$NpRigidBodyTemplate@VPxArticulationLink@physx@@@physx@@UEBA?AV?$PxVec3T@M@2@XZ 000000018002d070 f i NpArticulationLink.obj
 0001:0002c070       ?getMassSpaceInvInertiaTensor@?$NpRigidBodyTemplate@VPxRigidDynamic@physx@@@physx@@UEBA?AV?$PxVec3T@M@2@XZ 000000018002d070 f i NpRigidDynamic.obj
 0001:0002c0a0       ?getMaxAngularVelocity@?$NpRigidBodyTemplate@VPxArticulationLink@physx@@@physx@@UEBAMXZ 000000018002d0a0 f i NpArticulationLink.obj
 0001:0002c0a0       ?getMaxAngularVelocity@?$NpRigidBodyTemplate@VPxRigidDynamic@physx@@@physx@@UEBAMXZ 000000018002d0a0 f i NpRigidDynamic.obj
 0001:0002c0c0       ?getMaxDepenetrationVelocity@?$NpRigidBodyTemplate@VPxArticulationLink@physx@@@physx@@UEBAMXZ 000000018002d0c0 f i NpArticulationLink.obj
 0001:0002c0c0       ?getMaxDepenetrationVelocity@?$NpRigidBodyTemplate@VPxRigidDynamic@physx@@@physx@@UEBAMXZ 000000018002d0c0 f i NpRigidDynamic.obj
 0001:0002c0d0       ?getMaxLinearVelocity@?$NpRigidBodyTemplate@VPxArticulationLink@physx@@@physx@@UEBAMXZ 000000018002d0d0 f i NpArticulationLink.obj
 0001:0002c0d0       ?getMaxLinearVelocity@?$NpRigidBodyTemplate@VPxRigidDynamic@physx@@@physx@@UEBAMXZ 000000018002d0d0 f i NpRigidDynamic.obj
 0001:0002c0f0       ?getMinCCDAdvanceCoefficient@?$NpRigidBodyTemplate@VPxArticulationLink@physx@@@physx@@UEBAMXZ 000000018002d0f0 f i NpArticulationLink.obj
 0001:0002c0f0       ?getMinCCDAdvanceCoefficient@?$NpRigidBodyTemplate@VPxRigidDynamic@physx@@@physx@@UEBAMXZ 000000018002d0f0 f i NpRigidDynamic.obj
 0001:0002c100       ?getNbConstraints@?$NpRigidActorTemplate@VPxArticulationLink@physx@@@physx@@UEBAIXZ 000000018002d100 f i NpArticulationLink.obj
 0001:0002c100       ?getNbConstraints@?$NpRigidActorTemplate@VPxRigidDynamic@physx@@@physx@@UEBAIXZ 000000018002d100 f i NpRigidDynamic.obj
 0001:0002c100       ?getNbConstraints@?$NpRigidActorTemplate@VPxRigidStatic@physx@@@physx@@UEBAIXZ 000000018002d100 f i NpRigidStatic.obj
 0001:0002c110       ?getNbShapes@?$NpRigidActorTemplate@VPxArticulationLink@physx@@@physx@@UEBAIXZ 000000018002d110 f i NpArticulationLink.obj
 0001:0002c110       ?getNbShapes@?$NpRigidActorTemplate@VPxRigidDynamic@physx@@@physx@@UEBAIXZ 000000018002d110 f i NpRigidDynamic.obj
 0001:0002c110       ?getNbShapes@?$NpRigidActorTemplate@VPxRigidStatic@physx@@@physx@@UEBAIXZ 000000018002d110 f i NpRigidStatic.obj
 0001:0002c120       ?getRigidBodyFlags@?$NpRigidBodyTemplate@VPxArticulationLink@physx@@@physx@@UEBA?AV?$PxFlags@W4Enum@PxRigidBodyFlag@physx@@G@2@XZ 000000018002d120 f i NpArticulationLink.obj
 0001:0002c120       ?getRigidBodyFlags@?$NpRigidBodyTemplate@VPxRigidDynamic@physx@@@physx@@UEBA?AV?$PxFlags@W4Enum@PxRigidBodyFlag@physx@@G@2@XZ 000000018002d120 f i NpRigidDynamic.obj
 0001:0002c140       ?getRigidDynamicLockFlags@NpRigidDynamic@physx@@UEBA?AV?$PxFlags@W4Enum@PxRigidDynamicLockFlag@physx@@E@2@XZ 000000018002d140 f   NpRigidDynamic.obj
 0001:0002c150       ?getShapes@?$NpRigidActorTemplate@VPxArticulationLink@physx@@@physx@@UEBAIPEAPEAVPxShape@2@II@Z 000000018002d150 f i NpArticulationLink.obj
 0001:0002c150       ?getShapes@?$NpRigidActorTemplate@VPxRigidDynamic@physx@@@physx@@UEBAIPEAPEAVPxShape@2@II@Z 000000018002d150 f i NpRigidDynamic.obj
 0001:0002c150       ?getShapes@?$NpRigidActorTemplate@VPxRigidStatic@physx@@@physx@@UEBAIPEAPEAVPxShape@2@II@Z 000000018002d150 f i NpRigidStatic.obj
 0001:0002c160       ?getSleepThreshold@NpRigidDynamic@physx@@UEBAMXZ 000000018002d160 f   NpRigidDynamic.obj
 0001:0002c170       ?getSolverIterationCounts@NpRigidDynamic@physx@@UEBAXAEAI0@Z 000000018002d170 f   NpRigidDynamic.obj
 0001:0002c190       ?getCfmScale@NpArticulationLink@physx@@UEBAMXZ 000000018002d190 f   NpArticulationLink.obj
 0001:0002c190       ?getFluidBoundaryDensityScale@ParticleSystemCore@Sc@physx@@QEBAMXZ 000000018002d190 f   SimulationController_static_64:ScParticleSystemCore.obj
 0001:0002c190       ?getStabilizationThreshold@NpRigidDynamic@physx@@UEBAMXZ 000000018002d190 f   NpRigidDynamic.obj
 0001:0002c1a0       ?getSolverType@DynamicsTGSContext@Dy@physx@@UEBA?AW4Enum@PxSolverType@3@XZ 000000018002d1a0 f i LowLevelDynamics_static_64:DyTGSDynamics.obj
 0001:0002c1a0       ?getType@BroadPhaseMBP@Bp@physx@@UEBA?AW4Enum@PxBroadPhaseType@3@XZ 000000018002d1a0 f i LowLevelAABB_static_64:BpBroadPhaseMBP.obj
 0001:0002c1a0       ?getType@NpRigidDynamic@physx@@UEBA?AW4Enum@PxActorType@2@XZ 000000018002d1a0 f i NpRigidDynamic.obj
 0001:0002c1a0       ?length@charNode@@UEBAHXZ  000000018002d1a0 f i libvcruntime:undname.obj
 0001:0002c1a0       ?raw_length@charNode@@UEBAHXZ 000000018002d1a0 f i libvcruntime:undname.obj
 0001:0002c1a0       DllMain                    000000018002d1a0 f i LIBCMT:dll_dllmain_stub.obj
 0001:0002c1a0       _get_startup_argv_mode     000000018002d1a0 f i LIBCMT:argv_mode.obj
 0001:0002c1b0       ?getWakeCounter@NpRigidDynamic@physx@@UEBAMXZ 000000018002d1b0 f   NpRigidDynamic.obj
 0001:0002c210       ?getWorldBounds@?$NpRigidActorTemplate@VPxArticulationLink@physx@@@physx@@UEBA?AVPxBounds3@2@M@Z 000000018002d210 f i NpArticulationLink.obj
 0001:0002c210       ?getWorldBounds@?$NpRigidActorTemplate@VPxRigidDynamic@physx@@@physx@@UEBA?AVPxBounds3@2@M@Z 000000018002d210 f i NpRigidDynamic.obj
 0001:0002c210       ?getWorldBounds@?$NpRigidActorTemplate@VPxRigidStatic@physx@@@physx@@UEBA?AVPxBounds3@2@M@Z 000000018002d210 f i NpRigidStatic.obj
 0001:0002c410       ?importExtraData@?$NpRigidActorTemplate@VPxArticulationLink@physx@@@physx@@UEAAXAEAVPxDeserializationContext@2@@Z 000000018002d410 f i NpArticulationLink.obj
 0001:0002c410       ?importExtraData@?$NpRigidActorTemplate@VPxRigidDynamic@physx@@@physx@@UEAAXAEAVPxDeserializationContext@2@@Z 000000018002d410 f i NpRigidDynamic.obj
 0001:0002c410       ?importExtraData@?$NpRigidActorTemplate@VPxRigidStatic@physx@@@physx@@UEAAXAEAVPxDeserializationContext@2@@Z 000000018002d410 f i NpRigidStatic.obj
 0001:0002c440       ?isKindOf@PxRigidActor@physx@@MEBA_NPEBD@Z 000000018002d440 f i NpRigidDynamic.obj
 0001:0002c4d0       ?isKindOf@PxRigidBody@physx@@MEBA_NPEBD@Z 000000018002d4d0 f i NpRigidDynamic.obj
 0001:0002c560       ?isKindOf@PxRigidDynamic@physx@@MEBA_NPEBD@Z 000000018002d560 f i NpRigidDynamic.obj
 0001:0002c600       ?isSleeping@NpRigidDynamic@physx@@UEBA_NXZ 000000018002d600 f   NpRigidDynamic.obj
 0001:0002c660       ?preExportDataReset@NpRigidDynamic@physx@@QEAAXXZ 000000018002d660 f   NpRigidDynamic.obj
 0001:0002c6d0       ?putToSleep@NpRigidDynamic@physx@@UEAAXXZ 000000018002d6d0 f   NpRigidDynamic.obj
 0001:0002c730       ?release@NpRigidDynamic@physx@@UEAAXXZ 000000018002d730 f   NpRigidDynamic.obj
 0001:0002c850       ?removeShapes@?$NpRigidActorTemplate@VPxArticulationLink@physx@@@physx@@QEAAXPEAVPxSceneQuerySystem@2@@Z 000000018002d850 f i NpArticulationLink.obj
 0001:0002c850       ?removeShapes@?$NpRigidActorTemplate@VPxRigidDynamic@physx@@@physx@@QEAAXPEAVPxSceneQuerySystem@2@@Z 000000018002d850 f i NpRigidDynamic.obj
 0001:0002c850       ?removeShapes@?$NpRigidActorTemplate@VPxRigidStatic@physx@@@physx@@QEAAXPEAVPxSceneQuerySystem@2@@Z 000000018002d850 f i NpRigidStatic.obj
 0001:0002c8c0       ?requiresObjects@?$NpRigidActorTemplate@VPxArticulationLink@physx@@@physx@@UEAAXAEAVPxProcessPxBaseCallback@2@@Z 000000018002d8c0 f i NpArticulationLink.obj
 0001:0002c8c0       ?requiresObjects@?$NpRigidActorTemplate@VPxRigidDynamic@physx@@@physx@@UEAAXAEAVPxProcessPxBaseCallback@2@@Z 000000018002d8c0 f i NpRigidDynamic.obj
 0001:0002c8c0       ?requiresObjects@?$NpRigidActorTemplate@VPxRigidStatic@physx@@@physx@@UEAAXAEAVPxProcessPxBaseCallback@2@@Z 000000018002d8c0 f i NpRigidStatic.obj
 0001:0002c8c0       ?requiresObjects@NpRigidDynamic@physx@@UEAAXAEAVPxProcessPxBaseCallback@2@@Z 000000018002d8c0 f i NpRigidDynamic.obj
 0001:0002c8c0       ?requiresObjects@NpRigidStatic@physx@@UEAAXAEAVPxProcessPxBaseCallback@2@@Z 000000018002d8c0 f i NpRigidStatic.obj
 0001:0002c930       ?resolveReferences@?$NpRigidActorTemplate@VPxArticulationLink@physx@@@physx@@UEAAXAEAVPxDeserializationContext@2@@Z 000000018002d930 f i NpArticulationLink.obj
 0001:0002c930       ?resolveReferences@?$NpRigidActorTemplate@VPxRigidDynamic@physx@@@physx@@UEAAXAEAVPxDeserializationContext@2@@Z 000000018002d930 f i NpRigidDynamic.obj
 0001:0002c930       ?resolveReferences@?$NpRigidActorTemplate@VPxRigidStatic@physx@@@physx@@UEAAXAEAVPxDeserializationContext@2@@Z 000000018002d930 f i NpRigidStatic.obj
 0001:0002c9c0       ?scGetGlobalInertiaTensorInverse@?$NpRigidBodyTemplate@VPxRigidDynamic@physx@@@physx@@QEBA?AV?$PxMat33T@M@2@XZ 000000018002d9c0 f i NpRigidDynamic.obj
 0001:0002cc50       ?setActorFlag@?$NpRigidActorTemplate@VPxRigidDynamic@physx@@@physx@@UEAAXW4Enum@PxActorFlag@2@_N@Z 000000018002dc50 f i NpRigidDynamic.obj
 0001:0002cde0       ?setActorFlags@?$NpRigidActorTemplate@VPxRigidDynamic@physx@@@physx@@UEAAXV?$PxFlags@W4Enum@PxActorFlag@physx@@E@2@@Z 000000018002dde0 f i NpRigidDynamic.obj
 0001:0002cf40       ?setAngularDamping@?$NpRigidBodyTemplate@VPxArticulationLink@physx@@@physx@@UEAAXM@Z 000000018002df40 f i NpArticulationLink.obj
 0001:0002cf40       ?setAngularDamping@?$NpRigidBodyTemplate@VPxRigidDynamic@physx@@@physx@@UEAAXM@Z 000000018002df40 f i NpRigidDynamic.obj
 0001:0002cfa0       ?setAngularVelocity@NpRigidDynamic@physx@@UEAAXAEBV?$PxVec3T@M@2@_N@Z 000000018002dfa0 f   NpRigidDynamic.obj
 0001:0002d060       ?setCMassLocalPose@NpRigidDynamic@physx@@UEAAXAEBV?$PxTransformT@M@2@@Z 000000018002e060 f   NpRigidDynamic.obj
 0001:0002d820       ?setCMassLocalPoseInternal@?$NpRigidBodyTemplate@VPxArticulationLink@physx@@@physx@@IEAAXAEBV?$PxTransformT@M@2@@Z 000000018002e820 f i NpArticulationLink.obj
 0001:0002d820       ?setCMassLocalPoseInternal@?$NpRigidBodyTemplate@VPxRigidDynamic@physx@@@physx@@IEAAXAEBV?$PxTransformT@M@2@@Z 000000018002e820 f i NpRigidDynamic.obj
 0001:0002db90       ?setContactReportThreshold@NpRigidDynamic@physx@@UEAAXM@Z 000000018002eb90 f   NpRigidDynamic.obj
 0001:0002dbf0       ?setContactSlopCoefficient@?$NpRigidBodyTemplate@VPxArticulationLink@physx@@@physx@@UEAAXM@Z 000000018002ebf0 f i NpArticulationLink.obj
 0001:0002dbf0       ?setContactSlopCoefficient@?$NpRigidBodyTemplate@VPxRigidDynamic@physx@@@physx@@UEAAXM@Z 000000018002ebf0 f i NpRigidDynamic.obj
 0001:0002dc50       ?setForceAndTorque@NpRigidDynamic@physx@@UEAAXAEBV?$PxVec3T@M@2@0W4Enum@PxForceMode@2@@Z 000000018002ec50 f   NpRigidDynamic.obj
 0001:0002dd20       ?setGlobalPose@NpRigidDynamic@physx@@UEAAXAEBV?$PxTransformT@M@2@_N@Z 000000018002ed20 f   NpRigidDynamic.obj
 0001:0002e160       ?setKinematicTarget@NpRigidDynamic@physx@@UEAAXAEBV?$PxTransformT@M@2@@Z 000000018002f160 f   NpRigidDynamic.obj
 0001:0002e520       ?setLinearDamping@?$NpRigidBodyTemplate@VPxArticulationLink@physx@@@physx@@UEAAXM@Z 000000018002f520 f i NpArticulationLink.obj
 0001:0002e520       ?setLinearDamping@?$NpRigidBodyTemplate@VPxRigidDynamic@physx@@@physx@@UEAAXM@Z 000000018002f520 f i NpRigidDynamic.obj
 0001:0002e580       ?setLinearVelocity@NpRigidDynamic@physx@@UEAAXAEBV?$PxVec3T@M@2@_N@Z 000000018002f580 f   NpRigidDynamic.obj
 0001:0002e640       ?setMass@?$NpRigidBodyTemplate@VPxArticulationLink@physx@@@physx@@UEAAXM@Z 000000018002f640 f i NpArticulationLink.obj
 0001:0002e640       ?setMass@?$NpRigidBodyTemplate@VPxRigidDynamic@physx@@@physx@@UEAAXM@Z 000000018002f640 f i NpRigidDynamic.obj
 0001:0002e6b0       ?setMassSpaceInertiaTensor@?$NpRigidBodyTemplate@VPxArticulationLink@physx@@@physx@@UEAAXAEBV?$PxVec3T@M@2@@Z 000000018002f6b0 f i NpArticulationLink.obj
 0001:0002e6b0       ?setMassSpaceInertiaTensor@?$NpRigidBodyTemplate@VPxRigidDynamic@physx@@@physx@@UEAAXAEBV?$PxVec3T@M@2@@Z 000000018002f6b0 f i NpRigidDynamic.obj
 0001:0002e770       ?setMaxAngularVelocity@?$NpRigidBodyTemplate@VPxArticulationLink@physx@@@physx@@UEAAXM@Z 000000018002f770 f i NpArticulationLink.obj
 0001:0002e770       ?setMaxAngularVelocity@?$NpRigidBodyTemplate@VPxRigidDynamic@physx@@@physx@@UEAAXM@Z 000000018002f770 f i NpRigidDynamic.obj
 0001:0002e7d0       ?setMaxContactImpulse@?$NpRigidBodyTemplate@VPxArticulationLink@physx@@@physx@@UEAAXM@Z 000000018002f7d0 f i NpArticulationLink.obj
 0001:0002e7d0       ?setMaxContactImpulse@?$NpRigidBodyTemplate@VPxRigidDynamic@physx@@@physx@@UEAAXM@Z 000000018002f7d0 f i NpRigidDynamic.obj
 0001:0002e830       ?setMaxDepenetrationVelocity@?$NpRigidBodyTemplate@VPxArticulationLink@physx@@@physx@@UEAAXM@Z 000000018002f830 f i NpArticulationLink.obj
 0001:0002e830       ?setMaxDepenetrationVelocity@?$NpRigidBodyTemplate@VPxRigidDynamic@physx@@@physx@@UEAAXM@Z 000000018002f830 f i NpRigidDynamic.obj
 0001:0002e890       ?setMaxLinearVelocity@?$NpRigidBodyTemplate@VPxArticulationLink@physx@@@physx@@UEAAXM@Z 000000018002f890 f i NpArticulationLink.obj
 0001:0002e890       ?setMaxLinearVelocity@?$NpRigidBodyTemplate@VPxRigidDynamic@physx@@@physx@@UEAAXM@Z 000000018002f890 f i NpRigidDynamic.obj
 0001:0002e8f0       ?setMinCCDAdvanceCoefficient@?$NpRigidBodyTemplate@VPxArticulationLink@physx@@@physx@@UEAAXM@Z 000000018002f8f0 f i NpArticulationLink.obj
 0001:0002e8f0       ?setMinCCDAdvanceCoefficient@?$NpRigidBodyTemplate@VPxRigidDynamic@physx@@@physx@@UEAAXM@Z 000000018002f8f0 f i NpRigidDynamic.obj
 0001:0002e950       ?setRigidBodyFlag@?$NpRigidBodyTemplate@VPxArticulationLink@physx@@@physx@@UEAAXW4Enum@PxRigidBodyFlag@2@_N@Z 000000018002f950 f i NpArticulationLink.obj
 0001:0002e950       ?setRigidBodyFlag@?$NpRigidBodyTemplate@VPxRigidDynamic@physx@@@physx@@UEAAXW4Enum@PxRigidBodyFlag@2@_N@Z 000000018002f950 f i NpRigidDynamic.obj
 0001:0002ec80       ?setRigidBodyFlags@?$NpRigidBodyTemplate@VPxArticulationLink@physx@@@physx@@UEAAXV?$PxFlags@W4Enum@PxRigidBodyFlag@physx@@G@2@@Z 000000018002fc80 f i NpArticulationLink.obj
 0001:0002ec80       ?setRigidBodyFlags@?$NpRigidBodyTemplate@VPxRigidDynamic@physx@@@physx@@UEAAXV?$PxFlags@W4Enum@PxRigidBodyFlag@physx@@G@2@@Z 000000018002fc80 f i NpRigidDynamic.obj
 0001:0002ef80       ?setRigidDynamicLockFlag@NpRigidDynamic@physx@@UEAAXW4Enum@PxRigidDynamicLockFlag@2@_N@Z 000000018002ff80 f   NpRigidDynamic.obj
 0001:0002eff0       ?setRigidDynamicLockFlags@NpRigidDynamic@physx@@UEAAXV?$PxFlags@W4Enum@PxRigidDynamicLockFlag@physx@@E@2@@Z 000000018002fff0 f   NpRigidDynamic.obj
 0001:0002f050       ?setSleepThreshold@NpRigidDynamic@physx@@UEAAXM@Z 0000000180030050 f   NpRigidDynamic.obj
 0001:0002f0b0       ?setSolverIterationCounts@NpRigidDynamic@physx@@UEAAXII@Z 00000001800300b0 f   NpRigidDynamic.obj
 0001:0002f120       ?setSpatialForce@?$NpRigidBodyTemplate@VPxRigidDynamic@physx@@@physx@@IEAAXPEBV?$PxVec3T@M@2@0W4Enum@PxForceMode@2@@Z 0000000180030120 f i NpRigidDynamic.obj
 0001:0002f350       ?setStabilizationThreshold@NpRigidDynamic@physx@@UEAAXM@Z 0000000180030350 f   NpRigidDynamic.obj
 0001:0002f3b0       ?setWakeCounter@NpRigidDynamic@physx@@UEAAXM@Z 00000001800303b0 f   NpRigidDynamic.obj
 0001:0002f420       ?switchFromNoSim@NpRigidDynamic@physx@@UEAAXXZ 0000000180030420 f   NpRigidDynamic.obj
 0001:0002f420       ?switchFromNoSim@NpRigidStatic@physx@@UEAAXXZ 0000000180030420 f   NpRigidStatic.obj
 0001:0002f440       ?switchToNoSim@NpRigidDynamic@physx@@UEAAXXZ 0000000180030440 f   NpRigidDynamic.obj
 0001:0002f480       ?wakeUp@NpRigidDynamic@physx@@UEAAXXZ 0000000180030480 f   NpRigidDynamic.obj
 0001:0002f4f0       ?wakeUpInternalNoKinematicTest@NpRigidDynamic@physx@@QEAAX_N0@Z 00000001800304f0 f   NpRigidDynamic.obj
 0001:0002f580       ??0NpRigidStatic@physx@@QEAA@AEBV?$PxTransformT@M@1@@Z 0000000180030580 f   NpRigidStatic.obj
 0001:0002f640       ??_E?$NpActorTemplate@VPxRigidStatic@physx@@@physx@@UEAAPEAXI@Z 0000000180030640 f i NpRigidStatic.obj
 0001:0002f640       ??_G?$NpActorTemplate@VPxRigidStatic@physx@@@physx@@UEAAPEAXI@Z 0000000180030640 f i NpRigidStatic.obj
 0001:0002f6c0       ??_E?$NpRigidActorTemplate@VPxRigidStatic@physx@@@physx@@UEAAPEAXI@Z 00000001800306c0 f i NpRigidStatic.obj
 0001:0002f6c0       ??_G?$NpRigidActorTemplate@VPxRigidStatic@physx@@@physx@@UEAAPEAXI@Z 00000001800306c0 f i NpRigidStatic.obj
 0001:0002f750       ??_ENpRigidStatic@physx@@UEAAPEAXI@Z 0000000180030750 f i NpRigidStatic.obj
 0001:0002f750       ??_GNpRigidStatic@physx@@UEAAPEAXI@Z 0000000180030750 f i NpRigidStatic.obj
 0001:0002f7f0       ?NpRigidStaticGetShapes@physx@@YAIAEAVNpRigidStatic@1@AEAPEBQEAVNpShape@1@@Z 00000001800307f0 f   NpRigidStatic.obj
 0001:0002f810       ?createObject@NpRigidStatic@physx@@SAPEAV12@AEAPEAEAEAVPxDeserializationContext@2@@Z 0000000180030810 f   NpRigidStatic.obj
 0001:0002f8c0       ?getConcreteTypeName@PxRigidStatic@physx@@UEBAPEBDXZ 00000001800308c0 f i NpRigidStatic.obj
 0001:0002f8d0       ?getGlobalPose@NpRigidStatic@physx@@UEBA?AV?$PxTransformT@M@2@XZ 00000001800308d0 f   NpRigidStatic.obj
 0001:0002f900       ?isKindOf@PxRigidStatic@physx@@MEBA_NPEBD@Z 0000000180030900 f i NpRigidStatic.obj
 0001:0002f950       ?release@NpRigidStatic@physx@@UEAAXXZ 0000000180030950 f   NpRigidStatic.obj
 0001:0002fa70       ?setActorFlag@?$NpRigidActorTemplate@VPxRigidStatic@physx@@@physx@@UEAAXW4Enum@PxActorFlag@2@_N@Z 0000000180030a70 f i NpRigidStatic.obj
 0001:0002fc00       ?setActorFlags@?$NpRigidActorTemplate@VPxRigidStatic@physx@@@physx@@UEAAXV?$PxFlags@W4Enum@PxActorFlag@physx@@E@2@@Z 0000000180030c00 f i NpRigidStatic.obj
 0001:0002fd60       ?setGlobalPose@NpRigidStatic@physx@@UEAAXAEBV?$PxTransformT@M@2@_N@Z 0000000180030d60 f   NpRigidStatic.obj
 0001:0002ff50       ?switchToNoSim@NpRigidStatic@physx@@UEAAXXZ 0000000180030f50 f   NpRigidStatic.obj
 0001:0002ff70       ??$PxSort@PEAXU?$PxLess@PEAX@physx@@V?$PxReflectionAllocator@U?$Block@E$0BAA@@Scene@Sc@physx@@@2@@physx@@YAXPEAPEAXIAEBU?$PxLess@PEAX@0@AEBV?$PxReflectionAllocator@U?$Block@E$0BAA@@Scene@Sc@physx@@@0@I@Z 0000000180030f70 f i NpScene.obj
 0001:000303d0       ??$PxSort@PEAXU?$PxLess@PEAX@physx@@V?$PxReflectionAllocator@U?$Block@E$0BIA@@Scene@Sc@physx@@@2@@physx@@YAXPEAPEAXIAEBU?$PxLess@PEAX@0@AEBV?$PxReflectionAllocator@U?$Block@E$0BIA@@Scene@Sc@physx@@@0@I@Z 00000001800313d0 f i NpScene.obj
 0001:00030830       ??$PxSort@PEAXU?$PxLess@PEAX@physx@@V?$PxReflectionAllocator@U?$Block@E$0IA@@Scene@Sc@physx@@@2@@physx@@YAXPEAPEAXIAEBU?$PxLess@PEAX@0@AEBV?$PxReflectionAllocator@U?$Block@E$0IA@@Scene@Sc@physx@@@0@I@Z 0000000180031830 f i NpScene.obj
 0001:00030c90       ??$PxSort@PEAXU?$PxLess@PEAX@physx@@V?$PxReflectionAllocator@U?$Block@PEAX$07@Scene@Sc@physx@@@2@@physx@@YAXPEAPEAXIAEBU?$PxLess@PEAX@0@AEBV?$PxReflectionAllocator@U?$Block@PEAX$07@Scene@Sc@physx@@@0@I@Z 0000000180031c90 f i NpScene.obj
 0001:000310f0       ??$PxSort@PEAXU?$PxLess@PEAX@physx@@V?$PxReflectionAllocator@U?$Block@PEAX$0BA@@Scene@Sc@physx@@@2@@physx@@YAXPEAPEAXIAEBU?$PxLess@PEAX@0@AEBV?$PxReflectionAllocator@U?$Block@PEAX$0BA@@Scene@Sc@physx@@@0@I@Z 00000001800320f0 f i NpScene.obj
 0001:00031550       ??$PxSort@PEAXU?$PxLess@PEAX@physx@@V?$PxReflectionAllocator@U?$Block@PEAX$0CA@@Scene@Sc@physx@@@2@@physx@@YAXPEAPEAXIAEBU?$PxLess@PEAX@0@AEBV?$PxReflectionAllocator@U?$Block@PEAX$0CA@@Scene@Sc@physx@@@0@I@Z 0000000180032550 f i NpScene.obj
 0001:000328f0       ??0NpScene@physx@@QEAA@AEBVPxSceneDesc@1@AEAVNpPhysics@1@@Z 00000001800338f0 f   NpScene.obj
 0001:00033460       ??1?$PxArray@PEAVBodyCore@Sc@physx@@V?$PxReflectionAllocator@PEAVBodyCore@Sc@physx@@@3@@physx@@QEAA@XZ 0000000180034460 f i NpScene.obj
 0001:000334b0       ??1?$PxArray@PEAVShapeSim@Sc@physx@@V?$PxInlineAllocator@$0CAA@V?$PxReflectionAllocator@PEAVShapeSim@Sc@physx@@@physx@@@3@@physx@@QEAA@XZ 00000001800344b0 f i NpScene.obj
 0001:000334b0       ??1?$PxArray@PEBVShapeCore@Sc@physx@@V?$PxInlineAllocator@$0CAA@V?$PxReflectionAllocator@PEBVShapeCore@Sc@physx@@@physx@@@3@@physx@@QEAA@XZ 00000001800344b0 f i NpScene.obj
 0001:00033520       ??1FanoutTask@Cm@physx@@UEAA@XZ 0000000180034520 f i NpScene.obj
 0001:000335f0       ??1NpScene@physx@@UEAA@XZ  00000001800345f0 f   NpScene.obj
 0001:00033fe0       ??1RenderBuffer@Cm@physx@@UEAA@XZ 0000000180034fe0 f i NpScene.obj
 0001:00034090       ??1Scene@Sc@physx@@QEAA@XZ 0000000180035090 f i NpScene.obj
 0001:000356e0       ??_E?$DelegateTask@VNpScene@physx@@$H?executeAdvance@12@QEAAXPEAVPxBaseTask@2@@ZA@@Cm@physx@@UEAAPEAXI@Z 00000001800366e0 f i NpScene.obj
 0001:000356e0       ??_E?$DelegateTask@VNpScene@physx@@$H?executeCollide@12@QEAAXPEAVPxBaseTask@2@@ZA@@Cm@physx@@UEAAPEAXI@Z 00000001800366e0 f i NpScene.obj
 0001:000356e0       ??_E?$DelegateTask@VNpScene@physx@@$H?executeScene@12@QEAAXPEAVPxBaseTask@2@@ZA@@Cm@physx@@UEAAPEAXI@Z 00000001800366e0 f i NpScene.obj
 0001:000356e0       ??_E?$DelegateTask@VNpScene@physx@@$H?sceneQueriesDynamicPrunerUpdate@12@AEAAXPEAVPxBaseTask@2@@ZA@@Cm@physx@@UEAAPEAXI@Z 00000001800366e0 f i NpScene.obj
 0001:000356e0       ??_E?$DelegateTask@VNpScene@physx@@$H?sceneQueriesStaticPrunerUpdate@12@AEAAXPEAVPxBaseTask@2@@ZA@@Cm@physx@@UEAAPEAXI@Z 00000001800366e0 f i NpScene.obj
 0001:000356e0       ??_G?$DelegateTask@VNpScene@physx@@$H?executeAdvance@12@QEAAXPEAVPxBaseTask@2@@ZA@@Cm@physx@@UEAAPEAXI@Z 00000001800366e0 f i NpScene.obj
 0001:000356e0       ??_G?$DelegateTask@VNpScene@physx@@$H?executeCollide@12@QEAAXPEAVPxBaseTask@2@@ZA@@Cm@physx@@UEAAPEAXI@Z 00000001800366e0 f i NpScene.obj
 0001:000356e0       ??_G?$DelegateTask@VNpScene@physx@@$H?executeScene@12@QEAAXPEAVPxBaseTask@2@@ZA@@Cm@physx@@UEAAPEAXI@Z 00000001800366e0 f i NpScene.obj
 0001:000356e0       ??_G?$DelegateTask@VNpScene@physx@@$H?sceneQueriesDynamicPrunerUpdate@12@AEAAXPEAVPxBaseTask@2@@ZA@@Cm@physx@@UEAAPEAXI@Z 00000001800366e0 f i NpScene.obj
 0001:000356e0       ??_G?$DelegateTask@VNpScene@physx@@$H?sceneQueriesStaticPrunerUpdate@12@AEAAXPEAVPxBaseTask@2@@ZA@@Cm@physx@@UEAAPEAXI@Z 00000001800366e0 f i NpScene.obj
 0001:00035740       ??_ENpScene@physx@@UEAAPEAXI@Z 0000000180036740 f i NpScene.obj
 0001:00035740       ??_GNpScene@physx@@UEAAPEAXI@Z 0000000180036740 f i NpScene.obj
 0001:000357b0       ??_EPxBaseTask@physx@@UEAAPEAXI@Z 00000001800367b0 f i NpScene.obj
 0001:000357b0       ??_GPxBaseTask@physx@@UEAAPEAXI@Z 00000001800367b0 f i NpScene.obj
 0001:000357e0       ??_EPxLightCpuTask@physx@@UEAAPEAXI@Z 00000001800367e0 f i NpScene.obj
 0001:000357e0       ??_GPxLightCpuTask@physx@@UEAAPEAXI@Z 00000001800367e0 f i NpScene.obj
 0001:00035820       ??_EPxRenderBuffer@physx@@UEAAPEAXI@Z 0000000180036820 f i NpScene.obj
 0001:00035820       ??_GPxRenderBuffer@physx@@UEAAPEAXI@Z 0000000180036820 f i NpScene.obj
 0001:00035850       ??_EPxSceneQuerySystemBase@physx@@MEAAPEAXI@Z 0000000180036850 f i NpScene.obj
 0001:00035850       ??_GPxSceneQuerySystemBase@physx@@MEAAPEAXI@Z 0000000180036850 f i NpScene.obj
 0001:00035880       ??_ERenderBuffer@Cm@physx@@UEAAPEAXI@Z 0000000180036880 f i NpScene.obj
 0001:00035880       ??_GRenderBuffer@Cm@physx@@UEAAPEAXI@Z 0000000180036880 f i NpScene.obj
 0001:000358f0       ??_EABP_CompleteBoxPruningEndTask@internalABP@@UEAAPEAXI@Z 00000001800368f0 f i LowLevelAABB_static_64:BpBroadPhaseABP.obj
 0001:000358f0       ??_EPostThirdPassTask@IG@physx@@UEAAPEAXI@Z 00000001800368f0 f i LowLevel_static_64:PxsSimpleIslandManager.obj
 0001:000358f0       ??_EPxsForceThresholdTask@Dy@physx@@UEAAPEAXI@Z 00000001800368f0 f i LowLevelDynamics_static_64:DyDynamics.obj
 0001:000358f0       ??_ESceneCompletion@NpScene@physx@@UEAAPEAXI@Z 00000001800368f0 f i NpScene.obj
 0001:000358f0       ??_GABP_CompleteBoxPruningEndTask@internalABP@@UEAAPEAXI@Z 00000001800368f0 f i LowLevelAABB_static_64:BpBroadPhaseABP.obj
 0001:000358f0       ??_GPostThirdPassTask@IG@physx@@UEAAPEAXI@Z 00000001800368f0 f i LowLevel_static_64:PxsSimpleIslandManager.obj
 0001:000358f0       ??_GPxsForceThresholdTask@Dy@physx@@UEAAPEAXI@Z 00000001800368f0 f i LowLevelDynamics_static_64:DyDynamics.obj
 0001:000358f0       ??_GSceneCompletion@NpScene@physx@@UEAAPEAXI@Z 00000001800368f0 f i NpScene.obj
 0001:00035930       ?addActor@NpScene@physx@@UEAA_NAEAVPxActor@2@PEBVPxBVH@2@@Z 0000000180036930 f   NpScene.obj
 0001:000359e0       ?addActorInternal@NpScene@physx@@QEAA_NAEAVPxActor@2@PEBVPxBVH@2@@Z 00000001800369e0 f   NpScene.obj
 0001:00035c90       ?addActors@NpScene@physx@@UEAA_NAEBVPxPruningStructure@2@@Z 0000000180036c90 f   NpScene.obj
 0001:00035cc0       ?addActors@NpScene@physx@@UEAA_NPEBQEAVPxActor@2@I@Z 0000000180036cc0 f   NpScene.obj
 0001:00035cd0       ?addActorsInternal@NpScene@physx@@QEAA_NPEIBQEAVPxActor@2@IPEBVPruningStructure@Sq@2@@Z 0000000180036cd0 f   NpScene.obj
 0001:00036200       ?addAggregate@NpScene@physx@@UEAA_NAEAVPxAggregate@2@@Z 0000000180037200 f   NpScene.obj
 0001:00036330       ?addArticulation@NpScene@physx@@UEAA_NAEAVPxArticulationReducedCoordinate@2@@Z 0000000180037330 f   NpScene.obj
 0001:00036430       ?addArticulationInternal@NpScene@physx@@QEAA_NAEAVPxArticulationReducedCoordinate@2@@Z 0000000180037430 f   NpScene.obj
 0001:00036b60       ?addArticulationLinkBody@NpScene@physx@@QEAAXAEAVNpArticulationLink@2@@Z 0000000180037b60 f   NpScene.obj
 0001:00036c60       ?addBroadPhaseRegion@NpScene@physx@@UEAAIAEBUPxBroadPhaseRegion@2@_N@Z 0000000180037c60 f   NpScene.obj
 0001:00036d10       ?addCollection@NpScene@physx@@UEAA_NAEBVPxCollection@2@@Z 0000000180037d10 f   NpScene.obj
 0001:00036eb0       ?addDirtyConstraint@NpScene@physx@@QEAAXPEAVNpConstraint@2@@Z 0000000180037eb0 f   NpScene.obj
 0001:00036f20       ?addFixedTendonInternal@NpScene@physx@@AEAA_NPEAVNpArticulationReducedCoordinate@2@PEAVArticulationSim@Sc@2@@Z 0000000180037f20 f   NpScene.obj
 0001:00037150       ?addLine@RenderBuffer@Cm@physx@@UEAAXAEBUPxDebugLine@3@@Z 0000000180038150 f i NpScene.obj
 0001:000371b0       ?addMaterial@NpScene@physx@@QEAAXAEBVNpFEMSoftBodyMaterial@2@@Z 00000001800381b0 f   NpScene.obj
 0001:00037230       ?addMaterial@NpScene@physx@@QEAAXAEBVNpMaterial@2@@Z 0000000180038230 f   NpScene.obj
 0001:000372b0       ?addMaterial@NpScene@physx@@QEAAXAEBVNpPBDMaterial@2@@Z 00000001800382b0 f   NpScene.obj
 0001:00037330       ?addPoint@RenderBuffer@Cm@physx@@UEAAXAEBUPxDebugPoint@3@@Z 0000000180038330 f i NpScene.obj
 0001:00037370       ?addReference@PxLightCpuTask@physx@@UEAAXXZ 0000000180038370 f i NpScene.obj
 0001:00037380       ?addRigidDynamic@NpScene@physx@@AEAA_NAEAVNpRigidDynamic@2@PEBVBVH@Gu@2@PEBVPruningStructure@Sq@2@@Z 0000000180038380 f   NpScene.obj
 0001:00037520       ?addRigidStatic@NpScene@physx@@AEAA_NAEAVNpRigidStatic@2@PEBVBVH@Gu@2@PEBVPruningStructure@Sq@2@@Z 0000000180038520 f   NpScene.obj
 0001:000376c0       ?addSpatialTendonInternal@NpScene@physx@@AEAA_NPEAVNpArticulationReducedCoordinate@2@PEAVArticulationSim@Sc@2@@Z 00000001800386c0 f   NpScene.obj
 0001:00037900       ?addToConstraintList@NpScene@physx@@QEAAXAEAVPxConstraint@2@@Z 0000000180038900 f   NpScene.obj
 0001:00037a40       ?addTriangle@RenderBuffer@Cm@physx@@UEAAXAEBUPxDebugTriangle@3@@Z 0000000180038a40 f i NpScene.obj
 0001:00037ab0       ?advance@NpScene@physx@@UEAA_NPEAVPxBaseTask@2@@Z 0000000180038ab0 f   NpScene.obj
 0001:00037b70       ?allocate@?$PxArray@PEAVNpRigidDynamic@physx@@V?$PxReflectionAllocator@PEAVNpRigidDynamic@physx@@@2@@physx@@IEAAPEAPEAVNpRigidDynamic@2@I@Z 0000000180038b70 f i NpScene.obj
 0001:00037c00       ?allocate@?$PxArray@PEAVNpRigidStatic@physx@@V?$PxReflectionAllocator@PEAVNpRigidStatic@physx@@@2@@physx@@IEAAPEAPEAVNpRigidStatic@2@I@Z 0000000180038c00 f i NpScene.obj
 0001:00037c90       ?allocate@?$PxArray@UPxDebugLine@physx@@V?$PxReflectionAllocator@UPxDebugLine@physx@@@2@@physx@@IEAAPEAUPxDebugLine@2@I@Z 0000000180038c90 f i NpScene.obj
 0001:00037d20       ?allocate@?$PxArray@UPxDebugPoint@physx@@V?$PxReflectionAllocator@UPxDebugPoint@physx@@@2@@physx@@IEAAPEAUPxDebugPoint@2@I@Z 0000000180038d20 f i NpScene.obj
 0001:00037db0       ?allocate@?$PxArray@UPxDebugTriangle@physx@@V?$PxReflectionAllocator@UPxDebugTriangle@physx@@@2@@physx@@IEAAPEAUPxDebugTriangle@2@I@Z 0000000180038db0 f i NpScene.obj
 0001:00037e50       ?allocate@?$PxArray@VMaterialEvent@NpScene@physx@@V?$PxReflectionAllocator@VMaterialEvent@NpScene@physx@@@3@@physx@@IEAAPEAVMaterialEvent@NpScene@2@I@Z 0000000180038e50 f i NpScene.obj
 0001:00037ee0       ?allocate@?$PxArray@VPxBounds3@physx@@V?$PxInlineAllocator@$0MA@V?$PxReflectionAllocator@VPxBounds3@physx@@@physx@@@2@@physx@@IEAAPEAVPxBounds3@2@I@Z 0000000180038ee0 f i NpScene.obj
 0001:00037fa0       ?append@RenderBuffer@Cm@physx@@UEAAXAEBVPxRenderBuffer@3@@Z 0000000180038fa0 f i NpScene.obj
 0001:000381e0       ?applyActorData@NpScene@physx@@UEAAXPEAXPEAUPxGpuActorPair@2@W4Enum@PxActorCacheFlag@2@I00@Z 00000001800391e0 f   NpScene.obj
 0001:00038280       ?applyArticulationData@NpScene@physx@@UEAAXPEAX0W4Enum@PxArticulationGpuDataType@2@I00@Z 0000000180039280 f   NpScene.obj
 0001:00038320       ?applyParticleBufferData@NpScene@physx@@UEAAXPEBIPEBUPxGpuParticleBufferIndexPair@2@PEBV?$PxFlags@W4Enum@PxParticleBufferFlag@physx@@I@2@IPEAX3@Z 0000000180039320 f   NpScene.obj
 0001:000383c0       ?applySoftBodyData@NpScene@physx@@UEAAXPEAPEAXPEAX1W4Enum@PxSoftBodyGpuDataFlag@2@II1@Z 00000001800393c0 f   NpScene.obj
 0001:000384e0       ?checkCollision@NpScene@physx@@UEAA_N_N@Z 00000001800394e0 f   NpScene.obj
 0001:000384f0       ?clear@RenderBuffer@Cm@physx@@UEAAXXZ 00000001800394f0 f i NpScene.obj
 0001:00038500       ?collide@NpScene@physx@@UEAA_NMPEAVPxBaseTask@2@PEAXI_N@Z 0000000180039500 f   NpScene.obj
 0001:00038540       ?computeCoriolisAndCentrifugalForces@NpScene@physx@@UEAAXPEBUPxIndexDataPair@2@IPEAX@Z 0000000180039540 f   NpScene.obj
 0001:000385e0       ?computeDenseJacobians@NpScene@physx@@UEAAXPEBUPxIndexDataPair@2@IPEAX@Z 00000001800395e0 f   NpScene.obj
 0001:00038680       ?computeGeneralizedGravityForces@NpScene@physx@@UEAAXPEBUPxIndexDataPair@2@IPEAX@Z 0000000180039680 f   NpScene.obj
 0001:00038780       ?computeGeneralizedMassMatrices@NpScene@physx@@UEAAXPEBUPxIndexDataPair@2@IPEAX@Z 0000000180039780 f   NpScene.obj
 0001:00038820       ?copy@?$PxArray@UPxDebugLine@physx@@V?$PxReflectionAllocator@UPxDebugLine@physx@@@2@@physx@@KAXPEAUPxDebugLine@2@0PEBU32@@Z 0000000180039820 f i NpScene.obj
 0001:00038820       ?copy@?$PxArray@VSpatialVector@Cm@physx@@V?$PxReflectionAllocator@VSpatialVector@Cm@physx@@@3@@physx@@KAXPEAVSpatialVector@Cm@2@0PEBV342@@Z 0000000180039820 f i LowLevelDynamics_static_64:DyTGSDynamics.obj
 0001:000389d0       ?copy@?$PxArray@UPxDebugPoint@physx@@V?$PxReflectionAllocator@UPxDebugPoint@physx@@@2@@physx@@KAXPEAUPxDebugPoint@2@0PEBU32@@Z 00000001800399d0 f i NpScene.obj
 0001:00038ad0       ?copy@?$PxArray@UPxDebugTriangle@physx@@V?$PxReflectionAllocator@UPxDebugTriangle@physx@@@2@@physx@@KAXPEAUPxDebugTriangle@2@0PEBU32@@Z 0000000180039ad0 f i NpScene.obj
 0001:00038cd0       ?copyArticulationData@NpScene@physx@@UEAAXPEAX0W4Enum@PxArticulationGpuDataType@2@I0@Z 0000000180039cd0 f   NpScene.obj
 0001:00038d70       ?copyBodyData@NpScene@physx@@UEAAXPEAUPxGpuBodyData@2@PEAUPxGpuActorPair@2@IPEAX@Z 0000000180039d70 f   NpScene.obj
 0001:00038e10       ?copyContactData@NpScene@physx@@UEAAXPEAXI00@Z 0000000180039e10 f   NpScene.obj
 0001:00038ed0       ?copySoftBodyData@NpScene@physx@@UEAAXPEAPEAXPEAX1W4Enum@PxSoftBodyGpuDataFlag@2@II1@Z 0000000180039ed0 f   NpScene.obj
 0001:00038f30       ?createClient@NpScene@physx@@UEAAEXZ 0000000180039f30 f   NpScene.obj
 0001:00038f40       ?empty@RenderBuffer@Cm@physx@@UEBA_NXZ 0000000180039f40 f i NpScene.obj
 0001:00038f60       ?evaluateSDFDistances@NpScene@physx@@UEAAXPEBIIPEBV?$PxVec4T@M@2@0IPEAV32@PEAX@Z 0000000180039f60 f   NpScene.obj
 0001:00038fc0       ?fetchCollision@NpScene@physx@@UEAA_N_N@Z 0000000180039fc0 f   NpScene.obj
 0001:00039020       ?flush@NpScene@physx@@UEAAX_N@Z 000000018003a020 f i NpScene.obj
 0001:00039030       ?flushSimulation@NpScene@physx@@UEAAX_N@Z 000000018003a030 f   NpScene.obj
 0001:000390d0       ?getActiveActors@NpScene@physx@@UEAAPEAPEAVPxActor@2@AEAI@Z 000000018003a0d0 f   NpScene.obj
 0001:00039120       ?getActors@NpScene@physx@@UEBAIV?$PxFlags@W4Enum@PxActorTypeFlag@physx@@G@2@PEAPEAVPxActor@2@II@Z 000000018003a120 f   NpScene.obj
 0001:00039270       ?getArticulations@NpScene@physx@@UEBAIPEAPEAVPxArticulationReducedCoordinate@2@II@Z 000000018003a270 f   NpScene.obj
 0001:000392d0       ?getBounceThresholdVelocity@NpScene@physx@@UEBAMXZ 000000018003a2d0 f   NpScene.obj
 0001:000392f0       ?getBroadPhaseCallback@NpScene@physx@@UEBAPEAVPxBroadPhaseCallback@2@XZ 000000018003a2f0 f   NpScene.obj
 0001:00039300       ?getBroadPhaseCaps@NpScene@physx@@UEBA_NAEAUPxBroadPhaseCaps@2@@Z 000000018003a300 f   NpScene.obj
 0001:00039320       ?getBroadPhaseRegions@NpScene@physx@@UEBAIPEAUPxBroadPhaseRegionInfo@2@II@Z 000000018003a320 f   NpScene.obj
 0001:00039340       ?getBroadPhaseType@NpScene@physx@@UEBA?AW4Enum@PxBroadPhaseType@2@XZ 000000018003a340 f   NpScene.obj
 0001:00039360       ?getCCDContactModifyCallback@NpScene@physx@@UEBAPEAVPxCCDContactModifyCallback@2@XZ 000000018003a360 f   NpScene.obj
 0001:00039370       ?getCCDMaxPasses@NpScene@physx@@UEBAIXZ 000000018003a370 f   NpScene.obj
 0001:00039380       ?getCCDMaxSeparation@NpScene@physx@@UEBAMXZ 000000018003a380 f   NpScene.obj
 0001:00039390       ?getCCDThreshold@NpScene@physx@@UEBAMXZ 000000018003a390 f   NpScene.obj
 0001:000393a0       ?getConstraints@NpScene@physx@@UEBAIPEAPEAVPxConstraint@2@II@Z 000000018003a3a0 f   NpScene.obj
 0001:00039420       ?getContactModifyCallback@NpScene@physx@@UEBAPEAVPxContactModifyCallback@2@XZ 000000018003a420 f   NpScene.obj
 0001:00039430       ?getContactReportStreamBufferSize@NpScene@physx@@UEBAIXZ 000000018003a430 f   NpScene.obj
 0001:00039440       ?getCpuDispatcher@NpScene@physx@@UEBAPEAVPxCpuDispatcher@2@XZ 000000018003a440 f   NpScene.obj
 0001:00039450       ?getCudaContextManager@NpScene@physx@@UEAAPEAVPxCudaContextManager@2@XZ 000000018003a450 f i NpScene.obj
 0001:00039450       ?getCudaContextManager@NpScene@physx@@UEBAPEAVPxCudaContextManager@2@XZ 000000018003a450 f i NpScene.obj
 0001:00039460       ?getDominanceGroupPair@NpScene@physx@@UEBA?AUPxDominanceGroupPair@2@EE@Z 000000018003a460 f   NpScene.obj
 0001:00039480       ?getFilterCallback@NpScene@physx@@UEBAPEAVPxSimulationFilterCallback@2@XZ 000000018003a480 f   NpScene.obj
 0001:00039490       ?getFilterShader@NpScene@physx@@UEBAP6A?AV?$PxFlags@W4Enum@PxFilterFlag@physx@@G@2@IUPxFilterData@2@I0AEAV?$PxFlags@W4Enum@PxPairFlag@physx@@G@2@PEBXI@ZXZ 000000018003a490 f   NpScene.obj
 0001:000394a0       ?getFilterShaderData@NpScene@physx@@UEBAPEBXXZ 000000018003a4a0 f   NpScene.obj
 0001:000394b0       ?getFilterShaderDataSize@NpScene@physx@@UEBAIXZ 000000018003a4b0 f   NpScene.obj
 0001:000394c0       ?getFlags@NpScene@physx@@UEBA?AV?$PxFlags@W4Enum@PxSceneFlag@physx@@I@2@XZ 000000018003a4c0 f   NpScene.obj
 0001:000394d0       ?getFrictionCorrelationDistance@NpScene@physx@@UEBAMXZ 000000018003a4d0 f   NpScene.obj
 0001:000394e0       ?getFrictionOffsetThreshold@NpScene@physx@@UEBAMXZ 000000018003a4e0 f   NpScene.obj
 0001:000394f0       ?getFrictionType@NpScene@physx@@UEBA?AW4Enum@PxFrictionType@2@XZ 000000018003a4f0 f   NpScene.obj
 0001:00039500       ?getFrozenActors@NpScene@physx@@UEAAPEAPEAVPxActor@2@AEAI@Z 000000018003a500 f   NpScene.obj
 0001:00039550       ?getGpuDynamicsConfig@NpScene@physx@@UEBA?AUPxgDynamicsMemoryConfig@2@XZ 000000018003a550 f i NpScene.obj
 0001:00039580       ?getGravity@NpScene@physx@@UEBA?AV?$PxVec3T@M@2@XZ 000000018003a580 f   NpScene.obj
 0001:000395a0       ?getKinematicKinematicFilteringMode@NpScene@physx@@UEBA?AW4Enum@PxPairFilteringMode@2@XZ 000000018003a5a0 f   NpScene.obj
 0001:000395b0       ?getLimits@NpScene@physx@@UEBA?AVPxSceneLimits@2@XZ 000000018003a5b0 f   NpScene.obj
 0001:000395d0       ?getMaxBiasCoefficient@NpScene@physx@@UEBAMXZ 000000018003a5d0 f   NpScene.obj
 0001:000395e0       ?getMaxNbContactDataBlocksUsed@NpScene@physx@@UEBAIXZ 000000018003a5e0 f   NpScene.obj
 0001:000395f0       ?getName@NpScene@physx@@UEBAPEBDXZ 000000018003a5f0 f   NpScene.obj
 0001:00039600       ?getName@SceneCompletion@NpScene@physx@@UEBAPEBDXZ 000000018003a600 f i NpScene.obj
 0001:00039610       ?getNbActors@NpScene@physx@@UEBAIV?$PxFlags@W4Enum@PxActorTypeFlag@physx@@G@2@@Z 000000018003a610 f   NpScene.obj
 0001:00039630       ?getNbArticulations@NpScene@physx@@UEBAIXZ 000000018003a630 f   NpScene.obj
 0001:00039640       ?getNbBroadPhaseRegions@NpScene@physx@@UEBAIXZ 000000018003a640 f   NpScene.obj
 0001:00039660       ?getNbConstraints@NpScene@physx@@UEBAIXZ 000000018003a660 f   NpScene.obj
 0001:00039670       ?getNbContactDataBlocksUsed@NpScene@physx@@UEBAIXZ 000000018003a670 f   NpScene.obj
 0001:00039680       ?getNbParticleSystems@NpScene@physx@@UEBAIW4Enum@PxParticleSolverType@2@@Z 000000018003a680 f   NpScene.obj
 0001:000396a0       ?getNbSoftBodies@NpScene@physx@@UEBAIXZ 000000018003a6a0 f   NpScene.obj
 0001:000396b0       ?getParticleSystems@NpScene@physx@@UEBAIW4Enum@PxParticleSolverType@2@PEAPEAVPxParticleSystem@2@II@Z 000000018003a6b0 f   NpScene.obj
 0001:00039710       ?getPhysics@NpScene@physx@@UEAAAEAVPxPhysics@2@XZ 000000018003a710 f   NpScene.obj
 0001:00039720       ?getRenderBuffer@NpScene@physx@@UEAAAEBVPxRenderBuffer@2@XZ 000000018003a720 f   NpScene.obj
 0001:00039760       ?getSimulationController@NpScene@physx@@UEAAPEAVPxsSimulationController@2@XZ 000000018003a760 f   NpScene.obj
 0001:00039770       ?getSimulationEventCallback@NpScene@physx@@UEBAPEAVPxSimulationEventCallback@2@XZ 000000018003a770 f   NpScene.obj
 0001:00039780       ?getSimulationStatistics@NpScene@physx@@UEBAXAEAVPxSimulationStatistics@2@@Z 000000018003a780 f   NpScene.obj
 0001:000397b0       ?getSoftBodies@NpScene@physx@@UEBAIPEAPEAVPxSoftBody@2@II@Z 000000018003a7b0 f   NpScene.obj
 0001:00039810       ?getSolverArticulationBatchSize@NpScene@physx@@UEBAIXZ 000000018003a810 f   NpScene.obj
 0001:00039820       ?getSolverBatchSize@NpScene@physx@@UEBAIXZ 000000018003a820 f   NpScene.obj
 0001:00039830       ?getSolverType@NpScene@physx@@UEBA?AW4Enum@PxSolverType@2@XZ 000000018003a830 f   NpScene.obj
 0001:00039840       ?getStaticKinematicFilteringMode@NpScene@physx@@UEBA?AW4Enum@PxPairFilteringMode@2@XZ 000000018003a840 f   NpScene.obj
 0001:00039850       ?getTaskManager@NpScene@physx@@UEBAPEAVPxTaskManager@2@XZ 000000018003a850 f i NpScene.obj
 0001:00039860       ?getTimestamp@NpScene@physx@@UEBAIXZ 000000018003a860 f   NpScene.obj
 0001:00039870       ?getVisualizationCullingBox@NpScene@physx@@UEBA?AVPxBounds3@2@XZ 000000018003a870 f   NpScene.obj
 0001:000398b0       ?getVisualizationParameter@NpScene@physx@@UEBAMW4Enum@PxVisualizationParameter@2@@Z 000000018003a8b0 f   NpScene.obj
 0001:000398f0       ?getWakeCounterResetValue@NpScene@physx@@UEBAMXZ 000000018003a8f0 f   NpScene.obj
 0001:00039900       ?growAndPushBack@?$PxArray@PEAVNpConstraint@physx@@V?$PxReflectionAllocator@PEAVNpConstraint@physx@@@2@@physx@@IEAAAEAPEAVNpConstraint@2@AEBQEAV32@@Z 000000018003a900 f i NpScene.obj
 0001:00039a20       ?growAndPushBack@?$PxArray@PEAVNpRigidDynamic@physx@@V?$PxReflectionAllocator@PEAVNpRigidDynamic@physx@@@2@@physx@@IEAAAEAPEAVNpRigidDynamic@2@AEBQEAV32@@Z 000000018003aa20 f i NpScene.obj
 0001:00039ae0       ?growAndPushBack@?$PxArray@PEAVNpRigidStatic@physx@@V?$PxReflectionAllocator@PEAVNpRigidStatic@physx@@@2@@physx@@IEAAAEAPEAVNpRigidStatic@2@AEBQEAV32@@Z 000000018003aae0 f i NpScene.obj
 0001:00039ba0       ?growAndPushBack@?$PxArray@PEAXV?$PxReflectionAllocator@U?$Block@E$0BAA@@Scene@Sc@physx@@@physx@@@physx@@IEAAAEAPEAXAEBQEAX@Z 000000018003aba0 f i NpScene.obj
 0001:00039cc0       ?growAndPushBack@?$PxArray@PEAXV?$PxReflectionAllocator@U?$Block@E$0BIA@@Scene@Sc@physx@@@physx@@@physx@@IEAAAEAPEAXAEBQEAX@Z 000000018003acc0 f i NpScene.obj
 0001:00039de0       ?growAndPushBack@?$PxArray@PEAXV?$PxReflectionAllocator@U?$Block@E$0IA@@Scene@Sc@physx@@@physx@@@physx@@IEAAAEAPEAXAEBQEAX@Z 000000018003ade0 f i NpScene.obj
 0001:00039f00       ?growAndPushBack@?$PxArray@PEAXV?$PxReflectionAllocator@U?$Block@PEAX$07@Scene@Sc@physx@@@physx@@@physx@@IEAAAEAPEAXAEBQEAX@Z 000000018003af00 f i NpScene.obj
 0001:0003a020       ?growAndPushBack@?$PxArray@PEAXV?$PxReflectionAllocator@U?$Block@PEAX$0BA@@Scene@Sc@physx@@@physx@@@physx@@IEAAAEAPEAXAEBQEAX@Z 000000018003b020 f i NpScene.obj
 0001:0003a140       ?growAndPushBack@?$PxArray@PEAXV?$PxReflectionAllocator@U?$Block@PEAX$0CA@@Scene@Sc@physx@@@physx@@@physx@@IEAAAEAPEAXAEBQEAX@Z 000000018003b140 f i NpScene.obj
 0001:0003a260       ?growAndPushBack@?$PxArray@UPxDebugLine@physx@@V?$PxReflectionAllocator@UPxDebugLine@physx@@@2@@physx@@IEAAAEAUPxDebugLine@2@AEBU32@@Z 000000018003b260 f i NpScene.obj
 0001:0003a340       ?growAndPushBack@?$PxArray@UPxDebugPoint@physx@@V?$PxReflectionAllocator@UPxDebugPoint@physx@@@2@@physx@@IEAAAEAUPxDebugPoint@2@AEBU32@@Z 000000018003b340 f i NpScene.obj
 0001:0003a400       ?growAndPushBack@?$PxArray@UPxDebugTriangle@physx@@V?$PxReflectionAllocator@UPxDebugTriangle@physx@@@2@@physx@@IEAAAEAUPxDebugTriangle@2@AEBU32@@Z 000000018003b400 f i NpScene.obj
 0001:0003a500       ?growAndPushBack@?$PxArray@VMaterialEvent@NpScene@physx@@V?$PxReflectionAllocator@VMaterialEvent@NpScene@physx@@@3@@physx@@IEAAAEAVMaterialEvent@NpScene@2@AEBV342@@Z 000000018003b500 f i NpScene.obj
 0001:0003a5c0       ?loadFromDesc@NpScene@physx@@QEAA_NAEBVPxSceneDesc@2@@Z 000000018003b5c0 f   NpScene.obj
 0001:0003a660       ?lockRead@NpScene@physx@@UEAAXPEBDI@Z 000000018003b660 f   NpScene.obj
 0001:0003a6f0       ?lockWrite@NpScene@physx@@UEAAXPEBDI@Z 000000018003b6f0 f   NpScene.obj
 0001:0003a7e0       ?recreate@?$PxArray@PEAVNpRigidDynamic@physx@@V?$PxReflectionAllocator@PEAVNpRigidDynamic@physx@@@2@@physx@@IEAAXI@Z 000000018003b7e0 f i NpScene.obj
 0001:0003a880       ?recreate@?$PxArray@PEAVNpRigidStatic@physx@@V?$PxReflectionAllocator@PEAVNpRigidStatic@physx@@@2@@physx@@IEAAXI@Z 000000018003b880 f i NpScene.obj
 0001:0003a920       ?recreate@?$PxArray@UPxDebugLine@physx@@V?$PxReflectionAllocator@UPxDebugLine@physx@@@2@@physx@@IEAAXI@Z 000000018003b920 f i NpScene.obj
 0001:0003a9b0       ?recreate@?$PxArray@UPxDebugPoint@physx@@V?$PxReflectionAllocator@UPxDebugPoint@physx@@@2@@physx@@IEAAXI@Z 000000018003b9b0 f i NpScene.obj
 0001:0003aa40       ?recreate@?$PxArray@UPxDebugTriangle@physx@@V?$PxReflectionAllocator@UPxDebugTriangle@physx@@@2@@physx@@IEAAXI@Z 000000018003ba40 f i NpScene.obj
 0001:0003aad0       ?recreate@?$PxArray@VMaterialEvent@NpScene@physx@@V?$PxReflectionAllocator@VMaterialEvent@NpScene@physx@@@3@@physx@@IEAAXI@Z 000000018003bad0 f i NpScene.obj
 0001:0003ab70       ?recreate@?$PxArray@VPxBounds3@physx@@V?$PxInlineAllocator@$0MA@V?$PxReflectionAllocator@VPxBounds3@physx@@@physx@@@2@@physx@@IEAAXI@Z 000000018003bb70 f i NpScene.obj
 0001:0003ad30       ?release@NpScene@physx@@UEAAXXZ 000000018003bd30 f   NpScene.obj
 0001:0003add0       ?release@PxLightCpuTask@physx@@UEAAXXZ 000000018003bdd0 f i NpScene.obj
 0001:0003adf0       ?release@SceneCompletion@NpScene@physx@@UEAAXXZ 000000018003bdf0 f i NpScene.obj
 0001:0003ae20       ?removeActor@NpScene@physx@@UEAAXAEAVPxActor@2@_N@Z 000000018003be20 f   NpScene.obj
 0001:0003aeb0       ?removeActorInternal@NpScene@physx@@QEAAXAEAVPxActor@2@_N1@Z 000000018003beb0 f   NpScene.obj
 0001:0003af70       ?removeActors@NpScene@physx@@UEAAXPEBQEAVPxActor@2@I_N@Z 000000018003bf70 f   NpScene.obj
 0001:0003b1c0       ?removeAggregate@NpScene@physx@@UEAAXAEAVPxAggregate@2@_N@Z 000000018003c1c0 f   NpScene.obj
 0001:0003b3c0       ?removeArticulation@NpScene@physx@@UEAAXAEAVPxArticulationReducedCoordinate@2@_N@Z 000000018003c3c0 f   NpScene.obj
 0001:0003b490       ?removeArticulationInternal@NpScene@physx@@QEAAXAEAVPxArticulationReducedCoordinate@2@_N1@Z 000000018003c490 f   NpScene.obj
 0001:0003b780       ?removeArticulationLink@NpScene@physx@@QEAAXAEAVNpArticulationLink@2@_N@Z 000000018003c780 f   NpScene.obj
 0001:0003b980       ?removeArticulationSensors@NpScene@physx@@QEAAXAEAVPxArticulationReducedCoordinate@2@@Z 000000018003c980 f   NpScene.obj
 0001:0003b9e0       ?removeArticulationTendons@NpScene@physx@@QEAAXAEAVPxArticulationReducedCoordinate@2@@Z 000000018003c9e0 f   NpScene.obj
 0001:0003ba70       ?removeBroadPhaseRegion@NpScene@physx@@UEAA_NI@Z 000000018003ca70 f   NpScene.obj
 0001:0003bad0       ?removeFromConstraintList@NpScene@physx@@QEAAXAEAVPxConstraint@2@@Z 000000018003cad0 f   NpScene.obj
 0001:0003bb90       ?removeFromRigidDynamicList@NpScene@physx@@QEAAXAEAVNpRigidDynamic@2@@Z 000000018003cb90 f   NpScene.obj
 0001:0003bc60       ?removeFromRigidStaticList@NpScene@physx@@QEAAXAEAVNpRigidStatic@2@@Z 000000018003cc60 f   NpScene.obj
 0001:0003bd30       ?removeMaterial@NpScene@physx@@QEAAXAEBVNpFEMSoftBodyMaterial@2@@Z 000000018003cd30 f   NpScene.obj
 0001:0003bdc0       ?removeMaterial@NpScene@physx@@QEAAXAEBVNpMaterial@2@@Z 000000018003cdc0 f   NpScene.obj
 0001:0003be50       ?removeMaterial@NpScene@physx@@QEAAXAEBVNpPBDMaterial@2@@Z 000000018003ce50 f   NpScene.obj
 0001:0003bee0       ?removeParticleSystem@NpScene@physx@@AEAAXAEAVPxParticleSystem@2@_N@Z 000000018003cee0 f   NpScene.obj
 0001:0003bf60       ?removeReference@PxLightCpuTask@physx@@UEAAXXZ 000000018003cf60 f i NpScene.obj
 0001:0003bf80       ?removeRigidDynamic@NpScene@physx@@AEAAXAEAVNpRigidDynamic@2@_N1@Z 000000018003cf80 f   NpScene.obj
 0001:0003c080       ?removeRigidStatic@NpScene@physx@@AEAAXAEAVNpRigidStatic@2@_N1@Z 000000018003d080 f   NpScene.obj
 0001:0003c180       ?removeSoftBody@NpScene@physx@@AEAAXAEAVPxSoftBody@2@_N@Z 000000018003d180 f   NpScene.obj
 0001:0003c1f0       ?reserveLines@RenderBuffer@Cm@physx@@UEAAPEAUPxDebugLine@3@I@Z 000000018003d1f0 f i NpScene.obj
 0001:0003c250       ?reservePoints@RenderBuffer@Cm@physx@@UEAAPEAUPxDebugPoint@3@I@Z 000000018003d250 f i NpScene.obj
 0001:0003c2b0       ?resetFiltering@NpScene@physx@@UEAA_NAEAVPxActor@2@@Z 000000018003d2b0 f   NpScene.obj
 0001:0003c3f0       ?resetFiltering@NpScene@physx@@UEAA_NAEAVPxRigidActor@2@PEBQEAVPxShape@2@I@Z 000000018003d3f0 f   NpScene.obj
 0001:0003c530       ?resetFiltering_@?$NpRigidActorTemplate@VPxArticulationLink@physx@@@physx@@QEAA_NAEAVNpActor@2@AEAVRigidCore@Sc@2@PEBQEAVPxShape@2@I@Z 000000018003d530 f i NpScene.obj
 0001:0003c530       ?resetFiltering_@?$NpRigidActorTemplate@VPxRigidDynamic@physx@@@physx@@QEAA_NAEAVNpActor@2@AEAVRigidCore@Sc@2@PEBQEAVPxShape@2@I@Z 000000018003d530 f i NpScene.obj
 0001:0003c530       ?resetFiltering_@?$NpRigidActorTemplate@VPxRigidStatic@physx@@@physx@@QEAA_NAEAVNpActor@2@AEAVRigidCore@Sc@2@PEBQEAVPxShape@2@I@Z 000000018003d530 f i NpScene.obj
 0001:0003c680       ?resize@?$PxArray@VMaterialEvent@NpScene@physx@@V?$PxReflectionAllocator@VMaterialEvent@NpScene@physx@@@3@@physx@@QEAAXIAEBVMaterialEvent@NpScene@2@@Z 000000018003d680 f i NpScene.obj
 0001:0003c740       ?resize@?$PxsMaterialManagerT@V?$MaterialCoreT@UPxsMaterialData@physx@@VPxMaterial@2@@physx@@@physx@@QEAAXI@Z 000000018003d740 f i NpScene.obj
 0001:0003ca50       ?resizeUninitialized@?$PxArray@VPxBounds3@physx@@V?$PxInlineAllocator@$0MA@V?$PxReflectionAllocator@VPxBounds3@physx@@@physx@@@2@@physx@@QEAAXI@Z 000000018003da50 f i NpScene.obj
 0001:0003caa0       ?run@?$DelegateTask@VNpScene@physx@@$H?executeAdvance@12@QEAAXPEAVPxBaseTask@2@@ZA@@Cm@physx@@UEAAXXZ 000000018003daa0 f i NpScene.obj
 0001:0003cb00       ?run@?$DelegateTask@VNpScene@physx@@$H?executeCollide@12@QEAAXPEAVPxBaseTask@2@@ZA@@Cm@physx@@UEAAXXZ 000000018003db00 f i NpScene.obj
 0001:0003cb60       ?run@?$DelegateTask@VNpScene@physx@@$H?executeScene@12@QEAAXPEAVPxBaseTask@2@@ZA@@Cm@physx@@UEAAXXZ 000000018003db60 f i NpScene.obj
 0001:0003cbc0       ?run@?$DelegateTask@VNpScene@physx@@$H?sceneQueriesDynamicPrunerUpdate@12@AEAAXPEAVPxBaseTask@2@@ZA@@Cm@physx@@UEAAXXZ 000000018003dbc0 f i NpScene.obj
 0001:0003cc10       ?run@?$DelegateTask@VNpScene@physx@@$H?sceneQueriesStaticPrunerUpdate@12@AEAAXPEAVPxBaseTask@2@@ZA@@Cm@physx@@UEAAXXZ 000000018003dc10 f i NpScene.obj
 0001:0003cc60       ?run@BaseTask@Cm@physx@@UEAAXXZ 000000018003dc60 f i SimulationController_static_64:ScScene.obj
 0001:0003cc60       ?run@Task@Cm@physx@@UEAAXXZ 000000018003dc60 f i NpScene.obj
 0001:0003cca0       ?runInternal@?$DelegateTask@VNpScene@physx@@$H?executeAdvance@12@QEAAXPEAVPxBaseTask@2@@ZA@@Cm@physx@@UEAAXXZ 000000018003dca0 f i NpScene.obj
 0001:0003ccc0       ?runInternal@?$DelegateTask@VNpScene@physx@@$H?executeCollide@12@QEAAXPEAVPxBaseTask@2@@ZA@@Cm@physx@@UEAAXXZ 000000018003dcc0 f i NpScene.obj
 0001:0003cce0       ?runInternal@?$DelegateTask@VNpScene@physx@@$H?executeScene@12@QEAAXPEAVPxBaseTask@2@@ZA@@Cm@physx@@UEAAXXZ 000000018003dce0 f i NpScene.obj
 0001:0003cd00       ?runInternal@?$DelegateTask@VNpScene@physx@@$H?sceneQueriesDynamicPrunerUpdate@12@AEAAXPEAVPxBaseTask@2@@ZA@@Cm@physx@@UEAAXXZ 000000018003dd00 f i NpScene.obj
 0001:0003cd10       ?runInternal@?$DelegateTask@VNpScene@physx@@$H?sceneQueriesStaticPrunerUpdate@12@AEAAXPEAVPxBaseTask@2@@ZA@@Cm@physx@@UEAAXXZ 000000018003dd10 f i NpScene.obj
 0001:0003cd20       ?scAddActor@NpScene@physx@@QEAAXAEAVNpRigidDynamic@2@_NPEAVPxBounds3@2@PEBVBVH@Gu@2@@Z 000000018003dd20 f   NpScene.obj
 0001:0003cda0       ?scAddActor@NpScene@physx@@QEAAXAEAVNpRigidStatic@2@_NPEAVPxBounds3@2@PEBVBVH@Gu@2@@Z 000000018003dda0 f   NpScene.obj
 0001:0003ce10       ?scRemoveActor@NpScene@physx@@QEAAXAEAVNpArticulationLink@2@_N1@Z 000000018003de10 f   NpScene.obj
 0001:0003cf10       ?scRemoveActor@NpScene@physx@@QEAAXAEAVNpRigidDynamic@2@_N1@Z 000000018003df10 f   NpScene.obj
 0001:0003d0d0       ?scRemoveActor@NpScene@physx@@QEAAXAEAVNpRigidStatic@2@_N1@Z 000000018003e0d0 f   NpScene.obj
 0001:0003d280       ?scRemoveAggregate@NpScene@physx@@QEAAXAEAVNpAggregate@2@@Z 000000018003e280 f   NpScene.obj
 0001:0003d2b0       ?scRemoveArticulation@NpScene@physx@@QEAAXAEAVNpArticulationReducedCoordinate@2@@Z 000000018003e2b0 f   NpScene.obj
 0001:0003d300       ?scRemoveArticulationFixedTendon@NpScene@physx@@QEAAXAEAVNpArticulationFixedTendon@2@@Z 000000018003e300 f   NpScene.obj
 0001:0003d330       ?scRemoveArticulationJoint@NpScene@physx@@QEAAXAEAVNpArticulationJointReducedCoordinate@2@@Z 000000018003e330 f   NpScene.obj
 0001:0003d360       ?scRemoveArticulationSensor@NpScene@physx@@QEAAXAEAVNpArticulationSensor@2@@Z 000000018003e360 f   NpScene.obj
 0001:0003d390       ?scRemoveArticulationSpatialTendon@NpScene@physx@@QEAAXAEAVNpArticulationSpatialTendon@2@@Z 000000018003e390 f   NpScene.obj
 0001:0003d3c0       ?scRemoveParticleSystem@NpScene@physx@@QEAAXAEAVNpPBDParticleSystem@2@@Z 000000018003e3c0 f   NpScene.obj
 0001:0003d410       ?scRemoveSoftBody@NpScene@physx@@QEAAXAEAVNpSoftBody@2@@Z 000000018003e410 f   NpScene.obj
 0001:0003d460       ?scSwitchRigidFromNoSim@NpScene@physx@@QEAAXAEAVNpActor@2@@Z 000000018003e460 f   NpScene.obj
 0001:0003d550       ?scSwitchRigidToNoSim@NpScene@physx@@QEAAXAEAVNpActor@2@@Z 000000018003e550 f   NpScene.obj
 0001:0003d630       ?setActiveActors@NpScene@physx@@UEAAXPEAPEAVPxActor@2@I@Z 000000018003e630 f   NpScene.obj
 0001:0003d640       ?setBounceThresholdVelocity@NpScene@physx@@UEAAXM@Z 000000018003e640 f   NpScene.obj
 0001:0003d6a0       ?setBroadPhaseCallback@NpScene@physx@@UEAAXPEAVPxBroadPhaseCallback@2@@Z 000000018003e6a0 f   NpScene.obj
 0001:0003d6f0       ?setCCDContactModifyCallback@NpScene@physx@@UEAAXPEAVPxCCDContactModifyCallback@2@@Z 000000018003e6f0 f   NpScene.obj
 0001:0003d750       ?setCCDMaxPasses@NpScene@physx@@UEAAXI@Z 000000018003e750 f   NpScene.obj
 0001:0003d7b0       ?setCCDMaxSeparation@NpScene@physx@@UEAAXM@Z 000000018003e7b0 f   NpScene.obj
 0001:0003d810       ?setCCDThreshold@NpScene@physx@@UEAAXM@Z 000000018003e810 f   NpScene.obj
 0001:0003d870       ?setContactModifyCallback@NpScene@physx@@UEAAXPEAVPxContactModifyCallback@2@@Z 000000018003e870 f   NpScene.obj
 0001:0003d8e0       ?setDominanceGroupPair@NpScene@physx@@UEAAXEEAEBUPxDominanceGroupPair@2@@Z 000000018003e8e0 f   NpScene.obj
 0001:0003d940       ?setFilterShaderData@NpScene@physx@@UEAAXPEBXI@Z 000000018003e940 f   NpScene.obj
 0001:0003d9a0       ?setFlag@NpScene@physx@@UEAAXW4Enum@PxSceneFlag@2@_N@Z 000000018003e9a0 f   NpScene.obj
 0001:0003da30       ?setFrictionCorrelationDistance@NpScene@physx@@UEAAXM@Z 000000018003ea30 f   NpScene.obj
 0001:0003da90       ?setFrictionOffsetThreshold@NpScene@physx@@UEAAXM@Z 000000018003ea90 f   NpScene.obj
 0001:0003daf0       ?setFrozenActorFlag@NpScene@physx@@UEAAX_N@Z 000000018003eaf0 f   NpScene.obj
 0001:0003db00       ?setGravity@NpScene@physx@@UEAAXAEBV?$PxVec3T@M@2@@Z 000000018003eb00 f   NpScene.obj
 0001:0003db70       ?setLimits@NpScene@physx@@UEAAXAEBVPxSceneLimits@2@@Z 000000018003eb70 f   NpScene.obj
 0001:0003dc20       ?setMaxBiasCoefficient@NpScene@physx@@UEAAXM@Z 000000018003ec20 f   NpScene.obj
 0001:0003dc80       ?setName@NpScene@physx@@UEAAXPEBD@Z 000000018003ec80 f   NpScene.obj
 0001:0003dc90       ?setNbContactDataBlocks@NpScene@physx@@UEAAXI@Z 000000018003ec90 f   NpScene.obj
 0001:0003dca0       ?setSimulationEventCallback@NpScene@physx@@UEAAXPEAVPxSimulationEventCallback@2@@Z 000000018003eca0 f   NpScene.obj
 0001:0003dd00       ?setSolverArticulationBatchSize@NpScene@physx@@UEAAXI@Z 000000018003ed00 f   NpScene.obj
 0001:0003dd60       ?setSolverBatchSize@NpScene@physx@@UEAAXI@Z 000000018003ed60 f   NpScene.obj
 0001:0003ddc0       ?setVisualizationCullingBox@NpScene@physx@@UEAAXAEBVPxBounds3@2@@Z 000000018003edc0 f   NpScene.obj
 0001:0003de40       ?setVisualizationParameter@NpScene@physx@@UEAA_NW4Enum@PxVisualizationParameter@2@M@Z 000000018003ee40 f   NpScene.obj
 0001:0003def0       ?shift@RenderBuffer@Cm@physx@@UEAAXAEBV?$PxVec3T@M@3@@Z 000000018003eef0 f i NpScene.obj
 0001:0003e0a0       ?shiftOrigin@NpScene@physx@@UEAAXAEBV?$PxVec3T@M@2@@Z 000000018003f0a0 f   NpScene.obj
 0001:0003e2b0       ?simulate@NpScene@physx@@UEAA_NMPEAVPxBaseTask@2@PEAXI_N@Z 000000018003f2b0 f   NpScene.obj
 0001:0003e2f0       ?simulateOrCollide@NpScene@physx@@AEAA_NMPEAVPxBaseTask@2@PEAXI_NPEBDW4Enum@SimulationStage@Sc@2@@Z 000000018003f2f0 f   NpScene.obj
 0001:0003e6e0       ?unlockRead@NpScene@physx@@UEAAXXZ 000000018003f6e0 f   NpScene.obj
 0001:0003e780       ?unlockWrite@NpScene@physx@@UEAAXXZ 000000018003f780 f   NpScene.obj
 0001:0003e830       ?updateConstants@NpScene@physx@@QEAAXAEBV?$PxArray@PEAVNpConstraint@physx@@V?$PxReflectionAllocator@PEAVNpConstraint@physx@@@2@@2@@Z 000000018003f830 f   NpScene.obj
 0001:0003e880       ?updateMaterial@NpScene@physx@@QEAAXAEBVNpFEMSoftBodyMaterial@2@@Z 000000018003f880 f   NpScene.obj
 0001:0003e900       ?updateMaterial@NpScene@physx@@QEAAXAEBVNpMaterial@2@@Z 000000018003f900 f   NpScene.obj
 0001:0003e980       ?updateMaterial@NpScene@physx@@QEAAXAEBVNpPBDMaterial@2@@Z 000000018003f980 f   NpScene.obj
 0001:0003eac0       ??_ENpContactCallbackTask@physx@@UEAAPEAXI@Z 000000018003fac0 f i NpSceneFetchResults.obj
 0001:0003eac0       ??_EPxsParallelSolverTask@Dy@physx@@UEAAPEAXI@Z 000000018003fac0 f i LowLevelDynamics_static_64:DyDynamics.obj
 0001:0003eac0       ??_ESetStepperTask@Dy@physx@@UEAAPEAXI@Z 000000018003fac0 f i LowLevelDynamics_static_64:DyTGSDynamics.obj
 0001:0003eac0       ??_ESetupArticulationInternalConstraintsTask@Dy@physx@@UEAAPEAXI@Z 000000018003fac0 f i LowLevelDynamics_static_64:DyTGSDynamics.obj
 0001:0003eac0       ??_GNpContactCallbackTask@physx@@UEAAPEAXI@Z 000000018003fac0 f i NpSceneFetchResults.obj
 0001:0003eac0       ??_GPxsParallelSolverTask@Dy@physx@@UEAAPEAXI@Z 000000018003fac0 f i LowLevelDynamics_static_64:DyDynamics.obj
 0001:0003eac0       ??_GSetStepperTask@Dy@physx@@UEAAPEAXI@Z 000000018003fac0 f i LowLevelDynamics_static_64:DyTGSDynamics.obj
 0001:0003eac0       ??_GSetupArticulationInternalConstraintsTask@Dy@physx@@UEAAPEAXI@Z 000000018003fac0 f i LowLevelDynamics_static_64:DyTGSDynamics.obj
 0001:0003eb00       ?allocate@?$PxArray@PEAEV?$PxReflectionAllocator@PEAE@physx@@@physx@@IEAAPEAPEAEI@Z 000000018003fb00 f i NpSceneFetchResults.obj
 0001:0003eb90       ?checkResults@NpScene@physx@@UEAA_N_N@Z 000000018003fb90 f   NpSceneFetchResults.obj
 0001:0003eba0       ?fetchResults@NpScene@physx@@UEAA_N_NPEAI@Z 000000018003fba0 f   NpSceneFetchResults.obj
 0001:0003ecc0       ?fetchResultsFinish@NpScene@physx@@UEAAXPEAI@Z 000000018003fcc0 f   NpSceneFetchResults.obj
 0001:0003edc0       ?fetchResultsParticleSystem@NpScene@physx@@EEAAXXZ 000000018003fdc0 f   NpSceneFetchResults.obj
 0001:0003ede0       ?fetchResultsPostContactCallbacks@NpScene@physx@@AEAAXXZ 000000018003fde0 f   NpSceneFetchResults.obj
 0001:0003eeb0       ?fetchResultsPreContactCallbacks@NpScene@physx@@AEAAXXZ 000000018003feb0 f   NpSceneFetchResults.obj
 0001:0003ef30       ?fetchResultsStart@NpScene@physx@@UEAA_NAEAPEBUPxContactPairHeader@2@AEAI_N@Z 000000018003ff30 f   NpSceneFetchResults.obj
 0001:0003eff0       ?getName@NpContactCallbackTask@physx@@UEBAPEBDXZ 000000018003fff0 f i NpSceneFetchResults.obj
 0001:0003f000       ?growAndPushBack@?$PxArray@PEAEV?$PxReflectionAllocator@PEAE@physx@@@physx@@IEAAAEAPEAEAEBQEAE@Z 0000000180040000 f i NpSceneFetchResults.obj
 0001:0003f0c0       ?processCallbacks@NpScene@physx@@UEAAXPEAVPxBaseTask@2@@Z 00000001800400c0 f   NpSceneFetchResults.obj
 0001:0003f2e0       ?run@NpContactCallbackTask@physx@@UEAAXXZ 00000001800402e0 f   NpSceneFetchResults.obj
 0001:0003f3b0       ??0NpSceneQueries@physx@@QEAA@AEBVPxSceneDesc@1@PEAVPvdSceneClient@Vd@1@_K@Z 00000001800403b0 f   NpSceneQueries.obj
 0001:0003f550       ??1NpSceneQueries@physx@@UEAA@XZ 0000000180040550 f   NpSceneQueries.obj
 0001:0003f660       ??_ENpSceneQueries@physx@@UEAAPEAXI@Z 0000000180040660 f i NpSceneQueries.obj
 0001:0003f660       ??_GNpSceneQueries@physx@@UEAAPEAXI@Z 0000000180040660 f i NpSceneQueries.obj
 0001:0003fa50       ?checkQueries@NpScene@physx@@UEAA_N_N@Z 0000000180040a50 f   NpSceneQueries.obj
 0001:0003fb00       ?fetchQueries@NpScene@physx@@UEAA_N_N@Z 0000000180040b00 f   NpSceneQueries.obj
 0001:0003fc80       ?flushUpdates@NpScene@physx@@UEAAXXZ 0000000180040c80 f   NpSceneQueries.obj
 0001:0003fce0       ?forceRebuildDynamicTree@NpScene@physx@@UEAAXI@Z 0000000180040ce0 f   NpSceneQueries.obj
 0001:0003fd30       ?forceSceneQueryRebuild@NpScene@physx@@UEAAXXZ 0000000180040d30 f   NpSceneQueries.obj
 0001:0003fd90       ?getDynamicTreeRebuildRateHint@NpScene@physx@@UEBAIXZ 0000000180040d90 f   NpSceneQueries.obj
 0001:0003fe50       ?getStaticTimestamp@NpScene@physx@@UEBAIXZ 0000000180040e50 f   NpSceneQueries.obj
 0001:0003fe60       ?getUpdateMode@NpScene@physx@@UEBA?AW4Enum@PxSceneQueryUpdateMode@2@XZ 0000000180040e60 f   NpSceneQueries.obj
 0001:0003ffc0       ?overlap@NpScene@physx@@UEBA_NAEBVPxGeometry@2@AEBV?$PxTransformT@M@2@AEAU?$PxHitCallback@UPxOverlapHit@physx@@@2@AEBUPxQueryFilterData@2@PEAVPxQueryFilterCallback@2@PEBUPxQueryCache@2@V?$PxFlags@W4Enum@PxGeometryQueryFlag@physx@@I@2@@Z 0000000180040fc0 f   NpSceneQueries.obj
 0001:000400b0       ?raycast@NpScene@physx@@UEBA_NAEBV?$PxVec3T@M@2@0MAEAU?$PxHitCallback@UPxRaycastHit@physx@@@2@V?$PxFlags@W4Enum@PxHitFlag@physx@@G@2@AEBUPxQueryFilterData@2@PEAVPxQueryFilterCallback@2@PEBUPxQueryCache@2@V?$PxFlags@W4Enum@PxGeometryQueryFlag@physx@@I@2@@Z 00000001800410b0 f   NpSceneQueries.obj
 0001:000401e0       ?sceneQueriesDynamicPrunerUpdate@NpScene@physx@@AEAAXPEAVPxBaseTask@2@@Z 00000001800411e0 f   NpSceneQueries.obj
 0001:00040200       ?sceneQueriesStaticPrunerUpdate@NpScene@physx@@AEAAXPEAVPxBaseTask@2@@Z 0000000180041200 f   NpSceneQueries.obj
 0001:00040220       ?sceneQueriesUpdate@NpScene@physx@@UEAAXPEAVPxBaseTask@2@_N@Z 0000000180041220 f   NpSceneQueries.obj
 0001:00040400       ?setDynamicTreeRebuildRateHint@NpScene@physx@@UEAAXI@Z 0000000180041400 f   NpSceneQueries.obj
 0001:00040410       ?setUpdateMode@NpScene@physx@@UEAAXW4Enum@PxSceneQueryUpdateMode@2@@Z 0000000180041410 f   NpSceneQueries.obj
 0001:000404d0       ?sweep@NpScene@physx@@UEBA_NAEBVPxGeometry@2@AEBV?$PxTransformT@M@2@AEBV?$PxVec3T@M@2@MAEAU?$PxHitCallback@UPxSweepHit@physx@@@2@V?$PxFlags@W4Enum@PxHitFlag@physx@@G@2@AEBUPxQueryFilterData@2@PEAVPxQueryFilterCallback@2@PEBUPxQueryCache@2@MV?$PxFlags@W4Enum@PxGeometryQueryFlag@physx@@I@2@@Z 00000001800414d0 f   NpSceneQueries.obj
 0001:000405c0       ?sync@NpSceneQueries@physx@@MEAAXIPEBI0PEBVPxBounds3@2@PEBUPxTransformPadded@2@IAEBV?$PxBitMapBase@VPxAllocator@physx@@@2@@Z 00000001800415c0 f   NpSceneQueries.obj
 0001:000405d0       ?syncSQ@NpScene@physx@@AEAAXXZ 00000001800415d0 f   NpSceneQueries.obj
 0001:00040af0       ??_E?$PxSerializerDefaultAdapter@VBV4TriangleMesh@Gu@physx@@@physx@@UEAAPEAXI@Z 0000000180041af0 f i NpSerializerAdapter.obj
 0001:00040af0       ??_E?$PxSerializerDefaultAdapter@VConvexMesh@Gu@physx@@@physx@@UEAAPEAXI@Z 0000000180041af0 f i NpSerializerAdapter.obj
 0001:00040af0       ??_E?$PxSerializerDefaultAdapter@VHeightField@Gu@physx@@@physx@@UEAAPEAXI@Z 0000000180041af0 f i NpSerializerAdapter.obj
 0001:00040af0       ??_E?$PxSerializerDefaultAdapter@VNpAggregate@physx@@@physx@@UEAAPEAXI@Z 0000000180041af0 f i NpSerializerAdapter.obj
 0001:00040af0       ??_E?$PxSerializerDefaultAdapter@VNpArticulationAttachment@physx@@@physx@@UEAAPEAXI@Z 0000000180041af0 f i NpSerializerAdapter.obj
 0001:00040af0       ??_E?$PxSerializerDefaultAdapter@VNpArticulationFixedTendon@physx@@@physx@@UEAAPEAXI@Z 0000000180041af0 f i NpSerializerAdapter.obj
 0001:00040af0       ??_E?$PxSerializerDefaultAdapter@VNpArticulationJointReducedCoordinate@physx@@@physx@@UEAAPEAXI@Z 0000000180041af0 f i NpSerializerAdapter.obj
 0001:00040af0       ??_E?$PxSerializerDefaultAdapter@VNpArticulationLink@physx@@@physx@@UEAAPEAXI@Z 0000000180041af0 f i NpSerializerAdapter.obj
 0001:00040af0       ??_E?$PxSerializerDefaultAdapter@VNpArticulationReducedCoordinate@physx@@@physx@@UEAAPEAXI@Z 0000000180041af0 f i NpSerializerAdapter.obj
 0001:00040af0       ??_E?$PxSerializerDefaultAdapter@VNpArticulationSensor@physx@@@physx@@UEAAPEAXI@Z 0000000180041af0 f i NpSerializerAdapter.obj
 0001:00040af0       ??_E?$PxSerializerDefaultAdapter@VNpArticulationSpatialTendon@physx@@@physx@@UEAAPEAXI@Z 0000000180041af0 f i NpSerializerAdapter.obj
 0001:00040af0       ??_E?$PxSerializerDefaultAdapter@VNpArticulationTendonJoint@physx@@@physx@@UEAAPEAXI@Z 0000000180041af0 f i NpSerializerAdapter.obj
 0001:00040af0       ??_E?$PxSerializerDefaultAdapter@VNpConstraint@physx@@@physx@@UEAAPEAXI@Z 0000000180041af0 f i NpSerializerAdapter.obj
 0001:00040af0       ??_E?$PxSerializerDefaultAdapter@VNpMaterial@physx@@@physx@@UEAAPEAXI@Z 0000000180041af0 f i NpSerializerAdapter.obj
 0001:00040af0       ??_E?$PxSerializerDefaultAdapter@VNpRigidDynamic@physx@@@physx@@UEAAPEAXI@Z 0000000180041af0 f i NpSerializerAdapter.obj
 0001:00040af0       ??_E?$PxSerializerDefaultAdapter@VNpRigidStatic@physx@@@physx@@UEAAPEAXI@Z 0000000180041af0 f i NpSerializerAdapter.obj
 0001:00040af0       ??_E?$PxSerializerDefaultAdapter@VNpShape@physx@@@physx@@UEAAPEAXI@Z 0000000180041af0 f i NpSerializerAdapter.obj
 0001:00040af0       ??_E?$PxSerializerDefaultAdapter@VPruningStructure@Sq@physx@@@physx@@UEAAPEAXI@Z 0000000180041af0 f i NpSerializerAdapter.obj
 0001:00040af0       ??_E?$PxSerializerDefaultAdapter@VRTreeTriangleMesh@Gu@physx@@@physx@@UEAAPEAXI@Z 0000000180041af0 f i NpSerializerAdapter.obj
 0001:00040af0       ??_G?$PxSerializerDefaultAdapter@VBV4TriangleMesh@Gu@physx@@@physx@@UEAAPEAXI@Z 0000000180041af0 f i NpSerializerAdapter.obj
 0001:00040af0       ??_G?$PxSerializerDefaultAdapter@VConvexMesh@Gu@physx@@@physx@@UEAAPEAXI@Z 0000000180041af0 f i NpSerializerAdapter.obj
 0001:00040af0       ??_G?$PxSerializerDefaultAdapter@VHeightField@Gu@physx@@@physx@@UEAAPEAXI@Z 0000000180041af0 f i NpSerializerAdapter.obj
 0001:00040af0       ??_G?$PxSerializerDefaultAdapter@VNpAggregate@physx@@@physx@@UEAAPEAXI@Z 0000000180041af0 f i NpSerializerAdapter.obj
 0001:00040af0       ??_G?$PxSerializerDefaultAdapter@VNpArticulationAttachment@physx@@@physx@@UEAAPEAXI@Z 0000000180041af0 f i NpSerializerAdapter.obj
 0001:00040af0       ??_G?$PxSerializerDefaultAdapter@VNpArticulationFixedTendon@physx@@@physx@@UEAAPEAXI@Z 0000000180041af0 f i NpSerializerAdapter.obj
 0001:00040af0       ??_G?$PxSerializerDefaultAdapter@VNpArticulationJointReducedCoordinate@physx@@@physx@@UEAAPEAXI@Z 0000000180041af0 f i NpSerializerAdapter.obj
 0001:00040af0       ??_G?$PxSerializerDefaultAdapter@VNpArticulationLink@physx@@@physx@@UEAAPEAXI@Z 0000000180041af0 f i NpSerializerAdapter.obj
 0001:00040af0       ??_G?$PxSerializerDefaultAdapter@VNpArticulationReducedCoordinate@physx@@@physx@@UEAAPEAXI@Z 0000000180041af0 f i NpSerializerAdapter.obj
 0001:00040af0       ??_G?$PxSerializerDefaultAdapter@VNpArticulationSensor@physx@@@physx@@UEAAPEAXI@Z 0000000180041af0 f i NpSerializerAdapter.obj
 0001:00040af0       ??_G?$PxSerializerDefaultAdapter@VNpArticulationSpatialTendon@physx@@@physx@@UEAAPEAXI@Z 0000000180041af0 f i NpSerializerAdapter.obj
 0001:00040af0       ??_G?$PxSerializerDefaultAdapter@VNpArticulationTendonJoint@physx@@@physx@@UEAAPEAXI@Z 0000000180041af0 f i NpSerializerAdapter.obj
 0001:00040af0       ??_G?$PxSerializerDefaultAdapter@VNpConstraint@physx@@@physx@@UEAAPEAXI@Z 0000000180041af0 f i NpSerializerAdapter.obj
 0001:00040af0       ??_G?$PxSerializerDefaultAdapter@VNpMaterial@physx@@@physx@@UEAAPEAXI@Z 0000000180041af0 f i NpSerializerAdapter.obj
 0001:00040af0       ??_G?$PxSerializerDefaultAdapter@VNpRigidDynamic@physx@@@physx@@UEAAPEAXI@Z 0000000180041af0 f i NpSerializerAdapter.obj
 0001:00040af0       ??_G?$PxSerializerDefaultAdapter@VNpRigidStatic@physx@@@physx@@UEAAPEAXI@Z 0000000180041af0 f i NpSerializerAdapter.obj
 0001:00040af0       ??_G?$PxSerializerDefaultAdapter@VNpShape@physx@@@physx@@UEAAPEAXI@Z 0000000180041af0 f i NpSerializerAdapter.obj
 0001:00040af0       ??_G?$PxSerializerDefaultAdapter@VPruningStructure@Sq@physx@@@physx@@UEAAPEAXI@Z 0000000180041af0 f i NpSerializerAdapter.obj
 0001:00040af0       ??_G?$PxSerializerDefaultAdapter@VRTreeTriangleMesh@Gu@physx@@@physx@@UEAAPEAXI@Z 0000000180041af0 f i NpSerializerAdapter.obj
 0001:00040b20       ??_EPxSerializer@physx@@UEAAPEAXI@Z 0000000180041b20 f i NpSerializerAdapter.obj
 0001:00040b20       ??_GPxSerializer@physx@@UEAAPEAXI@Z 0000000180041b20 f i NpSerializerAdapter.obj
 0001:00040b50       ??_ERequiresCallback@?1??registerReferences@?$PxSerializerDefaultAdapter@VBV4TriangleMesh@Gu@physx@@@physx@@UEBAXAEAVPxBase@3@AEAVPxSerializationContext@3@@Z@UEAAPEAXI@Z 0000000180041b50 f i NpSerializerAdapter.obj
 0001:00040b50       ??_ERequiresCallback@?1??registerReferences@?$PxSerializerDefaultAdapter@VConvexMesh@Gu@physx@@@physx@@UEBAXAEAVPxBase@3@AEAVPxSerializationContext@3@@Z@UEAAPEAXI@Z 0000000180041b50 f i NpSerializerAdapter.obj
 0001:00040b50       ??_ERequiresCallback@?1??registerReferences@?$PxSerializerDefaultAdapter@VHeightField@Gu@physx@@@physx@@UEBAXAEAVPxBase@3@AEAVPxSerializationContext@3@@Z@UEAAPEAXI@Z 0000000180041b50 f i NpSerializerAdapter.obj
 0001:00040b50       ??_ERequiresCallback@?1??registerReferences@?$PxSerializerDefaultAdapter@VNpAggregate@physx@@@physx@@UEBAXAEAVPxBase@3@AEAVPxSerializationContext@3@@Z@UEAAPEAXI@Z 0000000180041b50 f i NpSerializerAdapter.obj
 0001:00040b50       ??_ERequiresCallback@?1??registerReferences@?$PxSerializerDefaultAdapter@VNpArticulationAttachment@physx@@@physx@@UEBAXAEAVPxBase@3@AEAVPxSerializationContext@3@@Z@UEAAPEAXI@Z 0000000180041b50 f i NpSerializerAdapter.obj
 0001:00040b50       ??_ERequiresCallback@?1??registerReferences@?$PxSerializerDefaultAdapter@VNpArticulationFixedTendon@physx@@@physx@@UEBAXAEAVPxBase@3@AEAVPxSerializationContext@3@@Z@UEAAPEAXI@Z 0000000180041b50 f i NpSerializerAdapter.obj
 0001:00040b50       ??_ERequiresCallback@?1??registerReferences@?$PxSerializerDefaultAdapter@VNpArticulationJointReducedCoordinate@physx@@@physx@@UEBAXAEAVPxBase@3@AEAVPxSerializationContext@3@@Z@UEAAPEAXI@Z 0000000180041b50 f i NpSerializerAdapter.obj
 0001:00040b50       ??_ERequiresCallback@?1??registerReferences@?$PxSerializerDefaultAdapter@VNpArticulationLink@physx@@@physx@@UEBAXAEAVPxBase@3@AEAVPxSerializationContext@3@@Z@UEAAPEAXI@Z 0000000180041b50 f i NpSerializerAdapter.obj
 0001:00040b50       ??_ERequiresCallback@?1??registerReferences@?$PxSerializerDefaultAdapter@VNpArticulationReducedCoordinate@physx@@@physx@@UEBAXAEAVPxBase@3@AEAVPxSerializationContext@3@@Z@UEAAPEAXI@Z 0000000180041b50 f i NpSerializerAdapter.obj
 0001:00040b50       ??_ERequiresCallback@?1??registerReferences@?$PxSerializerDefaultAdapter@VNpArticulationSensor@physx@@@physx@@UEBAXAEAVPxBase@3@AEAVPxSerializationContext@3@@Z@UEAAPEAXI@Z 0000000180041b50 f i NpSerializerAdapter.obj
 0001:00040b50       ??_ERequiresCallback@?1??registerReferences@?$PxSerializerDefaultAdapter@VNpArticulationSpatialTendon@physx@@@physx@@UEBAXAEAVPxBase@3@AEAVPxSerializationContext@3@@Z@UEAAPEAXI@Z 0000000180041b50 f i NpSerializerAdapter.obj
 0001:00040b50       ??_ERequiresCallback@?1??registerReferences@?$PxSerializerDefaultAdapter@VNpArticulationTendonJoint@physx@@@physx@@UEBAXAEAVPxBase@3@AEAVPxSerializationContext@3@@Z@UEAAPEAXI@Z 0000000180041b50 f i NpSerializerAdapter.obj
 0001:00040b50       ??_ERequiresCallback@?1??registerReferences@?$PxSerializerDefaultAdapter@VNpConstraint@physx@@@physx@@UEBAXAEAVPxBase@3@AEAVPxSerializationContext@3@@Z@UEAAPEAXI@Z 0000000180041b50 f i NpSerializerAdapter.obj
 0001:00040b50       ??_ERequiresCallback@?1??registerReferences@?$PxSerializerDefaultAdapter@VNpRigidDynamic@physx@@@physx@@UEBAXAEAVPxBase@3@AEAVPxSerializationContext@3@@Z@UEAAPEAXI@Z 0000000180041b50 f i NpSerializerAdapter.obj
 0001:00040b50       ??_ERequiresCallback@?1??registerReferences@?$PxSerializerDefaultAdapter@VNpRigidStatic@physx@@@physx@@UEBAXAEAVPxBase@3@AEAVPxSerializationContext@3@@Z@UEAAPEAXI@Z 0000000180041b50 f i NpSerializerAdapter.obj
 0001:00040b50       ??_ERequiresCallback@?1??registerReferences@?$PxSerializerDefaultAdapter@VNpShape@physx@@@physx@@UEBAXAEAVPxBase@3@AEAVPxSerializationContext@3@@Z@UEAAPEAXI@Z 0000000180041b50 f i NpSerializerAdapter.obj
 0001:00040b50       ??_ERequiresCallback@?1??registerReferences@?$PxSerializerDefaultAdapter@VPruningStructure@Sq@physx@@@physx@@UEBAXAEAVPxBase@3@AEAVPxSerializationContext@3@@Z@UEAAPEAXI@Z 0000000180041b50 f i NpSerializerAdapter.obj
 0001:00040b50       ??_ERequiresCallback@?1??registerReferences@?$PxSerializerDefaultAdapter@VRTreeTriangleMesh@Gu@physx@@@physx@@UEBAXAEAVPxBase@3@AEAVPxSerializationContext@3@@Z@UEAAPEAXI@Z 0000000180041b50 f i NpSerializerAdapter.obj
 0001:00040b50       ??_GRequiresCallback@?1??registerReferences@?$PxSerializerDefaultAdapter@VBV4TriangleMesh@Gu@physx@@@physx@@UEBAXAEAVPxBase@3@AEAVPxSerializationContext@3@@Z@UEAAPEAXI@Z 0000000180041b50 f i NpSerializerAdapter.obj
 0001:00040b50       ??_GRequiresCallback@?1??registerReferences@?$PxSerializerDefaultAdapter@VConvexMesh@Gu@physx@@@physx@@UEBAXAEAVPxBase@3@AEAVPxSerializationContext@3@@Z@UEAAPEAXI@Z 0000000180041b50 f i NpSerializerAdapter.obj
 0001:00040b50       ??_GRequiresCallback@?1??registerReferences@?$PxSerializerDefaultAdapter@VHeightField@Gu@physx@@@physx@@UEBAXAEAVPxBase@3@AEAVPxSerializationContext@3@@Z@UEAAPEAXI@Z 0000000180041b50 f i NpSerializerAdapter.obj
 0001:00040b50       ??_GRequiresCallback@?1??registerReferences@?$PxSerializerDefaultAdapter@VNpAggregate@physx@@@physx@@UEBAXAEAVPxBase@3@AEAVPxSerializationContext@3@@Z@UEAAPEAXI@Z 0000000180041b50 f i NpSerializerAdapter.obj
 0001:00040b50       ??_GRequiresCallback@?1??registerReferences@?$PxSerializerDefaultAdapter@VNpArticulationAttachment@physx@@@physx@@UEBAXAEAVPxBase@3@AEAVPxSerializationContext@3@@Z@UEAAPEAXI@Z 0000000180041b50 f i NpSerializerAdapter.obj
 0001:00040b50       ??_GRequiresCallback@?1??registerReferences@?$PxSerializerDefaultAdapter@VNpArticulationFixedTendon@physx@@@physx@@UEBAXAEAVPxBase@3@AEAVPxSerializationContext@3@@Z@UEAAPEAXI@Z 0000000180041b50 f i NpSerializerAdapter.obj
 0001:00040b50       ??_GRequiresCallback@?1??registerReferences@?$PxSerializerDefaultAdapter@VNpArticulationJointReducedCoordinate@physx@@@physx@@UEBAXAEAVPxBase@3@AEAVPxSerializationContext@3@@Z@UEAAPEAXI@Z 0000000180041b50 f i NpSerializerAdapter.obj
 0001:00040b50       ??_GRequiresCallback@?1??registerReferences@?$PxSerializerDefaultAdapter@VNpArticulationLink@physx@@@physx@@UEBAXAEAVPxBase@3@AEAVPxSerializationContext@3@@Z@UEAAPEAXI@Z 0000000180041b50 f i NpSerializerAdapter.obj
 0001:00040b50       ??_GRequiresCallback@?1??registerReferences@?$PxSerializerDefaultAdapter@VNpArticulationReducedCoordinate@physx@@@physx@@UEBAXAEAVPxBase@3@AEAVPxSerializationContext@3@@Z@UEAAPEAXI@Z 0000000180041b50 f i NpSerializerAdapter.obj
 0001:00040b50       ??_GRequiresCallback@?1??registerReferences@?$PxSerializerDefaultAdapter@VNpArticulationSensor@physx@@@physx@@UEBAXAEAVPxBase@3@AEAVPxSerializationContext@3@@Z@UEAAPEAXI@Z 0000000180041b50 f i NpSerializerAdapter.obj
 0001:00040b50       ??_GRequiresCallback@?1??registerReferences@?$PxSerializerDefaultAdapter@VNpArticulationSpatialTendon@physx@@@physx@@UEBAXAEAVPxBase@3@AEAVPxSerializationContext@3@@Z@UEAAPEAXI@Z 0000000180041b50 f i NpSerializerAdapter.obj
 0001:00040b50       ??_GRequiresCallback@?1??registerReferences@?$PxSerializerDefaultAdapter@VNpArticulationTendonJoint@physx@@@physx@@UEBAXAEAVPxBase@3@AEAVPxSerializationContext@3@@Z@UEAAPEAXI@Z 0000000180041b50 f i NpSerializerAdapter.obj
 0001:00040b50       ??_GRequiresCallback@?1??registerReferences@?$PxSerializerDefaultAdapter@VNpConstraint@physx@@@physx@@UEBAXAEAVPxBase@3@AEAVPxSerializationContext@3@@Z@UEAAPEAXI@Z 0000000180041b50 f i NpSerializerAdapter.obj
 0001:00040b50       ??_GRequiresCallback@?1??registerReferences@?$PxSerializerDefaultAdapter@VNpRigidDynamic@physx@@@physx@@UEBAXAEAVPxBase@3@AEAVPxSerializationContext@3@@Z@UEAAPEAXI@Z 0000000180041b50 f i NpSerializerAdapter.obj
 0001:00040b50       ??_GRequiresCallback@?1??registerReferences@?$PxSerializerDefaultAdapter@VNpRigidStatic@physx@@@physx@@UEBAXAEAVPxBase@3@AEAVPxSerializationContext@3@@Z@UEAAPEAXI@Z 0000000180041b50 f i NpSerializerAdapter.obj
 0001:00040b50       ??_GRequiresCallback@?1??registerReferences@?$PxSerializerDefaultAdapter@VNpShape@physx@@@physx@@UEBAXAEAVPxBase@3@AEAVPxSerializationContext@3@@Z@UEAAPEAXI@Z 0000000180041b50 f i NpSerializerAdapter.obj
 0001:00040b50       ??_GRequiresCallback@?1??registerReferences@?$PxSerializerDefaultAdapter@VPruningStructure@Sq@physx@@@physx@@UEBAXAEAVPxBase@3@AEAVPxSerializationContext@3@@Z@UEAAPEAXI@Z 0000000180041b50 f i NpSerializerAdapter.obj
 0001:00040b50       ??_GRequiresCallback@?1??registerReferences@?$PxSerializerDefaultAdapter@VRTreeTriangleMesh@Gu@physx@@@physx@@UEBAXAEAVPxBase@3@AEAVPxSerializationContext@3@@Z@UEAAPEAXI@Z 0000000180041b50 f i NpSerializerAdapter.obj
 0001:00040b80       ?createObject@?$PxSerializerDefaultAdapter@VBV4TriangleMesh@Gu@physx@@@physx@@UEBAPEAVPxBase@2@AEAPEAEAEAVPxDeserializationContext@2@@Z 0000000180041b80 f i NpSerializerAdapter.obj
 0001:00040b90       ?createObject@?$PxSerializerDefaultAdapter@VConvexMesh@Gu@physx@@@physx@@UEBAPEAVPxBase@2@AEAPEAEAEAVPxDeserializationContext@2@@Z 0000000180041b90 f i NpSerializerAdapter.obj
 0001:00040ba0       ?createObject@?$PxSerializerDefaultAdapter@VHeightField@Gu@physx@@@physx@@UEBAPEAVPxBase@2@AEAPEAEAEAVPxDeserializationContext@2@@Z 0000000180041ba0 f i NpSerializerAdapter.obj
 0001:00040bb0       ?createObject@?$PxSerializerDefaultAdapter@VNpAggregate@physx@@@physx@@UEBAPEAVPxBase@2@AEAPEAEAEAVPxDeserializationContext@2@@Z 0000000180041bb0 f i NpSerializerAdapter.obj
 0001:00040bc0       ?createObject@?$PxSerializerDefaultAdapter@VNpArticulationAttachment@physx@@@physx@@UEBAPEAVPxBase@2@AEAPEAEAEAVPxDeserializationContext@2@@Z 0000000180041bc0 f i NpSerializerAdapter.obj
 0001:00040bd0       ?createObject@?$PxSerializerDefaultAdapter@VNpArticulationFixedTendon@physx@@@physx@@UEBAPEAVPxBase@2@AEAPEAEAEAVPxDeserializationContext@2@@Z 0000000180041bd0 f i NpSerializerAdapter.obj
 0001:00040be0       ?createObject@?$PxSerializerDefaultAdapter@VNpArticulationJointReducedCoordinate@physx@@@physx@@UEBAPEAVPxBase@2@AEAPEAEAEAVPxDeserializationContext@2@@Z 0000000180041be0 f i NpSerializerAdapter.obj
 0001:00040bf0       ?createObject@?$PxSerializerDefaultAdapter@VNpArticulationLink@physx@@@physx@@UEBAPEAVPxBase@2@AEAPEAEAEAVPxDeserializationContext@2@@Z 0000000180041bf0 f i NpSerializerAdapter.obj
 0001:00040c00       ?createObject@?$PxSerializerDefaultAdapter@VNpArticulationReducedCoordinate@physx@@@physx@@UEBAPEAVPxBase@2@AEAPEAEAEAVPxDeserializationContext@2@@Z 0000000180041c00 f i NpSerializerAdapter.obj
 0001:00040c10       ?createObject@?$PxSerializerDefaultAdapter@VNpArticulationSensor@physx@@@physx@@UEBAPEAVPxBase@2@AEAPEAEAEAVPxDeserializationContext@2@@Z 0000000180041c10 f i NpSerializerAdapter.obj
 0001:00040c20       ?createObject@?$PxSerializerDefaultAdapter@VNpArticulationSpatialTendon@physx@@@physx@@UEBAPEAVPxBase@2@AEAPEAEAEAVPxDeserializationContext@2@@Z 0000000180041c20 f i NpSerializerAdapter.obj
 0001:00040c30       ?createObject@?$PxSerializerDefaultAdapter@VNpArticulationTendonJoint@physx@@@physx@@UEBAPEAVPxBase@2@AEAPEAEAEAVPxDeserializationContext@2@@Z 0000000180041c30 f i NpSerializerAdapter.obj
 0001:00040c40       ?createObject@?$PxSerializerDefaultAdapter@VNpConstraint@physx@@@physx@@UEBAPEAVPxBase@2@AEAPEAEAEAVPxDeserializationContext@2@@Z 0000000180041c40 f i NpSerializerAdapter.obj
 0001:00040c50       ?createObject@?$PxSerializerDefaultAdapter@VNpMaterial@physx@@@physx@@UEBAPEAVPxBase@2@AEAPEAEAEAVPxDeserializationContext@2@@Z 0000000180041c50 f i NpSerializerAdapter.obj
 0001:00040c60       ?createObject@?$PxSerializerDefaultAdapter@VNpRigidDynamic@physx@@@physx@@UEBAPEAVPxBase@2@AEAPEAEAEAVPxDeserializationContext@2@@Z 0000000180041c60 f i NpSerializerAdapter.obj
 0001:00040c70       ?createObject@?$PxSerializerDefaultAdapter@VNpRigidStatic@physx@@@physx@@UEBAPEAVPxBase@2@AEAPEAEAEAVPxDeserializationContext@2@@Z 0000000180041c70 f i NpSerializerAdapter.obj
 0001:00040c80       ?createObject@?$PxSerializerDefaultAdapter@VNpShape@physx@@@physx@@UEBAPEAVPxBase@2@AEAPEAEAEAVPxDeserializationContext@2@@Z 0000000180041c80 f i NpSerializerAdapter.obj
 0001:00040c90       ?createObject@?$PxSerializerDefaultAdapter@VPruningStructure@Sq@physx@@@physx@@UEBAPEAVPxBase@2@AEAPEAEAEAVPxDeserializationContext@2@@Z 0000000180041c90 f i NpSerializerAdapter.obj
 0001:00040ca0       ?createObject@?$PxSerializerDefaultAdapter@VRTreeTriangleMesh@Gu@physx@@@physx@@UEBAPEAVPxBase@2@AEAPEAEAEAVPxDeserializationContext@2@@Z 0000000180041ca0 f i NpSerializerAdapter.obj
 0001:00040cb0       ?exportData@?$PxSerializerDefaultAdapter@VBV4TriangleMesh@Gu@physx@@@physx@@UEBAXAEAVPxBase@2@AEAVPxSerializationContext@2@@Z 0000000180041cb0 f i NpSerializerAdapter.obj
 0001:00040dc0       ?exportData@?$PxSerializerDefaultAdapter@VConvexMesh@Gu@physx@@@physx@@UEBAXAEAVPxBase@2@AEAVPxSerializationContext@2@@Z 0000000180041dc0 f i NpSerializerAdapter.obj
 0001:00040eb0       ?exportData@?$PxSerializerDefaultAdapter@VHeightField@Gu@physx@@@physx@@UEBAXAEAVPxBase@2@AEAVPxSerializationContext@2@@Z 0000000180041eb0 f i NpSerializerAdapter.obj
 0001:00040f80       ?exportData@?$PxSerializerDefaultAdapter@VNpAggregate@physx@@@physx@@UEBAXAEAVPxBase@2@AEAVPxSerializationContext@2@@Z 0000000180041f80 f i NpSerializerAdapter.obj
 0001:00041030       ?exportData@?$PxSerializerDefaultAdapter@VNpArticulationAttachment@physx@@@physx@@UEBAXAEAVPxBase@2@AEAVPxSerializationContext@2@@Z 0000000180042030 f i NpSerializerAdapter.obj
 0001:00041130       ?exportData@?$PxSerializerDefaultAdapter@VNpArticulationFixedTendon@physx@@@physx@@UEBAXAEAVPxBase@2@AEAVPxSerializationContext@2@@Z 0000000180042130 f i NpSerializerAdapter.obj
 0001:00041210       ?exportData@?$PxSerializerDefaultAdapter@VNpArticulationJointReducedCoordinate@physx@@@physx@@UEBAXAEAVPxBase@2@AEAVPxSerializationContext@2@@Z 0000000180042210 f i NpSerializerAdapter.obj
 0001:00041310       ?exportData@?$PxSerializerDefaultAdapter@VNpArticulationLink@physx@@@physx@@UEBAXAEAVPxBase@2@AEAVPxSerializationContext@2@@Z 0000000180042310 f i NpSerializerAdapter.obj
 0001:00041450       ?exportData@?$PxSerializerDefaultAdapter@VNpArticulationReducedCoordinate@physx@@@physx@@UEBAXAEAVPxBase@2@AEAVPxSerializationContext@2@@Z 0000000180042450 f i NpSerializerAdapter.obj
 0001:00041560       ?exportData@?$PxSerializerDefaultAdapter@VNpArticulationSensor@physx@@@physx@@UEBAXAEAVPxBase@2@AEAVPxSerializationContext@2@@Z 0000000180042560 f i NpSerializerAdapter.obj
 0001:00041610       ?exportData@?$PxSerializerDefaultAdapter@VNpArticulationSpatialTendon@physx@@@physx@@UEBAXAEAVPxBase@2@AEAVPxSerializationContext@2@@Z 0000000180042610 f i NpSerializerAdapter.obj
 0001:000416e0       ?exportData@?$PxSerializerDefaultAdapter@VNpArticulationTendonJoint@physx@@@physx@@UEBAXAEAVPxBase@2@AEAVPxSerializationContext@2@@Z 00000001800426e0 f i NpSerializerAdapter.obj
 0001:000417d0       ?exportData@?$PxSerializerDefaultAdapter@VNpConstraint@physx@@@physx@@UEBAXAEAVPxBase@2@AEAVPxSerializationContext@2@@Z 00000001800427d0 f i NpSerializerAdapter.obj
 0001:000418a0       ?exportData@?$PxSerializerDefaultAdapter@VNpMaterial@physx@@@physx@@UEBAXAEAVPxBase@2@AEAVPxSerializationContext@2@@Z 00000001800428a0 f i NpSerializerAdapter.obj
 0001:00041950       ?exportData@?$PxSerializerDefaultAdapter@VNpRigidDynamic@physx@@@physx@@UEBAXAEAVPxBase@2@AEAVPxSerializationContext@2@@Z 0000000180042950 f i NpSerializerAdapter.obj
 0001:00041a40       ?exportData@?$PxSerializerDefaultAdapter@VNpRigidStatic@physx@@@physx@@UEBAXAEAVPxBase@2@AEAVPxSerializationContext@2@@Z 0000000180042a40 f i NpSerializerAdapter.obj
 0001:00041b30       ?exportData@?$PxSerializerDefaultAdapter@VNpShape@physx@@@physx@@UEBAXAEAVPxBase@2@AEAVPxSerializationContext@2@@Z 0000000180042b30 f i NpSerializerAdapter.obj
 0001:00041c40       ?exportData@?$PxSerializerDefaultAdapter@VPruningStructure@Sq@physx@@@physx@@UEBAXAEAVPxBase@2@AEAVPxSerializationContext@2@@Z 0000000180042c40 f i NpSerializerAdapter.obj
 0001:00041d00       ?exportData@?$PxSerializerDefaultAdapter@VRTreeTriangleMesh@Gu@physx@@@physx@@UEBAXAEAVPxBase@2@AEAVPxSerializationContext@2@@Z 0000000180042d00 f i NpSerializerAdapter.obj
 0001:00041e00       ?exportExtraData@?$PxSerializerDefaultAdapter@VBV4TriangleMesh@Gu@physx@@@physx@@UEBAXAEAVPxBase@2@AEAVPxSerializationContext@2@@Z 0000000180042e00 f i NpSerializerAdapter.obj
 0001:00041e00       ?exportExtraData@?$PxSerializerDefaultAdapter@VRTreeTriangleMesh@Gu@physx@@@physx@@UEBAXAEAVPxBase@2@AEAVPxSerializationContext@2@@Z 0000000180042e00 f i NpSerializerAdapter.obj
 0001:00041e10       ?exportExtraData@?$PxSerializerDefaultAdapter@VConvexMesh@Gu@physx@@@physx@@UEBAXAEAVPxBase@2@AEAVPxSerializationContext@2@@Z 0000000180042e10 f i NpSerializerAdapter.obj
 0001:00041e10       ?exportExtraData@?$PxSerializerDefaultAdapter@VNpArticulationAttachment@physx@@@physx@@UEBAXAEAVPxBase@2@AEAVPxSerializationContext@2@@Z 0000000180042e10 f i NpSerializerAdapter.obj
 0001:00041e10       ?exportExtraData@?$PxSerializerDefaultAdapter@VNpArticulationSpatialTendon@physx@@@physx@@UEBAXAEAVPxBase@2@AEAVPxSerializationContext@2@@Z 0000000180042e10 f i NpSerializerAdapter.obj
 0001:00041e20       ?exportExtraData@?$PxSerializerDefaultAdapter@VHeightField@Gu@physx@@@physx@@UEBAXAEAVPxBase@2@AEAVPxSerializationContext@2@@Z 0000000180042e20 f i NpSerializerAdapter.obj
 0001:00041e20       ?exportExtraData@?$PxSerializerDefaultAdapter@VNpArticulationFixedTendon@physx@@@physx@@UEBAXAEAVPxBase@2@AEAVPxSerializationContext@2@@Z 0000000180042e20 f i NpSerializerAdapter.obj
 0001:00041e30       ?exportExtraData@?$PxSerializerDefaultAdapter@VNpAggregate@physx@@@physx@@UEBAXAEAVPxBase@2@AEAVPxSerializationContext@2@@Z 0000000180042e30 f i NpSerializerAdapter.obj
 0001:00041e40       ?exportExtraData@?$PxSerializerDefaultAdapter@VNpArticulationLink@physx@@@physx@@UEBAXAEAVPxBase@2@AEAVPxSerializationContext@2@@Z 0000000180042e40 f i NpSerializerAdapter.obj
 0001:00041e50       ?exportExtraData@?$PxSerializerDefaultAdapter@VNpArticulationReducedCoordinate@physx@@@physx@@UEBAXAEAVPxBase@2@AEAVPxSerializationContext@2@@Z 0000000180042e50 f i NpSerializerAdapter.obj
 0001:00041e50       ?requiresObjects@?$PxSerializerDefaultAdapter@VNpArticulationLink@physx@@@physx@@UEBAXAEAVPxBase@2@AEAVPxProcessPxBaseCallback@2@@Z 0000000180042e50 f i NpSerializerAdapter.obj
 0001:00041e60       ?exportExtraData@?$PxSerializerDefaultAdapter@VNpArticulationSensor@physx@@@physx@@UEBAXAEAVPxBase@2@AEAVPxSerializationContext@2@@Z 0000000180042e60 f i NpSerializerAdapter.obj
 0001:00041e70       ?exportExtraData@?$PxSerializerDefaultAdapter@VNpArticulationTendonJoint@physx@@@physx@@UEBAXAEAVPxBase@2@AEAVPxSerializationContext@2@@Z 0000000180042e70 f i NpSerializerAdapter.obj
 0001:00041e70       ?requiresObjects@?$PxSerializerDefaultAdapter@VPruningStructure@Sq@physx@@@physx@@UEBAXAEAVPxBase@2@AEAVPxProcessPxBaseCallback@2@@Z 0000000180042e70 f i NpSerializerAdapter.obj
 0001:00041e80       ?exportExtraData@?$PxSerializerDefaultAdapter@VNpRigidDynamic@physx@@@physx@@UEBAXAEAVPxBase@2@AEAVPxSerializationContext@2@@Z 0000000180042e80 f i NpSerializerAdapter.obj
 0001:00041e90       ?exportExtraData@?$PxSerializerDefaultAdapter@VNpRigidStatic@physx@@@physx@@UEBAXAEAVPxBase@2@AEAVPxSerializationContext@2@@Z 0000000180042e90 f i NpSerializerAdapter.obj
 0001:00041ea0       ?exportExtraData@?$PxSerializerDefaultAdapter@VNpShape@physx@@@physx@@UEBAXAEAVPxBase@2@AEAVPxSerializationContext@2@@Z 0000000180042ea0 f i NpSerializerAdapter.obj
 0001:00041eb0       ?exportExtraData@?$PxSerializerDefaultAdapter@VPruningStructure@Sq@physx@@@physx@@UEBAXAEAVPxBase@2@AEAVPxSerializationContext@2@@Z 0000000180042eb0 f i NpSerializerAdapter.obj
 0001:00041ec0       ?getClassSize@?$PxSerializerDefaultAdapter@VBV4TriangleMesh@Gu@physx@@@physx@@UEBA_KXZ 0000000180042ec0 f i NpSerializerAdapter.obj
 0001:00041ed0       ?getClassSize@?$PxSerializerDefaultAdapter@VConvexMesh@Gu@physx@@@physx@@UEBA_KXZ 0000000180042ed0 f i NpSerializerAdapter.obj
 0001:00041ed0       ?getClassSize@?$PxSerializerDefaultAdapter@VNpArticulationTendonJoint@physx@@@physx@@UEBA_KXZ 0000000180042ed0 f i NpSerializerAdapter.obj
 0001:00041ee0       ?getClassSize@?$PxSerializerDefaultAdapter@VHeightField@Gu@physx@@@physx@@UEBA_KXZ 0000000180042ee0 f i NpSerializerAdapter.obj
 0001:00041ef0       ?getClassSize@?$PxSerializerDefaultAdapter@VNpAggregate@physx@@@physx@@UEBA_KXZ 0000000180042ef0 f i NpSerializerAdapter.obj
 0001:00041f00       ?getClassSize@?$PxSerializerDefaultAdapter@VNpArticulationAttachment@physx@@@physx@@UEBA_KXZ 0000000180042f00 f i NpSerializerAdapter.obj
 0001:00041f10       ?getClassSize@?$PxSerializerDefaultAdapter@VNpArticulationFixedTendon@physx@@@physx@@UEBA_KXZ 0000000180042f10 f i NpSerializerAdapter.obj
 0001:00041f20       ?getClassSize@?$PxSerializerDefaultAdapter@VNpArticulationJointReducedCoordinate@physx@@@physx@@UEBA_KXZ 0000000180042f20 f i NpSerializerAdapter.obj
 0001:00041f30       ?getClassSize@?$PxSerializerDefaultAdapter@VNpArticulationLink@physx@@@physx@@UEBA_KXZ 0000000180042f30 f i NpSerializerAdapter.obj
 0001:00041f40       ?getClassSize@?$PxSerializerDefaultAdapter@VNpArticulationReducedCoordinate@physx@@@physx@@UEBA_KXZ 0000000180042f40 f i NpSerializerAdapter.obj
 0001:00041f50       ?getClassSize@?$PxSerializerDefaultAdapter@VNpArticulationSensor@physx@@@physx@@UEBA_KXZ 0000000180042f50 f i NpSerializerAdapter.obj
 0001:00041f60       ?getClassSize@?$PxSerializerDefaultAdapter@VNpArticulationSpatialTendon@physx@@@physx@@UEBA_KXZ 0000000180042f60 f i NpSerializerAdapter.obj
 0001:00041f70       ?getClassSize@?$PxSerializerDefaultAdapter@VNpConstraint@physx@@@physx@@UEBA_KXZ 0000000180042f70 f i NpSerializerAdapter.obj
 0001:00041f80       ?getClassSize@?$PxSerializerDefaultAdapter@VNpMaterial@physx@@@physx@@UEBA_KXZ 0000000180042f80 f i NpSerializerAdapter.obj
 0001:00041f90       ?getClassSize@?$PxSerializerDefaultAdapter@VNpRigidDynamic@physx@@@physx@@UEBA_KXZ 0000000180042f90 f i NpSerializerAdapter.obj
 0001:00041fa0       ?getClassSize@?$PxSerializerDefaultAdapter@VNpRigidStatic@physx@@@physx@@UEBA_KXZ 0000000180042fa0 f i NpSerializerAdapter.obj
 0001:00041fb0       ?getClassSize@?$PxSerializerDefaultAdapter@VNpShape@physx@@@physx@@UEBA_KXZ 0000000180042fb0 f i NpSerializerAdapter.obj
 0001:00041fc0       ?getClassSize@?$PxSerializerDefaultAdapter@VPruningStructure@Sq@physx@@@physx@@UEBA_KXZ 0000000180042fc0 f i NpSerializerAdapter.obj
 0001:00041fd0       ?getClassSize@?$PxSerializerDefaultAdapter@VRTreeTriangleMesh@Gu@physx@@@physx@@UEBA_KXZ 0000000180042fd0 f i NpSerializerAdapter.obj
 0001:00041fe0       ?getOutOfBoundsObjects@AABBManagerBase@Bp@physx@@UEAA_NAEAUOutOfBoundsData@123@@Z 0000000180042fe0 f i LowLevelAABB_static_64:BpAABBManagerBase.obj
 0001:00041fe0       ?hasFEMCloth@PxsSimulationController@physx@@UEBA_NXZ 0000000180042fe0 f i SimulationController_static_64:ScScene.obj
 0001:00041fe0       ?hasHairSystems@PxsSimulationController@physx@@UEBA_NXZ 0000000180042fe0 f i SimulationController_static_64:ScScene.obj
 0001:00041fe0       ?hasSoftBodies@PxsSimulationController@physx@@UEBA_NXZ 0000000180042fe0 f i SimulationController_static_64:ScScene.obj
 0001:00041fe0       ?isSubordinate@?$PxSerializerDefaultAdapter@VBV4TriangleMesh@Gu@physx@@@physx@@UEBA_NXZ 0000000180042fe0 f i NpSerializerAdapter.obj
 0001:00041fe0       ?isSubordinate@?$PxSerializerDefaultAdapter@VConvexMesh@Gu@physx@@@physx@@UEBA_NXZ 0000000180042fe0 f i NpSerializerAdapter.obj
 0001:00041fe0       ?isSubordinate@?$PxSerializerDefaultAdapter@VHeightField@Gu@physx@@@physx@@UEBA_NXZ 0000000180042fe0 f i NpSerializerAdapter.obj
 0001:00041fe0       ?isSubordinate@?$PxSerializerDefaultAdapter@VNpAggregate@physx@@@physx@@UEBA_NXZ 0000000180042fe0 f i NpSerializerAdapter.obj
 0001:00041fe0       ?isSubordinate@?$PxSerializerDefaultAdapter@VNpArticulationAttachment@physx@@@physx@@UEBA_NXZ 0000000180042fe0 f i NpSerializerAdapter.obj
 0001:00041fe0       ?isSubordinate@?$PxSerializerDefaultAdapter@VNpArticulationFixedTendon@physx@@@physx@@UEBA_NXZ 0000000180042fe0 f i NpSerializerAdapter.obj
 0001:00041fe0       ?isSubordinate@?$PxSerializerDefaultAdapter@VNpArticulationReducedCoordinate@physx@@@physx@@UEBA_NXZ 0000000180042fe0 f i NpSerializerAdapter.obj
 0001:00041fe0       ?isSubordinate@?$PxSerializerDefaultAdapter@VNpArticulationSensor@physx@@@physx@@UEBA_NXZ 0000000180042fe0 f i NpSerializerAdapter.obj
 0001:00041fe0       ?isSubordinate@?$PxSerializerDefaultAdapter@VNpArticulationSpatialTendon@physx@@@physx@@UEBA_NXZ 0000000180042fe0 f i NpSerializerAdapter.obj
 0001:00041fe0       ?isSubordinate@?$PxSerializerDefaultAdapter@VNpArticulationTendonJoint@physx@@@physx@@UEBA_NXZ 0000000180042fe0 f i NpSerializerAdapter.obj
 0001:00041fe0       ?isSubordinate@?$PxSerializerDefaultAdapter@VNpMaterial@physx@@@physx@@UEBA_NXZ 0000000180042fe0 f i NpSerializerAdapter.obj
 0001:00041fe0       ?isSubordinate@?$PxSerializerDefaultAdapter@VNpRigidDynamic@physx@@@physx@@UEBA_NXZ 0000000180042fe0 f i NpSerializerAdapter.obj
 0001:00041fe0       ?isSubordinate@?$PxSerializerDefaultAdapter@VNpRigidStatic@physx@@@physx@@UEBA_NXZ 0000000180042fe0 f i NpSerializerAdapter.obj
 0001:00041fe0       ?isSubordinate@?$PxSerializerDefaultAdapter@VNpShape@physx@@@physx@@UEBA_NXZ 0000000180042fe0 f i NpSerializerAdapter.obj
 0001:00041fe0       ?isSubordinate@?$PxSerializerDefaultAdapter@VPruningStructure@Sq@physx@@@physx@@UEBA_NXZ 0000000180042fe0 f i NpSerializerAdapter.obj
 0001:00041fe0       ?isSubordinate@?$PxSerializerDefaultAdapter@VRTreeTriangleMesh@Gu@physx@@@physx@@UEBA_NXZ 0000000180042fe0 f i NpSerializerAdapter.obj
 0001:00041fe0       ?processTouches@?$PxHitBuffer@UPxRaycastHit@physx@@@physx@@MEAA_NPEBUPxRaycastHit@2@I@Z 0000000180042fe0 f i SceneQuery_static_64:SqQuery.obj
 0001:00041fe0       ?processTouches@?$PxHitBuffer@UPxSweepHit@physx@@@physx@@MEAA_NPEBUPxSweepHit@2@I@Z 0000000180042fe0 f i SceneQuery_static_64:SqQuery.obj
 0001:00041fe0       ?removeRegion@BroadPhaseBase@Bp@physx@@UEAA_NI@Z 0000000180042fe0 f i LowLevelAABB_static_64:BpBroadPhaseSap.obj
 0001:00041fe0       ?update@PersistentPairs@Bp@physx@@UEAA_NAEAVAABBManager@23@PEAUBpCacheData@23@@Z 0000000180042fe0 f i LowLevelAABB_static_64:BpAABBManager.obj
 0001:00041ff0       ?process@RequiresCallback@?1??registerReferences@?$PxSerializerDefaultAdapter@VBV4TriangleMesh@Gu@physx@@@physx@@UEBAXAEAVPxBase@4@AEAVPxSerializationContext@4@@Z@UEAAX0@Z 0000000180042ff0 f i NpSerializerAdapter.obj
 0001:00041ff0       ?process@RequiresCallback@?1??registerReferences@?$PxSerializerDefaultAdapter@VConvexMesh@Gu@physx@@@physx@@UEBAXAEAVPxBase@4@AEAVPxSerializationContext@4@@Z@UEAAX0@Z 0000000180042ff0 f i NpSerializerAdapter.obj
 0001:00041ff0       ?process@RequiresCallback@?1??registerReferences@?$PxSerializerDefaultAdapter@VHeightField@Gu@physx@@@physx@@UEBAXAEAVPxBase@4@AEAVPxSerializationContext@4@@Z@UEAAX0@Z 0000000180042ff0 f i NpSerializerAdapter.obj
 0001:00041ff0       ?process@RequiresCallback@?1??registerReferences@?$PxSerializerDefaultAdapter@VNpAggregate@physx@@@physx@@UEBAXAEAVPxBase@4@AEAVPxSerializationContext@4@@Z@UEAAX0@Z 0000000180042ff0 f i NpSerializerAdapter.obj
 0001:00041ff0       ?process@RequiresCallback@?1??registerReferences@?$PxSerializerDefaultAdapter@VNpArticulationAttachment@physx@@@physx@@UEBAXAEAVPxBase@4@AEAVPxSerializationContext@4@@Z@UEAAX0@Z 0000000180042ff0 f i NpSerializerAdapter.obj
 0001:00041ff0       ?process@RequiresCallback@?1??registerReferences@?$PxSerializerDefaultAdapter@VNpArticulationFixedTendon@physx@@@physx@@UEBAXAEAVPxBase@4@AEAVPxSerializationContext@4@@Z@UEAAX0@Z 0000000180042ff0 f i NpSerializerAdapter.obj
 0001:00041ff0       ?process@RequiresCallback@?1??registerReferences@?$PxSerializerDefaultAdapter@VNpArticulationJointReducedCoordinate@physx@@@physx@@UEBAXAEAVPxBase@4@AEAVPxSerializationContext@4@@Z@UEAAX0@Z 0000000180042ff0 f i NpSerializerAdapter.obj
 0001:00041ff0       ?process@RequiresCallback@?1??registerReferences@?$PxSerializerDefaultAdapter@VNpArticulationLink@physx@@@physx@@UEBAXAEAVPxBase@4@AEAVPxSerializationContext@4@@Z@UEAAX0@Z 0000000180042ff0 f i NpSerializerAdapter.obj
 0001:00041ff0       ?process@RequiresCallback@?1??registerReferences@?$PxSerializerDefaultAdapter@VNpArticulationReducedCoordinate@physx@@@physx@@UEBAXAEAVPxBase@4@AEAVPxSerializationContext@4@@Z@UEAAX0@Z 0000000180042ff0 f i NpSerializerAdapter.obj
 0001:00041ff0       ?process@RequiresCallback@?1??registerReferences@?$PxSerializerDefaultAdapter@VNpArticulationSensor@physx@@@physx@@UEBAXAEAVPxBase@4@AEAVPxSerializationContext@4@@Z@UEAAX0@Z 0000000180042ff0 f i NpSerializerAdapter.obj
 0001:00041ff0       ?process@RequiresCallback@?1??registerReferences@?$PxSerializerDefaultAdapter@VNpArticulationSpatialTendon@physx@@@physx@@UEBAXAEAVPxBase@4@AEAVPxSerializationContext@4@@Z@UEAAX0@Z 0000000180042ff0 f i NpSerializerAdapter.obj
 0001:00041ff0       ?process@RequiresCallback@?1??registerReferences@?$PxSerializerDefaultAdapter@VNpArticulationTendonJoint@physx@@@physx@@UEBAXAEAVPxBase@4@AEAVPxSerializationContext@4@@Z@UEAAX0@Z 0000000180042ff0 f i NpSerializerAdapter.obj
 0001:00041ff0       ?process@RequiresCallback@?1??registerReferences@?$PxSerializerDefaultAdapter@VNpConstraint@physx@@@physx@@UEBAXAEAVPxBase@4@AEAVPxSerializationContext@4@@Z@UEAAX0@Z 0000000180042ff0 f i NpSerializerAdapter.obj
 0001:00041ff0       ?process@RequiresCallback@?1??registerReferences@?$PxSerializerDefaultAdapter@VNpRigidDynamic@physx@@@physx@@UEBAXAEAVPxBase@4@AEAVPxSerializationContext@4@@Z@UEAAX0@Z 0000000180042ff0 f i NpSerializerAdapter.obj
 0001:00041ff0       ?process@RequiresCallback@?1??registerReferences@?$PxSerializerDefaultAdapter@VNpRigidStatic@physx@@@physx@@UEBAXAEAVPxBase@4@AEAVPxSerializationContext@4@@Z@UEAAX0@Z 0000000180042ff0 f i NpSerializerAdapter.obj
 0001:00041ff0       ?process@RequiresCallback@?1??registerReferences@?$PxSerializerDefaultAdapter@VPruningStructure@Sq@physx@@@physx@@UEBAXAEAVPxBase@4@AEAVPxSerializationContext@4@@Z@UEAAX0@Z 0000000180042ff0 f i NpSerializerAdapter.obj
 0001:00041ff0       ?process@RequiresCallback@?1??registerReferences@?$PxSerializerDefaultAdapter@VRTreeTriangleMesh@Gu@physx@@@physx@@UEBAXAEAVPxBase@4@AEAVPxSerializationContext@4@@Z@UEAAX0@Z 0000000180042ff0 f i NpSerializerAdapter.obj
 0001:00042010       ?process@RequiresCallback@?1??registerReferences@?$PxSerializerDefaultAdapter@VNpShape@physx@@@physx@@UEBAXAEAVPxBase@4@AEAVPxSerializationContext@4@@Z@UEAAX0@Z 0000000180043010 f i NpSerializerAdapter.obj
 0001:00042050       ?registerReferences@?$PxSerializerDefaultAdapter@VBV4TriangleMesh@Gu@physx@@@physx@@UEBAXAEAVPxBase@2@AEAVPxSerializationContext@2@@Z 0000000180043050 f i NpSerializerAdapter.obj
 0001:00042050       ?registerReferences@?$PxSerializerDefaultAdapter@VRTreeTriangleMesh@Gu@physx@@@physx@@UEBAXAEAVPxBase@2@AEAVPxSerializationContext@2@@Z 0000000180043050 f i NpSerializerAdapter.obj
 0001:000420a0       ?registerReferences@?$PxSerializerDefaultAdapter@VConvexMesh@Gu@physx@@@physx@@UEBAXAEAVPxBase@2@AEAVPxSerializationContext@2@@Z 00000001800430a0 f i NpSerializerAdapter.obj
 0001:000420a0       ?registerReferences@?$PxSerializerDefaultAdapter@VNpArticulationAttachment@physx@@@physx@@UEBAXAEAVPxBase@2@AEAVPxSerializationContext@2@@Z 00000001800430a0 f i NpSerializerAdapter.obj
 0001:000420a0       ?registerReferences@?$PxSerializerDefaultAdapter@VNpArticulationSpatialTendon@physx@@@physx@@UEBAXAEAVPxBase@2@AEAVPxSerializationContext@2@@Z 00000001800430a0 f i NpSerializerAdapter.obj
 0001:000420f0       ?registerReferences@?$PxSerializerDefaultAdapter@VHeightField@Gu@physx@@@physx@@UEBAXAEAVPxBase@2@AEAVPxSerializationContext@2@@Z 00000001800430f0 f i NpSerializerAdapter.obj
 0001:000420f0       ?registerReferences@?$PxSerializerDefaultAdapter@VNpArticulationFixedTendon@physx@@@physx@@UEBAXAEAVPxBase@2@AEAVPxSerializationContext@2@@Z 00000001800430f0 f i NpSerializerAdapter.obj
 0001:00042140       ?registerReferences@?$PxSerializerDefaultAdapter@VNpAggregate@physx@@@physx@@UEBAXAEAVPxBase@2@AEAVPxSerializationContext@2@@Z 0000000180043140 f i NpSerializerAdapter.obj
 0001:00042190       ?registerReferences@?$PxSerializerDefaultAdapter@VNpArticulationJointReducedCoordinate@physx@@@physx@@UEBAXAEAVPxBase@2@AEAVPxSerializationContext@2@@Z 0000000180043190 f i NpSerializerAdapter.obj
 0001:000421e0       ?registerReferences@?$PxSerializerDefaultAdapter@VNpArticulationLink@physx@@@physx@@UEBAXAEAVPxBase@2@AEAVPxSerializationContext@2@@Z 00000001800431e0 f i NpSerializerAdapter.obj
 0001:00042230       ?registerReferences@?$PxSerializerDefaultAdapter@VNpArticulationReducedCoordinate@physx@@@physx@@UEBAXAEAVPxBase@2@AEAVPxSerializationContext@2@@Z 0000000180043230 f i NpSerializerAdapter.obj
 0001:00042280       ?registerReferences@?$PxSerializerDefaultAdapter@VNpArticulationSensor@physx@@@physx@@UEBAXAEAVPxBase@2@AEAVPxSerializationContext@2@@Z 0000000180043280 f i NpSerializerAdapter.obj
 0001:000422d0       ?registerReferences@?$PxSerializerDefaultAdapter@VNpArticulationTendonJoint@physx@@@physx@@UEBAXAEAVPxBase@2@AEAVPxSerializationContext@2@@Z 00000001800432d0 f i NpSerializerAdapter.obj
 0001:00042320       ?registerReferences@?$PxSerializerDefaultAdapter@VNpConstraint@physx@@@physx@@UEBAXAEAVPxBase@2@AEAVPxSerializationContext@2@@Z 0000000180043320 f i NpSerializerAdapter.obj
 0001:00042370       ?registerReferences@?$PxSerializerDefaultAdapter@VNpMaterial@physx@@@physx@@UEBAXAEAVPxBase@2@AEAVPxSerializationContext@2@@Z 0000000180043370 f i NpSerializerAdapter.obj
 0001:000423c0       ?registerReferences@?$PxSerializerDefaultAdapter@VNpRigidDynamic@physx@@@physx@@UEBAXAEAVPxBase@2@AEAVPxSerializationContext@2@@Z 00000001800433c0 f i NpSerializerAdapter.obj
 0001:00042410       ?registerReferences@?$PxSerializerDefaultAdapter@VNpRigidStatic@physx@@@physx@@UEBAXAEAVPxBase@2@AEAVPxSerializationContext@2@@Z 0000000180043410 f i NpSerializerAdapter.obj
 0001:00042460       ?registerReferences@?$PxSerializerDefaultAdapter@VNpShape@physx@@@physx@@UEBAXAEAVPxBase@2@AEAVPxSerializationContext@2@@Z 0000000180043460 f i NpSerializerAdapter.obj
 0001:000424b0       ?registerReferences@?$PxSerializerDefaultAdapter@VPruningStructure@Sq@physx@@@physx@@UEBAXAEAVPxBase@2@AEAVPxSerializationContext@2@@Z 00000001800434b0 f i NpSerializerAdapter.obj
 0001:00042500       ?requiresObjects@?$PxSerializerDefaultAdapter@VBV4TriangleMesh@Gu@physx@@@physx@@UEBAXAEAVPxBase@2@AEAVPxProcessPxBaseCallback@2@@Z 0000000180043500 f i NpSerializerAdapter.obj
 0001:00042500       ?requiresObjects@?$PxSerializerDefaultAdapter@VNpMaterial@physx@@@physx@@UEBAXAEAVPxBase@2@AEAVPxProcessPxBaseCallback@2@@Z 0000000180043500 f i NpSerializerAdapter.obj
 0001:00042500       ?requiresObjects@?$PxSerializerDefaultAdapter@VRTreeTriangleMesh@Gu@physx@@@physx@@UEBAXAEAVPxBase@2@AEAVPxProcessPxBaseCallback@2@@Z 0000000180043500 f i NpSerializerAdapter.obj
 0001:00042510       ?requiresObjects@?$PxSerializerDefaultAdapter@VConvexMesh@Gu@physx@@@physx@@UEBAXAEAVPxBase@2@AEAVPxProcessPxBaseCallback@2@@Z 0000000180043510 f i NpSerializerAdapter.obj
 0001:00042510       ?requiresObjects@?$PxSerializerDefaultAdapter@VNpArticulationAttachment@physx@@@physx@@UEBAXAEAVPxBase@2@AEAVPxProcessPxBaseCallback@2@@Z 0000000180043510 f i NpSerializerAdapter.obj
 0001:00042510       ?requiresObjects@?$PxSerializerDefaultAdapter@VNpArticulationSpatialTendon@physx@@@physx@@UEBAXAEAVPxBase@2@AEAVPxProcessPxBaseCallback@2@@Z 0000000180043510 f i NpSerializerAdapter.obj
 0001:00042520       ?requiresObjects@?$PxSerializerDefaultAdapter@VHeightField@Gu@physx@@@physx@@UEBAXAEAVPxBase@2@AEAVPxProcessPxBaseCallback@2@@Z 0000000180043520 f i NpSerializerAdapter.obj
 0001:00042520       ?requiresObjects@?$PxSerializerDefaultAdapter@VNpArticulationFixedTendon@physx@@@physx@@UEBAXAEAVPxBase@2@AEAVPxProcessPxBaseCallback@2@@Z 0000000180043520 f i NpSerializerAdapter.obj
 0001:00042530       ?requiresObjects@?$PxSerializerDefaultAdapter@VNpAggregate@physx@@@physx@@UEBAXAEAVPxBase@2@AEAVPxProcessPxBaseCallback@2@@Z 0000000180043530 f i NpSerializerAdapter.obj
 0001:00042540       ?requiresObjects@?$PxSerializerDefaultAdapter@VNpArticulationJointReducedCoordinate@physx@@@physx@@UEBAXAEAVPxBase@2@AEAVPxProcessPxBaseCallback@2@@Z 0000000180043540 f i NpSerializerAdapter.obj
 0001:00042550       ?requiresObjects@?$PxSerializerDefaultAdapter@VNpArticulationReducedCoordinate@physx@@@physx@@UEBAXAEAVPxBase@2@AEAVPxProcessPxBaseCallback@2@@Z 0000000180043550 f i NpSerializerAdapter.obj
 0001:00042560       ?requiresObjects@?$PxSerializerDefaultAdapter@VNpArticulationSensor@physx@@@physx@@UEBAXAEAVPxBase@2@AEAVPxProcessPxBaseCallback@2@@Z 0000000180043560 f i NpSerializerAdapter.obj
 0001:00042570       ?requiresObjects@?$PxSerializerDefaultAdapter@VNpArticulationTendonJoint@physx@@@physx@@UEBAXAEAVPxBase@2@AEAVPxProcessPxBaseCallback@2@@Z 0000000180043570 f i NpSerializerAdapter.obj
 0001:00042580       ?requiresObjects@?$PxSerializerDefaultAdapter@VNpConstraint@physx@@@physx@@UEBAXAEAVPxBase@2@AEAVPxProcessPxBaseCallback@2@@Z 0000000180043580 f i NpSerializerAdapter.obj
 0001:00042590       ?requiresObjects@?$PxSerializerDefaultAdapter@VNpRigidDynamic@physx@@@physx@@UEBAXAEAVPxBase@2@AEAVPxProcessPxBaseCallback@2@@Z 0000000180043590 f i NpSerializerAdapter.obj
 0001:000425a0       ?requiresObjects@?$PxSerializerDefaultAdapter@VNpRigidStatic@physx@@@physx@@UEBAXAEAVPxBase@2@AEAVPxProcessPxBaseCallback@2@@Z 00000001800435a0 f i NpSerializerAdapter.obj
 0001:000425b0       ?requiresObjects@?$PxSerializerDefaultAdapter@VNpShape@physx@@@physx@@UEBAXAEAVPxBase@2@AEAVPxProcessPxBaseCallback@2@@Z 00000001800435b0 f i NpSerializerAdapter.obj
 0001:000425c0       PxRegisterPhysicsSerializers 00000001800435c0 f   NpSerializerAdapter.obj
 0001:00042bc0       PxUnregisterPhysicsSerializers 0000000180043bc0 f   NpSerializerAdapter.obj
 0001:000430c0       ??$scGetMaterials@VPxFEMSoftBodyMaterial@physx@@VNpFEMSoftBodyMaterial@2@@NpShape@physx@@AEBAIPEAPEAVPxFEMSoftBodyMaterial@1@II@Z 00000001800440c0 f i NpShape.obj
 0001:00043160       ??$scGetMaterials@VPxMaterial@physx@@VNpMaterial@2@@NpShape@physx@@AEBAIPEAPEAVPxMaterial@1@II@Z 0000000180044160 f i NpShape.obj
 0001:00043200       ??$setMaterialsHelper@VPxFEMSoftBodyMaterial@physx@@VNpFEMSoftBodyMaterial@2@@NpShape@physx@@AEAA_NPEBQEAVPxFEMSoftBodyMaterial@1@G@Z 0000000180044200 f i NpShape.obj
 0001:00043360       ??$setMaterialsHelper@VPxMaterial@physx@@VNpMaterial@2@@NpShape@physx@@AEAA_NPEBQEAVPxMaterial@1@G@Z 0000000180044360 f i NpShape.obj
 0001:000434c0       ??$setMaterialsInternal@VPxFEMSoftBodyMaterial@physx@@VNpFEMSoftBodyMaterial@2@@NpShape@physx@@AEAAXPEBQEAVPxFEMSoftBodyMaterial@1@G@Z 00000001800444c0 f i NpShape.obj
 0001:00043630       ??$setMaterialsInternal@VPxMaterial@physx@@VNpMaterial@2@@NpShape@physx@@AEAAXPEBQEAVPxMaterial@1@G@Z 0000000180044630 f i NpShape.obj
 0001:000437a0       ??0NpShape@physx@@QEAA@AEBVPxGeometry@1@V?$PxFlags@W4Enum@PxShapeFlag@physx@@E@1@PEBGG_NW4Enum@PxShapeCoreFlag@1@@Z 00000001800447a0 f   NpShape.obj
 0001:00043870       ??_ENpShape@physx@@UEAAPEAXI@Z 0000000180044870 f i NpShape.obj
 0001:00043870       ??_GNpShape@physx@@UEAAPEAXI@Z 0000000180044870 f i NpShape.obj
 0001:00043a00       ?acquireReference@NpFEMSoftBodyMaterial@physx@@UEAAXXZ 0000000180044a00 f   NpFEMSoftBodyMaterial.obj
 0001:00043a00       ?acquireReference@NpMaterial@physx@@UEAAXXZ 0000000180044a00 f   NpMaterial.obj
 0001:00043a00       ?acquireReference@NpPBDMaterial@physx@@UEAAXXZ 0000000180044a00 f   NpPBDMaterial.obj
 0001:00043a00       ?acquireReference@NpShape@physx@@UEAAXXZ 0000000180044a00 f   NpShape.obj
 0001:00043a10       ?createObject@NpShape@physx@@SAPEAV12@AEAPEAEAEAVPxDeserializationContext@2@@Z 0000000180044a10 f   NpShape.obj
 0001:00043ba0       ?exportExtraData@NpShape@physx@@UEAAXAEAVPxSerializationContext@2@@Z 0000000180044ba0 f   NpShape.obj
 0001:00043be0       ?getActor@NpShape@physx@@UEBAPEAVPxRigidActor@2@XZ 0000000180044be0 f   NpShape.obj
 0001:00043c20       ?getConcreteTypeName@PxShape@physx@@UEBAPEBDXZ 0000000180044c20 f i NpShape.obj
 0001:00043c30       ?getContactOffset@NpShape@physx@@UEBAMXZ 0000000180044c30 f   NpShape.obj
 0001:00043c40       ?getDensityForFluid@NpShape@physx@@UEBAMXZ 0000000180044c40 f   NpShape.obj
 0001:00043c50       ?getFlags@NpShape@physx@@UEBA?AV?$PxFlags@W4Enum@PxShapeFlag@physx@@E@2@XZ 0000000180044c50 f   NpShape.obj
 0001:00043c60       ?getGeometry@NpShape@physx@@UEBAAEBVPxGeometry@2@XZ 0000000180044c60 f   NpShape.obj
 0001:00043c70       ?getInternalShapeIndex@NpShape@physx@@UEBAIXZ 0000000180044c70 f   NpShape.obj
 0001:00043cb0       ?getLocalPose@NpShape@physx@@UEBA?AV?$PxTransformT@M@2@XZ 0000000180044cb0 f   NpShape.obj
 0001:00043ce0       ?getMaterialFromInternalFaceIndex@NpShape@physx@@UEBAPEAVPxBaseMaterial@2@I@Z 0000000180044ce0 f   NpShape.obj
 0001:00043de0       ?getMaterials@NpShape@physx@@UEBAIPEAPEAVPxMaterial@2@II@Z 0000000180044de0 f   NpShape.obj
 0001:00043df0       ?getNbMaterials@NpShape@physx@@UEBAGXZ 0000000180044df0 f   NpShape.obj
 0001:00043e00       ?getQueryFilterData@NpShape@physx@@UEBA?AUPxFilterData@2@XZ 0000000180044e00 f   NpShape.obj
 0001:00043e30       ?getRestOffset@NpShape@physx@@UEBAMXZ 0000000180044e30 f   NpShape.obj
 0001:00043e40       ?getSimulationFilterData@NpShape@physx@@UEBA?AUPxFilterData@2@XZ 0000000180044e40 f   NpShape.obj
 0001:00043e60       ?getSoftBodyMaterials@NpShape@physx@@UEBAIPEAPEAVPxFEMSoftBodyMaterial@2@II@Z 0000000180044e60 f   NpShape.obj
 0001:00043e70       ?isExclusive@NpShape@physx@@UEBA_NXZ 0000000180044e70 f   NpShape.obj
 0001:00043e80       ?isKindOf@PxShape@physx@@MEBA_NPEBD@Z 0000000180044e80 f i NpShape.obj
 0001:00043f10       ?notifyActorAndUpdatePVD@NpShape@physx@@AEAAXV?$PxFlags@W4Enum@ShapeChangeNotifyFlag@Sc@physx@@I@2@@Z 0000000180044f10 f   NpShape.obj
 0001:00043fa0       ?onActorAttach@NpShape@physx@@QEAAXAEAVPxActor@2@@Z 0000000180044fa0 f   NpShape.obj
 0001:00043fe0       ?onActorDetach@NpShape@physx@@QEAAXXZ 0000000180044fe0 f   NpShape.obj
 0001:00044030       ?onRefCountZero@NpShape@physx@@UEAAXXZ 0000000180045030 f   NpShape.obj
 0001:00044060       ?preExportDataReset@NpShape@physx@@QEAAXXZ 0000000180045060 f   NpShape.obj
 0001:00044080       ?release@NpFEMSoftBodyMaterial@physx@@UEAAXXZ 0000000180045080 f   NpFEMSoftBodyMaterial.obj
 0001:00044080       ?release@NpMaterial@physx@@UEAAXXZ 0000000180045080 f   NpMaterial.obj
 0001:00044080       ?release@NpPBDMaterial@physx@@UEAAXXZ 0000000180045080 f   NpPBDMaterial.obj
 0001:00044080       ?release@NpShape@physx@@UEAAXXZ 0000000180045080 f   NpShape.obj
 0001:00044080       ?releaseInternal@NpShape@physx@@QEAAXXZ 0000000180045080 f   NpShape.obj
 0001:000440b0       ?requiresObjects@NpShape@physx@@UEAAXAEAVPxProcessPxBaseCallback@2@@Z 00000001800450b0 f   NpShape.obj
 0001:00044170       ?setContactOffset@NpShape@physx@@UEAAXM@Z 0000000180045170 f   NpShape.obj
 0001:000441f0       ?setDensityForFluid@NpShape@physx@@UEAAXM@Z 00000001800451f0 f   NpShape.obj
 0001:00044250       ?setFlag@NpShape@physx@@UEAAXW4Enum@PxShapeFlag@2@_N@Z 0000000180045250 f   NpShape.obj
 0001:00044310       ?setFlags@NpShape@physx@@UEAAXV?$PxFlags@W4Enum@PxShapeFlag@physx@@E@2@@Z 0000000180045310 f   NpShape.obj
 0001:000443b0       ?setFlagsInternal@NpShape@physx@@AEAAXV?$PxFlags@W4Enum@PxShapeFlag@physx@@E@2@@Z 00000001800453b0 f   NpShape.obj
 0001:000445b0       ?setGeometry@NpShape@physx@@UEAAXAEBVPxGeometry@2@@Z 00000001800455b0 f   NpShape.obj
 0001:00044780       ?setLocalPose@NpShape@physx@@UEAAXAEBV?$PxTransformT@M@2@@Z 0000000180045780 f   NpShape.obj
 0001:000448e0       ?setMaterials@NpShape@physx@@UEAAXPEBQEAVPxMaterial@2@G@Z 00000001800458e0 f   NpShape.obj
 0001:000448f0       ?setMinTorsionalPatchRadius@NpShape@physx@@UEAAXM@Z 00000001800458f0 f   NpShape.obj
 0001:00044950       ?setQueryFilterData@NpShape@physx@@UEAAXAEBUPxFilterData@2@@Z 0000000180045950 f   NpShape.obj
 0001:000449c0       ?setRestOffset@NpShape@physx@@UEAAXM@Z 00000001800459c0 f   NpShape.obj
 0001:00044a30       ?setSimulationFilterData@NpShape@physx@@UEAAXAEBUPxFilterData@2@@Z 0000000180045a30 f   NpShape.obj
 0001:00044ab0       ?setSoftBodyMaterials@NpShape@physx@@UEAAXPEBQEAVPxFEMSoftBodyMaterial@2@G@Z 0000000180045ab0 f   NpShape.obj
 0001:00044ae0       ?setTorsionalPatchRadius@NpShape@physx@@UEAAXM@Z 0000000180045ae0 f   NpShape.obj
 0001:00044b40       ?updateSQ@NpShape@physx@@AEAAXPEBD@Z 0000000180045b40 f   NpShape.obj
 0001:00044bf0       ??0NpShapeManager@physx@@QEAA@W4PxEMPTY@1@@Z 0000000180045bf0 f   NpShapeManager.obj
 0001:00044c10       ??0NpShapeManager@physx@@QEAA@XZ 0000000180045c10 f   NpShapeManager.obj
 0001:00044c40       ??1NpShapeManager@physx@@QEAA@XZ 0000000180045c40 f   NpShapeManager.obj
 0001:00044c70       ?addBVHShapes@NpShapeManager@physx@@AEAAXAEAVPxSceneQuerySystem@2@AEBVPxRigidActor@2@AEBVBVH@Gu@2@@Z 0000000180045c70 f   NpShapeManager.obj
 0001:00044fc0       ?attachShape@NpShapeManager@physx@@QEAAXAEAVNpShape@2@AEAVPxRigidActor@2@@Z 0000000180045fc0 f   NpShapeManager.obj
 0001:000450c0       ?detachAll@NpShapeManager@physx@@QEAAXPEAVPxSceneQuerySystem@2@AEBVPxRigidActor@2@@Z 00000001800460c0 f   NpShapeManager.obj
 0001:000451b0       ?detachShape@NpShapeManager@physx@@QEAA_NAEAVNpShape@2@AEAVPxRigidActor@2@_N@Z 00000001800461b0 f   NpShapeManager.obj
 0001:00045350       ?exportExtraData@NpShapeManager@physx@@QEAAXAEAVPxSerializationContext@2@@Z 0000000180046350 f   NpShapeManager.obj
 0001:000457b0       ?getShapes@NpShapeManager@physx@@QEBAIPEAPEAVPxShape@2@II@Z 00000001800467b0 f   NpShapeManager.obj
 0001:00045810       ?getWorldBounds_@NpShapeManager@physx@@QEBA?AVPxBounds3@2@AEBVPxRigidActor@2@@Z 0000000180046810 f   NpShapeManager.obj
 0001:00045b00       ?importExtraData@NpShapeManager@physx@@QEAAXAEAVPxDeserializationContext@2@@Z 0000000180046b00 f   NpShapeManager.obj
 0001:00045b10       ?markActorForSQUpdate@NpShapeManager@physx@@QEAAXAEAVPxSceneQuerySystem@2@AEBVPxRigidActor@2@@Z 0000000180046b10 f   NpShapeManager.obj
 0001:00045c00       ?markShapeForSQUpdate@NpShapeManager@physx@@QEAAXAEAVPxSceneQuerySystem@2@AEBVPxShape@2@AEBVPxRigidActor@2@@Z 0000000180046c00 f   NpShapeManager.obj
 0001:00045ca0       ?setupAllSceneQuery@NpShapeManager@physx@@QEAAXAEAVPxSceneQuerySystem@2@AEBVNpActor@2@AEBVPxRigidActor@2@PEBVPruningStructure@Sq@2@PEBVPxBounds3@2@_N@Z 0000000180046ca0 f   NpShapeManager.obj
 0001:00045db0       ?setupAllSceneQuery@NpShapeManager@physx@@QEAAXAEAVPxSceneQuerySystem@2@AEBVPxRigidActor@2@PEBVPruningStructure@Sq@2@PEBVPxBounds3@2@PEBVBVH@Gu@2@@Z 0000000180046db0 f   NpShapeManager.obj
 0001:00045f00       ?setupSQShape@NpShapeManager@physx@@QEAAXAEAVPxSceneQuerySystem@2@AEBVNpShape@2@AEBVNpActor@2@AEBVPxRigidActor@2@_NPEBVPxBounds3@2@PEBVPruningStructure@Sq@2@@Z 0000000180046f00 f   NpShapeManager.obj
 0001:00046070       ?setupSceneQuery@NpShapeManager@physx@@QEAAXAEAVPxSceneQuerySystem@2@AEBVNpActor@2@AEBVPxRigidActor@2@AEBVNpShape@2@@Z 0000000180047070 f   NpShapeManager.obj
 0001:00046080       ?setupSceneQuery_@NpShapeManager@physx@@AEAAXAEAVPxSceneQuerySystem@2@AEBVNpActor@2@AEBVPxRigidActor@2@AEBVNpShape@2@@Z 0000000180047080 f   NpShapeManager.obj
 0001:00046190       ?teardownAllSceneQuery@NpShapeManager@physx@@QEAAXAEAVPxSceneQuerySystem@2@AEBVPxRigidActor@2@@Z 0000000180047190 f   NpShapeManager.obj
 0001:00046220       ?teardownSceneQuery@NpShapeManager@physx@@QEAAXAEAVPxSceneQuerySystem@2@AEBVPxRigidActor@2@AEBVNpShape@2@@Z 0000000180047220 f   NpShapeManager.obj
 0001:00046240       ??0?$PxMat44T@M@physx@@QEAA@AEBV?$PxTransformT@M@1@@Z 0000000180047240 f i NpDebugViz.obj
 0001:000463c0       ??6PxRenderOutput@physx@@QEAAAEAV01@AEBV?$PxTransformT@M@1@@Z 00000001800473c0 f i NpDebugViz.obj
 0001:00046450       ??6PxRenderOutput@physx@@QEAAAEAV01@AEBV?$PxVec3T@M@1@@Z 0000000180047450 f i NpDebugViz.obj
 0001:00046740       ??_EConstraintImmediateVisualizer@Cm@physx@@UEAAPEAXI@Z 0000000180047740 f i NpDebugViz.obj
 0001:00046740       ??_GConstraintImmediateVisualizer@Cm@physx@@UEAAPEAXI@Z 0000000180047740 f i NpDebugViz.obj
 0001:00046770       ??_EPxBroadPhaseRegions@physx@@MEAAPEAXI@Z 0000000180047770 f i NpImmediateMode.obj
 0001:00046770       ??_EPxConstraintVisualizer@physx@@MEAAPEAXI@Z 0000000180047770 f i NpDebugViz.obj
 0001:00046770       ??_GPxBroadPhaseRegions@physx@@MEAAPEAXI@Z 0000000180047770 f i NpImmediateMode.obj
 0001:00046770       ??_GPxConstraintVisualizer@physx@@MEAAPEAXI@Z 0000000180047770 f i NpDebugViz.obj
 0001:000467a0       ?outputCapsule@PxRenderOutput@physx@@QEAAAEAV12@MMAEBV?$PxMat44T@M@2@@Z 00000001800477a0 f i NpDebugViz.obj
 0001:000475e0       ?visualize@NpScene@physx@@AEAAXXZ 00000001800485e0 f   NpDebugViz.obj
 0001:00047ca0       ?visualize@NpShapeManager@physx@@QEBAXAEAVPxRenderOutput@2@AEAVNpScene@2@AEBVPxRigidActor@2@M@Z 0000000180048ca0 f   NpDebugViz.obj
 0001:00048750       ?visualizeAngularLimit@ConstraintImmediateVisualizer@Cm@physx@@UEAAXAEBV?$PxTransformT@M@3@MM@Z 0000000180049750 f i NpDebugViz.obj
 0001:000491d0       ?visualizeDoubleCone@ConstraintImmediateVisualizer@Cm@physx@@UEAAXAEBV?$PxTransformT@M@3@M@Z 000000018004a1d0 f i NpDebugViz.obj
 0001:00049d20       ?visualizeJoint@NpArticulationLink@physx@@QEBAXAEAVPxConstraintVisualizer@2@@Z 000000018004ad20 f   NpDebugViz.obj
 0001:0004a9a0       ?visualizeJointFrames@ConstraintImmediateVisualizer@Cm@physx@@UEAAXAEBV?$PxTransformT@M@3@0@Z 000000018004b9a0 f i NpDebugViz.obj
 0001:0004a9c0       ?visualizeLimitCone@ConstraintImmediateVisualizer@Cm@physx@@UEAAXAEBV?$PxTransformT@M@3@MM@Z 000000018004b9c0 f i NpDebugViz.obj
 0001:0004a9f0       ?visualizeLine@ConstraintImmediateVisualizer@Cm@physx@@UEAAXAEBV?$PxVec3T@M@3@0I@Z 000000018004b9f0 f i NpDebugViz.obj
 0001:0004aa60       ?visualizeLinearLimit@ConstraintImmediateVisualizer@Cm@physx@@UEAAXAEBV?$PxTransformT@M@3@0M@Z 000000018004ba60 f i NpDebugViz.obj
 0001:0004aa90       ?visualizeRigidBody@physx@@YAXAEAVPxRenderOutput@1@AEAVNpScene@1@AEBVPxRigidActor@1@AEBVBodyCore@Sc@1@M@Z 000000018004ba90 f   NpDebugViz.obj
 0001:0004f290       ??1PxcScratchAllocator@physx@@QEAA@XZ 0000000180050290 f i NpImmediateMode.obj
 0001:0004f450       ??4PxArticulationLinkDataRC@immediate@physx@@QEAAAEAU012@AEBU012@@Z 0000000180050450 f i NpImmediateMode.obj
 0001:0004f9a0       ??_EPxAABBManager@physx@@MEAAPEAXI@Z 00000001800509a0 f i NpImmediateMode.obj
 0001:0004f9a0       ??_GPxAABBManager@physx@@MEAAPEAXI@Z 00000001800509a0 f i NpImmediateMode.obj
 0001:0004f9d0       ??_EPxAllocatorCallback@physx@@UEAAPEAXI@Z 00000001800509d0 f i NpImmediateMode.obj
 0001:0004f9d0       ??_EPxVirtualAllocatorCallback@physx@@UEAAPEAXI@Z 00000001800509d0 f i LowLevel_static_64:PxsDefaultMemoryManager.obj
 0001:0004f9d0       ??_GPxAllocatorCallback@physx@@UEAAPEAXI@Z 00000001800509d0 f i NpImmediateMode.obj
 0001:0004f9d0       ??_GPxVirtualAllocatorCallback@physx@@UEAAPEAXI@Z 00000001800509d0 f i LowLevel_static_64:PxsDefaultMemoryManager.obj
 0001:0004fa00       ??_EPxBroadPhase@physx@@MEAAPEAXI@Z 0000000180050a00 f i NpImmediateMode.obj
 0001:0004fa00       ??_GPxBroadPhase@physx@@MEAAPEAXI@Z 0000000180050a00 f i NpImmediateMode.obj
 0001:00050b10       ?create@?$PxArray@UPxsBodyCore@physx@@V?$PxReflectionAllocator@UPxsBodyCore@physx@@@2@@physx@@KAXPEAUPxsBodyCore@2@0AEBU32@@Z 0000000180051b10 f i NpImmediateMode.obj
 0001:000518a0       ?extend@?$PxBitMapBase@VPxAllocator@physx@@@physx@@IEAAXI@Z 00000001800528a0 f i NpImmediateMode.obj
 0001:00051a80       ?getName@FanoutTask@Cm@physx@@UEBAPEBDXZ 0000000180052a80 f   SimulationController_static_64:ScScene.obj
 0001:00051c40       ?growAndPushBack@?$PxArray@VSpatialVector@Cm@physx@@V?$PxReflectionAllocator@VSpatialVector@Cm@physx@@@3@@physx@@IEAAAEAVSpatialVector@Cm@2@AEBV342@@Z 0000000180052c40 f i NpImmediateMode.obj
 0001:00051f00       ?init@ArticulationJointCore@Dy@physx@@QEAAXAEBV?$PxTransformT@M@3@0@Z 0000000180052f00 f i NpImmediateMode.obj
 0001:00052260       ?initData@PxArticulationLinkDataRC@immediate@physx@@QEAAXXZ 0000000180053260 f i NpImmediateMode.obj
 0001:00052730       ?recreate@?$PxArray@PEAEV?$PxReflectionAllocator@PEAE@physx@@@physx@@IEAAXI@Z 0000000180053730 f i NpImmediateMode.obj
 0001:000527d0       ?recreate@?$PxArray@UArticulationLink@Dy@physx@@V?$PxReflectionAllocator@UArticulationLink@Dy@physx@@@3@@physx@@IEAAXI@Z 00000001800537d0 f i NpImmediateMode.obj
 0001:000528e0       ?recreate@?$PxArray@UPxBroadPhasePair@physx@@V?$PxReflectionAllocator@UPxBroadPhasePair@physx@@@2@@physx@@IEAAXI@Z 00000001800538e0 f i NpImmediateMode.obj
 0001:000529d0       ?recreate@?$PxArray@UPxsBodyCore@physx@@V?$PxReflectionAllocator@UPxsBodyCore@physx@@@2@@physx@@IEAAXI@Z 00000001800539d0 f i NpImmediateMode.obj
 0001:00052bf0       ?recreate@?$PxArray@USpatialVectorF@Cm@physx@@V?$PxReflectionAllocator@USpatialVectorF@Cm@physx@@@3@@physx@@IEAAXI@Z 0000000180053bf0 f i NpImmediateMode.obj
 0001:00052f30       ?release@BroadPhaseABP@Bp@physx@@UEAAXXZ 0000000180053f30 f   LowLevelAABB_static_64:BpBroadPhaseABP.obj
 0001:00052f30       ?release@BroadPhaseMBP@Bp@physx@@UEAAXXZ 0000000180053f30 f   LowLevelAABB_static_64:BpBroadPhaseMBP.obj
 0001:00053270       ?resize@?$PxArray@UPxBroadPhasePair@physx@@V?$PxReflectionAllocator@UPxBroadPhasePair@physx@@@2@@physx@@QEAAXIAEBUPxBroadPhasePair@2@@Z 0000000180054270 f i NpImmediateMode.obj
 0001:00053330       ?resize@?$PxArray@UPxsBodyCore@physx@@V?$PxReflectionAllocator@UPxsBodyCore@physx@@@2@@physx@@QEAAXIAEBUPxsBodyCore@2@@Z 0000000180054330 f i NpImmediateMode.obj
 0001:00053390       ?resize@?$PxArray@USpatialVectorF@Cm@physx@@V?$PxReflectionAllocator@USpatialVectorF@Cm@physx@@@3@@physx@@QEAAXIAEBUSpatialVectorF@Cm@2@@Z 0000000180054390 f i NpImmediateMode.obj
 0001:00053b70       PxAddArticulationLink      0000000180054b70 f   NpImmediateMode.obj
 0001:00053c90       PxApplyArticulationCache   0000000180054c90 f   NpImmediateMode.obj
 0001:00053cc0       PxBatchConstraints         0000000180054cc0 f   NpImmediateMode.obj
 0001:00053d50       PxBatchConstraintsTGS      0000000180054d50 f   NpImmediateMode.obj
 0001:00053de0       PxBeginCreateArticulationRC 0000000180054de0 f   NpImmediateMode.obj
 0001:00053ef0       PxComputeUnconstrainedVelocities 0000000180054ef0 f   NpImmediateMode.obj
 0001:00054000       PxComputeUnconstrainedVelocitiesTGS 0000000180055000 f   NpImmediateMode.obj
 0001:00054120       PxConstructSolverBodies    0000000180055120 f   NpImmediateMode.obj
 0001:00054410       PxConstructSolverBodiesTGS 0000000180055410 f   NpImmediateMode.obj
 0001:00054750       PxConstructStaticSolverBody 0000000180055750 f   NpImmediateMode.obj
 0001:000547d0       PxConstructStaticSolverBodyTGS 00000001800557d0 f   NpImmediateMode.obj
 0001:00054860       PxCopyInternalStateToArticulationCache 0000000180055860 f   NpImmediateMode.obj
 0001:00054880       PxCreateAABBManager        0000000180055880 f   NpImmediateMode.obj
 0001:00054980       PxCreateArticulationCache  0000000180055980 f   NpImmediateMode.obj
 0001:000549c0       PxCreateBroadPhase         00000001800559c0 f   NpImmediateMode.obj
 0001:00054b20       PxCreateContactConstraints 0000000180055b20 f   NpImmediateMode.obj
 0001:00054db0       PxCreateContactConstraintsTGS 0000000180055db0 f   NpImmediateMode.obj
 0001:000550b0       PxCreateJointConstraints   00000001800560b0 f   NpImmediateMode.obj
 0001:00055260       PxCreateJointConstraintsTGS 0000000180056260 f   NpImmediateMode.obj
 0001:00055490       PxCreateJointConstraintsWithImmediateShaders 0000000180056490 f   NpImmediateMode.obj
 0001:000554c0       PxCreateJointConstraintsWithImmediateShadersTGS 00000001800564c0 f   NpImmediateMode.obj
 0001:000554d0       PxCreateJointConstraintsWithShaders 00000001800564d0 f   NpImmediateMode.obj
 0001:00055500       PxCreateJointConstraintsWithShadersTGS 0000000180056500 f   NpImmediateMode.obj
 0001:00055510       PxEndCreateArticulationRC  0000000180056510 f   NpImmediateMode.obj
 0001:00055600       PxGenerateContacts         0000000180056600 f   NpImmediateMode.obj
 0001:00055bb0       PxGetAllLinkData           0000000180056bb0 f   NpImmediateMode.obj
 0001:00055f40       PxGetBroadPhaseDynamicFilterGroup 0000000180056f40 f   NpImmediateMode.obj
 0001:00055f50       PxGetBroadPhaseKinematicFilterGroup 0000000180056f50 f   NpImmediateMode.obj
 0001:00055f60       PxGetJointData             0000000180056f60 f   NpImmediateMode.obj
 0001:00056240       PxGetLinkData              0000000180057240 f   NpImmediateMode.obj
 0001:000562d0       PxGetMutableLinkData       00000001800572d0 f   NpImmediateMode.obj
 0001:00056390       PxIntegrateSolverBodies    0000000180057390 f   NpImmediateMode.obj
 0001:000568d0       PxIntegrateSolverBodiesTGS 00000001800578d0 f   NpImmediateMode.obj
 0001:00056b50       PxReleaseArticulation      0000000180057b50 f   NpImmediateMode.obj
 0001:00056b90       PxReleaseArticulationCache 0000000180057b90 f   NpImmediateMode.obj
 0001:00056c20       PxSetJointData             0000000180057c20 f   NpImmediateMode.obj
 0001:000570c0       PxSetMutableLinkData       00000001800580c0 f   NpImmediateMode.obj
 0001:00057180       PxSolveConstraints         0000000180058180 f   NpImmediateMode.obj
 0001:000576f0       PxSolveConstraintsTGS      00000001800586f0 f   NpImmediateMode.obj
 0001:00057b50       PxUpdateArticulationBodies 0000000180058b50 f   NpImmediateMode.obj
 0001:00057b70       PxUpdateArticulationBodiesTGS 0000000180058b70 f   NpImmediateMode.obj
 0001:00057b90       ??0NpMaterial@physx@@QEAA@AEBV?$MaterialCoreT@UPxsMaterialData@physx@@VPxMaterial@2@@1@@Z 0000000180058b90 f   NpMaterial.obj
 0001:00057c00       ??_ENpMaterial@physx@@UEAAPEAXI@Z 0000000180058c00 f i NpMaterial.obj
 0001:00057c00       ??_GNpMaterial@physx@@UEAAPEAXI@Z 0000000180058c00 f i NpMaterial.obj
 0001:00057c80       ?createObject@NpMaterial@physx@@SAPEAV12@AEAPEAEAEAVPxDeserializationContext@2@@Z 0000000180058c80 f   NpMaterial.obj
 0001:00057cd0       ?getConcreteTypeName@PxMaterial@physx@@UEBAPEBDXZ 0000000180058cd0 f i NpMaterial.obj
 0001:00057ce0       ?getDamping@NpMaterial@physx@@UEBAMXZ 0000000180058ce0 f   NpMaterial.obj
 0001:00057ce0       ?getGravityScale@NpPBDMaterial@physx@@UEBAMXZ 0000000180058ce0 f   NpPBDMaterial.obj
 0001:00057ce0       ?getPoissons@NpFEMSoftBodyMaterial@physx@@UEBAMXZ 0000000180058ce0 f   NpFEMSoftBodyMaterial.obj
 0001:00057cf0       ?getFlags@NpMaterial@physx@@UEBA?AV?$PxFlags@W4Enum@PxMaterialFlag@physx@@G@2@XZ 0000000180058cf0 f   NpMaterial.obj
 0001:00057d00       ?getFrictionCombineMode@NpMaterial@physx@@UEBA?AW4Enum@PxCombineMode@2@XZ 0000000180058d00 f   NpMaterial.obj
 0001:00057d10       ?getRestitutionCombineMode@NpMaterial@physx@@UEBA?AW4Enum@PxCombineMode@2@XZ 0000000180058d10 f   NpMaterial.obj
 0001:00057d20       ?getDamping@NpPBDMaterial@physx@@UEBAMXZ 0000000180058d20 f   NpPBDMaterial.obj
 0001:00057d20       ?getStaticFriction@NpMaterial@physx@@UEBAMXZ 0000000180058d20 f   NpMaterial.obj
 0001:00057d30       ?isKindOf@PxBaseMaterial@physx@@UEBA_NPEBD@Z 0000000180058d30 f i NpMaterial.obj
 0001:00057da0       ?isKindOf@PxMaterial@physx@@MEBA_NPEBD@Z 0000000180058da0 f i NpMaterial.obj
 0001:00057df0       ?onRefCountZero@NpMaterial@physx@@UEAAXXZ 0000000180058df0 f   NpMaterial.obj
 0001:00057e50       ?resolveReferences@NpMaterial@physx@@UEAAXAEAVPxDeserializationContext@2@@Z 0000000180058e50 f   NpMaterial.obj
 0001:00057e70       ?setDamping@NpMaterial@physx@@UEAAXM@Z 0000000180058e70 f   NpMaterial.obj
 0001:00057ee0       ?setDynamicFriction@NpMaterial@physx@@UEAAXM@Z 0000000180058ee0 f   NpMaterial.obj
 0001:00057f00       ?setFlag@NpMaterial@physx@@UEAAXW4Enum@PxMaterialFlag@2@_N@Z 0000000180058f00 f   NpMaterial.obj
 0001:00057f30       ?setFlags@NpMaterial@physx@@UEAAXV?$PxFlags@W4Enum@PxMaterialFlag@physx@@G@2@@Z 0000000180058f30 f   NpMaterial.obj
 0001:00057f50       ?setFrictionCombineMode@NpMaterial@physx@@UEAAXW4Enum@PxCombineMode@2@@Z 0000000180058f50 f   NpMaterial.obj
 0001:00057f70       ?setRestitution@NpMaterial@physx@@UEAAXM@Z 0000000180058f70 f   NpMaterial.obj
 0001:00057ff0       ?setRestitutionCombineMode@NpMaterial@physx@@UEAAXW4Enum@PxCombineMode@2@@Z 0000000180058ff0 f   NpMaterial.obj
 0001:00058010       ?setStaticFriction@NpMaterial@physx@@UEAAXM@Z 0000000180059010 f   NpMaterial.obj
 0001:00058030       ??0NpFEMSoftBodyMaterial@physx@@QEAA@AEBV?$MaterialCoreT@UPxsFEMSoftBodyMaterialData@physx@@VPxFEMSoftBodyMaterial@2@@1@@Z 0000000180059030 f   NpFEMSoftBodyMaterial.obj
 0001:00058070       ??_ENpFEMSoftBodyMaterial@physx@@UEAAPEAXI@Z 0000000180059070 f i NpFEMSoftBodyMaterial.obj
 0001:00058070       ??_GNpFEMSoftBodyMaterial@physx@@UEAAPEAXI@Z 0000000180059070 f i NpFEMSoftBodyMaterial.obj
 0001:000580f0       ?getConcreteTypeName@PxFEMSoftBodyMaterial@physx@@UEBAPEBDXZ 00000001800590f0 f i NpFEMSoftBodyMaterial.obj
 0001:00058100       ?getDamping@NpFEMSoftBodyMaterial@physx@@UEBAMXZ 0000000180059100 f   NpFEMSoftBodyMaterial.obj
 0001:00058110       ?getDampingScale@NpFEMSoftBodyMaterial@physx@@UEBAMXZ 0000000180059110 f   NpFEMSoftBodyMaterial.obj
 0001:00058130       ?getCohesion@NpPBDMaterial@physx@@UEBAMXZ 0000000180059130 f   NpPBDMaterial.obj
 0001:00058130       ?getContactOffset@HairSystemCore@Sc@physx@@QEBAMXZ 0000000180059130 f   SimulationController_static_64:ScHairSystemCore.obj
 0001:00058130       ?getContactOffset@ParticleSystemCore@Sc@physx@@QEBAMXZ 0000000180059130 f   SimulationController_static_64:ScParticleSystemCore.obj
 0001:00058130       ?getDeformHighLimitRatio@NpFEMSoftBodyMaterial@physx@@UEBAMXZ 0000000180059130 f   NpFEMSoftBodyMaterial.obj
 0001:00058140       ?getDeformLowLimitRatio@NpFEMSoftBodyMaterial@physx@@UEBAMXZ 0000000180059140 f   NpFEMSoftBodyMaterial.obj
 0001:00058140       ?getStabilizationThreshold@NpArticulationReducedCoordinate@physx@@UEBAMXZ 0000000180059140 f   NpArticulationReducedCoordinate.obj
 0001:00058140       ?getSurfaceTension@NpPBDMaterial@physx@@UEBAMXZ 0000000180059140 f   NpPBDMaterial.obj
 0001:00058150       ?getDeformThreshold@NpFEMSoftBodyMaterial@physx@@UEBAMXZ 0000000180059150 f   NpFEMSoftBodyMaterial.obj
 0001:00058150       ?getSleepThreshold@NpArticulationReducedCoordinate@physx@@UEBAMXZ 0000000180059150 f   NpArticulationReducedCoordinate.obj
 0001:00058150       ?getVorticityConfinement@NpPBDMaterial@physx@@UEBAMXZ 0000000180059150 f   NpPBDMaterial.obj
 0001:00058160       ?getAdhesionRadiusScale@NpPBDMaterial@physx@@UEBAMXZ 0000000180059160 f   NpPBDMaterial.obj
 0001:00058160       ?getDynamicFriction@NpFEMSoftBodyMaterial@physx@@UEBAMXZ 0000000180059160 f   NpFEMSoftBodyMaterial.obj
 0001:00058170       ?getMaterialModel@NpFEMSoftBodyMaterial@physx@@UEBA?AW4Enum@PxFEMSoftBodyMaterialModel@2@XZ 0000000180059170 f   NpFEMSoftBodyMaterial.obj
 0001:00058180       ?isKindOf@PxFEMSoftBodyMaterial@physx@@MEBA_NPEBD@Z 0000000180059180 f i NpFEMSoftBodyMaterial.obj
 0001:000581e0       ?onRefCountZero@NpFEMSoftBodyMaterial@physx@@UEAAXXZ 00000001800591e0 f   NpFEMSoftBodyMaterial.obj
 0001:00058240       ?resolveReferences@NpFEMSoftBodyMaterial@physx@@UEAAXAEAVPxDeserializationContext@2@@Z 0000000180059240 f   NpFEMSoftBodyMaterial.obj
 0001:00058260       ?setDamping@NpFEMSoftBodyMaterial@physx@@UEAAXM@Z 0000000180059260 f   NpFEMSoftBodyMaterial.obj
 0001:00058280       ?setDampingScale@NpFEMSoftBodyMaterial@physx@@UEAAXM@Z 0000000180059280 f   NpFEMSoftBodyMaterial.obj
 0001:000582b0       ?setDeformHighLimitRatio@NpFEMSoftBodyMaterial@physx@@UEAAXM@Z 00000001800592b0 f   NpFEMSoftBodyMaterial.obj
 0001:000582d0       ?setDeformLowLimitRatio@NpFEMSoftBodyMaterial@physx@@UEAAXM@Z 00000001800592d0 f   NpFEMSoftBodyMaterial.obj
 0001:000582f0       ?setDeformThreshold@NpFEMSoftBodyMaterial@physx@@UEAAXM@Z 00000001800592f0 f   NpFEMSoftBodyMaterial.obj
 0001:00058310       ?setDynamicFriction@NpFEMSoftBodyMaterial@physx@@UEAAXM@Z 0000000180059310 f   NpFEMSoftBodyMaterial.obj
 0001:00058330       ?setMaterialModel@NpFEMSoftBodyMaterial@physx@@UEAAXW4Enum@PxFEMSoftBodyMaterialModel@2@@Z 0000000180059330 f   NpFEMSoftBodyMaterial.obj
 0001:00058350       ?setPoissons@NpFEMSoftBodyMaterial@physx@@UEAAXM@Z 0000000180059350 f   NpFEMSoftBodyMaterial.obj
 0001:00058370       ?setYoungsModulus@NpFEMSoftBodyMaterial@physx@@UEAAXM@Z 0000000180059370 f   NpFEMSoftBodyMaterial.obj
 0001:00058390       ??0NpPBDMaterial@physx@@QEAA@AEBV?$MaterialCoreT@UPxsPBDMaterialData@physx@@VPxPBDMaterial@2@@1@@Z 0000000180059390 f   NpPBDMaterial.obj
 0001:000583e0       ??_ENpPBDMaterial@physx@@UEAAPEAXI@Z 00000001800593e0 f i NpPBDMaterial.obj
 0001:000583e0       ??_GNpPBDMaterial@physx@@UEAAPEAXI@Z 00000001800593e0 f i NpPBDMaterial.obj
 0001:00058460       ?getCFLCoefficient@NpPBDMaterial@physx@@UEBAMXZ 0000000180059460 f   NpPBDMaterial.obj
 0001:00058460       ?getMaxCOMAngularVelocity@NpArticulationReducedCoordinate@physx@@UEBAMXZ 0000000180059460 f   NpArticulationReducedCoordinate.obj
 0001:00058470       ?getConcreteTypeName@PxPBDMaterial@physx@@UEBAPEBDXZ 0000000180059470 f i NpPBDMaterial.obj
 0001:00058480       ?getDrag@NpPBDMaterial@physx@@UEBAMXZ 0000000180059480 f   NpPBDMaterial.obj
 0001:00058480       ?getMaxCOMLinearVelocity@NpArticulationReducedCoordinate@physx@@UEBAMXZ 0000000180059480 f   NpArticulationReducedCoordinate.obj
 0001:00058490       ?getLift@NpPBDMaterial@physx@@UEBAMXZ 0000000180059490 f   NpPBDMaterial.obj
 0001:00058490       ?getWakeCounter@SoftBodyCore@Sc@physx@@QEBAMXZ 0000000180059490 f   SimulationController_static_64:ScSoftBodyCore.obj
 0001:000584a0       ?getParticleAdhesionScale@NpPBDMaterial@physx@@UEBAMXZ 00000001800594a0 f   NpPBDMaterial.obj
 0001:000584b0       ?getParticleFrictionScale@NpPBDMaterial@physx@@UEBAMXZ 00000001800594b0 f   NpPBDMaterial.obj
 0001:000584c0       ?getViscosity@NpPBDMaterial@physx@@UEBAMXZ 00000001800594c0 f   NpPBDMaterial.obj
 0001:000584d0       ?isKindOf@PxPBDMaterial@physx@@MEBA_NPEBD@Z 00000001800594d0 f i NpPBDMaterial.obj
 0001:00058530       ?onRefCountZero@NpPBDMaterial@physx@@UEAAXXZ 0000000180059530 f   NpPBDMaterial.obj
 0001:00058590       ?resolveReferences@NpPBDMaterial@physx@@UEAAXAEAVPxDeserializationContext@2@@Z 0000000180059590 f   NpPBDMaterial.obj
 0001:000585a0       ?setAdhesion@NpPBDMaterial@physx@@UEAAXM@Z 00000001800595a0 f   NpPBDMaterial.obj
 0001:000585c0       ?setAdhesionRadiusScale@NpPBDMaterial@physx@@UEAAXM@Z 00000001800595c0 f   NpPBDMaterial.obj
 0001:000585e0       ?setCFLCoefficient@NpPBDMaterial@physx@@UEAAXM@Z 00000001800595e0 f   NpPBDMaterial.obj
 0001:00058600       ?setCohesion@NpPBDMaterial@physx@@UEAAXM@Z 0000000180059600 f   NpPBDMaterial.obj
 0001:00058620       ?setDamping@NpPBDMaterial@physx@@UEAAXM@Z 0000000180059620 f   NpPBDMaterial.obj
 0001:00058640       ?setDrag@NpPBDMaterial@physx@@UEAAXM@Z 0000000180059640 f   NpPBDMaterial.obj
 0001:00058660       ?setFriction@NpPBDMaterial@physx@@UEAAXM@Z 0000000180059660 f   NpPBDMaterial.obj
 0001:00058680       ?setGravityScale@NpPBDMaterial@physx@@UEAAXM@Z 0000000180059680 f   NpPBDMaterial.obj
 0001:000586a0       ?setLift@NpPBDMaterial@physx@@UEAAXM@Z 00000001800596a0 f   NpPBDMaterial.obj
 0001:000586c0       ?setParticleAdhesionScale@NpPBDMaterial@physx@@UEAAXM@Z 00000001800596c0 f   NpPBDMaterial.obj
 0001:000586e0       ?setParticleFrictionScale@NpPBDMaterial@physx@@UEAAXM@Z 00000001800596e0 f   NpPBDMaterial.obj
 0001:00058700       ?setSurfaceTension@NpPBDMaterial@physx@@UEAAXM@Z 0000000180059700 f   NpPBDMaterial.obj
 0001:00058720       ?setViscosity@NpPBDMaterial@physx@@UEAAXM@Z 0000000180059720 f   NpPBDMaterial.obj
 0001:00058740       ?setVorticityConfinement@NpPBDMaterial@physx@@UEAAXM@Z 0000000180059740 f   NpPBDMaterial.obj
 0001:00058760       ??0NpArticulationReducedCoordinate@physx@@QEAA@XZ 0000000180059760 f   NpArticulationReducedCoordinate.obj
 0001:00058820       ??1NpArticulationReducedCoordinate@physx@@UEAA@XZ 0000000180059820 f   NpArticulationReducedCoordinate.obj
 0001:00058ad0       ??_ENpArticulationReducedCoordinate@physx@@UEAAPEAXI@Z 0000000180059ad0 f i NpArticulationReducedCoordinate.obj
 0001:00058ad0       ??_GNpArticulationReducedCoordinate@physx@@UEAAPEAXI@Z 0000000180059ad0 f i NpArticulationReducedCoordinate.obj
 0001:00058b40       ?addLoopJoint@NpArticulationReducedCoordinate@physx@@UEAAXPEAVPxConstraint@2@@Z 0000000180059b40 f   NpArticulationReducedCoordinate.obj
 0001:00058c30       ?allocate@?$PxArray@PEAVNpArticulationLink@physx@@V?$PxInlineAllocator@$0CA@V?$PxReflectionAllocator@PEAVNpArticulationLink@physx@@@physx@@@2@@physx@@IEAAPEAPEAVNpArticulationLink@2@I@Z 0000000180059c30 f i NpArticulationReducedCoordinate.obj
 0001:00058ce0       ?allocate@?$PxArray@PEAVNpConstraint@physx@@V?$PxReflectionAllocator@PEAVNpConstraint@physx@@@2@@physx@@IEAAPEAPEAVNpConstraint@2@I@Z 0000000180059ce0 f i NpArticulationReducedCoordinate.obj
 0001:00058d70       ?applyCache@NpArticulationReducedCoordinate@physx@@UEAAXAEAVPxArticulationCache@2@V?$PxFlags@W4Enum@PxArticulationCacheFlag@physx@@I@2@_N@Z 0000000180059d70 f   NpArticulationReducedCoordinate.obj
 0001:00058ed0       ?autoWakeInternal@NpArticulationReducedCoordinate@physx@@QEAAXXZ 0000000180059ed0 f   NpArticulationReducedCoordinate.obj
 0001:00058f40       ?commonInit@NpArticulationReducedCoordinate@physx@@UEBAXXZ 0000000180059f40 f   NpArticulationReducedCoordinate.obj
 0001:00058fa0       ?computeCoefficientMatrix@NpArticulationReducedCoordinate@physx@@UEBAXAEAVPxArticulationCache@2@@Z 0000000180059fa0 f   NpArticulationReducedCoordinate.obj
 0001:00059020       ?computeCoriolisAndCentrifugalForce@NpArticulationReducedCoordinate@physx@@UEBAXAEAVPxArticulationCache@2@@Z 000000018005a020 f   NpArticulationReducedCoordinate.obj
 0001:00059080       ?computeDenseJacobian@NpArticulationReducedCoordinate@physx@@UEBAXAEAVPxArticulationCache@2@AEAI1@Z 000000018005a080 f   NpArticulationReducedCoordinate.obj
 0001:000590e0       ?computeGeneralizedExternalForce@NpArticulationReducedCoordinate@physx@@UEBAXAEAVPxArticulationCache@2@@Z 000000018005a0e0 f   NpArticulationReducedCoordinate.obj
 0001:00059140       ?computeGeneralizedGravityForce@NpArticulationReducedCoordinate@physx@@UEBAXAEAVPxArticulationCache@2@@Z 000000018005a140 f   NpArticulationReducedCoordinate.obj
 0001:000591a0       ?computeGeneralizedMassMatrix@NpArticulationReducedCoordinate@physx@@UEBAXAEAVPxArticulationCache@2@@Z 000000018005a1a0 f   NpArticulationReducedCoordinate.obj
 0001:00059200       ?computeJointAcceleration@NpArticulationReducedCoordinate@physx@@UEBAXAEAVPxArticulationCache@2@@Z 000000018005a200 f   NpArticulationReducedCoordinate.obj
 0001:00059260       ?computeJointForce@NpArticulationReducedCoordinate@physx@@UEBAXAEAVPxArticulationCache@2@@Z 000000018005a260 f   NpArticulationReducedCoordinate.obj
 0001:000592c0       ?computeLambda@NpArticulationReducedCoordinate@physx@@UEBA_NAEAVPxArticulationCache@2@0QEBMI@Z 000000018005a2c0 f   NpArticulationReducedCoordinate.obj
 0001:000593d0       ?copyInternalStateToCache@NpArticulationReducedCoordinate@physx@@UEBAXAEAVPxArticulationCache@2@V?$PxFlags@W4Enum@PxArticulationCacheFlag@physx@@I@2@@Z 000000018005a3d0 f   NpArticulationReducedCoordinate.obj
 0001:00059480       ?createArticulationJoint@NpArticulationReducedCoordinate@physx@@QEAAPEAVPxArticulationJointReducedCoordinate@2@AEAVPxArticulationLink@2@AEBV?$PxTransformT@M@2@01@Z 000000018005a480 f   NpArticulationReducedCoordinate.obj
 0001:00059490       ?createCache@NpArticulationReducedCoordinate@physx@@UEBAPEAVPxArticulationCache@2@XZ 000000018005a490 f   NpArticulationReducedCoordinate.obj
 0001:000594c0       ?createFixedTendon@NpArticulationReducedCoordinate@physx@@UEAAPEAVPxArticulationFixedTendon@2@XZ 000000018005a4c0 f   NpArticulationReducedCoordinate.obj
 0001:000595b0       ?createLink@NpArticulationReducedCoordinate@physx@@UEAAPEAVPxArticulationLink@2@PEAV32@AEBV?$PxTransformT@M@2@@Z 000000018005a5b0 f   NpArticulationReducedCoordinate.obj
 0001:00059780       ?createObject@NpArticulationReducedCoordinate@physx@@SAPEAV12@AEAPEAEAEAVPxDeserializationContext@2@@Z 000000018005a780 f   NpArticulationReducedCoordinate.obj
 0001:00059970       ?createSensor@NpArticulationReducedCoordinate@physx@@UEAAPEAVPxArticulationSensor@2@PEAVPxArticulationLink@2@AEBV?$PxTransformT@M@2@@Z 000000018005a970 f   NpArticulationReducedCoordinate.obj
 0001:00059a70       ?createSpatialTendon@NpArticulationReducedCoordinate@physx@@UEAAPEAVPxArticulationSpatialTendon@2@XZ 000000018005aa70 f   NpArticulationReducedCoordinate.obj
 0001:00059b60       ?exportExtraData@NpArticulationReducedCoordinate@physx@@UEAAXAEAVPxSerializationContext@2@@Z 000000018005ab60 f   NpArticulationReducedCoordinate.obj
 0001:00059c70       ?getArticulationFlags@NpArticulationReducedCoordinate@physx@@UEBA?AV?$PxFlags@W4Enum@PxArticulationFlag@physx@@E@2@XZ 000000018005ac70 f   NpArticulationReducedCoordinate.obj
 0001:00059c80       ?getCacheDataSize@NpArticulationReducedCoordinate@physx@@UEBAIXZ 000000018005ac80 f   NpArticulationReducedCoordinate.obj
 0001:00059c90       ?getCoefficientMatrixSize@NpArticulationReducedCoordinate@physx@@UEBAIXZ 000000018005ac90 f   NpArticulationReducedCoordinate.obj
 0001:00059ca0       ?getConcreteTypeName@NpArticulationReducedCoordinate@physx@@UEBAPEBDXZ 000000018005aca0 f i NpArticulationReducedCoordinate.obj
 0001:00059cb0       ?getDofs@NpArticulationReducedCoordinate@physx@@UEBAIXZ 000000018005acb0 f   NpArticulationReducedCoordinate.obj
 0001:00059cc0       ?getFixedTendon@NpArticulationReducedCoordinate@physx@@QEBAPEAVNpArticulationFixedTendon@2@I@Z 000000018005acc0 f   NpArticulationReducedCoordinate.obj
 0001:00059cd0       ?getFixedTendons@NpArticulationReducedCoordinate@physx@@UEBAIPEAPEAVPxArticulationFixedTendon@2@II@Z 000000018005acd0 f   NpArticulationReducedCoordinate.obj
 0001:00059d30       ?getGpuArticulationIndex@NpArticulationReducedCoordinate@physx@@UEAAIXZ 000000018005ad30 f   NpArticulationReducedCoordinate.obj
 0001:00059d80       ?getLinkAcceleration@NpArticulationReducedCoordinate@physx@@UEAA?AUPxSpatialVelocity@2@I@Z 000000018005ad80 f   NpArticulationReducedCoordinate.obj
 0001:00059e40       ?getLinks@NpArticulationReducedCoordinate@physx@@UEBAIPEAPEAVPxArticulationLink@2@II@Z 000000018005ae40 f   NpArticulationReducedCoordinate.obj
 0001:00059ea0       ?getLoopJoints@NpArticulationReducedCoordinate@physx@@UEBAIPEAPEAVPxConstraint@2@II@Z 000000018005aea0 f   NpArticulationReducedCoordinate.obj
 0001:00059f00       ?getNbLinks@NpArticulationReducedCoordinate@physx@@UEBAIXZ 000000018005af00 f   NpArticulationReducedCoordinate.obj
 0001:00059f10       ?getNbLoopJoints@NpArticulationReducedCoordinate@physx@@UEBAIXZ 000000018005af10 f   NpArticulationReducedCoordinate.obj
 0001:00059f20       ?getNbSensors@NpArticulationReducedCoordinate@physx@@UEAAIXZ 000000018005af20 f   NpArticulationReducedCoordinate.obj
 0001:00059f30       ?getNbShapes@NpArticulationReducedCoordinate@physx@@UEBAIXZ 000000018005af30 f   NpArticulationReducedCoordinate.obj
 0001:00059f40       ?getNbSpatialTendons@NpArticulationReducedCoordinate@physx@@UEAAIXZ 000000018005af40 f   NpArticulationReducedCoordinate.obj
 0001:00059f50       ?getRoot@NpArticulationReducedCoordinate@physx@@QEAAPEAVNpArticulationLink@2@XZ 000000018005af50 f   NpArticulationReducedCoordinate.obj
 0001:00059f70       ?getRootAngularVelocity@NpArticulationReducedCoordinate@physx@@UEBA?AV?$PxVec3T@M@2@XZ 000000018005af70 f   NpArticulationReducedCoordinate.obj
 0001:00059ff0       ?getRootGlobalPose@NpArticulationReducedCoordinate@physx@@UEBA?AV?$PxTransformT@M@2@XZ 000000018005aff0 f   NpArticulationReducedCoordinate.obj
 0001:0005a080       ?getRootLinearVelocity@NpArticulationReducedCoordinate@physx@@UEBA?AV?$PxVec3T@M@2@XZ 000000018005b080 f   NpArticulationReducedCoordinate.obj
 0001:0005a100       ?getSensor@NpArticulationReducedCoordinate@physx@@QEBAPEAVNpArticulationSensor@2@I@Z 000000018005b100 f   NpArticulationReducedCoordinate.obj
 0001:0005a110       ?getSensors@NpArticulationReducedCoordinate@physx@@UEBAIPEAPEAVPxArticulationSensor@2@II@Z 000000018005b110 f   NpArticulationReducedCoordinate.obj
 0001:0005a170       ?getSolverIterationCounts@NpArticulationReducedCoordinate@physx@@UEBAXAEAI0@Z 000000018005b170 f   NpArticulationReducedCoordinate.obj
 0001:0005a190       ?getSpatialTendon@NpArticulationReducedCoordinate@physx@@QEBAPEAVNpArticulationSpatialTendon@2@I@Z 000000018005b190 f   NpArticulationReducedCoordinate.obj
 0001:0005a1a0       ?getSpatialTendons@NpArticulationReducedCoordinate@physx@@UEBAIPEAPEAVPxArticulationSpatialTendon@2@II@Z 000000018005b1a0 f   NpArticulationReducedCoordinate.obj
 0001:0005a200       ?getWakeCounter@NpArticulationReducedCoordinate@physx@@UEBAMXZ 000000018005b200 f   NpArticulationReducedCoordinate.obj
 0001:0005a260       ?getWorldBounds@NpArticulationReducedCoordinate@physx@@UEBA?AVPxBounds3@2@M@Z 000000018005b260 f   NpArticulationReducedCoordinate.obj
 0001:0005a530       ?growAndPushBack@?$PxArray@PEAVNpArticulationFixedTendon@physx@@V?$PxReflectionAllocator@PEAVNpArticulationFixedTendon@physx@@@2@@physx@@IEAAAEAPEAVNpArticulationFixedTendon@2@AEBQEAV32@@Z 000000018005b530 f i NpArticulationReducedCoordinate.obj
 0001:0005a650       ?growAndPushBack@?$PxArray@PEAVNpArticulationLink@physx@@V?$PxInlineAllocator@$0CA@V?$PxReflectionAllocator@PEAVNpArticulationLink@physx@@@physx@@@2@@physx@@IEAAAEAPEAVNpArticulationLink@2@AEBQEAV32@@Z 000000018005b650 f i NpArticulationReducedCoordinate.obj
 0001:0005a720       ?growAndPushBack@?$PxArray@PEAVNpArticulationSensor@physx@@V?$PxReflectionAllocator@PEAVNpArticulationSensor@physx@@@2@@physx@@IEAAAEAPEAVNpArticulationSensor@2@AEBQEAV32@@Z 000000018005b720 f i NpArticulationReducedCoordinate.obj
 0001:0005a840       ?growAndPushBack@?$PxArray@PEAVNpArticulationSpatialTendon@physx@@V?$PxReflectionAllocator@PEAVNpArticulationSpatialTendon@physx@@@2@@physx@@IEAAAEAPEAVNpArticulationSpatialTendon@2@AEBQEAV32@@Z 000000018005b840 f i NpArticulationReducedCoordinate.obj
 0001:0005a960       ?importExtraData@NpArticulationReducedCoordinate@physx@@QEAAXAEAVPxDeserializationContext@2@@Z 000000018005b960 f   NpArticulationReducedCoordinate.obj
 0001:0005aa80       ?isKindOf@NpArticulationReducedCoordinate@physx@@UEBA_NPEBD@Z 000000018005ba80 f i NpArticulationReducedCoordinate.obj
 0001:0005aad0       ?isSleeping@NpArticulationReducedCoordinate@physx@@UEBA_NXZ 000000018005bad0 f   NpArticulationReducedCoordinate.obj
 0001:0005ab30       ?packJointData@NpArticulationReducedCoordinate@physx@@UEBAXPEBMPEAM@Z 000000018005bb30 f   NpArticulationReducedCoordinate.obj
 0001:0005ab40       ?preExportDataReset@NpArticulationReducedCoordinate@physx@@QEAAXXZ 000000018005bb40 f   NpArticulationReducedCoordinate.obj
 0001:0005ab60       ?putToSleep@NpArticulationReducedCoordinate@physx@@UEAAXXZ 000000018005bb60 f   NpArticulationReducedCoordinate.obj
 0001:0005abf0       ?recreate@?$PxArray@PEAVNpConstraint@physx@@V?$PxReflectionAllocator@PEAVNpConstraint@physx@@@2@@physx@@IEAAXI@Z 000000018005bbf0 f i NpArticulationReducedCoordinate.obj
 0001:0005ac90       ?release@NpArticulationReducedCoordinate@physx@@UEAAXXZ 000000018005bc90 f   NpArticulationReducedCoordinate.obj
 0001:0005add0       ?release@PxArticulationCache@physx@@QEAAXXZ 000000018005bdd0 f   NpArticulationReducedCoordinate.obj
 0001:0005aea0       ?releaseSensor@NpArticulationReducedCoordinate@physx@@UEAAXAEAVPxArticulationSensor@2@@Z 000000018005bea0 f   NpArticulationReducedCoordinate.obj
 0001:0005af60       ?removeFixedTendonInternal@NpArticulationReducedCoordinate@physx@@AEAAXPEAVNpArticulationFixedTendon@2@@Z 000000018005bf60 f   NpArticulationReducedCoordinate.obj
 0001:0005af70       ?removeLoopJoint@NpArticulationReducedCoordinate@physx@@UEAAXPEAVPxConstraint@2@@Z 000000018005bf70 f   NpArticulationReducedCoordinate.obj
 0001:0005b010       ?removeSensorInternal@NpArticulationReducedCoordinate@physx@@AEAAXPEAVNpArticulationSensor@2@@Z 000000018005c010 f   NpArticulationReducedCoordinate.obj
 0001:0005b020       ?removeSpatialTendonInternal@NpArticulationReducedCoordinate@physx@@AEAAXPEAVNpArticulationSpatialTendon@2@@Z 000000018005c020 f   NpArticulationReducedCoordinate.obj
 0001:0005b030       ?requiresObjects@NpArticulationReducedCoordinate@physx@@UEAAXAEAVPxProcessPxBaseCallback@2@@Z 000000018005c030 f   NpArticulationReducedCoordinate.obj
 0001:0005b130       ?setArticulationFlag@NpArticulationReducedCoordinate@physx@@UEAAXW4Enum@PxArticulationFlag@2@_N@Z 000000018005c130 f   NpArticulationReducedCoordinate.obj
 0001:0005b1a0       ?setArticulationFlags@NpArticulationReducedCoordinate@physx@@UEAAXV?$PxFlags@W4Enum@PxArticulationFlag@physx@@E@2@@Z 000000018005c1a0 f   NpArticulationReducedCoordinate.obj
 0001:0005b210       ?setGlobalPose@NpArticulationReducedCoordinate@physx@@QEAAXXZ 000000018005c210 f   NpArticulationReducedCoordinate.obj
 0001:0005b310       ?setMaxCOMAngularVelocity@NpArticulationReducedCoordinate@physx@@UEAAXM@Z 000000018005c310 f   NpArticulationReducedCoordinate.obj
 0001:0005b370       ?setMaxCOMLinearVelocity@NpArticulationReducedCoordinate@physx@@UEAAXM@Z 000000018005c370 f   NpArticulationReducedCoordinate.obj
 0001:0005b3d0       ?setRootAngularVelocity@NpArticulationReducedCoordinate@physx@@UEAAXAEBV?$PxVec3T@M@2@_N@Z 000000018005c3d0 f   NpArticulationReducedCoordinate.obj
 0001:0005b4a0       ?setRootGlobalPose@NpArticulationReducedCoordinate@physx@@UEAAXAEBV?$PxTransformT@M@2@_N@Z 000000018005c4a0 f   NpArticulationReducedCoordinate.obj
 0001:0005b500       ?setRootLinearVelocity@NpArticulationReducedCoordinate@physx@@UEAAXAEBV?$PxVec3T@M@2@_N@Z 000000018005c500 f   NpArticulationReducedCoordinate.obj
 0001:0005b5d0       ?setSleepThreshold@NpArticulationReducedCoordinate@physx@@UEAAXM@Z 000000018005c5d0 f   NpArticulationReducedCoordinate.obj
 0001:0005b630       ?setSolverIterationCounts@NpArticulationReducedCoordinate@physx@@UEAAXII@Z 000000018005c630 f   NpArticulationReducedCoordinate.obj
 0001:0005b6a0       ?setStabilizationThreshold@NpArticulationReducedCoordinate@physx@@UEAAXM@Z 000000018005c6a0 f   NpArticulationReducedCoordinate.obj
 0001:0005b700       ?setWakeCounter@NpArticulationReducedCoordinate@physx@@UEAAXM@Z 000000018005c700 f   NpArticulationReducedCoordinate.obj
 0001:0005b7c0       ?unpackJointData@NpArticulationReducedCoordinate@physx@@UEBAXPEBMPEAM@Z 000000018005c7c0 f   NpArticulationReducedCoordinate.obj
 0001:0005b7d0       ?updateKinematic@NpArticulationReducedCoordinate@physx@@UEAAXV?$PxFlags@W4Enum@PxArticulationKinematicFlag@physx@@E@2@@Z 000000018005c7d0 f   NpArticulationReducedCoordinate.obj
 0001:0005b8d0       ?wakeUp@NpArticulationReducedCoordinate@physx@@UEAAXXZ 000000018005c8d0 f   NpArticulationReducedCoordinate.obj
 0001:0005b990       ?wakeUpInternal@NpArticulationReducedCoordinate@physx@@QEAAX_N0@Z 000000018005c990 f   NpArticulationReducedCoordinate.obj
 0001:0005ba50       ?zeroCache@NpArticulationReducedCoordinate@physx@@UEBAXAEAVPxArticulationCache@2@@Z 000000018005ca50 f   NpArticulationReducedCoordinate.obj
 0001:0005ba60       ??0NpArticulationJointReducedCoordinate@physx@@QEAA@AEAVNpArticulationLink@1@AEBV?$PxTransformT@M@1@01@Z 000000018005ca60 f   NpArticulationJointReducedCoordinate.obj
 0001:0005baf0       ??_ENpArticulationJointReducedCoordinate@physx@@UEAAPEAXI@Z 000000018005caf0 f i NpArticulationJointReducedCoordinate.obj
 0001:0005baf0       ??_GNpArticulationJointReducedCoordinate@physx@@UEAAPEAXI@Z 000000018005caf0 f i NpArticulationJointReducedCoordinate.obj
 0001:0005bb70       ?createObject@NpArticulationJointReducedCoordinate@physx@@SAPEAV12@AEAPEAEAEAVPxDeserializationContext@2@@Z 000000018005cb70 f   NpArticulationJointReducedCoordinate.obj
 0001:0005bbd0       ?getArmature@NpArticulationJointReducedCoordinate@physx@@UEBAMW4Enum@PxArticulationAxis@2@@Z 000000018005cbd0 f   NpArticulationJointReducedCoordinate.obj
 0001:0005bbe0       ?getChildArticulationLink@NpArticulationJointReducedCoordinate@physx@@UEBAAEAVPxArticulationLink@2@XZ 000000018005cbe0 f i NpArticulationJointReducedCoordinate.obj
 0001:0005bbf0       ?getChildPose@NpArticulationJointReducedCoordinate@physx@@UEBA?AV?$PxTransformT@M@2@XZ 000000018005cbf0 f   NpArticulationJointReducedCoordinate.obj
 0001:0005bea0       ?getConcreteTypeName@PxArticulationJointReducedCoordinate@physx@@UEBAPEBDXZ 000000018005cea0 f i NpArticulationJointReducedCoordinate.obj
 0001:0005beb0       ?getDriveParams@NpArticulationJointReducedCoordinate@physx@@UEBA?AUPxArticulationDrive@2@W4Enum@PxArticulationAxis@2@@Z 000000018005ceb0 f   NpArticulationJointReducedCoordinate.obj
 0001:0005bed0       ?getDriveTarget@NpArticulationJointReducedCoordinate@physx@@UEBAMW4Enum@PxArticulationAxis@2@@Z 000000018005ced0 f   NpArticulationJointReducedCoordinate.obj
 0001:0005bee0       ?getDriveVelocity@NpArticulationJointReducedCoordinate@physx@@UEBAMW4Enum@PxArticulationAxis@2@@Z 000000018005cee0 f   NpArticulationJointReducedCoordinate.obj
 0001:0005bef0       ?getFrictionCoefficient@NpArticulationJointReducedCoordinate@physx@@UEBAMXZ 000000018005cef0 f   NpArticulationJointReducedCoordinate.obj
 0001:0005bf00       ?getJointPosition@NpArticulationJointReducedCoordinate@physx@@UEBAMW4Enum@PxArticulationAxis@2@@Z 000000018005cf00 f   NpArticulationJointReducedCoordinate.obj
 0001:0005bf70       ?getJointType@NpArticulationJointReducedCoordinate@physx@@UEBA?AW4Enum@PxArticulationJointType@2@XZ 000000018005cf70 f   NpArticulationJointReducedCoordinate.obj
 0001:0005bf80       ?getJointVelocity@NpArticulationJointReducedCoordinate@physx@@UEBAMW4Enum@PxArticulationAxis@2@@Z 000000018005cf80 f   NpArticulationJointReducedCoordinate.obj
 0001:0005bff0       ?getLimitParams@NpArticulationJointReducedCoordinate@physx@@UEBA?AUPxArticulationLimit@2@W4Enum@PxArticulationAxis@2@@Z 000000018005cff0 f   NpArticulationJointReducedCoordinate.obj
 0001:0005c010       ?getMaxJointVelocity@NpArticulationJointReducedCoordinate@physx@@UEBAMXZ 000000018005d010 f   NpArticulationJointReducedCoordinate.obj
 0001:0005c020       ?getMotion@NpArticulationJointReducedCoordinate@physx@@UEBA?AW4Enum@PxArticulationMotion@2@W43PxArticulationAxis@2@@Z 000000018005d020 f   NpArticulationJointReducedCoordinate.obj
 0001:0005c030       ?getParentPose@NpArticulationJointReducedCoordinate@physx@@UEBA?AV?$PxTransformT@M@2@XZ 000000018005d030 f   NpArticulationJointReducedCoordinate.obj
 0001:0005c2e0       ?isKindOf@PxArticulationJointReducedCoordinate@physx@@MEBA_NPEBD@Z 000000018005d2e0 f i NpArticulationJointReducedCoordinate.obj
 0001:0005c330       ?release@NpArticulationJointReducedCoordinate@physx@@UEAAXXZ 000000018005d330 f   NpArticulationJointReducedCoordinate.obj
 0001:0005c380       ?resolveReferences@NpArticulationJointReducedCoordinate@physx@@UEAAXAEAVPxDeserializationContext@2@@Z 000000018005d380 f   NpArticulationJointReducedCoordinate.obj
 0001:0005c400       ?setArmature@NpArticulationJointReducedCoordinate@physx@@UEAAXW4Enum@PxArticulationAxis@2@M@Z 000000018005d400 f   NpArticulationJointReducedCoordinate.obj
 0001:0005c460       ?setChildPose@NpArticulationJointReducedCoordinate@physx@@UEAAXAEBV?$PxTransformT@M@2@@Z 000000018005d460 f   NpArticulationJointReducedCoordinate.obj
 0001:0005c810       ?setDriveParams@NpArticulationJointReducedCoordinate@physx@@UEAAXW4Enum@PxArticulationAxis@2@AEBUPxArticulationDrive@2@@Z 000000018005d810 f   NpArticulationJointReducedCoordinate.obj
 0001:0005c870       ?setDriveTarget@NpArticulationJointReducedCoordinate@physx@@UEAAXW4Enum@PxArticulationAxis@2@M_N@Z 000000018005d870 f   NpArticulationJointReducedCoordinate.obj
 0001:0005c920       ?setDriveVelocity@NpArticulationJointReducedCoordinate@physx@@UEAAXW4Enum@PxArticulationAxis@2@M_N@Z 000000018005d920 f   NpArticulationJointReducedCoordinate.obj
 0001:0005c9d0       ?setFrictionCoefficient@NpArticulationJointReducedCoordinate@physx@@UEAAXM@Z 000000018005d9d0 f   NpArticulationJointReducedCoordinate.obj
 0001:0005ca30       ?setJointPosition@NpArticulationJointReducedCoordinate@physx@@UEAAXW4Enum@PxArticulationAxis@2@M@Z 000000018005da30 f   NpArticulationJointReducedCoordinate.obj
 0001:0005ca90       ?setJointType@NpArticulationJointReducedCoordinate@physx@@UEAAXW4Enum@PxArticulationJointType@2@@Z 000000018005da90 f   NpArticulationJointReducedCoordinate.obj
 0001:0005cae0       ?setJointVelocity@NpArticulationJointReducedCoordinate@physx@@UEAAXW4Enum@PxArticulationAxis@2@M@Z 000000018005dae0 f   NpArticulationJointReducedCoordinate.obj
 0001:0005cb40       ?setLimitParams@NpArticulationJointReducedCoordinate@physx@@UEAAXW4Enum@PxArticulationAxis@2@AEBUPxArticulationLimit@2@@Z 000000018005db40 f   NpArticulationJointReducedCoordinate.obj
 0001:0005cba0       ?setMaxJointVelocity@NpArticulationJointReducedCoordinate@physx@@UEAAXM@Z 000000018005dba0 f   NpArticulationJointReducedCoordinate.obj
 0001:0005cc00       ?setMotion@NpArticulationJointReducedCoordinate@physx@@UEAAXW4Enum@PxArticulationAxis@2@W43PxArticulationMotion@2@@Z 000000018005dc00 f   NpArticulationJointReducedCoordinate.obj
 0001:0005cc70       ?setParentPose@NpArticulationJointReducedCoordinate@physx@@UEAAXAEBV?$PxTransformT@M@2@@Z 000000018005dc70 f   NpArticulationJointReducedCoordinate.obj
 0001:0005d030       ??0NpArticulationLink@physx@@QEAA@AEBV?$PxTransformT@M@1@AEAVPxArticulationReducedCoordinate@1@PEAV01@@Z 000000018005e030 f   NpArticulationLink.obj
 0001:0005d160       ??_E?$NpActorTemplate@VPxArticulationLink@physx@@@physx@@UEAAPEAXI@Z 000000018005e160 f i NpArticulationLink.obj
 0001:0005d160       ??_G?$NpActorTemplate@VPxArticulationLink@physx@@@physx@@UEAAPEAXI@Z 000000018005e160 f i NpArticulationLink.obj
 0001:0005d1e0       ??_E?$NpRigidActorTemplate@VPxArticulationLink@physx@@@physx@@UEAAPEAXI@Z 000000018005e1e0 f i NpArticulationLink.obj
 0001:0005d1e0       ??_G?$NpRigidActorTemplate@VPxArticulationLink@physx@@@physx@@UEAAPEAXI@Z 000000018005e1e0 f i NpArticulationLink.obj
 0001:0005d270       ??_E?$NpRigidBodyTemplate@VPxArticulationLink@physx@@@physx@@UEAAPEAXI@Z 000000018005e270 f i NpArticulationLink.obj
 0001:0005d270       ??_G?$NpRigidBodyTemplate@VPxArticulationLink@physx@@@physx@@UEAAPEAXI@Z 000000018005e270 f i NpArticulationLink.obj
 0001:0005d310       ??_ENpArticulationLink@physx@@UEAAPEAXI@Z 000000018005e310 f i NpArticulationLink.obj
 0001:0005d310       ??_GNpArticulationLink@physx@@UEAAPEAXI@Z 000000018005e310 f i NpArticulationLink.obj
 0001:0005d400       ?addForce@NpArticulationLink@physx@@UEAAXAEBV?$PxVec3T@M@2@W4Enum@PxForceMode@2@_N@Z 000000018005e400 f   NpArticulationLink.obj
 0001:0005d4c0       ?addSpatialForce@?$NpRigidBodyTemplate@VPxArticulationLink@physx@@@physx@@IEAAXPEBV?$PxVec3T@M@2@0W4Enum@PxForceMode@2@@Z 000000018005e4c0 f i NpArticulationLink.obj
 0001:0005d6f0       ?addTorque@NpArticulationLink@physx@@UEAAXAEBV?$PxVec3T@M@2@W4Enum@PxForceMode@2@_N@Z 000000018005e6f0 f   NpArticulationLink.obj
 0001:0005d7b0       ?attachShape@?$NpRigidBodyTemplate@VPxArticulationLink@physx@@@physx@@UEAA_NAEAVPxShape@2@@Z 000000018005e7b0 f i NpArticulationLink.obj
 0001:0005d7c0       ?attachShape@NpArticulationLink@physx@@UEAA_NAEAVPxShape@2@@Z 000000018005e7c0 f   NpArticulationLink.obj
 0001:0005d7e0       ?clearForce@NpArticulationLink@physx@@UEAAXW4Enum@PxForceMode@2@@Z 000000018005e7e0 f   NpArticulationLink.obj
 0001:0005d870       ?clearTorque@NpArticulationLink@physx@@UEAAXW4Enum@PxForceMode@2@@Z 000000018005e870 f   NpArticulationLink.obj
 0001:0005d900       ?createObject@NpArticulationLink@physx@@SAPEAV12@AEAPEAEAEAVPxDeserializationContext@2@@Z 000000018005e900 f   NpArticulationLink.obj
 0001:0005d9d0       ?detachShape@NpArticulationLink@physx@@UEAAXAEAVPxShape@2@_N@Z 000000018005e9d0 f   NpArticulationLink.obj
 0001:0005dab0       ?exportExtraData@NpArticulationLink@physx@@UEAAXAEAVPxSerializationContext@2@@Z 000000018005eab0 f   NpArticulationLink.obj
 0001:0005db20       ?getChildren@NpArticulationLink@physx@@UEBAIPEAPEAVPxArticulationLink@2@II@Z 000000018005eb20 f   NpArticulationLink.obj
 0001:0005db80       ?getConcreteTypeName@PxArticulationLink@physx@@UEBAPEBDXZ 000000018005eb80 f i NpArticulationLink.obj
 0001:0005db90       ?getGlobalPose@NpArticulationLink@physx@@UEBA?AV?$PxTransformT@M@2@XZ 000000018005eb90 f   NpArticulationLink.obj
 0001:0005e000       ?getInboundJointDof@NpArticulationLink@physx@@UEBAIXZ 000000018005f000 f   NpArticulationLink.obj
 0001:0005e020       ?getLinkIndex@NpArticulationLink@physx@@UEBAIXZ 000000018005f020 f   NpArticulationLink.obj
 0001:0005e040       ?getType@NpArticulationLink@physx@@UEBA?AW4Enum@PxActorType@2@XZ 000000018005f040 f i NpArticulationLink.obj
 0001:0005e050       ?importExtraData@NpArticulationLink@physx@@UEAAXAEAVPxDeserializationContext@2@@Z 000000018005f050 f   NpArticulationLink.obj
 0001:0005e0d0       ?isKindOf@PxArticulationLink@physx@@MEBA_NPEBD@Z 000000018005f0d0 f i NpArticulationLink.obj
 0001:0005e120       ?release@NpArticulationLink@physx@@UEAAXXZ 000000018005f120 f   NpArticulationLink.obj
 0001:0005e2d0       ?releaseInternal@NpArticulationLink@physx@@QEAAXXZ 000000018005f2d0 f   NpArticulationLink.obj
 0001:0005e420       ?requiresObjects@NpArticulationLink@physx@@UEAAXAEAVPxProcessPxBaseCallback@2@@Z 000000018005f420 f   NpArticulationLink.obj
 0001:0005e4b0       ?resolveReferences@NpArticulationLink@physx@@UEAAXAEAVPxDeserializationContext@2@@Z 000000018005f4b0 f   NpArticulationLink.obj
 0001:0005e5e0       ?scGetGlobalInertiaTensorInverse@?$NpRigidBodyTemplate@VPxArticulationLink@physx@@@physx@@QEBA?AV?$PxMat33T@M@2@XZ 000000018005f5e0 f i NpArticulationLink.obj
 0001:0005e870       ?setActorFlag@?$NpRigidActorTemplate@VPxArticulationLink@physx@@@physx@@UEAAXW4Enum@PxActorFlag@2@_N@Z 000000018005f870 f i NpArticulationLink.obj
 0001:0005ea00       ?setActorFlags@?$NpRigidActorTemplate@VPxArticulationLink@physx@@@physx@@UEAAXV?$PxFlags@W4Enum@PxActorFlag@physx@@E@2@@Z 000000018005fa00 f i NpArticulationLink.obj
 0001:0005eb60       ?setCMassLocalPose@NpArticulationLink@physx@@UEAAXAEBV?$PxTransformT@M@2@@Z 000000018005fb60 f   NpArticulationLink.obj
 0001:0005f3b0       ?setCfmScale@NpArticulationLink@physx@@UEAAXM@Z 00000001800603b0 f   NpArticulationLink.obj
 0001:0005f410       ?setFixedBaseLink@NpArticulationLink@physx@@QEAAX_N@Z 0000000180060410 f   NpArticulationLink.obj
 0001:0005f420       ?setForceAndTorque@NpArticulationLink@physx@@UEAAXAEBV?$PxVec3T@M@2@0W4Enum@PxForceMode@2@@Z 0000000180060420 f   NpArticulationLink.obj
 0001:0005f4c0       ?setGlobalPoseInternal@NpArticulationLink@physx@@QEAAXAEBV?$PxTransformT@M@2@_N@Z 00000001800604c0 f   NpArticulationLink.obj
 0001:0005f890       ?setSpatialForce@?$NpRigidBodyTemplate@VPxArticulationLink@physx@@@physx@@IEAAXPEBV?$PxVec3T@M@2@0W4Enum@PxForceMode@2@@Z 0000000180060890 f i NpArticulationLink.obj
 0001:0005fac0       ??0NpArticulationAttachment@physx@@QEAA@PEAVPxArticulationAttachment@1@MV?$PxVec3T@M@1@PEAVPxArticulationLink@1@@Z 0000000180060ac0 f   NpArticulationTendon.obj
 0001:0005fd30       ??0NpArticulationFixedTendon@physx@@QEAA@PEAVNpArticulationReducedCoordinate@1@@Z 0000000180060d30 f   NpArticulationTendon.obj
 0001:0005fdc0       ??0NpArticulationSpatialTendon@physx@@QEAA@PEAVNpArticulationReducedCoordinate@1@@Z 0000000180060dc0 f   NpArticulationTendon.obj
 0001:0005fe30       ??_ENpArticulationAttachment@physx@@UEAAPEAXI@Z 0000000180060e30 f i NpArticulationTendon.obj
 0001:0005fe30       ??_GNpArticulationAttachment@physx@@UEAAPEAXI@Z 0000000180060e30 f i NpArticulationTendon.obj
 0001:0005fef0       ??_ENpArticulationFixedTendon@physx@@UEAAPEAXI@Z 0000000180060ef0 f i NpArticulationTendon.obj
 0001:0005fef0       ??_GNpArticulationFixedTendon@physx@@UEAAPEAXI@Z 0000000180060ef0 f i NpArticulationTendon.obj
 0001:00060020       ??_ENpArticulationSpatialTendon@physx@@UEAAPEAXI@Z 0000000180061020 f i NpArticulationTendon.obj
 0001:00060020       ??_GNpArticulationSpatialTendon@physx@@UEAAPEAXI@Z 0000000180061020 f i NpArticulationTendon.obj
 0001:00060150       ??_ENpArticulationTendonJoint@physx@@UEAAPEAXI@Z 0000000180061150 f i NpArticulationTendon.obj
 0001:00060150       ??_GNpArticulationTendonJoint@physx@@UEAAPEAXI@Z 0000000180061150 f i NpArticulationTendon.obj
 0001:00060210       ?allocate@?$PxArray@PEAVNpArticulationAttachment@physx@@V?$PxInlineAllocator@$0CA@V?$PxReflectionAllocator@PEAVNpArticulationAttachment@physx@@@physx@@@2@@physx@@IEAAPEAPEAVNpArticulationAttachment@2@I@Z 0000000180061210 f i NpArticulationTendon.obj
 0001:000602c0       ?allocate@?$PxArray@PEAVNpArticulationTendonJoint@physx@@V?$PxInlineAllocator@$0CA@V?$PxReflectionAllocator@PEAVNpArticulationTendonJoint@physx@@@physx@@@2@@physx@@IEAAPEAPEAVNpArticulationTendonJoint@2@I@Z 00000001800612c0 f i NpArticulationTendon.obj
 0001:00060370       ?createAttachment@NpArticulationSpatialTendon@physx@@UEAAPEAVPxArticulationAttachment@2@PEAV32@MV?$PxVec3T@M@2@PEAVPxArticulationLink@2@@Z 0000000180061370 f   NpArticulationTendon.obj
 0001:000604e0       ?createObject@NpArticulationAttachment@physx@@SAPEAV12@AEAPEAEAEAVPxDeserializationContext@2@@Z 00000001800614e0 f   NpArticulationTendon.obj
 0001:00060650       ?createObject@NpArticulationFixedTendon@physx@@SAPEAV12@AEAPEAEAEAVPxDeserializationContext@2@@Z 0000000180061650 f   NpArticulationTendon.obj
 0001:00060770       ?createObject@NpArticulationSpatialTendon@physx@@SAPEAV12@AEAPEAEAEAVPxDeserializationContext@2@@Z 0000000180061770 f   NpArticulationTendon.obj
 0001:00060890       ?createObject@NpArticulationTendonJoint@physx@@SAPEAV12@AEAPEAEAEAVPxDeserializationContext@2@@Z 0000000180061890 f   NpArticulationTendon.obj
 0001:00060a00       ?createTendonJoint@NpArticulationFixedTendon@physx@@UEAAPEAVPxArticulationTendonJoint@2@PEAV32@W4Enum@PxArticulationAxis@2@MMPEAVPxArticulationLink@2@@Z 0000000180061a00 f   NpArticulationTendon.obj
 0001:00060bc0       ?exportExtraData@NpArticulationAttachment@physx@@UEAAXAEAVPxSerializationContext@2@@Z 0000000180061bc0 f   NpArticulationTendon.obj
 0001:00060c00       ?exportExtraData@NpArticulationFixedTendon@physx@@UEAAXAEAVPxSerializationContext@2@@Z 0000000180061c00 f   NpArticulationTendon.obj
 0001:00060c00       ?exportExtraData@NpArticulationSpatialTendon@physx@@UEAAXAEAVPxSerializationContext@2@@Z 0000000180061c00 f   NpArticulationTendon.obj
 0001:00060c40       ?exportExtraData@NpArticulationTendonJoint@physx@@UEAAXAEAVPxSerializationContext@2@@Z 0000000180061c40 f   NpArticulationTendon.obj
 0001:00060c80       ?getAttachment@NpArticulationSpatialTendon@physx@@QEAAPEAVNpArticulationAttachment@2@I@Z 0000000180061c80 f   NpArticulationTendon.obj
 0001:00060c80       ?getTendonJoint@NpArticulationFixedTendon@physx@@QEAAPEAVNpArticulationTendonJoint@2@I@Z 0000000180061c80 f   NpArticulationTendon.obj
 0001:00060c90       ?getAttachments@NpArticulationSpatialTendon@physx@@UEBAIPEAPEAVPxArticulationAttachment@2@II@Z 0000000180061c90 f   NpArticulationTendon.obj
 0001:00060c90       ?getTendonJoints@NpArticulationFixedTendon@physx@@UEBAIPEAPEAVPxArticulationTendonJoint@2@II@Z 0000000180061c90 f   NpArticulationTendon.obj
 0001:00060ce0       ?getCoefficient@NpArticulationAttachment@physx@@UEBAMXZ 0000000180061ce0 f   NpArticulationTendon.obj
 0001:00060cf0       ?getCoefficient@NpArticulationTendonJoint@physx@@UEBAXAEAW4Enum@PxArticulationAxis@2@AEAM1@Z 0000000180061cf0 f   NpArticulationTendon.obj
 0001:00060d10       ?getConcreteTypeName@PxArticulationAttachment@physx@@UEBAPEBDXZ 0000000180061d10 f i NpArticulationTendon.obj
 0001:00060d20       ?getConcreteTypeName@PxArticulationFixedTendon@physx@@UEBAPEBDXZ 0000000180061d20 f i NpArticulationTendon.obj
 0001:00060d30       ?getConcreteTypeName@PxArticulationSpatialTendon@physx@@UEBAPEBDXZ 0000000180061d30 f i NpArticulationTendon.obj
 0001:00060d40       ?getConcreteTypeName@PxArticulationTendonJoint@physx@@UEBAPEBDXZ 0000000180061d40 f i NpArticulationTendon.obj
 0001:00060d50       ?getDamping@NpArticulationFixedTendon@physx@@UEBAMXZ 0000000180061d50 f   NpArticulationTendon.obj
 0001:00060d50       ?getDamping@NpArticulationSpatialTendon@physx@@UEBAMXZ 0000000180061d50 f   NpArticulationTendon.obj
 0001:00060d60       ?getLimitParameters@NpArticulationAttachment@physx@@UEBA?AVPxArticulationTendonLimit@2@XZ 0000000180061d60 f   NpArticulationTendon.obj
 0001:00060d80       ?getLimitParameters@NpArticulationFixedTendon@physx@@UEBA?AVPxArticulationTendonLimit@2@XZ 0000000180061d80 f   NpArticulationTendon.obj
 0001:00060da0       ?getLimitStiffness@NpArticulationFixedTendon@physx@@UEBAMXZ 0000000180061da0 f   NpArticulationTendon.obj
 0001:00060da0       ?getLimitStiffness@NpArticulationSpatialTendon@physx@@UEBAMXZ 0000000180061da0 f   NpArticulationTendon.obj
 0001:00060db0       ?getOffset@NpArticulationFixedTendon@physx@@UEBAMXZ 0000000180061db0 f   NpArticulationTendon.obj
 0001:00060db0       ?getOffset@NpArticulationSpatialTendon@physx@@UEBAMXZ 0000000180061db0 f   NpArticulationTendon.obj
 0001:00060dc0       ?getRelativeOffset@NpArticulationAttachment@physx@@UEBA?AV?$PxVec3T@M@2@XZ 0000000180061dc0 f   NpArticulationTendon.obj
 0001:00060de0       ?getRestLength@NpArticulationAttachment@physx@@UEBAMXZ 0000000180061de0 f   NpArticulationTendon.obj
 0001:00060df0       ?getRestLength@NpArticulationFixedTendon@physx@@UEBAMXZ 0000000180061df0 f   NpArticulationTendon.obj
 0001:00060e00       ?getStiffness@NpArticulationFixedTendon@physx@@UEBAMXZ 0000000180061e00 f   NpArticulationTendon.obj
 0001:00060e00       ?getStiffness@NpArticulationSpatialTendon@physx@@UEBAMXZ 0000000180061e00 f   NpArticulationTendon.obj
 0001:00060e10       ?getTendon@NpArticulationTendonJoint@physx@@UEBAPEAVPxArticulationFixedTendon@2@XZ 0000000180061e10 f   NpArticulationTendon.obj
 0001:00060e20       ?growAndPushBack@?$PxArray@PEAVNpArticulationAttachment@physx@@V?$PxInlineAllocator@$0CA@V?$PxReflectionAllocator@PEAVNpArticulationAttachment@physx@@@physx@@@2@@physx@@IEAAAEAPEAVNpArticulationAttachment@2@AEBQEAV32@@Z 0000000180061e20 f i NpArticulationTendon.obj
 0001:00060ef0       ?growAndPushBack@?$PxArray@PEAVNpArticulationTendonJoint@physx@@V?$PxInlineAllocator@$0CA@V?$PxReflectionAllocator@PEAVNpArticulationTendonJoint@physx@@@physx@@@2@@physx@@IEAAAEAPEAVNpArticulationTendonJoint@2@AEBQEAV32@@Z 0000000180061ef0 f i NpArticulationTendon.obj
 0001:00060fc0       ?isLeaf@NpArticulationAttachment@physx@@UEBA_NXZ 0000000180061fc0 f i NpArticulationTendon.obj
 0001:00060fd0       ?release@NpArticulationAttachment@physx@@UEAAXXZ 0000000180061fd0 f   NpArticulationTendon.obj
 0001:000610c0       ?release@NpArticulationFixedTendon@physx@@UEAAXXZ 00000001800620c0 f   NpArticulationTendon.obj
 0001:00061170       ?release@NpArticulationSpatialTendon@physx@@UEAAXXZ 0000000180062170 f   NpArticulationTendon.obj
 0001:00061220       ?release@NpArticulationTendonJoint@physx@@UEAAXXZ 0000000180062220 f   NpArticulationTendon.obj
 0001:00061310       ?requiresObjects@NpArticulationAttachment@physx@@UEAAXAEAVPxProcessPxBaseCallback@2@@Z 0000000180062310 f   NpArticulationTendon.obj
 0001:00061370       ?requiresObjects@NpArticulationFixedTendon@physx@@UEAAXAEAVPxProcessPxBaseCallback@2@@Z 0000000180062370 f   NpArticulationTendon.obj
 0001:00061370       ?requiresObjects@NpArticulationSpatialTendon@physx@@UEAAXAEAVPxProcessPxBaseCallback@2@@Z 0000000180062370 f   NpArticulationTendon.obj
 0001:000613d0       ?requiresObjects@NpArticulationTendonJoint@physx@@UEAAXAEAVPxProcessPxBaseCallback@2@@Z 00000001800623d0 f   NpArticulationTendon.obj
 0001:00061430       ?setCoefficient@NpArticulationAttachment@physx@@UEAAXM@Z 0000000180062430 f   NpArticulationTendon.obj
 0001:00061460       ?setCoefficient@NpArticulationTendonJoint@physx@@UEAAXW4Enum@PxArticulationAxis@2@MM@Z 0000000180062460 f   NpArticulationTendon.obj
 0001:000614a0       ?setDamping@NpArticulationFixedTendon@physx@@UEAAXM@Z 00000001800624a0 f   NpArticulationTendon.obj
 0001:000614b0       ?setDamping@NpArticulationSpatialTendon@physx@@UEAAXM@Z 00000001800624b0 f   NpArticulationTendon.obj
 0001:000614c0       ?setLimitParameters@NpArticulationAttachment@physx@@UEAAXAEBVPxArticulationTendonLimit@2@@Z 00000001800624c0 f   NpArticulationTendon.obj
 0001:00061500       ?setLimitParameters@NpArticulationFixedTendon@physx@@UEAAXAEBVPxArticulationTendonLimit@2@@Z 0000000180062500 f   NpArticulationTendon.obj
 0001:00061520       ?setLimitStiffness@NpArticulationFixedTendon@physx@@UEAAXM@Z 0000000180062520 f   NpArticulationTendon.obj
 0001:00061530       ?setLimitStiffness@NpArticulationSpatialTendon@physx@@UEAAXM@Z 0000000180062530 f   NpArticulationTendon.obj
 0001:00061540       ?setOffset@NpArticulationFixedTendon@physx@@UEAAXM_N@Z 0000000180062540 f   NpArticulationTendon.obj
 0001:00061580       ?setOffset@NpArticulationSpatialTendon@physx@@UEAAXM_N@Z 0000000180062580 f   NpArticulationTendon.obj
 0001:000615c0       ?setRelativeOffset@NpArticulationAttachment@physx@@UEAAXAEBV?$PxVec3T@M@2@@Z 00000001800625c0 f   NpArticulationTendon.obj
 0001:00061600       ?setRestLength@NpArticulationAttachment@physx@@UEAAXM@Z 0000000180062600 f   NpArticulationTendon.obj
 0001:00061630       ?setRestLength@NpArticulationFixedTendon@physx@@UEAAXM@Z 0000000180062630 f   NpArticulationTendon.obj
 0001:00061640       ?setStiffness@NpArticulationFixedTendon@physx@@UEAAXM@Z 0000000180062640 f   NpArticulationTendon.obj
 0001:00061650       ?setStiffness@NpArticulationSpatialTendon@physx@@UEAAXM@Z 0000000180062650 f   NpArticulationTendon.obj
 0001:000616b0       ??0NpArticulationSensor@physx@@QEAA@PEAVPxArticulationLink@1@AEBV?$PxTransformT@M@1@@Z 00000001800626b0 f   NpArticulationSensor.obj
 0001:00061720       ??_ENpArticulationSensor@physx@@UEAAPEAXI@Z 0000000180062720 f i NpArticulationSensor.obj
 0001:00061720       ??_GNpArticulationSensor@physx@@UEAAPEAXI@Z 0000000180062720 f i NpArticulationSensor.obj
 0001:00061770       ?createObject@NpArticulationSensor@physx@@SAPEAV12@AEAPEAEAEAVPxDeserializationContext@2@@Z 0000000180062770 f   NpArticulationSensor.obj
 0001:000617d0       ?getArticulation@NpArticulationSensor@physx@@UEBAPEAVPxArticulationReducedCoordinate@2@XZ 00000001800627d0 f   NpArticulationSensor.obj
 0001:000617e0       ?getConcreteTypeName@PxArticulationSensor@physx@@UEBAPEBDXZ 00000001800627e0 f i NpArticulationSensor.obj
 0001:000617f0       ?getFlags@NpArticulationSensor@physx@@UEBA?AV?$PxFlags@W4Enum@PxArticulationSensorFlag@physx@@E@2@XZ 00000001800627f0 f   NpArticulationSensor.obj
 0001:00061800       ?getForces@NpArticulationSensor@physx@@UEBA?AUPxSpatialForce@2@XZ 0000000180062800 f   NpArticulationSensor.obj
 0001:000618e0       ?getIndex@NpArticulationSensor@physx@@UEBAIXZ 00000001800628e0 f   NpArticulationSensor.obj
 0001:00061900       ?getRelativePose@NpArticulationSensor@physx@@UEBA?AV?$PxTransformT@M@2@XZ 0000000180062900 f   NpArticulationSensor.obj
 0001:00061930       ?release@NpArticulationSensor@physx@@UEAAXXZ 0000000180062930 f   NpArticulationSensor.obj
 0001:000619e0       ?setFlag@NpArticulationSensor@physx@@UEAAXW4Enum@PxArticulationSensorFlag@2@_N@Z 00000001800629e0 f   NpArticulationSensor.obj
 0001:00061a10       ?setRelativePose@NpArticulationSensor@physx@@UEAAXAEBV?$PxTransformT@M@2@@Z 0000000180062a10 f   NpArticulationSensor.obj
 0001:00061a50       ??0PhysXIndicator@physx@@QEAA@_N@Z 0000000180062a50 f   PhysXIndicatorWindows.obj
 0001:00061bf0       ??1PhysXIndicator@physx@@QEAA@XZ 0000000180062bf0 f   PhysXIndicatorWindows.obj
 0001:00061c40       ?setIsGpu@PhysXIndicator@physx@@QEAAX_N@Z 0000000180062c40 f   PhysXIndicatorWindows.obj
 0001:00061c80       __local_stdio_printf_options 0000000180062c80 f i PhysXIndicatorWindows.obj
 0001:00061c90       sprintf                    0000000180062c90 f i PhysXIndicatorWindows.obj
 0001:00061cf0       PxCreateCudaContextManager 0000000180062cf0 f   PxGpu.obj
 0001:00061d50       PxCudaRegisterFatBinary    0000000180062d50 f   PxGpu.obj
 0001:00061d80       PxCudaRegisterFunction     0000000180062d80 f   PxGpu.obj
 0001:00061dc0       PxGetCudaFunctionTable     0000000180062dc0 f   PxGpu.obj
 0001:00061df0       PxGetCudaFunctionTableSize 0000000180062df0 f   PxGpu.obj
 0001:00061e20       PxGetCudaModuleTable       0000000180062e20 f   PxGpu.obj
 0001:00061e50       PxGetCudaModuleTableSize   0000000180062e50 f   PxGpu.obj
 0001:00061e80       PxGetPhysicsGpu            0000000180062e80 f   PxGpu.obj
 0001:00061eb0       PxGetSuggestedCudaDeviceOrdinal 0000000180062eb0 f   PxGpu.obj
 0001:00061ef0       PxSetPhysXGpuProfilerCallback 0000000180062ef0 f   PxGpu.obj
 0001:00061f20       ?PxLoadPhysxGPUModule@physx@@YAXPEBD@Z 0000000180062f20 f   PxPhysXGpuModuleLoader.obj
 0001:00062110       ?PxUnloadPhysxGPUModule@physx@@YAXXZ 0000000180063110 f   PxPhysXGpuModuleLoader.obj
 0001:00062210       PxSetPhysXGpuLoadHook      0000000180063210 f   PxPhysXGpuModuleLoader.obj
 0001:00062230       fprintf                    0000000180063230 f i PxPhysXGpuModuleLoader.obj
 0001:00062280       ?physxDelayHook@@YAP6A_JXZIPEAUDelayLoadInfo@@@Z 0000000180063280 f   NpWindowsDelayLoadHook.obj
 0001:00062360       PxSetPhysXDelayLoadHook    0000000180063360 f   NpWindowsDelayLoadHook.obj
 0001:00062370       ?PxvGetPhysXGpu@physx@@YAPEAVPxPhysXGpu@1@_N@Z 0000000180063370 f   LowLevel_static_64:px_globals.obj
 0001:000623c0       ?PxvInit@physx@@YAXAEBUPxvOffsetTable@1@@Z 00000001800633c0 f   LowLevel_static_64:px_globals.obj
 0001:000623f0       ?PxvReleasePhysXGpu@physx@@YAXPEAVPxPhysXGpu@1@@Z 00000001800633f0 f   LowLevel_static_64:px_globals.obj
 0001:00062420       ?PxvTerm@physx@@YAXXZ      0000000180063420 f   LowLevel_static_64:px_globals.obj
 0001:00062450       ?getBinaryMetaData@?$MaterialCoreT@UPxsFEMClothMaterialData@physx@@VPxFEMClothMaterial@2@@physx@@SAXAEAVPxOutputStream@2@@Z 0000000180063450 f   LowLevel_static_64:px_globals.obj
 0001:00062630       ?getBinaryMetaData@?$MaterialCoreT@UPxsFEMSoftBodyMaterialData@physx@@VPxFEMSoftBodyMaterial@2@@physx@@SAXAEAVPxOutputStream@2@@Z 0000000180063630 f   LowLevel_static_64:px_globals.obj
 0001:00062930       ?getBinaryMetaData@?$MaterialCoreT@UPxsFLIPMaterialData@physx@@VPxFLIPMaterial@2@@physx@@SAXAEAVPxOutputStream@2@@Z 0000000180063930 f   LowLevel_static_64:px_globals.obj
 0001:00062bb0       ?getBinaryMetaData@?$MaterialCoreT@UPxsMPMMaterialData@physx@@VPxMPMMaterial@2@@physx@@SAXAEAVPxOutputStream@2@@Z 0000000180063bb0 f   LowLevel_static_64:px_globals.obj
 0001:00063000       ?getBinaryMetaData@?$MaterialCoreT@UPxsMaterialData@physx@@VPxMaterial@2@@physx@@SAXAEAVPxOutputStream@2@@Z 0000000180064000 f   LowLevel_static_64:px_globals.obj
 0001:00063300       ?getBinaryMetaData@?$MaterialCoreT@UPxsPBDMaterialData@physx@@VPxPBDMaterial@2@@physx@@SAXAEAVPxOutputStream@2@@Z 0000000180064300 f   LowLevel_static_64:px_globals.obj
 0001:00063750       ??0PxcNpMemBlockPool@physx@@QEAA@AEAVPxcScratchAllocator@1@@Z 0000000180064750 f   LowLevel_static_64:PxcNpMemBlockPool.obj
 0001:00063890       ??1PxcNpMemBlockPool@physx@@QEAA@XZ 0000000180064890 f   LowLevel_static_64:PxcNpMemBlockPool.obj
 0001:00063bd0       ?acquire@PxcNpMemBlockPool@physx@@AEAAPEAUPxcNpMemBlock@2@AEAV?$PxArray@PEAUPxcNpMemBlock@physx@@V?$PxReflectionAllocator@PEAUPxcNpMemBlock@physx@@@2@@2@PEAI1_N@Z 0000000180064bd0 f   LowLevel_static_64:PxcNpMemBlockPool.obj
 0001:00063d90       ?acquireConstraintBlock@PxcNpMemBlockPool@physx@@QEAAPEAUPxcNpMemBlock@2@AEAV?$PxArray@PEAUPxcNpMemBlock@physx@@V?$PxReflectionAllocator@PEAUPxcNpMemBlock@physx@@@2@@2@@Z 0000000180064d90 f   LowLevel_static_64:PxcNpMemBlockPool.obj
 0001:00063dc0       ?acquireConstraintMemory@PxcNpMemBlockPool@physx@@QEAAXXZ 0000000180064dc0 f   LowLevel_static_64:PxcNpMemBlockPool.obj
 0001:00063eb0       ?acquireContactBlock@PxcNpMemBlockPool@physx@@QEAAPEAUPxcNpMemBlock@2@XZ 0000000180064eb0 f   LowLevel_static_64:PxcNpMemBlockPool.obj
 0001:00063ee0       ?acquireExceptionalConstraintMemory@PxcNpMemBlockPool@physx@@QEAAPEAEI@Z 0000000180064ee0 f   LowLevel_static_64:PxcNpMemBlockPool.obj
 0001:00063fb0       ?acquireFrictionBlock@PxcNpMemBlockPool@physx@@QEAAPEAUPxcNpMemBlock@2@XZ 0000000180064fb0 f   LowLevel_static_64:PxcNpMemBlockPool.obj
 0001:00063fe0       ?acquireNpCacheBlock@PxcNpMemBlockPool@physx@@QEAAPEAUPxcNpMemBlock@2@XZ 0000000180064fe0 f   LowLevel_static_64:PxcNpMemBlockPool.obj
 0001:00064010       ?allocate@?$PxArray@PEAUPxcNpMemBlock@physx@@V?$PxReflectionAllocator@PEAUPxcNpMemBlock@physx@@@2@@physx@@IEAAPEAPEAUPxcNpMemBlock@2@I@Z 0000000180065010 f i LowLevel_static_64:PxcNpMemBlockPool.obj
 0001:000640a0       ?getMaxUsedBlockCount@PxcNpMemBlockPool@physx@@QEBAIXZ 00000001800650a0 f   LowLevel_static_64:PxcNpMemBlockPool.obj
 0001:000640b0       ?getUsedBlockCount@PxcNpMemBlockPool@physx@@QEBAIXZ 00000001800650b0 f   LowLevel_static_64:PxcNpMemBlockPool.obj
 0001:000640c0       ?growAndPushBack@?$PxArray@PEAUPxcNpMemBlock@physx@@V?$PxReflectionAllocator@PEAUPxcNpMemBlock@physx@@@2@@physx@@IEAAAEAPEAUPxcNpMemBlock@2@AEBQEAU32@@Z 00000001800650c0 f i LowLevel_static_64:PxcNpMemBlockPool.obj
 0001:00064180       ?init@PxcNpMemBlockPool@physx@@QEAAXII@Z 0000000180065180 f   LowLevel_static_64:PxcNpMemBlockPool.obj
 0001:00064300       ?recreate@?$PxArray@PEAUPxcNpMemBlock@physx@@V?$PxReflectionAllocator@PEAUPxcNpMemBlock@physx@@@2@@physx@@IEAAXI@Z 0000000180065300 f i LowLevel_static_64:PxcNpMemBlockPool.obj
 0001:000643a0       ?release@PxcNpMemBlockPool@physx@@AEAAXAEAV?$PxArray@PEAUPxcNpMemBlock@physx@@V?$PxReflectionAllocator@PEAUPxcNpMemBlock@physx@@@2@@2@PEAI@Z 00000001800653a0 f   LowLevel_static_64:PxcNpMemBlockPool.obj
 0001:00064450       ?releaseConstraintBlocks@PxcNpMemBlockPool@physx@@QEAAXAEAV?$PxArray@PEAUPxcNpMemBlock@physx@@V?$PxReflectionAllocator@PEAUPxcNpMemBlock@physx@@@2@@2@@Z 0000000180065450 f   LowLevel_static_64:PxcNpMemBlockPool.obj
 0001:00064540       ?releaseConstraintMemory@PxcNpMemBlockPool@physx@@QEAAXXZ 0000000180065540 f   LowLevel_static_64:PxcNpMemBlockPool.obj
 0001:00064760       ?releaseContacts@PxcNpMemBlockPool@physx@@QEAAXXZ 0000000180065760 f   LowLevel_static_64:PxcNpMemBlockPool.obj
 0001:000647b0       ?releaseUnusedBlocks@PxcNpMemBlockPool@physx@@QEAAXXZ 00000001800657b0 f   LowLevel_static_64:PxcNpMemBlockPool.obj
 0001:00064830       ?resize@?$PxArray@PEAUPxcNpMemBlock@physx@@V?$PxReflectionAllocator@PEAUPxcNpMemBlock@physx@@@2@@physx@@QEAAXIAEBQEAUPxcNpMemBlock@2@@Z 0000000180065830 f i LowLevel_static_64:PxcNpMemBlockPool.obj
 0001:000648f0       ?setBlockCount@PxcNpMemBlockPool@physx@@QEAAXI@Z 00000001800658f0 f   LowLevel_static_64:PxcNpMemBlockPool.obj
 0001:000649b0       ?swapFrictionStreams@PxcNpMemBlockPool@physx@@QEAAXXZ 00000001800659b0 f   LowLevel_static_64:PxcNpMemBlockPool.obj
 0001:00064a00       ?swapNpCacheStreams@PxcNpMemBlockPool@physx@@QEAAXXZ 0000000180065a00 f   LowLevel_static_64:PxcNpMemBlockPool.obj
 0001:00064a50       ??$PxSort@PEAXU?$PxLess@PEAX@physx@@V?$PxReflectionAllocator@VLargePersistentContactManifold@Gu@physx@@@2@@physx@@YAXPEAPEAXIAEBU?$PxLess@PEAX@0@AEBV?$PxReflectionAllocator@VLargePersistentContactManifold@Gu@physx@@@0@I@Z 0000000180065a50 f i LowLevel_static_64:PxsContext.obj
 0001:00064eb0       ??$PxSort@PEAXU?$PxLess@PEAX@physx@@V?$PxReflectionAllocator@VSpherePersistentContactManifold@Gu@physx@@@2@@physx@@YAXPEAPEAXIAEBU?$PxLess@PEAX@0@AEBV?$PxReflectionAllocator@VSpherePersistentContactManifold@Gu@physx@@@0@I@Z 0000000180065eb0 f i LowLevel_static_64:PxsContext.obj
 0001:00065310       ??$combine1@UOR@?$PxBitMapBase@VPxAllocator@physx@@@physx@@@?$PxBitMapBase@VPxAllocator@physx@@@physx@@IEAAXPEBII@Z 0000000180066310 f i LowLevel_static_64:PxsContext.obj
 0001:00065480       ??0PxsContext@physx@@QEAA@AEBVPxSceneDesc@1@PEAVPxTaskManager@1@AEAVFlushPool@Cm@1@PEAVPxCudaContextManager@1@I_K@Z 0000000180066480 f   LowLevel_static_64:PxsContext.obj
 0001:00065930       ??1?$PxPoolBase@VLargePersistentContactManifold@Gu@physx@@V?$PxReflectionAllocator@VLargePersistentContactManifold@Gu@physx@@@3@@physx@@QEAA@XZ 0000000180066930 f i LowLevel_static_64:PxsContext.obj
 0001:00065a90       ??1?$PxPoolBase@VSpherePersistentContactManifold@Gu@physx@@V?$PxReflectionAllocator@VSpherePersistentContactManifold@Gu@physx@@@3@@physx@@QEAA@XZ 0000000180066a90 f i LowLevel_static_64:PxsContext.obj
 0001:00065bf0       ??1?$PxcThreadCoherentCache@VPxcNpThreadContext@physx@@UPxcNpContext@2@@physx@@QEAA@XZ 0000000180066bf0 f i LowLevel_static_64:PxsContext.obj
 0001:00065c80       ??1PxsContext@physx@@QEAA@XZ 0000000180066c80 f   LowLevel_static_64:PxsContext.obj
 0001:00065e40       ?allocate@?$PxArray@PEAXV?$PxReflectionAllocator@VLargePersistentContactManifold@Gu@physx@@@physx@@@physx@@IEAAPEAPEAXI@Z 0000000180066e40 f i LowLevel_static_64:PxsContext.obj
 0001:00065ed0       ?allocate@?$PxArray@PEAXV?$PxReflectionAllocator@VSpherePersistentContactManifold@Gu@physx@@@physx@@@physx@@IEAAPEAPEAXI@Z 0000000180066ed0 f i LowLevel_static_64:PxsContext.obj
 0001:00065f60       ?beginUpdate@PxsContext@physx@@QEAAXXZ 0000000180066f60 f   LowLevel_static_64:PxsContext.obj
 0001:00065f80       ?createCache@PxsContext@physx@@QEAAXAEAUCache@Gu@2@W4Enum@PxGeometryType@2@1@Z 0000000180066f80 f   LowLevel_static_64:PxsContext.obj
 0001:00066290       ?createContactManager@PxsContext@physx@@QEAAPEAVPxsContactManager@2@PEAV32@_N@Z 0000000180067290 f   LowLevel_static_64:PxsContext.obj
 0001:000663b0       ?createTransformCache@PxsContext@physx@@QEAAXAEAVPxVirtualAllocatorCallback@2@@Z 00000001800673b0 f   LowLevel_static_64:PxsContext.obj
 0001:00066470       ?destroy@?$PoolList@VPxsContactManager@physx@@VPxsContext@2@@Cm@physx@@QEAAXXZ 0000000180067470 f i LowLevel_static_64:PxsContext.obj
 0001:00066580       ?destroyCache@PxsContext@physx@@QEAAXAEAUCache@Gu@2@@Z 0000000180067580 f   LowLevel_static_64:PxsContext.obj
 0001:000665e0       ?destroyContactManager@PxsContext@physx@@QEAAXPEAVPxsContactManager@2@@Z 00000001800675e0 f   LowLevel_static_64:PxsContext.obj
 0001:000666e0       ?extend@?$PoolList@VPxsContactManager@physx@@VPxsContext@2@@Cm@physx@@QEAA_NXZ 00000001800676e0 f i LowLevel_static_64:PxsContext.obj
 0001:00066920       ?fetchUpdateContactManager@PxsContext@physx@@QEAAXXZ 0000000180067920 f   LowLevel_static_64:PxsContext.obj
 0001:00066ac0       ?fillManagerTouchEvents@PxsContext@physx@@QEAA_NPEAUPxvContactManagerTouchEvent@2@AEAH0101@Z 0000000180067ac0 f   LowLevel_static_64:PxsContext.obj
 0001:00066c20       ?getManagerTouchEventCount@PxsContext@physx@@QEBA_NPEAH00@Z 0000000180067c20 f   LowLevel_static_64:PxsContext.obj
 0001:00066c50       ?growAndPushBack@?$PxArray@PEAXV?$PxReflectionAllocator@VLargePersistentContactManifold@Gu@physx@@@physx@@@physx@@IEAAAEAPEAXAEBQEAX@Z 0000000180067c50 f i LowLevel_static_64:PxsContext.obj
 0001:00066d10       ?growAndPushBack@?$PxArray@PEAXV?$PxReflectionAllocator@VSpherePersistentContactManifold@Gu@physx@@@physx@@@physx@@IEAAAEAPEAXAEBQEAX@Z 0000000180067d10 f i LowLevel_static_64:PxsContext.obj
 0001:00066dd0       ?recreate@?$PxArray@PEAXV?$PxReflectionAllocator@VLargePersistentContactManifold@Gu@physx@@@physx@@@physx@@IEAAXI@Z 0000000180067dd0 f i LowLevel_static_64:PxsContext.obj
 0001:00066e70       ?recreate@?$PxArray@PEAXV?$PxReflectionAllocator@VSpherePersistentContactManifold@Gu@physx@@@physx@@@physx@@IEAAXI@Z 0000000180067e70 f i LowLevel_static_64:PxsContext.obj
 0001:00066f10       ?resetThreadContexts@PxsContext@physx@@QEAAXXZ 0000000180067f10 f   LowLevel_static_64:PxsContext.obj
 0001:00066f90       ?secondPassUpdateContactManager@PxsContext@physx@@QEAAXMPEAVPxBaseTask@2@@Z 0000000180067f90 f   LowLevel_static_64:PxsContext.obj
 0001:00066fa0       ?setScratchBlock@PxsContext@physx@@QEAAXPEAXI@Z 0000000180067fa0 f   LowLevel_static_64:PxsContext.obj
 0001:00067000       ?shiftOrigin@PxsContext@physx@@QEAAXAEBV?$PxVec3T@M@2@@Z 0000000180068000 f   LowLevel_static_64:PxsContext.obj
 0001:00067120       ?swapStreams@PxsContext@physx@@QEAAXXZ 0000000180068120 f   LowLevel_static_64:PxsContext.obj
 0001:00067130       ?updateContactManager@PxsContext@physx@@QEAAXM_N0PEAVPxBaseTask@2@1PEAVFanoutTask@Cm@2@@Z 0000000180068130 f   LowLevel_static_64:PxsContext.obj
 0001:00067410       ??0PxcNpThreadContext@physx@@QEAA@PEAUPxcNpContext@1@@Z 0000000180068410 f   LowLevel_static_64:PxcNpThreadContext.obj
 0001:000675a0       ??1PxcNpThreadContext@physx@@QEAA@XZ 00000001800685a0 f   LowLevel_static_64:PxcNpThreadContext.obj
 0001:00067620       ?clearStats@PxcNpThreadContext@physx@@QEAAXXZ 0000000180068620 f   LowLevel_static_64:PxcNpThreadContext.obj
 0001:00067670       ?reset@PxcNpThreadContext@physx@@QEAAXI@Z 0000000180068670 f   LowLevel_static_64:PxcNpThreadContext.obj
 0001:000677c0       ??0PxsContactManager@physx@@QEAA@PEAVPxsContext@1@I@Z 00000001800687c0 f   LowLevel_static_64:PxsContactManager.obj
 0001:000677f0       ?setCCD@PxsContactManager@physx@@QEAAX_N@Z 00000001800687f0 f   LowLevel_static_64:PxsContactManager.obj
 0001:00067810       ??0PxcNpCacheStreamPair@physx@@QEAA@AEAVPxcNpMemBlockPool@1@@Z 0000000180068810 f   LowLevel_static_64:PxcNpCacheStreamPair.obj
 0001:00067820       ?reserve@PxcNpCacheStreamPair@physx@@QEAAPEAEI@Z 0000000180068820 f   LowLevel_static_64:PxcNpCacheStreamPair.obj
 0001:000678b0       ?reset@PxcNpCacheStreamPair@physx@@QEAAXXZ 00000001800688b0 f   LowLevel_static_64:PxcNpCacheStreamPair.obj
 0001:000678c0       ??0BpFilter@Bp@physx@@QEAA@_N0@Z 00000001800688c0 f   LowLevelAABB_static_64:BpFiltering.obj
 0001:00067940       ?create@BroadPhase@Bp@physx@@SAPEAV123@W4Enum@PxBroadPhaseType@3@IIII_K@Z 0000000180068940 f   LowLevelAABB_static_64:BpBroadPhase.obj
 0001:00067b70       ??$PxSort@IU?$PxLess@I@physx@@V?$PxReflectionAllocator@I@2@@physx@@YAXPEAIIAEBU?$PxLess@I@0@AEBV?$PxReflectionAllocator@I@0@I@Z 0000000180068b70 f i LowLevelAABB_static_64:BpBroadPhaseSap.obj
 0001:00067fc0       ??0BroadPhaseSap@Bp@physx@@QEAA@III_K@Z 0000000180068fc0 f   LowLevelAABB_static_64:BpBroadPhaseSap.obj
 0001:000686a0       ??1BroadPhaseSap@Bp@physx@@UEAA@XZ 00000001800696a0 f   LowLevelAABB_static_64:BpBroadPhaseSap.obj
 0001:00068980       ??_EBroadPhaseBatchUpdateWorkTask@Bp@physx@@UEAAPEAXI@Z 0000000180069980 f i LowLevelAABB_static_64:BpBroadPhaseSap.obj
 0001:00068980       ??_EUpdateArticTask@Dy@physx@@UEAAPEAXI@Z 0000000180069980 f i LowLevelDynamics_static_64:DyTGSDynamics.obj
 0001:00068980       ??_GBroadPhaseBatchUpdateWorkTask@Bp@physx@@UEAAPEAXI@Z 0000000180069980 f i LowLevelAABB_static_64:BpBroadPhaseSap.obj
 0001:00068980       ??_GUpdateArticTask@Dy@physx@@UEAAPEAXI@Z 0000000180069980 f i LowLevelDynamics_static_64:DyTGSDynamics.obj
 0001:000689c0       ??_EBroadPhaseSap@Bp@physx@@UEAAPEAXI@Z 00000001800699c0 f i LowLevelAABB_static_64:BpBroadPhaseSap.obj
 0001:000689c0       ??_GBroadPhaseSap@Bp@physx@@UEAAPEAXI@Z 00000001800699c0 f i LowLevelAABB_static_64:BpBroadPhaseSap.obj
 0001:00068a30       ?ComputeSortedLists@BroadPhaseSap@Bp@physx@@AEAAXPEIAIAEAI01AEA_N2@Z 0000000180069a30 f   LowLevelAABB_static_64:BpBroadPhaseSap.obj
 0001:00068d30       ?addRegion@BroadPhaseBase@Bp@physx@@UEAAIAEBUPxBroadPhaseRegion@3@_NPEBVPxBounds3@3@PEBM@Z 0000000180069d30 f i LowLevelAABB_static_64:BpBroadPhaseSap.obj
 0001:00068d30       ?getArticulationRemapIndex@PxsSimulationController@physx@@UEAAII@Z 0000000180069d30 f i SimulationController_static_64:ScScene.obj
 0001:00068d30       ?getInternalShapeIndex@PxsSimulationController@physx@@UEAAIAEBUPxsShapeCore@2@@Z 0000000180069d30 f i SimulationController_static_64:ScScene.obj
 0001:00068d40       ?alloc@PxcScratchAllocator@physx@@QEAAPEAXI_N@Z 0000000180069d40 f i LowLevelAABB_static_64:BpBroadPhaseSap.obj
 0001:00068e20       ?batchCreate@BroadPhaseSap@Bp@physx@@AEAAXXZ 0000000180069e20 f   LowLevelAABB_static_64:BpBroadPhaseSap.obj
 0001:00069680       ?batchRemove@BroadPhaseSap@Bp@physx@@AEAAXXZ 000000018006a680 f   LowLevelAABB_static_64:BpBroadPhaseSap.obj
 0001:00069b70       ?batchUpdate@BroadPhaseSap@Bp@physx@@AEAAXIAEAPEAUBroadPhasePair@23@AEAI1@Z 000000018006ab70 f   LowLevelAABB_static_64:BpBroadPhaseSap.obj
 0001:0006a460       ?batchUpdateFewUpdates@BroadPhaseSap@Bp@physx@@AEAAXIAEAPEAUBroadPhasePair@23@AEAI1@Z 000000018006b460 f   LowLevelAABB_static_64:BpBroadPhaseSap.obj
 0001:0006b0c0       ?free@PxcScratchAllocator@physx@@QEAAXPEAX@Z 000000018006c0c0 f i LowLevelAABB_static_64:BpBroadPhaseSap.obj
 0001:0006b180       ?freeBuffers@BroadPhaseSap@Bp@physx@@UEAAXXZ 000000018006c180 f   LowLevelAABB_static_64:BpBroadPhaseSap.obj
 0001:0006b290       ?getCaps@BroadPhaseBase@Bp@physx@@UEBAXAEAUPxBroadPhaseCaps@3@@Z 000000018006c290 f i LowLevelAABB_static_64:BpBroadPhaseSap.obj
 0001:0006b2a0       ?getCreatedPairs@BroadPhaseSap@Bp@physx@@UEBAPEBUBroadPhasePair@23@AEAI@Z 000000018006c2a0 f i LowLevelAABB_static_64:BpBroadPhaseSap.obj
 0001:0006b2b0       ?getDeletedPairs@BroadPhaseSap@Bp@physx@@UEBAPEBUBroadPhasePair@23@AEAI@Z 000000018006c2b0 f i LowLevelAABB_static_64:BpBroadPhaseSap.obj
 0001:0006b2c0       ?getName@BroadPhaseBatchUpdateWorkTask@Bp@physx@@UEBAPEBDXZ 000000018006c2c0 f i LowLevelAABB_static_64:BpBroadPhaseSap.obj
 0001:0006b2d0       ?postUpdate@BroadPhaseSap@Bp@physx@@AEAAXXZ 000000018006c2d0 f   LowLevelAABB_static_64:BpBroadPhaseSap.obj
 0001:0006b450       ?destroy@PxsNphaseImplementationContext@physx@@UEAAXXZ 000000018006c450 f   LowLevel_static_64:PxsNphaseImplementationContext.obj
 0001:0006b450       ?release@BroadPhaseSap@Bp@physx@@UEAAXXZ 000000018006c450 f   LowLevelAABB_static_64:BpBroadPhaseSap.obj
 0001:0006b480       ?runInternal@BroadPhaseBatchUpdateWorkTask@Bp@physx@@UEAAXXZ 000000018006c480 f   LowLevelAABB_static_64:BpBroadPhaseSap.obj
 0001:0006b4b0       ?setUpdateData@BroadPhaseSap@Bp@physx@@AEAA_NAEBVBroadPhaseUpdateData@23@@Z 000000018006c4b0 f   LowLevelAABB_static_64:BpBroadPhaseSap.obj
 0001:0006bea0       ?shiftOrigin@BroadPhaseSap@Bp@physx@@UEAAXAEBV?$PxVec3T@M@3@PEBVPxBounds3@3@PEBM@Z 000000018006cea0 f   LowLevelAABB_static_64:BpBroadPhaseSap.obj
 0001:0006c2c0       ?update@BroadPhaseSap@Bp@physx@@UEAAXPEAVPxcScratchAllocator@3@AEBVBroadPhaseUpdateData@23@PEAVPxBaseTask@3@@Z 000000018006d2c0 f   LowLevelAABB_static_64:BpBroadPhaseSap.obj
 0001:0006c420       ??$?_UV?$PxReflectionAllocator@USIMD_AABB@Bp@physx@@@physx@@@PxUserAllocated@physx@@SAPEAX_KV?$PxReflectionAllocator@USIMD_AABB@Bp@physx@@@1@PEBDH@Z 000000018006d420 f i LowLevelAABB_static_64:BpBroadPhaseMBP.obj
 0001:0006c4c0       ??0BroadPhaseMBP@Bp@physx@@QEAA@IIII_K@Z 000000018006d4c0 f   LowLevelAABB_static_64:BpBroadPhaseMBP.obj
 0001:0006c750       ??1MBP@internalMBP@@QEAA@XZ 000000018006d750 f   LowLevelAABB_static_64:BpBroadPhaseMBP.obj
 0001:0006c900       ??1MBPOS_TmpBuffers@internalMBP@@QEAA@XZ 000000018006d900 f   LowLevelAABB_static_64:BpBroadPhaseMBP.obj
 0001:0006c9c0       ??_EBroadPhaseMBP@Bp@physx@@UEAAPEAXI@Z 000000018006d9c0 f i LowLevelAABB_static_64:BpBroadPhaseMBP.obj
 0001:0006c9c0       ??_GBroadPhaseMBP@Bp@physx@@UEAAPEAXI@Z 000000018006d9c0 f i LowLevelAABB_static_64:BpBroadPhaseMBP.obj
 0001:0006caf0       ??_GRegion@internalMBP@@QEAAPEAXI@Z 000000018006daf0 f i LowLevelAABB_static_64:BpBroadPhaseMBP.obj
 0001:0006cc90       ?addObject@MBP@internalMBP@@QEAAIAEBUSIMD_AABB@Bp@physx@@I_N@Z 000000018006dc90 f   LowLevelAABB_static_64:BpBroadPhaseMBP.obj
 0001:0006d050       ?addObject@Region@internalMBP@@QEAAGAEBUSIMD_AABB@Bp@physx@@I_N@Z 000000018006e050 f   LowLevelAABB_static_64:BpBroadPhaseMBP.obj
 0001:0006d480       ?addPair@MBP_PairManager@internalMBP@@QEAAPEAUInternalPair@Bp@physx@@II@Z 000000018006e480 f   LowLevelAABB_static_64:BpBroadPhaseMBP.obj
 0001:0006d620       ?addRegion@BroadPhaseMBP@Bp@physx@@UEAAIAEBUPxBroadPhaseRegion@3@_NPEBVPxBounds3@3@PEBM@Z 000000018006e620 f   LowLevelAABB_static_64:BpBroadPhaseMBP.obj
 0001:0006d630       ?addRegion@MBP@internalMBP@@QEAAIAEBUPxBroadPhaseRegion@physx@@_NPEBVPxBounds3@4@PEBM@Z 000000018006e630 f   LowLevelAABB_static_64:BpBroadPhaseMBP.obj
 0001:0006d930       ?allocate@?$PxArray@UBroadPhasePair@Bp@physx@@V?$PxReflectionAllocator@UBroadPhasePair@Bp@physx@@@3@@physx@@IEAAPEAUBroadPhasePair@Bp@2@I@Z 000000018006e930 f i LowLevelAABB_static_64:BpBroadPhaseMBP.obj
 0001:0006d9c0       ?allocateMappingArray@BroadPhaseMBP@Bp@physx@@QEAAXI@Z 000000018006e9c0 f   LowLevelAABB_static_64:BpBroadPhaseMBP.obj
 0001:0006da90       ?computeCreatedDeletedPairs@MBP_PairManager@internalMBP@@QEAA_NPEBUMBP_Object@2@PEAVBroadPhaseMBP@Bp@physx@@AEBVBitArray@2@2@Z 000000018006ea90 f   LowLevelAABB_static_64:BpBroadPhaseMBP.obj
 0001:0006e3c0       ?freeBuffers@BroadPhaseMBP@Bp@physx@@UEAAXXZ 000000018006f3c0 f   LowLevelAABB_static_64:BpBroadPhaseMBP.obj
 0001:0006e430       ?getCaps@BroadPhaseMBP@Bp@physx@@UEBAXAEAUPxBroadPhaseCaps@3@@Z 000000018006f430 f   LowLevelAABB_static_64:BpBroadPhaseMBP.obj
 0001:0006e440       ?getCreatedPairs@BroadPhaseMBP@Bp@physx@@UEBAPEBUBroadPhasePair@23@AEAI@Z 000000018006f440 f   LowLevelAABB_static_64:BpBroadPhaseMBP.obj
 0001:0006e450       ?getDeletedPairs@BroadPhaseMBP@Bp@physx@@UEBAPEBUBroadPhasePair@23@AEAI@Z 000000018006f450 f   LowLevelAABB_static_64:BpBroadPhaseMBP.obj
 0001:0006e460       ?getNbOutOfBoundsObjects@BroadPhaseMBP@Bp@physx@@UEBAIXZ 000000018006f460 f   LowLevelAABB_static_64:BpBroadPhaseMBP.obj
 0001:0006e470       ?getNbRegions@BroadPhaseMBP@Bp@physx@@UEBAIXZ 000000018006f470 f   LowLevelAABB_static_64:BpBroadPhaseMBP.obj
 0001:0006e480       ?getOutOfBoundsObjects@BroadPhaseMBP@Bp@physx@@UEBAPEBIXZ 000000018006f480 f   LowLevelAABB_static_64:BpBroadPhaseMBP.obj
 0001:0006e490       ?getRegions@BroadPhaseMBP@Bp@physx@@UEBAIPEAUPxBroadPhaseRegionInfo@3@II@Z 000000018006f490 f   LowLevelAABB_static_64:BpBroadPhaseMBP.obj
 0001:0006e610       ?growAndPushBack@?$PxArray@UBroadPhasePair@Bp@physx@@V?$PxReflectionAllocator@UBroadPhasePair@Bp@physx@@@3@@physx@@IEAAAEAUBroadPhasePair@Bp@2@AEBU342@@Z 000000018006f610 f i LowLevelAABB_static_64:BpBroadPhaseMBP.obj
 0001:0006e6d0       ?init@BitArray@internalMBP@@QEAA_NI@Z 000000018006f6d0 f   LowLevelAABB_static_64:BpBroadPhaseMBP.obj
 0001:0006e780       ?populateNewRegion@MBP@internalMBP@@QEAAXAEBUSIMD_AABB@Bp@physx@@PEAVRegion@2@IPEBVPxBounds3@5@PEBM@Z 000000018006f780 f   LowLevelAABB_static_64:BpBroadPhaseMBP.obj
 0001:0006eaa0       ?preparePruning@Region@internalMBP@@QEAAXAEAUMBPOS_TmpBuffers@2@@Z 000000018006faa0 f   LowLevelAABB_static_64:BpBroadPhaseMBP.obj
 0001:0006ef60       ?recreate@?$PxArray@UBroadPhasePair@Bp@physx@@V?$PxReflectionAllocator@UBroadPhasePair@Bp@physx@@@3@@physx@@IEAAXI@Z 000000018006ff60 f i LowLevelAABB_static_64:BpBroadPhaseMBP.obj
