 PhysXCommon_64

 Timestamp is 64be004b (Mon Jul 24 10:08:35 2023)

 Preferred load address is 0000000180000000

 Start         Length     Name                   Class
 0001:00000000 000034d0H .text$di                CODE
 0001:000034d0 001d1330H .text$mn                CODE
 0001:001d4800 00000040H .text$mn$00             CODE
 0001:001d4840 00000680H .text$x                 CODE
 0001:001d4ec0 0000000fH .text$yd                CODE
 0002:00000000 00000288H .idata$5                DATA
 0002:00000288 00000038H .00cfg                  DATA
 0002:000002c0 00000008H .CRT$XCA                DATA
 0002:000002c8 000019a0H .CRT$XCU                DATA
 0002:00001c68 00000008H .CRT$XCZ                DATA
 0002:00001c70 00000008H .CRT$XIA                DATA
 0002:00001c78 00000018H .CRT$XIC                DATA
 0002:00001c90 00000008H .CRT$XIZ                DATA
 0002:00001c98 00000008H .CRT$XPA                DATA
 0002:00001ca0 00000010H .CRT$XPX                DATA
 0002:00001cb0 00000008H .CRT$XPXA               DATA
 0002:00001cb8 00000008H .CRT$XPZ                DATA
 0002:00001cc0 00000008H .CRT$XTA                DATA
 0002:00001cc8 00000008H .CRT$XTZ                DATA
 0002:00001cd0 00000000H .gehcont$y              DATA
 0002:00001cd0 00000000H .gfids$y                DATA
 0002:00001cd0 00012930H .rdata                  DATA
 0002:00014600 00000000H .rdata$CastGuardVftablesA DATA
 0002:00014600 00000000H .rdata$CastGuardVftablesC DATA
 0002:00014600 0000043cH .rdata$r                DATA
 0002:00014a3c 0000022cH .rdata$voltmd           DATA
 0002:00014c68 00000438H .rdata$zzzdbg           DATA
 0002:000150a0 00000008H .rtc$IAA                DATA
 0002:000150a8 00000008H .rtc$IZZ                DATA
 0002:000150b0 00000008H .rtc$TAA                DATA
 0002:000150b8 00000008H .rtc$TZZ                DATA
 0002:000150c0 00014cd0H .xdata                  DATA
 0002:00029d90 00000084H .xdata$x                DATA
 0002:00029e14 00000020H .didat$2                DATA
 0002:00029e34 00000024H .didat$3                DATA
 0002:00029e58 000000c8H .didat$4                DATA
 0002:00029f20 00000410H .didat$6                DATA
 0002:0002a330 000000d0H .didat$7                DATA
 0002:0002a400 0000c3a4H .edata                  DATA
 0002:000367a4 00000014H .idata$2                DATA
 0002:000367b8 00000018H .idata$3                DATA
 0002:000367d0 00000288H .idata$4                DATA
 0002:00036a58 000005caH .idata$6                DATA
 0003:00000000 00001c40H .data                   DATA
 0003:00001c40 00001158H .data$r                 DATA
 0003:00002d98 000000f0H .data$rs                DATA
 0003:00002e88 000000c8H .didat$5                DATA
 0003:00002f50 000045bcH .bss                    DATA
 0004:00000000 0000c498H .pdata                  DATA
 0005:00000000 0000236cH _RDATA                  DATA
 0006:00000000 000000a0H .rsrc$01                DATA
 0006:000000a0 000004b0H .rsrc$02                DATA

  Address         Publics by Value              Rva+Base               Lib:Object

 0000:00000000       __AbsoluteZero             0000000000000000     <absolute>
 0000:00000000       ___safe_se_handler_count   0000000000000000     <absolute>
 0000:00000000       ___safe_se_handler_table   0000000000000000     <absolute>
 0000:00000000       __arm64x_extra_rfe_table   0000000000000000     <absolute>
 0000:00000000       __arm64x_extra_rfe_table_size 0000000000000000     <absolute>
 0000:00000000       __arm64x_native_entrypoint 0000000000000000     <absolute>
 0000:00000000       __arm64x_redirection_metadata 0000000000000000     <absolute>
 0000:00000000       __arm64x_redirection_metadata_count 0000000000000000     <absolute>
 0000:00000000       __dynamic_value_reloc_table 0000000000000000     <absolute>
 0000:00000000       __enclave_config           0000000000000000     <absolute>
 0000:00000000       __guard_check_icall_a64n_fptr 0000000000000000     <absolute>
 0000:00000000       __guard_eh_cont_count      0000000000000000     <absolute>
 0000:00000000       __guard_eh_cont_table      0000000000000000     <absolute>
 0000:00000000       __guard_fids_count         0000000000000000     <absolute>
 0000:00000000       __guard_fids_table         0000000000000000     <absolute>
 0000:00000000       __guard_iat_count          0000000000000000     <absolute>
 0000:00000000       __guard_iat_table          0000000000000000     <absolute>
 0000:00000000       __guard_longjmp_count      0000000000000000     <absolute>
 0000:00000000       __guard_longjmp_table      0000000000000000     <absolute>
 0000:00000000       __hybrid_auxiliary_delayload_iat 0000000000000000     <absolute>
 0000:00000000       __hybrid_auxiliary_delayload_iat_copy 0000000000000000     <absolute>
 0000:00000000       __hybrid_auxiliary_iat     0000000000000000     <absolute>
 0000:00000000       __hybrid_auxiliary_iat_copy 0000000000000000     <absolute>
 0000:00000000       __hybrid_code_map          0000000000000000     <absolute>
 0000:00000000       __hybrid_code_map_count    0000000000000000     <absolute>
 0000:00000000       __x64_code_ranges_to_entry_points 0000000000000000     <absolute>
 0000:00000000       __x64_code_ranges_to_entry_points_count 0000000000000000     <absolute>
 0000:00000100       __guard_flags              0000000000000100     <absolute>
 0000:00000000       __ImageBase                0000000180000000     <linker-defined>
 0001:000034d0       ??0PtrTable@Cm@physx@@QEAA@W4PxEMPTY@2@@Z 00000001800044d0 f i CmPtrTable.obj
 0001:000034f0       ??0PtrTable@Cm@physx@@QEAA@XZ 00000001800044f0 f   CmPtrTable.obj
 0001:00003500       ??1AABBTreeBuildNode@Gu@physx@@QEAA@XZ 0000000180004500 f   GuMeshFactory.obj
 0001:00003500       ??1BigConvexDataBuilder@physx@@QEAA@XZ 0000000180004500 f   GuCookingBigConvexDataBuilder.obj
 0001:00003500       ??1Box@Gu@physx@@QEAA@XZ   0000000180004500 f   GuBox.obj
 0001:00003500       ??1HeightFieldData@Gu@physx@@QEAA@XZ 0000000180004500 f   GuCCTSweepTests.obj
 0001:00003500       ??1PtrTable@Cm@physx@@QEAA@XZ 0000000180004500 f   CmPtrTable.obj
 0001:00003500       ?build@CompanionPrunerIncremental@@UEAAXXZ 0000000180004500 f   GuSecondaryPruner.obj
 0001:00003500       ?checkTreeLeaf@IncrementalAABBTree@Gu@physx@@QEAAXPEAVIncrementalAABBTreeNode@23@I@Z 0000000180004500 f   GuIncrementalAABBTree.obj
 0001:00003500       ?execute@?$PxThreadT@V?$PxReflectionAllocator@VPxThreadImpl@physx@@@physx@@@physx@@UEAAXXZ 0000000180004500 f   GuSDF.obj
 0001:00003500       ?execute@PxRunnable@physx@@UEAAXXZ 0000000180004500 f   GuSDF.obj
 0001:00003500       ?merge@BucketPruner@Gu@physx@@UEAAXPEBX@Z 0000000180004500 f   GuBucketPruner.obj
 0001:00003500       ?merge@IncrementalAABBPruner@Gu@physx@@UEAAXPEBX@Z 0000000180004500 f   GuIncrementalAABBPruner.obj
 0001:00003500       ?onMeshIndexFormatChange@TriangleMeshBuilder@physx@@UEAAXXZ 0000000180004500 f   GuCookingTriangleMesh.obj
 0001:00003500       ?profile@Callback@RTree@Gu@physx@@UEAAXXZ 0000000180004500 f   GuMidphaseRTree.obj
 0001:00003500       ?purge@BucketPruner@Gu@physx@@UEAAXXZ 0000000180004500 f   GuBucketPruner.obj
 0001:00003500       ?requiresObjects@ConvexMesh@Gu@physx@@UEAAXAEAVPxProcessPxBaseCallback@3@@Z 0000000180004500 f   GuConvexMesh.obj
 0001:00003500       ?requiresObjects@HeightField@Gu@physx@@UEAAXAEAVPxProcessPxBaseCallback@3@@Z 0000000180004500 f   GuHeightField.obj
 0001:00003500       ?requiresObjects@SoftBodyMesh@Gu@physx@@UEAAXAEAVPxProcessPxBaseCallback@3@@Z 0000000180004500 f   GuTetrahedronMesh.obj
 0001:00003500       ?requiresObjects@TriangleMesh@Gu@physx@@UEAAXAEAVPxProcessPxBaseCallback@3@@Z 0000000180004500 f   GuTriangleMesh.obj
 0001:00003500       ?swapIndex@CompanionPrunerAABBTree@@UEAAXII@Z 0000000180004500 f   GuSecondaryPruner.obj
 0001:00003500       ?swapIndex@CompanionPrunerBucket@@UEAAXII@Z 0000000180004500 f   GuSecondaryPruner.obj
 0001:00003500       ?timeStampChange@CompanionPrunerAABBTree@@UEAAXXZ 0000000180004500 f   GuSecondaryPruner.obj
 0001:00003500       ?timeStampChange@CompanionPrunerBucket@@UEAAXXZ 0000000180004500 f   GuSecondaryPruner.obj
 0001:00003500       ?visualize@BasePruner@Gu@physx@@UEBAXAEAVPxRenderOutput@3@II@Z 0000000180004500 f   GuIncrementalAABBPruner.obj
 0001:00003500       _guard_check_icall_nop     0000000180004500 f   LIBCMT:guard_support.obj
 0001:00003510       ??4AABBTreeBounds@Gu@physx@@QEAAAEAV012@AEBV012@@Z 0000000180004510 f i GuMeshFactory.obj
 0001:00003510       ??4CmModuleUpdateLoader@Cm@physx@@QEAAAEAV012@AEBV012@@Z 0000000180004510 f i CmWindowsModuleUpdateLoader.obj
 0001:00003510       ??4PtrTable@Cm@physx@@QEAAAEAU012@AEBU012@@Z 0000000180004510 f i CmPtrTable.obj
 0001:00003520       ?add@PtrTable@Cm@physx@@QEAAXPEAXAEAVPtrTableStorageManager@23@@Z 0000000180004520 f   CmPtrTable.obj
 0001:00003630       ?clear@PtrTable@Cm@physx@@QEAAXAEAVPtrTableStorageManager@23@@Z 0000000180004630 f   CmPtrTable.obj
 0001:000036a0       ?exportExtraData@PtrTable@Cm@physx@@QEAAXAEAVPxSerializationContext@3@@Z 00000001800046a0 f   CmPtrTable.obj
 0001:000036f0       ?find@PtrTable@Cm@physx@@QEBAIPEBX@Z 00000001800046f0 f   CmPtrTable.obj
 0001:00003720       ?getBinaryMetaData@PtrTable@Cm@physx@@SAXAEAVPxOutputStream@3@@Z 0000000180004720 f   CmPtrTable.obj
 0001:00003910       ?getCount@PtrTable@Cm@physx@@QEBAIXZ 0000000180004910 f i CmPtrTable.obj
 0001:00003920       ?getPtrs@PtrTable@Cm@physx@@QEAAPEAPEAXXZ 0000000180004920 f i CmPtrTable.obj
 0001:00003920       ?getPtrs@PtrTable@Cm@physx@@QEBAPEBQEAXXZ 0000000180004920 f i CmPtrTable.obj
 0001:00003930       ?importExtraData@PtrTable@Cm@physx@@QEAAXAEAVPxDeserializationContext@3@@Z 0000000180004930 f   CmPtrTable.obj
 0001:00003960       ?realloc@PtrTable@Cm@physx@@AEAAXIIAEAVPtrTableStorageManager@23@@Z 0000000180004960 f   CmPtrTable.obj
 0001:000039f0       ?replaceWithLast@PtrTable@Cm@physx@@QEAAXIAEAVPtrTableStorageManager@23@@Z 00000001800049f0 f   CmPtrTable.obj
 0001:00003af0       ??_ECollection@Cm@physx@@UEAAPEAXI@Z 0000000180004af0 f i CmCollection.obj
 0001:00003af0       ??_GCollection@Cm@physx@@UEAAPEAXI@Z 0000000180004af0 f i CmCollection.obj
 0001:00003ba0       ??_EPxCollection@physx@@MEAAPEAXI@Z 0000000180004ba0 f i CmCollection.obj
 0001:00003ba0       ??_GPxCollection@physx@@MEAAPEAXI@Z 0000000180004ba0 f i CmCollection.obj
 0001:00003bd0       ?add@Collection@Cm@physx@@UEAAXAEAVPxBase@3@_K@Z 0000000180004bd0 f   CmCollection.obj
 0001:00003cc0       ?add@Collection@Cm@physx@@UEAAXAEAVPxCollection@3@@Z 0000000180004cc0 f   CmCollection.obj
 0001:00003ee0       ?addId@Collection@Cm@physx@@UEAAXAEAVPxBase@3@_K@Z 0000000180004ee0 f   CmCollection.obj
 0001:00004020       ?contains@Collection@Cm@physx@@UEBA_NAEAVPxBase@3@@Z 0000000180005020 f   CmCollection.obj
 0001:000040d0       ?create@?$PxHashBase@V?$PxPair@$$CB_KPEAVPxBase@physx@@@physx@@_KU?$PxHash@_K@2@UGetKey@?$PxHashMapBase@_KPEAVPxBase@physx@@U?$PxHash@_K@2@VPxAllocator@2@@2@VPxAllocator@2@$00@physx@@QEAAPEAV?$PxPair@$$CB_KPEAVPxBase@physx@@@2@AEB_KAEA_N@Z 00000001800050d0 f i CmCollection.obj
 0001:000040d0       ?create@?$PxHashBase@V?$PxPair@QEAVPxBase@physx@@_K@physx@@PEAVPxBase@2@U?$PxHash@PEAVPxBase@physx@@@2@UGetKey@?$PxHashMapBase@PEAVPxBase@physx@@_KU?$PxHash@PEAVPxBase@physx@@@2@VPxAllocator@2@@2@VPxAllocator@2@$00@physx@@QEAAPEAV?$PxPair@QEAVPxBase@physx@@_K@2@AEBQEAVPxBase@2@AEA_N@Z 00000001800050d0 f i CmCollection.obj
 0001:00004260       ?erase@?$PxHashBase@V?$PxPair@$$CB_KPEAVPxBase@physx@@@physx@@_KU?$PxHash@_K@2@UGetKey@?$PxHashMapBase@_KPEAVPxBase@physx@@U?$PxHash@_K@2@VPxAllocator@2@@2@VPxAllocator@2@$00@physx@@QEAA_NAEB_K@Z 0000000180005260 f i CmCollection.obj
 0001:00004260       ?erase@?$PxHashBase@V?$PxPair@QEAVPxBase@physx@@_K@physx@@PEAVPxBase@2@U?$PxHash@PEAVPxBase@physx@@@2@UGetKey@?$PxHashMapBase@PEAVPxBase@physx@@_KU?$PxHash@PEAVPxBase@physx@@@2@VPxAllocator@2@@2@VPxAllocator@2@$00@physx@@QEAA_NAEBQEAVPxBase@2@@Z 0000000180005260 f i CmCollection.obj
 0001:00004410       ?find@?$PxHashMapBase@PEAVPxBase@physx@@_KU?$PxHash@PEAVPxBase@physx@@@2@VPxAllocator@2@@physx@@QEBAPEBV?$PxPair@QEAVPxBase@physx@@_K@2@AEBQEAVPxBase@2@@Z 0000000180005410 f i CmCollection.obj
 0001:00004410       ?find@?$PxHashMapBase@_KPEAVPxBase@physx@@U?$PxHash@_K@2@VPxAllocator@2@@physx@@QEBAPEBV?$PxPair@$$CB_KPEAVPxBase@physx@@@2@AEB_K@Z 0000000180005410 f i CmCollection.obj
 0001:000044b0       ?find@Collection@Cm@physx@@UEBAPEAVPxBase@3@_K@Z 00000001800054b0 f   CmCollection.obj
 0001:00004510       ?getId@Collection@Cm@physx@@UEBA_KAEBVPxBase@3@@Z 0000000180005510 f   CmCollection.obj
 0001:000045c0       ?getIds@Collection@Cm@physx@@UEBAIPEA_KII@Z 00000001800055c0 f   CmCollection.obj
 0001:000046e0       ?getNbIds@Collection@Cm@physx@@UEBAIXZ 00000001800056e0 f   CmCollection.obj
 0001:000046f0       ?getNbObjects@Collection@Cm@physx@@UEBAIXZ 00000001800056f0 f   CmCollection.obj
 0001:00004700       ?getObject@Collection@Cm@physx@@UEBAAEAVPxBase@3@I@Z 0000000180005700 f   CmCollection.obj
 0001:00004710       ?getObjects@Collection@Cm@physx@@UEBAIPEAPEAVPxBase@3@II@Z 0000000180005710 f   CmCollection.obj
 0001:000047b0       ?insert@?$PxHashMapBase@_KPEAVPxBase@physx@@U?$PxHash@_K@2@VPxAllocator@2@@physx@@QEAA_N_KQEAVPxBase@2@@Z 00000001800057b0 f i CmCollection.obj
 0001:00004800       ?release@Collection@Cm@physx@@UEAAXXZ 0000000180005800 f i CmCollection.obj
 0001:00004820       ?remove@Collection@Cm@physx@@UEAAXAEAVPxBase@3@@Z 0000000180005820 f   CmCollection.obj
 0001:00004960       ?remove@Collection@Cm@physx@@UEAAXAEAVPxCollection@3@@Z 0000000180005960 f   CmCollection.obj
 0001:00004ac0       ?removeId@Collection@Cm@physx@@UEAAX_K@Z 0000000180005ac0 f   CmCollection.obj
 0001:00004bb0       ?reserveInternal@?$PxHashBase@V?$PxPair@$$CB_KPEAVPxBase@physx@@@physx@@_KU?$PxHash@_K@2@UGetKey@?$PxHashMapBase@_KPEAVPxBase@physx@@U?$PxHash@_K@2@VPxAllocator@2@@2@VPxAllocator@2@$00@physx@@AEAAXI@Z 0000000180005bb0 f i CmCollection.obj
 0001:00004bb0       ?reserveInternal@?$PxHashBase@V?$PxPair@QEAVPxBase@physx@@_K@physx@@PEAVPxBase@2@U?$PxHash@PEAVPxBase@physx@@@2@UGetKey@?$PxHashMapBase@PEAVPxBase@physx@@_KU?$PxHash@PEAVPxBase@physx@@@2@VPxAllocator@2@@2@VPxAllocator@2@$00@physx@@AEAAXI@Z 0000000180005bb0 f i CmCollection.obj
 0001:00004d90       PxCreateCollection         0000000180005d90 f   CmCollection.obj
 0001:00004e80       ??0RadixSort@Cm@physx@@QEAA@XZ 0000000180005e80 f   CmRadixSort.obj
 0001:00004eb0       ??0RadixSortBuffered@Cm@physx@@QEAA@XZ 0000000180005eb0 f   CmRadixSort.obj
 0001:00004ee0       ??1RadixSort@Cm@physx@@UEAA@XZ 0000000180005ee0 f   CmRadixSort.obj
 0001:00004ef0       ??1RadixSortBuffered@Cm@physx@@UEAA@XZ 0000000180005ef0 f   CmRadixSort.obj
 0001:00004f20       ??_ERadixSort@Cm@physx@@UEAAPEAXI@Z 0000000180005f20 f i CmRadixSort.obj
 0001:00004fb0       ??_ERadixSortBuffered@Cm@physx@@UEAAPEAXI@Z 0000000180005fb0 f i CmRadixSort.obj
 0001:000050a0       ?CheckResize@RadixSortBuffered@Cm@physx@@AEAAXI@Z 00000001800060a0 f i CmRadixSort.obj
 0001:000050e0       ?GetNbHits@RadixSort@Cm@physx@@QEBAIXZ 00000001800060e0 f i CmRadixSort.obj
 0001:000050f0       ?GetNbTotalCalls@RadixSort@Cm@physx@@QEBAIXZ 00000001800060f0 f i CmRadixSort.obj
 0001:00005100       ?GetRanks@RadixSort@Cm@physx@@QEBAPEBIXZ 0000000180006100 f i CmRadixSort.obj
 0001:00005100       ?getGridModelInvMass@SoftBodyAuxData@Gu@physx@@UEAAPEAMXZ 0000000180006100 f i GuTetrahedronMesh.obj
 0001:00005100       ?getHeightField@HeightFieldUtil@Gu@physx@@QEBAAEBVHeightField@23@XZ 0000000180006100 f i GuCCTSweepTests.obj
 0001:00005100       ?getSimulationMesh@SoftBodyMesh@Gu@physx@@UEAAPEAVPxTetrahedronMesh@3@XZ 0000000180006100 f i GuTetrahedronMesh.obj
 0001:00005100       ?getSimulationMesh@SoftBodyMesh@Gu@physx@@UEBAPEBVPxTetrahedronMesh@3@XZ 0000000180006100 f i GuTetrahedronMesh.obj
 0001:00005110       ?GetRecyclable@RadixSort@Cm@physx@@QEBAPEAIXZ 0000000180006110 f i CmRadixSort.obj
 0001:00005110       ?GetValencies@BigConvexData@physx@@QEBAPEBUValency@Gu@2@XZ 0000000180006110 f i GuMetaData.obj
 0001:00005110       ?getCollisionMesh@SoftBodyMesh@Gu@physx@@UEAAPEAVPxTetrahedronMesh@3@XZ 0000000180006110 f i GuTetrahedronMesh.obj
 0001:00005110       ?getCollisionMesh@SoftBodyMesh@Gu@physx@@UEBAPEBVPxTetrahedronMesh@3@XZ 0000000180006110 f i GuTetrahedronMesh.obj
 0001:00005110       ?getHeightFieldGeometry@HeightFieldUtil@Gu@physx@@QEBAAEBVPxHeightFieldGeometry@3@XZ 0000000180006110 f i GuCCTSweepTests.obj
 0001:00005110       ?getObjects@PruningPool@Gu@physx@@QEBAPEAUPrunerPayload@23@XZ 0000000180006110 f i GuIncrementalAABBPrunerCore.obj
 0001:00005110       ?getPos@AABBTreeBuildNode@Gu@physx@@QEBAPEBV123@XZ 0000000180006110 f i GuMeshFactory.obj
 0001:00005110       ?getVertices@TetrahedronMesh@Gu@physx@@UEBAPEBV?$PxVec3T@M@3@XZ 0000000180006110 f i GuTetrahedronMesh.obj
 0001:00005110       ?getVertices@TriangleMesh@Gu@physx@@UEBAPEBV?$PxVec3T@M@3@XZ 0000000180006110 f i GuTriangleMesh.obj
 0001:00005120       ?Resize@RadixSortBuffered@Cm@physx@@AEAA_NI@Z 0000000180006120 f   CmRadixSort.obj
 0001:00005220       ?SetBuffers@RadixSort@Cm@physx@@QEAA_NPEAI00PEAPEAI@Z 0000000180006220 f   CmRadixSort.obj
 0001:00005260       ?Sort@RadixSort@Cm@physx@@QEAAAEAV123@PEBIIW4RadixHint@23@@Z 0000000180006260 f   CmRadixSort.obj
 0001:00005910       ?Sort@RadixSort@Cm@physx@@QEAAAEAV123@PEBMI@Z 0000000180006910 f   CmRadixSort.obj
 0001:000060b0       ?Sort@RadixSortBuffered@Cm@physx@@QEAAAEAV123@PEBIIW4RadixHint@23@@Z 00000001800070b0 f   CmRadixSort.obj
 0001:00006150       ?Sort@RadixSortBuffered@Cm@physx@@QEAAAEAV123@PEBMI@Z 0000000180007150 f   CmRadixSort.obj
 0001:000061e0       ?invalidateRanks@RadixSort@Cm@physx@@QEAAXXZ 00000001800071e0 f i CmRadixSort.obj
 0001:000061f0       ?reset@RadixSortBuffered@Cm@physx@@QEAAXXZ 00000001800071f0 f   CmRadixSort.obj
 0001:00006270       ?ReadHeader@Cm@physx@@YA_NEEEEAEAIAEA_NAEAVPxInputStream@2@@Z 0000000180007270 f   CmSerialize.obj
 0001:000063d0       ?ReadIndices@Cm@physx@@YAXGIPEAGAEAVPxInputStream@2@_N@Z 00000001800073d0 f   CmSerialize.obj
 0001:00006560       ?StoreIndices@Cm@physx@@YAXGIPEBGAEAVPxOutputStream@2@_N@Z 0000000180007560 f   CmSerialize.obj
 0001:00006650       ?WriteHeader@Cm@physx@@YA_NEEEEI_NAEAVPxOutputStream@2@@Z 0000000180007650 f   CmSerialize.obj
 0001:00006780       ?computeMaxIndex@physx@@YAGPEBGI@Z 0000000180007780 f   CmSerialize.obj
 0001:000067b0       ?computeMaxIndex@physx@@YAIPEBII@Z 00000001800077b0 f   CmSerialize.obj
 0001:000067e0       ?readByteBuffer@physx@@YAXPEAEIAEAVPxInputStream@1@@Z 00000001800077e0 f   CmSerialize.obj
 0001:000067e0       ?writeByteBuffer@physx@@YAXPEBEIAEAVPxOutputStream@1@@Z 00000001800077e0 f   CmSerialize.obj
 0001:00006800       ?readChunk@physx@@YAXAEAC000AEAVPxInputStream@1@@Z 0000000180007800 f   CmSerialize.obj
 0001:00006880       ?readDword@physx@@YAI_NAEAVPxInputStream@1@@Z 0000000180007880 f   CmSerialize.obj
 0001:000068e0       ?readFloat@physx@@YAM_NAEAVPxInputStream@1@@Z 00000001800078e0 f   CmSerialize.obj
 0001:00006940       ?readFloatBuffer@physx@@YA_NPEAMI_NAEAVPxInputStream@1@@Z 0000000180007940 f   CmSerialize.obj
 0001:000069c0       ?readHeader@physx@@YA_NCCCCAEAIAEA_NAEAVPxInputStream@1@@Z 00000001800079c0 f   CmSerialize.obj
 0001:00006b10       ?readIndices@physx@@YAXIIPEAIAEAVPxInputStream@1@_N@Z 0000000180007b10 f   CmSerialize.obj
 0001:00006c40       ?readWord@physx@@YAG_NAEAVPxInputStream@1@@Z 0000000180007c40 f   CmSerialize.obj
 0001:00006c80       ?readWordBuffer@physx@@YAXPEAGI_NAEAVPxInputStream@1@@Z 0000000180007c80 f   CmSerialize.obj
 0001:00006cf0       ?storeIndices@physx@@YAXIIPEBIAEAVPxOutputStream@1@_N@Z 0000000180007cf0 f   CmSerialize.obj
 0001:00006e80       ?writeDword@physx@@YAXI_NAEAVPxOutputStream@1@@Z 0000000180007e80 f   CmSerialize.obj
 0001:00006ed0       ?writeFloat@physx@@YAXM_NAEAVPxOutputStream@1@@Z 0000000180007ed0 f   CmSerialize.obj
 0001:00006f20       ?writeFloatBuffer@physx@@YAXPEBMI_NAEAVPxOutputStream@1@@Z 0000000180007f20 f   CmSerialize.obj
 0001:00006fc0       ?writeHeader@physx@@YA_NCCCCI_NAEAVPxOutputStream@1@@Z 0000000180007fc0 f   CmSerialize.obj
 0001:000070f0       ?writeWord@physx@@YAXG_NAEAVPxOutputStream@1@@Z 00000001800080f0 f   CmSerialize.obj
 0001:00007130       ?writeWordBuffer@physx@@YAXPEBGI_NAEAVPxOutputStream@1@@Z 0000000180008130 f   CmSerialize.obj
 0001:000071b0       ??6PxRenderOutput@physx@@QEAAAEAV01@AEBV?$PxTransformT@M@1@@Z 00000001800081b0 f i CmVisualization.obj
 0001:00007330       ??6PxRenderOutput@physx@@QEAAAEAV01@AEBV?$PxVec3T@M@1@@Z 0000000180008330 f i CmVisualization.obj
 0001:00007620       ?renderOutputDebugArrow@Cm@physx@@YAXAEAVPxRenderOutput@2@AEBUPxDebugArrow@2@@Z 0000000180008620 f   CmVisualization.obj
 0001:000079c0       ?renderOutputDebugBasis@Cm@physx@@YAXAEAVPxRenderOutput@2@AEBUPxDebugBasis@2@@Z 00000001800089c0 f   CmVisualization.obj
 0001:00007f50       ?renderOutputDebugBox@Cm@physx@@YAXAEAVPxRenderOutput@2@AEBVPxBounds3@2@@Z 0000000180008f50 f   CmVisualization.obj
 0001:000081c0       ?renderOutputDebugCircle@Cm@physx@@YAXAEAVPxRenderOutput@2@IM@Z 00000001800091c0 f   CmVisualization.obj
 0001:000082a0       ?visualizeAngularLimit@Cm@physx@@YAXAEAVPxRenderOutput@2@MAEBV?$PxTransformT@M@2@MM@Z 00000001800092a0 f   CmVisualization.obj
 0001:00008430       ?visualizeDoubleCone@Cm@physx@@YAXAEAVPxRenderOutput@2@MAEBV?$PxTransformT@M@2@M@Z 0000000180009430 f   CmVisualization.obj
 0001:00008650       ?visualizeJointFrames@Cm@physx@@YAXAEAVPxRenderOutput@2@MAEBV?$PxTransformT@M@2@1@Z 0000000180009650 f   CmVisualization.obj
 0001:00009150       ?visualizeLimitCone@Cm@physx@@YAXAEAVPxRenderOutput@2@MAEBV?$PxTransformT@M@2@MM@Z 000000018000a150 f   CmVisualization.obj
 0001:00009380       ?visualizeLinearLimit@Cm@physx@@YAXAEAVPxRenderOutput@2@MAEBV?$PxTransformT@M@2@1M@Z 000000018000a380 f   CmVisualization.obj
 0001:00009970       ??0CmModuleUpdateLoader@Cm@physx@@QEAA@PEBD@Z 000000018000a970 f   CmWindowsModuleUpdateLoader.obj
 0001:000099b0       ??1CmModuleUpdateLoader@Cm@physx@@QEAA@XZ 000000018000a9b0 f   CmWindowsModuleUpdateLoader.obj
 0001:000099e0       ?LoadModule@CmModuleUpdateLoader@Cm@physx@@QEAAPEAUHINSTANCE__@@PEBD0@Z 000000018000a9e0 f   CmWindowsModuleUpdateLoader.obj
 0001:00009a50       __local_stdio_printf_options 000000018000aa50 f i CmWindowsModuleUpdateLoader.obj
 0001:00009a60       printf                     000000018000aa60 f i CmWindowsModuleUpdateLoader.obj
 0001:00009ac0       ?commonDelayHook@@YAP6A_JXZIPEAUDelayLoadInfo@@@Z 000000018000aac0 f   CmWindowsDelayLoadHook.obj
 0001:00009ba0       PxSetPhysXCommonDelayLoadHook 000000018000aba0 f   CmWindowsDelayLoadHook.obj
 0001:00009bb0       ??0?$PxQuatT@M@physx@@QEAA@AEBV?$PxMat33T@M@1@@Z 000000018000abb0 f i GuBox.obj
 0001:00009db0       ??0Box@Gu@physx@@QEAA@AEBV012@@Z 000000018000adb0 f i GuBox.obj
 0001:00009db0       ??4Box@Gu@physx@@QEAAAEBV012@AEBV012@@Z 000000018000adb0 f i GuBox.obj
 0001:00009e10       ??0Box@Gu@physx@@QEAA@AEBV?$PxVec3T@M@2@0AEBV?$PxMat33T@M@2@@Z 000000018000ae10 f i GuBox.obj
 0001:00009e80       ??0AABBTreeBuildNode@Gu@physx@@QEAA@XZ 000000018000ae80 f i GuMeshFactory.obj
 0001:00009e80       ??0BigConvexData@physx@@QEAA@W4PxEMPTY@1@@Z 000000018000ae80 f i GuMetaData.obj
 0001:00009e80       ??0Box@Gu@physx@@QEAA@XZ   000000018000ae80 f i GuBox.obj
 0001:00009e80       ??0HeightFieldData@Gu@physx@@QEAA@W4PxEMPTY@2@@Z 000000018000ae80 f i GuCCTSweepTests.obj
 0001:00009e80       ?getAABB@AABBTreeBuildNode@Gu@physx@@QEBAAEBVPxBounds3@3@XZ 000000018000ae80 f i GuMeshFactory.obj
 0001:00009e80       ?getPaddedBounds@HeightFieldData@Gu@physx@@QEBAAEBVCenterExtentsPadded@23@XZ 000000018000ae80 f i GuCCTSweepTests.obj
 0001:00009e90       ?computeAABBExtent@Box@Gu@physx@@QEBA?AV?$PxVec3T@M@3@XZ 000000018000ae90 f i GuBox.obj
 0001:00009f50       ?computeBoxPoints@Box@Gu@physx@@QEBAXPEIAV?$PxVec3T@M@3@@Z 000000018000af50 f i GuBox.obj
 0001:00009f90       ?computeOBBPoints@Gu@physx@@YAXPEIAV?$PxVec3T@M@2@AEBV32@1111@Z 000000018000af90 f   GuBox.obj
 0001:0000a210       ?create@Box@Gu@physx@@QEAAXAEBVCapsule@23@@Z 000000018000b210 f   GuBox.obj
 0001:0000a440       ?getBoxEdges@Gu@physx@@YAPEBEXZ 000000018000b440 f   GuBox.obj
 0001:0000a450       ?getTransform@Box@Gu@physx@@QEBA?AV?$PxTransformT@M@3@XZ 000000018000b450 f i GuBox.obj
 0001:0000a4b0       ?isValid@Box@Gu@physx@@QEBA_NXZ 000000018000b4b0 f i GuBox.obj
 0001:0000a4d0       ?rotate@Box@Gu@physx@@QEBA?AV?$PxVec3T@M@3@AEBV43@@Z 000000018000b4d0 f i GuBox.obj
 0001:0000a560       ?rotateInv@Box@Gu@physx@@QEBA?AV?$PxVec3T@M@3@AEBV43@@Z 000000018000b560 f i GuBox.obj
 0001:0000a5f0       ?setAxes@Box@Gu@physx@@QEAAXAEBV?$PxVec3T@M@3@00@Z 000000018000b5f0 f i GuBox.obj
 0001:0000a630       ?setEmpty@Box@Gu@physx@@QEAAXXZ 000000018000b630 f i GuBox.obj
 0001:0000a670       ?transform@Box@Gu@physx@@QEBA?AV?$PxVec3T@M@3@AEBV43@@Z 000000018000b670 f i GuBox.obj
 0001:0000a710       ?PxComputeBasisVectors@physx@@YAXAEBV?$PxVec3T@M@1@0AEAV21@11@Z 000000018000b710 f i GuCapsule.obj
 0001:0000a8b0       ?computeBoxAroundCapsule@Gu@physx@@YAXAEBVCapsule@12@AEAVBox@12@@Z 000000018000b8b0 f   GuCapsule.obj
 0001:0000aa00       ??0HeightFieldData@Gu@physx@@QEAA@$$QEAU012@@Z 000000018000ba00 f i GuCCTSweepTests.obj
 0001:0000aa00       ??0HeightFieldData@Gu@physx@@QEAA@AEBU012@@Z 000000018000ba00 f i GuCCTSweepTests.obj
 0001:0000aa00       ??4HeightFieldData@Gu@physx@@QEAAAEAU012@$$QEAU012@@Z 000000018000ba00 f i GuCCTSweepTests.obj
 0001:0000aa00       ??4HeightFieldData@Gu@physx@@QEAAAEAU012@AEBU012@@Z 000000018000ba00 f i GuCCTSweepTests.obj
 0001:0000aa60       ??0HeightFieldData@Gu@physx@@QEAA@XZ 000000018000ba60 f i GuCCTSweepTests.obj
 0001:0000aa70       ??0HeightFieldTraceUtil@Gu@physx@@QEAA@AEBVPxHeightFieldGeometry@2@@Z 000000018000ba70 f i GuCCTSweepTests.obj
 0001:0000aa70       ??0HeightFieldUtil@Gu@physx@@QEAA@AEBVPxHeightFieldGeometry@2@@Z 000000018000ba70 f i GuCCTSweepTests.obj
 0001:0000aab0       ??4AABBTreeBuildParams@Gu@physx@@QEAAAEAV012@AEBV012@@Z 000000018000bab0 f i GuMeshFactory.obj
 0001:0000aab0       ??4HeightFieldTraceUtil@Gu@physx@@QEAAAEAV012@$$QEAV012@@Z 000000018000bab0 f i GuCCTSweepTests.obj
 0001:0000aab0       ??4HeightFieldTraceUtil@Gu@physx@@QEAAAEAV012@AEBV012@@Z 000000018000bab0 f i GuCCTSweepTests.obj
 0001:0000aab0       ??4HeightFieldUtil@Gu@physx@@QEAAAEAV012@AEBV012@@Z 000000018000bab0 f i GuCCTSweepTests.obj
 0001:0000aad0       ??4HeightFieldUtil@Gu@physx@@QEAAAEAV012@$$QEAV012@@Z 000000018000bad0 f i GuCCTSweepTests.obj
 0001:0000ab30       ??_EEntityReport@Gu@physx@@UEAAPEAXI@Z 000000018000bb30 f i GuSweepsHF.obj
 0001:0000ab30       ??_EOverlapCallback@PxBVH@physx@@UEAAPEAXI@Z 000000018000bb30 f i GuQuerySystem.obj
 0001:0000ab30       ??_EOverlapReport@Gu@physx@@UEAAPEAXI@Z 000000018000bb30 f i GuCCTSweepTests.obj
 0001:0000ab30       ??_ERaycastCallback@PxBVH@physx@@UEAAPEAXI@Z 000000018000bb30 f i GuQuerySystem.obj
 0001:0000ab30       ??_ERemapCallback@RTreeCooker@physx@@UEAAPEAXI@Z 000000018000bb30 f i GuCookingTriangleMesh.obj
 0001:0000ab30       ??_GEntityReport@Gu@physx@@UEAAPEAXI@Z 000000018000bb30 f i GuSweepsHF.obj
 0001:0000ab30       ??_GOverlapCallback@PxBVH@physx@@UEAAPEAXI@Z 000000018000bb30 f i GuQuerySystem.obj
 0001:0000ab30       ??_GOverlapReport@Gu@physx@@UEAAPEAXI@Z 000000018000bb30 f i GuCCTSweepTests.obj
 0001:0000ab30       ??_GRaycastCallback@PxBVH@physx@@UEAAPEAXI@Z 000000018000bb30 f i GuQuerySystem.obj
 0001:0000ab30       ??_GRemapCallback@RTreeCooker@physx@@UEAAPEAXI@Z 000000018000bb30 f i GuCookingTriangleMesh.obj
 0001:0000ab60       ??_H@YAXPEAX_K1P6APEAX0@Z@Z 000000018000bb60 f i GuCCTSweepTests.obj
 0001:0000abb0       ?ceilUp@HeightFieldTraceUtil@Gu@physx@@SAMM@Z 000000018000bbb0 f i GuCCTSweepTests.obj
 0001:0000abf0       ?floorDown@HeightFieldTraceUtil@Gu@physx@@SAMM@Z 000000018000bbf0 f i GuCCTSweepTests.obj
 0001:0000ac30       ?getHeightAtShapePoint@HeightFieldUtil@Gu@physx@@QEBAMMM@Z 000000018000bc30 f i GuCCTSweepTests.obj
 0001:0000ac90       ?getHeightInternal2@HeightField@Gu@physx@@QEBAMIMM@Z 000000018000bc90 f i GuCCTSweepTests.obj
 0001:0000ae00       ?getNormalAtShapePoint@HeightFieldUtil@Gu@physx@@QEBA?AV?$PxVec3T@M@3@MM@Z 000000018000be00 f i GuCCTSweepTests.obj
 0001:0000aec0       ?getNormal_2@HeightField@Gu@physx@@QEBA?AV?$PxVec3T@M@3@IMMMMM@Z 000000018000bec0 f i GuCCTSweepTests.obj
 0001:0000afe0       ?getOneOverColumnScale@HeightFieldUtil@Gu@physx@@QEBAMXZ 000000018000bfe0 f i GuCCTSweepTests.obj
 0001:0000aff0       ?getOneOverHeightScale@HeightFieldUtil@Gu@physx@@QEBAMXZ 000000018000bff0 f i GuCCTSweepTests.obj
 0001:0000b000       ?getOneOverRowScale@HeightFieldUtil@Gu@physx@@QEBAMXZ 000000018000c000 f i GuCCTSweepTests.obj
 0001:0000b010       ?hf2shapen@HeightFieldUtil@Gu@physx@@QEBA?AV?$PxVec3T@M@3@AEBV43@@Z 000000018000c010 f i GuCCTSweepTests.obj
 0001:0000b010       ?shape2hfp@HeightFieldUtil@Gu@physx@@QEBA?AV?$PxVec3T@M@3@AEBV43@@Z 000000018000c010 f i GuCCTSweepTests.obj
 0001:0000b050       ?hf2shapep@HeightFieldUtil@Gu@physx@@QEBA?AV?$PxVec3T@M@3@AEBV43@@Z 000000018000c050 f i GuCCTSweepTests.obj
 0001:0000b090       ?hf2worldn@HeightFieldUtil@Gu@physx@@QEBA?AV?$PxVec3T@M@3@AEBV?$PxTransformT@M@3@AEBV43@@Z 000000018000c090 f i GuCCTSweepTests.obj
 0001:0000b200       ?hf2worldp@HeightFieldUtil@Gu@physx@@QEBA?AV?$PxVec3T@M@3@AEBV?$PxTransformT@M@3@AEBV43@@Z 000000018000c200 f i GuCCTSweepTests.obj
 0001:0000b380       ?overlapAABBTriangles0to1@HeightFieldUtil@Gu@physx@@QEBAXAEBV?$PxTransformT@M@3@AEBVPxBounds3@3@AEAVOverlapReport@23@I@Z 000000018000c380 f i GuCCTSweepTests.obj
 0001:0000b720       ?overlapAABBTriangles@HeightFieldUtil@Gu@physx@@QEBAXAEBV?$PxTransformT@M@3@0AEBVPxBounds3@3@AEAVOverlapReport@23@I@Z 000000018000c720 f i GuCCTSweepTests.obj
 0001:0000bd40       ?overlapAABBTriangles@HeightFieldUtil@Gu@physx@@QEBAXAEBV?$PxTransformT@M@3@AEBVPxBounds3@3@AEAVOverlapReport@23@I@Z 000000018000cd40 f i GuCCTSweepTests.obj
 0001:0000c420       ?sweepBoxTriangles_Precise@Gu@physx@@YA_NIPEBVPxTriangle@2@_NAEBVPxBoxGeometry@2@AEBV?$PxTransformT@M@2@AEBV?$PxVec3T@M@2@MAEAUPxGeomSweepHit@2@PEBIMV?$PxFlags@W4Enum@PxHitFlag@physx@@G@2@@Z 000000018000d420 f   GuCCTSweepTests.obj
 0001:0000d1a0       ?sweepBox_BoxGeom_Precise@@YA_NAEBVPxGeometry@physx@@AEBV?$PxTransformT@M@2@AEBVPxBoxGeometry@2@1AEBVBox@Gu@2@AEBV?$PxVec3T@M@2@MAEAUPxGeomSweepHit@2@V?$PxFlags@W4Enum@PxHitFlag@physx@@G@2@MPEAUPxQueryThreadContext@2@@Z 000000018000e1a0 f   GuCCTSweepTests.obj
 0001:0000d360       ?sweepBox_CapsuleGeom_Precise@@YA_NAEBVPxGeometry@physx@@AEBV?$PxTransformT@M@2@AEBVPxBoxGeometry@2@1AEBVBox@Gu@2@AEBV?$PxVec3T@M@2@MAEAUPxGeomSweepHit@2@V?$PxFlags@W4Enum@PxHitFlag@physx@@G@2@MPEAUPxQueryThreadContext@2@@Z 000000018000e360 f   GuCCTSweepTests.obj
 0001:0000d730       ?sweepBox_HeightFieldGeom_Precise@@YA_NAEBVPxGeometry@physx@@AEBV?$PxTransformT@M@2@AEBVPxBoxGeometry@2@1AEBVBox@Gu@2@AEBV?$PxVec3T@M@2@MAEAUPxGeomSweepHit@2@V?$PxFlags@W4Enum@PxHitFlag@physx@@G@2@MPEAUPxQueryThreadContext@2@@Z 000000018000e730 f   GuCCTSweepTests.obj
 0001:0000df50       ?sweepBox_SphereGeom_Precise@@YA_NAEBVPxGeometry@physx@@AEBV?$PxTransformT@M@2@AEBVPxBoxGeometry@2@1AEBVBox@Gu@2@AEBV?$PxVec3T@M@2@MAEAUPxGeomSweepHit@2@V?$PxFlags@W4Enum@PxHitFlag@physx@@G@2@MPEAUPxQueryThreadContext@2@@Z 000000018000ef50 f   GuCCTSweepTests.obj
 0001:0000e230       ?sweepCapsule_BoxGeom_Precise@@YA_NAEBVPxGeometry@physx@@AEBV?$PxTransformT@M@2@AEBVPxCapsuleGeometry@2@1AEBVCapsule@Gu@2@AEBV?$PxVec3T@M@2@MAEAUPxGeomSweepHit@2@V?$PxFlags@W4Enum@PxHitFlag@physx@@G@2@MPEAUPxQueryThreadContext@2@@Z 000000018000f230 f   GuCCTSweepTests.obj
 0001:0000e8c0       ??0?$CacheMap@UCachedEdge@Gu@physx@@$0IA@@Gu@physx@@QEAA@XZ 000000018000f8c0 f i GuGeometryQuery.obj
 0001:0000e980       ??0?$CacheMap@UCachedVertex@Gu@physx@@$0IA@@Gu@physx@@QEAA@XZ 000000018000f980 f i GuGeometryQuery.obj
 0001:0000ea40       ??0MultiplePersistentContactManifold@Gu@physx@@QEAA@XZ 000000018000fa40 f i GuGeometryQuery.obj
 0001:0000eaa0       ??0PCMMeshContactGeneration@Gu@physx@@QEAA@AEBT__m128@@0AEBVPxTransformV@aos@2@1AEAVMultiplePersistentContactManifold@12@AEAVPxContactBuffer@2@PEAV?$PxInlineArray@I$0DMA@V?$PxReflectionAllocator@I@physx@@@2@PEAVPxRenderOutput@2@@Z 000000018000faa0 f i GuGeometryQuery.obj
 0001:0000f3d0       ??0PolygonalBox@Gu@physx@@QEAA@AEBV012@@Z 00000001800103d0 f i GuGeometryQuery.obj
 0001:0000f650       ??4MultiplePersistentContactManifold@Gu@physx@@QEAAAEAV012@$$QEAV012@@Z 0000000180010650 f i GuGeometryQuery.obj
 0001:0000f960       ??4MultiplePersistentContactManifold@Gu@physx@@QEAAAEAV012@AEBV012@@Z 0000000180010960 f i GuGeometryQuery.obj
 0001:0000f980       ??_E?$SupportLocalImpl@VBoxV@Gu@physx@@@Gu@physx@@UEAAPEAXI@Z 0000000180010980 f i GuGeometryQuery.obj
 0001:0000f980       ??_E?$SupportLocalImpl@VConvexHullNoScaleV@Gu@physx@@@Gu@physx@@UEAAPEAXI@Z 0000000180010980 f i GuMTD.obj
 0001:0000f980       ??_E?$SupportLocalImpl@VConvexHullV@Gu@physx@@@Gu@physx@@UEAAPEAXI@Z 0000000180010980 f i GuGeometryQuery.obj
 0001:0000f980       ??_E?$SupportLocalImpl@VTriangleV@Gu@physx@@@Gu@physx@@UEAAPEAXI@Z 0000000180010980 f i GuPCMContactConvexCommon.obj
 0001:0000f980       ??_G?$SupportLocalImpl@VBoxV@Gu@physx@@@Gu@physx@@UEAAPEAXI@Z 0000000180010980 f i GuGeometryQuery.obj
 0001:0000f980       ??_G?$SupportLocalImpl@VConvexHullNoScaleV@Gu@physx@@@Gu@physx@@UEAAPEAXI@Z 0000000180010980 f i GuMTD.obj
 0001:0000f980       ??_G?$SupportLocalImpl@VConvexHullV@Gu@physx@@@Gu@physx@@UEAAPEAXI@Z 0000000180010980 f i GuGeometryQuery.obj
 0001:0000f980       ??_G?$SupportLocalImpl@VTriangleV@Gu@physx@@@Gu@physx@@UEAAPEAXI@Z 0000000180010980 f i GuPCMContactConvexCommon.obj
 0001:0000f9b0       ??_ESupportLocal@Gu@physx@@UEAAPEAXI@Z 00000001800109b0 f i GuGeometryQuery.obj
 0001:0000f9b0       ??_GSupportLocal@Gu@physx@@UEAAPEAXI@Z 00000001800109b0 f i GuGeometryQuery.obj
 0001:0000f9e0       ?clearManifold@MultiplePersistentContactManifold@Gu@physx@@QEAAXXZ 00000001800109e0 f i GuGeometryQuery.obj
 0001:0000fa40       ?computeGeomBounds@PxGeometryQuery@physx@@SAXAEAVPxBounds3@2@AEBVPxGeometry@2@AEBV?$PxTransformT@M@2@MMV?$PxFlags@W4Enum@PxGeometryQueryFlag@physx@@I@2@@Z 0000000180010a40 f   GuGeometryQuery.obj
 0001:0000fb50       ?computePenetration@PxGeometryQuery@physx@@SA_NAEAV?$PxVec3T@M@2@AEAMAEBVPxGeometry@2@AEBV?$PxTransformT@M@2@23V?$PxFlags@W4Enum@PxGeometryQueryFlag@physx@@I@2@@Z 0000000180010b50 f   GuGeometryQuery.obj
 0001:0000fd60       ?doSupport@?$SupportLocalImpl@VBoxV@Gu@physx@@@Gu@physx@@UEBA?AT__m128@@AEBT4@@Z 0000000180010d60 f i GuGeometryQuery.obj
 0001:0000fd90       ?doSupport@?$SupportLocalImpl@VBoxV@Gu@physx@@@Gu@physx@@UEBAXAEBT__m128@@AEAT4@1@Z 0000000180010d90 f i GuGeometryQuery.obj
 0001:0000fde0       ?doSupport@?$SupportLocalImpl@VConvexHullV@Gu@physx@@@Gu@physx@@UEBA?AT__m128@@AEBT4@@Z 0000000180010de0 f i GuGeometryQuery.obj
 0001:0000fec0       ?doSupport@?$SupportLocalImpl@VConvexHullV@Gu@physx@@@Gu@physx@@UEBAXAEBT__m128@@AEAT4@1@Z 0000000180010ec0 f i GuGeometryQuery.obj
 0001:00010220       ?generateTriangleContacts@PxGeometryQuery@physx@@SA_NAEBVPxGeometry@2@AEBV?$PxTransformT@M@2@QEBV?$PxVec3T@M@2@IMMMAEAVPxContactBuffer@2@@Z 0000000180011220 f   GuGeometryQuery.obj
 0001:00011be0       ?getEmptyManifold@MultiplePersistentContactManifold@Gu@physx@@QEAAPEAVSinglePersistentContactManifold@23@XZ 0000000180012be0 f i GuGeometryQuery.obj
 0001:00011c00       ?getManifold@MultiplePersistentContactManifold@Gu@physx@@QEAAPEAVSinglePersistentContactManifold@23@I@Z 0000000180012c00 f i GuGeometryQuery.obj
 0001:00011c20       ?getUniqueID@PxCustomGeometry@physx@@SAIXZ 0000000180012c20 f   GuGeometryQuery.obj
 0001:00011c40       ?hillClimbing@ConvexHullV@Gu@physx@@QEBAIAEBT__m128@@@Z 0000000180012c40 f i GuGeometryQuery.obj
 0001:00011e70       ?initialize@MultiplePersistentContactManifold@Gu@physx@@QEAAXXZ 0000000180012e70 f i GuGeometryQuery.obj
 0001:00011ed0       ?invalidate@MultiplePersistentContactManifold@Gu@physx@@QEAAIAEBVPxTransformV@aos@3@AEBT__m128@@1@Z 0000000180012ed0 f i GuGeometryQuery.obj
 0001:00011f40       ?invalidate@MultiplePersistentContactManifold@Gu@physx@@QEAAIAEBVPxTransformV@aos@3@AEBT__m128@@@Z 0000000180012f40 f i GuGeometryQuery.obj
 0001:00011fb0       ?isFinite@?$PxQuatT@M@physx@@QEBA_NXZ 0000000180012fb0 f i GuGeometryQuery.obj
 0001:00012020       ?isFinite@?$PxVec3T@M@physx@@QEBA_NXZ 0000000180013020 f i GuGeometryQuery.obj
 0001:00012080       ?isUnit@?$PxQuatT@M@physx@@QEBA_NXZ 0000000180013080 f i GuGeometryQuery.obj
 0001:000120f0       ?isValid@?$PxTransformT@M@physx@@QEBA_NXZ 00000001800130f0 f i GuGeometryQuery.obj
 0001:00012160       ?isValid@PxGeometryQuery@physx@@SA_NAEBVPxGeometry@2@@Z 0000000180013160 f   GuGeometryQuery.obj
 0001:00012450       ?maxTransformPositionDelta@MultiplePersistentContactManifold@Gu@physx@@QEAA?AT__m128@@AEBT4@@Z 0000000180013450 f i GuGeometryQuery.obj
 0001:00012490       ?maxTransformQuatDelta@MultiplePersistentContactManifold@Gu@physx@@QEAA?AT__m128@@AEBT4@@Z 0000000180013490 f i GuGeometryQuery.obj
 0001:000124d0       ?overlap@PxGeometryQuery@physx@@SA_NAEBVPxGeometry@2@AEBV?$PxTransformT@M@2@01V?$PxFlags@W4Enum@PxGeometryQueryFlag@physx@@I@2@PEAUPxQueryThreadContext@2@@Z 00000001800134d0 f   GuGeometryQuery.obj
 0001:00012620       ?pointDistance@PxGeometryQuery@physx@@SAMAEBV?$PxVec3T@M@2@AEBVPxGeometry@2@AEBV?$PxTransformT@M@2@PEAV32@PEAIV?$PxFlags@W4Enum@PxGeometryQueryFlag@physx@@I@2@@Z 0000000180013620 f   GuGeometryQuery.obj
 0001:00012e20       ?populateVerts@?$SupportLocalImpl@VBoxV@Gu@physx@@@Gu@physx@@UEBAXPEBEIPEBV?$PxVec3T@M@3@PEAT__m128@@@Z 0000000180013e20 f i GuGeometryQuery.obj
 0001:00012e60       ?populateVerts@?$SupportLocalImpl@VConvexHullV@Gu@physx@@@Gu@physx@@UEBAXPEBEIPEBV?$PxVec3T@M@3@PEAT__m128@@@Z 0000000180013e60 f i GuGeometryQuery.obj
 0001:00012ec0       ?raycast@PxGeometryQuery@physx@@SAIAEBV?$PxVec3T@M@2@0AEBVPxGeometry@2@AEBV?$PxTransformT@M@2@MV?$PxFlags@W4Enum@PxHitFlag@physx@@G@2@IPEIAUPxGeomRaycastHit@2@IV?$PxFlags@W4Enum@PxGeometryQueryFlag@physx@@I@2@PEAUPxQueryThreadContext@2@@Z 0000000180013ec0 f   GuGeometryQuery.obj
 0001:00013190       ?reduceManifoldContactsInDifferentPatches@MultiplePersistentContactManifold@Gu@physx@@QEAAIPEAPEAUPCMContactPatch@23@IPEAVMeshPersistentContact@23@IAEBT__m128@@@Z 0000000180014190 f i GuGeometryQuery.obj
 0001:00013300       ?refineContactPatchConnective@MultiplePersistentContactManifold@Gu@physx@@QEAAXPEAPEAUPCMContactPatch@23@IPEAVMeshPersistentContact@23@AEBT__m128@@@Z 0000000180014300 f i GuGeometryQuery.obj
 0001:000133f0       ?refreshManifold@MultiplePersistentContactManifold@Gu@physx@@QEAAXAEBVPxMatTransformV@aos@3@AEBT__m128@@1@Z 00000001800143f0 f i GuGeometryQuery.obj
 0001:000134f0       ?setRelativeTransform@MultiplePersistentContactManifold@Gu@physx@@QEAAXAEBVPxTransformV@aos@3@@Z 00000001800144f0 f i GuGeometryQuery.obj
 0001:00013500       ?supportVertexIndex@ConvexHullV@Gu@physx@@QEBAIAEBT__m128@@@Z 0000000180014500 f i GuGeometryQuery.obj
 0001:00013780       ?sweep@PxGeometryQuery@physx@@SA_NAEBV?$PxVec3T@M@2@MAEBVPxGeometry@2@AEBV?$PxTransformT@M@2@12AEAUPxGeomSweepHit@2@V?$PxFlags@W4Enum@PxHitFlag@physx@@G@2@MV?$PxFlags@W4Enum@PxGeometryQueryFlag@physx@@I@2@PEAUPxQueryThreadContext@2@@Z 0000000180014780 f   GuGeometryQuery.obj
 0001:00013d90       ?toBuffer@MultiplePersistentContactManifold@Gu@physx@@QEAAXPEIAE@Z 0000000180014d90 f i GuGeometryQuery.obj
 0001:00013e70       ?computeBoxPoints@Gu@physx@@YAXAEBVPxBounds3@2@PEIAV?$PxVec3T@M@2@@Z 0000000180014e70 f   GuInternal.obj
 0001:00013f10       ?computeSweptBox@Gu@physx@@YAXAEAVBox@12@AEBV?$PxVec3T@M@2@1AEBV?$PxMat33T@M@2@1M@Z 0000000180014f10 f   GuInternal.obj
 0001:00014450       ?getPlane@Gu@physx@@YA?AVPxPlane@2@AEBV?$PxTransformT@M@2@@Z 0000000180015450 f   GuInternal.obj
 0001:00014980       ??_ECallbackRaycast@RTree@Gu@physx@@UEAAPEAXI@Z 0000000180015980 f i GuMidphaseRTree.obj
 0001:00014980       ??_ECallbackRefit@RTree@Gu@physx@@UEAAPEAXI@Z 0000000180015980 f i GuTriangleMeshRTree.obj
 0001:00014980       ??_EPxInsertionCallback@physx@@MEAAPEAXI@Z 0000000180015980 f i GuMeshFactory.obj
 0001:00014980       ??_GCallbackRaycast@RTree@Gu@physx@@UEAAPEAXI@Z 0000000180015980 f i GuMidphaseRTree.obj
 0001:00014980       ??_GCallbackRefit@RTree@Gu@physx@@UEAAPEAXI@Z 0000000180015980 f i GuTriangleMeshRTree.obj
 0001:00014980       ??_GPxInsertionCallback@physx@@MEAAPEAXI@Z 0000000180015980 f i GuMeshFactory.obj
 0001:000149b0       ??$copy@V?$PxReflectionAllocator@USlab@NodeAllocator@Gu@physx@@@physx@@@?$PxArray@USlab@NodeAllocator@Gu@physx@@V?$PxReflectionAllocator@USlab@NodeAllocator@Gu@physx@@@4@@physx@@IEAAXAEBV01@@Z 00000001800159b0 f i GuMeshFactory.obj
 0001:00014a70       ??0AABBTreeBounds@Gu@physx@@QEAA@XZ 0000000180015a70 f i GuMeshFactory.obj
 0001:00014a80       ??0AABBTreeBuildNode@Gu@physx@@QEAA@AEBV012@@Z 0000000180015a80 f i GuMeshFactory.obj
 0001:00014a80       ??4AABBTreeBuildNode@Gu@physx@@QEAAAEAV012@AEBV012@@Z 0000000180015a80 f i GuMeshFactory.obj
 0001:00014ac0       ??0AABBTreeBuildParams@Gu@physx@@QEAA@IIPEBVAABBTreeBounds@12@W4BVHBuildStrategy@12@@Z 0000000180015ac0 f i GuMeshFactory.obj
 0001:00014ae0       ??0MeshFactory@Gu@physx@@QEAA@XZ 0000000180015ae0 f   GuMeshFactory.obj
 0001:00014ce0       ??0NodeAllocator@Gu@physx@@QEAA@AEBV012@@Z 0000000180015ce0 f i GuMeshFactory.obj
 0001:00014d20       ??0TriangleMeshData@Gu@physx@@QEAA@XZ 0000000180015d20 f i GuMeshFactory.obj
 0001:00014e30       ??1AABBTreeBounds@Gu@physx@@QEAA@XZ 0000000180015e30 f i GuMeshFactory.obj
 0001:00014e40       ??1AABBTreeBuildParams@Gu@physx@@QEAA@XZ 0000000180015e40 f i GuMeshFactory.obj
 0001:00014e40       ?reset@AABBTreeBuildParams@Gu@physx@@QEAAXXZ 0000000180015e40 f i GuMeshFactory.obj
 0001:00014e90       ??1CollisionMeshMappingData@Gu@physx@@UEAA@XZ 0000000180015e90 f i GuMeshFactory.obj
 0001:00014fe0       ??1MeshDataBase@Gu@physx@@UEAA@XZ 0000000180015fe0 f i GuMeshFactory.obj
 0001:00015120       ??1MeshFactory@Gu@physx@@MEAA@XZ 0000000180016120 f   GuMeshFactory.obj
 0001:00015260       ??1RTreeTriangleData@Gu@physx@@UEAA@XZ 0000000180016260 f i GuMeshFactory.obj
 0001:000152d0       ??1SoftBodyCollisionData@Gu@physx@@UEAA@XZ 00000001800162d0 f i GuMeshFactory.obj
 0001:00015410       ??1SoftBodySimulationData@Gu@physx@@UEAA@XZ 0000000180016410 f i GuMeshFactory.obj
 0001:00015530       ??1TetrahedronMeshData@Gu@physx@@QEAA@XZ 0000000180016530 f i GuMeshFactory.obj
 0001:000155c0       ??1TriangleMeshData@Gu@physx@@UEAA@XZ 00000001800165c0 f i GuMeshFactory.obj
 0001:000156f0       ??4NodeAllocator@Gu@physx@@QEAAAEAV012@AEBV012@@Z 00000001800166f0 f i GuMeshFactory.obj
 0001:000157a0       ??_EMeshFactory@Gu@physx@@MEAAPEAXI@Z 00000001800167a0 f i GuMeshFactory.obj
 0001:000158c0       ??_FAABBTreeBuildParams@Gu@physx@@QEAAXXZ 00000001800168c0 f i GuMeshFactory.obj
 0001:000158e0       ??_EBV4TriangleData@Gu@physx@@UEAAPEAXI@Z 00000001800168e0 f i GuMeshFactory.obj
 0001:000158e0       ??_GBV4TriangleData@Gu@physx@@UEAAPEAXI@Z 00000001800168e0 f i GuMeshFactory.obj
 0001:00015970       ??_ECollisionMeshMappingData@Gu@physx@@UEAAPEAXI@Z 0000000180016970 f i GuMeshFactory.obj
 0001:00015970       ??_GCollisionMeshMappingData@Gu@physx@@UEAAPEAXI@Z 0000000180016970 f i GuMeshFactory.obj
 0001:000159e0       ??_EMeshDataBase@Gu@physx@@UEAAPEAXI@Z 00000001800169e0 f i GuMeshFactory.obj
 0001:000159e0       ??_GMeshDataBase@Gu@physx@@UEAAPEAXI@Z 00000001800169e0 f i GuMeshFactory.obj
 0001:00015a50       ??_EPxCollisionMeshMappingData@physx@@UEAAPEAXI@Z 0000000180016a50 f i GuMeshFactory.obj
 0001:00015a50       ??_GPxCollisionMeshMappingData@physx@@UEAAPEAXI@Z 0000000180016a50 f i GuMeshFactory.obj
 0001:00015aa0       ??_ERTreeTriangleData@Gu@physx@@UEAAPEAXI@Z 0000000180016aa0 f i GuMeshFactory.obj
 0001:00015aa0       ??_GRTreeTriangleData@Gu@physx@@UEAAPEAXI@Z 0000000180016aa0 f i GuMeshFactory.obj
 0001:00015b50       ??_ESoftBodyCollisionData@Gu@physx@@UEAAPEAXI@Z 0000000180016b50 f i GuMeshFactory.obj
 0001:00015b50       ??_GSoftBodyCollisionData@Gu@physx@@UEAAPEAXI@Z 0000000180016b50 f i GuMeshFactory.obj
 0001:00015bc0       ??_ESoftBodySimulationData@Gu@physx@@UEAAPEAXI@Z 0000000180016bc0 f i GuMeshFactory.obj
 0001:00015bc0       ??_GSoftBodySimulationData@Gu@physx@@UEAAPEAXI@Z 0000000180016bc0 f i GuMeshFactory.obj
 0001:00015c30       ??_ETriangleMeshData@Gu@physx@@UEAAPEAXI@Z 0000000180016c30 f i GuMeshFactory.obj
 0001:00015c30       ??_GTriangleMeshData@Gu@physx@@UEAAPEAXI@Z 0000000180016c30 f i GuMeshFactory.obj
 0001:00015ca0       ??_V@YAXPEAX_K@Z           0000000180016ca0 f i LIBCMT:delete_array_size.obj
 0001:00015ca0       ?__global_delete@@YAXPEAX_K@Z 0000000180016ca0 f i GuMeshFactory.obj
 0001:00015cb0       ?addBVH@MeshFactory@Gu@physx@@QEAAXPEAVBVH@23@_N@Z 0000000180016cb0 f   GuMeshFactory.obj
 0001:00015d50       ?addConvexMesh@MeshFactory@Gu@physx@@QEAAXPEAVConvexMesh@23@_N@Z 0000000180016d50 f   GuMeshFactory.obj
 0001:00015df0       ?addFactoryListener@MeshFactory@Gu@physx@@QEAAXAEAVMeshFactoryListener@23@@Z 0000000180016df0 f   GuMeshFactory.obj
 0001:00015e60       ?addHeightField@MeshFactory@Gu@physx@@QEAAXPEAVHeightField@23@_N@Z 0000000180016e60 f   GuMeshFactory.obj
 0001:00015f00       ?addSoftBodyMesh@MeshFactory@Gu@physx@@QEAAXPEAVSoftBodyMesh@23@_N@Z 0000000180016f00 f   GuMeshFactory.obj
 0001:00015fa0       ?addTetrahedronMesh@MeshFactory@Gu@physx@@QEAAXPEAVTetrahedronMesh@23@_N@Z 0000000180016fa0 f   GuMeshFactory.obj
 0001:00016040       ?addTriangleMesh@MeshFactory@Gu@physx@@QEAAXPEAVTriangleMesh@23@_N@Z 0000000180017040 f   GuMeshFactory.obj
 0001:000160e0       ?allocate@?$PxArray@USlab@NodeAllocator@Gu@physx@@V?$PxReflectionAllocator@USlab@NodeAllocator@Gu@physx@@@4@@physx@@IEAAPEAUSlab@NodeAllocator@Gu@2@I@Z 00000001800170e0 f i GuMeshFactory.obj
 0001:00016190       ?allocateAdjacencies@TriangleMeshData@Gu@physx@@QEAAPEAIXZ 0000000180017190 f i GuMeshFactory.obj
 0001:00016200       ?allocateExtraTrigData@TriangleMeshData@Gu@physx@@QEAAPEAEXZ 0000000180017200 f i GuMeshFactory.obj
 0001:00016270       ?allocateFaceRemap@TriangleMeshData@Gu@physx@@QEAAPEAIXZ 0000000180017270 f i GuMeshFactory.obj
 0001:000162e0       ?allocateGridModelData@SoftBodySimulationData@Gu@physx@@QEAAXIIIIIII@Z 00000001800172e0 f i GuMeshFactory.obj
 0001:00016550       ?allocateMaterials@TetrahedronMeshData@Gu@physx@@QEAAPEAGXZ 0000000180017550 f i GuMeshFactory.obj
 0001:000165c0       ?allocateMaterials@TriangleMeshData@Gu@physx@@QEAAPEAGXZ 00000001800175c0 f i GuMeshFactory.obj
 0001:00016630       ?allocateTetrahedrons@TetrahedronMeshData@Gu@physx@@QEAAXII@Z 0000000180017630 f i GuMeshFactory.obj
 0001:000166c0       ?allocateTriangles@TriangleMeshData@Gu@physx@@QEAAPEAXI_NI@Z 00000001800176c0 f i GuMeshFactory.obj
 0001:000167b0       ?allocateVertices@MeshDataBase@Gu@physx@@QEAAPEAV?$PxVec3T@M@3@I@Z 00000001800177b0 f i GuMeshFactory.obj
 0001:00016820       ?allocateVertices@TetrahedronMeshData@Gu@physx@@QEAAPEAV?$PxVec3T@M@3@II@Z 0000000180017820 f i GuMeshFactory.obj
 0001:000168c0       ?allocatemappingData@CollisionMeshMappingData@Gu@physx@@QEAAXIIII@Z 00000001800178c0 f i GuMeshFactory.obj
 0001:00016aa0       ?create@?$PxHashBase@PEAVBVH@Gu@physx@@PEAV123@U?$PxHash@PEAVBVH@Gu@physx@@@3@UGetKey@?$PxHashSetBase@PEAVBVH@Gu@physx@@U?$PxHash@PEAVBVH@Gu@physx@@@3@VPxAllocator@3@$00@3@VPxAllocator@3@$00@physx@@QEAAPEAPEAVBVH@Gu@2@AEBQEAV342@AEA_N@Z 0000000180017aa0 f i GuMeshFactory.obj
 0001:00016aa0       ?create@?$PxHashBase@PEAVConvexMesh@Gu@physx@@PEAV123@U?$PxHash@PEAVConvexMesh@Gu@physx@@@3@UGetKey@?$PxHashSetBase@PEAVConvexMesh@Gu@physx@@U?$PxHash@PEAVConvexMesh@Gu@physx@@@3@VPxAllocator@3@$00@3@VPxAllocator@3@$00@physx@@QEAAPEAPEAVConvexMesh@Gu@2@AEBQEAV342@AEA_N@Z 0000000180017aa0 f i GuMeshFactory.obj
 0001:00016aa0       ?create@?$PxHashBase@PEAVHeightField@Gu@physx@@PEAV123@U?$PxHash@PEAVHeightField@Gu@physx@@@3@UGetKey@?$PxHashSetBase@PEAVHeightField@Gu@physx@@U?$PxHash@PEAVHeightField@Gu@physx@@@3@VPxAllocator@3@$00@3@VPxAllocator@3@$00@physx@@QEAAPEAPEAVHeightField@Gu@2@AEBQEAV342@AEA_N@Z 0000000180017aa0 f i GuMeshFactory.obj
 0001:00016aa0       ?create@?$PxHashBase@PEAVSoftBodyMesh@Gu@physx@@PEAV123@U?$PxHash@PEAVSoftBodyMesh@Gu@physx@@@3@UGetKey@?$PxHashSetBase@PEAVSoftBodyMesh@Gu@physx@@U?$PxHash@PEAVSoftBodyMesh@Gu@physx@@@3@VPxAllocator@3@$00@3@VPxAllocator@3@$00@physx@@QEAAPEAPEAVSoftBodyMesh@Gu@2@AEBQEAV342@AEA_N@Z 0000000180017aa0 f i GuMeshFactory.obj
 0001:00016aa0       ?create@?$PxHashBase@PEAVTetrahedronMesh@Gu@physx@@PEAV123@U?$PxHash@PEAVTetrahedronMesh@Gu@physx@@@3@UGetKey@?$PxHashSetBase@PEAVTetrahedronMesh@Gu@physx@@U?$PxHash@PEAVTetrahedronMesh@Gu@physx@@@3@VPxAllocator@3@$00@3@VPxAllocator@3@$00@physx@@QEAAPEAPEAVTetrahedronMesh@Gu@2@AEBQEAV342@AEA_N@Z 0000000180017aa0 f i GuMeshFactory.obj
 0001:00016aa0       ?create@?$PxHashBase@PEAVTriangleMesh@Gu@physx@@PEAV123@U?$PxHash@PEAVTriangleMesh@Gu@physx@@@3@UGetKey@?$PxHashSetBase@PEAVTriangleMesh@Gu@physx@@U?$PxHash@PEAVTriangleMesh@Gu@physx@@@3@VPxAllocator@3@$00@3@VPxAllocator@3@$00@physx@@QEAAPEAPEAVTriangleMesh@Gu@2@AEBQEAV342@AEA_N@Z 0000000180017aa0 f i GuMeshFactory.obj
 0001:00016c30       ?createBVH@MeshFactory@Gu@physx@@IEAAPEAVPxBVH@3@AEAVBVHData@23@@Z 0000000180017c30 f   GuMeshFactory.obj
 0001:00016d90       ?createBVH@MeshFactory@Gu@physx@@QEAAPEAVPxBVH@3@AEAVPxInputStream@3@@Z 0000000180017d90 f   GuMeshFactory.obj
 0001:00016f00       ?createBVH@MeshFactory@Gu@physx@@QEAAPEAVPxBVH@3@PEAX@Z 0000000180017f00 f   GuMeshFactory.obj
 0001:00016f10       ?createConvexMesh@MeshFactory@Gu@physx@@IEAAPEAVPxConvexMesh@3@AEAUConvexHullInitData@23@@Z 0000000180017f10 f   GuMeshFactory.obj
 0001:00017050       ?createConvexMesh@MeshFactory@Gu@physx@@QEAAPEAVPxConvexMesh@3@AEAVPxInputStream@3@@Z 0000000180018050 f   GuMeshFactory.obj
 0001:000171b0       ?createConvexMesh@MeshFactory@Gu@physx@@QEAAPEAVPxConvexMesh@3@PEAX@Z 00000001800181b0 f   GuMeshFactory.obj
 0001:000171c0       ?createHeightField@MeshFactory@Gu@physx@@QEAAPEAVPxHeightField@3@AEAVPxInputStream@3@@Z 00000001800181c0 f   GuMeshFactory.obj
 0001:00017330       ?createHeightField@MeshFactory@Gu@physx@@QEAAPEAVPxHeightField@3@PEAX@Z 0000000180018330 f   GuMeshFactory.obj
 0001:00017490       ?createSoftBodyMesh@MeshFactory@Gu@physx@@IEAAPEAVPxSoftBodyMesh@3@AEAVSoftBodyMeshData@23@@Z 0000000180018490 f   GuMeshFactory.obj
 0001:000175d0       ?createSoftBodyMesh@MeshFactory@Gu@physx@@QEAAPEAVPxSoftBodyMesh@3@AEAVPxInputStream@3@@Z 00000001800185d0 f   GuMeshFactory.obj
 0001:00017bd0       ?createSoftBodyMesh@MeshFactory@Gu@physx@@QEAAPEAVPxSoftBodyMesh@3@PEAX@Z 0000000180018bd0 f   GuMeshFactory.obj
 0001:00017be0       ?createTetrahedronMesh@MeshFactory@Gu@physx@@IEAAPEAVPxTetrahedronMesh@3@AEAVTetrahedronMeshData@23@@Z 0000000180018be0 f   GuMeshFactory.obj
 0001:00017d30       ?createTetrahedronMesh@MeshFactory@Gu@physx@@QEAAPEAVPxTetrahedronMesh@3@AEAVPxInputStream@3@@Z 0000000180018d30 f   GuMeshFactory.obj
 0001:00017da0       ?createTetrahedronMesh@MeshFactory@Gu@physx@@QEAAPEAVPxTetrahedronMesh@3@PEAX@Z 0000000180018da0 f   GuMeshFactory.obj
 0001:00017db0       ?createTriangleMesh@MeshFactory@Gu@physx@@IEAAPEAVPxTriangleMesh@3@AEAVTriangleMeshData@23@@Z 0000000180018db0 f   GuMeshFactory.obj
 0001:00017fa0       ?createTriangleMesh@MeshFactory@Gu@physx@@QEAAPEAVPxTriangleMesh@3@AEAVPxInputStream@3@@Z 0000000180018fa0 f   GuMeshFactory.obj
 0001:00018000       ?createTriangleMesh@MeshFactory@Gu@physx@@QEAAPEAVPxTriangleMesh@3@PEAX@Z 0000000180019000 f   GuMeshFactory.obj
 0001:00018010       ?erase@?$PxHashBase@PEAVBVH@Gu@physx@@PEAV123@U?$PxHash@PEAVBVH@Gu@physx@@@3@UGetKey@?$PxHashSetBase@PEAVBVH@Gu@physx@@U?$PxHash@PEAVBVH@Gu@physx@@@3@VPxAllocator@3@$00@3@VPxAllocator@3@$00@physx@@QEAA_NAEBQEAVBVH@Gu@2@@Z 0000000180019010 f i GuMeshFactory.obj
 0001:00018010       ?erase@?$PxHashBase@PEAVConvexMesh@Gu@physx@@PEAV123@U?$PxHash@PEAVConvexMesh@Gu@physx@@@3@UGetKey@?$PxHashSetBase@PEAVConvexMesh@Gu@physx@@U?$PxHash@PEAVConvexMesh@Gu@physx@@@3@VPxAllocator@3@$00@3@VPxAllocator@3@$00@physx@@QEAA_NAEBQEAVConvexMesh@Gu@2@@Z 0000000180019010 f i GuMeshFactory.obj
 0001:00018010       ?erase@?$PxHashBase@PEAVHeightField@Gu@physx@@PEAV123@U?$PxHash@PEAVHeightField@Gu@physx@@@3@UGetKey@?$PxHashSetBase@PEAVHeightField@Gu@physx@@U?$PxHash@PEAVHeightField@Gu@physx@@@3@VPxAllocator@3@$00@3@VPxAllocator@3@$00@physx@@QEAA_NAEBQEAVHeightField@Gu@2@@Z 0000000180019010 f i GuMeshFactory.obj
 0001:00018010       ?erase@?$PxHashBase@PEAVSoftBodyMesh@Gu@physx@@PEAV123@U?$PxHash@PEAVSoftBodyMesh@Gu@physx@@@3@UGetKey@?$PxHashSetBase@PEAVSoftBodyMesh@Gu@physx@@U?$PxHash@PEAVSoftBodyMesh@Gu@physx@@@3@VPxAllocator@3@$00@3@VPxAllocator@3@$00@physx@@QEAA_NAEBQEAVSoftBodyMesh@Gu@2@@Z 0000000180019010 f i GuMeshFactory.obj
 0001:00018010       ?erase@?$PxHashBase@PEAVTetrahedronMesh@Gu@physx@@PEAV123@U?$PxHash@PEAVTetrahedronMesh@Gu@physx@@@3@UGetKey@?$PxHashSetBase@PEAVTetrahedronMesh@Gu@physx@@U?$PxHash@PEAVTetrahedronMesh@Gu@physx@@@3@VPxAllocator@3@$00@3@VPxAllocator@3@$00@physx@@QEAA_NAEBQEAVTetrahedronMesh@Gu@2@@Z 0000000180019010 f i GuMeshFactory.obj
 0001:00018010       ?erase@?$PxHashBase@PEAVTriangleMesh@Gu@physx@@PEAV123@U?$PxHash@PEAVTriangleMesh@Gu@physx@@@3@UGetKey@?$PxHashSetBase@PEAVTriangleMesh@Gu@physx@@U?$PxHash@PEAVTriangleMesh@Gu@physx@@@3@VPxAllocator@3@$00@3@VPxAllocator@3@$00@physx@@QEAA_NAEBQEAVTriangleMesh@Gu@2@@Z 0000000180019010 f i GuMeshFactory.obj
 0001:00018190       ?getBVHs@MeshFactory@Gu@physx@@QEBAIPEAPEAVPxBVH@3@II@Z 0000000180019190 f   GuMeshFactory.obj
 0001:00018230       ?getBounds@AABBTreeBounds@Gu@physx@@QEAAPEAVPxBounds3@3@XZ 0000000180019230 f i GuMeshFactory.obj
 0001:00018230       ?getBounds@AABBTreeBounds@Gu@physx@@QEBAPEBVPxBounds3@3@XZ 0000000180019230 f i GuMeshFactory.obj
 0001:00018240       ?getConvexMeshes@MeshFactory@Gu@physx@@QEBAIPEAPEAVPxConvexMesh@3@II@Z 0000000180019240 f   GuMeshFactory.obj
 0001:000182e0       ?getHeightFields@MeshFactory@Gu@physx@@QEBAIPEAPEAVPxHeightField@3@II@Z 00000001800192e0 f   GuMeshFactory.obj
 0001:00018380       ?getNbBVHs@MeshFactory@Gu@physx@@QEBAIXZ 0000000180019380 f   GuMeshFactory.obj
 0001:000183c0       ?getNbConvexMeshes@MeshFactory@Gu@physx@@QEBAIXZ 00000001800193c0 f   GuMeshFactory.obj
 0001:00018400       ?getNbHeightFields@MeshFactory@Gu@physx@@QEBAIXZ 0000000180019400 f   GuMeshFactory.obj
 0001:00018440       ?getNbPrimitives@AABBTreeBuildNode@Gu@physx@@QEBAIXZ 0000000180019440 f i GuMeshFactory.obj
 0001:00018440       ?getNbRuntimePrimitives@AABBTreeBuildNode@Gu@physx@@QEBAIXZ 0000000180019440 f i GuMeshFactory.obj
 0001:00018450       ?getNbSoftBodyMeshes@MeshFactory@Gu@physx@@QEBAIXZ 0000000180019450 f   GuMeshFactory.obj
 0001:00018490       ?getNbTetrahedronMeshes@MeshFactory@Gu@physx@@QEBAIXZ 0000000180019490 f   GuMeshFactory.obj
 0001:000184d0       ?getNbTriangleMeshes@MeshFactory@Gu@physx@@QEBAIXZ 00000001800194d0 f   GuMeshFactory.obj
 0001:00018510       ?getNeg@AABBTreeBuildNode@Gu@physx@@QEBAPEBV123@XZ 0000000180019510 f i GuMeshFactory.obj
 0001:00018530       ?getPrimitives@AABBTreeBuildNode@Gu@physx@@QEAAPEAIPEAI@Z 0000000180019530 f i GuMeshFactory.obj
 0001:00018530       ?getPrimitives@AABBTreeBuildNode@Gu@physx@@QEBAPEBIPEBI@Z 0000000180019530 f i GuMeshFactory.obj
 0001:00018540       ?getSoftBodyMeshes@MeshFactory@Gu@physx@@QEBAIPEAPEAVPxSoftBodyMesh@3@II@Z 0000000180019540 f   GuMeshFactory.obj
 0001:000185e0       ?getTetrahedronMeshes@MeshFactory@Gu@physx@@QEBAIPEAPEAVPxTetrahedronMesh@3@II@Z 00000001800195e0 f   GuMeshFactory.obj
 0001:00018670       ?getTriangleMeshes@MeshFactory@Gu@physx@@QEBAIPEAPEAVPxTriangleMesh@3@II@Z 0000000180019670 f   GuMeshFactory.obj
 0001:00018700       ?growAndPushBack@?$PxArray@PEAVMeshFactoryListener@Gu@physx@@V?$PxReflectionAllocator@PEAVMeshFactoryListener@Gu@physx@@@3@@physx@@IEAAAEAPEAVMeshFactoryListener@Gu@2@AEBQEAV342@@Z 0000000180019700 f i GuMeshFactory.obj
 0001:00018830       ?isLeaf@AABBTreeBuildNode@Gu@physx@@QEBA_NXZ 0000000180019830 f i GuMeshFactory.obj
 0001:0001a240       ?moveFrom@AABBTreeBounds@Gu@physx@@QEAAXAEAV123@@Z 000000018001b240 f i GuMeshFactory.obj
 0001:0001a250       ?notifyFactoryListener@MeshFactory@Gu@physx@@QEAAXPEBVPxBase@3@G@Z 000000018001b250 f   GuMeshFactory.obj
 0001:0001a2c0       ?notifyListenersAdd@MeshFactory@Gu@physx@@IEAAXPEBVPxBase@3@@Z 000000018001b2c0 f   GuMeshFactory.obj
 0001:0001a310       ?notifyListenersRemove@MeshFactory@Gu@physx@@IEAAXPEBVPxBase@3@@Z 000000018001b310 f   GuMeshFactory.obj
 0001:0001a360       ?ownsMemory@AABBTreeBounds@Gu@physx@@QEBA_NXZ 000000018001b360 f i GuMeshFactory.obj
 0001:0001a640       ?recreate@?$PxArray@USlab@NodeAllocator@Gu@physx@@V?$PxReflectionAllocator@USlab@NodeAllocator@Gu@physx@@@4@@physx@@IEAAXI@Z 000000018001b640 f i GuMeshFactory.obj
 0001:0001a6f0       ?release@CollisionMeshMappingData@Gu@physx@@UEAAXXZ 000000018001b6f0 f i GuMeshFactory.obj
 0001:0001a710       ?release@MeshFactory@Gu@physx@@QEAAXXZ 000000018001b710 f   GuMeshFactory.obj
 0001:0001a810       ?remove@MeshFactory@Gu@physx@@QEAA_NAEAVPxBase@3@@Z 000000018001b810 f   GuMeshFactory.obj
 0001:0001a860       ?removeBVH@MeshFactory@Gu@physx@@QEAA_NAEAVPxBVH@3@@Z 000000018001b860 f   GuMeshFactory.obj
 0001:0001a8f0       ?removeConvexMesh@MeshFactory@Gu@physx@@QEAA_NAEAVPxConvexMesh@3@@Z 000000018001b8f0 f   GuMeshFactory.obj
 0001:0001a980       ?removeFactoryListener@MeshFactory@Gu@physx@@QEAAXAEAVMeshFactoryListener@23@@Z 000000018001b980 f   GuMeshFactory.obj
 0001:0001aa10       ?removeHeightField@MeshFactory@Gu@physx@@QEAA_NAEAVPxHeightField@3@@Z 000000018001ba10 f   GuMeshFactory.obj
 0001:0001aaa0       ?removeSoftBodyMesh@MeshFactory@Gu@physx@@QEAA_NAEAVPxSoftBodyMesh@3@@Z 000000018001baa0 f   GuMeshFactory.obj
 0001:0001ab30       ?removeTetrahedronMesh@MeshFactory@Gu@physx@@QEAA_NAEAVPxTetrahedronMesh@3@@Z 000000018001bb30 f   GuMeshFactory.obj
 0001:0001abc0       ?removeTriangleMesh@MeshFactory@Gu@physx@@QEAA_NAEAVPxTriangleMesh@3@@Z 000000018001bbc0 f   GuMeshFactory.obj
 0001:0001ac50       ?reserveInternal@?$PxHashBase@PEAVBVH@Gu@physx@@PEAV123@U?$PxHash@PEAVBVH@Gu@physx@@@3@UGetKey@?$PxHashSetBase@PEAVBVH@Gu@physx@@U?$PxHash@PEAVBVH@Gu@physx@@@3@VPxAllocator@3@$00@3@VPxAllocator@3@$00@physx@@AEAAXI@Z 000000018001bc50 f i GuMeshFactory.obj
 0001:0001ac50       ?reserveInternal@?$PxHashBase@PEAVConvexMesh@Gu@physx@@PEAV123@U?$PxHash@PEAVConvexMesh@Gu@physx@@@3@UGetKey@?$PxHashSetBase@PEAVConvexMesh@Gu@physx@@U?$PxHash@PEAVConvexMesh@Gu@physx@@@3@VPxAllocator@3@$00@3@VPxAllocator@3@$00@physx@@AEAAXI@Z 000000018001bc50 f i GuMeshFactory.obj
 0001:0001ac50       ?reserveInternal@?$PxHashBase@PEAVHeightField@Gu@physx@@PEAV123@U?$PxHash@PEAVHeightField@Gu@physx@@@3@UGetKey@?$PxHashSetBase@PEAVHeightField@Gu@physx@@U?$PxHash@PEAVHeightField@Gu@physx@@@3@VPxAllocator@3@$00@3@VPxAllocator@3@$00@physx@@AEAAXI@Z 000000018001bc50 f i GuMeshFactory.obj
 0001:0001ac50       ?reserveInternal@?$PxHashBase@PEAVSoftBodyMesh@Gu@physx@@PEAV123@U?$PxHash@PEAVSoftBodyMesh@Gu@physx@@@3@UGetKey@?$PxHashSetBase@PEAVSoftBodyMesh@Gu@physx@@U?$PxHash@PEAVSoftBodyMesh@Gu@physx@@@3@VPxAllocator@3@$00@3@VPxAllocator@3@$00@physx@@AEAAXI@Z 000000018001bc50 f i GuMeshFactory.obj
 0001:0001ac50       ?reserveInternal@?$PxHashBase@PEAVTetrahedronMesh@Gu@physx@@PEAV123@U?$PxHash@PEAVTetrahedronMesh@Gu@physx@@@3@UGetKey@?$PxHashSetBase@PEAVTetrahedronMesh@Gu@physx@@U?$PxHash@PEAVTetrahedronMesh@Gu@physx@@@3@VPxAllocator@3@$00@3@VPxAllocator@3@$00@physx@@AEAAXI@Z 000000018001bc50 f i GuMeshFactory.obj
 0001:0001ac50       ?reserveInternal@?$PxHashBase@PEAVTriangleMesh@Gu@physx@@PEAV123@U?$PxHash@PEAVTriangleMesh@Gu@physx@@@3@UGetKey@?$PxHashSetBase@PEAVTriangleMesh@Gu@physx@@U?$PxHash@PEAVTriangleMesh@Gu@physx@@@3@VPxAllocator@3@$00@3@VPxAllocator@3@$00@physx@@AEAAXI@Z 000000018001bc50 f i GuMeshFactory.obj
 0001:0001ae20       ?setBounds@AABBTreeBounds@Gu@physx@@QEAAXPEAVPxBounds3@3@@Z 000000018001be20 f i GuMeshFactory.obj
 0001:0001ae30       ?setNbRunTimePrimitives@AABBTreeBuildNode@Gu@physx@@QEAAXI@Z 000000018001be30 f i GuMeshFactory.obj
 0001:0001ae40       ?takeOwnership@AABBTreeBounds@Gu@physx@@QEAAXXZ 000000018001be40 f i GuMeshFactory.obj
 0001:0001ae50       getInsertionCallback       000000018001be50 f   GuMeshFactory.obj
 0001:0001ae60       ??4BigConvexData@physx@@QEAAAEAV01@AEBV01@@Z 000000018001be60 f i GuMetaData.obj
 0001:0001ae80       ?GetAdjacentVerts@BigConvexData@physx@@QEBAPEBEXZ 000000018001be80 f i GuMetaData.obj
 0001:0001ae80       ?getSoftBodyAuxData@SoftBodyMesh@Gu@physx@@UEAAPEAVPxSoftBodyAuxData@3@XZ 000000018001be80 f i GuTetrahedronMesh.obj
 0001:0001ae80       ?getSoftBodyAuxData@SoftBodyMesh@Gu@physx@@UEBAPEBVPxSoftBodyAuxData@3@XZ 000000018001be80 f i GuTetrahedronMesh.obj
 0001:0001ae80       ?getTransforms@PruningPool@Gu@physx@@QEAAPEAV?$PxTransformT@M@3@XZ 000000018001be80 f i GuIncrementalAABBPrunerCore.obj
 0001:0001ae80       ?getTransforms@PruningPool@Gu@physx@@QEBAPEBV?$PxTransformT@M@3@XZ 000000018001be80 f i GuIncrementalAABBPrunerCore.obj
 0001:0001ae80       ?getTriangles@TriangleMesh@Gu@physx@@UEBAPEBXXZ 000000018001be80 f i GuTriangleMesh.obj
 0001:0001ae90       ?GetNbNeighbors@BigConvexData@physx@@QEBAGI@Z 000000018001be90 f i GuMetaData.obj
 0001:0001ae90       ?GetValency@BigConvexData@physx@@QEBAGI@Z 000000018001be90 f i GuMetaData.obj
 0001:0001aea0       ?GetNbSamples@BigConvexData@physx@@QEBAIXZ 000000018001bea0 f i GuMetaData.obj
 0001:0001aeb0       ?GetNbVerts@BigConvexData@physx@@QEBAIXZ 000000018001beb0 f i GuMetaData.obj
 0001:0001aeb0       ?getNbVertices@TetrahedronMesh@Gu@physx@@UEBAIXZ 000000018001beb0 f i GuTetrahedronMesh.obj
 0001:0001aeb0       ?getNbVertices@TriangleMesh@Gu@physx@@UEBAIXZ 000000018001beb0 f i GuTriangleMesh.obj
 0001:0001aeb0       ?length@pcharNode@@UEBAHXZ 000000018001beb0 f i libvcruntime:undname.obj
 0001:0001aeb0       ?raw_length@pcharNode@@UEBAHXZ 000000018001beb0 f i libvcruntime:undname.obj
 0001:0001aec0       ?GetNeighbors@BigConvexData@physx@@QEBAPEBEI@Z 000000018001bec0 f i GuMetaData.obj
 0001:0001aed0       ?GetOffset@BigConvexData@physx@@QEBAGI@Z 000000018001bed0 f i GuMetaData.obj
 0001:0001aee0       ?GetSubdiv@BigConvexData@physx@@QEBAIXZ 000000018001bee0 f i GuMetaData.obj
 0001:0001aef0       ?getBinaryMetaData@BV4Tree@Gu@physx@@SAXAEAVPxOutputStream@3@@Z 000000018001bef0 f   GuMetaData.obj
 0001:0001b490       ?getBinaryMetaData@BV4TriangleMesh@Gu@physx@@SAXAEAVPxOutputStream@3@@Z 000000018001c490 f   GuMetaData.obj
 0001:0001b810       ?getBinaryMetaData@BigConvexData@physx@@SAXAEAVPxOutputStream@2@@Z 000000018001c810 f   GuMetaData.obj
 0001:0001bad0       ?getBinaryMetaData@ConvexMesh@Gu@physx@@SAXAEAVPxOutputStream@3@@Z 000000018001cad0 f   GuMetaData.obj
 0001:0001c160       ?getBinaryMetaData@HeightField@Gu@physx@@SAXAEAVPxOutputStream@3@@Z 000000018001d160 f   GuMetaData.obj
 0001:0001c550       ?getBinaryMetaData@RTree@Gu@physx@@SAXAEAVPxOutputStream@3@@Z 000000018001d550 f   GuMetaData.obj
 0001:0001c880       ?getBinaryMetaData@RTreeTriangleMesh@Gu@physx@@SAXAEAVPxOutputStream@3@@Z 000000018001d880 f   GuMetaData.obj
 0001:0001c960       ?getBinaryMetaData@TriangleMesh@Gu@physx@@SAXAEAVPxOutputStream@3@@Z 000000018001d960 f   GuMetaData.obj
 0001:0001e4a0       ?doSupport@?$SupportLocalImpl@VConvexHullNoScaleV@Gu@physx@@@Gu@physx@@UEBA?AT__m128@@AEBT4@@Z 000000018001f4a0 f i GuMTD.obj
 0001:0001e4f0       ?doSupport@?$SupportLocalImpl@VConvexHullNoScaleV@Gu@physx@@@Gu@physx@@UEBAXAEBT__m128@@AEAT4@1@Z 000000018001f4f0 f i GuMTD.obj
 0001:0001e670       ?populateVerts@?$SupportLocalImpl@VConvexHullNoScaleV@Gu@physx@@@Gu@physx@@UEBAXPEBEIPEBV?$PxVec3T@M@3@PEAT__m128@@@Z 000000018001f670 f i GuMTD.obj
 0001:0001e6b0       ?getInternalData@TriangleMesh@Gu@physx@@UEBA_NAEAUPxTriangleMeshInternalData@3@_N@Z 000000018001f6b0 f   GuTriangleMesh.obj
 0001:0001e6b0       ?isDynamic@Pruner@Gu@physx@@UEBA_NXZ 000000018001f6b0 f   GuIncrementalAABBPruner.obj
 0001:000204f0       ??$gjk@U?$LocalConvex@VCapsuleV@Gu@physx@@@Gu@physx@@U?$LocalConvex@VConvexHullV@Gu@physx@@@23@@Gu@physx@@YA?AW4GjkStatus@01@AEBU?$LocalConvex@VCapsuleV@Gu@physx@@@01@AEBU?$LocalConvex@VConvexHullV@Gu@physx@@@01@AEBT__m128@@2AEAT5@333@Z 00000001800214f0 f i GuMTD.obj
 0001:00021250       ??0SeparatingAxes@Gu@physx@@QEAA@$$QEAV012@@Z 0000000180022250 f i GuMTD.obj
 0001:00021250       ??0SeparatingAxes@Gu@physx@@QEAA@AEBV012@@Z 0000000180022250 f i GuMTD.obj
 0001:00021360       ??0SeparatingAxes@Gu@physx@@QEAA@XZ 0000000180022360 f i GuMTD.obj
 0001:00021370       ??4SeparatingAxes@Gu@physx@@QEAAAEAV012@$$QEAV012@@Z 0000000180022370 f i GuMTD.obj
 0001:00021370       ??4SeparatingAxes@Gu@physx@@QEAAAEAV012@AEBV012@@Z 0000000180022370 f i GuMTD.obj
 0001:00021480       ??_E?$LocalConvex@UCustomConvexV@@@Gu@physx@@UEAAPEAXI@Z 0000000180022480 f i GuGjkQuery.obj
 0001:00021480       ??_E?$LocalConvex@UPointConvexV@@@Gu@physx@@UEAAPEAXI@Z 0000000180022480 f i GuGjkQuery.obj
 0001:00021480       ??_E?$LocalConvex@VBoxV@Gu@physx@@@Gu@physx@@UEAAPEAXI@Z 0000000180022480 f i GuSweepTests.obj
 0001:00021480       ??_E?$LocalConvex@VCapsuleV@Gu@physx@@@Gu@physx@@UEAAPEAXI@Z 0000000180022480 f i GuMTD.obj
 0001:00021480       ??_E?$LocalConvex@VConvexHullNoScaleV@Gu@physx@@@Gu@physx@@UEAAPEAXI@Z 0000000180022480 f i GuPCMContactBoxConvex.obj
 0001:00021480       ??_E?$LocalConvex@VConvexHullV@Gu@physx@@@Gu@physx@@UEAAPEAXI@Z 0000000180022480 f i GuMTD.obj
 0001:00021480       ??_E?$LocalConvex@VTetrahedronV@Gu@physx@@@Gu@physx@@UEAAPEAXI@Z 0000000180022480 f i GuCookingTetrahedronMesh.obj
 0001:00021480       ??_E?$LocalConvex@VTriangleV@Gu@physx@@@Gu@physx@@UEAAPEAXI@Z 0000000180022480 f i GuSweepTests.obj
 0001:00021480       ??_EGjkConvex@Gu@physx@@UEAAPEAXI@Z 0000000180022480 f i GuMTD.obj
 0001:00021480       ??_G?$LocalConvex@UCustomConvexV@@@Gu@physx@@UEAAPEAXI@Z 0000000180022480 f i GuGjkQuery.obj
 0001:00021480       ??_G?$LocalConvex@UPointConvexV@@@Gu@physx@@UEAAPEAXI@Z 0000000180022480 f i GuGjkQuery.obj
 0001:00021480       ??_G?$LocalConvex@VBoxV@Gu@physx@@@Gu@physx@@UEAAPEAXI@Z 0000000180022480 f i GuSweepTests.obj
 0001:00021480       ??_G?$LocalConvex@VCapsuleV@Gu@physx@@@Gu@physx@@UEAAPEAXI@Z 0000000180022480 f i GuMTD.obj
 0001:00021480       ??_G?$LocalConvex@VConvexHullNoScaleV@Gu@physx@@@Gu@physx@@UEAAPEAXI@Z 0000000180022480 f i GuPCMContactBoxConvex.obj
 0001:00021480       ??_G?$LocalConvex@VConvexHullV@Gu@physx@@@Gu@physx@@UEAAPEAXI@Z 0000000180022480 f i GuMTD.obj
 0001:00021480       ??_G?$LocalConvex@VTetrahedronV@Gu@physx@@@Gu@physx@@UEAAPEAXI@Z 0000000180022480 f i GuCookingTetrahedronMesh.obj
 0001:00021480       ??_G?$LocalConvex@VTriangleV@Gu@physx@@@Gu@physx@@UEAAPEAXI@Z 0000000180022480 f i GuSweepTests.obj
 0001:00021480       ??_GGjkConvex@Gu@physx@@UEAAPEAXI@Z 0000000180022480 f i GuMTD.obj
 0001:000255f0       ?getAxes@SeparatingAxes@Gu@physx@@QEBAPEBV?$PxVec3T@M@3@XZ 00000001800265f0 f i GuMTD.obj
 0001:00025600       ?getCenter@?$LocalConvex@UCustomConvexV@@@Gu@physx@@UEBA?AT__m128@@XZ 0000000180026600 f i GuGjkQuery.obj
 0001:00025600       ?getCenter@?$LocalConvex@UPointConvexV@@@Gu@physx@@UEBA?AT__m128@@XZ 0000000180026600 f i GuGjkQuery.obj
 0001:00025600       ?getCenter@?$LocalConvex@VBoxV@Gu@physx@@@Gu@physx@@UEBA?AT__m128@@XZ 0000000180026600 f i GuSweepTests.obj
 0001:00025600       ?getCenter@?$LocalConvex@VCapsuleV@Gu@physx@@@Gu@physx@@UEBA?AT__m128@@XZ 0000000180026600 f i GuMTD.obj
 0001:00025600       ?getCenter@?$LocalConvex@VConvexHullNoScaleV@Gu@physx@@@Gu@physx@@UEBA?AT__m128@@XZ 0000000180026600 f i GuPCMContactBoxConvex.obj
 0001:00025600       ?getCenter@?$LocalConvex@VConvexHullV@Gu@physx@@@Gu@physx@@UEBA?AT__m128@@XZ 0000000180026600 f i GuMTD.obj
 0001:00025600       ?getCenter@?$LocalConvex@VTetrahedronV@Gu@physx@@@Gu@physx@@UEBA?AT__m128@@XZ 0000000180026600 f i GuCookingTetrahedronMesh.obj
 0001:00025600       ?getCenter@?$LocalConvex@VTriangleV@Gu@physx@@@Gu@physx@@UEBA?AT__m128@@XZ 0000000180026600 f i GuSweepTests.obj
 0001:00025610       ?getCount@BuildStats@Gu@physx@@QEBAIXZ 0000000180026610 f i GuBV4Build.obj
 0001:00025610       ?getNbActiveObjects@PruningPool@Gu@physx@@QEBAIXZ 0000000180026610 f i GuIncrementalAABBPrunerCore.obj
 0001:00025610       ?getNumAxes@SeparatingAxes@Gu@physx@@QEBAIXZ 0000000180026610 f i GuMTD.obj
 0001:00025620       ?getSweepMargin@?$LocalConvex@VCapsuleV@Gu@physx@@@Gu@physx@@UEBA?AT__m128@@XZ 0000000180026620 f i GuMTD.obj
 0001:00025620       ?getSweepMargin@?$RelativeConvex@VCapsuleV@Gu@physx@@@Gu@physx@@UEBA?AT__m128@@XZ 0000000180026620 f i GuCCDSweepPrimitives.obj
 0001:00025630       ?getSweepMargin@?$LocalConvex@UCustomConvexV@@@Gu@physx@@UEBA?AT__m128@@XZ 0000000180026630 f i GuGjkQuery.obj
 0001:00025630       ?getSweepMargin@?$LocalConvex@UPointConvexV@@@Gu@physx@@UEBA?AT__m128@@XZ 0000000180026630 f i GuGjkQuery.obj
 0001:00025630       ?getSweepMargin@?$LocalConvex@VBoxV@Gu@physx@@@Gu@physx@@UEBA?AT__m128@@XZ 0000000180026630 f i GuSweepTests.obj
 0001:00025630       ?getSweepMargin@?$LocalConvex@VConvexHullNoScaleV@Gu@physx@@@Gu@physx@@UEBA?AT__m128@@XZ 0000000180026630 f i GuPCMContactBoxConvex.obj
 0001:00025630       ?getSweepMargin@?$LocalConvex@VConvexHullV@Gu@physx@@@Gu@physx@@UEBA?AT__m128@@XZ 0000000180026630 f i GuMTD.obj
 0001:00025630       ?getSweepMargin@?$RelativeConvex@UCustomConvexV@@@Gu@physx@@UEBA?AT__m128@@XZ 0000000180026630 f i GuGjkQuery.obj
 0001:00025630       ?getSweepMargin@?$RelativeConvex@VBoxV@Gu@physx@@@Gu@physx@@UEBA?AT__m128@@XZ 0000000180026630 f i GuOverlapTests.obj
 0001:00025630       ?getSweepMargin@?$RelativeConvex@VConvexHullNoScaleV@Gu@physx@@@Gu@physx@@UEBA?AT__m128@@XZ 0000000180026630 f i GuPCMContactConvexConvex.obj
 0001:00025630       ?getSweepMargin@?$RelativeConvex@VConvexHullV@Gu@physx@@@Gu@physx@@UEBA?AT__m128@@XZ 0000000180026630 f i GuOverlapTests.obj
 0001:00025650       ?getSweepMargin@GjkConvex@Gu@physx@@UEBA?AT__m128@@XZ 0000000180026650 f i GuMTD.obj
 0001:00025670       ?pointConvexDistance@@YA_NAEAV?$PxVec3T@M@physx@@0AEAMAEBV12@PEBVConvexMesh@Gu@2@AEBVPxMeshScale@2@AEBUPxTransformPadded@2@@Z 0000000180026670 f   GuMTD.obj
 0001:000263d0       ?reset@SeparatingAxes@Gu@physx@@QEAAXXZ 00000001800273d0 f i GuMTD.obj
 0001:000263e0       ?support@?$LocalConvex@VCapsuleV@Gu@physx@@@Gu@physx@@UEBA?AT__m128@@AEBT4@@Z 00000001800273e0 f i GuMTD.obj
 0001:00026440       ?support@?$LocalConvex@VCapsuleV@Gu@physx@@@Gu@physx@@UEBA?AT__m128@@AEBT4@AEAH@Z 0000000180027440 f i GuMTD.obj
 0001:000264b0       ?support@?$LocalConvex@VConvexHullV@Gu@physx@@@Gu@physx@@UEBA?AT__m128@@AEBT4@@Z 00000001800274b0 f i GuMTD.obj
 0001:00026590       ?support@?$LocalConvex@VConvexHullV@Gu@physx@@@Gu@physx@@UEBA?AT__m128@@AEBT4@AEAH@Z 0000000180027590 f i GuMTD.obj
 0001:00026660       ?support@GjkConvex@Gu@physx@@UEBA?AT__m128@@AEBT4@@Z 0000000180027660 f i GuMTD.obj
 0001:00026680       ?support@GjkConvex@Gu@physx@@UEBA?AT__m128@@AEBT4@AEAH@Z 0000000180027680 f i GuMTD.obj
 0001:000266a0       ?supportPoint@?$LocalConvex@VCapsuleV@Gu@physx@@@Gu@physx@@UEBA?AT__m128@@H@Z 00000001800276a0 f i GuMTD.obj
 0001:000266d0       ?supportPoint@?$LocalConvex@VConvexHullV@Gu@physx@@@Gu@physx@@UEBA?AT__m128@@H@Z 00000001800276d0 f i GuMTD.obj
 0001:00026720       ?supportPoint@GjkConvex@Gu@physx@@UEBA?AT__m128@@H@Z 0000000180027720 f i GuMTD.obj
 0001:00026740       ?supportPoint@?$RelativeConvex@VBoxV@Gu@physx@@@Gu@physx@@UEBA?AT__m128@@H@Z 0000000180027740 f i GuOverlapTests.obj
 0001:000267b0       ?support@?$RelativeConvex@VBoxV@Gu@physx@@@Gu@physx@@UEBA?AT__m128@@AEBT4@@Z 00000001800277b0 f i GuOverlapTests.obj
 0001:00026830       ?support@?$RelativeConvex@VBoxV@Gu@physx@@@Gu@physx@@UEBA?AT__m128@@AEBT4@AEAH@Z 0000000180027830 f i GuOverlapTests.obj
 0001:000268c0       ?getCenter@?$RelativeConvex@UCustomConvexV@@@Gu@physx@@UEBA?AT__m128@@XZ 00000001800278c0 f i GuGjkQuery.obj
 0001:000268c0       ?getCenter@?$RelativeConvex@VBoxV@Gu@physx@@@Gu@physx@@UEBA?AT__m128@@XZ 00000001800278c0 f i GuOverlapTests.obj
 0001:000268c0       ?getCenter@?$RelativeConvex@VCapsuleV@Gu@physx@@@Gu@physx@@UEBA?AT__m128@@XZ 00000001800278c0 f i GuCCDSweepPrimitives.obj
 0001:000268c0       ?getCenter@?$RelativeConvex@VConvexHullNoScaleV@Gu@physx@@@Gu@physx@@UEBA?AT__m128@@XZ 00000001800278c0 f i GuPCMContactConvexConvex.obj
 0001:000268c0       ?getCenter@?$RelativeConvex@VConvexHullV@Gu@physx@@@Gu@physx@@UEBA?AT__m128@@XZ 00000001800278c0 f i GuOverlapTests.obj
 0001:000268c0       ?getCenter@?$RelativeConvex@VTriangleV@Gu@physx@@@Gu@physx@@UEBA?AT__m128@@XZ 00000001800278c0 f i GuCCDSweepPrimitives.obj
 0001:00026900       ??_E?$RelativeConvex@UCustomConvexV@@@Gu@physx@@UEAAPEAXI@Z 0000000180027900 f i GuGjkQuery.obj
 0001:00026900       ??_E?$RelativeConvex@VBoxV@Gu@physx@@@Gu@physx@@UEAAPEAXI@Z 0000000180027900 f i GuOverlapTests.obj
 0001:00026900       ??_E?$RelativeConvex@VCapsuleV@Gu@physx@@@Gu@physx@@UEAAPEAXI@Z 0000000180027900 f i GuCCDSweepPrimitives.obj
 0001:00026900       ??_E?$RelativeConvex@VConvexHullNoScaleV@Gu@physx@@@Gu@physx@@UEAAPEAXI@Z 0000000180027900 f i GuPCMContactConvexConvex.obj
 0001:00026900       ??_E?$RelativeConvex@VConvexHullV@Gu@physx@@@Gu@physx@@UEAAPEAXI@Z 0000000180027900 f i GuOverlapTests.obj
 0001:00026900       ??_E?$RelativeConvex@VTriangleV@Gu@physx@@@Gu@physx@@UEAAPEAXI@Z 0000000180027900 f i GuCCDSweepPrimitives.obj
 0001:00026900       ??_G?$RelativeConvex@UCustomConvexV@@@Gu@physx@@UEAAPEAXI@Z 0000000180027900 f i GuGjkQuery.obj
 0001:00026900       ??_G?$RelativeConvex@VBoxV@Gu@physx@@@Gu@physx@@UEAAPEAXI@Z 0000000180027900 f i GuOverlapTests.obj
 0001:00026900       ??_G?$RelativeConvex@VCapsuleV@Gu@physx@@@Gu@physx@@UEAAPEAXI@Z 0000000180027900 f i GuCCDSweepPrimitives.obj
 0001:00026900       ??_G?$RelativeConvex@VConvexHullNoScaleV@Gu@physx@@@Gu@physx@@UEAAPEAXI@Z 0000000180027900 f i GuPCMContactConvexConvex.obj
 0001:00026900       ??_G?$RelativeConvex@VConvexHullV@Gu@physx@@@Gu@physx@@UEAAPEAXI@Z 0000000180027900 f i GuOverlapTests.obj
 0001:00026900       ??_G?$RelativeConvex@VTriangleV@Gu@physx@@@Gu@physx@@UEAAPEAXI@Z 0000000180027900 f i GuCCDSweepPrimitives.obj
 0001:00028a80       ?supportPoint@?$RelativeConvex@VConvexHullV@Gu@physx@@@Gu@physx@@UEBA?AT__m128@@H@Z 0000000180029a80 f i GuOverlapTests.obj
 0001:00028b00       ?support@?$RelativeConvex@VConvexHullV@Gu@physx@@@Gu@physx@@UEBA?AT__m128@@AEBT4@@Z 0000000180029b00 f i GuOverlapTests.obj
 0001:00028c30       ?support@?$RelativeConvex@VConvexHullV@Gu@physx@@@Gu@physx@@UEBA?AT__m128@@AEBT4@AEAH@Z 0000000180029c30 f i GuOverlapTests.obj
 0001:00028dc0       ??$gjk@U?$RelativeConvex@VBoxV@Gu@physx@@@Gu@physx@@U?$LocalConvex@VConvexHullV@Gu@physx@@@23@@Gu@physx@@YA?AW4GjkStatus@01@AEBU?$RelativeConvex@VBoxV@Gu@physx@@@01@AEBU?$LocalConvex@VConvexHullV@Gu@physx@@@01@AEBT__m128@@2AEAT5@333@Z 0000000180029dc0 f i GuOverlapTests.obj
 0001:00029b70       ??$gjk@U?$RelativeConvex@VConvexHullV@Gu@physx@@@Gu@physx@@U?$LocalConvex@VConvexHullV@Gu@physx@@@23@@Gu@physx@@YA?AW4GjkStatus@01@AEBU?$RelativeConvex@VConvexHullV@Gu@physx@@@01@AEBU?$LocalConvex@VConvexHullV@Gu@physx@@@01@AEBT__m128@@2AEAT5@333@Z 000000018002ab70 f i GuOverlapTests.obj
 0001:0002a9f0       ?ComputeCubemapNearestOffset@physx@@YAIAEBV?$PxVec3T@M@1@I@Z 000000018002b9f0 f i GuOverlapTests.obj
 0001:0002aaf0       ?getOverlapFuncTable@Gu@physx@@YAPEAY0L@Q6A_NAEBVPxGeometry@2@AEBV?$PxTransformT@M@2@01PEAUTriggerCache@12@PEAUPxQueryThreadContext@2@@ZXZ 000000018002baf0 f   GuOverlapTests.obj
 0001:0002c6b0       ?raycast_box@@YAIAEBVPxGeometry@physx@@AEBV?$PxTransformT@M@2@AEBV?$PxVec3T@M@2@2MV?$PxFlags@W4Enum@PxHitFlag@physx@@G@2@IPEIAUPxGeomRaycastHit@2@IPEAUPxQueryThreadContext@2@@Z 000000018002d6b0 f   GuRaycastTests.obj
 0001:0002cce0       ?raycast_sphere@@YAIAEBVPxGeometry@physx@@AEBV?$PxTransformT@M@2@AEBV?$PxVec3T@M@2@2MV?$PxFlags@W4Enum@PxHitFlag@physx@@G@2@IPEIAUPxGeomRaycastHit@2@IPEAUPxQueryThreadContext@2@@Z 000000018002dce0 f   GuRaycastTests.obj
 0001:0002ce70       ?raycast_capsule@@YAIAEBVPxGeometry@physx@@AEBV?$PxTransformT@M@2@AEBV?$PxVec3T@M@2@2MV?$PxFlags@W4Enum@PxHitFlag@physx@@G@2@IPEIAUPxGeomRaycastHit@2@IPEAUPxQueryThreadContext@2@@Z 000000018002de70 f   GuRaycastTests.obj
 0001:0002d3d0       ?raycast_plane@@YAIAEBVPxGeometry@physx@@AEBV?$PxTransformT@M@2@AEBV?$PxVec3T@M@2@2MV?$PxFlags@W4Enum@PxHitFlag@physx@@G@2@IPEIAUPxGeomRaycastHit@2@IPEAUPxQueryThreadContext@2@@Z 000000018002e3d0 f   GuRaycastTests.obj
 0001:0002d540       ?raycast_convexMesh@@YAIAEBVPxGeometry@physx@@AEBV?$PxTransformT@M@2@AEBV?$PxVec3T@M@2@2MV?$PxFlags@W4Enum@PxHitFlag@physx@@G@2@IPEIAUPxGeomRaycastHit@2@IPEAUPxQueryThreadContext@2@@Z 000000018002e540 f   GuRaycastTests.obj
 0001:0002e040       ?getMidphaseID@RTreeTriangleMesh@Gu@physx@@UEBA?AW4Enum@PxMeshMidPhase@3@XZ 000000018002f040 f   GuTriangleMeshRTree.obj
 0001:0002e040       ?getMidphaseID@RTreeTriangleMeshBuilder@physx@@UEBA?AW4Enum@PxMeshMidPhase@2@XZ 000000018002f040 f   GuCookingTriangleMesh.obj
 0001:0002e040       ?getTetrahedraRemap@TetrahedronMesh@Gu@physx@@UEBAPEBIXZ 000000018002f040 f   GuTetrahedronMesh.obj
 0001:0002e040       ?raycast_hairsystem@@YAIAEBVPxGeometry@physx@@AEBV?$PxTransformT@M@2@AEBV?$PxVec3T@M@2@2MV?$PxFlags@W4Enum@PxHitFlag@physx@@G@2@IPEIAUPxGeomRaycastHit@2@IPEAUPxQueryThreadContext@2@@Z 000000018002f040 f   GuRaycastTests.obj
 0001:0002e040       ?raycast_particlesystem@@YAIAEBVPxGeometry@physx@@AEBV?$PxTransformT@M@2@AEBV?$PxVec3T@M@2@2MV?$PxFlags@W4Enum@PxHitFlag@physx@@G@2@IPEIAUPxGeomRaycastHit@2@IPEAUPxQueryThreadContext@2@@Z 000000018002f040 f   GuRaycastTests.obj
 0001:0002e040       ?raycast_softbody@@YAIAEBVPxGeometry@physx@@AEBV?$PxTransformT@M@2@AEBV?$PxVec3T@M@2@2MV?$PxFlags@W4Enum@PxHitFlag@physx@@G@2@IPEIAUPxGeomRaycastHit@2@IPEAUPxQueryThreadContext@2@@Z 000000018002f040 f   GuRaycastTests.obj
 0001:0002e050       ?raycast_triangleMesh@@YAIAEBVPxGeometry@physx@@AEBV?$PxTransformT@M@2@AEBV?$PxVec3T@M@2@2MV?$PxFlags@W4Enum@PxHitFlag@physx@@G@2@IPEIAUPxGeomRaycastHit@2@IPEAUPxQueryThreadContext@2@@Z 000000018002f050 f   GuRaycastTests.obj
 0001:0002e0e0       ?raycast_heightField@@YAIAEBVPxGeometry@physx@@AEBV?$PxTransformT@M@2@AEBV?$PxVec3T@M@2@2MV?$PxFlags@W4Enum@PxHitFlag@physx@@G@2@IPEIAUPxGeomRaycastHit@2@IPEAUPxQueryThreadContext@2@@Z 000000018002f0e0 f   GuRaycastTests.obj
 0001:0002fb30       ??Dphysx@@YA?AV?$PxMat34T@M@0@AEBVPxMeshScale@0@AEBV?$PxTransformT@M@0@@Z 0000000180030b30 f i GuRaycastTests.obj
 0001:00030620       ?getRaycastFuncTable@Gu@physx@@YAAEAY0L@Q6AIAEBVPxGeometry@2@AEBV?$PxTransformT@M@2@AEBV?$PxVec3T@M@2@2MV?$PxFlags@W4Enum@PxHitFlag@physx@@G@2@IPEIAUPxGeomRaycastHit@2@IPEAUPxQueryThreadContext@2@@ZXZ 0000000180031620 f   GuRaycastTests.obj
 0001:00030630       ??Dphysx@@YA?AV?$PxMat34T@M@0@AEBV?$PxTransformT@M@0@AEBVPxMeshScale@0@@Z 0000000180031630 f i GuSweepMTD.obj
 0001:00030b80       ??_E?$MeshHitCallback@UPxGeomRaycastHit@physx@@@Gu@physx@@UEAAPEAXI@Z 0000000180031b80 f i GuSweepMTD.obj
 0001:00030b80       ??_G?$MeshHitCallback@UPxGeomRaycastHit@physx@@@Gu@physx@@UEAAPEAXI@Z 0000000180031b80 f i GuSweepMTD.obj
 0001:00030bb0       ??_EMeshMTDGenerationCallback@@UEAAPEAXI@Z 0000000180031bb0 f i GuSweepMTD.obj
 0001:00030bb0       ??_GMeshMTDGenerationCallback@@UEAAPEAXI@Z 0000000180031bb0 f i GuSweepMTD.obj
 0001:00030be0       ??_EMidPhaseQueryLocalReport@@UEAAPEAXI@Z 0000000180031be0 f i GuSweepMTD.obj
 0001:00030be0       ??_ERTreeCookerRemap@@UEAAPEAXI@Z 0000000180031be0 f i GuCookingTriangleMesh.obj
 0001:00030be0       ??_GMidPhaseQueryLocalReport@@UEAAPEAXI@Z 0000000180031be0 f i GuSweepMTD.obj
 0001:00030be0       ??_GRTreeCookerRemap@@UEAAPEAXI@Z 0000000180031be0 f i GuCookingTriangleMesh.obj
 0001:00030c10       ?allocate@?$PxArray@IV?$PxReflectionAllocator@I@physx@@@physx@@IEAAPEAII@Z 0000000180031c10 f i GuSweepMTD.obj
 0001:00030cc0       ?computeBox_HeightFieldMTD@Gu@physx@@YA_NAEBVPxHeightFieldGeometry@2@AEBV?$PxTransformT@M@2@AEBVBox@12@1M_NAEAUPxGeomSweepHit@2@@Z 0000000180031cc0 f   GuSweepMTD.obj
 0001:00031a80       ?computeBox_TriangleMeshMTD@Gu@physx@@YA_NAEBVPxTriangleMeshGeometry@2@AEBV?$PxTransformT@M@2@AEBVBox@12@1M_NAEAUPxGeomSweepHit@2@@Z 0000000180032a80 f   GuSweepMTD.obj
 0001:00032ac0       ?computeCapsule_CapsuleMTD@Gu@physx@@YA_NAEBVCapsule@12@0AEAUPxGeomSweepHit@2@@Z 0000000180033ac0 f   GuSweepMTD.obj
 0001:00032d00       ?computeCapsule_HeightFieldMTD@Gu@physx@@YA_NAEBVPxHeightFieldGeometry@2@AEBV?$PxTransformT@M@2@AEAVCapsuleV@12@M_NAEAUPxGeomSweepHit@2@@Z 0000000180033d00 f   GuSweepMTD.obj
 0001:000334d0       ?computeCapsule_TriangleMeshMTD@Gu@physx@@YA_NAEBVPxTriangleMeshGeometry@2@AEBV?$PxTransformT@M@2@AEAVCapsuleV@12@M_NAEAUPxGeomSweepHit@2@@Z 00000001800344d0 f   GuSweepMTD.obj
 0001:00033d80       ?computeConvex_HeightFieldMTD@Gu@physx@@YA_NAEBVPxHeightFieldGeometry@2@AEBV?$PxTransformT@M@2@AEBVPxConvexMeshGeometry@2@1M_NAEAUPxGeomSweepHit@2@@Z 0000000180034d80 f   GuSweepMTD.obj
 0001:00035050       ?computeConvex_TriangleMeshMTD@Gu@physx@@YA_NAEBVPxTriangleMeshGeometry@2@AEBV?$PxTransformT@M@2@AEBVPxConvexMeshGeometry@2@1M_NAEAUPxGeomSweepHit@2@@Z 0000000180036050 f   GuSweepMTD.obj
 0001:00036650       ?computePlane_BoxMTD@Gu@physx@@YA_NAEBVPxPlane@2@AEBVBox@12@AEAUPxGeomSweepHit@2@@Z 0000000180037650 f   GuSweepMTD.obj
 0001:000368f0       ?computePlane_CapsuleMTD@Gu@physx@@YA_NAEBVPxPlane@2@AEBVCapsule@12@AEAUPxGeomSweepHit@2@@Z 00000001800378f0 f   GuSweepMTD.obj
 0001:00036a00       ?computePlane_ConvexMTD@Gu@physx@@YA_NAEBVPxPlane@2@AEBVPxConvexMeshGeometry@2@AEBV?$PxTransformT@M@2@AEAUPxGeomSweepHit@2@@Z 0000000180037a00 f   GuSweepMTD.obj
 0001:000375c0       ?computeSphere_CapsuleMTD@Gu@physx@@YA_NAEBVSphere@12@AEBVCapsule@12@AEAUPxGeomSweepHit@2@@Z 00000001800385c0 f   GuSweepMTD.obj
 0001:00037770       ?computeSphere_SphereMTD@Gu@physx@@YA_NAEBVSphere@12@0AEAUPxGeomSweepHit@2@@Z 0000000180038770 f   GuSweepMTD.obj
 0001:00037860       ?getInverse@?$PxMat33T@M@physx@@QEBA?BV12@XZ 0000000180038860 f i GuSweepMTD.obj
 0001:00037ab0       ?growAndPushBack@?$PxArray@IV?$PxReflectionAllocator@I@physx@@@physx@@IEAAAEAIAEBI@Z 0000000180038ab0 f i GuSweepMTD.obj
 0001:00037b70       ?init@FastVertex2ShapeScaling@Cm@physx@@QEAAXAEBV?$PxVec3T@M@3@AEBV?$PxQuatT@M@3@@Z 0000000180038b70 f i GuSweepMTD.obj
 0001:00038480       ?processHit@MeshMTDGenerationCallback@@UEAA_NAEBUPxGeomRaycastHit@physx@@AEBV?$PxVec3T@M@3@11AEAMPEBI@Z 0000000180039480 f i GuSweepMTD.obj
 0001:000384d0       ?recreate@?$PxArray@IV?$PxReflectionAllocator@I@physx@@@physx@@IEAAXI@Z 00000001800394d0 f i GuSweepMTD.obj
 0001:00038570       ?reportTouchedTris@MidPhaseQueryLocalReport@@UEAA_NIPEBI@Z 0000000180039570 f i GuSweepMTD.obj
 0001:000385e0       ??$gjkPenetration@U?$LocalConvex@VCapsuleV@Gu@physx@@@Gu@physx@@U?$LocalConvex@VConvexHullV@Gu@physx@@@23@@Gu@physx@@YA?AW4GjkStatus@01@AEBU?$LocalConvex@VCapsuleV@Gu@physx@@@01@AEBU?$LocalConvex@VConvexHullV@Gu@physx@@@01@AEBT__m128@@2_NPEIAE4AEAEAEAUGjkOutput@01@@Z 00000001800395e0 f i GuSweepSharedTests.obj
 0001:00038650       ??$gjkPenetration@U?$LocalConvex@VCapsuleV@Gu@physx@@@Gu@physx@@U?$LocalConvex@VConvexHullV@Gu@physx@@@23@@Gu@physx@@YA?AW4GjkStatus@01@AEBU?$LocalConvex@VCapsuleV@Gu@physx@@@01@AEBU?$LocalConvex@VConvexHullV@Gu@physx@@@01@AEBT__m128@@2_NPEIAE4PEIAT5@5AEAEAEAUGjkOutput@01@@Z 0000000180039650 f i GuSweepSharedTests.obj
 0001:00039b80       ??$gjkPenetration@U?$RelativeConvex@VBoxV@Gu@physx@@@Gu@physx@@U?$LocalConvex@VConvexHullV@Gu@physx@@@23@@Gu@physx@@YA?AW4GjkStatus@01@AEBU?$RelativeConvex@VBoxV@Gu@physx@@@01@AEBU?$LocalConvex@VConvexHullV@Gu@physx@@@01@AEBT__m128@@2_NPEIAE4AEAEAEAUGjkOutput@01@@Z 000000018003ab80 f i GuSweepSharedTests.obj
 0001:00039bf0       ??$gjkPenetration@U?$RelativeConvex@VBoxV@Gu@physx@@@Gu@physx@@U?$LocalConvex@VConvexHullV@Gu@physx@@@23@@Gu@physx@@YA?AW4GjkStatus@01@AEBU?$RelativeConvex@VBoxV@Gu@physx@@@01@AEBU?$LocalConvex@VConvexHullV@Gu@physx@@@01@AEBT__m128@@2_NPEIAE4PEIAT5@5AEAEAEAUGjkOutput@01@@Z 000000018003abf0 f i GuSweepSharedTests.obj
 0001:0003b160       ??$gjkPenetration@U?$RelativeConvex@VConvexHullV@Gu@physx@@@Gu@physx@@U?$LocalConvex@VConvexHullV@Gu@physx@@@23@@Gu@physx@@YA?AW4GjkStatus@01@AEBU?$RelativeConvex@VConvexHullV@Gu@physx@@@01@AEBU?$LocalConvex@VConvexHullV@Gu@physx@@@01@AEBT__m128@@2_NPEIAE4AEAEAEAUGjkOutput@01@@Z 000000018003c160 f i GuSweepSharedTests.obj
 0001:0003b1d0       ??$gjkPenetration@U?$RelativeConvex@VConvexHullV@Gu@physx@@@Gu@physx@@U?$LocalConvex@VConvexHullV@Gu@physx@@@23@@Gu@physx@@YA?AW4GjkStatus@01@AEBU?$RelativeConvex@VConvexHullV@Gu@physx@@@01@AEBU?$LocalConvex@VConvexHullV@Gu@physx@@@01@AEBT__m128@@2_NPEIAE4PEIAT5@5AEAEAEAUGjkOutput@01@@Z 000000018003c1d0 f i GuSweepSharedTests.obj
 0001:0003c7f0       ??$gjkRaycast@U?$LocalConvex@VCapsuleV@Gu@physx@@@Gu@physx@@U?$LocalConvex@VConvexHullV@Gu@physx@@@23@@Gu@physx@@YA_NAEBU?$LocalConvex@VCapsuleV@Gu@physx@@@01@AEBU?$LocalConvex@VConvexHullV@Gu@physx@@@01@AEBT__m128@@222AEAT4@33M@Z 000000018003d7f0 f i GuSweepSharedTests.obj
 0001:0003d540       ??$gjkRaycast@U?$RelativeConvex@VBoxV@Gu@physx@@@Gu@physx@@U?$LocalConvex@VConvexHullV@Gu@physx@@@23@@Gu@physx@@YA_NAEBU?$RelativeConvex@VBoxV@Gu@physx@@@01@AEBU?$LocalConvex@VConvexHullV@Gu@physx@@@01@AEBT__m128@@222AEAT4@33M@Z 000000018003e540 f i GuSweepSharedTests.obj
 0001:0003e330       ??$gjkRaycast@U?$RelativeConvex@VConvexHullV@Gu@physx@@@Gu@physx@@U?$LocalConvex@VConvexHullV@Gu@physx@@@23@@Gu@physx@@YA_NAEBU?$RelativeConvex@VConvexHullV@Gu@physx@@@01@AEBU?$LocalConvex@VConvexHullV@Gu@physx@@@01@AEBT__m128@@222AEAT4@33M@Z 000000018003f330 f i GuSweepSharedTests.obj
 0001:0003f110       ??$gjkRaycastPenetration@U?$RelativeConvex@VConvexHullV@Gu@physx@@@Gu@physx@@U?$LocalConvex@VConvexHullV@Gu@physx@@@23@@Gu@physx@@YA_NAEBU?$RelativeConvex@VConvexHullV@Gu@physx@@@01@AEBU?$LocalConvex@VConvexHullV@Gu@physx@@@01@AEBT__m128@@222AEAT4@33M_N@Z 0000000180040110 f i GuSweepSharedTests.obj
 0001:0003fce0       ?sweepBox_ConvexGeom@@YA_NAEBVPxGeometry@physx@@AEBV?$PxTransformT@M@2@AEBVPxBoxGeometry@2@1AEBVBox@Gu@2@AEBV?$PxVec3T@M@2@MAEAUPxGeomSweepHit@2@V?$PxFlags@W4Enum@PxHitFlag@physx@@G@2@MPEAUPxQueryThreadContext@2@@Z 0000000180040ce0 f   GuSweepSharedTests.obj
 0001:00040b00       ?sweepBox_PlaneGeom@@YA_NAEBVPxGeometry@physx@@AEBV?$PxTransformT@M@2@AEBVPxBoxGeometry@2@1AEBVBox@Gu@2@AEBV?$PxVec3T@M@2@MAEAUPxGeomSweepHit@2@V?$PxFlags@W4Enum@PxHitFlag@physx@@G@2@MPEAUPxQueryThreadContext@2@@Z 0000000180041b00 f   GuSweepSharedTests.obj
 0001:00040ed0       ?sweepCapsuleTriangles@Gu@physx@@YA_NIPEBVPxTriangle@2@_NAEBVPxCapsuleGeometry@2@AEBV?$PxTransformT@M@2@AEBV?$PxVec3T@M@2@MAEAUPxGeomSweepHit@2@PEBIMV?$PxFlags@W4Enum@PxHitFlag@physx@@G@2@@Z 0000000180041ed0 f   GuSweepSharedTests.obj
 0001:000410c0       ?sweepCapsule_CapsuleGeom@@YA_NAEBVPxGeometry@physx@@AEBV?$PxTransformT@M@2@AEBVPxCapsuleGeometry@2@1AEBVCapsule@Gu@2@AEBV?$PxVec3T@M@2@MAEAUPxGeomSweepHit@2@V?$PxFlags@W4Enum@PxHitFlag@physx@@G@2@MPEAUPxQueryThreadContext@2@@Z 00000001800420c0 f   GuSweepSharedTests.obj
 0001:000412a0       ?sweepCapsule_ConvexGeom@@YA_NAEBVPxGeometry@physx@@AEBV?$PxTransformT@M@2@AEBVPxCapsuleGeometry@2@1AEBVCapsule@Gu@2@AEBV?$PxVec3T@M@2@MAEAUPxGeomSweepHit@2@V?$PxFlags@W4Enum@PxHitFlag@physx@@G@2@MPEAUPxQueryThreadContext@2@@Z 00000001800422a0 f   GuSweepSharedTests.obj
 0001:00041fd0       ?sweepCapsule_PlaneGeom@@YA_NAEBVPxGeometry@physx@@AEBV?$PxTransformT@M@2@AEBVPxCapsuleGeometry@2@1AEBVCapsule@Gu@2@AEBV?$PxVec3T@M@2@MAEAUPxGeomSweepHit@2@V?$PxFlags@W4Enum@PxHitFlag@physx@@G@2@MPEAUPxQueryThreadContext@2@@Z 0000000180042fd0 f   GuSweepSharedTests.obj
 0001:000422b0       ?sweepCapsule_SphereGeom@@YA_NAEBVPxGeometry@physx@@AEBV?$PxTransformT@M@2@AEBVPxCapsuleGeometry@2@1AEBVCapsule@Gu@2@AEBV?$PxVec3T@M@2@MAEAUPxGeomSweepHit@2@V?$PxFlags@W4Enum@PxHitFlag@physx@@G@2@MPEAUPxQueryThreadContext@2@@Z 00000001800432b0 f   GuSweepSharedTests.obj
 0001:00042450       ?sweepConvex_BoxGeom@@YA_NAEBVPxGeometry@physx@@AEBV?$PxTransformT@M@2@AEBVPxConvexMeshGeometry@2@1AEBV?$PxVec3T@M@2@MAEAUPxGeomSweepHit@2@V?$PxFlags@W4Enum@PxHitFlag@physx@@G@2@MPEAUPxQueryThreadContext@2@@Z 0000000180043450 f   GuSweepSharedTests.obj
 0001:00042670       ?sweepConvex_CapsuleGeom@@YA_NAEBVPxGeometry@physx@@AEBV?$PxTransformT@M@2@AEBVPxConvexMeshGeometry@2@1AEBV?$PxVec3T@M@2@MAEAUPxGeomSweepHit@2@V?$PxFlags@W4Enum@PxHitFlag@physx@@G@2@MPEAUPxQueryThreadContext@2@@Z 0000000180043670 f   GuSweepSharedTests.obj
 0001:000428a0       ?sweepConvex_ConvexGeom@@YA_NAEBVPxGeometry@physx@@AEBV?$PxTransformT@M@2@AEBVPxConvexMeshGeometry@2@1AEBV?$PxVec3T@M@2@MAEAUPxGeomSweepHit@2@V?$PxFlags@W4Enum@PxHitFlag@physx@@G@2@MPEAUPxQueryThreadContext@2@@Z 00000001800438a0 f   GuSweepSharedTests.obj
 0001:00043880       ?sweepConvex_PlaneGeom@@YA_NAEBVPxGeometry@physx@@AEBV?$PxTransformT@M@2@AEBVPxConvexMeshGeometry@2@1AEBV?$PxVec3T@M@2@MAEAUPxGeomSweepHit@2@V?$PxFlags@W4Enum@PxHitFlag@physx@@G@2@MPEAUPxQueryThreadContext@2@@Z 0000000180044880 f   GuSweepSharedTests.obj
 0001:00043cc0       ?sweepConvex_SphereGeom@@YA_NAEBVPxGeometry@physx@@AEBV?$PxTransformT@M@2@AEBVPxConvexMeshGeometry@2@1AEBV?$PxVec3T@M@2@MAEAUPxGeomSweepHit@2@V?$PxFlags@W4Enum@PxHitFlag@physx@@G@2@MPEAUPxQueryThreadContext@2@@Z 0000000180044cc0 f   GuSweepSharedTests.obj
 0001:000448c0       ?sweepCapsule_BoxGeom@@YA_NAEBVPxGeometry@physx@@AEBV?$PxTransformT@M@2@AEBVPxCapsuleGeometry@2@1AEBVCapsule@Gu@2@AEBV?$PxVec3T@M@2@MAEAUPxGeomSweepHit@2@V?$PxFlags@W4Enum@PxHitFlag@physx@@G@2@MPEAUPxQueryThreadContext@2@@Z 00000001800458c0 f   GuSweepTests.obj
 0001:00045180       ?sweepBox_SphereGeom@@YA_NAEBVPxGeometry@physx@@AEBV?$PxTransformT@M@2@AEBVPxBoxGeometry@2@1AEBVBox@Gu@2@AEBV?$PxVec3T@M@2@MAEAUPxGeomSweepHit@2@V?$PxFlags@W4Enum@PxHitFlag@physx@@G@2@MPEAUPxQueryThreadContext@2@@Z 0000000180046180 f   GuSweepTests.obj
 0001:00045860       ?sweepBox_CapsuleGeom@@YA_NAEBVPxGeometry@physx@@AEBV?$PxTransformT@M@2@AEBVPxBoxGeometry@2@1AEBVBox@Gu@2@AEBV?$PxVec3T@M@2@MAEAUPxGeomSweepHit@2@V?$PxFlags@W4Enum@PxHitFlag@physx@@G@2@MPEAUPxQueryThreadContext@2@@Z 0000000180046860 f   GuSweepTests.obj
 0001:00046130       ?sweepBox_BoxGeom@@YA_NAEBVPxGeometry@physx@@AEBV?$PxTransformT@M@2@AEBVPxBoxGeometry@2@1AEBVBox@Gu@2@AEBV?$PxVec3T@M@2@MAEAUPxGeomSweepHit@2@V?$PxFlags@W4Enum@PxHitFlag@physx@@G@2@MPEAUPxQueryThreadContext@2@@Z 0000000180047130 f   GuSweepTests.obj
 0001:00046b30       ??$gjkPenetration@U?$LocalConvex@VCapsuleV@Gu@physx@@@Gu@physx@@U?$LocalConvex@VBoxV@Gu@physx@@@23@@Gu@physx@@YA?AW4GjkStatus@01@AEBU?$LocalConvex@VCapsuleV@Gu@physx@@@01@AEBU?$LocalConvex@VBoxV@Gu@physx@@@01@AEBT__m128@@2_NPEIAE4AEAEAEAUGjkOutput@01@@Z 0000000180047b30 f i GuSweepTests.obj
 0001:00046ba0       ??$gjkPenetration@U?$LocalConvex@VCapsuleV@Gu@physx@@@Gu@physx@@U?$LocalConvex@VBoxV@Gu@physx@@@23@@Gu@physx@@YA?AW4GjkStatus@01@AEBU?$LocalConvex@VCapsuleV@Gu@physx@@@01@AEBU?$LocalConvex@VBoxV@Gu@physx@@@01@AEBT__m128@@2_NPEIAE4PEIAT5@5AEAEAEAUGjkOutput@01@@Z 0000000180047ba0 f i GuSweepTests.obj
 0001:00048020       ??$gjkPenetration@U?$RelativeConvex@VBoxV@Gu@physx@@@Gu@physx@@U?$LocalConvex@VBoxV@Gu@physx@@@23@@Gu@physx@@YA?AW4GjkStatus@01@AEBU?$RelativeConvex@VBoxV@Gu@physx@@@01@AEBU?$LocalConvex@VBoxV@Gu@physx@@@01@AEBT__m128@@2_NPEIAE4AEAEAEAUGjkOutput@01@@Z 0000000180049020 f i GuSweepTests.obj
 0001:00048090       ??$gjkPenetration@U?$RelativeConvex@VBoxV@Gu@physx@@@Gu@physx@@U?$LocalConvex@VBoxV@Gu@physx@@@23@@Gu@physx@@YA?AW4GjkStatus@01@AEBU?$RelativeConvex@VBoxV@Gu@physx@@@01@AEBU?$LocalConvex@VBoxV@Gu@physx@@@01@AEBT__m128@@2_NPEIAE4PEIAT5@5AEAEAEAUGjkOutput@01@@Z 0000000180049090 f i GuSweepTests.obj
 0001:00049540       ??$gjkRaycast@U?$LocalConvex@VCapsuleV@Gu@physx@@@Gu@physx@@U?$LocalConvex@VBoxV@Gu@physx@@@23@@Gu@physx@@YA_NAEBU?$LocalConvex@VCapsuleV@Gu@physx@@@01@AEBU?$LocalConvex@VBoxV@Gu@physx@@@01@AEBT__m128@@222AEAT4@33M@Z 000000018004a540 f i GuSweepTests.obj
 0001:0004a110       ??$gjkRaycast@U?$LocalConvex@VTriangleV@Gu@physx@@@Gu@physx@@U?$LocalConvex@VBoxV@Gu@physx@@@23@@Gu@physx@@YA_NAEBU?$LocalConvex@VTriangleV@Gu@physx@@@01@AEBU?$LocalConvex@VBoxV@Gu@physx@@@01@AEBT__m128@@222AEAT4@33M@Z 000000018004b110 f i GuSweepTests.obj
 0001:0004ad60       ??$gjkRaycast@U?$RelativeConvex@VBoxV@Gu@physx@@@Gu@physx@@U?$LocalConvex@VBoxV@Gu@physx@@@23@@Gu@physx@@YA_NAEBU?$RelativeConvex@VBoxV@Gu@physx@@@01@AEBU?$LocalConvex@VBoxV@Gu@physx@@@01@AEBT__m128@@222AEAT4@33M@Z 000000018004bd60 f i GuSweepTests.obj
 0001:0004b990       ?getSweepFuncTable@Gu@physx@@YAAEBUGeomSweepFuncs@12@XZ 000000018004c990 f   GuSweepTests.obj
 0001:0004b9a0       ?getSweepMargin@?$LocalConvex@VTetrahedronV@Gu@physx@@@Gu@physx@@UEBA?AT__m128@@XZ 000000018004c9a0 f i GuCookingTetrahedronMesh.obj
 0001:0004b9a0       ?getSweepMargin@?$LocalConvex@VTriangleV@Gu@physx@@@Gu@physx@@UEBA?AT__m128@@XZ 000000018004c9a0 f i GuSweepTests.obj
 0001:0004b9a0       ?getSweepMargin@?$RelativeConvex@VTriangleV@Gu@physx@@@Gu@physx@@UEBA?AT__m128@@XZ 000000018004c9a0 f i GuCCDSweepPrimitives.obj
 0001:0004b9b0       ?support@?$LocalConvex@VBoxV@Gu@physx@@@Gu@physx@@UEBA?AT__m128@@AEBT4@@Z 000000018004c9b0 f i GuSweepTests.obj
 0001:0004b9e0       ?support@?$LocalConvex@VBoxV@Gu@physx@@@Gu@physx@@UEBA?AT__m128@@AEBT4@AEAH@Z 000000018004c9e0 f i GuSweepTests.obj
 0001:0004ba20       ?support@?$LocalConvex@VTriangleV@Gu@physx@@@Gu@physx@@UEBA?AT__m128@@AEBT4@@Z 000000018004ca20 f i GuSweepTests.obj
 0001:0004bab0       ?support@?$LocalConvex@VTriangleV@Gu@physx@@@Gu@physx@@UEBA?AT__m128@@AEBT4@AEAH@Z 000000018004cab0 f i GuSweepTests.obj
 0001:0004bb90       ?supportPoint@?$LocalConvex@VBoxV@Gu@physx@@@Gu@physx@@UEBA?AT__m128@@H@Z 000000018004cb90 f i GuSweepTests.obj
 0001:0004bbd0       ?supportPoint@?$LocalConvex@VTetrahedronV@Gu@physx@@@Gu@physx@@UEBA?AT__m128@@H@Z 000000018004cbd0 f i GuCookingTetrahedronMesh.obj
 0001:0004bbd0       ?supportPoint@?$LocalConvex@VTriangleV@Gu@physx@@@Gu@physx@@UEBA?AT__m128@@H@Z 000000018004cbd0 f i GuSweepTests.obj
 0001:0004bbf0       ?sweepBoxTriangles@Gu@physx@@YA_NIPEBVPxTriangle@2@_NAEBVPxBoxGeometry@2@AEBV?$PxTransformT@M@2@AEBV?$PxVec3T@M@2@MAEAUPxGeomSweepHit@2@PEBIMV?$PxFlags@W4Enum@PxHitFlag@physx@@G@2@@Z 000000018004cbf0 f   GuSweepTests.obj
 0001:0004c670       ??$PxSmallSort@H$$CBU?$Comparer@V?$PxVec3T@M@physx@@@MeshAnalyzer@Gu@physx@@@physx@@YAXPEAHHHAEBU?$Comparer@V?$PxVec3T@M@physx@@@MeshAnalyzer@Gu@0@@Z 000000018004d670 f i GuSDF.obj
 0001:0004c890       ??$PxSort@HU?$Comparer@V?$PxVec3T@M@physx@@@MeshAnalyzer@Gu@physx@@V?$PxReflectionAllocator@H@4@@physx@@YAXPEAHIAEBU?$Comparer@V?$PxVec3T@M@physx@@@MeshAnalyzer@Gu@0@AEBV?$PxReflectionAllocator@H@0@I@Z 000000018004d890 f i GuSDF.obj
 0001:0004cd10       ??$PxSort@HU?$PxLess@H@physx@@V?$PxReflectionAllocator@H@2@@physx@@YAXPEAHIAEBU?$PxLess@H@0@AEBV?$PxReflectionAllocator@H@0@I@Z 000000018004dd10 f i GuSDF.obj
 0001:0004d160       ??$mapDuplicatePoints@V?$PxVec3T@M@physx@@M@MeshAnalyzer@Gu@physx@@SAXPEBV?$PxVec3T@M@2@IAEAV?$PxArray@HV?$PxReflectionAllocator@H@physx@@@2@M@Z 000000018004e160 f i GuSDF.obj
 0001:0004d4e0       ??$splitRanges@V?$PxVec3T@M@physx@@M@MeshAnalyzer@Gu@physx@@CAXAEAV?$PxArray@URange@MeshAnalyzer@Gu@physx@@V?$PxReflectionAllocator@URange@MeshAnalyzer@Gu@physx@@@4@@2@AEBV?$PxArray@HV?$PxReflectionAllocator@H@physx@@@2@PEBV?$PxVec3T@M@2@HM@Z 000000018004e4e0 f i GuSDF.obj
 0001:0004d750       ??$traverseBVH@VClosestDistanceToTrimeshTraversalController@Gu@physx@@@Gu@physx@@YAXPEBUBVHNode@01@AEAVClosestDistanceToTrimeshTraversalController@01@H@Z 000000018004e750 f i GuSDF.obj
 0001:0004db60       ??$traverseBVH@VLineSegmentTrimeshIntersectionTraversalController@Gu@physx@@@Gu@physx@@YAXPEBUBVHNode@01@AEAVLineSegmentTrimeshIntersectionTraversalController@01@H@Z 000000018004eb60 f i GuSDF.obj
 0001:0004e080       ??1SDF@Gu@physx@@QEAA@XZ   000000018004f080 f   GuSDF.obj
 0001:0004e110       ??_E?$PxThreadT@V?$PxReflectionAllocator@VPxThreadImpl@physx@@@physx@@@physx@@UEAAPEAXI@Z 000000018004f110 f i GuSDF.obj
 0001:0004e110       ??_G?$PxThreadT@V?$PxReflectionAllocator@VPxThreadImpl@physx@@@physx@@@physx@@UEAAPEAXI@Z 000000018004f110 f i GuSDF.obj
 0001:0004e1c0       ??_EPxRunnable@physx@@UEAAPEAXI@Z 000000018004f1c0 f i GuSDF.obj
 0001:0004e1c0       ??_GPxRunnable@physx@@UEAAPEAXI@Z 000000018004f1c0 f i GuSDF.obj
 0001:0004e1f0       ?PxCreatePointOntoTriangleMeshProjector@Gu@physx@@YAPEAVPxPointOntoTriangleMeshProjector@12@PEBV?$PxVec3T@M@2@PEBII@Z 000000018004f1f0 f   GuSDF.obj
 0001:0004e2f0       ?SDFUsingWindingNumbers@Gu@physx@@YAXAEAV?$PxArray@UBVHNode@Gu@physx@@V?$PxReflectionAllocator@UBVHNode@Gu@physx@@@3@@2@AEAV?$PxHashMap@IU?$ClusterApproximationT@MV?$PxVec3T@M@physx@@@Gu@physx@@U?$PxHash@I@3@VPxAllocator@3@@2@PEBV?$PxVec3T@M@2@PEBIIIIIPEAMAEAVGridQueryPointSampler@12@PEAV52@I_N7@Z 000000018004f2f0 f   GuSDF.obj
 0001:0004e810       ?SDFUsingWindingNumbers@Gu@physx@@YAXPEBV?$PxVec3T@M@2@PEBIIIIIPEAMV32@3PEAV32@_NI@Z 000000018004f810 f   GuSDF.obj
 0001:0004eb70       ?SDFUsingWindingNumbersSparse@Gu@physx@@YAXPEBV?$PxVec3T@M@2@PEBIIIIIAEBV32@2MIAEAV?$PxArray@MV?$PxReflectionAllocator@M@physx@@@2@AEAV?$PxArray@IV?$PxReflectionAllocator@I@physx@@@2@33AEAM5I@Z 000000018004fb70 f   GuSDF.obj
 0001:0004f980       ?allocate@?$PxArray@HV?$PxInlineAllocator@$0EAA@V?$PxReflectionAllocator@H@physx@@@physx@@@physx@@IEAAPEAHI@Z 0000000180050980 f i GuSDF.obj
 0001:0004fa40       ?allocate@?$PxArray@MV?$PxReflectionAllocator@M@physx@@@physx@@IEAAPEAMI@Z 0000000180050a40 f i GuSDF.obj
 0001:0004faf0       ?allocateSdfs@SDF@Gu@physx@@QEAAPEAMAEBV?$PxVec3T@M@3@AEBMIIIIIIIMMI@Z 0000000180050af0 f   GuSDF.obj
 0001:0004fd00       ?analyzeAndFixMesh@Gu@physx@@YAXPEBV?$PxVec3T@M@2@PEBIIAEAV?$PxArray@IV?$PxReflectionAllocator@I@physx@@@2@@Z 0000000180050d00 f   GuSDF.obj
 0001:00050560       ?buildTree@Gu@physx@@YAXPEBIIPEBV?$PxVec3T@M@2@AEAV?$PxArray@UBVHNode@Gu@physx@@V?$PxReflectionAllocator@UBVHNode@Gu@physx@@@3@@2@M@Z 0000000180051560 f   GuSDF.obj
 0001:00050790       ?computeSDFThreadJob@Gu@physx@@YAPEAXPEAX@Z 0000000180051790 f   GuSDF.obj
 0001:00051210       ?convertSparseSDFTo3DTextureLayout@Gu@physx@@YAXIIIIPEAIPEBMIAEAV?$PxArray@MV?$PxReflectionAllocator@M@physx@@@2@AEAI33@Z 0000000180052210 f   GuSDF.obj
 0001:000515c0       ?create@?$PxHashBase@V?$PxPair@$$CBUSortedTriangle@Gu@physx@@H@physx@@USortedTriangle@Gu@2@UTriangleHash@42@UGetKey@?$PxHashMapBase@USortedTriangle@Gu@physx@@HUTriangleHash@23@VPxAllocator@3@@2@VPxAllocator@2@$00@physx@@QEAAPEAV?$PxPair@$$CBUSortedTriangle@Gu@physx@@H@2@AEBUSortedTriangle@Gu@2@AEA_N@Z 00000001800525c0 f i GuSDF.obj
 0001:000516f0       ?create@?$PxHashBase@V?$PxPair@$$CB_KH@physx@@_KU?$PxHash@_K@2@UGetKey@?$PxHashMapBase@_KHU?$PxHash@_K@physx@@VPxAllocator@2@@2@VPxAllocator@2@$00@physx@@QEAAPEAV?$PxPair@$$CB_KH@2@AEB_KAEA_N@Z 00000001800526f0 f i GuMeshAnalysis.obj
 0001:000516f0       ?create@?$PxHashBase@V?$PxPair@$$CB_KI@physx@@_KU?$PxHash@_K@2@UGetKey@?$PxHashMapBase@_KIU?$PxHash@_K@physx@@VPxAllocator@2@@2@VPxAllocator@2@$00@physx@@QEAAPEAV?$PxPair@$$CB_KI@2@AEB_KAEA_N@Z 00000001800526f0 f i GuSDF.obj
 0001:00051880       ?createTriangles@Gu@physx@@YAXHHHMQEAMAEBV?$PxHashMap@_KIU?$PxHash@_K@physx@@VPxAllocator@2@@2@AEBV?$PxArray@V?$PxVec3T@M@physx@@V?$PxReflectionAllocator@V?$PxVec3T@M@physx@@@2@@2@AEAV?$PxArray@IV?$PxReflectionAllocator@I@physx@@@2@@Z 0000000180052880 f   GuSDF.obj
 0001:000520e0       ?extractIsosurfaceFromSDF@Gu@physx@@YAXAEBVSDF@12@AEAV?$PxArray@V?$PxVec3T@M@physx@@V?$PxReflectionAllocator@V?$PxVec3T@M@physx@@@2@@2@AEAV?$PxArray@IV?$PxReflectionAllocator@I@physx@@@2@@Z 00000001800530e0 f   GuSDF.obj
 0001:00053eb0       ?fixSdfForNonClosedGeometry@Gu@physx@@YAXIIIPEAMAEBV?$PxVec3T@M@2@@Z 0000000180054eb0 f   GuSDF.obj
 0001:00054f90       ?generatePointInCell@Gu@physx@@YA_NAEBVSDF@12@HHHAEAV?$PxVec3T@M@2@QEAY111M@Z 0000000180055f90 f   GuSDF.obj
 0001:000553e0       ?growAndPushBack@?$PxArray@HV?$PxInlineAllocator@$0EAA@V?$PxReflectionAllocator@H@physx@@@physx@@@physx@@IEAAAEAHAEBH@Z 00000001800563e0 f i GuSDF.obj
 0001:000554d0       ?growAndPushBack@?$PxArray@MV?$PxReflectionAllocator@M@physx@@@physx@@IEAAAEAMAEBM@Z 00000001800564d0 f i GuSDF.obj
 0001:000555b0       ?growAndPushBack@?$PxArray@PEAV?$PxThreadT@V?$PxReflectionAllocator@VPxThreadImpl@physx@@@physx@@@physx@@V?$PxReflectionAllocator@PEAV?$PxThreadT@V?$PxReflectionAllocator@VPxThreadImpl@physx@@@physx@@@physx@@@2@@physx@@IEAAAEAPEAV?$PxThreadT@V?$PxReflectionAllocator@VPxThreadImpl@physx@@@physx@@@2@AEBQEAV32@@Z 00000001800565b0 f i GuSDF.obj
 0001:000556e0       ?growAndPushBack@?$PxArray@UMutation@Gu@physx@@V?$PxReflectionAllocator@UMutation@Gu@physx@@@3@@physx@@IEAAAEAUMutation@Gu@2@AEBU342@@Z 00000001800566e0 f i GuSDF.obj
 0001:00055810       ?growAndPushBack@?$PxArray@URange@Gu@physx@@V?$PxReflectionAllocator@URange@Gu@physx@@@3@@physx@@IEAAAEAURange@Gu@2@AEBU342@@Z 0000000180056810 f i GuSDF.obj
 0001:00055960       ?growAndPushBack@?$PxArray@URange@MeshAnalyzer@Gu@physx@@V?$PxReflectionAllocator@URange@MeshAnalyzer@Gu@physx@@@4@@physx@@IEAAAEAURange@MeshAnalyzer@Gu@2@AEBU3452@@Z 0000000180056960 f i GuSDF.obj
 0001:00055a90       ?growAndPushBack@?$PxArray@USDFCalculationData@Gu@physx@@V?$PxReflectionAllocator@USDFCalculationData@Gu@physx@@@3@@physx@@IEAAAEAUSDFCalculationData@Gu@2@AEBU342@@Z 0000000180056a90 f i GuSDF.obj
 0001:00055c30       ?growAndPushBack@?$PxArray@V?$PxVec3T@M@physx@@V?$PxReflectionAllocator@V?$PxVec3T@M@physx@@@2@@physx@@IEAAAEAV?$PxVec3T@M@2@AEBV32@@Z 0000000180056c30 f i GuSDF.obj
 0001:00055e20       ?projectPoint@PointOntoTriangleMeshProjector@Gu@physx@@UEAA?AV?$PxVec3T@M@3@AEBV43@@Z 0000000180056e20 f i GuSDF.obj
 0001:00055e90       ?projectPoint@PointOntoTriangleMeshProjector@Gu@physx@@UEAA?AV?$PxVec3T@M@3@AEBV43@AEAI@Z 0000000180056e90 f i GuSDF.obj
 0001:00055f10       ?recreate@?$PxArray@HV?$PxReflectionAllocator@H@physx@@@physx@@IEAAXI@Z 0000000180056f10 f i GuSDF.obj
 0001:00056020       ?recreate@?$PxArray@MV?$PxReflectionAllocator@M@physx@@@physx@@IEAAXI@Z 0000000180057020 f i GuSDF.obj
 0001:00056100       ?recreate@?$PxArray@UBVHNode@Gu@physx@@V?$PxReflectionAllocator@UBVHNode@Gu@physx@@@3@@physx@@IEAAXI@Z 0000000180057100 f i GuSDF.obj
 0001:00056350       ?release@PointOntoTriangleMeshProjector@Gu@physx@@UEAAXXZ 0000000180057350 f i GuSDF.obj
 0001:000563a0       ?reserveInternal@?$PxHashBase@V?$PxPair@$$CBIU?$ClusterApproximationT@MV?$PxVec3T@M@physx@@@Gu@physx@@@physx@@IU?$PxHash@I@2@UGetKey@?$PxHashMapBase@IU?$ClusterApproximationT@MV?$PxVec3T@M@physx@@@Gu@physx@@U?$PxHash@I@3@VPxAllocator@3@@2@VPxAllocator@2@$00@physx@@AEAAXI@Z 00000001800573a0 f i GuSDF.obj
 0001:000565a0       ?reserveInternal@?$PxHashBase@V?$PxPair@$$CBUSortedTriangle@Gu@physx@@H@physx@@USortedTriangle@Gu@2@UTriangleHash@42@UGetKey@?$PxHashMapBase@USortedTriangle@Gu@physx@@HUTriangleHash@23@VPxAllocator@3@@2@VPxAllocator@2@$00@physx@@AEAAXI@Z 00000001800575a0 f i GuSDF.obj
 0001:00056740       ?reserveInternal@?$PxHashBase@V?$PxPair@$$CB_KH@physx@@_KU?$PxHash@_K@2@UGetKey@?$PxHashMapBase@_KHU?$PxHash@_K@physx@@VPxAllocator@2@@2@VPxAllocator@2@$00@physx@@AEAAXI@Z 0000000180057740 f i GuSDF.obj
 0001:00056740       ?reserveInternal@?$PxHashBase@V?$PxPair@$$CB_KI@physx@@_KU?$PxHash@_K@2@UGetKey@?$PxHashMapBase@_KIU?$PxHash@_K@physx@@VPxAllocator@2@@2@VPxAllocator@2@$00@physx@@AEAAXI@Z 0000000180057740 f i GuSDF.obj
 0001:00056920       ?resize@?$PxArray@IV?$PxReflectionAllocator@I@physx@@@physx@@QEAAXIAEBI@Z 0000000180057920 f i GuSDF.obj
 0001:000569e0       ?resize@?$PxArray@MV?$PxReflectionAllocator@M@physx@@@physx@@QEAAXIAEBM@Z 00000001800579e0 f i GuSDF.obj
 0001:00056af0       ?resize@?$PxArray@UBVHNode@Gu@physx@@V?$PxReflectionAllocator@UBVHNode@Gu@physx@@@3@@physx@@QEAAXIAEBUBVHNode@Gu@2@@Z 0000000180057af0 f i GuSDF.obj
 0001:00056c70       ?sampleSDFDirect@?$DenseSDF@M@Gu@physx@@QEAAMAEBV?$PxVec3T@M@3@@Z 0000000180057c70 f i GuSDF.obj
 0001:00056e00       ?signedVolume@Gu@physx@@YAMPEBV?$PxVec3T@M@2@PEBII1I@Z 0000000180057e00 f   GuSDF.obj
 0001:00057340       ?windingNumbers@Gu@physx@@YAXPEBV?$PxVec3T@M@2@PEBIIIIIPEAMV32@3PEAV32@@Z 0000000180058340 f   GuSDF.obj
 0001:00057790       ?windingNumbersInsideCheck@Gu@physx@@YAXPEBV?$PxVec3T@M@2@PEBIIIIIPEA_NV32@3PEAV32@@Z 0000000180058790 f   GuSDF.obj
 0001:00058160       ??0MeshData@physx@@QEAA@AEBVPxTriangleMeshDesc@1@@Z 0000000180059160 f i GuCookingSDF.obj
 0001:00058240       ?GetBounds@MeshData@physx@@QEBAXAEAV?$PxVec3T@M@2@0@Z 0000000180059240 f i GuCookingSDF.obj
 0001:000584e0       ?buildSDF@physx@@YA_NAEAVPxTriangleMeshDesc@1@AEAV?$PxArray@MV?$PxReflectionAllocator@M@physx@@@1@AEAV?$PxArray@EV?$PxReflectionAllocator@E@physx@@@1@AEAV?$PxArray@IV?$PxReflectionAllocator@I@physx@@@1@@Z 00000001800594e0 f   GuCookingSDF.obj
 0001:00058ff0       ?quantizeSparseSDF@physx@@YAXW4Enum@PxSdfBitsPerSubgridPixel@1@AEBV?$PxArray@MV?$PxReflectionAllocator@M@physx@@@1@AEAV?$PxArray@EV?$PxReflectionAllocator@E@physx@@@1@MM@Z 0000000180059ff0 f   GuCookingSDF.obj
 0001:000590d0       ?recreate@?$PxArray@EV?$PxReflectionAllocator@E@physx@@@physx@@IEAAXI@Z 000000018005a0d0 f i GuCookingSDF.obj
 0001:000591c0       ?recreate@?$PxArray@V?$PxVec3T@M@physx@@V?$PxReflectionAllocator@V?$PxVec3T@M@physx@@@2@@physx@@IEAAXI@Z 000000018005a1c0 f i GuCookingSDF.obj
 0001:00059380       ?resize@?$PxArray@EV?$PxReflectionAllocator@E@physx@@@physx@@QEAAXIAEBE@Z 000000018005a380 f i GuCookingSDF.obj
 0001:00059440       ?resize@?$PxArray@V?$PxVec3T@M@physx@@V?$PxReflectionAllocator@V?$PxVec3T@M@physx@@@2@@physx@@QEAAXIAEBV?$PxVec3T@M@2@@Z 000000018005a440 f i GuCookingSDF.obj
 0001:00059530       ??$gjk@U?$RelativeConvex@UCustomConvexV@@@Gu@physx@@U?$LocalConvex@UCustomConvexV@@@23@@Gu@physx@@YA?AW4GjkStatus@01@AEBU?$RelativeConvex@UCustomConvexV@@@01@AEBU?$LocalConvex@UCustomConvexV@@@01@AEBT__m128@@2AEAT5@333@Z 000000018005a530 f i GuGjkQuery.obj
 0001:0005a2c0       ??$gjkPenetration@U?$RelativeConvex@UCustomConvexV@@@Gu@physx@@U?$LocalConvex@UCustomConvexV@@@23@@Gu@physx@@YA?AW4GjkStatus@01@AEBU?$RelativeConvex@UCustomConvexV@@@01@AEBU?$LocalConvex@UCustomConvexV@@@01@AEBT__m128@@2_NPEIAE4PEIAT5@5AEAEAEAUGjkOutput@01@@Z 000000018005b2c0 f i GuGjkQuery.obj
 0001:0005b830       ??$gjkPenetration@U?$RelativeConvex@UCustomConvexV@@@Gu@physx@@U?$LocalConvex@UCustomConvexV@@@23@@Gu@physx@@YA?AW4GjkStatus@01@AEBU?$RelativeConvex@UCustomConvexV@@@01@AEBU?$LocalConvex@UCustomConvexV@@@01@AEBT__m128@@2_NPEIAT5@4AEAEAEAUGjkOutput@01@@Z 000000018005c830 f i GuGjkQuery.obj
 0001:0005b890       ??$gjkRaycast@U?$RelativeConvex@UCustomConvexV@@@Gu@physx@@U?$LocalConvex@UCustomConvexV@@@23@@Gu@physx@@YA_NAEBU?$RelativeConvex@UCustomConvexV@@@01@AEBU?$LocalConvex@UCustomConvexV@@@01@AEBT__m128@@222AEAT4@33M@Z 000000018005c890 f i GuGjkQuery.obj
 0001:0005c5f0       ??$gjkRaycast@U?$RelativeConvex@UCustomConvexV@@@Gu@physx@@U?$LocalConvex@UPointConvexV@@@23@@Gu@physx@@YA_NAEBU?$RelativeConvex@UCustomConvexV@@@01@AEBU?$LocalConvex@UPointConvexV@@@01@AEBT__m128@@222AEAT4@33M@Z 000000018005d5f0 f i GuGjkQuery.obj
 0001:0005d230       ?overlap@PxGjkQuery@physx@@SA_NAEBUSupport@12@0AEBV?$PxTransformT@M@2@1@Z 000000018005e230 f   GuGjkQuery.obj
 0001:0005d5c0       ?proximityInfo@PxGjkQuery@physx@@SA_NAEBUSupport@12@0AEBV?$PxTransformT@M@2@1MMAEAV?$PxVec3T@M@2@22AEAM@Z 000000018005e5c0 f   GuGjkQuery.obj
 0001:0005e380       ?raycast@PxGjkQuery@physx@@SA_NAEBUSupport@12@AEBV?$PxTransformT@M@2@AEBV?$PxVec3T@M@2@2MAEAMAEAV52@4@Z 000000018005f380 f   GuGjkQuery.obj
 0001:0005e870       ?support@?$LocalConvex@UCustomConvexV@@@Gu@physx@@UEBA?AT__m128@@AEBT4@@Z 000000018005f870 f i GuGjkQuery.obj
 0001:0005e8f0       ?support@?$LocalConvex@UCustomConvexV@@@Gu@physx@@UEBA?AT__m128@@AEBT4@AEAH@Z 000000018005f8f0 f i GuGjkQuery.obj
 0001:0005e970       ?support@?$LocalConvex@UPointConvexV@@@Gu@physx@@UEBA?AT__m128@@AEBT4@@Z 000000018005f970 f i GuGjkQuery.obj
 0001:0005e970       ?supportPoint@?$LocalConvex@UPointConvexV@@@Gu@physx@@UEBA?AT__m128@@H@Z 000000018005f970 f i GuGjkQuery.obj
 0001:0005e980       ?support@?$LocalConvex@UPointConvexV@@@Gu@physx@@UEBA?AT__m128@@AEBT4@AEAH@Z 000000018005f980 f i GuGjkQuery.obj
 0001:0005e9a0       ?support@?$RelativeConvex@UCustomConvexV@@@Gu@physx@@UEBA?AT__m128@@AEBT4@@Z 000000018005f9a0 f i GuGjkQuery.obj
 0001:0005ea70       ?support@?$RelativeConvex@UCustomConvexV@@@Gu@physx@@UEBA?AT__m128@@AEBT4@AEAH@Z 000000018005fa70 f i GuGjkQuery.obj
 0001:0005eb50       ?supportPoint@?$LocalConvex@UCustomConvexV@@@Gu@physx@@UEBA?AT__m128@@H@Z 000000018005fb50 f i GuGjkQuery.obj
 0001:0005ebc0       ?supportPoint@?$RelativeConvex@UCustomConvexV@@@Gu@physx@@UEBA?AT__m128@@H@Z 000000018005fbc0 f i GuGjkQuery.obj
 0001:0005ec60       ?sweep@PxGjkQuery@physx@@SA_NAEBUSupport@12@0AEBV?$PxTransformT@M@2@1AEBV?$PxVec3T@M@2@MAEAMAEAV52@4@Z 000000018005fc60 f   GuGjkQuery.obj
 0001:0005f420       ??$approximateCluster@MV?$PxVec3T@M@physx@@@Gu@physx@@YAXAEBV?$PxArray@HV?$PxReflectionAllocator@H@physx@@@1@IIPEBIPEBV?$PxVec3T@M@1@AEBV?$PxArray@MV?$PxReflectionAllocator@M@physx@@@1@AEBV?$PxArray@V?$PxVec3T@M@physx@@V?$PxReflectionAllocator@V?$PxVec3T@M@physx@@@2@@1@4AEAU?$ClusterApproximationT@MV?$PxVec3T@M@physx@@@01@@Z 0000000180060420 f i GuWindingNumber.obj
 0001:0005fa60       ??$copy@V?$PxReflectionAllocator@M@physx@@@?$PxArray@MV?$PxReflectionAllocator@M@physx@@@physx@@IEAAXAEBV01@@Z 0000000180060a60 f i GuWindingNumber.obj
 0001:0005fac0       ??$precomputeClusterInformation@MV?$PxVec3T@M@physx@@@Gu@physx@@YAXHPEBUBVHNode@01@PEBIIPEBV?$PxVec3T@M@1@AEAV?$PxHashMap@IU?$ClusterApproximationT@MV?$PxVec3T@M@physx@@@Gu@physx@@U?$PxHash@I@3@VPxAllocator@3@@1@V?$PxArray@MV?$PxReflectionAllocator@M@physx@@@1@AEBV?$PxArray@V?$PxVec3T@M@physx@@V?$PxReflectionAllocator@V?$PxVec3T@M@physx@@@2@@1@5@Z 0000000180060ac0 f i GuWindingNumber.obj
 0001:0005fea0       ??$precomputeClusterInformation@MV?$PxVec3T@M@physx@@@Gu@physx@@YAXPEBUBVHNode@01@PEBIIPEBV?$PxVec3T@M@1@AEAV?$PxHashMap@IU?$ClusterApproximationT@MV?$PxVec3T@M@physx@@@Gu@physx@@U?$PxHash@I@3@VPxAllocator@3@@1@H@Z 0000000180060ea0 f i GuWindingNumber.obj
 0001:000602b0       ??$traverseBVH@V?$WindingNumberTraversalController@MV?$PxVec3T@M@physx@@@Gu@physx@@@Gu@physx@@YAXPEBUBVHNode@01@AEAV?$WindingNumberTraversalController@MV?$PxVec3T@M@physx@@@01@H@Z 00000001800612b0 f i GuWindingNumber.obj
 0001:00060850       ?allocate@?$PxArray@HV?$PxReflectionAllocator@H@physx@@@physx@@IEAAPEAHI@Z 0000000180061850 f i GuWindingNumber.obj
 0001:00060900       ?computeWindingNumber@Gu@physx@@YAMPEBUBVHNode@12@AEBV?$PxVec3T@M@2@AEBV?$PxHashMap@IU?$ClusterApproximationT@MV?$PxVec3T@M@physx@@@Gu@physx@@U?$PxHash@I@3@VPxAllocator@3@@2@PEBIPEBV42@@Z 0000000180061900 f   GuWindingNumber.obj
 0001:00060970       ?computeWindingNumber@Gu@physx@@YAMPEBUBVHNode@12@AEBV?$PxVec3T@M@2@MAEBV?$PxHashMap@IU?$ClusterApproximationT@MV?$PxVec3T@M@physx@@@Gu@physx@@U?$PxHash@I@3@VPxAllocator@3@@2@PEBIPEBV42@@Z 0000000180061970 f   GuWindingNumber.obj
 0001:000609e0       ?copy@?$PxArray@MV?$PxReflectionAllocator@M@physx@@@physx@@KAXPEAM0PEBM@Z 00000001800619e0 f i GuWindingNumber.obj
 0001:00060a40       ?create@?$PxHashBase@V?$PxPair@$$CBIU?$ClusterApproximationT@MV?$PxVec3T@M@physx@@@Gu@physx@@@physx@@IU?$PxHash@I@2@UGetKey@?$PxHashMapBase@IU?$ClusterApproximationT@MV?$PxVec3T@M@physx@@@Gu@physx@@U?$PxHash@I@3@VPxAllocator@3@@2@VPxAllocator@2@$00@physx@@QEAAPEAV?$PxPair@$$CBIU?$ClusterApproximationT@MV?$PxVec3T@M@physx@@@Gu@physx@@@2@AEBIAEA_N@Z 0000000180061a40 f i GuWindingNumber.obj
 0001:00060b90       ?growAndPushBack@?$PxArray@HV?$PxReflectionAllocator@H@physx@@@physx@@IEAAAEAHAEBH@Z 0000000180061b90 f i GuWindingNumber.obj
 0001:00060c50       ?growAndPushBack@?$PxArray@USection@Gu@physx@@V?$PxReflectionAllocator@USection@Gu@physx@@@3@@physx@@IEAAAEAUSection@Gu@2@AEBU342@@Z 0000000180061c50 f i GuWindingNumber.obj
 0001:00060d80       ?precomputeClusterInformation@Gu@physx@@YAXPEBUBVHNode@12@PEBIIPEBV?$PxVec3T@M@2@AEAV?$PxHashMap@IU?$ClusterApproximationT@MV?$PxVec3T@M@physx@@@Gu@physx@@U?$PxHash@I@3@VPxAllocator@3@@2@H@Z 0000000180061d80 f   GuWindingNumber.obj
 0001:00060e20       ?SweepAnyShapeHeightfield@Gu@physx@@YAMAEBUCCDShape@12@0AEBUPxTransformPadded@2@111MAEAV?$PxVec3T@M@2@2MAEAIM@Z 0000000180061e20 f   GuCCDSweepConvexMesh.obj
 0001:000623c0       ?SweepAnyShapeMesh@Gu@physx@@YAMAEBUCCDShape@12@0AEBUPxTransformPadded@2@111MAEAV?$PxVec3T@M@2@2MAEAIM@Z 00000001800633c0 f   GuCCDSweepConvexMesh.obj
 0001:00063a00       ?SweepEstimateAnyShapeHeightfield@Gu@physx@@YAMAEBUCCDShape@12@0MM@Z 0000000180064a00 f   GuCCDSweepConvexMesh.obj
 0001:00064690       ?SweepEstimateAnyShapeMesh@Gu@physx@@YAMAEBUCCDShape@12@0MM@Z 0000000180065690 f   GuCCDSweepConvexMesh.obj
 0001:00064930       ?allocate@?$PxArray@IV?$PxInlineAllocator@$0BAA@V?$PxReflectionAllocator@I@physx@@@physx@@@physx@@IEAAPEAII@Z 0000000180065930 f i GuCCDSweepConvexMesh.obj
 0001:00065410       ?growAndPushBack@?$PxArray@IV?$PxInlineAllocator@$0BAA@V?$PxReflectionAllocator@I@physx@@@physx@@@physx@@IEAAAEAIAEBI@Z 0000000180066410 f i GuCCDSweepConvexMesh.obj
 0001:00065a50       ?recreate@?$PxArray@IV?$PxInlineAllocator@$0BAA@V?$PxReflectionAllocator@I@physx@@@physx@@@physx@@IEAAXI@Z 0000000180066a50 f i GuCCDSweepConvexMesh.obj
 0001:00065b90       ?resize@?$PxArray@IV?$PxInlineAllocator@$0BAA@V?$PxReflectionAllocator@I@physx@@@physx@@@physx@@QEAAXIAEBI@Z 0000000180066b90 f i GuCCDSweepConvexMesh.obj
 0001:00065c60       ?transformBoxOrthonormal@physx@@YA?AVBox@Gu@1@AEBV231@AEBV?$PxTransformT@M@1@@Z 0000000180066c60 f i GuCCDSweepConvexMesh.obj
 0001:000660f0       ?UnimplementedSweep@Gu@physx@@YAMAEBUCCDShape@12@0AEBUPxTransformPadded@2@111MAEAV?$PxVec3T@M@2@2MAEAIM@Z 00000001800670f0 f   GuCCDSweepPrimitives.obj
 0001:00069c60       ?UnimplementedTriangleSweep@Gu@physx@@YAMAEBVPxGeometry@2@0AEBUPxTransformPadded@2@111MAEAV?$PxVec3T@M@2@2AEBVFastVertex2ShapeScaling@Cm@2@AEAVTriangleV@12@M@Z 000000018006ac60 f   GuCCDSweepPrimitives.obj
 0001:00069c70       ??$SweepGeomTriangles@VCapsuleV@Gu@physx@@@Gu@physx@@YAMAEBVPxGeometry@1@0AEBUPxTransformPadded@1@111MAEAV?$PxVec3T@M@1@2AEBVFastVertex2ShapeScaling@Cm@1@AEAVTriangleV@01@M@Z 000000018006ac70 f i GuCCDSweepPrimitives.obj
 0001:0006a3a0       ??$SweepGeomTriangles@VBoxV@Gu@physx@@@Gu@physx@@YAMAEBVPxGeometry@1@0AEBUPxTransformPadded@1@111MAEAV?$PxVec3T@M@1@2AEBVFastVertex2ShapeScaling@Cm@1@AEAVTriangleV@01@M@Z 000000018006b3a0 f i GuCCDSweepPrimitives.obj
 0001:0006aaf0       ??$SweepGeomTriangles@VConvexHullV@Gu@physx@@@Gu@physx@@YAMAEBVPxGeometry@1@0AEBUPxTransformPadded@1@111MAEAV?$PxVec3T@M@1@2AEBVFastVertex2ShapeScaling@Cm@1@AEAVTriangleV@01@M@Z 000000018006baf0 f i GuCCDSweepPrimitives.obj
 0001:0006b5d0       ?supportPoint@?$RelativeConvex@VCapsuleV@Gu@physx@@@Gu@physx@@UEBA?AT__m128@@H@Z 000000018006c5d0 f i GuCCDSweepPrimitives.obj
 0001:0006b630       ?support@?$RelativeConvex@VCapsuleV@Gu@physx@@@Gu@physx@@UEBA?AT__m128@@AEBT4@@Z 000000018006c630 f i GuCCDSweepPrimitives.obj
 0001:0006b6e0       ?support@?$RelativeConvex@VCapsuleV@Gu@physx@@@Gu@physx@@UEBA?AT__m128@@AEBT4@AEAH@Z 000000018006c6e0 f i GuCCDSweepPrimitives.obj
 0001:0006b7a0       ?supportPoint@?$RelativeConvex@VTriangleV@Gu@physx@@@Gu@physx@@UEBA?AT__m128@@H@Z 000000018006c7a0 f i GuCCDSweepPrimitives.obj
 0001:0006b7f0       ?support@?$RelativeConvex@VTriangleV@Gu@physx@@@Gu@physx@@UEBA?AT__m128@@AEBT4@@Z 000000018006c7f0 f i GuCCDSweepPrimitives.obj
 0001:0006b8f0       ?support@?$RelativeConvex@VTriangleV@Gu@physx@@@Gu@physx@@UEBA?AT__m128@@AEBT4@AEAH@Z 000000018006c8f0 f i GuCCDSweepPrimitives.obj
 0001:0006ba30       ??$gjkPenetration@U?$RelativeConvex@VCapsuleV@Gu@physx@@@Gu@physx@@U?$LocalConvex@VBoxV@Gu@physx@@@23@@Gu@physx@@YA?AW4GjkStatus@01@AEBU?$RelativeConvex@VCapsuleV@Gu@physx@@@01@AEBU?$LocalConvex@VBoxV@Gu@physx@@@01@AEBT__m128@@2_NPEIAE4AEAEAEAUGjkOutput@01@@Z 000000018006ca30 f i GuCCDSweepPrimitives.obj
 0001:0006baa0       ??$gjkPenetration@U?$RelativeConvex@VCapsuleV@Gu@physx@@@Gu@physx@@U?$LocalConvex@VBoxV@Gu@physx@@@23@@Gu@physx@@YA?AW4GjkStatus@01@AEBU?$RelativeConvex@VCapsuleV@Gu@physx@@@01@AEBU?$LocalConvex@VBoxV@Gu@physx@@@01@AEBT__m128@@2_NPEIAE4PEIAT5@5AEAEAEAUGjkOutput@01@@Z 000000018006caa0 f i GuCCDSweepPrimitives.obj
 0001:0006cfa0       ??$gjkPenetration@U?$RelativeConvex@VCapsuleV@Gu@physx@@@Gu@physx@@U?$LocalConvex@VCapsuleV@Gu@physx@@@23@@Gu@physx@@YA?AW4GjkStatus@01@AEBU?$RelativeConvex@VCapsuleV@Gu@physx@@@01@AEBU?$LocalConvex@VCapsuleV@Gu@physx@@@01@AEBT__m128@@2_NPEIAE4AEAEAEAUGjkOutput@01@@Z 000000018006dfa0 f i GuCCDSweepPrimitives.obj
 0001:0006d010       ??$gjkPenetration@U?$RelativeConvex@VCapsuleV@Gu@physx@@@Gu@physx@@U?$LocalConvex@VCapsuleV@Gu@physx@@@23@@Gu@physx@@YA?AW4GjkStatus@01@AEBU?$RelativeConvex@VCapsuleV@Gu@physx@@@01@AEBU?$LocalConvex@VCapsuleV@Gu@physx@@@01@AEBT__m128@@2_NPEIAE4PEIAT5@5AEAEAEAUGjkOutput@01@@Z 000000018006e010 f i GuCCDSweepPrimitives.obj
 0001:0006e500       ??$gjkPenetration@U?$RelativeConvex@VCapsuleV@Gu@physx@@@Gu@physx@@U?$LocalConvex@VConvexHullV@Gu@physx@@@23@@Gu@physx@@YA?AW4GjkStatus@01@AEBU?$RelativeConvex@VCapsuleV@Gu@physx@@@01@AEBU?$LocalConvex@VConvexHullV@Gu@physx@@@01@AEBT__m128@@2_NPEIAE4AEAEAEAUGjkOutput@01@@Z 000000018006f500 f i GuCCDSweepPrimitives.obj
 0001:0006e570       ??$gjkPenetration@U?$RelativeConvex@VCapsuleV@Gu@physx@@@Gu@physx@@U?$LocalConvex@VConvexHullV@Gu@physx@@@23@@Gu@physx@@YA?AW4GjkStatus@01@AEBU?$RelativeConvex@VCapsuleV@Gu@physx@@@01@AEBU?$LocalConvex@VConvexHullV@Gu@physx@@@01@AEBT__m128@@2_NPEIAE4PEIAT5@5AEAEAEAUGjkOutput@01@@Z 000000018006f570 f i GuCCDSweepPrimitives.obj
 0001:0006fb10       ??$gjkPenetration@U?$RelativeConvex@VTriangleV@Gu@physx@@@Gu@physx@@U?$LocalConvex@VBoxV@Gu@physx@@@23@@Gu@physx@@YA?AW4GjkStatus@01@AEBU?$RelativeConvex@VTriangleV@Gu@physx@@@01@AEBU?$LocalConvex@VBoxV@Gu@physx@@@01@AEBT__m128@@2_NPEIAE4AEAEAEAUGjkOutput@01@@Z 0000000180070b10 f i GuCCDSweepPrimitives.obj
 0001:0006fb80       ??$gjkPenetration@U?$RelativeConvex@VTriangleV@Gu@physx@@@Gu@physx@@U?$LocalConvex@VBoxV@Gu@physx@@@23@@Gu@physx@@YA?AW4GjkStatus@01@AEBU?$RelativeConvex@VTriangleV@Gu@physx@@@01@AEBU?$LocalConvex@VBoxV@Gu@physx@@@01@AEBT__m128@@2_NPEIAE4PEIAT5@5AEAEAEAUGjkOutput@01@@Z 0000000180070b80 f i GuCCDSweepPrimitives.obj
 0001:000710a0       ??$gjkPenetration@U?$RelativeConvex@VTriangleV@Gu@physx@@@Gu@physx@@U?$LocalConvex@VCapsuleV@Gu@physx@@@23@@Gu@physx@@YA?AW4GjkStatus@01@AEBU?$RelativeConvex@VTriangleV@Gu@physx@@@01@AEBU?$LocalConvex@VCapsuleV@Gu@physx@@@01@AEBT__m128@@2_NPEIAE4AEAEAEAUGjkOutput@01@@Z 00000001800720a0 f i GuCCDSweepPrimitives.obj
 0001:00071110       ??$gjkPenetration@U?$RelativeConvex@VTriangleV@Gu@physx@@@Gu@physx@@U?$LocalConvex@VCapsuleV@Gu@physx@@@23@@Gu@physx@@YA?AW4GjkStatus@01@AEBU?$RelativeConvex@VTriangleV@Gu@physx@@@01@AEBU?$LocalConvex@VCapsuleV@Gu@physx@@@01@AEBT__m128@@2_NPEIAE4PEIAT5@5AEAEAEAUGjkOutput@01@@Z 0000000180072110 f i GuCCDSweepPrimitives.obj
 0001:00072630       ??$gjkPenetration@U?$RelativeConvex@VTriangleV@Gu@physx@@@Gu@physx@@U?$LocalConvex@VConvexHullV@Gu@physx@@@23@@Gu@physx@@YA?AW4GjkStatus@01@AEBU?$RelativeConvex@VTriangleV@Gu@physx@@@01@AEBU?$LocalConvex@VConvexHullV@Gu@physx@@@01@AEBT__m128@@2_NPEIAE4AEAEAEAUGjkOutput@01@@Z 0000000180073630 f i GuCCDSweepPrimitives.obj
 0001:000726a0       ??$gjkPenetration@U?$RelativeConvex@VTriangleV@Gu@physx@@@Gu@physx@@U?$LocalConvex@VConvexHullV@Gu@physx@@@23@@Gu@physx@@YA?AW4GjkStatus@01@AEBU?$RelativeConvex@VTriangleV@Gu@physx@@@01@AEBU?$LocalConvex@VConvexHullV@Gu@physx@@@01@AEBT__m128@@2_NPEIAE4PEIAT5@5AEAEAEAUGjkOutput@01@@Z 00000001800736a0 f i GuCCDSweepPrimitives.obj
 0001:00073c50       ??$gjkRaycast@U?$RelativeConvex@VCapsuleV@Gu@physx@@@Gu@physx@@U?$LocalConvex@VBoxV@Gu@physx@@@23@@Gu@physx@@YA_NAEBU?$RelativeConvex@VCapsuleV@Gu@physx@@@01@AEBU?$LocalConvex@VBoxV@Gu@physx@@@01@AEBT__m128@@222AEAT4@33M@Z 0000000180074c50 f i GuCCDSweepPrimitives.obj
 0001:000748c0       ??$gjkRaycast@U?$RelativeConvex@VCapsuleV@Gu@physx@@@Gu@physx@@U?$LocalConvex@VCapsuleV@Gu@physx@@@23@@Gu@physx@@YA_NAEBU?$RelativeConvex@VCapsuleV@Gu@physx@@@01@AEBU?$LocalConvex@VCapsuleV@Gu@physx@@@01@AEBT__m128@@222AEAT4@33M@Z 00000001800758c0 f i GuCCDSweepPrimitives.obj
 0001:000755b0       ??$gjkRaycast@U?$RelativeConvex@VCapsuleV@Gu@physx@@@Gu@physx@@U?$LocalConvex@VConvexHullV@Gu@physx@@@23@@Gu@physx@@YA_NAEBU?$RelativeConvex@VCapsuleV@Gu@physx@@@01@AEBU?$LocalConvex@VConvexHullV@Gu@physx@@@01@AEBT__m128@@222AEAT4@33M@Z 00000001800765b0 f i GuCCDSweepPrimitives.obj
 0001:000763b0       ??$gjkRaycast@U?$RelativeConvex@VTriangleV@Gu@physx@@@Gu@physx@@U?$LocalConvex@VBoxV@Gu@physx@@@23@@Gu@physx@@YA_NAEBU?$RelativeConvex@VTriangleV@Gu@physx@@@01@AEBU?$LocalConvex@VBoxV@Gu@physx@@@01@AEBT__m128@@222AEAT4@33M@Z 00000001800773b0 f i GuCCDSweepPrimitives.obj
 0001:000770c0       ??$gjkRaycast@U?$RelativeConvex@VTriangleV@Gu@physx@@@Gu@physx@@U?$LocalConvex@VCapsuleV@Gu@physx@@@23@@Gu@physx@@YA_NAEBU?$RelativeConvex@VTriangleV@Gu@physx@@@01@AEBU?$LocalConvex@VCapsuleV@Gu@physx@@@01@AEBT__m128@@222AEAT4@33M@Z 00000001800780c0 f i GuCCDSweepPrimitives.obj
 0001:00077e40       ??$gjkRaycast@U?$RelativeConvex@VTriangleV@Gu@physx@@@Gu@physx@@U?$LocalConvex@VConvexHullV@Gu@physx@@@23@@Gu@physx@@YA_NAEBU?$RelativeConvex@VTriangleV@Gu@physx@@@01@AEBU?$LocalConvex@VConvexHullV@Gu@physx@@@01@AEBT__m128@@222AEAT4@33M@Z 0000000180078e40 f i GuCCDSweepPrimitives.obj
 0001:00078d00       ?SweepShapeShape@Gu@physx@@YAMAEBUCCDShape@12@0AEBUPxTransformPadded@2@111MAEAV?$PxVec3T@M@2@2MAEAIM@Z 0000000180079d00 f   GuCCDSweepPrimitives.obj
 0001:00078d20       ?SweepShapeTriangle@Gu@physx@@YAMAEBVPxGeometry@2@0AEBUPxTransformPadded@2@111MAEAV?$PxVec3T@M@2@2AEBVFastVertex2ShapeScaling@Cm@2@AEAVTriangleV@12@M@Z 0000000180079d20 f   GuCCDSweepPrimitives.obj
 0001:00078d40       ?barycentricCoordinates@Gu@physx@@YAXAEBT__m128@@000AEAT3@1@Z 0000000180079d40 f   GuBarycentricCoordinates.obj
 0001:00078e80       ?barycentricCoordinates@Gu@physx@@YAXAEBT__m128@@00AEAT3@@Z 0000000180079e80 f   GuBarycentricCoordinates.obj
 0001:00078ef0       ??$?_UV?$PxReflectionAllocator@VAdjTriangle@Gu@physx@@@physx@@@PxUserAllocated@physx@@SAPEAX_KV?$PxReflectionAllocator@VAdjTriangle@Gu@physx@@@1@PEBDH@Z 0000000180079ef0 f i GuAdjacencies.obj
 0001:00078fd0       ??0AdjacenciesBuilder@Gu@physx@@QEAA@XZ 0000000180079fd0 f   GuAdjacencies.obj
 0001:00078fe0       ??1AdjacenciesBuilder@Gu@physx@@QEAA@XZ 0000000180079fe0 f   GuAdjacencies.obj
 0001:00079130       ?ComputeNbBoundaryEdges@Adjacencies@Gu@physx@@QEBAIXZ 000000018007a130 f   GuAdjacencies.obj
 0001:000793c0       ?Init@AdjacenciesBuilder@Gu@physx@@QEAA_NAEBUADJACENCIESCREATE@23@@Z 000000018007a3c0 f   GuAdjacencies.obj
 0001:00079920       ??0EdgeList@Gu@physx@@QEAA@XZ 000000018007a920 f   GuEdgeList.obj
 0001:00079940       ??1EdgeList@Gu@physx@@QEAA@XZ 000000018007a940 f   GuEdgeList.obj
 0001:000799f0       ?computeActiveEdges@EdgeList@Gu@physx@@AEAA_NIPEBIPEBGPEBV?$PxVec3T@M@3@M@Z 000000018007a9f0 f   GuEdgeList.obj
 0001:0007ad70       ?createEdgesToFaces@EdgeList@Gu@physx@@AEAA_NIPEBIPEBG@Z 000000018007bd70 f   GuEdgeList.obj
 0001:0007afd0       ?createFacesToEdges@EdgeList@Gu@physx@@AEAA_NIPEBIPEBG@Z 000000018007bfd0 f   GuEdgeList.obj
 0001:0007b3a0       ?init@EdgeList@Gu@physx@@QEAA_NAEBUEDGELISTCREATE@23@@Z 000000018007c3a0 f   GuEdgeList.obj
 0001:0007b4d0       ?addAxis@SeparatingAxes@Gu@physx@@QEAA_NAEBV?$PxVec3T@M@3@@Z 000000018007c4d0 f   GuSeparatingAxes.obj
 0001:0007b590       ??$kmeans_cluster@V?$PxVec3T@M@physx@@M@@YAIPEBV?$PxVec3T@M@physx@@IIPEAV01@PEAIMM@Z 000000018007c590 f i GuQuantizer.obj
 0001:0007bf50       ??_EQuantizer@Gu@physx@@MEAAPEAXI@Z 000000018007cf50 f i GuQuantizer.obj
 0001:0007bf50       ??_GQuantizer@Gu@physx@@MEAAPEAXI@Z 000000018007cf50 f i GuQuantizer.obj
 0001:0007bf80       ??_EQuantizerImpl@@EEAAPEAXI@Z 000000018007cf80 f i GuQuantizer.obj
 0001:0007bf80       ??_GQuantizerImpl@@EEAAPEAXI@Z 000000018007cf80 f i GuQuantizer.obj
 0001:0007c050       ?createQuantizer@Gu@physx@@YAPEAVQuantizer@12@XZ 000000018007d050 f   GuQuantizer.obj
 0001:0007c100       ?getDenormalizeCenter@QuantizerImpl@@UEBAAEBV?$PxVec3T@M@physx@@XZ 000000018007d100 f i GuQuantizer.obj
 0001:0007c110       ?getCurrentAABBTreeBounds@PruningPool@Gu@physx@@QEBAAEBVAABBTreeBounds@23@XZ 000000018007d110 f i GuIncrementalAABBPrunerCore.obj
 0001:0007c110       ?getDenormalizeScale@QuantizerImpl@@UEBAAEBV?$PxVec3T@M@physx@@XZ 000000018007d110 f i GuQuantizer.obj
 0001:0007c120       ?kmeansQuantize3D@QuantizerImpl@@UEAAPEBV?$PxVec3T@M@physx@@IPEBV23@I_NIAEAI@Z 000000018007d120 f i GuQuantizer.obj
 0001:0007c390       ?normalizeInput@QuantizerImpl@@AEAAXIPEBV?$PxVec3T@M@physx@@I@Z 000000018007d390 f i GuQuantizer.obj
 0001:0007c7e0       ?release@QuantizerImpl@@UEAAXXZ 000000018007d7e0 f i GuQuantizer.obj
 0001:0007c800       ??0MeshCleaner@Gu@physx@@QEAA@IPEBV?$PxVec3T@M@2@IPEBIM@Z 000000018007d800 f   GuMeshCleaner.obj
 0001:0007d1c0       ??1MeshCleaner@Gu@physx@@QEAA@XZ 000000018007e1c0 f   GuMeshCleaner.obj
 0001:0007d250       ??0ReducedVertexCloud@Gu@physx@@QEAA@PEBV?$PxVec3T@M@2@I@Z 000000018007e250 f   GuVertexReducer.obj
 0001:0007d270       ??1ReducedVertexCloud@Gu@physx@@QEAA@XZ 000000018007e270 f   GuVertexReducer.obj
 0001:0007d280       ?clean@ReducedVertexCloud@Gu@physx@@QEAAAEAV123@XZ 000000018007e280 f   GuVertexReducer.obj
 0001:0007d2f0       ?reduce@ReducedVertexCloud@Gu@physx@@QEAA_NPEAUREDUCEDCLOUD@23@@Z 000000018007e2f0 f   GuVertexReducer.obj
 0001:0007d590       ??$copy@V?$PxReflectionAllocator@I@physx@@@?$PxArray@IV?$PxReflectionAllocator@I@physx@@@physx@@IEAAXAEBV01@@Z 000000018007e590 f i GuMeshAnalysis.obj
 0001:0007d600       ?buildConsistentTriangleOrientationMap@MeshAnalyzer@Gu@physx@@SA_NPEBU?$IndexedTriangleT@H@23@IAEAV?$PxArray@_NV?$PxReflectionAllocator@_N@physx@@@3@AEAV?$PxHashMap@_KHU?$PxHash@_K@physx@@VPxAllocator@2@@3@AEAV?$PxArray@V?$PxArray@IV?$PxReflectionAllocator@I@physx@@@physx@@V?$PxReflectionAllocator@V?$PxArray@IV?$PxReflectionAllocator@I@physx@@@physx@@@2@@3@@Z 000000018007e600 f   GuMeshAnalysis.obj
 0001:0007d9b0       ?buildTriangleAdjacency@MeshAnalyzer@Gu@physx@@SA_NPEBU?$IndexedTriangleT@H@23@IAEAV?$PxArray@HV?$PxReflectionAllocator@H@physx@@@3@AEAV?$PxHashMap@_KHU?$PxHash@_K@physx@@VPxAllocator@2@@3@@Z 000000018007e9b0 f   GuMeshAnalysis.obj
 0001:0007dcb0       ?checkConsistentTriangleOrientation@MeshAnalyzer@Gu@physx@@SA_NPEBU?$IndexedTriangleT@H@23@I@Z 000000018007ecb0 f   GuMeshAnalysis.obj
 0001:0007de00       ?checkMeshWatertightness@MeshAnalyzer@Gu@physx@@SA_NPEBU?$IndexedTriangleT@H@23@I_N@Z 000000018007ee00 f   GuMeshAnalysis.obj
 0001:0007dfd0       ?destroy@?$PxArray@V?$PxArray@IV?$PxReflectionAllocator@I@physx@@@physx@@V?$PxReflectionAllocator@V?$PxArray@IV?$PxReflectionAllocator@I@physx@@@physx@@@2@@physx@@KAXPEAV?$PxArray@IV?$PxReflectionAllocator@I@physx@@@2@0@Z 000000018007efd0 f i GuMeshAnalysis.obj
 0001:0007e040       ?erase@?$PxHashBase@V?$PxPair@$$CB_KH@physx@@_KU?$PxHash@_K@2@UGetKey@?$PxHashMapBase@_KHU?$PxHash@_K@physx@@VPxAllocator@2@@2@VPxAllocator@2@$00@physx@@QEAA_NAEB_K@Z 000000018007f040 f i GuMeshAnalysis.obj
 0001:0007e1f0       ?growAndPushBack@?$PxArray@V?$PxArray@IV?$PxReflectionAllocator@I@physx@@@physx@@V?$PxReflectionAllocator@V?$PxArray@IV?$PxReflectionAllocator@I@physx@@@physx@@@2@@physx@@IEAAAEAV?$PxArray@IV?$PxReflectionAllocator@I@physx@@@2@AEBV32@@Z 000000018007f1f0 f i GuMeshAnalysis.obj
 0001:0007e360       ?makeTriOrientationConsistent@MeshAnalyzer@Gu@physx@@SA_NPEAU?$IndexedTriangleT@H@23@I_N@Z 000000018007f360 f   GuMeshAnalysis.obj
 0001:0007e4d0       ?recreate@?$PxArray@_NV?$PxReflectionAllocator@_N@physx@@@physx@@IEAAXI@Z 000000018007f4d0 f i GuMeshAnalysis.obj
 0001:0007e5c0       ?resize@?$PxArray@HV?$PxReflectionAllocator@H@physx@@@physx@@QEAAXIAEBH@Z 000000018007f5c0 f i GuMeshAnalysis.obj
 0001:0007e680       ?resize@?$PxArray@_NV?$PxReflectionAllocator@_N@physx@@@physx@@QEAAXIAEB_N@Z 000000018007f680 f i GuMeshAnalysis.obj
 0001:0007e740       ?contactBoxBox@Gu@physx@@YA_NAEBVPxGeometry@2@0AEBUPxTransformPadded@2@1AEBUNarrowPhaseParams@12@AEAUCache@12@AEAVPxContactBuffer@2@PEAVPxRenderOutput@2@@Z 000000018007f740 f   GuContactBoxBox.obj
 0001:00082570       ?contactCapsuleBox@Gu@physx@@YA_NAEBVPxGeometry@2@0AEBUPxTransformPadded@2@1AEBUNarrowPhaseParams@12@AEAUCache@12@AEAVPxContactBuffer@2@PEAVPxRenderOutput@2@@Z 0000000180083570 f   GuContactCapsuleBox.obj
 0001:00082d80       ?contactCapsuleCapsule@Gu@physx@@YA_NAEBVPxGeometry@2@0AEBUPxTransformPadded@2@1AEBUNarrowPhaseParams@12@AEAUCache@12@AEAVPxContactBuffer@2@PEAVPxRenderOutput@2@@Z 0000000180083d80 f   GuContactCapsuleCapsule.obj
 0001:00085770       ?contactCapsuleConvex@Gu@physx@@YA_NAEBVPxGeometry@2@0AEBUPxTransformPadded@2@1AEBUNarrowPhaseParams@12@AEAUCache@12@AEAVPxContactBuffer@2@PEAVPxRenderOutput@2@@Z 0000000180086770 f   GuContactCapsuleConvex.obj
 0001:00087ca0       ?contactCapsuleHeightfield@Gu@physx@@YA_NAEBVPxGeometry@2@0AEBUPxTransformPadded@2@1AEBUNarrowPhaseParams@12@AEAUCache@12@AEAVPxContactBuffer@2@PEAVPxRenderOutput@2@@Z 0000000180088ca0 f   GuContactCapsuleMesh.obj
 0001:000884d0       ?contactCapsuleMesh@Gu@physx@@YA_NAEBVPxGeometry@2@0AEBUPxTransformPadded@2@1AEBUNarrowPhaseParams@12@AEAUCache@12@AEAVPxContactBuffer@2@PEAVPxRenderOutput@2@@Z 00000001800894d0 f   GuContactCapsuleMesh.obj
 0001:00089650       ?transformQueryBounds@FastVertex2ShapeScaling@Cm@physx@@QEBAXAEAV?$PxVec3T@M@3@0AEAV?$PxMat33T@M@3@@Z 000000018008a650 f i GuContactCapsuleMesh.obj
 0001:0008d8e0       ?contactBoxConvex@Gu@physx@@YA_NAEBVPxGeometry@2@0AEBUPxTransformPadded@2@1AEBUNarrowPhaseParams@12@AEAUCache@12@AEAVPxContactBuffer@2@PEAVPxRenderOutput@2@@Z 000000018008e8e0 f   GuContactConvexConvex.obj
 0001:0008dab0       ?contactConvexConvex@Gu@physx@@YA_NAEBVPxGeometry@2@0AEBUPxTransformPadded@2@1AEBUNarrowPhaseParams@12@AEAUCache@12@AEAVPxContactBuffer@2@PEAVPxRenderOutput@2@@Z 000000018008eab0 f   GuContactConvexConvex.obj
 0001:0008df30       ?transformPlaneToShapeSpace@FastVertex2ShapeScaling@Cm@physx@@QEBAXAEBV?$PxVec3T@M@3@MAEAV43@AEAM@Z 000000018008ef30 f i GuContactConvexConvex.obj
 0001:0008e3e0       ??_EConvexMeshContactGenerationCallback@@UEAAPEAXI@Z 000000018008f3e0 f i GuContactConvexMesh.obj
 0001:0008e3e0       ??_GConvexMeshContactGenerationCallback@@UEAAPEAXI@Z 000000018008f3e0 f i GuContactConvexMesh.obj
 0001:0008e440       ?addData@?$CacheMap@UCachedEdge@Gu@physx@@$0IA@@Gu@physx@@QEAA_NAEBUCachedEdge@23@@Z 000000018008f440 f i GuContactConvexMesh.obj
 0001:0008e520       ?addData@?$CacheMap@UCachedVertex@Gu@physx@@$0IA@@Gu@physx@@QEAA_NAEBUCachedVertex@23@@Z 000000018008f520 f i GuContactConvexMesh.obj
 0001:0008e5b0       ?allocate@?$PxArray@IV?$PxInlineAllocator@$0BBAA@V?$PxReflectionAllocator@I@physx@@@physx@@@physx@@IEAAPEAII@Z 000000018008f5b0 f i GuContactConvexMesh.obj
 0001:0008e9b0       ?contactBoxHeightfield@Gu@physx@@YA_NAEBVPxGeometry@2@0AEBUPxTransformPadded@2@1AEBUNarrowPhaseParams@12@AEAUCache@12@AEAVPxContactBuffer@2@PEAVPxRenderOutput@2@@Z 000000018008f9b0 f   GuContactConvexMesh.obj
 0001:0008eb30       ?contactBoxMesh@Gu@physx@@YA_NAEBVPxGeometry@2@0AEBUPxTransformPadded@2@1AEBUNarrowPhaseParams@12@AEAUCache@12@AEAVPxContactBuffer@2@PEAVPxRenderOutput@2@@Z 000000018008fb30 f   GuContactConvexMesh.obj
 0001:0008ed00       ?contactConvexHeightfield@Gu@physx@@YA_NAEBVPxGeometry@2@0AEBUPxTransformPadded@2@1AEBUNarrowPhaseParams@12@AEAUCache@12@AEAVPxContactBuffer@2@PEAVPxRenderOutput@2@@Z 000000018008fd00 f   GuContactConvexMesh.obj
 0001:0008ee50       ?contactConvexMesh@Gu@physx@@YA_NAEBVPxGeometry@2@0AEBUPxTransformPadded@2@1AEBUNarrowPhaseParams@12@AEAUCache@12@AEAVPxContactBuffer@2@PEAVPxRenderOutput@2@@Z 000000018008fe50 f   GuContactConvexMesh.obj
 0001:00092570       ?processHit@ConvexMeshContactGenerationCallback@@UEAA_NAEBUPxGeomRaycastHit@physx@@AEBV?$PxVec3T@M@3@11AEAMPEBI@Z 0000000180093570 f i GuContactConvexMesh.obj
 0001:00092f30       ?recreate@?$PxArray@IV?$PxInlineAllocator@$0BBAA@V?$PxReflectionAllocator@I@physx@@@physx@@@physx@@IEAAXI@Z 0000000180093f30 f i GuContactConvexMesh.obj
 0001:000943a0       ?contactPlaneBox@Gu@physx@@YA_NAEBVPxGeometry@2@0AEBUPxTransformPadded@2@1AEBUNarrowPhaseParams@12@AEAUCache@12@AEAVPxContactBuffer@2@PEAVPxRenderOutput@2@@Z 00000001800953a0 f   GuContactPlaneBox.obj
 0001:00095040       ?contactPlaneCapsule@Gu@physx@@YA_NAEBVPxGeometry@2@0AEBUPxTransformPadded@2@1AEBUNarrowPhaseParams@12@AEAUCache@12@AEAVPxContactBuffer@2@PEAVPxRenderOutput@2@@Z 0000000180096040 f   GuContactPlaneCapsule.obj
 0001:00095710       ?contactPlaneConvex@Gu@physx@@YA_NAEBVPxGeometry@2@0AEBUPxTransformPadded@2@1AEBUNarrowPhaseParams@12@AEAUCache@12@AEAVPxContactBuffer@2@PEAVPxRenderOutput@2@@Z 0000000180096710 f   GuContactPlaneConvex.obj
 0001:00097440       ?contactPolygonPolygonExt@Gu@physx@@YA_NIPEBV?$PxVec3T@M@2@PEBEAEBV?$PxMat34T@M@2@AEBVPxPlane@2@AEBV?$PxMat33T@M@2@I01234AEBV32@22IIAEAVPxContactBuffer@2@_N5M@Z 0000000180098440 f   GuContactPolygonPolygon.obj
 0001:00098bb0       ?findRotationMatrixFromZ@Gu@physx@@YA?AV?$PxMat33T@M@2@AEBV?$PxVec3T@M@2@@Z 0000000180099bb0 f   GuContactPolygonPolygon.obj
 0001:000995d0       ?contactSphereBox@Gu@physx@@YA_NAEBVPxGeometry@2@0AEBUPxTransformPadded@2@1AEBUNarrowPhaseParams@12@AEAUCache@12@AEAVPxContactBuffer@2@PEAVPxRenderOutput@2@@Z 000000018009a5d0 f   GuContactSphereBox.obj
 0001:00099ba0       ?contactSphereCapsule@Gu@physx@@YA_NAEBVPxGeometry@2@0AEBUPxTransformPadded@2@1AEBUNarrowPhaseParams@12@AEAUCache@12@AEAVPxContactBuffer@2@PEAVPxRenderOutput@2@@Z 000000018009aba0 f   GuContactSphereCapsule.obj
 0001:0009a980       ?contactSphereHeightfield@Gu@physx@@YA_NAEBVPxGeometry@2@0AEBUPxTransformPadded@2@1AEBUNarrowPhaseParams@12@AEAUCache@12@AEAVPxContactBuffer@2@PEAVPxRenderOutput@2@@Z 000000018009b980 f   GuContactSphereMesh.obj
 0001:0009b3a0       ?contactSphereMesh@Gu@physx@@YA_NAEBVPxGeometry@2@0AEBUPxTransformPadded@2@1AEBUNarrowPhaseParams@12@AEAUCache@12@AEAVPxContactBuffer@2@PEAVPxRenderOutput@2@@Z 000000018009c3a0 f   GuContactSphereMesh.obj
 0001:0009d880       ?contactSpherePlane@Gu@physx@@YA_NAEBVPxGeometry@2@0AEBUPxTransformPadded@2@1AEBUNarrowPhaseParams@12@AEAUCache@12@AEAVPxContactBuffer@2@PEAVPxRenderOutput@2@@Z 000000018009e880 f   GuContactSpherePlane.obj
 0001:0009da90       ?contactSphereSphere@Gu@physx@@YA_NAEBVPxGeometry@2@0AEBUPxTransformPadded@2@1AEBUNarrowPhaseParams@12@AEAUCache@12@AEAVPxContactBuffer@2@PEAVPxRenderOutput@2@@Z 000000018009ea90 f   GuContactSphereSphere.obj
 0001:0009dc10       ?contactCustomGeometryGeometry@Gu@physx@@YA_NAEBVPxGeometry@2@0AEBUPxTransformPadded@2@1AEBUNarrowPhaseParams@12@AEAUCache@12@AEAVPxContactBuffer@2@PEAVPxRenderOutput@2@@Z 000000018009ec10 f   GuContactCustomGeometry.obj
 0001:0009dc70       ?contactGeometryCustomGeometry@Gu@physx@@YA_NAEBVPxGeometry@2@0AEBUPxTransformPadded@2@1AEBUNarrowPhaseParams@12@AEAUCache@12@AEAVPxContactBuffer@2@PEAVPxRenderOutput@2@@Z 000000018009ec70 f   GuContactCustomGeometry.obj
 0001:0009dd30       ?selectNormal@Gu@physx@@YA_NEMM@Z 000000018009ed30 f   GuFeatureCode.obj
 0001:0009ddb0       ??0BigConvexData@physx@@QEAA@XZ 000000018009edb0 f   GuBigConvexData.obj
 0001:0009ddd0       ??1BigConvexData@physx@@QEAA@XZ 000000018009edd0 f   GuBigConvexData.obj
 0001:0009de90       ?ComputeNearestOffset@BigConvexData@physx@@QEBAIAEBV?$PxVec3T@M@2@@Z 000000018009ee90 f   GuBigConvexData.obj
 0001:0009df90       ?ComputeOffset@BigConvexData@physx@@QEBAIAEBV?$PxVec3T@M@2@@Z 000000018009ef90 f   GuBigConvexData.obj
 0001:0009e090       ?CreateOffsets@BigConvexData@physx@@IEAAXXZ 000000018009f090 f   GuBigConvexData.obj
 0001:0009e0e0       ?Load@BigConvexData@physx@@QEAA_NAEAVPxInputStream@2@@Z 000000018009f0e0 f   GuBigConvexData.obj
 0001:0009e1f0       ?VLoad@BigConvexData@physx@@IEAA_NAEAVPxInputStream@2@@Z 000000018009f1f0 f   GuBigConvexData.obj
 0001:0009e390       ?exportExtraData@BigConvexData@physx@@QEAAXAEAVPxSerializationContext@2@@Z 000000018009f390 f   GuBigConvexData.obj
 0001:0009e410       ?importExtraData@BigConvexData@physx@@QEAAXAEAVPxDeserializationContext@2@@Z 000000018009f410 f   GuBigConvexData.obj
 0001:0009e480       ?findUniqueConvexEdges@Gu@physx@@YAIIPEIAUConvexEdge@12@IPEIBUHullPolygonData@12@PEIBE@Z 000000018009f480 f   GuConvexHelper.obj
 0001:0009e5c0       ?getConvexData@Gu@physx@@YA_NAEBVPxConvexMeshGeometry@2@AEAVFastVertex2ShapeScaling@Cm@2@AEAVPxBounds3@2@AEAUPolygonalData@12@@Z 000000018009f5c0 f   GuConvexHelper.obj
 0001:0009e850       ?getScaledConvex@Gu@physx@@YAXAEAPEAV?$PxVec3T@M@2@AEAPEAEPEAV32@PEAE_NPEBV32@PEBEIAEBVFastVertex2ShapeScaling@Cm@2@@Z 000000018009f850 f   GuConvexHelper.obj
 0001:0009e980       ??0ConvexMesh@Gu@physx@@QEAA@PEAVMeshFactory@12@@Z 000000018009f980 f   GuConvexMesh.obj
 0001:0009ea10       ??0ConvexMesh@Gu@physx@@QEAA@PEAVMeshFactory@12@AEAUConvexHullInitData@12@@Z 000000018009fa10 f   GuConvexMesh.obj
 0001:0009eb30       ??_EConvexMesh@Gu@physx@@UEAAPEAXI@Z 000000018009fb30 f i GuConvexMesh.obj
 0001:0009eb30       ??_GConvexMesh@Gu@physx@@UEAAPEAXI@Z 000000018009fb30 f i GuConvexMesh.obj
 0001:0009ec40       ??_EPxBVH@physx@@MEAAPEAXI@Z 000000018009fc40 f i GuBVH.obj
 0001:0009ec40       ??_EPxBase@physx@@MEAAPEAXI@Z 000000018009fc40 f i GuConvexMesh.obj
 0001:0009ec40       ??_GPxBVH@physx@@MEAAPEAXI@Z 000000018009fc40 f i GuBVH.obj
 0001:0009ec40       ??_GPxBase@physx@@MEAAPEAXI@Z 000000018009fc40 f i GuConvexMesh.obj
 0001:0009ec70       ?acquireReference@ConvexMesh@Gu@physx@@UEAAXXZ 000000018009fc70 f   GuConvexMesh.obj
 0001:0009ec70       ?acquireReference@HeightField@Gu@physx@@UEAAXXZ 000000018009fc70 f   GuHeightField.obj
 0001:0009ec70       ?acquireReference@SoftBodyAuxData@Gu@physx@@UEAAXXZ 000000018009fc70 f   GuTetrahedronMesh.obj
 0001:0009ec70       ?acquireReference@SoftBodyMesh@Gu@physx@@UEAAXXZ 000000018009fc70 f   GuTetrahedronMesh.obj
 0001:0009ec70       ?acquireReference@TetrahedronMesh@Gu@physx@@UEAAXXZ 000000018009fc70 f   GuTetrahedronMesh.obj
 0001:0009ec70       ?acquireReference@TriangleMesh@Gu@physx@@UEAAXXZ 000000018009fc70 f   GuTriangleMesh.obj
 0001:0009f140       ?createObject@ConvexMesh@Gu@physx@@SAPEAV123@AEAPEAEAEAVPxDeserializationContext@3@@Z 00000001800a0140 f   GuConvexMesh.obj
 0001:0009f230       ?exportExtraData@ConvexMesh@Gu@physx@@UEAAXAEAVPxSerializationContext@3@@Z 00000001800a0230 f   GuConvexMesh.obj
 0001:0009f300       ?getConcreteTypeName@PxConvexMesh@physx@@UEBAPEBDXZ 00000001800a0300 f i GuConvexMesh.obj
 0001:0009f310       ?getIndexBuffer@ConvexMesh@Gu@physx@@UEBAPEBEXZ 00000001800a0310 f i GuConvexMesh.obj
 0001:0009f350       ?getLocalBounds@ConvexMesh@Gu@physx@@UEBA?AVPxBounds3@3@XZ 00000001800a0350 f   GuConvexMesh.obj
 0001:0009f3e0       ?getMassInformation@ConvexMesh@Gu@physx@@UEBAXAEAMAEAV?$PxMat33T@M@3@AEAV?$PxVec3T@M@3@@Z 00000001800a03e0 f   GuConvexMesh.obj
 0001:0009f450       ?getNbPolygons@ConvexMesh@Gu@physx@@UEBAIXZ 00000001800a0450 f i GuConvexMesh.obj
 0001:0009f460       ?getNbVertices@ConvexMesh@Gu@physx@@UEBAIXZ 00000001800a0460 f i GuConvexMesh.obj
 0001:0009f470       ?getPolygonData@ConvexMesh@Gu@physx@@UEBA_NIAEAUPxHullPolygon@3@@Z 00000001800a0470 f   GuConvexMesh.obj
 0001:0009f4c0       ?getReferenceCount@ConvexMesh@Gu@physx@@UEBAIXZ 00000001800a04c0 f   GuConvexMesh.obj
 0001:0009f4c0       ?getReferenceCount@HeightField@Gu@physx@@UEBAIXZ 00000001800a04c0 f   GuHeightField.obj
 0001:0009f4c0       ?getReferenceCount@SoftBodyAuxData@Gu@physx@@UEBAIXZ 00000001800a04c0 f   GuTetrahedronMesh.obj
 0001:0009f4c0       ?getReferenceCount@SoftBodyMesh@Gu@physx@@UEBAIXZ 00000001800a04c0 f   GuTetrahedronMesh.obj
 0001:0009f4c0       ?getReferenceCount@TetrahedronMesh@Gu@physx@@UEBAIXZ 00000001800a04c0 f   GuTetrahedronMesh.obj
 0001:0009f4c0       ?getReferenceCount@TriangleMesh@Gu@physx@@UEBAIXZ 00000001800a04c0 f   GuTriangleMesh.obj
 0001:0009f4c0       ?length@DNameStatusNode@@UEBAHXZ 00000001800a04c0 f   libvcruntime:undname.obj
 0001:0009f4c0       ?raw_length@DNameStatusNode@@UEBAHXZ 00000001800a04c0 f   libvcruntime:undname.obj
 0001:0009f4d0       ?getSDF@ConvexMesh@Gu@physx@@UEBAPEBMXZ 00000001800a04d0 f   GuConvexMesh.obj
 0001:0009f4e0       ?getVertices@ConvexMesh@Gu@physx@@UEBAPEBV?$PxVec3T@M@3@XZ 00000001800a04e0 f i GuConvexMesh.obj
 0001:0009f500       ?isGpuCompatible@ConvexMesh@Gu@physx@@UEBA_NXZ 00000001800a0500 f   GuConvexMesh.obj
 0001:0009f540       ?isKindOf@PxBase@physx@@MEBA_NPEBD@Z 00000001800a0540 f i GuConvexMesh.obj
 0001:0009f570       ?isKindOf@PxConvexMesh@physx@@MEBA_NPEBD@Z 00000001800a0570 f i GuConvexMesh.obj
 0001:0009f5e0       ?isReleasable@PxBase@physx@@UEBA_NXZ 00000001800a05e0 f i GuConvexMesh.obj
 0001:0009f5f0       ?load@ConvexMesh@Gu@physx@@QEAA_NAEAVPxInputStream@3@@Z 00000001800a05f0 f   GuConvexMesh.obj
 0001:0009fb80       ?onRefCountZero@ConvexMesh@Gu@physx@@UEAAXXZ 00000001800a0b80 f   GuConvexMesh.obj
 0001:0009fcb0       ?release@ConvexMesh@Gu@physx@@UEAAXXZ 00000001800a0cb0 f   GuConvexMesh.obj
 0001:0009fcb0       ?release@HeightField@Gu@physx@@UEAAXXZ 00000001800a0cb0 f   GuHeightField.obj
 0001:0009fcb0       ?release@SoftBodyAuxData@Gu@physx@@UEAAXXZ 00000001800a0cb0 f   GuTetrahedronMesh.obj
 0001:0009fcb0       ?release@SoftBodyMesh@Gu@physx@@UEAAXXZ 00000001800a0cb0 f   GuTetrahedronMesh.obj
 0001:0009fcb0       ?release@TetrahedronMesh@Gu@physx@@UEAAXXZ 00000001800a0cb0 f   GuTetrahedronMesh.obj
 0001:0009fcb0       ?release@TriangleMesh@Gu@physx@@UEAAXXZ 00000001800a0cb0 f   GuTriangleMesh.obj
 0001:0009fce0       ??Dphysx@@YA?AV?$PxMat34T@M@0@AEBVPxMeshScale@0@AEBV10@@Z 00000001800a0ce0 f i GuConvexUtilsInternal.obj
 0001:000a0280       ?computeHullOBB@Gu@physx@@YAXAEAVBox@12@AEBVPxBounds3@2@MAEBV?$PxMat34T@M@2@2AEBVFastVertex2ShapeScaling@Cm@2@_N@Z 00000001800a1280 f   GuConvexUtilsInternal.obj
 0001:000a0730       ?computeOBBAroundConvex@Gu@physx@@YAXAEAVBox@12@AEBVPxConvexMeshGeometry@2@PEBVPxConvexMesh@2@AEBV?$PxTransformT@M@2@@Z 00000001800a1730 f   GuConvexUtilsInternal.obj
 0001:000a0f80       ?computeVertexSpaceOBB@Gu@physx@@YAXAEAVBox@12@AEBV312@AEBV?$PxTransformT@M@2@AEBVPxMeshScale@2@@Z 00000001800a1f80 f   GuConvexUtilsInternal.obj
 0001:000a12b0       ?transform@physx@@YA?AVBox@Gu@1@AEBV?$PxMat34T@M@1@AEBV231@@Z 00000001800a22b0 f i GuConvexUtilsInternal.obj
 0001:000a1500       ?localSearch@physx@@YAXAEAIAEBV?$PxVec3T@M@1@PEBV21@PEBUBigConvexRawData@Gu@1@@Z 00000001800a2500 f   GuHillClimbing.obj
 0001:000a1630       ??0PCMPolygonalBox@Gu@physx@@QEAA@AEBV?$PxVec3T@M@2@@Z 00000001800a2630 f   GuPCMShapeConvex.obj
 0001:000a1630       ??0PolygonalBox@Gu@physx@@QEAA@AEBV?$PxVec3T@M@2@@Z 00000001800a2630 f   GuShapeConvex.obj
 0001:000a2af0       ?getPolygonalData@PolygonalBox@Gu@physx@@QEBAXPEIAUPolygonalData@23@@Z 00000001800a3af0 f   GuShapeConvex.obj
 0001:000a2b60       ?getPolygonalData_Convex@Gu@physx@@YAXPEIAUPolygonalData@12@PEIBUConvexHullData@12@AEBVFastVertex2ShapeScaling@Cm@2@@Z 00000001800a3b60 f   GuShapeConvex.obj
 0001:000a2cc0       ?distancePointBoxSquared@Gu@physx@@YAMAEBV?$PxVec3T@M@2@00AEBV?$PxMat33T@M@2@PEAV32@@Z 00000001800a3cc0 f   GuDistancePointBox.obj
 0001:000a2e10       ?closestPtPointTriangle@Gu@physx@@YA?AV?$PxVec3T@M@2@AEBV32@000AEAM1@Z 00000001800a3e10 f   GuDistancePointTriangle.obj
 0001:000a3330       ?distancePointTriangleSquared@Gu@physx@@YA?AT__m128@@AEBT3@000AEAT3@11@Z 00000001800a4330 f   GuDistancePointTriangle.obj
 0001:000a4080       ?distanceSegmentBoxSquared@Gu@physx@@YAMAEBV?$PxVec3T@M@2@000AEBV?$PxMat33T@M@2@PEAMPEAV32@@Z 00000001800a5080 f   GuDistanceSegmentBox.obj
 0001:000a4900       ?distanceSegmentSegmentSquared4@Gu@physx@@YA?AT__m128@@AEBT3@000000000AEAT3@1@Z 00000001800a5900 f   GuDistanceSegmentSegment.obj
 0001:000a4c10       ?distanceSegmentSegmentSquared@Gu@physx@@YA?AT__m128@@AEBT3@000AEAT3@1@Z 00000001800a5c10 f   GuDistanceSegmentSegment.obj
 0001:000a4dd0       ?distanceSegmentSegmentSquared@Gu@physx@@YAMAEBV?$PxVec3T@M@2@000PEAM1@Z 00000001800a5dd0 f   GuDistanceSegmentSegment.obj
 0001:000a5060       ?distanceSegmentSegmentSquared@Gu@physx@@YAMAEBV?$PxVec3T@M@2@0M00MPEAM1@Z 00000001800a6060 f   GuDistanceSegmentSegment.obj
 0001:000a57a0       ?distanceSegmentTriangleSquared@Gu@physx@@YA?AT__m128@@AEBT3@0000AEAT3@1@Z 00000001800a67a0 f   GuDistanceSegmentTriangle.obj
 0001:000a5ee0       ?distanceSegmentTriangleSquared@Gu@physx@@YAMAEBV?$PxVec3T@M@2@0000PEAM11@Z 00000001800a6ee0 f   GuDistanceSegmentTriangle.obj
 0001:000a7550       ?PointOutsideOfPlane4@Gu@physx@@YA?AV?$PxVec4T@M@2@AEBV?$PxVec3T@M@2@0000@Z 00000001800a8550 f   GuDistancePointTetrahedron.obj
 0001:000a79c0       ?closestPtPointTetrahedron@Gu@physx@@YA?AV?$PxVec3T@M@2@AEBV32@0000AEBV?$PxVec4T@M@2@@Z 00000001800a89c0 f   GuDistancePointTetrahedron.obj
 0001:000a8ab0       ?PenetrationDepth@EPA@Gu@physx@@QEAA?AW4GjkStatus@23@AEBUGjkConvex@23@0PEIBT__m128@@1E_NT6@AEAUGjkOutput@23@@Z 00000001800a9ab0 f   GuEPA.obj
 0001:000a9570       ?addFacet@EPA@Gu@physx@@QEAAPEAVFacet@23@IIIAEBT__m128@@@Z 00000001800aa570 f   GuEPA.obj
 0001:000a99a0       ?epaPenetration@Gu@physx@@YA?AW4GjkStatus@12@AEBUGjkConvex@12@0PEIBE1E_NT__m128@@AEAUGjkOutput@12@@Z 00000001800aa9a0 f   GuEPA.obj
 0001:000a9b10       ?epaPenetration@Gu@physx@@YA?AW4GjkStatus@12@AEBUGjkConvex@12@0PEIBT__m128@@1E_NT5@AEAUGjkOutput@12@@Z 00000001800aab10 f   GuEPA.obj
 0001:000a9bc0       ?silhouette@Facet@Gu@physx@@QEAAXAEBT__m128@@PEIBT4@1AEAVEdgeBuffer@23@AEAV?$InlineDeferredIDPool@$0EA@@Cm@3@@Z 00000001800aabc0 f   GuEPA.obj
 0001:000a9d90       ?closestPtPointTetrahedron@Gu@physx@@YA?AT__m128@@PEIAT3@00AEAI@Z 00000001800aad90 f   GuGJKSimplex.obj
 0001:000aa500       ?closestPtPointTetrahedron@Gu@physx@@YA?AT__m128@@PEIAT3@00PEIAH1AEAI@Z 00000001800ab500 f   GuGJKSimplex.obj
 0001:000abf80       ??$gjk@UGjkConvex@Gu@physx@@U123@@Gu@physx@@YA?AW4GjkStatus@01@AEBUGjkConvex@01@0AEBT__m128@@1AEAT4@222@Z 00000001800acf80 f i GuGJKTest.obj
 0001:000acba0       ??$gjkPenetration@UGjkConvex@Gu@physx@@U123@@Gu@physx@@YA?AW4GjkStatus@01@AEBUGjkConvex@01@0AEBT__m128@@1_NPEIAE3AEAEAEAUGjkOutput@01@@Z 00000001800adba0 f i GuGJKTest.obj
 0001:000acc10       ??$gjkPenetration@UGjkConvex@Gu@physx@@U123@@Gu@physx@@YA?AW4GjkStatus@01@AEBUGjkConvex@01@0AEBT__m128@@1_NPEIAE3PEIAT4@4AEAEAEAUGjkOutput@01@@Z 00000001800adc10 f i GuGJKTest.obj
 0001:000ae060       ?testEpaPenetration@Gu@physx@@YA?AW4GjkStatus@12@AEBUGjkConvex@12@0PEBE1EAEAUGjkOutput@12@@Z 00000001800af060 f   GuGJKTest.obj
 0001:000ae0b0       ?testGjk@Gu@physx@@YA?AW4GjkStatus@12@AEBUGjkConvex@12@0AEBT__m128@@1AEAT5@222@Z 00000001800af0b0 f   GuGJKTest.obj
 0001:000ae0c0       ?testGjkPenetration@Gu@physx@@YA?AW4GjkStatus@12@AEBUGjkConvex@12@0AEBT__m128@@1PEAE2AEAEAEAUGjkOutput@12@@Z 00000001800af0c0 f   GuGJKTest.obj
 0001:000ae110       ??0HeightField@Gu@physx@@QEAA@PEAVMeshFactory@12@@Z 00000001800af110 f   GuHeightField.obj
 0001:000ae160       ??0HeightField@Gu@physx@@QEAA@PEAVMeshFactory@12@AEAUHeightFieldData@12@@Z 00000001800af160 f   GuHeightField.obj
 0001:000ae210       ??1HeightField@Gu@physx@@UEAA@XZ 00000001800af210 f   GuHeightField.obj
 0001:000ae290       ??_EHeightField@Gu@physx@@UEAAPEAXI@Z 00000001800af290 f i GuHeightField.obj
 0001:000ae290       ??_GHeightField@Gu@physx@@UEAAPEAXI@Z 00000001800af290 f i GuHeightField.obj
 0001:000ae340       ?computeCellCoordinates@HeightField@Gu@physx@@QEBAIMMAEAM0@Z 00000001800af340 f   GuHeightField.obj
 0001:000ae460       ?createObject@HeightField@Gu@physx@@SAPEAV123@AEAPEAEAEAVPxDeserializationContext@3@@Z 00000001800af460 f   GuHeightField.obj
 0001:000ae4b0       ?exportExtraData@HeightField@Gu@physx@@UEAAXAEAVPxSerializationContext@3@@Z 00000001800af4b0 f   GuHeightField.obj
 0001:000ae500       ?getConcreteTypeName@PxHeightField@physx@@UEBAPEBDXZ 00000001800af500 f i GuHeightField.obj
 0001:000ae510       ?getConvexEdgeThreshold@HeightField@Gu@physx@@UEBAMXZ 00000001800af510 f i GuHeightField.obj
 0001:000ae520       ?getFlags@HeightField@Gu@physx@@UEBA?AV?$PxFlags@W4Enum@PxHeightFieldFlag@physx@@G@3@XZ 00000001800af520 f i GuHeightField.obj
 0001:000ae530       ?getFormat@HeightField@Gu@physx@@UEBA?AW4Enum@PxHeightFieldFormat@3@XZ 00000001800af530 f i GuHeightField.obj
 0001:000ae540       ?getHeight@HeightField@Gu@physx@@UEBAMMM@Z 00000001800af540 f i GuHeightField.obj
 0001:000ae660       ?getNbColumns@HeightField@Gu@physx@@UEBAIXZ 00000001800af660 f i GuHeightField.obj
 0001:000ae670       ?getNbBounds@BVH@Gu@physx@@UEBAIXZ 00000001800af670 f i GuBVH.obj
 0001:000ae670       ?getNbPrimitives@SourceMesh@Gu@physx@@UEBAIXZ 00000001800af670 f i GuBV4.obj
 0001:000ae670       ?getNbPrimitives@TetrahedronSourceMesh@Gu@physx@@UEBAIXZ 00000001800af670 f i GuBV4.obj
 0001:000ae670       ?getNbRows@HeightField@Gu@physx@@UEBAIXZ 00000001800af670 f i GuHeightField.obj
 0001:000ae680       ?getSample@HeightField@Gu@physx@@UEBAAEBUPxHeightFieldSample@3@II@Z 00000001800af680 f i GuHeightField.obj
 0001:000ae690       ?getSampleStride@HeightField@Gu@physx@@UEBAIXZ 00000001800af690 f i GuHeightField.obj
 0001:000ae6a0       ?getTimestamp@HeightField@Gu@physx@@UEBAIXZ 00000001800af6a0 f i GuHeightField.obj
 0001:000ae6b0       ?getTriangleMaterialIndex@HeightField@Gu@physx@@UEBAGI@Z 00000001800af6b0 f i GuHeightField.obj
 0001:000ae6e0       ?getTriangleNormal@HeightField@Gu@physx@@UEBA?AV?$PxVec3T@M@3@I@Z 00000001800af6e0 f i GuHeightField.obj
 0001:000ae700       ?getTriangleNormalInternal@HeightField@Gu@physx@@QEBA?AV?$PxVec3T@M@3@I@Z 00000001800af700 f i GuHeightField.obj
 0001:000aea30       ?isCollisionVertexPreca@HeightField@Gu@physx@@QEBA_NIIIG@Z 00000001800afa30 f   GuHeightField.obj
 0001:000aead0       ?isConvexVertex@HeightField@Gu@physx@@QEBA_NIII@Z 00000001800afad0 f i GuHeightField.obj
 0001:000aeba0       ?isKindOf@PxHeightField@physx@@MEBA_NPEBD@Z 00000001800afba0 f i GuHeightField.obj
 0001:000aec10       ?isSolidVertex@HeightField@Gu@physx@@QEBA_NIIIGAEA_N@Z 00000001800afc10 f   GuHeightField.obj
 0001:000aeea0       ?load@HeightField@Gu@physx@@QEAA_NAEAVPxInputStream@3@@Z 00000001800afea0 f   GuHeightField.obj
 0001:000af200       ?loadFromDesc@HeightField@Gu@physx@@QEAA_NAEBVPxHeightFieldDesc@3@@Z 00000001800b0200 f   GuHeightField.obj
 0001:000af480       ?modifySamples@HeightField@Gu@physx@@UEAA_NHHAEBVPxHeightFieldDesc@3@_N@Z 00000001800b0480 f   GuHeightField.obj
 0001:000af830       ?onRefCountZero@HeightField@Gu@physx@@UEAAXXZ 00000001800b0830 f   GuHeightField.obj
 0001:000af900       ?parseTrianglesForCollisionVertices@HeightField@Gu@physx@@QEAAXG@Z 00000001800b0900 f   GuHeightField.obj
 0001:000afe10       ?releaseMemory@HeightField@Gu@physx@@QEAAXXZ 00000001800b0e10 f   GuHeightField.obj
 0001:000afe60       ?resizeAndClear@?$PxBitMapBase@VPxAllocator@physx@@@physx@@QEAAXI@Z 00000001800b0e60 f i GuHeightField.obj
 0001:000aff10       ?save@HeightField@Gu@physx@@QEAA_NAEAVPxOutputStream@3@_N@Z 00000001800b0f10 f   GuHeightField.obj
 0001:000b0150       ?saveCells@HeightField@Gu@physx@@UEBAIPEAXI@Z 00000001800b1150 f   GuHeightField.obj
 0001:000b0190       ?computeLocalBounds@HeightFieldUtil@Gu@physx@@QEBAXAEAVPxBounds3@3@@Z 00000001800b1190 f   GuHeightFieldUtil.obj
 0001:000b0660       ?getTriangle@HeightFieldUtil@Gu@physx@@QEBAIAEBV?$PxTransformT@M@3@AEAVPxTriangle@3@PEAI2I_N3@Z 00000001800b1660 f   GuHeightFieldUtil.obj
 0001:000b0e80       ?getTriangleAdjacencyIndices@HeightField@Gu@physx@@QEBAXIIIIAEAI00@Z 00000001800b1e80 f i GuHeightFieldUtil.obj
 0001:000b1030       ?getTriangleVertexIndices@HeightField@Gu@physx@@QEBAXIAEAI00@Z 00000001800b2030 f i GuHeightFieldUtil.obj
 0001:000b10f0       ?overlapAABBTriangles@HeightFieldUtil@Gu@physx@@QEBAXAEBVPxBounds3@3@AEAVOverlapReport@23@I@Z 00000001800b20f0 f   GuHeightFieldUtil.obj
 0001:000b1550       ??$gjk@U?$RelativeConvex@VTriangleV@Gu@physx@@@Gu@physx@@U?$LocalConvex@VConvexHullV@Gu@physx@@@23@@Gu@physx@@YA?AW4GjkStatus@01@AEBU?$RelativeConvex@VTriangleV@Gu@physx@@@01@AEBU?$LocalConvex@VConvexHullV@Gu@physx@@@01@AEBT__m128@@2AEAT5@333@Z 00000001800b2550 f i GuOverlapTestsHF.obj
 0001:000b2490       ?GeomOverlapCallback_BoxHeightfield@@YA_NAEBVPxGeometry@physx@@AEBV?$PxTransformT@M@2@01PEAUTriggerCache@Gu@2@PEAUPxQueryThreadContext@2@@Z 00000001800b3490 f   GuOverlapTestsHF.obj
 0001:000b29f0       ?GeomOverlapCallback_CapsuleHeightfield@@YA_NAEBVPxGeometry@physx@@AEBV?$PxTransformT@M@2@01PEAUTriggerCache@Gu@2@PEAUPxQueryThreadContext@2@@Z 00000001800b39f0 f   GuOverlapTestsHF.obj
 0001:000b2ff0       ?GeomOverlapCallback_ConvexHeightfield@@YA_NAEBVPxGeometry@physx@@AEBV?$PxTransformT@M@2@01PEAUTriggerCache@Gu@2@PEAUPxQueryThreadContext@2@@Z 00000001800b3ff0 f   GuOverlapTestsHF.obj
 0001:000b3a30       ?GeomOverlapCallback_SphereHeightfield@@YA_NAEBVPxGeometry@physx@@AEBV?$PxTransformT@M@2@01PEAUTriggerCache@Gu@2@PEAUPxQueryThreadContext@2@@Z 00000001800b4a30 f   GuOverlapTestsHF.obj
 0001:000b45f0       ??$gjkRaycast@U?$LocalConvex@VTriangleV@Gu@physx@@@Gu@physx@@U?$LocalConvex@VConvexHullV@Gu@physx@@@23@@Gu@physx@@YA_NAEBU?$LocalConvex@VTriangleV@Gu@physx@@@01@AEBU?$LocalConvex@VConvexHullV@Gu@physx@@@01@AEBT__m128@@222AEAT4@33M@Z 00000001800b55f0 f i GuSweepsHF.obj
 0001:000b53f0       ??$traceSegment@VBoxTraceSegmentReport@@$0A@$00@HeightFieldTraceUtil@Gu@physx@@QEBAXAEBV?$PxVec3T@M@2@0MPEAVBoxTraceSegmentReport@@AEBVPxBounds3@2@_NPEBV32@@Z 00000001800b63f0 f i GuSweepsHF.obj
 0001:000b53f0       ??$traceSegment@VCapsuleTraceSegmentReport@@$0A@$00@HeightFieldTraceUtil@Gu@physx@@QEBAXAEBV?$PxVec3T@M@2@0MPEAVCapsuleTraceSegmentReport@@AEBVPxBounds3@2@_NPEBV32@@Z 00000001800b63f0 f i GuSweepsHF.obj
 0001:000b53f0       ??$traceSegment@VConvexTraceSegmentReport@@$0A@$00@HeightFieldTraceUtil@Gu@physx@@QEBAXAEBV?$PxVec3T@M@2@0MPEAVConvexTraceSegmentReport@@AEBVPxBounds3@2@_NPEBV32@@Z 00000001800b63f0 f i GuSweepsHF.obj
 0001:000b5c10       ??0ConvexTraceSegmentReport@@QEAA@AEBVHeightFieldUtil@Gu@physx@@AEBUConvexHullData@23@AEBVPxMeshScale@3@AEBV?$PxTransformT@M@3@3AEBV?$PxVec3T@M@3@MV?$PxFlags@W4Enum@PxHitFlag@physx@@G@3@M@Z 00000001800b6c10 f i GuSweepsHF.obj
 0001:000b6590       ??_EBoxTraceSegmentReport@@UEAAPEAXI@Z 00000001800b7590 f i GuSweepsHF.obj
 0001:000b6590       ??_GBoxTraceSegmentReport@@UEAAPEAXI@Z 00000001800b7590 f i GuSweepsHF.obj
 0001:000b65c0       ??_ECapsuleTraceSegmentReport@@UEAAPEAXI@Z 00000001800b75c0 f i GuSweepsHF.obj
 0001:000b65c0       ??_GCapsuleTraceSegmentReport@@UEAAPEAXI@Z 00000001800b75c0 f i GuSweepsHF.obj
 0001:000b65f0       ??_EConvexTraceSegmentReport@@UEAAPEAXI@Z 00000001800b75f0 f i GuSweepsHF.obj
 0001:000b65f0       ??_GConvexTraceSegmentReport@@UEAAPEAXI@Z 00000001800b75f0 f i GuSweepsHF.obj
 0001:000b6620       ??_EHeightFieldTraceSegmentReport@@UEAAPEAXI@Z 00000001800b7620 f i GuSweepsHF.obj
 0001:000b6620       ??_GHeightFieldTraceSegmentReport@@UEAAPEAXI@Z 00000001800b7620 f i GuSweepsHF.obj
 0001:000b6650       ?finalizeHit@ConvexTraceSegmentReport@@QEAA_NAEAUPxGeomSweepHit@physx@@AEBVPxHeightFieldGeometry@3@AEBV?$PxTransformT@M@3@AEBVPxConvexMeshGeometry@3@2AEBV?$PxVec3T@M@3@M@Z 00000001800b7650 f i GuSweepsHF.obj
 0001:000b6880       ?onEvent@BoxTraceSegmentReport@@UEAA_NIPEBI@Z 00000001800b7880 f i GuSweepsHF.obj
 0001:000b6cd0       ?onEvent@CapsuleTraceSegmentReport@@UEAA_NIPEBI@Z 00000001800b7cd0 f i GuSweepsHF.obj
 0001:000b6ef0       ?onEvent@ConvexTraceSegmentReport@@UEAA_NIPEBI@Z 00000001800b7ef0 f i GuSweepsHF.obj
 0001:000b74b0       ?prepare@?$OverlapTraceSegment@VBoxTraceSegmentReport@@@HeightFieldTraceUtil@Gu@physx@@QEAAXAEBV?$PxVec3T@M@4@00AEAM1@Z 00000001800b84b0 f i GuSweepsHF.obj
 0001:000b74b0       ?prepare@?$OverlapTraceSegment@VCapsuleTraceSegmentReport@@@HeightFieldTraceUtil@Gu@physx@@QEAAXAEBV?$PxVec3T@M@4@00AEAM1@Z 00000001800b84b0 f i GuSweepsHF.obj
 0001:000b74b0       ?prepare@?$OverlapTraceSegment@VConvexTraceSegmentReport@@@HeightFieldTraceUtil@Gu@physx@@QEAAXAEBV?$PxVec3T@M@4@00AEAM1@Z 00000001800b84b0 f i GuSweepsHF.obj
 0001:000b7770       ?sweepBox_HeightFieldGeom@@YA_NAEBVPxGeometry@physx@@AEBV?$PxTransformT@M@2@AEBVPxBoxGeometry@2@1AEBVBox@Gu@2@AEBV?$PxVec3T@M@2@MAEAUPxGeomSweepHit@2@V?$PxFlags@W4Enum@PxHitFlag@physx@@G@2@MPEAUPxQueryThreadContext@2@@Z 00000001800b8770 f   GuSweepsHF.obj
 0001:000b85c0       ?sweepCapsule_HeightFieldGeom@@YA_NAEBVPxGeometry@physx@@AEBV?$PxTransformT@M@2@AEBVPxCapsuleGeometry@2@1AEBVCapsule@Gu@2@AEBV?$PxVec3T@M@2@MAEAUPxGeomSweepHit@2@V?$PxFlags@W4Enum@PxHitFlag@physx@@G@2@MPEAUPxQueryThreadContext@2@@Z 00000001800b95c0 f   GuSweepsHF.obj
 0001:000b8f10       ?sweepConvex_HeightFieldGeom@@YA_NAEBVPxGeometry@physx@@AEBV?$PxTransformT@M@2@AEBVPxConvexMeshGeometry@2@1AEBV?$PxVec3T@M@2@MAEAUPxGeomSweepHit@2@V?$PxFlags@W4Enum@PxHitFlag@physx@@G@2@MPEAUPxQueryThreadContext@2@@Z 00000001800b9f10 f   GuSweepsHF.obj
 0001:000b98e0       ?testVertexIndex@?$OverlapTraceSegment@VBoxTraceSegmentReport@@@HeightFieldTraceUtil@Gu@physx@@QEAA_NI@Z 00000001800ba8e0 f i GuSweepsHF.obj
 0001:000b98e0       ?testVertexIndex@?$OverlapTraceSegment@VCapsuleTraceSegmentReport@@@HeightFieldTraceUtil@Gu@physx@@QEAA_NI@Z 00000001800ba8e0 f i GuSweepsHF.obj
 0001:000b98e0       ?testVertexIndex@?$OverlapTraceSegment@VConvexTraceSegmentReport@@@HeightFieldTraceUtil@Gu@physx@@QEAA_NI@Z 00000001800ba8e0 f i GuSweepsHF.obj
 0001:000b9a40       ?transformFast@PxBounds3@physx@@SA?AV12@AEBV?$PxTransformT@M@2@AEBV12@@Z 00000001800baa40 f i GuSweepsHF.obj
 0001:000b9e20       ?visitCells@?$OverlapTraceSegment@VBoxTraceSegmentReport@@@HeightFieldTraceUtil@Gu@physx@@QEAA_NAEBUOverlapRectangle@1234@@Z 00000001800bae20 f i GuSweepsHF.obj
 0001:000b9e20       ?visitCells@?$OverlapTraceSegment@VCapsuleTraceSegmentReport@@@HeightFieldTraceUtil@Gu@physx@@QEAA_NAEBUOverlapRectangle@1234@@Z 00000001800bae20 f i GuSweepsHF.obj
 0001:000b9e20       ?visitCells@?$OverlapTraceSegment@VConvexTraceSegmentReport@@@HeightFieldTraceUtil@Gu@physx@@QEAA_NAEBUOverlapRectangle@1234@@Z 00000001800bae20 f i GuSweepsHF.obj
 0001:000ba010       ?intersectOBBOBB@Gu@physx@@YA_NAEBV?$PxVec3T@M@2@0AEBV?$PxMat33T@M@2@001_N@Z 00000001800bb010 f   GuIntersectionBoxBox.obj
 0001:000ba660       ?intersectCapsuleTriangle@Gu@physx@@YA_NAEBV?$PxVec3T@M@2@000AEBVCapsule@12@AEBUCapsuleTriangleOverlapData@12@@Z 00000001800bb660 f   GuIntersectionCapsuleTriangle.obj
 0001:000bb250       ?intersectEdgeEdge@Gu@physx@@YA_NAEBV?$PxVec3T@M@2@0000AEAMAEAV32@@Z 00000001800bc250 f   GuIntersectionEdgeEdge.obj
 0001:000bb570       ?intersectRayAABB2@Gu@physx@@YA_NAEBT__m128@@0000AEAT3@1@Z 00000001800bc570 f   GuIntersectionRayBox.obj
 0001:000bb630       ?intersectRayAABB2@Gu@physx@@YA_NAEBV?$PxVec3T@M@2@000MAEAM1@Z 00000001800bc630 f   GuIntersectionRayBox.obj
 0001:000bb7e0       ?intersectRayAABB@Gu@physx@@YAHAEBV?$PxVec3T@M@2@000AEAM1@Z 00000001800bc7e0 f   GuIntersectionRayBox.obj
 0001:000bb8f0       ?rayAABBIntersect2@Gu@physx@@YAIAEBV?$PxVec3T@M@2@000AEAV32@AEAM@Z 00000001800bc8f0 f   GuIntersectionRayBox.obj
 0001:000bbaf0       ?intersectRayCapsuleInternal@Gu@physx@@YAIAEBV?$PxVec3T@M@2@000MQEAM@Z 00000001800bcaf0 f   GuIntersectionRayCapsule.obj
 0001:000bbfb0       ?intersectRaySphere@Gu@physx@@YA_NAEBV?$PxVec3T@M@2@0M0MAEAMPEAV32@@Z 00000001800bcfb0 f   GuIntersectionRaySphere.obj
 0001:000bc0a0       ?intersectRaySphereBasic@Gu@physx@@YA_NAEBV?$PxVec3T@M@2@0M0MAEAMPEAV32@@Z 00000001800bd0a0 f   GuIntersectionRaySphere.obj
 0001:000bc200       ?intersectSphereBox@Gu@physx@@YA_NAEBVSphere@12@AEBVBox@12@@Z 00000001800bd200 f   GuIntersectionSphereBox.obj
 0001:000bc430       ?intersectTetrahedronBox@Gu@physx@@YA_NAEBV?$PxVec3T@M@2@000AEBVPxBounds3@2@@Z 00000001800bd430 f   GuIntersectionTetrahedronBox.obj
 0001:000bc800       ?intersectTriangleBox@Gu@physx@@YAHAEBVBoxPadded@12@AEBV?$PxVec3T@M@2@11@Z 00000001800bd800 f   GuIntersectionTriangleBox.obj
 0001:000bcdd0       ?intersectTriangleBoxBV4@@YAHAEBV?$PxVec3T@M@physx@@00AEBV?$PxMat33T@M@2@00@Z 00000001800bddd0 f   GuIntersectionTriangleBox.obj
 0001:000bd210       ?intersectTriangleBox_ReferenceCode@Gu@physx@@YAHAEBV?$PxVec3T@M@2@0000@Z 00000001800be210 f   GuIntersectionTriangleBox.obj
 0001:000bd9e0       ?intersectTriangleBox_Unsafe@Gu@physx@@YAHAEBV?$PxVec3T@M@2@0000@Z 00000001800be9e0 f   GuIntersectionTriangleBox.obj
 0001:000be090       ?trianglesIntersect@Gu@physx@@YA_NAEBV?$PxVec3T@M@2@00000PEAVSegment@12@@Z 00000001800bf090 f   GuIntersectionTriangleTriangle.obj
 0001:000be680       ??0BV4Tree@Gu@physx@@QEAA@W4PxEMPTY@2@@Z 00000001800bf680 f   GuBV4.obj
 0001:000be690       ??0BV4Tree@Gu@physx@@QEAA@XZ 00000001800bf690 f   GuBV4.obj
 0001:000be6c0       ??0SourceMesh@Gu@physx@@QEAA@XZ 00000001800bf6c0 f   GuBV4.obj
 0001:000be6f0       ??0TetrahedronSourceMesh@Gu@physx@@QEAA@XZ 00000001800bf6f0 f   GuBV4.obj
 0001:000be720       ??1BV4Tree@Gu@physx@@QEAA@XZ 00000001800bf720 f   GuBV4.obj
 0001:000be780       ??1SourceMesh@Gu@physx@@UEAA@XZ 00000001800bf780 f   GuBV4.obj
 0001:000be780       ??1TetrahedronSourceMesh@Gu@physx@@UEAA@XZ 00000001800bf780 f   GuBV4.obj
 0001:000be7d0       ??4BV4Tree@Gu@physx@@QEAAXAEAV012@@Z 00000001800bf7d0 f   GuBV4.obj
 0001:000be860       ??4SourceMesh@Gu@physx@@QEAAXAEAV012@@Z 00000001800bf860 f   GuBV4.obj
 0001:000be8b0       ??_ESourceMesh@Gu@physx@@UEAAPEAXI@Z 00000001800bf8b0 f i GuBV4.obj
 0001:000be8b0       ??_ETetrahedronSourceMesh@Gu@physx@@UEAAPEAXI@Z 00000001800bf8b0 f i GuBV4.obj
 0001:000be8b0       ??_GSourceMesh@Gu@physx@@UEAAPEAXI@Z 00000001800bf8b0 f i GuBV4.obj
 0001:000be8b0       ??_GTetrahedronSourceMesh@Gu@physx@@UEAAPEAXI@Z 00000001800bf8b0 f i GuBV4.obj
 0001:000be950       ??_ESourceMeshBase@Gu@physx@@UEAAPEAXI@Z 00000001800bf950 f i GuBV4.obj
 0001:000be950       ??_GSourceMeshBase@Gu@physx@@UEAAPEAXI@Z 00000001800bf950 f i GuBV4.obj
 0001:000be9f0       ?exportExtraData@BV4Tree@Gu@physx@@QEAAXAEAVPxSerializationContext@3@@Z 00000001800bf9f0 f   GuBV4.obj
 0001:000bea50       ?getPrimitiveBox@SourceMesh@Gu@physx@@UEAAXIAEAT__m128@@0@Z 00000001800bfa50 f   GuBV4.obj
 0001:000beaf0       ?getPrimitiveBox@TetrahedronSourceMesh@Gu@physx@@UEAAXIAEAT__m128@@0@Z 00000001800bfaf0 f   GuBV4.obj
 0001:000bebb0       ?importExtraData@BV4Tree@Gu@physx@@QEAAXAEAVPxDeserializationContext@3@@Z 00000001800bfbb0 f   GuBV4.obj
 0001:000bec00       ?init@BV32Tree@Gu@physx@@QEAA_NPEAVSourceMeshBase@23@AEBVPxBounds3@3@@Z 00000001800bfc00 f   GuBV32.obj
 0001:000bec00       ?init@BV4Tree@Gu@physx@@QEAA_NPEAVSourceMeshBase@23@AEBVPxBounds3@3@@Z 00000001800bfc00 f   GuBV4.obj
 0001:000beca0       ?load@BV4Tree@Gu@physx@@QEAA_NAEAVPxInputStream@3@_N@Z 00000001800bfca0 f   GuBV4.obj
 0001:000beee0       ?refit@BV4Tree@Gu@physx@@QEAA_NAEAVPxBounds3@3@M@Z 00000001800bfee0 f   GuBV4.obj
 0001:000bf550       ?refit@SourceMesh@Gu@physx@@UEAAXIAEAVPxBounds3@3@@Z 00000001800c0550 f   GuBV4.obj
 0001:000bf6f0       ?refit@TetrahedronSourceMesh@Gu@physx@@UEAAXIAEAVPxBounds3@3@@Z 00000001800c06f0 f   GuBV4.obj
 0001:000bf910       ?remapTopology@SourceMesh@Gu@physx@@UEAAXPEBI@Z 00000001800c0910 f   GuBV4.obj
 0001:000bfba0       ?remapTopology@TetrahedronSourceMesh@Gu@physx@@UEAAXPEBI@Z 00000001800c0ba0 f   GuBV4.obj
 0001:000bfe20       ??0BV4_AABBTree@Gu@physx@@QEAA@XZ 00000001800c0e20 f   GuBV4Build.obj
 0001:000bfe30       ??0BVData@@QEAA@XZ         00000001800c0e30 f   GuBV4Build.obj
 0001:000bfe60       ??0BuildStats@Gu@physx@@QEAA@XZ 00000001800c0e60 f i GuBV4Build.obj
 0001:000bfe70       ??1BV4_AABBTree@Gu@physx@@QEAA@XZ 00000001800c0e70 f   GuBV4Build.obj
 0001:000bfe80       ??4BuildStats@Gu@physx@@QEAAAEAU012@$$QEAU012@@Z 00000001800c0e80 f i GuBV4Build.obj
 0001:000bfe90       ??4BuildStats@Gu@physx@@QEAAAEAU012@AEBU012@@Z 00000001800c0e90 f i GuBV4Build.obj
 0001:000bfea0       ?BuildBV4Ex@Gu@physx@@YA_NAEAVBV4Tree@12@AEAVSourceMeshBase@12@MI_NW4BV4_BuildStrategy@12@@Z 00000001800c0ea0 f   GuBV4Build.obj
 0001:000c0d90       ?allocateNode@BV4BuildParams@@QEAAPEAUBV4Node@@XZ 00000001800c1d90 f   GuBV4Build.obj
 0001:000c1200       ?buildFromMesh@BV4_AABBTree@Gu@physx@@QEAA_NAEAVSourceMeshBase@23@IW4BV4_BuildStrategy@23@@Z 00000001800c2200 f   GuBV4Build.obj
 0001:000c23b0       ?increaseCount@BuildStats@Gu@physx@@QEAAXI@Z 00000001800c33b0 f i GuBV4Build.obj
 0001:000c2e10       ?release@BV4_AABBTree@Gu@physx@@QEAAXXZ 00000001800c3e10 f   GuBV4Build.obj
 0001:000c2ec0       ?releaseNodes@BV4BuildParams@@QEAAXXZ 00000001800c3ec0 f   GuBV4Build.obj
 0001:000c2f30       ?reset@BuildStats@Gu@physx@@QEAAXXZ 00000001800c3f30 f i GuBV4Build.obj
 0001:000c2f40       ?setCount@BuildStats@Gu@physx@@QEAAXI@Z 00000001800c3f40 f i GuBV4Build.obj
 0001:000c35b0       ?walk@BV4_AABBTree@Gu@physx@@QEBAIP6A_NPEBVAABBTreeNode@23@IPEAX@Z1@Z 00000001800c45b0 f   GuBV4Build.obj
 0001:000c3670       ?walkDistance@BV4_AABBTree@Gu@physx@@QEBAIP6A_NPEBVAABBTreeNode@23@IPEAX@ZP6A_N01@Z1@Z 00000001800c4670 f   GuBV4Build.obj
 0001:000c7690       ?GenericSweep_AABB_CB@@YAXAEBVBox@Gu@physx@@AEBV?$PxVec3T@M@3@MAEBVBV4Tree@23@P6A_NPEAX111IAEAM@Z3I@Z 00000001800c8690 f   GuBV4_AABBSweep.obj
 0001:000c77f0       ?Sweep_AABB_BV4@@YAHAEBVBox@Gu@physx@@AEBV?$PxVec3T@M@3@MAEBVBV4Tree@23@PEIAVSweepHit@23@I@Z 00000001800c87f0 f   GuBV4_AABBSweep.obj
 0001:000d0530       ?BV4_OverlapBoxAll@@YAIAEBVBox@Gu@physx@@AEBVBV4Tree@23@PEIBV?$PxMat44T@M@3@PEAIIAEA_N@Z 00000001800d1530 f   GuBV4_BoxOverlap.obj
 0001:000d0d40       ?BV4_OverlapBoxAny@@YAHAEBVBox@Gu@physx@@AEBVBV4Tree@23@PEIBV?$PxMat44T@M@3@@Z 00000001800d1d40 f   GuBV4_BoxOverlap.obj
 0001:000d1540       ?BV4_OverlapBoxCB@@YAXAEBVBox@Gu@physx@@AEBVBV4Tree@23@P6A_NPEAXAEBV?$PxVec3T@M@3@333IPEBI@Z2@Z 00000001800d2540 f   GuBV4_BoxOverlap.obj
 0001:000d1c00       ?BV4_OverlapBoxCB@@YAXAEBVBox@Gu@physx@@AEBVBV4Tree@23@P6A_NPEAXAEBV?$PxVec3T@M@3@33IPEBI@Z2@Z 00000001800d2c00 f   GuBV4_BoxOverlap.obj
 0001:000d20b0       ?BV4_OverlapCapsuleAll@@YAIAEBVCapsule@Gu@physx@@AEBVBV4Tree@23@PEIBV?$PxMat44T@M@3@PEAIIAEA_N@Z 00000001800d30b0 f   GuBV4_BoxOverlap.obj
 0001:000d27d0       ?BV4_OverlapCapsuleAny@@YAHAEBVCapsule@Gu@physx@@AEBVBV4Tree@23@PEIBV?$PxMat44T@M@3@@Z 00000001800d37d0 f   GuBV4_BoxOverlap.obj
 0001:000d5680       ?BV4_CapsuleSweepSingle@@YAHAEBVCapsule@Gu@physx@@AEBV?$PxVec3T@M@3@MAEBVBV4Tree@23@PEIAVSweepHit@23@I@Z 00000001800d6680 f   GuBV4_CapsuleSweep.obj
 0001:000d9740       ?BV4_CapsuleSweepSingleAA@@YAHAEBVCapsule@Gu@physx@@AEBV?$PxVec3T@M@3@MAEBVBV4Tree@23@PEIAVSweepHit@23@I@Z 00000001800da740 f   GuBV4_CapsuleSweepAA.obj
 0001:000e9610       ?BV4_OverlapMeshVsMesh@@YA_NAEAV?$PxReportCallback@UPxGeomIndexPair@physx@@@physx@@AEBVBV4Tree@Gu@2@1PEBV?$PxMat44T@M@2@2AEBV?$PxTransformT@M@2@3AEBVPxMeshScale@2@4V?$PxFlags@W4Enum@PxMeshMeshQueryFlag@physx@@I@2@@Z 00000001800ea610 f   GuBV4_MeshMeshOverlap.obj
 0001:000e9830       ?BV4_OverlapMeshVsMesh@@YA_NAEAV?$PxReportCallback@UPxGeomIndexPair@physx@@@physx@@AEBVBV4Tree@Gu@2@1PEBV?$PxMat44T@M@2@2V?$PxFlags@W4Enum@PxMeshMeshQueryFlag@physx@@I@2@@Z 00000001800ea830 f   GuBV4_MeshMeshOverlap.obj
 0001:000f0da0       ??D?$PxMat33T@M@physx@@QEBA?BV?$PxVec3T@M@1@AEBV21@@Z 00000001800f1da0 f i GuBV4_OBBSweep.obj
 0001:000f0e30       ?BV4_BoxSweepSingle@@YAHAEBVBox@Gu@physx@@AEBV?$PxVec3T@M@3@MAEBVBV4Tree@23@PEIBV?$PxMat44T@M@3@PEIAVSweepHit@23@I@Z 00000001800f1e30 f   GuBV4_OBBSweep.obj
 0001:000f1560       ?BV4_GenericSweepCB@@YAXAEBVBox@Gu@physx@@AEBV?$PxVec3T@M@3@MAEBVBV4Tree@23@P6A_NPEAX111IAEAM@Z3_N@Z 00000001800f2560 f   GuBV4_OBBSweep.obj
 0001:000f1790       ?Sweep_OBB_BV4@@YAHAEBVBox@Gu@physx@@AEBV?$PxVec3T@M@3@MAEBVBV4Tree@23@PEIAVSweepHit@23@I@Z 00000001800f2790 f   GuBV4_OBBSweep.obj
 0001:000f42d0       ?BV4_RaycastCB@@YAXAEBV?$PxVec3T@M@physx@@0AEBVBV4Tree@Gu@2@PEIBV?$PxMat44T@M@2@MMIP6A?AW4HitCode@42@PEAX000IMMM@Z3@Z 00000001800f52d0 f   GuBV4_Raycast.obj
 0001:000f4710       ?BV4_RaycastSingle@@YAHAEBV?$PxVec3T@M@physx@@0AEBVBV4Tree@Gu@2@PEIBV?$PxMat44T@M@2@PEIAUPxGeomRaycastHit@2@MMIV?$PxFlags@W4Enum@PxHitFlag@physx@@G@2@@Z 00000001800f5710 f   GuBV4_Raycast.obj
 0001:000f6c40       ?BV4_OverlapSphereAll@@YAIAEBVSphere@Gu@physx@@AEBVBV4Tree@23@PEIBV?$PxMat44T@M@3@PEAIIAEA_N@Z 00000001800f7c40 f   GuBV4_SphereOverlap.obj
 0001:000f6f60       ?BV4_OverlapSphereAny@@YAHAEBVSphere@Gu@physx@@AEBVBV4Tree@23@PEIBV?$PxMat44T@M@3@@Z 00000001800f7f60 f   GuBV4_SphereOverlap.obj
 0001:000f7240       ?BV4_PointDistance@@YAXAEBV?$PxVec3T@M@physx@@AEBVBV4Tree@Gu@2@MAEAIAEAMAEAV12@@Z 00000001800f8240 f   GuBV4_SphereOverlap.obj
 0001:000fdc30       ?BV4_GenericSweepCB_Old@@YAXAEBV?$PxVec3T@M@physx@@00MAEBVBV4Tree@Gu@2@PEIBV?$PxMat44T@M@2@P6A_NPEAX000IAEAM@Z3@Z 00000001800fec30 f   GuBV4_SphereSweep.obj
 0001:000fe040       ?BV4_SphereSweepSingle@@YAHAEBVSphere@Gu@physx@@AEBV?$PxVec3T@M@3@MAEBVBV4Tree@23@PEIBV?$PxMat44T@M@3@PEIAVSweepHit@23@I@Z 00000001800ff040 f   GuBV4_SphereSweep.obj
 0001:000ff340       ?computeSweepData@physx@@YAMAEBVPxTriangleMeshGeometry@1@AEAV?$PxVec3T@M@1@11M@Z 0000000180100340 f i GuMidphaseBV4.obj
 0001:00100780       ?intersectBoxVsMesh_BV4@Gu@physx@@YA_NAEBVBox@12@AEBVTriangleMesh@12@AEBV?$PxTransformT@M@2@AEBVPxMeshScale@2@PEAULimitedResults@12@@Z 0000000180101780 f   GuMidphaseBV4.obj
 0001:00101290       ?intersectCapsuleVsMesh_BV4@Gu@physx@@YA_NAEBVCapsule@12@AEBVTriangleMesh@12@AEBV?$PxTransformT@M@2@AEBVPxMeshScale@2@PEAULimitedResults@12@@Z 0000000180102290 f   GuMidphaseBV4.obj
 0001:00101ad0       ?intersectMeshVsMesh_BV4@Gu@physx@@YA_NAEAV?$PxReportCallback@UPxGeomIndexPair@physx@@@2@AEBVTriangleMesh@12@1AEBV?$PxTransformT@M@2@2AEBVPxMeshScale@2@3V?$PxFlags@W4Enum@PxMeshMeshQueryFlag@physx@@I@2@@Z 0000000180102ad0 f   GuMidphaseBV4.obj
 0001:001023d0       ?intersectOBB_BV4@Gu@physx@@YAXPEBVTetrahedronMesh@12@AEBVBox@12@AEAU?$TetMeshHitCallback@UPxGeomRaycastHit@physx@@@12@@Z 00000001801033d0 f   GuMidphaseBV4.obj
 0001:001023f0       ?intersectOBB_BV4@Gu@physx@@YAXPEBVTriangleMesh@12@AEBVBox@12@AEAU?$MeshHitCallback@UPxGeomRaycastHit@physx@@@12@_N3@Z 00000001801033f0 f   GuMidphaseBV4.obj
 0001:00102410       ?intersectSphereVsMesh_BV4@Gu@physx@@YA_NAEBVSphere@12@AEBVTriangleMesh@12@AEBV?$PxTransformT@M@2@AEBVPxMeshScale@2@PEAULimitedResults@12@@Z 0000000180103410 f   GuMidphaseBV4.obj
 0001:00102b40       ?pointMeshDistance_BV4@Gu@physx@@YAXPEBVTriangleMesh@12@AEBVPxTriangleMeshGeometry@2@AEBV?$PxTransformT@M@2@AEBV?$PxVec3T@M@2@MAEAIAEAMAEAV62@@Z 0000000180103b40 f   GuMidphaseBV4.obj
 0001:001031f0       ?raycast_triangleMesh_BV4@Gu@physx@@YAIPEBVTriangleMesh@12@AEBVPxTriangleMeshGeometry@2@AEBV?$PxTransformT@M@2@AEBV?$PxVec3T@M@2@3MV?$PxFlags@W4Enum@PxHitFlag@physx@@G@2@IPEIAUPxGeomRaycastHit@2@I@Z 00000001801041f0 f   GuMidphaseBV4.obj
 0001:00104000       ?sweepBox_MeshGeom_BV4@Gu@physx@@YA_NPEBVTriangleMesh@12@AEBVPxTriangleMeshGeometry@2@AEBV?$PxTransformT@M@2@AEBVBox@12@AEBV?$PxVec3T@M@2@MAEAUPxGeomSweepHit@2@V?$PxFlags@W4Enum@PxHitFlag@physx@@G@2@M@Z 0000000180105000 f   GuMidphaseBV4.obj
 0001:00105720       ?sweepCapsule_MeshGeom_BV4@Gu@physx@@YA_NPEBVTriangleMesh@12@AEBVPxTriangleMeshGeometry@2@AEBV?$PxTransformT@M@2@AEBVCapsule@12@AEBV?$PxVec3T@M@2@MAEAUPxGeomSweepHit@2@V?$PxFlags@W4Enum@PxHitFlag@physx@@G@2@M@Z 0000000180106720 f   GuMidphaseBV4.obj
 0001:00106230       ?sweepConvex_MeshGeom_BV4@Gu@physx@@YAXPEBVTriangleMesh@12@AEBVBox@12@AEBV?$PxVec3T@M@2@MAEAUSweepConvexMeshHitCallback@12@_N@Z 0000000180107230 f   GuMidphaseBV4.obj
 0001:00106270       ?transform@PxMeshScale@physx@@QEBA?AV?$PxVec3T@M@2@AEBV32@@Z 0000000180107270 f i GuMidphaseBV4.obj
 0001:001064b0       ?findOverlapHeightField@PxMeshQuery@physx@@SAIAEBVPxGeometry@2@AEBV?$PxTransformT@M@2@AEBVPxHeightFieldGeometry@2@1PEAIIIAEA_NV?$PxFlags@W4Enum@PxGeometryQueryFlag@physx@@I@2@@Z 00000001801074b0 f   GuMeshQuery.obj
 0001:00106c20       ?findOverlapTriangleMesh@PxMeshQuery@physx@@SAIAEBVPxGeometry@2@AEBV?$PxTransformT@M@2@AEBVPxTriangleMeshGeometry@2@1PEAIIIAEA_NV?$PxFlags@W4Enum@PxGeometryQueryFlag@physx@@I@2@@Z 0000000180107c20 f   GuMeshQuery.obj
 0001:00106f70       ?findOverlapTriangleMesh@PxMeshQuery@physx@@SA_NAEAV?$PxReportCallback@UPxGeomIndexPair@physx@@@2@AEBVPxTriangleMeshGeometry@2@AEBV?$PxTransformT@M@2@12V?$PxFlags@W4Enum@PxGeometryQueryFlag@physx@@I@2@V?$PxFlags@W4Enum@PxMeshMeshQueryFlag@physx@@I@2@@Z 0000000180107f70 f   GuMeshQuery.obj
 0001:00107080       ?getTriangle@PxMeshQuery@physx@@SAXAEBVPxHeightFieldGeometry@2@AEBV?$PxTransformT@M@2@IAEAVPxTriangle@2@PEAI3@Z 0000000180108080 f   GuMeshQuery.obj
 0001:00107100       ?getTriangle@PxMeshQuery@physx@@SAXAEBVPxTriangleMeshGeometry@2@AEBV?$PxTransformT@M@2@IAEAVPxTriangle@2@PEAI3@Z 0000000180108100 f   GuMeshQuery.obj
 0001:00107670       ?sweep@PxMeshQuery@physx@@SA_NAEBV?$PxVec3T@M@2@MAEBVPxGeometry@2@AEBV?$PxTransformT@M@2@IPEBVPxTriangle@2@AEAUPxGeomSweepHit@2@V?$PxFlags@W4Enum@PxHitFlag@physx@@G@2@PEBIM_NV?$PxFlags@W4Enum@PxGeometryQueryFlag@physx@@I@2@@Z 0000000180108670 f   GuMeshQuery.obj
 0001:00107ad0       ??$collide@$00$00@MeshRayCollider@@SAXAEBV?$PxVec3T@M@physx@@0M_NPEBVRTreeTriangleMesh@Gu@2@AEAU?$MeshHitCallback@UPxGeomRaycastHit@physx@@@42@PEBV12@@Z 0000000180108ad0 f i GuMidphaseRTree.obj
 0001:00107e40       ??$collide@$00$0A@@MeshRayCollider@@SAXAEBV?$PxVec3T@M@physx@@0M_NPEBVRTreeTriangleMesh@Gu@2@AEAU?$MeshHitCallback@UPxGeomRaycastHit@physx@@@42@PEBV12@@Z 0000000180108e40 f i GuMidphaseRTree.obj
 0001:00108080       ??$collide@$0A@$00@MeshRayCollider@@SAXAEBV?$PxVec3T@M@physx@@0M_NPEBVRTreeTriangleMesh@Gu@2@AEAU?$MeshHitCallback@UPxGeomRaycastHit@physx@@@42@PEBV12@@Z 0000000180109080 f i GuMidphaseRTree.obj
 0001:0010a3e0       ??0?$RayRTreeCallback@$00$0A@@@QEAA@MAEAU?$MeshHitCallback@UPxGeomRaycastHit@physx@@@Gu@physx@@HPEBXPEBV?$PxVec3T@M@3@AEBV43@3M_N2@Z 000000018010b3e0 f i GuMidphaseRTree.obj
 0001:0010a500       ??1?$RayRTreeCallback@$00$00@@UEAA@XZ 000000018010b500 f i GuMidphaseRTree.obj
 0001:0010a590       ??1?$RayRTreeCallback@$00$0A@@@UEAA@XZ 000000018010b590 f i GuMidphaseRTree.obj
 0001:0010a590       ??1?$RayRTreeCallback@$0A@$0A@@@UEAA@XZ 000000018010b590 f i GuMidphaseRTree.obj
 0001:0010a620       ??1?$RayRTreeCallback@$0A@$00@@UEAA@XZ 000000018010b620 f i GuMidphaseRTree.obj
 0001:0010a6a8       ??_E?$RayRTreeCallback@$00$00@@W7EAAPEAXI@Z 000000018010b6a8 f i GuMidphaseRTree.obj
 0001:0010a6b4       ??_E?$RayRTreeCallback@$00$0A@@@W7EAAPEAXI@Z 000000018010b6b4 f i GuMidphaseRTree.obj
 0001:0010a6b4       ??_E?$RayRTreeCallback@$0A@$0A@@@W7EAAPEAXI@Z 000000018010b6b4 f i GuMidphaseRTree.obj
 0001:0010a6c0       ??_E?$RayRTreeCallback@$0A@$00@@W7EAAPEAXI@Z 000000018010b6c0 f i GuMidphaseRTree.obj
 0001:0010a730       ??_E?$RayRTreeCallback@$00$00@@UEAAPEAXI@Z 000000018010b730 f i GuMidphaseRTree.obj
 0001:0010a730       ??_G?$RayRTreeCallback@$00$00@@UEAAPEAXI@Z 000000018010b730 f i GuMidphaseRTree.obj
 0001:0010a770       ??_E?$RayRTreeCallback@$00$0A@@@UEAAPEAXI@Z 000000018010b770 f i GuMidphaseRTree.obj
 0001:0010a770       ??_E?$RayRTreeCallback@$0A@$0A@@@UEAAPEAXI@Z 000000018010b770 f i GuMidphaseRTree.obj
 0001:0010a770       ??_G?$RayRTreeCallback@$00$0A@@@UEAAPEAXI@Z 000000018010b770 f i GuMidphaseRTree.obj
 0001:0010a770       ??_G?$RayRTreeCallback@$0A@$0A@@@UEAAPEAXI@Z 000000018010b770 f i GuMidphaseRTree.obj
 0001:0010a7b0       ??_E?$RayRTreeCallback@$0A@$00@@UEAAPEAXI@Z 000000018010b7b0 f i GuMidphaseRTree.obj
 0001:0010a7b0       ??_G?$RayRTreeCallback@$0A@$00@@UEAAPEAXI@Z 000000018010b7b0 f i GuMidphaseRTree.obj
 0001:0010a7f0       ??_ECallback@RTree@Gu@physx@@UEAAPEAXI@Z 000000018010b7f0 f i GuMidphaseRTree.obj
 0001:0010a7f0       ??_GCallback@RTree@Gu@physx@@UEAAPEAXI@Z 000000018010b7f0 f i GuMidphaseRTree.obj
 0001:0010a820       ??_ERayMeshColliderCallback@@UEAAPEAXI@Z 000000018010b820 f i GuMidphaseRTree.obj
 0001:0010a820       ??_ESweepCapsuleMeshHitCallback@Gu@physx@@UEAAPEAXI@Z 000000018010b820 f i GuSweepsMesh.obj
 0001:0010a820       ??_GRayMeshColliderCallback@@UEAAPEAXI@Z 000000018010b820 f i GuMidphaseRTree.obj
 0001:0010a820       ??_GSweepCapsuleMeshHitCallback@Gu@physx@@UEAAPEAXI@Z 000000018010b820 f i GuSweepsMesh.obj
 0001:0010a850       ?collideOBB@MeshRayCollider@@SAXAEBVBox@Gu@physx@@_NPEBVRTreeTriangleMesh@34@AEAU?$MeshHitCallback@UPxGeomRaycastHit@physx@@@34@1@Z 000000018010b850 f   GuMidphaseRTree.obj
 0001:0010ad20       ?intersectBoxVsMesh_RTREE@Gu@physx@@YA_NAEBVBox@12@AEBVTriangleMesh@12@AEBV?$PxTransformT@M@2@AEBVPxMeshScale@2@PEAULimitedResults@12@@Z 000000018010bd20 f   GuMidphaseRTree.obj
 0001:0010ad90       ?intersectCapsuleVsMesh_RTREE@Gu@physx@@YA_NAEBVCapsule@12@AEBVTriangleMesh@12@AEBV?$PxTransformT@M@2@AEBVPxMeshScale@2@PEAULimitedResults@12@@Z 000000018010bd90 f   GuMidphaseRTree.obj
 0001:0010ae10       ?intersectOBB_RTREE@Gu@physx@@YAXPEBVTriangleMesh@12@AEBVBox@12@AEAU?$MeshHitCallback@UPxGeomRaycastHit@physx@@@12@_N3@Z 000000018010be10 f   GuMidphaseRTree.obj
 0001:0010ae40       ?intersectSphereVsMesh_RTREE@Gu@physx@@YA_NAEBVSphere@12@AEBVTriangleMesh@12@AEBV?$PxTransformT@M@2@AEBVPxMeshScale@2@PEAULimitedResults@12@@Z 000000018010be40 f   GuMidphaseRTree.obj
 0001:0010ae70       ?pointMeshDistance_RTREE@Gu@physx@@YAXPEBVTriangleMesh@12@AEBVPxTriangleMeshGeometry@2@AEBV?$PxTransformT@M@2@AEBV?$PxVec3T@M@2@MAEAIAEAMAEAV62@@Z 000000018010be70 f   GuMidphaseRTree.obj
 0001:0010bc60       ?processHit@RayMeshColliderCallback@@UEAA_NAEBUPxGeomRaycastHit@physx@@AEBV?$PxVec3T@M@3@11AEAMPEBI@Z 000000018010cc60 f i GuMidphaseRTree.obj
 0001:0010c400       ?processResults@?$RayRTreeCallback@$00$00@@UEAA_NIPEAI@Z 000000018010d400 f i GuMidphaseRTree.obj
 0001:0010c770       ?processResults@?$RayRTreeCallback@$00$00@@UEAA_NIPEAIAEAM@Z 000000018010d770 f i GuMidphaseRTree.obj
 0001:0010caf0       ?processResults@?$RayRTreeCallback@$00$0A@@@UEAA_NIPEAI@Z 000000018010daf0 f i GuMidphaseRTree.obj
 0001:0010caf0       ?processResults@?$RayRTreeCallback@$0A@$0A@@@UEAA_NIPEAI@Z 000000018010daf0 f i GuMidphaseRTree.obj
 0001:0010cd50       ?processResults@?$RayRTreeCallback@$00$0A@@@UEAA_NIPEAIAEAM@Z 000000018010dd50 f i GuMidphaseRTree.obj
 0001:0010cd50       ?processResults@?$RayRTreeCallback@$0A@$0A@@@UEAA_NIPEAIAEAM@Z 000000018010dd50 f i GuMidphaseRTree.obj
 0001:0010cfe0       ?processResults@?$RayRTreeCallback@$0A@$00@@UEAA_NIPEAI@Z 000000018010dfe0 f i GuMidphaseRTree.obj
 0001:0010d620       ?processResults@?$RayRTreeCallback@$0A@$00@@UEAA_NIPEAIAEAM@Z 000000018010e620 f i GuMidphaseRTree.obj
 0001:0010dc70       ?raycast_triangleMesh_RTREE@Gu@physx@@YAIPEBVTriangleMesh@12@AEBVPxTriangleMeshGeometry@2@AEBV?$PxTransformT@M@2@AEBV?$PxVec3T@M@2@3MV?$PxFlags@W4Enum@PxHitFlag@physx@@G@2@IPEIAUPxGeomRaycastHit@2@I@Z 000000018010ec70 f   GuMidphaseRTree.obj
 0001:0010e3f0       ?sweepBox_MeshGeom_RTREE@Gu@physx@@YA_NPEBVTriangleMesh@12@AEBVPxTriangleMeshGeometry@2@AEBV?$PxTransformT@M@2@AEBVBox@12@AEBV?$PxVec3T@M@2@MAEAUPxGeomSweepHit@2@V?$PxFlags@W4Enum@PxHitFlag@physx@@G@2@M@Z 000000018010f3f0 f   GuMidphaseRTree.obj
 0001:0010f930       ?sweepCapsule_MeshGeom_RTREE@Gu@physx@@YA_NPEBVTriangleMesh@12@AEBVPxTriangleMeshGeometry@2@AEBV?$PxTransformT@M@2@AEBVCapsule@12@AEBV?$PxVec3T@M@2@MAEAUPxGeomSweepHit@2@V?$PxFlags@W4Enum@PxHitFlag@physx@@G@2@M@Z 0000000180110930 f   GuMidphaseRTree.obj
 0001:001100e0       ?sweepConvex_MeshGeom_RTREE@Gu@physx@@YAXPEBVTriangleMesh@12@AEBVBox@12@AEBV?$PxVec3T@M@2@MAEAUSweepConvexMeshHitCallback@12@_N@Z 00000001801110e0 f   GuMidphaseRTree.obj
 0001:00110a90       ??_E?$PxReportCallback@UPxGeomIndexPair@physx@@@physx@@UEAAPEAXI@Z 0000000180111a90 f i GuOverlapTestsMesh.obj
 0001:00110a90       ??_G?$PxReportCallback@UPxGeomIndexPair@physx@@@physx@@UEAAPEAXI@Z 0000000180111a90 f i GuOverlapTestsMesh.obj
 0001:00110b20       ?GeomOverlapCallback_BoxMesh@@YA_NAEBVPxGeometry@physx@@AEBV?$PxTransformT@M@2@01PEAUTriggerCache@Gu@2@PEAUPxQueryThreadContext@2@@Z 0000000180111b20 f   GuOverlapTestsMesh.obj
 0001:00110c30       ?GeomOverlapCallback_CapsuleMesh@@YA_NAEBVPxGeometry@physx@@AEBV?$PxTransformT@M@2@01PEAUTriggerCache@Gu@2@PEAUPxQueryThreadContext@2@@Z 0000000180111c30 f   GuOverlapTestsMesh.obj
 0001:00110d40       ?GeomOverlapCallback_ConvexMesh@@YA_NAEBVPxGeometry@physx@@AEBV?$PxTransformT@M@2@01PEAUTriggerCache@Gu@2@PEAUPxQueryThreadContext@2@@Z 0000000180111d40 f   GuOverlapTestsMesh.obj
 0001:00111240       ?GeomOverlapCallback_MeshMesh@@YA_NAEBVPxGeometry@physx@@AEBV?$PxTransformT@M@2@01PEAUTriggerCache@Gu@2@PEAUPxQueryThreadContext@2@@Z 0000000180112240 f   GuOverlapTestsMesh.obj
 0001:00111300       ?GeomOverlapCallback_SphereMesh@@YA_NAEBVPxGeometry@physx@@AEBV?$PxTransformT@M@2@01PEAUTriggerCache@Gu@2@PEAUPxQueryThreadContext@2@@Z 0000000180112300 f   GuOverlapTestsMesh.obj
 0001:001116f0       ??0RTree@Gu@physx@@QEAA@W4PxEMPTY@2@@Z 00000001801126f0 f   GuRTree.obj
 0001:00111700       ?exportExtraData@RTree@Gu@physx@@QEAAXAEAVPxSerializationContext@3@@Z 0000000180112700 f   GuRTree.obj
 0001:00111740       ?importExtraData@RTree@Gu@physx@@QEAAXAEAVPxDeserializationContext@3@@Z 0000000180112740 f   GuRTree.obj
 0001:00111770       ?load@RTree@Gu@physx@@QEAA_NAEAVPxInputStream@3@I_N@Z 0000000180112770 f   GuRTree.obj
 0001:00111a80       ?refitAllStaticTree@RTree@Gu@physx@@QEAAXAEAUCallbackRefit@123@PEAVPxBounds3@3@@Z 0000000180112a80 f   GuRTree.obj
 0001:00111fe0       ?validate@RTree@Gu@physx@@QEAAXPEAUCallbackRefit@123@@Z 0000000180112fe0 f   GuRTree.obj
 0001:00112220       ?validateRecursive@RTree@Gu@physx@@IEAAXIURTreeNodeQ@23@PEAURTreePage@23@PEAUCallbackRefit@123@@Z 0000000180113220 f   GuRTree.obj
 0001:001123e0       ??$traverseRay@$00@RTree@Gu@physx@@QEBAXAEBV?$PxVec3T@M@2@0IPEAIPEAUCallbackRaycast@012@PEBV32@M@Z 00000001801133e0 f i GuRTreeQueries.obj
 0001:00112780       ??$traverseRay@$0A@@RTree@Gu@physx@@QEBAXAEBV?$PxVec3T@M@2@0IPEAIPEAUCallbackRaycast@012@PEBV32@M@Z 0000000180113780 f i GuRTreeQueries.obj
 0001:00112ad0       ?traverseAABB@RTree@Gu@physx@@QEBAXAEBV?$PxVec3T@M@3@0IPEAIPEAUCallback@123@@Z 0000000180113ad0 f   GuRTreeQueries.obj
 0001:00112c90       ?traverseOBB@RTree@Gu@physx@@QEBAXAEBVBox@23@IPEAIPEAUCallback@123@@Z 0000000180113c90 f   GuRTreeQueries.obj
 0001:00113570       ??0SweepBoxMeshHitCallback@Gu@physx@@QEAA@W4Enum@CallbackMode@12@AEBVPxMat34Padded@2@M_NAEBVBox@12@AEBV?$PxVec3T@M@2@44AEBV?$PxFlags@W4Enum@PxHitFlag@physx@@G@2@M2M@Z 0000000180114570 f   GuSweepsMesh.obj
 0001:00113680       ??0SweepCapsuleMeshHitCallback@Gu@physx@@QEAA@AEAUPxGeomSweepHit@2@AEBV?$PxMat34T@M@2@M_NAEBVCapsule@12@AEBV?$PxVec3T@M@2@AEBV?$PxFlags@W4Enum@PxHitFlag@physx@@G@2@2M@Z 0000000180114680 f   GuSweepsMesh.obj
 0001:00113750       ??0SweepConvexMeshHitCallback@Gu@physx@@QEAA@AEBUConvexHullData@12@AEBVPxMeshScale@2@AEBVFastVertex2ShapeScaling@Cm@2@AEBV?$PxTransformT@M@2@3AEBV?$PxVec3T@M@2@MV?$PxFlags@W4Enum@PxHitFlag@physx@@G@2@_NM6M@Z 0000000180114750 f   GuSweepsMesh.obj
 0001:001140b0       ??_ESweepBoxMeshHitCallback@Gu@physx@@UEAAPEAXI@Z 00000001801150b0 f i GuSweepsMesh.obj
 0001:001140b0       ??_GSweepBoxMeshHitCallback@Gu@physx@@UEAAPEAXI@Z 00000001801150b0 f i GuSweepsMesh.obj
 0001:001140e0       ??_ESweepConvexMeshHitCallback@Gu@physx@@UEAAPEAXI@Z 00000001801150e0 f i GuSweepsMesh.obj
 0001:001140e0       ??_GSweepConvexMeshHitCallback@Gu@physx@@UEAAPEAXI@Z 00000001801150e0 f i GuSweepsMesh.obj
 0001:00114110       ??_ESweepShapeMeshHitCallback@Gu@physx@@UEAAPEAXI@Z 0000000180115110 f i GuSweepsMesh.obj
 0001:00114110       ??_GSweepShapeMeshHitCallback@Gu@physx@@UEAAPEAXI@Z 0000000180115110 f i GuSweepsMesh.obj
 0001:00114140       ?finalizeHit@SweepBoxMeshHitCallback@Gu@physx@@QEBA_NAEAUPxGeomSweepHit@3@AEBVPxTriangleMeshGeometry@3@AEBV?$PxTransformT@M@3@2AEBV?$PxVec3T@M@3@_N4@Z 0000000180115140 f   GuSweepsMesh.obj
 0001:00114800       ?finalizeHit@SweepCapsuleMeshHitCallback@Gu@physx@@QEBA_NAEAUPxGeomSweepHit@3@AEBVCapsule@23@AEBVPxTriangleMeshGeometry@3@AEBV?$PxTransformT@M@3@_N@Z 0000000180115800 f   GuSweepsMesh.obj
 0001:001149b0       ?finalizeHit@SweepConvexMeshHitCallback@Gu@physx@@QEAA_NAEAUPxGeomSweepHit@3@AEBVPxTriangleMeshGeometry@3@AEBV?$PxTransformT@M@3@AEBVPxConvexMeshGeometry@3@2AEBV?$PxVec3T@M@3@M_N555@Z 00000001801159b0 f   GuSweepsMesh.obj
 0001:00114e80       ?processHit@SweepBoxMeshHitCallback@Gu@physx@@UEAA_NAEBUPxGeomRaycastHit@3@AEBV?$PxVec3T@M@3@11AEAMPEBI@Z 0000000180115e80 f   GuSweepsMesh.obj
 0001:00115670       ?processHit@SweepCapsuleMeshHitCallback@Gu@physx@@UEAA_NAEBUPxGeomRaycastHit@3@AEBV?$PxVec3T@M@3@11AEAMPEBI@Z 0000000180116670 f   GuSweepsMesh.obj
 0001:00115bd0       ?processHit@SweepConvexMeshHitCallback@Gu@physx@@UEAA_NAEBUPxGeomRaycastHit@3@AEBV?$PxVec3T@M@3@11AEAMPEBI@Z 0000000180116bd0 f   GuSweepsMesh.obj
 0001:00116320       ?sweepBox_MeshGeom@@YA_NAEBVPxGeometry@physx@@AEBV?$PxTransformT@M@2@AEBVPxBoxGeometry@2@1AEBVBox@Gu@2@AEBV?$PxVec3T@M@2@MAEAUPxGeomSweepHit@2@V?$PxFlags@W4Enum@PxHitFlag@physx@@G@2@MPEAUPxQueryThreadContext@2@@Z 0000000180117320 f   GuSweepsMesh.obj
 0001:001163b0       ?sweepCapsule_MeshGeom@@YA_NAEBVPxGeometry@physx@@AEBV?$PxTransformT@M@2@AEBVPxCapsuleGeometry@2@1AEBVCapsule@Gu@2@AEBV?$PxVec3T@M@2@MAEAUPxGeomSweepHit@2@V?$PxFlags@W4Enum@PxHitFlag@physx@@G@2@MPEAUPxQueryThreadContext@2@@Z 00000001801173b0 f   GuSweepsMesh.obj
 0001:00116440       ?sweepConvex_MeshGeom@@YA_NAEBVPxGeometry@physx@@AEBV?$PxTransformT@M@2@AEBVPxConvexMeshGeometry@2@1AEBV?$PxVec3T@M@2@MAEAUPxGeomSweepHit@2@V?$PxFlags@W4Enum@PxHitFlag@physx@@G@2@MPEAUPxQueryThreadContext@2@@Z 0000000180117440 f   GuSweepsMesh.obj
 0001:00116f80       ??0TriangleMesh@Gu@physx@@QEAA@AEBUPxTriangleMeshInternalData@2@@Z 0000000180117f80 f   GuTriangleMesh.obj
 0001:00117060       ??0TriangleMesh@Gu@physx@@QEAA@PEAVMeshFactory@12@AEAVTriangleMeshData@12@@Z 0000000180118060 f   GuTriangleMesh.obj
 0001:001173e0       ??1TriangleMesh@Gu@physx@@UEAA@XZ 00000001801183e0 f   GuTriangleMesh.obj
 0001:00117650       ??_ETriangleMesh@Gu@physx@@UEAAPEAXI@Z 0000000180118650 f i GuTriangleMesh.obj
 0001:00117650       ??_GTriangleMesh@Gu@physx@@UEAAPEAXI@Z 0000000180118650 f i GuTriangleMesh.obj
 0001:001176c0       ?exportExtraData@TriangleMesh@Gu@physx@@UEAAXAEAVPxSerializationContext@3@@Z 00000001801186c0 f   GuTriangleMesh.obj
 0001:00117890       ?getLocalBounds@TriangleMesh@Gu@physx@@UEBA?AVPxBounds3@3@XZ 0000000180118890 f i GuTriangleMesh.obj
 0001:00117920       ?getMassInformation@TriangleMesh@Gu@physx@@UEBAXAEAMAEAV?$PxMat33T@M@3@AEAV?$PxVec3T@M@3@@Z 0000000180118920 f i GuTriangleMesh.obj
 0001:001179a0       ?getNbTriangles@TriangleMesh@Gu@physx@@UEBAIXZ 00000001801189a0 f i GuTriangleMesh.obj
 0001:001179b0       ?getPreferSDFProjection@TriangleMesh@Gu@physx@@UEBA_NXZ 00000001801189b0 f i GuTriangleMesh.obj
 0001:001179c0       ?getSDF@TriangleMesh@Gu@physx@@UEBAPEBMXZ 00000001801189c0 f i GuTriangleMesh.obj
 0001:001179d0       ?getSDFDimensions@TriangleMesh@Gu@physx@@UEBAXAEAI00@Z 00000001801189d0 f i GuTriangleMesh.obj
 0001:00117a00       ?getTriangleMaterialIndex@TriangleMesh@Gu@physx@@UEBAGI@Z 0000000180118a00 f i GuTriangleMesh.obj
 0001:00117a20       ?getTriangleMeshFlags@TriangleMesh@Gu@physx@@UEBA?AV?$PxFlags@W4Enum@PxTriangleMeshFlag@physx@@E@3@XZ 0000000180118a20 f i GuTriangleMesh.obj
 0001:00117a30       ?getTrianglesRemap@TriangleMesh@Gu@physx@@UEBAPEBIXZ 0000000180118a30 f i GuTriangleMesh.obj
 0001:00117a40       ?getVerticesForModification@TriangleMesh@Gu@physx@@UEAAPEAV?$PxVec3T@M@3@XZ 0000000180118a40 f   GuTriangleMesh.obj
 0001:00117a80       ?importExtraData@TriangleMesh@Gu@physx@@QEAAXAEAVPxDeserializationContext@3@@Z 0000000180118a80 f   GuTriangleMesh.obj
 0001:00117c10       ?isKindOf@PxTriangleMesh@physx@@MEBA_NPEBD@Z 0000000180118c10 f i GuTriangleMesh.obj
 0001:00117c80       ?onRefCountZero@TriangleMesh@Gu@physx@@UEAAXXZ 0000000180118c80 f   GuTriangleMesh.obj
 0001:00117d50       ?refitBVH@TriangleMesh@Gu@physx@@UEAA?AVPxBounds3@3@XZ 0000000180118d50 f   GuTriangleMesh.obj
 0001:00117e20       ?requestEdgeList@TriangleMesh@Gu@physx@@QEBAPEBVEdgeList@23@XZ 0000000180118e20 f   GuTriangleMesh.obj
 0001:00117f00       ?setAllEdgesActive@TriangleMesh@Gu@physx@@QEAAXXZ 0000000180118f00 f   GuTriangleMesh.obj
 0001:00117ff0       ?setPreferSDFProjection@TriangleMesh@Gu@physx@@UEAAX_N@Z 0000000180118ff0 f i GuTriangleMesh.obj
 0001:00118020       ??0BV4TriangleMesh@Gu@physx@@QEAA@AEBUPxTriangleMeshInternalData@2@@Z 0000000180119020 f   GuTriangleMeshBV4.obj
 0001:00118180       ??0BV4TriangleMesh@Gu@physx@@QEAA@PEAVMeshFactory@12@AEAVTriangleMeshData@12@@Z 0000000180119180 f   GuTriangleMeshBV4.obj
 0001:00118210       ??_EBV4TriangleMesh@Gu@physx@@UEAAPEAXI@Z 0000000180119210 f i GuTriangleMeshBV4.obj
 0001:00118210       ??_GBV4TriangleMesh@Gu@physx@@UEAAPEAXI@Z 0000000180119210 f i GuTriangleMeshBV4.obj
 0001:001182a0       ?createObject@BV4TriangleMesh@Gu@physx@@SAPEAVTriangleMesh@23@AEAPEAEAEAVPxDeserializationContext@3@@Z 00000001801192a0 f   GuTriangleMeshBV4.obj
 0001:00118380       ?exportExtraData@BV4TriangleMesh@Gu@physx@@UEAAXAEAVPxSerializationContext@3@@Z 0000000180119380 f   GuTriangleMeshBV4.obj
 0001:001183c0       ?getConcreteTypeName@BV4TriangleMesh@Gu@physx@@UEBAPEBDXZ 00000001801193c0 f i GuTriangleMeshBV4.obj
 0001:001183d0       ?getInternalData@BV4TriangleMesh@Gu@physx@@UEBA_NAEAUPxTriangleMeshInternalData@3@_N@Z 00000001801193d0 f   GuTriangleMeshBV4.obj
 0001:001184c0       ?getMidphaseID@BV4TriangleMesh@Gu@physx@@UEBA?AW4Enum@PxMeshMidPhase@3@XZ 00000001801194c0 f i GuTriangleMeshBV4.obj
 0001:001184c0       ?getMidphaseID@BV4TriangleMeshBuilder@physx@@UEBA?AW4Enum@PxMeshMidPhase@2@XZ 00000001801194c0 f i GuCookingTriangleMesh.obj
 0001:001184c0       ?length@charNode@@UEBAHXZ  00000001801194c0 f i libvcruntime:undname.obj
 0001:001184c0       ?raw_length@charNode@@UEBAHXZ 00000001801194c0 f i libvcruntime:undname.obj
 0001:001184c0       DllMain                    00000001801194c0 f i LIBCMT:dll_dllmain_stub.obj
 0001:001184c0       _get_startup_argv_mode     00000001801194c0 f i LIBCMT:argv_mode.obj
 0001:001184d0       ?getVerticesForModification@BV4TriangleMesh@Gu@physx@@UEAAPEAV?$PxVec3T@M@3@XZ 00000001801194d0 f   GuTriangleMeshBV4.obj
 0001:001184d0       ?getVerticesForModification@RTreeTriangleMesh@Gu@physx@@UEAAPEAV?$PxVec3T@M@3@XZ 00000001801194d0 f   GuTriangleMeshRTree.obj
 0001:001184e0       ?refitBVH@BV4TriangleMesh@Gu@physx@@UEAA?AVPxBounds3@3@XZ 00000001801194e0 f   GuTriangleMeshBV4.obj
 0001:00118650       PxGetTriangleMeshInternalData 0000000180119650 f   GuTriangleMeshBV4.obj
 0001:00118670       ??0RTreeTriangleMesh@Gu@physx@@QEAA@PEAVMeshFactory@12@AEAVTriangleMeshData@12@@Z 0000000180119670 f   GuTriangleMeshRTree.obj
 0001:001187e0       ??_E?$RefitCallback@G@physx@@UEAAPEAXI@Z 00000001801197e0 f i GuTriangleMeshRTree.obj
 0001:001187e0       ??_E?$RefitCallback@I@physx@@UEAAPEAXI@Z 00000001801197e0 f i GuTriangleMeshRTree.obj
 0001:001187e0       ??_G?$RefitCallback@G@physx@@UEAAPEAXI@Z 00000001801197e0 f i GuTriangleMeshRTree.obj
 0001:001187e0       ??_G?$RefitCallback@I@physx@@UEAAPEAXI@Z 00000001801197e0 f i GuTriangleMeshRTree.obj
 0001:00118810       ??_ERTreeTriangleMesh@Gu@physx@@UEAAPEAXI@Z 0000000180119810 f i GuTriangleMeshRTree.obj
 0001:00118810       ??_GRTreeTriangleMesh@Gu@physx@@UEAAPEAXI@Z 0000000180119810 f i GuTriangleMeshRTree.obj
 0001:001188c0       ?createObject@RTreeTriangleMesh@Gu@physx@@SAPEAVTriangleMesh@23@AEAPEAEAEAVPxDeserializationContext@3@@Z 00000001801198c0 f   GuTriangleMeshRTree.obj
 0001:00118950       ?exportExtraData@RTreeTriangleMesh@Gu@physx@@UEAAXAEAVPxSerializationContext@3@@Z 0000000180119950 f   GuTriangleMeshRTree.obj
 0001:00118990       ?getConcreteTypeName@RTreeTriangleMesh@Gu@physx@@UEBAPEBDXZ 0000000180119990 f i GuTriangleMeshRTree.obj
 0001:001189a0       ?recomputeBounds@?$RefitCallback@G@physx@@UEAAXIAEAT__m128@@0@Z 00000001801199a0 f i GuTriangleMeshRTree.obj
 0001:00118cd0       ?recomputeBounds@?$RefitCallback@I@physx@@UEAAXIAEAT__m128@@0@Z 0000000180119cd0 f i GuTriangleMeshRTree.obj
 0001:00118ff0       ?refitBVH@RTreeTriangleMesh@Gu@physx@@UEAA?AVPxBounds3@3@XZ 0000000180119ff0 f   GuTriangleMeshRTree.obj
 0001:00119110       ??0BV32Tree@Gu@physx@@QEAA@XZ 000000018011a110 f   GuBV32.obj
 0001:00119140       ??1BV32Tree@Gu@physx@@QEAA@XZ 000000018011a140 f   GuBV32.obj
 0001:00119150       ?calculateLeafNode@BV32Tree@Gu@physx@@QEAAXAEAUBV32Data@23@@Z 000000018011a150 f   GuBV32.obj
 0001:00119370       ?createSOAformatNode@BV32Tree@Gu@physx@@QEAAXAEAUBV32DataPacked@23@AEBUBV32Data@23@IAEAI2@Z 000000018011a370 f   GuBV32.obj
 0001:001197d0       ?load@BV32Tree@Gu@physx@@QEAA_NAEAVPxInputStream@3@_N@Z 000000018011a7d0 f   GuBV32.obj
 0001:00119b20       ?release@BV32Tree@Gu@physx@@QEAAXXZ 000000018011ab20 f   GuBV32.obj
 0001:00119be0       ??0BV32Node@@QEAA@XZ       000000018011abe0 f i GuBV32Build.obj
 0001:0011a060       ?BuildBV32Ex@Gu@physx@@YA_NAEAVBV32Tree@12@AEAVSourceMeshBase@12@MI@Z 000000018011b060 f   GuBV32Build.obj
 0001:0011aff0       ??0BVTetrahedronMesh@Gu@physx@@QEAA@AEAVTetrahedronMeshData@12@AEAVSoftBodyCollisionData@12@PEAVMeshFactory@12@@Z 000000018011bff0 f   GuTetrahedronMesh.obj
 0001:0011b250       ??0SoftBodyMesh@Gu@physx@@QEAA@PEAVMeshFactory@12@AEAVSoftBodyMeshData@12@@Z 000000018011c250 f   GuTetrahedronMesh.obj
 0001:0011b5f0       ??0TetrahedronMesh@Gu@physx@@QEAA@PEAVMeshFactory@12@AEAVTetrahedronMeshData@12@@Z 000000018011c5f0 f   GuTetrahedronMesh.obj
 0001:0011b6e0       ??1SoftBodyAuxData@Gu@physx@@UEAA@XZ 000000018011c6e0 f   GuTetrahedronMesh.obj
 0001:0011b960       ??1TetrahedronMesh@Gu@physx@@UEAA@XZ 000000018011c960 f   GuTetrahedronMesh.obj
 0001:0011ba00       ??_EBVTetrahedronMesh@Gu@physx@@UEAAPEAXI@Z 000000018011ca00 f i GuTetrahedronMesh.obj
 0001:0011ba00       ??_GBVTetrahedronMesh@Gu@physx@@UEAAPEAXI@Z 000000018011ca00 f i GuTetrahedronMesh.obj
 0001:0011bb80       ??_ESoftBodyAuxData@Gu@physx@@UEAAPEAXI@Z 000000018011cb80 f i GuTetrahedronMesh.obj
 0001:0011bb80       ??_GSoftBodyAuxData@Gu@physx@@UEAAPEAXI@Z 000000018011cb80 f i GuTetrahedronMesh.obj
 0001:0011bbf0       ??_ESoftBodyMesh@Gu@physx@@UEAAPEAXI@Z 000000018011cbf0 f i GuTetrahedronMesh.obj
 0001:0011bbf0       ??_GSoftBodyMesh@Gu@physx@@UEAAPEAXI@Z 000000018011cbf0 f i GuTetrahedronMesh.obj
 0001:0011bcc0       ??_ETetrahedronMesh@Gu@physx@@UEAAPEAXI@Z 000000018011ccc0 f i GuTetrahedronMesh.obj
 0001:0011bcc0       ??_GTetrahedronMesh@Gu@physx@@UEAAPEAXI@Z 000000018011ccc0 f i GuTetrahedronMesh.obj
 0001:0011bd30       ?exportExtraData@SoftBodyMesh@Gu@physx@@UEAAXAEAVPxSerializationContext@3@@Z 000000018011cd30 f   GuTetrahedronMesh.obj
 0001:0011be20       ?getConcreteTypeName@SoftBodyAuxData@Gu@physx@@UEBAPEBDXZ 000000018011ce20 f i GuTetrahedronMesh.obj
 0001:0011be30       ?getConcreteTypeName@SoftBodyMesh@Gu@physx@@UEBAPEBDXZ 000000018011ce30 f i GuTetrahedronMesh.obj
 0001:0011be40       ?getConcreteTypeName@TetrahedronMesh@Gu@physx@@UEBAPEBDXZ 000000018011ce40 f i GuTetrahedronMesh.obj
 0001:0011be50       ?getLocalBounds@TetrahedronMesh@Gu@physx@@UEBA?AVPxBounds3@3@XZ 000000018011ce50 f i GuTetrahedronMesh.obj
 0001:0011bee0       ?getNbTetrahedrons@TetrahedronMesh@Gu@physx@@UEBAIXZ 000000018011cee0 f i GuTetrahedronMesh.obj
 0001:0011bef0       ?getBounds@BVH@Gu@physx@@UEBAPEBVPxBounds3@3@XZ 000000018011cef0 f i GuBVH.obj
 0001:0011bef0       ?getTetrahedraRemap@BVTetrahedronMesh@Gu@physx@@UEBAPEBIXZ 000000018011cef0 f i GuTetrahedronMesh.obj
 0001:0011bf00       ?getTetrahedronMeshFlags@TetrahedronMesh@Gu@physx@@UEBA?AV?$PxFlags@W4Enum@PxTetrahedronMeshFlag@physx@@E@3@XZ 000000018011cf00 f i GuTetrahedronMesh.obj
 0001:0011bf10       ?getTetrahedrons@TetrahedronMesh@Gu@physx@@UEBAPEBXXZ 000000018011cf10 f i GuTetrahedronMesh.obj
 0001:0011bf20       ?isKindOf@PxSoftBodyAuxData@physx@@MEBA_NPEBD@Z 000000018011cf20 f i GuTetrahedronMesh.obj
 0001:0011bf90       ?isKindOf@PxSoftBodyMesh@physx@@MEBA_NPEBD@Z 000000018011cf90 f i GuTetrahedronMesh.obj
 0001:0011c000       ?isKindOf@PxTetrahedronMesh@physx@@MEBA_NPEBD@Z 000000018011d000 f i GuTetrahedronMesh.obj
 0001:0011c070       ?onRefCountZero@SoftBodyAuxData@Gu@physx@@UEAAXXZ 000000018011d070 f i GuTetrahedronMesh.obj
 0001:0011c070       ?release@SimulationTetrahedronMeshData@Gu@physx@@UEAAXXZ 000000018011d070 f i GuCookingTetrahedronMesh.obj
 0001:0011c090       ?onRefCountZero@SoftBodyMesh@Gu@physx@@UEAAXXZ 000000018011d090 f   GuTetrahedronMesh.obj
 0001:0011c130       ?onRefCountZero@TetrahedronMesh@Gu@physx@@UEAAXXZ 000000018011d130 f   GuTetrahedronMesh.obj
 0001:0011c1d0       ?closestPtPointTetrahedron@Gu@physx@@YA?AV?$PxVec3T@M@2@AEBV32@0000@Z 000000018011d1d0 f i GuTetrahedronMeshUtils.obj
 0001:0011d310       ?computeBarycentric@physx@@YAXAEBV?$PxVec3T@M@1@0000AEAV?$PxVec4T@M@1@@Z 000000018011e310 f i GuTetrahedronMeshUtils.obj
 0001:0011d5c0       ?convertSoftbodyCollisionToSimMeshTets@Gu@physx@@YAXAEBVPxTetrahedronMesh@2@AEBVSoftBodyAuxData@12@AEBVBVTetrahedronMesh@12@IAEBV?$PxVec4T@M@2@AEAIAEAV62@@Z 000000018011e5c0 f   GuTetrahedronMeshUtils.obj
 0001:001201a0       ?pcmContactBoxBox@Gu@physx@@YA_NAEBVPxGeometry@2@0AEBUPxTransformPadded@2@1AEBUNarrowPhaseParams@12@AEAUCache@12@AEAVPxContactBuffer@2@PEAVPxRenderOutput@2@@Z 00000001801211a0 f   GuPCMContactBoxBox.obj
 0001:00121040       ??$gjkPenetration@U?$RelativeConvex@VBoxV@Gu@physx@@@Gu@physx@@U?$LocalConvex@VConvexHullNoScaleV@Gu@physx@@@23@@Gu@physx@@YA?AW4GjkStatus@01@AEBU?$RelativeConvex@VBoxV@Gu@physx@@@01@AEBU?$LocalConvex@VConvexHullNoScaleV@Gu@physx@@@01@AEBT__m128@@2_NPEIAE4AEAEAEAUGjkOutput@01@@Z 0000000180122040 f i GuPCMContactBoxConvex.obj
 0001:001210b0       ??$gjkPenetration@U?$RelativeConvex@VBoxV@Gu@physx@@@Gu@physx@@U?$LocalConvex@VConvexHullNoScaleV@Gu@physx@@@23@@Gu@physx@@YA?AW4GjkStatus@01@AEBU?$RelativeConvex@VBoxV@Gu@physx@@@01@AEBU?$LocalConvex@VConvexHullNoScaleV@Gu@physx@@@01@AEBT__m128@@2_NPEIAE4PEIAT5@5AEAEAEAUGjkOutput@01@@Z 00000001801220b0 f i GuPCMContactBoxConvex.obj
 0001:00122c90       ?pcmContactBoxConvex@Gu@physx@@YA_NAEBVPxGeometry@2@0AEBUPxTransformPadded@2@1AEBUNarrowPhaseParams@12@AEAUCache@12@AEAVPxContactBuffer@2@PEAVPxRenderOutput@2@@Z 0000000180123c90 f   GuPCMContactBoxConvex.obj
 0001:00123a90       ?support@?$LocalConvex@VConvexHullNoScaleV@Gu@physx@@@Gu@physx@@UEBA?AT__m128@@AEBT4@@Z 0000000180124a90 f i GuPCMContactBoxConvex.obj
 0001:00123ae0       ?support@?$LocalConvex@VConvexHullNoScaleV@Gu@physx@@@Gu@physx@@UEBA?AT__m128@@AEBT4@AEAH@Z 0000000180124ae0 f i GuPCMContactBoxConvex.obj
 0001:00123b40       ?supportPoint@?$LocalConvex@VConvexHullNoScaleV@Gu@physx@@@Gu@physx@@UEBA?AT__m128@@H@Z 0000000180124b40 f i GuPCMContactBoxConvex.obj
 0001:00123b70       ?pcmContactCapsuleBox@Gu@physx@@YA_NAEBVPxGeometry@2@0AEBUPxTransformPadded@2@1AEBUNarrowPhaseParams@12@AEAUCache@12@AEAVPxContactBuffer@2@PEAVPxRenderOutput@2@@Z 0000000180124b70 f   GuPCMContactCapsuleBox.obj
 0001:00124b00       ?pcmContactCapsuleCapsule@Gu@physx@@YA_NAEBVPxGeometry@2@0AEBUPxTransformPadded@2@1AEBUNarrowPhaseParams@12@AEAUCache@12@AEAVPxContactBuffer@2@PEAVPxRenderOutput@2@@Z 0000000180125b00 f   GuPCMContactCapsuleCapsule.obj
 0001:00125390       ??$gjkPenetration@U?$LocalConvex@VCapsuleV@Gu@physx@@@Gu@physx@@U?$LocalConvex@VConvexHullNoScaleV@Gu@physx@@@23@@Gu@physx@@YA?AW4GjkStatus@01@AEBU?$LocalConvex@VCapsuleV@Gu@physx@@@01@AEBU?$LocalConvex@VConvexHullNoScaleV@Gu@physx@@@01@AEBT__m128@@2_NPEIAE4AEAEAEAUGjkOutput@01@@Z 0000000180126390 f i GuPCMContactCapsuleConvex.obj
 0001:00125400       ??$gjkPenetration@U?$LocalConvex@VCapsuleV@Gu@physx@@@Gu@physx@@U?$LocalConvex@VConvexHullNoScaleV@Gu@physx@@@23@@Gu@physx@@YA?AW4GjkStatus@01@AEBU?$LocalConvex@VCapsuleV@Gu@physx@@@01@AEBU?$LocalConvex@VConvexHullNoScaleV@Gu@physx@@@01@AEBT__m128@@2_NPEIAE4PEIAT5@5AEAEAEAUGjkOutput@01@@Z 0000000180126400 f i GuPCMContactCapsuleConvex.obj
 0001:00126ac0       ?pcmContactCapsuleConvex@Gu@physx@@YA_NAEBVPxGeometry@2@0AEBUPxTransformPadded@2@1AEBUNarrowPhaseParams@12@AEAUCache@12@AEAVPxContactBuffer@2@PEAVPxRenderOutput@2@@Z 0000000180127ac0 f   GuPCMContactCapsuleConvex.obj
 0001:00127cb0       ??_EPCMCapsuleVsHeightfieldContactGenerationCallback@@UEAAPEAXI@Z 0000000180128cb0 f i GuPCMContactCapsuleHeightField.obj
 0001:00127cb0       ??_EPCMConvexVsHeightfieldContactGenerationCallback@physx@@UEAAPEAXI@Z 0000000180128cb0 f i GuPCMContactConvexHeightField.obj
 0001:00127cb0       ??_GPCMCapsuleVsHeightfieldContactGenerationCallback@@UEAAPEAXI@Z 0000000180128cb0 f i GuPCMContactCapsuleHeightField.obj
 0001:00127cb0       ??_GPCMConvexVsHeightfieldContactGenerationCallback@physx@@UEAAPEAXI@Z 0000000180128cb0 f i GuPCMContactConvexHeightField.obj
 0001:00127ce0       ?pcmContactCapsuleHeightField@Gu@physx@@YA_NAEBVPxGeometry@2@0AEBUPxTransformPadded@2@1AEBUNarrowPhaseParams@12@AEAUCache@12@AEAVPxContactBuffer@2@PEAVPxRenderOutput@2@@Z 0000000180128ce0 f   GuPCMContactCapsuleHeightField.obj
 0001:00128bf0       ?reportTouchedTris@?$PCMHeightfieldContactGenerationCallback@UPCMCapsuleVsHeightfieldContactGenerationCallback@@@Gu@physx@@UEAA_NIPEBI@Z 0000000180129bf0 f i GuPCMContactCapsuleHeightField.obj
 0001:00129260       ?generateContacts@PCMCapsuleVsMeshContactGeneration@Gu@physx@@SAXAEBT__m128@@0000I000PEAVMeshPersistentContact@23@AEAI@Z 000000018012a260 f   GuPCMContactCapsuleMesh.obj
 0001:00129680       ?generateEE@PCMCapsuleVsMeshContactGeneration@Gu@physx@@QEAAXAEBT__m128@@000I00PEAVMeshPersistentContact@23@AEAI@Z 000000018012a680 f   GuPCMContactCapsuleMesh.obj
 0001:001298f0       ?generateEEMTD@PCMCapsuleVsMeshContactGeneration@Gu@physx@@SAXAEBT__m128@@000I00PEAVMeshPersistentContact@23@AEAI@Z 000000018012a8f0 f   GuPCMContactCapsuleMesh.obj
 0001:00129b20       ?pcmContactCapsuleMesh@Gu@physx@@YA_NAEBVPxGeometry@2@0AEBUPxTransformPadded@2@1AEBUNarrowPhaseParams@12@AEAUCache@12@AEAVPxContactBuffer@2@PEAVPxRenderOutput@2@@Z 000000018012ab20 f   GuPCMContactCapsuleMesh.obj
 0001:0012b390       ?pcmDistanceSegmentTriangleSquaredExported@@YA?AT__m128@@AEBT1@0000AEAT1@11@Z 000000018012c390 f   GuPCMContactCapsuleMesh.obj
 0001:0012b7f0       ?processTriangle@PCMCapsuleVsMeshContactGeneration@Gu@physx@@QEAA_NPEBV?$PxVec3T@M@3@IEPEBI@Z 000000018012c7f0 f   GuPCMContactCapsuleMesh.obj
 0001:0012c3f0       ?processTriangle@PCMCapsuleVsMeshContactGeneration@Gu@physx@@SA_NAEBVTriangleV@23@IAEBVCapsuleV@23@AEBT__m128@@EPEAVMeshPersistentContact@23@AEAI@Z 000000018012d3f0 f   GuPCMContactCapsuleMesh.obj
 0001:0012c720       ?addContactsToPatch@PCMConvexVsMeshContactGeneration@Gu@physx@@QEAAXAEBT__m128@@I@Z 000000018012d720 f   GuPCMContactConvexCommon.obj
 0001:0012d060       ?doSupport@?$SupportLocalImpl@VTriangleV@Gu@physx@@@Gu@physx@@UEBA?AT__m128@@AEBT4@@Z 000000018012e060 f i GuPCMContactConvexCommon.obj
 0001:0012d0f0       ?doSupport@?$SupportLocalImpl@VTriangleV@Gu@physx@@@Gu@physx@@UEBAXAEBT__m128@@AEAT4@1@Z 000000018012e0f0 f i GuPCMContactConvexCommon.obj
 0001:0012d160       ?generateLastContacts@PCMConvexVsMeshContactGeneration@Gu@physx@@QEAAXXZ 000000018012e160 f   GuPCMContactConvexCommon.obj
 0001:0012d6c0       ?populateVerts@?$SupportLocalImpl@VTriangleV@Gu@physx@@@Gu@physx@@UEBAXPEBEIPEBV?$PxVec3T@M@3@PEAT__m128@@@Z 000000018012e6c0 f i GuPCMContactConvexCommon.obj
 0001:0012d800       ?processTriangle@PCMConvexVsMeshContactGeneration@Gu@physx@@QEAA_NPEBV?$PxVec3T@M@3@IEPEBI@Z 000000018012e800 f   GuPCMContactConvexCommon.obj
 0001:0012dd50       ?processTriangle@PCMConvexVsMeshContactGeneration@Gu@physx@@SA_NAEBUPolygonalData@23@PEBVSupportLocal@23@PEBV?$PxVec3T@M@3@IEAEBT__m128@@_NAEBVPxTransformV@aos@3@AEBVPxMatTransformV@93@PEAVMeshPersistentContact@23@AEAI@Z 000000018012ed50 f   GuPCMContactConvexCommon.obj
 0001:0012dfd0       ??$gjkPenetration@U?$RelativeConvex@VConvexHullNoScaleV@Gu@physx@@@Gu@physx@@U?$LocalConvex@VConvexHullNoScaleV@Gu@physx@@@23@@Gu@physx@@YA?AW4GjkStatus@01@AEBU?$RelativeConvex@VConvexHullNoScaleV@Gu@physx@@@01@AEBU?$LocalConvex@VConvexHullNoScaleV@Gu@physx@@@01@AEBT__m128@@2_NPEIAE4AEAEAEAUGjkOutput@01@@Z 000000018012efd0 f i GuPCMContactConvexConvex.obj
 0001:0012e040       ??$gjkPenetration@U?$RelativeConvex@VConvexHullNoScaleV@Gu@physx@@@Gu@physx@@U?$LocalConvex@VConvexHullNoScaleV@Gu@physx@@@23@@Gu@physx@@YA?AW4GjkStatus@01@AEBU?$RelativeConvex@VConvexHullNoScaleV@Gu@physx@@@01@AEBU?$LocalConvex@VConvexHullNoScaleV@Gu@physx@@@01@AEBT__m128@@2_NPEIAE4PEIAT5@5AEAEAEAUGjkOutput@01@@Z 000000018012f040 f i GuPCMContactConvexConvex.obj
 0001:0012f550       ??$gjkPenetration@U?$RelativeConvex@VConvexHullNoScaleV@Gu@physx@@@Gu@physx@@U?$LocalConvex@VConvexHullV@Gu@physx@@@23@@Gu@physx@@YA?AW4GjkStatus@01@AEBU?$RelativeConvex@VConvexHullNoScaleV@Gu@physx@@@01@AEBU?$LocalConvex@VConvexHullV@Gu@physx@@@01@AEBT__m128@@2_NPEIAE4AEAEAEAUGjkOutput@01@@Z 0000000180130550 f i GuPCMContactConvexConvex.obj
 0001:0012f5c0       ??$gjkPenetration@U?$RelativeConvex@VConvexHullNoScaleV@Gu@physx@@@Gu@physx@@U?$LocalConvex@VConvexHullV@Gu@physx@@@23@@Gu@physx@@YA?AW4GjkStatus@01@AEBU?$RelativeConvex@VConvexHullNoScaleV@Gu@physx@@@01@AEBU?$LocalConvex@VConvexHullV@Gu@physx@@@01@AEBT__m128@@2_NPEIAE4PEIAT5@5AEAEAEAUGjkOutput@01@@Z 00000001801305c0 f i GuPCMContactConvexConvex.obj
 0001:00130b60       ??$gjkPenetration@U?$RelativeConvex@VConvexHullV@Gu@physx@@@Gu@physx@@U?$LocalConvex@VConvexHullNoScaleV@Gu@physx@@@23@@Gu@physx@@YA?AW4GjkStatus@01@AEBU?$RelativeConvex@VConvexHullV@Gu@physx@@@01@AEBU?$LocalConvex@VConvexHullNoScaleV@Gu@physx@@@01@AEBT__m128@@2_NPEIAE4AEAEAEAUGjkOutput@01@@Z 0000000180131b60 f i GuPCMContactConvexConvex.obj
 0001:00130bd0       ??$gjkPenetration@U?$RelativeConvex@VConvexHullV@Gu@physx@@@Gu@physx@@U?$LocalConvex@VConvexHullNoScaleV@Gu@physx@@@23@@Gu@physx@@YA?AW4GjkStatus@01@AEBU?$RelativeConvex@VConvexHullV@Gu@physx@@@01@AEBU?$LocalConvex@VConvexHullNoScaleV@Gu@physx@@@01@AEBT__m128@@2_NPEIAE4PEIAT5@5AEAEAEAUGjkOutput@01@@Z 0000000180131bd0 f i GuPCMContactConvexConvex.obj
 0001:00132bc0       ?pcmContactConvexConvex@Gu@physx@@YA_NAEBVPxGeometry@2@0AEBUPxTransformPadded@2@1AEBUNarrowPhaseParams@12@AEAUCache@12@AEAVPxContactBuffer@2@PEAVPxRenderOutput@2@@Z 0000000180133bc0 f   GuPCMContactConvexConvex.obj
 0001:00133cf0       ?support@?$RelativeConvex@VConvexHullNoScaleV@Gu@physx@@@Gu@physx@@UEBA?AT__m128@@AEBT4@@Z 0000000180134cf0 f i GuPCMContactConvexConvex.obj
 0001:00133da0       ?support@?$RelativeConvex@VConvexHullNoScaleV@Gu@physx@@@Gu@physx@@UEBA?AT__m128@@AEBT4@AEAH@Z 0000000180134da0 f i GuPCMContactConvexConvex.obj
 0001:00133e60       ?supportPoint@?$RelativeConvex@VConvexHullNoScaleV@Gu@physx@@@Gu@physx@@UEBA?AT__m128@@H@Z 0000000180134e60 f i GuPCMContactConvexConvex.obj
 0001:00133ec0       ?PCMContactConvexHeightfield@Gu@physx@@YA_NAEBUPolygonalData@12@PEAVSupportLocal@12@AEBT__m128@@AEBVPxBounds3@2@AEBVPxHeightFieldGeometry@2@AEBV?$PxTransformT@M@2@5MAEAVPxContactBuffer@2@AEBVFastVertex2ShapeScaling@Cm@2@_NAEAVMultiplePersistentContactManifold@12@PEAVPxRenderOutput@2@@Z 0000000180134ec0 f   GuPCMContactConvexHeightField.obj
 0001:00134d70       ?pcmContactBoxHeightField@Gu@physx@@YA_NAEBVPxGeometry@2@0AEBUPxTransformPadded@2@1AEBUNarrowPhaseParams@12@AEAUCache@12@AEAVPxContactBuffer@2@PEAVPxRenderOutput@2@@Z 0000000180135d70 f   GuPCMContactConvexHeightField.obj
 0001:00135010       ?pcmContactConvexHeightField@Gu@physx@@YA_NAEBVPxGeometry@2@0AEBUPxTransformPadded@2@1AEBUNarrowPhaseParams@12@AEAUCache@12@AEAVPxContactBuffer@2@PEAVPxRenderOutput@2@@Z 0000000180136010 f   GuPCMContactConvexHeightField.obj
 0001:001356f0       ?reportTouchedTris@?$PCMHeightfieldContactGenerationCallback@UPCMConvexVsHeightfieldContactGenerationCallback@physx@@@Gu@physx@@UEAA_NIPEBI@Z 00000001801366f0 f i GuPCMContactConvexHeightField.obj
 0001:00135ca0       ??$processTriangleCache@$0BA@@PCMConvexVsMeshContactGenerationCallback@physx@@QEAAXAEAU?$TriangleCache@$0BA@@Gu@1@@Z 0000000180136ca0 f i GuPCMContactConvexMesh.obj
 0001:00135d30       ??_EPCMConvexVsMeshContactGenerationCallback@physx@@UEAAPEAXI@Z 0000000180136d30 f i GuPCMContactConvexMesh.obj
 0001:00135d30       ??_GPCMConvexVsMeshContactGenerationCallback@physx@@UEAAPEAXI@Z 0000000180136d30 f i GuPCMContactConvexMesh.obj
 0001:00135d60       ?PCMContactConvexMesh@Gu@physx@@YA_NAEBUPolygonalData@12@PEAVSupportLocal@12@AEBT__m128@@AEBVPxBounds3@2@AEBVPxTriangleMeshGeometry@2@AEBV?$PxTransformT@M@2@5MAEAVPxContactBuffer@2@AEBVFastVertex2ShapeScaling@Cm@2@7_N8AEAVMultiplePersistentContactManifold@12@PEAVPxRenderOutput@2@@Z 0000000180136d60 f   GuPCMContactConvexMesh.obj
 0001:00136880       ?pcmContactBoxMesh@Gu@physx@@YA_NAEBVPxGeometry@2@0AEBUPxTransformPadded@2@1AEBUNarrowPhaseParams@12@AEAUCache@12@AEAVPxContactBuffer@2@PEAVPxRenderOutput@2@@Z 0000000180137880 f   GuPCMContactConvexMesh.obj
 0001:00136bc0       ?pcmContactConvexMesh@Gu@physx@@YA_NAEBVPxGeometry@2@0AEBUPxTransformPadded@2@1AEBUNarrowPhaseParams@12@AEAUCache@12@AEAVPxContactBuffer@2@PEAVPxRenderOutput@2@@Z 0000000180137bc0 f   GuPCMContactConvexMesh.obj
 0001:00137310       ?processHit@?$PCMMeshContactGenerationCallback@UPCMConvexVsMeshContactGenerationCallback@physx@@@Gu@physx@@UEAA_NAEBUPxGeomRaycastHit@3@AEBV?$PxVec3T@M@3@11AEAMPEBI@Z 0000000180138310 f i GuPCMContactConvexMesh.obj
 0001:001377d0       ?addGJKEPAContacts@Gu@physx@@YA_NPEBUGjkConvex@12@0AEBVPxMatTransformV@aos@2@W4GjkStatus@12@PEAVPersistentContact@12@T__m128@@4AEAUGjkOutput@12@AEAVPersistentContactManifold@12@@Z 00000001801387d0 f   GuPCMContactGenBoxConvex.obj
 0001:001379d0       ?buildPartialHull@Gu@physx@@YAXAEBUPolygonalData@12@PEBVSupportLocal@12@AEAVSeparatingAxes@12@AEBT__m128@@3@Z 00000001801389d0 f   GuPCMContactGenBoxConvex.obj
 0001:00137c80       ?computeMTD@Gu@physx@@YA_NAEBUPolygonalData@12@0PEBVSupportLocal@12@1AEAT__m128@@2@Z 0000000180138c80 f   GuPCMContactGenBoxConvex.obj
 0001:001382b0       ?generateFullContactManifold@Gu@physx@@YA_NAEBUPolygonalData@12@0PEBVSupportLocal@12@1PEAVPersistentContact@12@AEAIAEBT__m128@@444MM_NPEAVPxRenderOutput@2@M@Z 00000001801392b0 f   GuPCMContactGenBoxConvex.obj
 0001:00138dc0       ?generatedContacts@Gu@physx@@YAXAEBUPolygonalData@12@0AEBUHullPolygonData@12@1PEBVSupportLocal@12@2AEBVPxMatTransformV@aos@2@PEAVPersistentContact@12@AEAIAEBT__m128@@PEAVPxRenderOutput@2@@Z 0000000180139dc0 f   GuPCMContactGenBoxConvex.obj
 0001:0013a220       ?computeMTD@Gu@physx@@YA_NAEBVCapsuleV@12@AEBUPolygonalData@12@PEBVSupportLocal@12@AEAT__m128@@3@Z 000000018013b220 f   GuPCMContactGenSphereCapsule.obj
 0001:0013a310       ?generateCapsuleBoxFullContactManifold@Gu@physx@@YA_NAEBVCapsuleV@12@AEBUPolygonalData@12@PEBVSupportLocal@12@AEBVPxMatTransformV@aos@2@PEAVPersistentContact@12@AEAIAEBT__m128@@AEAT9@6M_NMPEAVPxRenderOutput@2@@Z 000000018013b310 f   GuPCMContactGenSphereCapsule.obj
 0001:0013a4b0       ?generateFullContactManifold@Gu@physx@@YA_NAEBVCapsuleV@12@AEBUPolygonalData@12@PEBVSupportLocal@12@AEBVPxMatTransformV@aos@2@PEAVPersistentContact@12@AEAIAEBT__m128@@AEAT9@6M_NM@Z 000000018013b4b0 f   GuPCMContactGenSphereCapsule.obj
 0001:0013a6a0       ?generateSphereFullContactManifold@Gu@physx@@YA_NAEBVCapsuleV@12@AEBUPolygonalData@12@PEBVSupportLocal@12@PEAVPersistentContact@12@AEAIAEBT__m128@@AEAT7@_N@Z 000000018013b6a0 f   GuPCMContactGenSphereCapsule.obj
 0001:0013bb90       ?pcmContactPlaneBox@Gu@physx@@YA_NAEBVPxGeometry@2@0AEBUPxTransformPadded@2@1AEBUNarrowPhaseParams@12@AEAUCache@12@AEAVPxContactBuffer@2@PEAVPxRenderOutput@2@@Z 000000018013cb90 f   GuPCMContactPlaneBox.obj
 0001:0013c750       ?pcmContactPlaneCapsule@Gu@physx@@YA_NAEBVPxGeometry@2@0AEBUPxTransformPadded@2@1AEBUNarrowPhaseParams@12@AEAUCache@12@AEAVPxContactBuffer@2@PEAVPxRenderOutput@2@@Z 000000018013d750 f   GuPCMContactPlaneCapsule.obj
 0001:0013ced0       ?pcmContactPlaneConvex@Gu@physx@@YA_NAEBVPxGeometry@2@0AEBUPxTransformPadded@2@1AEBUNarrowPhaseParams@12@AEAUCache@12@AEAVPxContactBuffer@2@PEAVPxRenderOutput@2@@Z 000000018013ded0 f   GuPCMContactPlaneConvex.obj
 0001:0013db50       ?pcmContactSphereBox@Gu@physx@@YA_NAEBVPxGeometry@2@0AEBUPxTransformPadded@2@1AEBUNarrowPhaseParams@12@AEAUCache@12@AEAVPxContactBuffer@2@PEAVPxRenderOutput@2@@Z 000000018013eb50 f   GuPCMContactSphereBox.obj
 0001:0013dfb0       ?pcmContactSphereCapsule@Gu@physx@@YA_NAEBVPxGeometry@2@0AEBUPxTransformPadded@2@1AEBUNarrowPhaseParams@12@AEAUCache@12@AEAVPxContactBuffer@2@PEAVPxRenderOutput@2@@Z 000000018013efb0 f   GuPCMContactSphereCapsule.obj
 0001:0013e420       ?pcmContactSphereConvex@Gu@physx@@YA_NAEBVPxGeometry@2@0AEBUPxTransformPadded@2@1AEBUNarrowPhaseParams@12@AEAUCache@12@AEAVPxContactBuffer@2@PEAVPxRenderOutput@2@@Z 000000018013f420 f   GuPCMContactSphereConvex.obj
 0001:0013f0f0       ??1?$PxArray@USortedTriangle@Gu@physx@@V?$PxInlineAllocator@$0IAA@V?$PxReflectionAllocator@USortedTriangle@Gu@physx@@@physx@@@3@@physx@@QEAA@XZ 00000001801400f0 f i GuPCMContactSphereHeightField.obj
 0001:0013f160       ??_EPCMSphereVsHeightfieldContactGenerationCallback@physx@@UEAAPEAXI@Z 0000000180140160 f i GuPCMContactSphereHeightField.obj
 0001:0013f160       ??_GPCMSphereVsHeightfieldContactGenerationCallback@physx@@UEAAPEAXI@Z 0000000180140160 f i GuPCMContactSphereHeightField.obj
 0001:0013f1b0       ?pcmContactSphereHeightField@Gu@physx@@YA_NAEBVPxGeometry@2@0AEBUPxTransformPadded@2@1AEBUNarrowPhaseParams@12@AEAUCache@12@AEAVPxContactBuffer@2@PEAVPxRenderOutput@2@@Z 00000001801401b0 f   GuPCMContactSphereHeightField.obj
 0001:0013fca0       ?reportTouchedTris@?$PCMHeightfieldContactGenerationCallback@UPCMSphereVsHeightfieldContactGenerationCallback@physx@@@Gu@physx@@UEAA_NIPEBI@Z 0000000180140ca0 f i GuPCMContactSphereHeightField.obj
 0001:00140250       ??$PxSort@USortedTriangle@Gu@physx@@U?$PxLess@USortedTriangle@Gu@physx@@@3@V?$PxReflectionAllocator@USortedTriangle@Gu@physx@@@3@@physx@@YAXPEAUSortedTriangle@Gu@0@IAEBU?$PxLess@USortedTriangle@Gu@physx@@@0@AEBV?$PxReflectionAllocator@USortedTriangle@Gu@physx@@@0@I@Z 0000000180141250 f i GuPCMContactSphereMesh.obj
 0001:00140770       ??$processTriangleCache@$0BA@VPCMSphereVsMeshContactGeneration@Gu@physx@@@PCMMeshContactGeneration@Gu@physx@@QEAA_NAEAU?$TriangleCache@$0BA@@12@@Z 0000000180141770 f i GuPCMContactSphereMesh.obj
 0001:00140c40       ?addToPatch@PCMSphereVsMeshContactGeneration@Gu@physx@@QEAAXAEBT__m128@@0T4@I@Z 0000000180141c40 f   GuPCMContactSphereMesh.obj
 0001:00141300       ?allocate@?$PxArray@IV?$PxInlineAllocator@$0PAA@V?$PxReflectionAllocator@I@physx@@@physx@@@physx@@IEAAPEAII@Z 0000000180142300 f i GuPCMContactSphereMesh.obj
 0001:001413c0       ?allocate@?$PxArray@USortedTriangle@Gu@physx@@V?$PxInlineAllocator@$0IAA@V?$PxReflectionAllocator@USortedTriangle@Gu@physx@@@physx@@@3@@physx@@IEAAPEAUSortedTriangle@Gu@2@I@Z 00000001801423c0 f i GuPCMContactSphereMesh.obj
 0001:00141480       ?generateLastContacts@PCMSphereVsMeshContactGeneration@Gu@physx@@QEAAXXZ 0000000180142480 f   GuPCMContactSphereMesh.obj
 0001:00141ab0       ?growAndPushBack@?$PxArray@USortedTriangle@Gu@physx@@V?$PxInlineAllocator@$0IAA@V?$PxReflectionAllocator@USortedTriangle@Gu@physx@@@physx@@@3@@physx@@IEAAAEAUSortedTriangle@Gu@2@AEBU342@@Z 0000000180142ab0 f i GuPCMContactSphereMesh.obj
 0001:00141bc0       ?pcmContactSphereMesh@Gu@physx@@YA_NAEBVPxGeometry@2@0AEBUPxTransformPadded@2@1AEBUNarrowPhaseParams@12@AEAUCache@12@AEAVPxContactBuffer@2@PEAVPxRenderOutput@2@@Z 0000000180142bc0 f   GuPCMContactSphereMesh.obj
 0001:00143160       ?processTriangle@PCMSphereVsMeshContactGeneration@Gu@physx@@QEAA_NPEBV?$PxVec3T@M@3@IEPEBI@Z 0000000180144160 f   GuPCMContactSphereMesh.obj
 0001:00143550       ?recreate@?$PxArray@IV?$PxInlineAllocator@$0PAA@V?$PxReflectionAllocator@I@physx@@@physx@@@physx@@IEAAXI@Z 0000000180144550 f i GuPCMContactSphereMesh.obj
 0001:00143610       ?pcmContactSpherePlane@Gu@physx@@YA_NAEBVPxGeometry@2@0AEBUPxTransformPadded@2@1AEBUNarrowPhaseParams@12@AEAUCache@12@AEAVPxContactBuffer@2@PEAVPxRenderOutput@2@@Z 0000000180144610 f   GuPCMContactSpherePlane.obj
 0001:00143790       ?pcmContactSphereSphere@Gu@physx@@YA_NAEBVPxGeometry@2@0AEBUPxTransformPadded@2@1AEBUNarrowPhaseParams@12@AEAUCache@12@AEAVPxContactBuffer@2@PEAVPxRenderOutput@2@@Z 0000000180144790 f   GuPCMContactSphereSphere.obj
 0001:00144060       ?pcmContactGeometryCustomGeometry@Gu@physx@@YA_NAEBVPxGeometry@2@0AEBUPxTransformPadded@2@1AEBUNarrowPhaseParams@12@AEAUCache@12@AEAVPxContactBuffer@2@PEAVPxRenderOutput@2@@Z 0000000180145060 f   GuPCMContactCustomGeometry.obj
 0001:00144110       ?getPCMConvexData@Gu@physx@@YAXAEBVConvexHullV@12@_NAEAUPolygonalData@12@@Z 0000000180145110 f   GuPCMShapeConvex.obj
 0001:00144150       ?getPCMConvexData@Gu@physx@@YA_NAEBVPxConvexMeshGeometry@2@AEAVFastVertex2ShapeScaling@Cm@2@AEAVPxBounds3@2@AEAUPolygonalData@12@@Z 0000000180145150 f   GuPCMShapeConvex.obj
 0001:001446b0       ?getPolygonalData@PCMPolygonalBox@Gu@physx@@QEBAXPEIAUPolygonalData@23@@Z 00000001801456b0 f   GuPCMShapeConvex.obj
 0001:00144730       ?generatePolyDataContactManifold@PCMConvexVsMeshContactGeneration@Gu@physx@@QEAA_NAEBVTriangleV@23@IIEPEAVMeshPersistentContact@23@AEAIAEBT__m128@@AEAT6@@Z 0000000180145730 f   GuPCMTriangleContactGen.obj
 0001:00144850       ?generateTriangleFullContactManifold@PCMConvexVsMeshContactGeneration@Gu@physx@@QEAA_NAEBVTriangleV@23@IPEBIEAEBUPolygonalData@23@PEBV?$SupportLocalImpl@VTriangleV@Gu@physx@@@23@PEBVSupportLocal@23@PEAVMeshPersistentContact@23@AEAIAEBT__m128@@AEAT9@@Z 0000000180145850 f   GuPCMTriangleContactGen.obj
 0001:00144d80       ?generateTriangleFullContactManifold@PCMConvexVsMeshContactGeneration@Gu@physx@@SA_NAEBVTriangleV@23@IEAEBUPolygonalData@23@PEBV?$SupportLocalImpl@VTriangleV@Gu@physx@@@23@PEBVSupportLocal@23@PEAVMeshPersistentContact@23@AEAIAEBT__m128@@AEAT9@PEAVPxRenderOutput@3@@Z 0000000180145d80 f   GuPCMTriangleContactGen.obj
 0001:00146e10       ?addBatchManifoldContacts2@PersistentContactManifold@Gu@physx@@QEAAXPEBVPersistentContact@23@I@Z 0000000180147e10 f   GuPersistentContactManifold.obj
 0001:00146e80       ?addBatchManifoldContacts@PersistentContactManifold@Gu@physx@@QEAAXPEBVPersistentContact@23@IM@Z 0000000180147e80 f   GuPersistentContactManifold.obj
 0001:00146f00       ?addBatchManifoldContactsCluster@PersistentContactManifold@Gu@physx@@QEAAXPEBVPersistentContact@23@I@Z 0000000180147f00 f   GuPersistentContactManifold.obj
 0001:00147180       ?addManifoldContactPoints@MultiplePersistentContactManifold@Gu@physx@@QEAAXPEAVMeshPersistentContact@23@IPEAPEAUPCMContactPatch@23@IAEBT__m128@@2E@Z 0000000180148180 f   GuPersistentContactManifold.obj
 0001:00147570       ?addManifoldContactsToContactBuffer@MultiplePersistentContactManifold@Gu@physx@@QEAA_NAEAVPxContactBuffer@3@AEBVPxTransformV@aos@3@1AEBT__m128@@@Z 0000000180148570 f   GuPersistentContactManifold.obj
 0001:00147820       ?addManifoldContactsToContactBuffer@MultiplePersistentContactManifold@Gu@physx@@QEAA_NAEAVPxContactBuffer@3@AEBVPxTransformV@aos@3@@Z 0000000180148820 f   GuPersistentContactManifold.obj
 0001:00147aa0       ?addManifoldContactsToContactBuffer@PersistentContactManifold@Gu@physx@@QEAAXAEAVPxContactBuffer@3@AEBT__m128@@1AEBVPxTransformV@aos@3@11@Z 0000000180148aa0 f   GuPersistentContactManifold.obj
 0001:00147c30       ?addManifoldContactsToContactBuffer@PersistentContactManifold@Gu@physx@@QEAAXAEAVPxContactBuffer@3@AEBT__m128@@AEBVPxMatTransformV@aos@3@@Z 0000000180148c30 f   GuPersistentContactManifold.obj
 0001:00147ce0       ?addManifoldContactsToContactBuffer@PersistentContactManifold@Gu@physx@@QEAAXAEAVPxContactBuffer@3@AEBT__m128@@AEBVPxTransformV@aos@3@1@Z 0000000180148ce0 f   GuPersistentContactManifold.obj
 0001:00147e40       ?addManifoldPoint2@PersistentContactManifold@Gu@physx@@QEAAIAEBT__m128@@000@Z 0000000180148e40 f   GuPersistentContactManifold.obj
 0001:00147f70       ?addManifoldPoint@Gu@physx@@YAXPEAVPersistentContact@12@AEAVPersistentContactManifold@12@AEAUGjkOutput@12@AEBVPxMatTransformV@aos@2@T__m128@@@Z 0000000180148f70 f   GuPersistentContactManifold.obj
 0001:00148120       ?addManifoldPoint@PersistentContactManifold@Gu@physx@@QEAAIAEBT__m128@@000@Z 0000000180149120 f   GuPersistentContactManifold.obj
 0001:00148560       ?drawLine@MultiplePersistentContactManifold@Gu@physx@@SAXAEAVPxRenderOutput@3@AEBT__m128@@1I@Z 0000000180149560 f   GuPersistentContactManifold.obj
 0001:00148610       ?drawLine@MultiplePersistentContactManifold@Gu@physx@@SAXAEAVPxRenderOutput@3@V?$PxVec3T@M@3@1I@Z 0000000180149610 f   GuPersistentContactManifold.obj
 0001:00148680       ?drawManifold@MultiplePersistentContactManifold@Gu@physx@@QEAAXAEAVPxRenderOutput@3@AEBVPxTransformV@aos@3@1@Z 0000000180149680 f   GuPersistentContactManifold.obj
 0001:00148700       ?drawManifold@SinglePersistentContactManifold@Gu@physx@@QEAAXAEAVPxRenderOutput@3@AEBVPxTransformV@aos@3@1@Z 0000000180149700 f   GuPersistentContactManifold.obj
 0001:00148d30       ?drawPoint@MultiplePersistentContactManifold@Gu@physx@@SAXAEAVPxRenderOutput@3@AEBT__m128@@MI@Z 0000000180149d30 f   GuPersistentContactManifold.obj
 0001:00148f40       ?drawPolygon@MultiplePersistentContactManifold@Gu@physx@@SAXAEAVPxRenderOutput@3@AEBVPxTransformV@aos@3@PEAT__m128@@II@Z 0000000180149f40 f   GuPersistentContactManifold.obj
 0001:001491c0       ?findRotationMatrixFromZAxis@Gu@physx@@YA?AUMat33V@aos@2@AEBT__m128@@@Z 000000018014a1c0 f   GuPersistentContactManifold.obj
 0001:00149440       ?fromBuffer@MultiplePersistentContactManifold@Gu@physx@@QEAAXPEIAE@Z 000000018014a440 f   GuPersistentContactManifold.obj
 0001:001495a0       ?reduceBatchContacts2@PersistentContactManifold@Gu@physx@@QEAAXPEBVPersistentContact@23@I@Z 000000018014a5a0 f   GuPersistentContactManifold.obj
 0001:001497a0       ?reduceBatchContacts@PersistentContactManifold@Gu@physx@@QEAAXPEBVPersistentContact@23@IM@Z 000000018014a7a0 f   GuPersistentContactManifold.obj
 0001:00149c60       ?reduceBatchContactsCapsule@SinglePersistentContactManifold@Gu@physx@@QEAA?AT__m128@@PEBVMeshPersistentContact@23@IAEAUPCMContactPatch@23@@Z 000000018014ac60 f   GuPersistentContactManifold.obj
 0001:00149ef0       ?reduceBatchContactsCluster@PersistentContactManifold@Gu@physx@@QEAAXPEBVPersistentContact@23@I@Z 000000018014aef0 f   GuPersistentContactManifold.obj
 0001:0014a380       ?reduceBatchContactsConvex@SinglePersistentContactManifold@Gu@physx@@QEAA?AT__m128@@PEBVMeshPersistentContact@23@IAEAUPCMContactPatch@23@@Z 000000018014b380 f   GuPersistentContactManifold.obj
 0001:0014a970       ?reduceContacts@SinglePersistentContactManifold@Gu@physx@@SAIPEAVMeshPersistentContact@23@I@Z 000000018014b970 f   GuPersistentContactManifold.obj
 0001:0014aef0       ?reduceContactsForPCM@PersistentContactManifold@Gu@physx@@QEAAIAEBT__m128@@00@Z 000000018014bef0 f   GuPersistentContactManifold.obj
 0001:0014b490       ?refreshContactPoints@SinglePersistentContactManifold@Gu@physx@@QEAA?AT__m128@@AEBVPxMatTransformV@aos@3@AEBT4@1@Z 000000018014c490 f   GuPersistentContactManifold.obj
 0001:0014b5e0       ?replaceManifoldPoint@PersistentContactManifold@Gu@physx@@QEAA_NAEBT__m128@@000@Z 000000018014c5e0 f   GuPersistentContactManifold.obj
 0001:0014b6a0       ?contains@Gu@physx@@YA_NPEAT__m128@@IAEBT3@11@Z 000000018014c6a0 f   GuPCMContactGenUtil.obj
 0001:0014b860       ?getPolygonIndex@Gu@physx@@YAHAEBUPolygonalData@12@PEBVSupportLocal@12@AEBT__m128@@AEAH@Z 000000018014c860 f   GuPCMContactGenUtil.obj
 0001:0014bb00       ?getWitnessPolygonIndex@Gu@physx@@YAIAEBUPolygonalData@12@PEBVSupportLocal@12@AEBT__m128@@2M@Z 000000018014cb00 f   GuPCMContactGenUtil.obj
 0001:0014c050       ?sweepBoxBox@Gu@physx@@YA_NAEBVBox@12@0AEBV?$PxVec3T@M@2@MV?$PxFlags@W4Enum@PxHitFlag@physx@@G@2@AEAUPxGeomSweepHit@2@@Z 000000018014d050 f   GuSweepBoxBox.obj
 0001:0014d690       ?sweepBoxSphere@Gu@physx@@YA_NAEBVBox@12@MAEBV?$PxVec3T@M@2@1MAEAMAEAV42@V?$PxFlags@W4Enum@PxHitFlag@physx@@G@2@@Z 000000018014e690 f   GuSweepBoxSphere.obj
 0001:0014e340       ?sweepBoxTriangle@Gu@physx@@YA_NAEBVPxTriangle@2@AEBVPxBounds3@2@AEBV?$PxVec3T@M@2@2AEAV52@3AEAM_N@Z 000000018014f340 f   GuSweepBoxTriangle_FeatureBased.obj
 0001:0014fa60       ?triBoxSweepTestBoxSpace@Gu@physx@@YAHAEBVPxTriangle@2@AEBV?$PxVec3T@M@2@11MAEAM_N@Z 0000000180150a60 f   GuSweepBoxTriangle_SAT.obj
 0001:00151370       ?sweepCapsuleBox@Gu@physx@@YA_NAEBVCapsule@12@AEBV?$PxTransformT@M@2@AEBV?$PxVec3T@M@2@2MAEAV52@AEAM3V?$PxFlags@W4Enum@PxHitFlag@physx@@G@2@@Z 0000000180152370 f   GuSweepCapsuleBox.obj
 0001:001516c0       ?distancePointSegmentSquared@Gu@physx@@YAMAEBVSegment@12@AEBV?$PxVec3T@M@2@PEAM@Z 00000001801526c0 f i GuSweepCapsuleCapsule.obj
 0001:00151a40       ?sweepCapsuleCapsule@Gu@physx@@YA_NAEBVCapsule@12@0AEBV?$PxVec3T@M@2@MAEAMAEAV42@3IAEAG@Z 0000000180152a40 f   GuSweepCapsuleCapsule.obj
 0001:00152850       ?sweepCapsuleTriangles_Precise@Gu@physx@@YA_NIPEIBVPxTriangle@2@AEBVCapsule@12@AEBV?$PxVec3T@M@2@MPEIBIAEAUPxGeomSweepHit@2@AEAV52@V?$PxFlags@W4Enum@PxHitFlag@physx@@G@2@_NPEBVBoxPadded@12@@Z 0000000180153850 f   GuSweepCapsuleTriangle.obj
 0001:001549c0       ?sweepSphereCapsule@Gu@physx@@YA_NAEBVSphere@12@AEBVCapsule@12@AEBV?$PxVec3T@M@2@MAEAMAEAV52@4V?$PxFlags@W4Enum@PxHitFlag@physx@@G@2@@Z 00000001801559c0 f   GuSweepSphereCapsule.obj
 0001:00155060       ?sweepSphereSphere@Gu@physx@@YA_NAEBV?$PxVec3T@M@2@M0M0AEAMAEAV32@@Z 0000000180156060 f   GuSweepSphereSphere.obj
 0001:001552d0       ?sweepSphereTriangles@Gu@physx@@YA_NIPEIBVPxTriangle@2@AEBV?$PxVec3T@M@2@M1MPEIBIAEAUPxGeomSweepHit@2@AEAV42@_N555@Z 00000001801562d0 f   GuSweepSphereTriangle.obj
 0001:00155ba0       ?sweepSphereVSQuad@Gu@physx@@YA_NPEIBV?$PxVec3T@M@2@AEBV32@1M1AEAM@Z 0000000180156ba0 f   GuSweepSphereTriangle.obj
 0001:00156b80       ?sweepSphereVSTri@Gu@physx@@YA_NPEIBV?$PxVec3T@M@2@AEBV32@1M1AEAMAEA_N_N@Z 0000000180157b80 f   GuSweepSphereTriangle.obj
 0001:001578a0       ??$gjk@U?$LocalConvex@VTriangleV@Gu@physx@@@Gu@physx@@U?$LocalConvex@VBoxV@Gu@physx@@@23@@Gu@physx@@YA?AW4GjkStatus@01@AEBU?$LocalConvex@VTriangleV@Gu@physx@@@01@AEBU?$LocalConvex@VBoxV@Gu@physx@@@01@AEBT__m128@@2AEAT5@333@Z 00000001801588a0 f i GuSweepTriangleUtils.obj
 0001:00158580       ?computeBoxTriImpactData@Gu@physx@@YAXAEAV?$PxVec3T@M@2@0AEBV32@1AEBVPxTriangle@2@M@Z 0000000180159580 f   GuSweepTriangleUtils.obj
 0001:00158800       ?computeEdgeEdgeNormal@Gu@physx@@YAXAEAV?$PxVec3T@M@2@AEBV32@1111M@Z 0000000180159800 f   GuSweepTriangleUtils.obj
 0001:00158ac0       ?computeSphereTriImpactData@Gu@physx@@YAXAEAV?$PxVec3T@M@2@0AEBV32@1MAEBVPxTriangle@2@@Z 0000000180159ac0 f   GuSweepTriangleUtils.obj
 0001:00158fa0       ??0ShapeData@Gu@physx@@QEAA@AEBVPxGeometry@2@AEBV?$PxTransformT@M@2@M@Z 0000000180159fa0 f   GuBounds.obj
 0001:00159510       ?computeBounds@Gu@physx@@YAXAEAVPxBounds3@2@AEBVPxGeometry@2@AEBV?$PxTransformT@M@2@MM@Z 000000018015a510 f   GuBounds.obj
 0001:0015a1e0       ?computeBoundsAroundVertices@Gu@physx@@YAXAEAVPxBounds3@2@IPEIBV?$PxVec3T@M@2@@Z 000000018015b1e0 f   GuBounds.obj
 0001:0015a290       ?computeGlobalBox@Gu@physx@@YAXAEAVPxBounds3@2@IPEIBV32@PEIBI@Z 000000018015b290 f   GuBounds.obj
 0001:0015a320       ?computeLocalBoundsAndGeomEpsilon@Gu@physx@@YAXPEBV?$PxVec3T@M@2@IAEAVPxBounds3@2@AEAM@Z 000000018015b320 f   GuBounds.obj
 0001:0015b6e0       ??0AABBTree@Gu@physx@@QEAA@XZ 000000018015c6e0 f   GuAABBTree.obj
 0001:0015b710       ??0BVHPartialRefitData@Gu@physx@@QEAA@XZ 000000018015c710 f   GuAABBTree.obj
 0001:0015b740       ??0NodeAllocator@Gu@physx@@QEAA@XZ 000000018015c740 f   GuAABBTree.obj
 0001:0015b760       ??1AABBTree@Gu@physx@@QEAA@XZ 000000018015c760 f   GuAABBTree.obj
 0001:0015b780       ??1BVHPartialRefitData@Gu@physx@@QEAA@XZ 000000018015c780 f   GuAABBTree.obj
 0001:0015b820       ??1NodeAllocator@Gu@physx@@QEAA@XZ 000000018015c820 f   GuAABBTree.obj
 0001:0015b870       ?_buildHierarchy@AABBTreeBuildNode@Gu@physx@@QEAAXAEBVAABBTreeBuildParams@23@AEAUBuildStats@23@AEAVNodeAllocator@23@QEAI@Z 000000018015c870 f   GuAABBTree.obj
 0001:0015b900       ?_buildHierarchySAH@AABBTreeBuildNode@Gu@physx@@QEAAXAEBVAABBTreeBuildParams@23@AEAUSAH_Buffers@23@AEAUBuildStats@23@AEAVNodeAllocator@23@QEAI@Z 000000018015c900 f   GuAABBTree.obj
 0001:0015b9b0       ?addRuntimeChilds@AABBTree@Gu@physx@@AEAAXAEAIAEBVAABBTreeMergeData@23@@Z 000000018015c9b0 f   GuAABBTree.obj
 0001:0015bab0       ?build@AABBTree@Gu@physx@@QEAA_NAEBVAABBTreeBuildParams@23@AEAVNodeAllocator@23@@Z 000000018015cab0 f   GuAABBTree.obj
 0001:0015bcd0       ?buildAABBTree@Gu@physx@@YAPEAIAEBVAABBTreeBuildParams@12@AEAVNodeAllocator@12@AEAUBuildStats@12@@Z 000000018015ccd0 f   GuAABBTree.obj
 0001:0015bd70       ?buildAABBTree@Gu@physx@@YAXIAEBVAABBTreeBounds@12@AEAV?$PxArray@UBVHNode@Gu@physx@@V?$PxReflectionAllocator@UBVHNode@Gu@physx@@@3@@2@@Z 000000018015cd70 f   GuAABBTree.obj
 0001:0015c140       ?buildEnd@AABBTree@Gu@physx@@AEAAXAEBVAABBTreeBuildParams@23@AEAVNodeAllocator@23@AEBUBuildStats@23@@Z 000000018015d140 f   GuAABBTree.obj
 0001:0015c360       ?createUpdateMap@BVHPartialRefitData@Gu@physx@@QEAAXI@Z 000000018015d360 f   GuAABBTree.obj
 0001:0015c480       ?flattenTree@Gu@physx@@YAXAEBVNodeAllocator@12@PEAUBVHNode@12@PEBI@Z 000000018015d480 f   GuAABBTree.obj
 0001:0015c670       ?fullRefit@BVHCoreData@Gu@physx@@QEAAXPEBVPxBounds3@3@@Z 000000018015d670 f   GuAABBTree.obj
 0001:0015c830       ?getBiNode@NodeAllocator@Gu@physx@@QEAAPEAVAABBTreeBuildNode@23@XZ 000000018015d830 f   GuAABBTree.obj
 0001:0015c960       ?getParentIndices@BVHPartialRefitData@Gu@physx@@IEAAPEAIXZ 000000018015d960 f   GuAABBTree.obj
 0001:0015c9f0       ?growAndPushBack@?$PxArray@PEAVAABBTreeBuildNode@Gu@physx@@V?$PxReflectionAllocator@PEAVAABBTreeBuildNode@Gu@physx@@@3@@physx@@IEAAAEAPEAVAABBTreeBuildNode@Gu@2@AEBQEAV342@@Z 000000018015d9f0 f i GuAABBTree.obj
 0001:0015cb20       ?growAndPushBack@?$PxArray@USlab@NodeAllocator@Gu@physx@@V?$PxReflectionAllocator@USlab@NodeAllocator@Gu@physx@@@4@@physx@@IEAAAEAUSlab@NodeAllocator@Gu@2@AEBU3452@@Z 000000018015db20 f i GuAABBTree.obj
 0001:0015cbe0       ?init@AABBTreeBounds@Gu@physx@@QEAAXIPEBVPxBounds3@3@@Z 000000018015dbe0 f   GuAABBTree.obj
 0001:0015cca0       ?init@NodeAllocator@Gu@physx@@QEAAXII@Z 000000018015dca0 f   GuAABBTree.obj
 0001:0015cfe0       ?initTree@AABBTree@Gu@physx@@QEAAXAEBVAABBTreeMergeData@23@@Z 000000018015dfe0 f   GuAABBTree.obj
 0001:0015d110       ?markNodeForRefit@BVHPartialRefitData@Gu@physx@@QEAAXI@Z 000000018015e110 f   GuAABBTree.obj
 0001:0015d220       ?mergeRuntimeLeaf@AABBTree@Gu@physx@@AEAAXAEAUBVHNode@23@AEBVAABBTreeMergeData@23@I@Z 000000018015e220 f   GuAABBTree.obj
 0001:0015d470       ?mergeRuntimeNode@AABBTree@Gu@physx@@AEAAXAEAUBVHNode@23@AEBVAABBTreeMergeData@23@I@Z 000000018015e470 f   GuAABBTree.obj
 0001:0015d790       ?mergeTree@AABBTree@Gu@physx@@QEAAXAEBVAABBTreeMergeData@23@@Z 000000018015e790 f   GuAABBTree.obj
 0001:0015da20       ?progressiveBuild@AABBTree@Gu@physx@@QEAAIAEBVAABBTreeBuildParams@23@AEAVNodeAllocator@23@AEAUBuildStats@23@II@Z 000000018015ea20 f   GuAABBTree.obj
 0001:0015dcd0       ?refitMarkedNodes@BVHPartialRefitData@Gu@physx@@QEAAXPEBVPxBounds3@3@@Z 000000018015ecd0 f   GuAABBTree.obj
 0001:0015de40       ?release@AABBTree@Gu@physx@@QEAAX_N@Z 000000018015ee40 f   GuAABBTree.obj
 0001:0015df30       ?release@AABBTreeBounds@Gu@physx@@QEAAXXZ 000000018015ef30 f   GuAABBTree.obj
 0001:0015df80       ?release@NodeAllocator@Gu@physx@@QEAAXXZ 000000018015ef80 f   GuAABBTree.obj
 0001:0015e030       ?releasePartialRefitData@BVHPartialRefitData@Gu@physx@@QEAAX_N@Z 000000018015f030 f   GuAABBTree.obj
 0001:0015e0c0       ?reshuffle@Gu@physx@@YAIIQEIAIPEIBV?$PxVec3T@M@2@MI@Z 000000018015f0c0 f   GuAABBTree.obj
 0001:0015e200       ?resize@?$PxArray@USlab@NodeAllocator@Gu@physx@@V?$PxReflectionAllocator@USlab@NodeAllocator@Gu@physx@@@4@@physx@@QEAAXIAEBUSlab@NodeAllocator@Gu@2@@Z 000000018015f200 f i GuAABBTree.obj
 0001:0015e280       ?resize@AABBTreeBounds@Gu@physx@@QEAAXII@Z 000000018015f280 f   GuAABBTree.obj
 0001:0015e320       ?shiftIndices@AABBTree@Gu@physx@@QEAAXI@Z 000000018015f320 f   GuAABBTree.obj
 0001:0015e340       ?shiftOrigin@AABBTree@Gu@physx@@QEAAXAEBV?$PxVec3T@M@3@@Z 000000018015f340 f   GuAABBTree.obj
 0001:0015e6b0       ?subdivide@AABBTreeBuildNode@Gu@physx@@QEAAXAEBVAABBTreeBuildParams@23@AEAUBuildStats@23@AEAVNodeAllocator@23@QEAI@Z 000000018015f6b0 f   GuAABBTree.obj
 0001:0015e8b0       ?subdivideSAH@AABBTreeBuildNode@Gu@physx@@QEAAXAEBVAABBTreeBuildParams@23@AEAUSAH_Buffers@23@AEAUBuildStats@23@AEAVNodeAllocator@23@QEAI@Z 000000018015f8b0 f   GuAABBTree.obj
 0001:0015e9a0       ?traverseRuntimeNode@AABBTree@Gu@physx@@AEAAXAEAUBVHNode@23@AEBVAABBTreeMergeData@23@I@Z 000000018015f9a0 f   GuAABBTree.obj
 0001:0015eae0       ?initMap@AABBTreeUpdateMap@Gu@physx@@QEAAXIAEBVAABBTree@23@@Z 000000018015fae0 f   GuAABBTreeUpdateMap.obj
 0001:0015ec70       ?invalidate@AABBTreeUpdateMap@Gu@physx@@QEAAXIIAEAVAABBTree@23@@Z 000000018015fc70 f   GuAABBTreeUpdateMap.obj
 0001:0015ef10       ?visualizeTree@@YAXAEAVPxRenderOutput@physx@@IPEBVAABBTree@Gu@2@@Z 000000018015ff10 f   GuSqInternal.obj
 0001:0015ef80       ?visualizeTree@@YAXAEAVPxRenderOutput@physx@@IPEBVBVH@Gu@2@@Z 000000018015ff80 f   GuSqInternal.obj
 0001:0015eff0       ?visualizeTree@@YAXAEAVPxRenderOutput@physx@@IPEBVIncrementalAABBTree@Gu@2@PEAVDebugVizCallback@2@@Z 000000018015fff0 f   GuSqInternal.obj
 0001:0015f070       ??$PxSort@PEAXU?$PxLess@PEAX@physx@@V?$PxReflectionAllocator@UAABBTreeIndices@Gu@physx@@@2@@physx@@YAXPEAPEAXIAEBU?$PxLess@PEAX@0@AEBV?$PxReflectionAllocator@UAABBTreeIndices@Gu@physx@@@0@I@Z 0000000180160070 f i GuIncrementalAABBTree.obj
 0001:0015f4d0       ??$PxSort@PEAXU?$PxLess@PEAX@physx@@V?$PxReflectionAllocator@UIncrementalAABBTreeNodePair@Gu@physx@@@2@@physx@@YAXPEAPEAXIAEBU?$PxLess@PEAX@0@AEBV?$PxReflectionAllocator@UIncrementalAABBTreeNodePair@Gu@physx@@@0@I@Z 00000001801604d0 f i GuIncrementalAABBTree.obj
 0001:0015f930       ??0IncrementalAABBTree@Gu@physx@@QEAA@XZ 0000000180160930 f   GuIncrementalAABBTree.obj
 0001:0015f9b0       ??1?$PxPoolBase@UAABBTreeIndices@Gu@physx@@V?$PxReflectionAllocator@UAABBTreeIndices@Gu@physx@@@3@@physx@@QEAA@XZ 00000001801609b0 f i GuIncrementalAABBTree.obj
 0001:0015fb10       ??1?$PxPoolBase@UIncrementalAABBTreeNodePair@Gu@physx@@V?$PxReflectionAllocator@UIncrementalAABBTreeNodePair@Gu@physx@@@3@@physx@@QEAA@XZ 0000000180160b10 f i GuIncrementalAABBTree.obj
 0001:0015fc70       ??1IncrementalAABBTree@Gu@physx@@QEAA@XZ 0000000180160c70 f   GuIncrementalAABBTree.obj
 0001:0015fcb0       ?allocate@?$PxArray@PEAXV?$PxReflectionAllocator@UAABBTreeIndices@Gu@physx@@@physx@@@physx@@IEAAPEAPEAXI@Z 0000000180160cb0 f i GuIncrementalAABBTree.obj
 0001:0015fd60       ?allocate@?$PxArray@PEAXV?$PxReflectionAllocator@UIncrementalAABBTreeNodePair@Gu@physx@@@physx@@@physx@@IEAAPEAPEAXI@Z 0000000180160d60 f i GuIncrementalAABBTree.obj
 0001:0015fe10       ?allocate@?$PxPoolBase@UAABBTreeIndices@Gu@physx@@V?$PxReflectionAllocator@UAABBTreeIndices@Gu@physx@@@3@@physx@@QEAAPEAUAABBTreeIndices@Gu@2@XZ 0000000180160e10 f i GuIncrementalAABBTree.obj
 0001:0015ff10       ?allocate@?$PxPoolBase@UIncrementalAABBTreeNodePair@Gu@physx@@V?$PxReflectionAllocator@UIncrementalAABBTreeNodePair@Gu@physx@@@3@@physx@@QEAAPEAUIncrementalAABBTreeNodePair@Gu@2@XZ 0000000180160f10 f i GuIncrementalAABBTree.obj
 0001:00160030       ?build@IncrementalAABBTree@Gu@physx@@QEAA_NAEBVAABBTreeBuildParams@23@AEAV?$PxArray@PEAVIncrementalAABBTreeNode@Gu@physx@@V?$PxReflectionAllocator@PEAVIncrementalAABBTreeNode@Gu@physx@@@3@@3@@Z 0000000180161030 f   GuIncrementalAABBTree.obj
 0001:00160210       ?clone@IncrementalAABBTree@Gu@physx@@AEAAXAEAV?$PxArray@PEAVIncrementalAABBTreeNode@Gu@physx@@V?$PxReflectionAllocator@PEAVIncrementalAABBTreeNode@Gu@physx@@@3@@3@PEBIPEAPEAVIncrementalAABBTreeNode@23@@Z 0000000180161210 f   GuIncrementalAABBTree.obj
 0001:00160750       ?copy@IncrementalAABBTree@Gu@physx@@QEAAXAEBVBVH@23@AEAV?$PxArray@PEAVIncrementalAABBTreeNode@Gu@physx@@V?$PxReflectionAllocator@PEAVIncrementalAABBTreeNode@Gu@physx@@@3@@3@@Z 0000000180161750 f   GuIncrementalAABBTree.obj
 0001:00160800       ?copyNode@IncrementalAABBTree@Gu@physx@@AEAAXAEAVIncrementalAABBTreeNode@23@AEBUBVHNode@23@PEBU523@PEAV423@PEBIAEAV?$PxArray@PEAVIncrementalAABBTreeNode@Gu@physx@@V?$PxReflectionAllocator@PEAVIncrementalAABBTreeNode@Gu@physx@@@3@@3@@Z 0000000180161800 f   GuIncrementalAABBTree.obj
 0001:001609c0       ?fixupTreeIndices@IncrementalAABBTree@Gu@physx@@QEAAXPEAVIncrementalAABBTreeNode@23@II@Z 00000001801619c0 f   GuIncrementalAABBTree.obj
 0001:001609f0       ?getTreeLeafDepth@IncrementalAABBTree@Gu@physx@@QEAAIPEAVIncrementalAABBTreeNode@23@@Z 00000001801619f0 f   GuIncrementalAABBTree.obj
 0001:00160a10       ?growAndPushBack@?$PxArray@PEAVIncrementalAABBTreeNode@Gu@physx@@V?$PxReflectionAllocator@PEAVIncrementalAABBTreeNode@Gu@physx@@@3@@physx@@IEAAAEAPEAVIncrementalAABBTreeNode@Gu@2@AEBQEAV342@@Z 0000000180161a10 f i GuIncrementalAABBTree.obj
 0001:00160b40       ?growAndPushBack@?$PxArray@PEAXV?$PxReflectionAllocator@UAABBTreeIndices@Gu@physx@@@physx@@@physx@@IEAAAEAPEAXAEBQEAX@Z 0000000180161b40 f i GuIncrementalAABBTree.obj
 0001:00160c00       ?growAndPushBack@?$PxArray@PEAXV?$PxReflectionAllocator@UIncrementalAABBTreeNodePair@Gu@physx@@@physx@@@physx@@IEAAAEAPEAXAEBQEAX@Z 0000000180161c00 f i GuIncrementalAABBTree.obj
 0001:00160cc0       ?hierarchyCheck@IncrementalAABBTree@Gu@physx@@QEAAXIPEBVPxBounds3@3@@Z 0000000180161cc0 f   GuIncrementalAABBTree.obj
 0001:00160e10       ?hierarchyCheck@IncrementalAABBTree@Gu@physx@@QEAAXPEBVPxBounds3@3@@Z 0000000180161e10 f   GuIncrementalAABBTree.obj
 0001:00160f80       ?insert@IncrementalAABBTree@Gu@physx@@QEAAPEAVIncrementalAABBTreeNode@23@IPEBVPxBounds3@3@AEAV?$PxArray@PEAVIncrementalAABBTreeNode@Gu@physx@@V?$PxReflectionAllocator@PEAVIncrementalAABBTreeNode@Gu@physx@@@3@@3@@Z 0000000180161f80 f   GuIncrementalAABBTree.obj
 0001:00161660       ?recreate@?$PxArray@PEAXV?$PxReflectionAllocator@UAABBTreeIndices@Gu@physx@@@physx@@@physx@@IEAAXI@Z 0000000180162660 f i GuIncrementalAABBTree.obj
 0001:00161700       ?recreate@?$PxArray@PEAXV?$PxReflectionAllocator@UIncrementalAABBTreeNodePair@Gu@physx@@@physx@@@physx@@IEAAXI@Z 0000000180162700 f i GuIncrementalAABBTree.obj
 0001:001617a0       ?release@IncrementalAABBTree@Gu@physx@@QEAAXXZ 00000001801627a0 f   GuIncrementalAABBTree.obj
 0001:001617d0       ?releaseNode@IncrementalAABBTree@Gu@physx@@AEAAXPEAVIncrementalAABBTreeNode@23@@Z 00000001801627d0 f   GuIncrementalAABBTree.obj
 0001:00161860       ?remove@IncrementalAABBTree@Gu@physx@@QEAAPEAVIncrementalAABBTreeNode@23@PEAV423@IPEBVPxBounds3@3@@Z 0000000180162860 f   GuIncrementalAABBTree.obj
 0001:00161b80       ?rotateTree@IncrementalAABBTree@Gu@physx@@AEAAXPEAVIncrementalAABBTreeNode@23@AEAV?$PxArray@PEAVIncrementalAABBTreeNode@Gu@physx@@V?$PxReflectionAllocator@PEAVIncrementalAABBTreeNode@Gu@physx@@@3@@3@IPEBVPxBounds3@3@_N@Z 0000000180162b80 f   GuIncrementalAABBTree.obj
 0001:001624e0       ?shiftOrigin@IncrementalAABBTree@Gu@physx@@QEAAXAEBV?$PxVec3T@M@3@@Z 00000001801634e0 f   GuIncrementalAABBTree.obj
 0001:00162540       ?splitLeafNode@IncrementalAABBTree@Gu@physx@@AEAAPEAVIncrementalAABBTreeNode@23@PEAV423@IAEBT__m128@@1PEBVPxBounds3@3@@Z 0000000180163540 f   GuIncrementalAABBTree.obj
 0001:00162830       ?update@IncrementalAABBTree@Gu@physx@@QEAAPEAVIncrementalAABBTreeNode@23@PEAV423@IPEBVPxBounds3@3@AEAV?$PxArray@PEAVIncrementalAABBTreeNode@Gu@physx@@V?$PxReflectionAllocator@PEAVIncrementalAABBTreeNode@Gu@physx@@@3@@3@@Z 0000000180163830 f   GuIncrementalAABBTree.obj
 0001:001628f0       ?updateFast@IncrementalAABBTree@Gu@physx@@QEAAPEAVIncrementalAABBTreeNode@23@PEAV423@IPEBVPxBounds3@3@AEAV?$PxArray@PEAVIncrementalAABBTreeNode@Gu@physx@@V?$PxReflectionAllocator@PEAVIncrementalAABBTreeNode@Gu@physx@@@3@@3@@Z 00000001801638f0 f   GuIncrementalAABBTree.obj
 0001:00162b10       ??0SAH_Buffers@Gu@physx@@QEAA@I@Z 0000000180163b10 f   GuSAH.obj
 0001:00162c20       ??1SAH_Buffers@Gu@physx@@QEAA@XZ 0000000180163c20 f   GuSAH.obj
 0001:00162cf0       ?split@SAH_Buffers@Gu@physx@@QEAA_NAEAIIPEIBIPEIBVPxBounds3@3@PEIBV?$PxVec3T@M@3@@Z 0000000180163cf0 f   GuSAH.obj
 0001:001633d0       ??0BVH@Gu@physx@@QEAA@AEBUPxBVHInternalData@2@@Z 00000001801643d0 f   GuBVH.obj
 0001:00163490       ??0BVH@Gu@physx@@QEAA@PEAVMeshFactory@12@@Z 0000000180164490 f   GuBVH.obj
 0001:00163500       ??0BVH@Gu@physx@@QEAA@PEAVMeshFactory@12@AEAVBVHData@12@@Z 0000000180164500 f   GuBVH.obj
 0001:001635b0       ??1BVHData@Gu@physx@@QEAA@XZ 00000001801645b0 f i GuBVH.obj
 0001:00166ee0       ??_EBVH@Gu@physx@@WBA@EAAPEAXI@Z 0000000180167ee0 f i GuBVH.obj
 0001:00166ef0       ??_EBVH@Gu@physx@@UEAAPEAXI@Z 0000000180167ef0 f i GuBVH.obj
 0001:00166ef0       ??_GBVH@Gu@physx@@UEAAPEAXI@Z 0000000180167ef0 f i GuBVH.obj
 0001:00166f80       ??_ERefCountable@Cm@physx@@UEAAPEAXI@Z 0000000180167f80 f i GuBVH.obj
 0001:00166f80       ??_GRefCountable@Cm@physx@@UEAAPEAXI@Z 0000000180167f80 f i GuBVH.obj
 0001:001671b0       ?allocate@?$PxArray@PEBUBVHNode@Gu@physx@@V?$PxInlineAllocator@$0IAA@V?$PxReflectionAllocator@PEBUBVHNode@Gu@physx@@@physx@@@3@@physx@@IEAAPEAPEBUBVHNode@Gu@2@I@Z 00000001801681b0 f i GuBVH.obj
 0001:00167270       ?build@BVHData@Gu@physx@@QEAA_NIPEBXIMIW4BVHBuildStrategy@23@@Z 0000000180168270 f   GuBVH.obj
 0001:00167670       ?cull@BVH@Gu@physx@@UEBA_NIPEBVPxPlane@3@AEAUOverlapCallback@PxBVH@3@V?$PxFlags@W4Enum@PxGeometryQueryFlag@physx@@I@3@@Z 0000000180168670 f   GuBVH.obj
 0001:00167fd0       ?getConcreteTypeName@PxBVH@physx@@UEBAPEBDXZ 0000000180168fd0 f i GuBVH.obj
 0001:00167fe0       ?init@BVH@Gu@physx@@QEAA_NIPEAVAABBTreeBounds@23@PEBXIW4BVHBuildStrategy@23@IM@Z 0000000180168fe0 f   GuBVH.obj
 0001:001683f0       ?isKindOf@PxBVH@physx@@MEBA_NPEBD@Z 00000001801693f0 f i GuBVH.obj
 0001:00168440       ?load@BVH@Gu@physx@@QEAA_NAEAVPxInputStream@3@@Z 0000000180169440 f   GuBVH.obj
 0001:001685d0       ?onRefCountZero@BVH@Gu@physx@@UEAAXXZ 00000001801695d0 f   GuBVH.obj
 0001:001686b0       ?onRefCountZero@RefCountable@Cm@physx@@UEAAXXZ 00000001801696b0 f i GuBVH.obj
 0001:001686d0       ?overlap@BVH@Gu@physx@@QEBA_NAEBVShapeData@23@AEAUOverlapCallback@PxBVH@3@V?$PxFlags@W4Enum@PxGeometryQueryFlag@physx@@I@3@@Z 00000001801696d0 f   GuBVH.obj
 0001:00168f00       ?overlap@BVH@Gu@physx@@UEBA_NAEBVPxGeometry@3@AEBV?$PxTransformT@M@3@AEAUOverlapCallback@PxBVH@3@V?$PxFlags@W4Enum@PxGeometryQueryFlag@physx@@I@3@@Z 0000000180169f00 f   GuBVH.obj
 0001:00168f60       ?partialRefit@BVH@Gu@physx@@UEAAXXZ 0000000180169f60 f   GuBVH.obj
 0001:00168f70       ?raycast@BVH@Gu@physx@@UEBA_NAEBV?$PxVec3T@M@3@0MAEAURaycastCallback@PxBVH@3@V?$PxFlags@W4Enum@PxGeometryQueryFlag@physx@@I@3@@Z 0000000180169f70 f   GuBVH.obj
 0001:001690a0       ?recreate@?$PxArray@PEBUBVHNode@Gu@physx@@V?$PxInlineAllocator@$0IAA@V?$PxReflectionAllocator@PEBUBVHNode@Gu@physx@@@physx@@@3@@physx@@IEAAXI@Z 000000018016a0a0 f i GuBVH.obj
 0001:00169160       ?refit@BVH@Gu@physx@@UEAAXXZ 000000018016a160 f   GuBVH.obj
 0001:00169170       ?release@BVH@Gu@physx@@UEAAXXZ 000000018016a170 f   GuBVH.obj
 0001:001691a0       ?resizeUninitialized@?$PxArray@PEBUBVHNode@Gu@physx@@V?$PxInlineAllocator@$0IAA@V?$PxReflectionAllocator@PEBUBVHNode@Gu@physx@@@physx@@@3@@physx@@QEAAXI@Z 000000018016a1a0 f i GuBVH.obj
 0001:001691f0       ?save@BVHData@Gu@physx@@QEBA_NAEAVPxOutputStream@3@_N@Z 000000018016a1f0 f   GuBVH.obj
 0001:00169360       ?sweep@BVH@Gu@physx@@QEBA_NAEBVShapeData@23@AEBV?$PxVec3T@M@3@MAEAURaycastCallback@PxBVH@3@V?$PxFlags@W4Enum@PxGeometryQueryFlag@physx@@I@3@@Z 000000018016a360 f   GuBVH.obj
 0001:00169550       ?sweep@BVH@Gu@physx@@UEBA_NAEBVPxGeometry@3@AEBV?$PxTransformT@M@3@AEBV?$PxVec3T@M@3@MAEAURaycastCallback@PxBVH@3@V?$PxFlags@W4Enum@PxGeometryQueryFlag@physx@@I@3@@Z 000000018016a550 f   GuBVH.obj
 0001:001695d0       ?traverse@BVH@Gu@physx@@UEBA_NAEAUTraversalCallback@PxBVH@3@@Z 000000018016a5d0 f   GuBVH.obj
 0001:00169760       ?updateBounds@BVH@Gu@physx@@UEAA_NIAEBVPxBounds3@3@@Z 000000018016a760 f   GuBVH.obj
 0001:00169810       ?updateBoundsInternal@BVH@Gu@physx@@QEAA_NIAEBVPxBounds3@3@@Z 000000018016a810 f   GuBVH.obj
 0001:001698c0       PxFindOverlap              000000018016a8c0 f   GuBVH.obj
 0001:001699b0       PxGetBVHInternalData       000000018016a9b0 f   GuBVH.obj
 0001:001699f0       ??0IncrementalAABBPrunerCore@Gu@physx@@QEAA@PEBVPruningPool@12@@Z 000000018016a9f0 f   GuIncrementalAABBPrunerCore.obj
 0001:00169b00       ??1IncrementalAABBPrunerCore@Gu@physx@@QEAA@XZ 000000018016ab00 f   GuIncrementalAABBPrunerCore.obj
 0001:00169c70       ??R?$AABBTreeOverlap@$00U?$OBBAABBTests@$00@Gu@physx@@VIncrementalAABBTree@23@VIncrementalAABBTreeNode@23@UOverlapCallbackAdapter@23@@Gu@physx@@QEAA_NAEBVAABBTreeBounds@12@AEBVIncrementalAABBTree@12@AEBU?$OBBAABBTests@$00@12@AEAUOverlapCallbackAdapter@12@@Z 000000018016ac70 f i GuIncrementalAABBPrunerCore.obj
 0001:0016a220       ??R?$AABBTreeOverlap@$00UAABBAABBTest@Gu@physx@@VIncrementalAABBTree@23@VIncrementalAABBTreeNode@23@UOverlapCallbackAdapter@23@@Gu@physx@@QEAA_NAEBVAABBTreeBounds@12@AEBVIncrementalAABBTree@12@AEBUAABBAABBTest@12@AEAUOverlapCallbackAdapter@12@@Z 000000018016b220 f i GuIncrementalAABBPrunerCore.obj
 0001:0016a4a0       ??R?$AABBTreeOverlap@$00UCapsuleAABBTest@Gu@physx@@VIncrementalAABBTree@23@VIncrementalAABBTreeNode@23@UOverlapCallbackAdapter@23@@Gu@physx@@QEAA_NAEBVAABBTreeBounds@12@AEBVIncrementalAABBTree@12@AEBUCapsuleAABBTest@12@AEAUOverlapCallbackAdapter@12@@Z 000000018016b4a0 f i GuIncrementalAABBPrunerCore.obj
 0001:0016a800       ??R?$AABBTreeRaycast@$00$00VIncrementalAABBTree@Gu@physx@@VIncrementalAABBTreeNode@23@URaycastCallbackAdapter@23@@Gu@physx@@QEAA_NAEBVAABBTreeBounds@12@AEBVIncrementalAABBTree@12@AEBV?$PxVec3T@M@2@2AEAM2AEAURaycastCallbackAdapter@12@@Z 000000018016b800 f i GuIncrementalAABBPrunerCore.obj
 0001:0016aee0       ??R?$AABBTreeRaycast@$0A@$00VIncrementalAABBTree@Gu@physx@@VIncrementalAABBTreeNode@23@URaycastCallbackAdapter@23@@Gu@physx@@QEAA_NAEBVAABBTreeBounds@12@AEBVIncrementalAABBTree@12@AEBV?$PxVec3T@M@2@2AEAM2AEAURaycastCallbackAdapter@12@@Z 000000018016bee0 f i GuIncrementalAABBPrunerCore.obj
 0001:0016b550       ?addObject@IncrementalAABBPrunerCore@Gu@physx@@QEAA_NII@Z 000000018016c550 f   GuIncrementalAABBPrunerCore.obj
 0001:0016b640       ?allocate@?$PxArray@PEBVIncrementalAABBTreeNode@Gu@physx@@V?$PxInlineAllocator@$0IAA@V?$PxReflectionAllocator@PEBVIncrementalAABBTreeNode@Gu@physx@@@physx@@@3@@physx@@IEAAPEAPEBVIncrementalAABBTreeNode@Gu@2@I@Z 000000018016c640 f i GuIncrementalAABBPrunerCore.obj
 0001:0016b700       ?clear@?$PxHashMapBase@IPEAVIncrementalAABBTreeNode@Gu@physx@@U?$PxHash@I@3@VPxAllocator@3@@physx@@QEAAXXZ 000000018016c700 f i GuIncrementalAABBPrunerCore.obj
 0001:0016b700       ?clear@?$PxHashMapBase@UPrunerPayload@Gu@physx@@UExtendedBucketPrunerData@23@UExtendedBucketPrunerHash@23@VPxAllocator@3@@physx@@QEAAXXZ 000000018016c700 f i GuExtendedBucketPruner.obj
 0001:0016b790       ?create@?$PxHashBase@V?$PxPair@$$CBIPEAVIncrementalAABBTreeNode@Gu@physx@@@physx@@IU?$PxHash@I@2@UGetKey@?$PxHashMapBase@IPEAVIncrementalAABBTreeNode@Gu@physx@@U?$PxHash@I@3@VPxAllocator@3@@2@VPxAllocator@2@$00@physx@@QEAAPEAV?$PxPair@$$CBIPEAVIncrementalAABBTreeNode@Gu@physx@@@2@AEBIAEA_N@Z 000000018016c790 f i GuIncrementalAABBPrunerCore.obj
 0001:0016b8e0       ?erase@?$PxHashBase@V?$PxPair@$$CBIPEAVIncrementalAABBTreeNode@Gu@physx@@@physx@@IU?$PxHash@I@2@UGetKey@?$PxHashMapBase@IPEAVIncrementalAABBTreeNode@Gu@physx@@U?$PxHash@I@3@VPxAllocator@3@@2@VPxAllocator@2@$00@physx@@QEAA_NAEBIAEAV?$PxPair@$$CBIPEAVIncrementalAABBTreeNode@Gu@physx@@@2@@Z 000000018016c8e0 f i GuIncrementalAABBPrunerCore.obj
 0001:0016ba50       ?getCurrentWorldBoxes@PruningPool@Gu@physx@@QEAAPEAVPxBounds3@3@XZ 000000018016ca50 f i GuIncrementalAABBPrunerCore.obj
 0001:0016ba50       ?getCurrentWorldBoxes@PruningPool@Gu@physx@@QEBAPEBVPxBounds3@3@XZ 000000018016ca50 f i GuIncrementalAABBPrunerCore.obj
 0001:0016ba50       ?getMesh@CollisionTetrahedronMeshData@Gu@physx@@UEAAPEAVPxTetrahedronMeshData@3@XZ 000000018016ca50 f i GuCookingTetrahedronMesh.obj
 0001:0016ba50       ?getMesh@CollisionTetrahedronMeshData@Gu@physx@@UEBAPEBVPxTetrahedronMeshData@3@XZ 000000018016ca50 f i GuCookingTetrahedronMesh.obj
 0001:0016ba50       ?getMesh@SimulationTetrahedronMeshData@Gu@physx@@UEAAPEAVPxTetrahedronMeshData@3@XZ 000000018016ca50 f i GuCookingTetrahedronMesh.obj
 0001:0016ba60       ?getGlobalBounds@IncrementalAABBPrunerCore@Gu@physx@@QEBAXAEAVPxBounds3@3@@Z 000000018016ca60 f   GuIncrementalAABBPrunerCore.obj
 0001:0016bb90       ?getIndex@PruningPool@Gu@physx@@QEBAII@Z 000000018016cb90 f i GuIncrementalAABBPrunerCore.obj
 0001:0016bba0       ?getPayloadData@PruningPool@Gu@physx@@QEBAAEBUPrunerPayload@23@IPEAUPrunerPayloadData@23@@Z 000000018016cba0 f i GuIncrementalAABBPrunerCore.obj
 0001:0016bbf0       ?overlap@IncrementalAABBPrunerCore@Gu@physx@@QEBA_NAEBVShapeData@23@AEAUPrunerOverlapCallback@23@@Z 000000018016cbf0 f   GuIncrementalAABBPrunerCore.obj
 0001:0016c740       ?raycast@IncrementalAABBPrunerCore@Gu@physx@@QEBA_NAEBV?$PxVec3T@M@3@0AEAMAEAUPrunerRaycastCallback@23@@Z 000000018016d740 f   GuIncrementalAABBPrunerCore.obj
 0001:0016c820       ?recreate@?$PxArray@PEAVIncrementalAABBTreeNode@Gu@physx@@V?$PxReflectionAllocator@PEAVIncrementalAABBTreeNode@Gu@physx@@@3@@physx@@IEAAXI@Z 000000018016d820 f i GuIncrementalAABBPrunerCore.obj
 0001:0016c930       ?recreate@?$PxArray@PEBVIncrementalAABBTreeNode@Gu@physx@@V?$PxInlineAllocator@$0IAA@V?$PxReflectionAllocator@PEBVIncrementalAABBTreeNode@Gu@physx@@@physx@@@3@@physx@@IEAAXI@Z 000000018016d930 f i GuIncrementalAABBPrunerCore.obj
 0001:0016c9f0       ?release@IncrementalAABBPrunerCore@Gu@physx@@QEAAXXZ 000000018016d9f0 f   GuIncrementalAABBPrunerCore.obj
 0001:0016caf0       ?removeMarkedObjects@IncrementalAABBPrunerCore@Gu@physx@@QEAAII@Z 000000018016daf0 f   GuIncrementalAABBPrunerCore.obj
 0001:0016cb50       ?removeObject@IncrementalAABBPrunerCore@Gu@physx@@QEAA_NIIAEAI@Z 000000018016db50 f   GuIncrementalAABBPrunerCore.obj
 0001:0016cd60       ?reserveInternal@?$PxHashBase@V?$PxPair@$$CBIPEAVIncrementalAABBTreeNode@Gu@physx@@@physx@@IU?$PxHash@I@2@UGetKey@?$PxHashMapBase@IPEAVIncrementalAABBTreeNode@Gu@physx@@U?$PxHash@I@3@VPxAllocator@3@@2@VPxAllocator@2@$00@physx@@AEAAXI@Z 000000018016dd60 f i GuIncrementalAABBPrunerCore.obj
 0001:0016cf20       ?resizeUninitialized@?$PxArray@PEBVIncrementalAABBTreeNode@Gu@physx@@V?$PxInlineAllocator@$0IAA@V?$PxReflectionAllocator@PEBVIncrementalAABBTreeNode@Gu@physx@@@physx@@@3@@physx@@QEAAXI@Z 000000018016df20 f i GuIncrementalAABBPrunerCore.obj
 0001:0016cf70       ?setTransform@PruningPool@Gu@physx@@QEAA_NIAEBV?$PxTransformT@M@3@@Z 000000018016df70 f i GuIncrementalAABBPrunerCore.obj
 0001:0016cfd0       ?shiftOrigin@IncrementalAABBPrunerCore@Gu@physx@@QEAAXAEBV?$PxVec3T@M@3@@Z 000000018016dfd0 f   GuIncrementalAABBPrunerCore.obj
 0001:0016d020       ?swapIndex@IncrementalAABBPrunerCore@Gu@physx@@QEAAXII@Z 000000018016e020 f   GuIncrementalAABBPrunerCore.obj
 0001:0016d100       ?sweep@IncrementalAABBPrunerCore@Gu@physx@@QEBA_NAEBVShapeData@23@AEBV?$PxVec3T@M@3@AEAMAEAUPrunerRaycastCallback@23@@Z 000000018016e100 f   GuIncrementalAABBPrunerCore.obj
 0001:0016d2b0       ?updateMapping@IncrementalAABBPrunerCore@Gu@physx@@AEAAXAEAV?$PxHashMap@IPEAVIncrementalAABBTreeNode@Gu@physx@@U?$PxHash@I@3@VPxAllocator@3@@3@IPEAVIncrementalAABBTreeNode@23@@Z 000000018016e2b0 f   GuIncrementalAABBPrunerCore.obj
 0001:0016d400       ?updateObject@IncrementalAABBPrunerCore@Gu@physx@@QEAA_NI@Z 000000018016e400 f   GuIncrementalAABBPrunerCore.obj
 0001:0016d5a0       ?visualize@IncrementalAABBPrunerCore@Gu@physx@@QEBAXAEAVPxRenderOutput@3@I@Z 000000018016e5a0 f   GuIncrementalAABBPrunerCore.obj
 0001:0016d600       ??0IncrementalAABBPruner@Gu@physx@@QEAA@I_K@Z 000000018016e600 f   GuIncrementalAABBPruner.obj
 0001:0016d6b0       ??R?$AABBTreeOverlap@$00USphereAABBTest@Gu@physx@@VIncrementalAABBTree@23@VIncrementalAABBTreeNode@23@UOverlapCallbackAdapter@23@@Gu@physx@@QEAA_NAEBVAABBTreeBounds@12@AEBVIncrementalAABBTree@12@AEBUSphereAABBTest@12@AEAUOverlapCallbackAdapter@12@@Z 000000018016e6b0 f i GuIncrementalAABBPruner.obj
 0001:0016d9a0       ??_EBasePruner@Gu@physx@@UEAAPEAXI@Z 000000018016e9a0 f i GuIncrementalAABBPruner.obj
 0001:0016d9a0       ??_GBasePruner@Gu@physx@@UEAAPEAXI@Z 000000018016e9a0 f i GuIncrementalAABBPruner.obj
 0001:0016d9f0       ??_EIncrementalAABBPruner@Gu@physx@@UEAAPEAXI@Z 000000018016e9f0 f i GuIncrementalAABBPruner.obj
 0001:0016d9f0       ??_GIncrementalAABBPruner@Gu@physx@@UEAAPEAXI@Z 000000018016e9f0 f i GuIncrementalAABBPruner.obj
 0001:0016db00       ?addObjects@IncrementalAABBPruner@Gu@physx@@UEAA_NPEAIPEBVPxBounds3@3@PEBUPrunerPayload@23@PEBV?$PxTransformT@M@3@I_N@Z 000000018016eb00 f   GuIncrementalAABBPruner.obj
 0001:0016dc80       ?commit@IncrementalAABBPruner@Gu@physx@@UEAAXXZ 000000018016ec80 f   GuIncrementalAABBPruner.obj
 0001:0016de50       ?getGlobalBounds@IncrementalAABBPruner@Gu@physx@@UEBAXAEAVPxBounds3@3@@Z 000000018016ee50 f   GuIncrementalAABBPruner.obj
 0001:0016dec0       ?getPayloadData@IncrementalAABBPruner@Gu@physx@@UEBAAEBUPrunerPayload@23@IPEAUPrunerPayloadData@23@@Z 000000018016eec0 f i GuIncrementalAABBPruner.obj
 0001:0016df10       ?overlap@IncrementalAABBPruner@Gu@physx@@UEBA_NAEBVShapeData@23@AEAUPrunerOverlapCallback@23@@Z 000000018016ef10 f   GuIncrementalAABBPruner.obj
 0001:0016e620       ?preallocate@IncrementalAABBPruner@Gu@physx@@UEAAXI@Z 000000018016f620 f i GuIncrementalAABBPruner.obj
 0001:0016e630       ?purge@IncrementalAABBPruner@Gu@physx@@UEAAXXZ 000000018016f630 f   GuIncrementalAABBPruner.obj
 0001:0016e680       ?raycast@IncrementalAABBPruner@Gu@physx@@UEBA_NAEBV?$PxVec3T@M@3@0AEAMAEAUPrunerRaycastCallback@23@@Z 000000018016f680 f   GuIncrementalAABBPruner.obj
 0001:0016e700       ?removeObjects@IncrementalAABBPruner@Gu@physx@@UEAAXPEBIIPEAUPrunerPayloadRemovalCallback@23@@Z 000000018016f700 f   GuIncrementalAABBPruner.obj
 0001:0016e900       ?resize@?$PxArray@PEAVIncrementalAABBTreeNode@Gu@physx@@V?$PxReflectionAllocator@PEAVIncrementalAABBTreeNode@Gu@physx@@@3@@physx@@QEAAXIAEBQEAVIncrementalAABBTreeNode@Gu@2@@Z 000000018016f900 f i GuIncrementalAABBPruner.obj
 0001:0016e9c0       ?resizeUninitialized@?$PxArray@PEAVIncrementalAABBTreeNode@Gu@physx@@V?$PxReflectionAllocator@PEAVIncrementalAABBTreeNode@Gu@physx@@@3@@physx@@QEAAXI@Z 000000018016f9c0 f i GuIncrementalAABBPruner.obj
 0001:0016ea00       ?setTransform@IncrementalAABBPruner@Gu@physx@@UEAA_NIAEBV?$PxTransformT@M@3@@Z 000000018016fa00 f i GuIncrementalAABBPruner.obj
 0001:0016ea60       ?shiftOrigin@IncrementalAABBPruner@Gu@physx@@UEAAXAEBV?$PxVec3T@M@3@@Z 000000018016fa60 f   GuIncrementalAABBPruner.obj
 0001:0016eaa0       ?sweep@IncrementalAABBPruner@Gu@physx@@UEBA_NAEBVShapeData@23@AEBV?$PxVec3T@M@3@AEAMAEAUPrunerRaycastCallback@23@@Z 000000018016faa0 f   GuIncrementalAABBPruner.obj
 0001:0016ebc0       ?updateMapping@IncrementalAABBPruner@Gu@physx@@AEAAXIPEAVIncrementalAABBTreeNode@23@@Z 000000018016fbc0 f   GuIncrementalAABBPruner.obj
 0001:0016ecb0       ?updateObjects@IncrementalAABBPruner@Gu@physx@@UEAAXPEBIIM0PEBVPxBounds3@3@PEBUPxTransformPadded@3@@Z 000000018016fcb0 f   GuIncrementalAABBPruner.obj
 0001:0016ee70       ?visualize@IncrementalAABBPruner@Gu@physx@@UEBAXAEAVPxRenderOutput@3@II@Z 000000018016fe70 f   GuIncrementalAABBPruner.obj
 0001:0016f060       ??0PruningPool@Gu@physx@@QEAA@_KW4TransformCacheMode@12@@Z 0000000180170060 f   GuPruningPool.obj
 0001:0016f090       ??1PruningPool@Gu@physx@@QEAA@XZ 0000000180170090 f   GuPruningPool.obj
 0001:0016f160       ?addObjects@PruningPool@Gu@physx@@QEAAIPEAIPEBVPxBounds3@3@PEBUPrunerPayload@23@PEBV?$PxTransformT@M@3@I@Z 0000000180170160 f   GuPruningPool.obj
 0001:0016f3e0       ?preallocate@PruningPool@Gu@physx@@QEAAXI@Z 00000001801703e0 f   GuPruningPool.obj
 0001:0016f3f0       ?removeObject@PruningPool@Gu@physx@@QEAAIIPEAUPrunerPayloadRemovalCallback@23@@Z 00000001801703f0 f   GuPruningPool.obj
 0001:0016f5c0       ?resize@PruningPool@Gu@physx@@QEAA_NI@Z 00000001801705c0 f   GuPruningPool.obj
 0001:0016f960       ?shiftOrigin@PruningPool@Gu@physx@@QEAAXAEBV?$PxVec3T@M@3@@Z 0000000180170960 f   GuPruningPool.obj
 0001:0016fdb0       ?updateAndInflateBounds@PruningPool@Gu@physx@@QEAAXPEBI0PEBVPxBounds3@3@PEBUPxTransformPadded@3@IM@Z 0000000180170db0 f   GuPruningPool.obj
 0001:001718c0       ??0BucketPruner@Gu@physx@@QEAA@_K@Z 00000001801728c0 f   GuBucketPruner.obj
 0001:00171910       ??0BucketPrunerCore@Gu@physx@@QEAA@_N@Z 0000000180172910 f   GuBucketPruner.obj
 0001:00171c90       ??1BucketPrunerCore@Gu@physx@@QEAA@XZ 0000000180172c90 f   GuBucketPruner.obj
 0001:00171cb0       ??R?$BucketPrunerOverlapTraversal@UBucketPrunerAABBAABBTest@@$00@@QEBA_NAEBVBucketPrunerCore@Gu@physx@@AEBUBucketPrunerAABBAABBTest@@AEAUPrunerOverlapCallback@23@AEBVPxBounds3@3@@Z 0000000180172cb0 f i GuBucketPruner.obj
 0001:00172270       ??R?$BucketPrunerOverlapTraversal@UOBBAABBTest_SIMD@@$0A@@@QEBA_NAEBVBucketPrunerCore@Gu@physx@@AEBUOBBAABBTest_SIMD@@AEAUPrunerOverlapCallback@23@AEBVPxBounds3@3@@Z 0000000180173270 f i GuBucketPruner.obj
 0001:00172af0       ??R?$BucketPrunerOverlapTraversal@USphereAABBTest_SIMD@@$00@@QEBA_NAEBVBucketPrunerCore@Gu@physx@@AEBUSphereAABBTest_SIMD@@AEAUPrunerOverlapCallback@23@AEBVPxBounds3@3@@Z 0000000180173af0 f i GuBucketPruner.obj
 0001:001730d0       ??_FBucketPrunerCore@Gu@physx@@QEAAXXZ 00000001801740d0 f i GuBucketPruner.obj
 0001:001730e0       ??_EBucketPruner@Gu@physx@@UEAAPEAXI@Z 00000001801740e0 f i GuBucketPruner.obj
 0001:001730e0       ??_GBucketPruner@Gu@physx@@UEAAPEAXI@Z 00000001801740e0 f i GuBucketPruner.obj
 0001:00173180       ?addObject@BucketPrunerCore@Gu@physx@@QEAA_NAEBUPrunerPayload@23@AEBVPxBounds3@3@AEBV?$PxTransformT@M@3@I@Z 0000000180174180 f   GuBucketPruner.obj
 0001:00173490       ?addObjects@BucketPruner@Gu@physx@@UEAA_NPEAIPEBVPxBounds3@3@PEBUPrunerPayload@23@PEBV?$PxTransformT@M@3@I_N@Z 0000000180174490 f   GuBucketPruner.obj
 0001:00173520       ?addPair@BucketPrunerMap@Gu@physx@@QEAAPEAUBucketPrunerPair@23@AEBUPrunerPayload@23@II@Z 0000000180174520 f   GuBucketPruner.obj
 0001:00173720       ?allocateSortedMemory@BucketPrunerCore@Gu@physx@@AEAAXI@Z 0000000180174720 f   GuBucketPruner.obj
 0001:001738e0       ?classifyBoxes@BucketPrunerCore@Gu@physx@@AEAAXXZ 00000001801748e0 f   GuBucketPruner.obj
 0001:001740d0       ?classifyBoxes@BucketPrunerNode@Gu@physx@@QEAAXMMIPEIAUBucketBox@23@PEIBUPrunerPayload@23@PEIBV?$PxTransformT@M@3@0PEIAU523@PEIAV63@_NI@Z 00000001801750d0 f   GuBucketPruner.obj
 0001:00174950       ?build@CompanionPrunerBucket@@UEAAXXZ 0000000180175950 f   GuSecondaryPruner.obj
 0001:00174950       ?commit@BucketPruner@Gu@physx@@UEAAXXZ 0000000180175950 f   GuBucketPruner.obj
 0001:00174960       ?findPair@BucketPrunerMap@Gu@physx@@QEBAPEBUBucketPrunerPair@23@AEBUPrunerPayload@23@@Z 0000000180175960 f   GuBucketPruner.obj
 0001:00174d50       ?getGlobalBounds@BucketPruner@Gu@physx@@UEBAXAEAVPxBounds3@3@@Z 0000000180175d50 f   GuBucketPruner.obj
 0001:00174dd0       ?getGlobalBounds@BucketPrunerCore@Gu@physx@@QEBAXAEAVPxBounds3@3@@Z 0000000180175dd0 f   GuBucketPruner.obj
 0001:00174e50       ?getPayloadData@BucketPruner@Gu@physx@@UEBAAEBUPrunerPayload@23@IPEAUPrunerPayloadData@23@@Z 0000000180175e50 f i GuBucketPruner.obj
 0001:00174eb0       ?overlap@BucketPruner@Gu@physx@@UEBA_NAEBVShapeData@23@AEAUPrunerOverlapCallback@23@@Z 0000000180175eb0 f   GuBucketPruner.obj
 0001:00174ed0       ?overlap@BucketPrunerCore@Gu@physx@@QEBA_NAEBVShapeData@23@AEAUPrunerOverlapCallback@23@@Z 0000000180175ed0 f   GuBucketPruner.obj
 0001:001751b0       ?preallocate@BucketPruner@Gu@physx@@UEAAXI@Z 00000001801761b0 f i GuBucketPruner.obj
 0001:00175390       ?purge@BucketPrunerMap@Gu@physx@@QEAAXXZ 0000000180176390 f   GuBucketPruner.obj
 0001:00175420       ?raycast@BucketPruner@Gu@physx@@UEBA_NAEBV?$PxVec3T@M@3@0AEAMAEAUPrunerRaycastCallback@23@@Z 0000000180176420 f   GuBucketPruner.obj
 0001:00175470       ?raycast@BucketPrunerCore@Gu@physx@@QEBA_NAEBV?$PxVec3T@M@3@0AEAMAEAUPrunerRaycastCallback@23@@Z 0000000180176470 f   GuBucketPruner.obj
 0001:001754b0       ?reallocPairs@BucketPrunerMap@Gu@physx@@QEAAXXZ 00000001801764b0 f   GuBucketPruner.obj
 0001:001756f0       ?release@BucketPrunerCore@Gu@physx@@QEAAXXZ 00000001801766f0 f   GuBucketPruner.obj
 0001:00175830       ?removeMarkedObjects@BucketPrunerCore@Gu@physx@@QEAAII@Z 0000000180176830 f   GuBucketPruner.obj
 0001:00175c00       ?removeObject@BucketPrunerCore@Gu@physx@@QEAA_NAEBUPrunerPayload@23@AEAI@Z 0000000180176c00 f   GuBucketPruner.obj
 0001:00175ec0       ?removeObjects@BucketPruner@Gu@physx@@UEAAXPEBIIPEAUPrunerPayloadRemovalCallback@23@@Z 0000000180176ec0 f   GuBucketPruner.obj
 0001:00175f70       ?removePair@BucketPrunerMap@Gu@physx@@QEAA_NAEBUPrunerPayload@23@AEAI1@Z 0000000180176f70 f   GuBucketPruner.obj
 0001:001760f0       ?removePairInternal@BucketPrunerMap@Gu@physx@@QEAAXAEBUPrunerPayload@23@II@Z 00000001801770f0 f   GuBucketPruner.obj
 0001:00176280       ?resizeCore@BucketPrunerCore@Gu@physx@@AEAAXXZ 0000000180177280 f   GuBucketPruner.obj
 0001:001764d0       ?setTransform@BucketPruner@Gu@physx@@UEAA_NIAEBV?$PxTransformT@M@3@@Z 00000001801774d0 f i GuBucketPruner.obj
 0001:00176530       ?shiftOrigin@BucketPruner@Gu@physx@@UEAAXAEBV?$PxVec3T@M@3@@Z 0000000180177530 f   GuBucketPruner.obj
 0001:00176530       ?shiftOrigin@CompanionPrunerBucket@@UEAAXAEBV?$PxVec3T@M@physx@@@Z 0000000180177530 f   GuSecondaryPruner.obj
 0001:00176540       ?shiftOrigin@BucketPrunerCore@Gu@physx@@QEAAXAEBV?$PxVec3T@M@3@@Z 0000000180177540 f   GuBucketPruner.obj
 0001:00177370       ?sweep@BucketPruner@Gu@physx@@UEBA_NAEBVShapeData@23@AEBV?$PxVec3T@M@3@AEAMAEAUPrunerRaycastCallback@23@@Z 0000000180178370 f   GuBucketPruner.obj
 0001:00177390       ?sweep@BucketPrunerCore@Gu@physx@@QEBA_NAEBVShapeData@23@AEBV?$PxVec3T@M@3@AEAMAEAUPrunerRaycastCallback@23@@Z 0000000180178390 f   GuBucketPruner.obj
 0001:00177460       ?updateObject@BucketPrunerCore@Gu@physx@@QEAA_NAEBVPxBounds3@3@AEBUPrunerPayload@23@AEBV?$PxTransformT@M@3@@Z 0000000180178460 f   GuBucketPruner.obj
 0001:001774c0       ?updateObjects@BucketPruner@Gu@physx@@UEAAXPEBIIM0PEBVPxBounds3@3@PEBUPxTransformPadded@3@@Z 00000001801784c0 f   GuBucketPruner.obj
 0001:001775d0       ?visualize@BucketPruner@Gu@physx@@UEBAXAEAVPxRenderOutput@3@II@Z 00000001801785d0 f   GuBucketPruner.obj
 0001:001775d0       ?visualize@CompanionPrunerBucket@@UEBAXAEAVPxRenderOutput@physx@@I@Z 00000001801785d0 f   GuSecondaryPruner.obj
 0001:001775e0       ?visualize@BucketPrunerCore@Gu@physx@@QEBAXAEAVPxRenderOutput@3@I@Z 00000001801785e0 f   GuBucketPruner.obj
 0001:00177900       ?addObject@MaverickNode@Gu@physx@@QEAA_NAEBUPrunerPayload@23@IAEBVPxBounds3@3@AEBV?$PxTransformT@M@3@I@Z 0000000180178900 f   GuMaverickNode.obj
 0001:001779e0       ?removeMarkedObjects@MaverickNode@Gu@physx@@QEAAII@Z 00000001801789e0 f   GuMaverickNode.obj
 0001:00177b70       ?removeObject@MaverickNode@Gu@physx@@QEAA_NIAEAI@Z 0000000180178b70 f   GuMaverickNode.obj
 0001:00177d00       ?shiftOrigin@MaverickNode@Gu@physx@@QEAAXAEBV?$PxVec3T@M@3@@Z 0000000180178d00 f   GuMaverickNode.obj
 0001:00177df0       ?updateObject@MaverickNode@Gu@physx@@QEAA_NIAEBVPxBounds3@3@AEBV?$PxTransformT@M@3@@Z 0000000180178df0 f   GuMaverickNode.obj
 0001:00177ed0       ??0ExtendedBucketPruner@Gu@physx@@QEAA@_KW4CompanionPrunerType@12@PEBVPruningPool@12@@Z 0000000180178ed0 f   GuExtendedBucketPruner.obj
 0001:00178100       ??1ExtendedBucketPruner@Gu@physx@@QEAA@XZ 0000000180179100 f   GuExtendedBucketPruner.obj
 0001:00178270       ??R?$AABBTreeOverlap@$00U?$OBBAABBTests@$00@Gu@physx@@VAABBTree@23@UBVHNode@23@U?$MainTreeOverlapPrunerCallback@U?$OBBAABBTests@$00@Gu@physx@@@@@Gu@physx@@QEAA_NAEBVAABBTreeBounds@12@AEBVAABBTree@12@AEBU?$OBBAABBTests@$00@12@AEAU?$MainTreeOverlapPrunerCallback@U?$OBBAABBTests@$00@Gu@physx@@@@@Z 0000000180179270 f i GuExtendedBucketPruner.obj
 0001:00178860       ??R?$AABBTreeOverlap@$00U?$OBBAABBTests@$00@Gu@physx@@VAABBTree@23@UBVHNode@23@UOverlapCallbackAdapter@23@@Gu@physx@@QEAA_NAEBVAABBTreeBounds@12@AEBVAABBTree@12@AEBU?$OBBAABBTests@$00@12@AEAUOverlapCallbackAdapter@12@@Z 0000000180179860 f i GuExtendedBucketPruner.obj
 0001:00178e30       ??R?$AABBTreeOverlap@$00UAABBAABBTest@Gu@physx@@VAABBTree@23@UBVHNode@23@U?$MainTreeOverlapPrunerCallback@UAABBAABBTest@Gu@physx@@@@@Gu@physx@@QEAA_NAEBVAABBTreeBounds@12@AEBVAABBTree@12@AEBUAABBAABBTest@12@AEAU?$MainTreeOverlapPrunerCallback@UAABBAABBTest@Gu@physx@@@@@Z 0000000180179e30 f i GuExtendedBucketPruner.obj
 0001:001790f0       ??R?$AABBTreeOverlap@$00UAABBAABBTest@Gu@physx@@VAABBTree@23@UBVHNode@23@UOverlapCallbackAdapter@23@@Gu@physx@@QEAA_NAEBVAABBTreeBounds@12@AEBVAABBTree@12@AEBUAABBAABBTest@12@AEAUOverlapCallbackAdapter@12@@Z 000000018017a0f0 f i GuExtendedBucketPruner.obj
 0001:00179390       ??R?$AABBTreeOverlap@$00UCapsuleAABBTest@Gu@physx@@VAABBTree@23@UBVHNode@23@U?$MainTreeOverlapPrunerCallback@UCapsuleAABBTest@Gu@physx@@@@@Gu@physx@@QEAA_NAEBVAABBTreeBounds@12@AEBVAABBTree@12@AEBUCapsuleAABBTest@12@AEAU?$MainTreeOverlapPrunerCallback@UCapsuleAABBTest@Gu@physx@@@@@Z 000000018017a390 f i GuExtendedBucketPruner.obj
 0001:00179750       ??R?$AABBTreeOverlap@$00UCapsuleAABBTest@Gu@physx@@VAABBTree@23@UBVHNode@23@UOverlapCallbackAdapter@23@@Gu@physx@@QEAA_NAEBVAABBTreeBounds@12@AEBVAABBTree@12@AEBUCapsuleAABBTest@12@AEAUOverlapCallbackAdapter@12@@Z 000000018017a750 f i GuExtendedBucketPruner.obj
 0001:00179b00       ??R?$AABBTreeOverlap@$00USphereAABBTest@Gu@physx@@VAABBTree@23@UBVHNode@23@U?$MainTreeOverlapPrunerCallback@USphereAABBTest@Gu@physx@@@@@Gu@physx@@QEAA_NAEBVAABBTreeBounds@12@AEBVAABBTree@12@AEBUSphereAABBTest@12@AEAU?$MainTreeOverlapPrunerCallback@USphereAABBTest@Gu@physx@@@@@Z 000000018017ab00 f i GuExtendedBucketPruner.obj
 0001:00179e20       ??R?$AABBTreeOverlap@$00USphereAABBTest@Gu@physx@@VAABBTree@23@UBVHNode@23@UOverlapCallbackAdapter@23@@Gu@physx@@QEAA_NAEBVAABBTreeBounds@12@AEBVAABBTree@12@AEBUSphereAABBTest@12@AEAUOverlapCallbackAdapter@12@@Z 000000018017ae20 f i GuExtendedBucketPruner.obj
 0001:0017a120       ??R?$AABBTreeRaycast@$00$00VAABBTree@Gu@physx@@UBVHNode@23@U?$MainTreeRaycastPrunerCallback@$00@@@Gu@physx@@QEAA_NAEBVAABBTreeBounds@12@AEBVAABBTree@12@AEBV?$PxVec3T@M@2@2AEAM2AEAU?$MainTreeRaycastPrunerCallback@$00@@@Z 000000018017b120 f i GuExtendedBucketPruner.obj
 0001:0017a860       ??R?$AABBTreeRaycast@$00$00VAABBTree@Gu@physx@@UBVHNode@23@URaycastCallbackAdapter@23@@Gu@physx@@QEAA_NAEBVAABBTreeBounds@12@AEBVAABBTree@12@AEBV?$PxVec3T@M@2@2AEAM2AEAURaycastCallbackAdapter@12@@Z 000000018017b860 f i GuExtendedBucketPruner.obj
 0001:0017af60       ??R?$AABBTreeRaycast@$0A@$00VAABBTree@Gu@physx@@UBVHNode@23@U?$MainTreeRaycastPrunerCallback@$0A@@@@Gu@physx@@QEAA_NAEBVAABBTreeBounds@12@AEBVAABBTree@12@AEBV?$PxVec3T@M@2@2AEAM2AEAU?$MainTreeRaycastPrunerCallback@$0A@@@@Z 000000018017bf60 f i GuExtendedBucketPruner.obj
 0001:0017b630       ??R?$AABBTreeRaycast@$0A@$00VAABBTree@Gu@physx@@UBVHNode@23@URaycastCallbackAdapter@23@@Gu@physx@@QEAA_NAEBVAABBTreeBounds@12@AEBVAABBTree@12@AEBV?$PxVec3T@M@2@2AEAM2AEAURaycastCallbackAdapter@12@@Z 000000018017c630 f i GuExtendedBucketPruner.obj
 0001:0017bcc0       ?addTree@ExtendedBucketPruner@Gu@physx@@QEAAXAEBVAABBTreeMergeData@23@I@Z 000000018017ccc0 f   GuExtendedBucketPruner.obj
 0001:0017bf90       ?buildMainAABBTree@ExtendedBucketPruner@Gu@physx@@AEAAXXZ 000000018017cf90 f   GuExtendedBucketPruner.obj
 0001:0017c040       ?create@?$PxHashBase@V?$PxPair@$$CBUPrunerPayload@Gu@physx@@UExtendedBucketPrunerData@23@@physx@@UPrunerPayload@Gu@2@UExtendedBucketPrunerHash@42@UGetKey@?$PxHashMapBase@UPrunerPayload@Gu@physx@@UExtendedBucketPrunerData@23@UExtendedBucketPrunerHash@23@VPxAllocator@3@@2@VPxAllocator@2@$00@physx@@QEAAPEAV?$PxPair@$$CBUPrunerPayload@Gu@physx@@UExtendedBucketPrunerData@23@@2@AEBUPrunerPayload@Gu@2@AEA_N@Z 000000018017d040 f i GuExtendedBucketPruner.obj
 0001:0017c210       ?eraseInternal@?$PxHashBase@V?$PxPair@$$CBUPrunerPayload@Gu@physx@@UExtendedBucketPrunerData@23@@physx@@UPrunerPayload@Gu@2@UExtendedBucketPrunerHash@42@UGetKey@?$PxHashMapBase@UPrunerPayload@Gu@physx@@UExtendedBucketPrunerData@23@UExtendedBucketPrunerHash@23@VPxAllocator@3@@2@VPxAllocator@2@$00@physx@@AEAA_NPEAI@Z 000000018017d210 f i GuExtendedBucketPruner.obj
 0001:0017c330       ?find@?$PxHashMapBase@UPrunerPayload@Gu@physx@@UExtendedBucketPrunerData@23@UExtendedBucketPrunerHash@23@VPxAllocator@3@@physx@@QEBAPEBV?$PxPair@$$CBUPrunerPayload@Gu@physx@@UExtendedBucketPrunerData@23@@2@AEBUPrunerPayload@Gu@2@@Z 000000018017d330 f i GuExtendedBucketPruner.obj
 0001:0017c420       ?getGlobalBounds@ExtendedBucketPruner@Gu@physx@@QEBAXAEAVPxBounds3@3@@Z 000000018017d420 f   GuExtendedBucketPruner.obj
 0001:0017c4f0       ?invalidateObject@ExtendedBucketPruner@Gu@physx@@AEAAXAEBUExtendedBucketPrunerData@23@IAEBUPrunerPayload@23@I@Z 000000018017d4f0 f   GuExtendedBucketPruner.obj
 0001:0017c630       ?overlap@ExtendedBucketPruner@Gu@physx@@QEBA_NAEBVShapeData@23@AEAUPrunerOverlapCallback@23@@Z 000000018017d630 f   GuExtendedBucketPruner.obj
 0001:0017ce10       ?raycast@ExtendedBucketPruner@Gu@physx@@QEBA_NAEBV?$PxVec3T@M@3@0AEAMAEAUPrunerRaycastCallback@23@@Z 000000018017de10 f   GuExtendedBucketPruner.obj
 0001:0017cef0       ?refitMarkedNodes@ExtendedBucketPruner@Gu@physx@@QEAAXPEBVPxBounds3@3@@Z 000000018017def0 f   GuExtendedBucketPruner.obj
 0001:0017d470       ?release@ExtendedBucketPruner@Gu@physx@@QEAAXXZ 000000018017e470 f   GuExtendedBucketPruner.obj
 0001:0017d540       ?removeMarkedObjects@ExtendedBucketPruner@Gu@physx@@QEAAII@Z 000000018017e540 f   GuExtendedBucketPruner.obj
 0001:0017d860       ?removeObject@ExtendedBucketPruner@Gu@physx@@QEAA_NAEBUPrunerPayload@23@II0I@Z 000000018017e860 f   GuExtendedBucketPruner.obj
 0001:0017da50       ?reserveInternal@?$PxHashBase@V?$PxPair@$$CBUPrunerPayload@Gu@physx@@UExtendedBucketPrunerData@23@@physx@@UPrunerPayload@Gu@2@UExtendedBucketPrunerHash@42@UGetKey@?$PxHashMapBase@UPrunerPayload@Gu@physx@@UExtendedBucketPrunerData@23@UExtendedBucketPrunerHash@23@VPxAllocator@3@@2@VPxAllocator@2@$00@physx@@AEAAXI@Z 000000018017ea50 f i GuExtendedBucketPruner.obj
 0001:0017dc50       ?shiftOrigin@ExtendedBucketPruner@Gu@physx@@QEAAXAEBV?$PxVec3T@M@3@@Z 000000018017ec50 f   GuExtendedBucketPruner.obj
 0001:0017dcd0       ?swapIndex@ExtendedBucketPruner@Gu@physx@@QEAAXIAEBUPrunerPayload@23@I_N@Z 000000018017ecd0 f   GuExtendedBucketPruner.obj
 0001:0017dda0       ?sweep@ExtendedBucketPruner@Gu@physx@@QEBA_NAEBVShapeData@23@AEBV?$PxVec3T@M@3@AEAMAEAUPrunerRaycastCallback@23@@Z 000000018017eda0 f   GuExtendedBucketPruner.obj
 0001:0017df30       ?updateObject@ExtendedBucketPruner@Gu@physx@@QEAA_NAEBVPxBounds3@3@AEBV?$PxTransformT@M@3@AEBUPrunerPayload@23@II@Z 000000018017ef30 f   GuExtendedBucketPruner.obj
 0001:0017e000       ?visualize@ExtendedBucketPruner@Gu@physx@@QEBAXAEAVPxRenderOutput@3@I@Z 000000018017f000 f   GuExtendedBucketPruner.obj
 0001:0017e090       ??0?$OBBAABBTests@$00@Gu@physx@@QEAA@AEBV?$PxVec3T@M@2@AEBV?$PxMat33T@M@2@0@Z 000000018017f090 f i GuSecondaryPruner.obj
 0001:00180070       ??_ECompanionPruner@Gu@physx@@UEAAPEAXI@Z 0000000180181070 f i GuSecondaryPruner.obj
 0001:00180070       ??_GCompanionPruner@Gu@physx@@UEAAPEAXI@Z 0000000180181070 f i GuSecondaryPruner.obj
 0001:001800c0       ??_ECompanionPrunerAABBTree@@UEAAPEAXI@Z 00000001801810c0 f i GuSecondaryPruner.obj
 0001:001800c0       ??_GCompanionPrunerAABBTree@@UEAAPEAXI@Z 00000001801810c0 f i GuSecondaryPruner.obj
 0001:00180170       ??_ECompanionPrunerBucket@@UEAAPEAXI@Z 0000000180181170 f i GuSecondaryPruner.obj
 0001:00180170       ??_GCompanionPrunerBucket@@UEAAPEAXI@Z 0000000180181170 f i GuSecondaryPruner.obj
 0001:001801f0       ??_ECompanionPrunerIncremental@@UEAAPEAXI@Z 00000001801811f0 f i GuSecondaryPruner.obj
 0001:001801f0       ??_GCompanionPrunerIncremental@@UEAAPEAXI@Z 00000001801811f0 f i GuSecondaryPruner.obj
 0001:00180270       ?addObject@CompanionPrunerAABBTree@@UEAA_NAEBUPrunerPayload@Gu@physx@@IAEBVPxBounds3@4@AEBV?$PxTransformT@M@4@II@Z 0000000180181270 f   GuSecondaryPruner.obj
 0001:001804b0       ?addObject@CompanionPrunerBucket@@UEAA_NAEBUPrunerPayload@Gu@physx@@IAEBVPxBounds3@4@AEBV?$PxTransformT@M@4@II@Z 00000001801814b0 f i GuSecondaryPruner.obj
 0001:001804d0       ?addObject@CompanionPrunerIncremental@@UEAA_NAEBUPrunerPayload@Gu@physx@@IAEBVPxBounds3@4@AEBV?$PxTransformT@M@4@II@Z 00000001801814d0 f i GuSecondaryPruner.obj
 0001:001804f0       ?addObjectInternal@CompanionPrunerAABBTree@@QEAA_NII@Z 00000001801814f0 f   GuSecondaryPruner.obj
 0001:00180690       ?build@CompanionPrunerAABBTree@@UEAAXXZ 0000000180181690 f   GuSecondaryPruner.obj
 0001:00180b60       ?createCompanionPruner@Gu@physx@@YAPEAVCompanionPruner@12@_KW4CompanionPrunerType@12@PEBVPruningPool@12@@Z 0000000180181b60 f   GuSecondaryPruner.obj
 0001:00180d60       ?getGlobalBounds@CompanionPrunerAABBTree@@UEBAXAEAVPxBounds3@physx@@@Z 0000000180181d60 f   GuSecondaryPruner.obj
 0001:00180e70       ?getGlobalBounds@CompanionPrunerBucket@@UEBAXAEAVPxBounds3@physx@@@Z 0000000180181e70 f i GuSecondaryPruner.obj
 0001:00180e80       ?getGlobalBounds@CompanionPrunerIncremental@@UEBAXAEAVPxBounds3@physx@@@Z 0000000180181e80 f i GuSecondaryPruner.obj
 0001:00180e90       ?getNbObjects@CompanionPrunerAABBTree@@UEBAIXZ 0000000180181e90 f   GuSecondaryPruner.obj
 0001:00180ea0       ?getNbObjects@CompanionPrunerBucket@@UEBAIXZ 0000000180181ea0 f i GuSecondaryPruner.obj
 0001:00180eb0       ?getNbObjects@CompanionPrunerIncremental@@UEBAIXZ 0000000180181eb0 f i GuSecondaryPruner.obj
 0001:00180ec0       ?growAndPushBack@?$PxArray@ULocalData@CompanionPrunerAABBTree@@V?$PxReflectionAllocator@ULocalData@CompanionPrunerAABBTree@@@physx@@@physx@@IEAAAEAULocalData@CompanionPrunerAABBTree@@AEBU34@@Z 0000000180181ec0 f i GuSecondaryPruner.obj
 0001:00180ff0       ?overlap@CompanionPrunerAABBTree@@UEBA_NAEBVShapeData@Gu@physx@@AEAUPrunerOverlapCallback@34@@Z 0000000180181ff0 f   GuSecondaryPruner.obj
 0001:00181f80       ?overlap@CompanionPrunerBucket@@UEBA_NAEBVShapeData@Gu@physx@@AEAUPrunerOverlapCallback@34@@Z 0000000180182f80 f i GuSecondaryPruner.obj
 0001:00181fa0       ?overlap@CompanionPrunerIncremental@@UEBA_NAEBVShapeData@Gu@physx@@AEAUPrunerOverlapCallback@34@@Z 0000000180182fa0 f i GuSecondaryPruner.obj
 0001:00181fc0       ?raycast@CompanionPrunerAABBTree@@UEBA_NAEBV?$PxVec3T@M@physx@@0AEAMAEAUPrunerRaycastCallback@Gu@3@@Z 0000000180182fc0 f   GuSecondaryPruner.obj
 0001:001823b0       ?raycast@CompanionPrunerBucket@@UEBA_NAEBV?$PxVec3T@M@physx@@0AEAMAEAUPrunerRaycastCallback@Gu@3@@Z 00000001801833b0 f i GuSecondaryPruner.obj
 0001:001823d0       ?raycast@CompanionPrunerIncremental@@UEBA_NAEBV?$PxVec3T@M@physx@@0AEAMAEAUPrunerRaycastCallback@Gu@3@@Z 00000001801833d0 f i GuSecondaryPruner.obj
 0001:001823f0       ?release@CompanionPrunerAABBTree@@UEAAXXZ 00000001801833f0 f   GuSecondaryPruner.obj
 0001:00182400       ?release@CompanionPrunerBucket@@UEAAXXZ 0000000180183400 f i GuSecondaryPruner.obj
 0001:00182410       ?release@CompanionPrunerIncremental@@UEAAXXZ 0000000180183410 f i GuSecondaryPruner.obj
 0001:00182420       ?releaseInternal@CompanionPrunerAABBTree@@QEAAXXZ 0000000180183420 f   GuSecondaryPruner.obj
 0001:001824a0       ?removeMarkedObjects@CompanionPrunerAABBTree@@UEAAII@Z 00000001801834a0 f   GuSecondaryPruner.obj
 0001:001824c0       ?removeMarkedObjects@CompanionPrunerBucket@@UEAAII@Z 00000001801834c0 f i GuSecondaryPruner.obj
 0001:001824d0       ?removeMarkedObjects@CompanionPrunerIncremental@@UEAAII@Z 00000001801834d0 f i GuSecondaryPruner.obj
 0001:001824e0       ?removeObject@CompanionPrunerAABBTree@@UEAA_NAEBUPrunerPayload@Gu@physx@@III@Z 00000001801834e0 f   GuSecondaryPruner.obj
 0001:00182580       ?removeObject@CompanionPrunerBucket@@UEAA_NAEBUPrunerPayload@Gu@physx@@III@Z 0000000180183580 f i GuSecondaryPruner.obj
 0001:001825a0       ?removeObject@CompanionPrunerIncremental@@UEAA_NAEBUPrunerPayload@Gu@physx@@III@Z 00000001801835a0 f i GuSecondaryPruner.obj
 0001:001825c0       ?shiftOrigin@CompanionPrunerAABBTree@@UEAAXAEBV?$PxVec3T@M@physx@@@Z 00000001801835c0 f   GuSecondaryPruner.obj
 0001:001826f0       ?shiftOrigin@CompanionPrunerIncremental@@UEAAXAEBV?$PxVec3T@M@physx@@@Z 00000001801836f0 f i GuSecondaryPruner.obj
 0001:00182700       ?swapIndex@CompanionPrunerIncremental@@UEAAXII@Z 0000000180183700 f i GuSecondaryPruner.obj
 0001:00182710       ?sweep@CompanionPrunerAABBTree@@UEBA_NAEBVShapeData@Gu@physx@@AEBV?$PxVec3T@M@4@AEAMAEAUPrunerRaycastCallback@34@@Z 0000000180183710 f   GuSecondaryPruner.obj
 0001:00182c40       ?sweep@CompanionPrunerBucket@@UEBA_NAEBVShapeData@Gu@physx@@AEBV?$PxVec3T@M@4@AEAMAEAUPrunerRaycastCallback@34@@Z 0000000180183c40 f i GuSecondaryPruner.obj
 0001:00182c60       ?sweep@CompanionPrunerIncremental@@UEBA_NAEBVShapeData@Gu@physx@@AEBV?$PxVec3T@M@4@AEAMAEAUPrunerRaycastCallback@34@@Z 0000000180183c60 f i GuSecondaryPruner.obj
 0001:00182c80       ?timeStampChange@CompanionPrunerIncremental@@UEAAXXZ 0000000180183c80 f i GuSecondaryPruner.obj
 0001:00182ca0       ?updateObject@CompanionPrunerAABBTree@@UEAA_NAEBUPrunerPayload@Gu@physx@@IAEBVPxBounds3@4@AEBV?$PxTransformT@M@4@I@Z 0000000180183ca0 f   GuSecondaryPruner.obj
 0001:00182d20       ?updateObject@CompanionPrunerBucket@@UEAA_NAEBUPrunerPayload@Gu@physx@@IAEBVPxBounds3@4@AEBV?$PxTransformT@M@4@I@Z 0000000180183d20 f i GuSecondaryPruner.obj
 0001:00182d40       ?updateObject@CompanionPrunerIncremental@@UEAA_NAEBUPrunerPayload@Gu@physx@@IAEBVPxBounds3@4@AEBV?$PxTransformT@M@4@I@Z 0000000180183d40 f i GuSecondaryPruner.obj
 0001:00182d50       ?visualize@CompanionPrunerAABBTree@@UEBAXAEAVPxRenderOutput@physx@@I@Z 0000000180183d50 f   GuSecondaryPruner.obj
 0001:00182d70       ?visualize@CompanionPrunerIncremental@@UEBAXAEAVPxRenderOutput@physx@@I@Z 0000000180183d70 f i GuSecondaryPruner.obj
 0001:00182d80       ??0AABBPruner@Gu@physx@@QEAA@_N_KW4CompanionPrunerType@12@W4BVHBuildStrategy@12@I@Z 0000000180183d80 f   GuAABBPruner.obj
 0001:00182eb0       ??1AABBPruner@Gu@physx@@UEAA@XZ 0000000180183eb0 f   GuAABBPruner.obj
 0001:00183010       ??_EAABBPruner@Gu@physx@@UEAAPEAXI@Z 0000000180184010 f i GuAABBPruner.obj
 0001:00183010       ??_GAABBPruner@Gu@physx@@UEAAPEAXI@Z 0000000180184010 f i GuAABBPruner.obj
 0001:00183080       ?addObjects@AABBPruner@Gu@physx@@UEAA_NPEAIPEBVPxBounds3@3@PEBUPrunerPayload@23@PEBV?$PxTransformT@M@3@I_N@Z 0000000180184080 f   GuAABBPruner.obj
 0001:00183360       ?buildStep@AABBPruner@Gu@physx@@UEAA_N_N@Z 0000000180184360 f   GuAABBPruner.obj
 0001:00183760       ?commit@AABBPruner@Gu@physx@@UEAAXXZ 0000000180184760 f   GuAABBPruner.obj
 0001:00183e60       ?fullRebuildAABBTree@AABBPruner@Gu@physx@@QEAA_NXZ 0000000180184e60 f   GuAABBPruner.obj
 0001:00184060       ?getGlobalBounds@AABBPruner@Gu@physx@@UEBAXAEAVPxBounds3@3@@Z 0000000180185060 f   GuAABBPruner.obj
 0001:001841a0       ?getPayloadData@AABBPruner@Gu@physx@@UEBAAEBUPrunerPayload@23@IPEAUPrunerPayloadData@23@@Z 00000001801851a0 f i GuAABBPruner.obj
 0001:00184200       ?growAndPushBack@?$PxArray@UNewTreeFixup@AABBPruner@Gu@physx@@V?$PxReflectionAllocator@UNewTreeFixup@AABBPruner@Gu@physx@@@4@@physx@@IEAAAEAUNewTreeFixup@AABBPruner@Gu@2@AEBU3452@@Z 0000000180185200 f i GuAABBPruner.obj
 0001:00184330       ?isDynamic@AABBPruner@Gu@physx@@UEBA_NXZ 0000000180185330 f i GuAABBPruner.obj
 0001:00184340       ?merge@AABBPruner@Gu@physx@@UEAAXPEBX@Z 0000000180185340 f   GuAABBPruner.obj
 0001:001843c0       ?overlap@AABBPruner@Gu@physx@@UEBA_NAEBVShapeData@23@AEAUPrunerOverlapCallback@23@@Z 00000001801853c0 f   GuAABBPruner.obj
 0001:00184990       ?preallocate@AABBPruner@Gu@physx@@UEAAXI@Z 0000000180185990 f i GuAABBPruner.obj
 0001:001849a0       ?prepareBuild@AABBPruner@Gu@physx@@UEAA_NXZ 00000001801859a0 f   GuAABBPruner.obj
 0001:00184bb0       ?purge@AABBPruner@Gu@physx@@UEAAXXZ 0000000180185bb0 f   GuAABBPruner.obj
 0001:00184bd0       ?raycast@AABBPruner@Gu@physx@@UEBA_NAEBV?$PxVec3T@M@3@0AEAMAEAUPrunerRaycastCallback@23@@Z 0000000180185bd0 f   GuAABBPruner.obj
 0001:00184cc0       ?refitUpdatedAndRemoved@AABBPruner@Gu@physx@@QEAAXXZ 0000000180185cc0 f   GuAABBPruner.obj
 0001:00184d90       ?release@AABBPruner@Gu@physx@@QEAAXXZ 0000000180185d90 f   GuAABBPruner.obj
 0001:00184ec0       ?removeObjects@AABBPruner@Gu@physx@@UEAAXPEBIIPEAUPrunerPayloadRemovalCallback@23@@Z 0000000180185ec0 f   GuAABBPruner.obj
 0001:00185190       ?setRebuildRateHint@AABBPruner@Gu@physx@@UEAAXI@Z 0000000180186190 f   GuAABBPruner.obj
 0001:001851b0       ?setTransform@AABBPruner@Gu@physx@@UEAA_NIAEBV?$PxTransformT@M@3@@Z 00000001801861b0 f i GuAABBPruner.obj
 0001:00185210       ?shiftOrigin@AABBPruner@Gu@physx@@UEAAXAEBV?$PxVec3T@M@3@@Z 0000000180186210 f   GuAABBPruner.obj
 0001:00185280       ?sweep@AABBPruner@Gu@physx@@UEBA_NAEBVShapeData@23@AEBV?$PxVec3T@M@3@AEAMAEAUPrunerRaycastCallback@23@@Z 0000000180186280 f   GuAABBPruner.obj
 0001:00185410       ?updateObjects@AABBPruner@Gu@physx@@UEAAXPEBIIM0PEBVPxBounds3@3@PEBUPxTransformPadded@3@@Z 0000000180186410 f   GuAABBPruner.obj
 0001:001856b0       ?visualize@AABBPruner@Gu@physx@@UEBAXAEAVPxRenderOutput@3@II@Z 00000001801866b0 f   GuAABBPruner.obj
 0001:00185760       ??0ActorShapeMap@Gu@physx@@QEAA@XZ 0000000180186760 f   GuActorShapeMap.obj
 0001:001857c0       ??1ActorShapeMap@Gu@physx@@QEAA@XZ 00000001801867c0 f   GuActorShapeMap.obj
 0001:00185820       ?add@ActorShapeMap@Gu@physx@@QEAA_NIPEBX0_K@Z 0000000180186820 f   GuActorShapeMap.obj
 0001:001859c0       ?create@?$PxHashBase@V?$PxPair@$$CBUActorShape@ActorShapeMap@Gu@physx@@_K@physx@@UActorShape@ActorShapeMap@Gu@2@U?$PxHash@UActorShape@ActorShapeMap@Gu@physx@@@2@UGetKey@?$PxHashMapBase@UActorShape@ActorShapeMap@Gu@physx@@_KU?$PxHash@UActorShape@ActorShapeMap@Gu@physx@@@4@VPxAllocator@4@@2@VPxAllocator@2@$00@physx@@QEAAPEAV?$PxPair@$$CBUActorShape@ActorShapeMap@Gu@physx@@_K@2@AEBUActorShape@ActorShapeMap@Gu@2@AEA_N@Z 00000001801869c0 f i GuActorShapeMap.obj
 0001:00185bb0       ?eraseInternal@?$PxHashBase@V?$PxPair@$$CBUActorShape@ActorShapeMap@Gu@physx@@_K@physx@@UActorShape@ActorShapeMap@Gu@2@U?$PxHash@UActorShape@ActorShapeMap@Gu@physx@@@2@UGetKey@?$PxHashMapBase@UActorShape@ActorShapeMap@Gu@physx@@_KU?$PxHash@UActorShape@ActorShapeMap@Gu@physx@@@4@VPxAllocator@4@@2@VPxAllocator@2@$00@physx@@AEAA_NPEAI@Z 0000000180186bb0 f i GuActorShapeMap.obj
 0001:00185cc0       ?find@ActorShapeMap@Gu@physx@@QEBA_KIPEBX0@Z 0000000180186cc0 f   GuActorShapeMap.obj
 0001:00185db0       ?remove@ActorShapeMap@Gu@physx@@QEAA_NIPEBX0PEA_K@Z 0000000180186db0 f   GuActorShapeMap.obj
 0001:00185f00       ?reserveInternal@?$PxHashBase@V?$PxPair@$$CBUActorShape@ActorShapeMap@Gu@physx@@_K@physx@@UActorShape@ActorShapeMap@Gu@2@U?$PxHash@UActorShape@ActorShapeMap@Gu@physx@@@2@UGetKey@?$PxHashMapBase@UActorShape@ActorShapeMap@Gu@physx@@_KU?$PxHash@UActorShape@ActorShapeMap@Gu@physx@@@4@VPxAllocator@4@@2@VPxAllocator@2@$00@physx@@AEAAXI@Z 0000000180186f00 f i GuActorShapeMap.obj
 0001:00186110       ??0QuerySystem@Gu@physx@@QEAA@_KMAEBVAdapter@12@_N@Z 0000000180187110 f   GuQuerySystem.obj
 0001:001861e0       ??1QuerySystem@Gu@physx@@QEAA@XZ 00000001801871e0 f   GuQuerySystem.obj
 0001:00186430       ??_GPrunerExt@QuerySystem@Gu@physx@@QEAAPEAXI@Z 0000000180187430 f i GuQuerySystem.obj
 0001:00186540       ?addPruner@QuerySystem@Gu@physx@@QEAAIPEAVPruner@23@I@Z 0000000180187540 f   GuQuerySystem.obj
 0001:00186660       ?addPrunerShape@QuerySystem@Gu@physx@@QEAA_KAEBUPrunerPayload@23@I_NAEBV?$PxTransformT@M@3@PEBVPxBounds3@3@@Z 0000000180187660 f   GuQuerySystem.obj
 0001:001867a0       ?addToDirtyList@PrunerExt@QuerySystem@Gu@physx@@QEAAXIIAEBV?$PxTransformT@M@4@PEBVPxBounds3@4@@Z 00000001801877a0 f   GuQuerySystem.obj
 0001:001869f0       ?commitUpdates@QuerySystem@Gu@physx@@QEAAXXZ 00000001801879f0 f   GuQuerySystem.obj
 0001:00186b10       ?createTreeOfPruners@QuerySystem@Gu@physx@@QEAAXXZ 0000000180187b10 f   GuQuerySystem.obj
 0001:00186ce0       ?flushMemory@QuerySystem@Gu@physx@@QEAAXXZ 0000000180187ce0 f   GuQuerySystem.obj
 0001:00186d70       ?getPayloadData@QuerySystem@Gu@physx@@QEBAAEBUPrunerPayload@23@_KPEAUPrunerPayloadData@23@@Z 0000000180187d70 f   GuQuerySystem.obj
 0001:00186d90       ?growAndPushBack@?$PxArray@PEAUPrunerExt@QuerySystem@Gu@physx@@V?$PxReflectionAllocator@PEAUPrunerExt@QuerySystem@Gu@physx@@@4@@physx@@IEAAAEAPEAUPrunerExt@QuerySystem@Gu@2@AEBQEAU3452@@Z 0000000180187d90 f i GuQuerySystem.obj
 0001:00186ec0       ?overlap@QuerySystem@Gu@physx@@QEBAXAEBVShapeData@23@AEAUPrunerOverlapCallback@23@PEBVPrunerFilter@23@@Z 0000000180187ec0 f   GuQuerySystem.obj
 0001:00186fc0       ?processDirtyList@PrunerExt@QuerySystem@Gu@physx@@QEAA_NAEBVAdapter@34@M@Z 0000000180187fc0 f   GuQuerySystem.obj
 0001:00187200       ?processDirtyLists@QuerySystem@Gu@physx@@AEAAXXZ 0000000180188200 f   GuQuerySystem.obj
 0001:00187360       ?raycast@QuerySystem@Gu@physx@@QEBAXAEBV?$PxVec3T@M@3@0AEAMAEAUPrunerRaycastCallback@23@PEBVPrunerFilter@23@@Z 0000000180188360 f   GuQuerySystem.obj
 0001:001874a0       ?recreate@?$PxArray@UData@PrunerExt@QuerySystem@Gu@physx@@V?$PxReflectionAllocator@UData@PrunerExt@QuerySystem@Gu@physx@@@5@@physx@@IEAAXI@Z 00000001801884a0 f i GuQuerySystem.obj
 0001:001877a0       ?removePruner@QuerySystem@Gu@physx@@QEAAXI@Z 00000001801887a0 f   GuQuerySystem.obj
 0001:00187880       ?removePrunerShape@QuerySystem@Gu@physx@@QEAAX_KPEAUPrunerPayloadRemovalCallback@23@@Z 0000000180188880 f   GuQuerySystem.obj
 0001:00187ab0       ?sweep@QuerySystem@Gu@physx@@QEBAXAEBVShapeData@23@AEBV?$PxVec3T@M@3@AEAMAEAUPrunerRaycastCallback@23@PEBVPrunerFilter@23@@Z 0000000180188ab0 f   GuQuerySystem.obj
 0001:00187be0       ?sync@QuerySystem@Gu@physx@@QEAAXIPEBI0PEBVPxBounds3@3@PEBUPxTransformPadded@3@I@Z 0000000180188be0 f   GuQuerySystem.obj
 0001:00187c90       ?update@QuerySystem@Gu@physx@@QEAAX_N0@Z 0000000180188c90 f   GuQuerySystem.obj
 0001:00187e00       ?updatePrunerShape@QuerySystem@Gu@physx@@QEAAX_K_NAEBV?$PxTransformT@M@3@PEBVPxBounds3@3@@Z 0000000180188e00 f   GuQuerySystem.obj
 0001:00187ff0       createAABBPruner           0000000180188ff0 f   GuFactory.obj
 0001:001880b0       createBucketPruner         00000001801890b0 f   GuFactory.obj
 0001:00188140       createIncrementalPruner    0000000180189140 f   GuFactory.obj
 0001:001881d0       ??$PxSmallSort@I$$CBUSortBoundsPredicate@physx@@@physx@@YAXPEAIHHAEBUSortBoundsPredicate@0@@Z 00000001801891d0 f i GuRTreeCooking.obj
 0001:00188470       ??$PxSort@IU?$PxLess@I@physx@@V?$PxReflectionAllocator@I@2@@physx@@YAXPEAIIAEBU?$PxLess@I@0@AEBV?$PxReflectionAllocator@I@0@I@Z 0000000180189470 f i GuRTreeCooking.obj
 0001:001888c0       ??$PxSort@IUSortBoundsPredicate@physx@@V?$PxReflectionAllocator@I@2@@physx@@YAXPEAIIAEBUSortBoundsPredicate@0@AEBV?$PxReflectionAllocator@I@0@I@Z 00000001801898c0 f i GuRTreeCooking.obj
 0001:00188d70       ??$quickSelectFirstK@UBoundsLTE@physx@@@quickSelect@physx@@YAXPEIAIIIIAEBUBoundsLTE@1@@Z 0000000180189d70 f i GuRTreeCooking.obj
 0001:00188f50       ?allocate@?$PxArray@UInterval@physx@@V?$PxInlineAllocator@$0CAAA@V?$PxReflectionAllocator@UInterval@physx@@@physx@@@2@@physx@@IEAAPEAUInterval@2@I@Z 0000000180189f50 f i GuRTreeCooking.obj
 0001:00189010       ?allocate@?$PxArray@UPxBounds3V@physx@@V?$PxReflectionAllocator@UPxBounds3V@physx@@@2@@physx@@IEAAPEAUPxBounds3V@2@I@Z 000000018018a010 f i GuRTreeCooking.obj
 0001:001890c0       ?allocate@?$PxArray@URTreeNodeNQ@physx@@V?$PxReflectionAllocator@URTreeNodeNQ@physx@@@2@@physx@@IEAAPEAURTreeNodeNQ@2@I@Z 000000018018a0c0 f i GuRTreeCooking.obj
 0001:00189170       ?allocate@?$PxArray@URTreeNodeQ@Gu@physx@@V?$PxReflectionAllocator@URTreeNodeQ@Gu@physx@@@3@@physx@@IEAAPEAURTreeNodeQ@Gu@2@I@Z 000000018018a170 f i GuRTreeCooking.obj
 0001:00189ea0       ?buildFromTriangles@RTreeCooker@physx@@SAXAEAURTree@Gu@2@PEBV?$PxVec3T@M@2@IPEBGPEBIIAEAV?$PxArray@IV?$PxReflectionAllocator@I@physx@@@2@PEAURemapCallback@12@MW4Enum@PxMeshCookingHint@2@@Z 000000018018aea0 f   GuRTreeCooking.obj
 0001:0018a160       ?copy@?$PxArray@URTreeNodeNQ@physx@@V?$PxReflectionAllocator@URTreeNodeNQ@physx@@@2@@physx@@KAXPEAURTreeNodeNQ@2@0PEBU32@@Z 000000018018b160 f i GuRTreeCooking.obj
 0001:0018a320       ?growAndPushBack@?$PxArray@UInterval@physx@@V?$PxInlineAllocator@$0CAAA@V?$PxReflectionAllocator@UInterval@physx@@@physx@@@2@@physx@@IEAAAEAUInterval@2@AEBU32@@Z 000000018018b320 f i GuRTreeCooking.obj
 0001:0018a400       ?growAndPushBack@?$PxArray@UPxBounds3V@physx@@V?$PxReflectionAllocator@UPxBounds3V@physx@@@2@@physx@@IEAAAEAUPxBounds3V@2@AEBU32@@Z 000000018018b400 f i GuRTreeCooking.obj
 0001:0018a4e0       ?growAndPushBack@?$PxArray@URTreeNodeNQ@physx@@V?$PxReflectionAllocator@URTreeNodeNQ@physx@@@2@@physx@@IEAAAEAURTreeNodeNQ@2@AEBU32@@Z 000000018018b4e0 f i GuRTreeCooking.obj
 0001:0018a5c0       ?growAndPushBack@?$PxArray@URTreeNodeQ@Gu@physx@@V?$PxReflectionAllocator@URTreeNodeQ@Gu@physx@@@3@@physx@@IEAAAEAURTreeNodeQ@Gu@2@AEBU342@@Z 000000018018b5c0 f i GuRTreeCooking.obj
 0001:0018a6b0       ?recreate@?$PxArray@UPxBounds3V@physx@@V?$PxReflectionAllocator@UPxBounds3V@physx@@@2@@physx@@IEAAXI@Z 000000018018b6b0 f i GuRTreeCooking.obj
 0001:0018a760       ?recreate@?$PxArray@URTreeNodeNQ@physx@@V?$PxReflectionAllocator@URTreeNodeNQ@physx@@@2@@physx@@IEAAXI@Z 000000018018b760 f i GuRTreeCooking.obj
 0001:0018a7f0       ?recreate@?$PxArray@URTreeNodeQ@Gu@physx@@V?$PxReflectionAllocator@URTreeNodeQ@Gu@physx@@@3@@physx@@IEAAXI@Z 000000018018b7f0 f i GuRTreeCooking.obj
 0001:0018a8b0       ?resizeUninitialized@?$PxArray@URTreeNodeNQ@physx@@V?$PxReflectionAllocator@URTreeNodeNQ@physx@@@2@@physx@@QEAAXI@Z 000000018018b8b0 f i GuRTreeCooking.obj
 0001:0018a8f0       ?sort4@SubSortQuick@physx@@QEAAXPEIAIIAEAV?$PxArray@URTreeNodeNQ@physx@@V?$PxReflectionAllocator@URTreeNodeNQ@physx@@@2@@2@AEAIAEAUPxBounds3V@2@I@Z 000000018018b8f0 f i GuRTreeCooking.obj
 0001:0018ac80       ?sort4@SubSortSAH@physx@@QEAAXPEAIIAEAV?$PxArray@URTreeNodeNQ@physx@@V?$PxReflectionAllocator@URTreeNodeNQ@physx@@@2@@2@AEAIIPEAURTreeNodeNQ@2@@Z 000000018018bc80 f i GuRTreeCooking.obj
 0001:0018b510       ?split@SubSortSAH@physx@@QEAAIPEAII@Z 000000018018c510 f i GuRTreeCooking.obj
 0001:0018bf80       cookBVH                    000000018018cf80 f   GuCookingBVH.obj
 0001:0018c110       createBVH                  000000018018d110 f   GuCookingBVH.obj
 0001:0018c2a0       cookHeightField            000000018018d2a0 f   GuCookingHF.obj
 0001:0018c3b0       createHeightField          000000018018d3b0 f   GuCookingHF.obj
 0001:0018ca00       computeHullPolygons        000000018018da00 f   GuCookingConvexMesh.obj
 0001:0018cbe0       cookConvexMesh             000000018018dbe0 f   GuCookingConvexMesh.obj
 0001:0018cd50       createConvexMesh           000000018018dd50 f   GuCookingConvexMesh.obj
 0001:0018cef0       validateConvexMesh         000000018018def0 f   GuCookingConvexMesh.obj
 0001:0018d010       ??1BV4TriangleMeshBuilder@physx@@UEAA@XZ 000000018018e010 f   GuCookingTriangleMesh.obj
 0001:0018d0a0       ??1RTreeTriangleMeshBuilder@physx@@UEAA@XZ 000000018018e0a0 f   GuCookingTriangleMesh.obj
 0001:0018d110       ??_EBV4TriangleMeshBuilder@physx@@UEAAPEAXI@Z 000000018018e110 f i GuCookingTriangleMesh.obj
 0001:0018d110       ??_GBV4TriangleMeshBuilder@physx@@UEAAPEAXI@Z 000000018018e110 f i GuCookingTriangleMesh.obj
 0001:0018d150       ??_ERTreeTriangleMeshBuilder@physx@@UEAAPEAXI@Z 000000018018e150 f i GuCookingTriangleMesh.obj
 0001:0018d150       ??_GRTreeTriangleMeshBuilder@physx@@UEAAPEAXI@Z 000000018018e150 f i GuCookingTriangleMesh.obj
 0001:0018d190       ??_ETriangleMeshBuilder@physx@@UEAAPEAXI@Z 000000018018e190 f i GuCookingTriangleMesh.obj
 0001:0018d190       ??_GTriangleMeshBuilder@physx@@UEAAPEAXI@Z 000000018018e190 f i GuCookingTriangleMesh.obj
 0001:0018db40       ?buildInertiaTensor@TriangleMeshBuilder@physx@@IEAAX_N@Z 000000018018eb40 f   GuCookingTriangleMesh.obj
 0001:0018dca0       ?buildInertiaTensorFromSDF@TriangleMeshBuilder@physx@@IEAAXXZ 000000018018eca0 f   GuCookingTriangleMesh.obj
 0001:0018dee0       ?checkInputFloats@@YA_NIPEBMPEBDI1@Z 000000018018eee0 f   GuCookingTriangleMesh.obj
 0001:0018df70       ?cleanMesh@TriangleMeshBuilder@physx@@QEAA_N_NPEAW4Enum@PxTriangleMeshCookingResult@2@@Z 000000018018ef70 f   GuCookingTriangleMesh.obj
 0001:0018e410       ?createGRBMidPhaseAndData@TriangleMeshBuilder@physx@@QEAAXI@Z 000000018018f410 f   GuCookingTriangleMesh.obj
 0001:0018e5c0       ?createMidPhaseStructure@BV32TriangleMeshBuilder@physx@@SAXAEBUPxCookingParams@2@AEAVTriangleMeshData@Gu@2@AEAVBV32Tree@52@@Z 000000018018f5c0 f   GuCookingTriangleMesh.obj
 0001:0018e800       ?createMidPhaseStructure@BV4TriangleMeshBuilder@physx@@UEAAXXZ 000000018018f800 f   GuCookingTriangleMesh.obj
 0001:0018eac0       ?createMidPhaseStructure@RTreeTriangleMeshBuilder@physx@@UEAAXXZ 000000018018fac0 f   GuCookingTriangleMesh.obj
 0001:0018ebb0       ?createSharedEdgeData@TriangleMeshBuilder@physx@@QEAAX_N0@Z 000000018018fbb0 f   GuCookingTriangleMesh.obj
 0001:0018f260       ?createVertMapping@TriangleMeshBuilder@physx@@QEAAXXZ 0000000180190260 f   GuCookingTriangleMesh.obj
 0001:0018f5c0       ?importMesh@TriangleMeshBuilder@physx@@IEAA_NAEBVPxTriangleMeshDesc@2@AEBUPxCookingParams@2@PEAW4Enum@PxTriangleMeshCookingResult@2@_N@Z 00000001801905c0 f   GuCookingTriangleMesh.obj
 0001:0018fc00       ?isValid@PxTriangleMeshDesc@physx@@QEBA_NXZ 0000000180190c00 f i GuCookingTriangleMesh.obj
 0001:0018fcd0       ?loadFromDescInternal@TriangleMeshBuilder@physx@@IEAA_NAEAVPxTriangleMeshDesc@2@PEAW4Enum@PxTriangleMeshCookingResult@2@_N@Z 0000000180190cd0 f   GuCookingTriangleMesh.obj
 0001:0018fef0       ?onMeshIndexFormatChange@BV4TriangleMeshBuilder@physx@@UEAAXXZ 0000000180190ef0 f   GuCookingTriangleMesh.obj
 0001:0018ff30       ?remap@RTreeCookerRemap@@UEAAXPEAIII@Z 0000000180190f30 f i GuCookingTriangleMesh.obj
 0001:0018ff50       ?remapTopology@TriangleMeshBuilder@physx@@QEAAXPEBI@Z 0000000180190f50 f   GuCookingTriangleMesh.obj
 0001:001901f0       ?save@TriangleMeshBuilder@physx@@QEBA_NAEAVPxOutputStream@2@_NAEBUPxCookingParams@2@@Z 00000001801911f0 f   GuCookingTriangleMesh.obj
 0001:001909a0       ?saveMidPhaseStructure@BV32TriangleMeshBuilder@physx@@SAXPEAVBV32Tree@Gu@2@AEAVPxOutputStream@2@_N@Z 00000001801919a0 f   GuCookingTriangleMesh.obj
 0001:00190ba0       ?saveMidPhaseStructure@BV4TriangleMeshBuilder@physx@@UEBAXAEAVPxOutputStream@2@_N@Z 0000000180191ba0 f   GuCookingTriangleMesh.obj
 0001:00190d50       ?saveMidPhaseStructure@RTreeTriangleMeshBuilder@physx@@UEBAXAEAVPxOutputStream@2@_N@Z 0000000180191d50 f   GuCookingTriangleMesh.obj
 0001:00190f90       cookTriangleMesh           0000000180191f90 f   GuCookingTriangleMesh.obj
 0001:001912a0       createTriangleMesh         00000001801922a0 f   GuCookingTriangleMesh.obj
 0001:001914c0       validateTriangleMesh       00000001801924c0 f   GuCookingTriangleMesh.obj
 0001:00191780       ??0SoftBodyCollisionData@Gu@physx@@QEAA@XZ 0000000180192780 f i GuCookingTetrahedronMesh.obj
 0001:001917e0       ??_ECollisionTetrahedronMeshData@Gu@physx@@UEAAPEAXI@Z 00000001801927e0 f i GuCookingTetrahedronMesh.obj
 0001:001917e0       ??_GCollisionTetrahedronMeshData@Gu@physx@@UEAAPEAXI@Z 00000001801927e0 f i GuCookingTetrahedronMesh.obj
 0001:001918b0       ??_EPxCollisionTetrahedronMeshData@physx@@UEAAPEAXI@Z 00000001801928b0 f i GuCookingTetrahedronMesh.obj
 0001:001918b0       ??_GPxCollisionTetrahedronMeshData@physx@@UEAAPEAXI@Z 00000001801928b0 f i GuCookingTetrahedronMesh.obj
 0001:00191900       ??_EPxSimulationTetrahedronMeshData@physx@@UEAAPEAXI@Z 0000000180192900 f i GuCookingTetrahedronMesh.obj
 0001:00191900       ??_GPxSimulationTetrahedronMeshData@physx@@UEAAPEAXI@Z 0000000180192900 f i GuCookingTetrahedronMesh.obj
 0001:00191950       ??_ESimulationTetrahedronMeshData@Gu@physx@@UEAAPEAXI@Z 0000000180192950 f i GuCookingTetrahedronMesh.obj
 0001:00191950       ??_GSimulationTetrahedronMeshData@Gu@physx@@UEAAPEAXI@Z 0000000180192950 f i GuCookingTetrahedronMesh.obj
 0001:00191a20       ?combineGridModelPartitions@@YAXAEBVTetrahedronMeshData@Gu@physx@@AEAVSoftBodySimulationData@23@PEAPEAI@Z 0000000180192a20 f   GuCookingTetrahedronMesh.obj
 0001:00192270       ?combineGridModelPartitionsHexMesh@@YAXAEBVTetrahedronMeshData@Gu@physx@@AEAVSoftBodySimulationData@23@PEAPEAI@Z 0000000180193270 f   GuCookingTetrahedronMesh.obj
 0001:00192bb0       ?computeCollisionData@TetrahedronMeshBuilder@physx@@SA_NAEBVPxTetrahedronMeshDesc@2@AEAVTetrahedronMeshData@Gu@2@AEAVSoftBodyCollisionData@52@AEBUPxCookingParams@2@_N@Z 0000000180193bb0 f   GuCookingTetrahedronMesh.obj
 0001:00192de0       ?computeGridModelTetrahedronPartitions@@YAPEAIAEBVTetrahedronMeshData@Gu@physx@@AEAVSoftBodySimulationData@23@@Z 0000000180193de0 f   GuCookingTetrahedronMesh.obj
 0001:00193280       ?computeModelsMapping@TetrahedronMeshBuilder@physx@@SAXAEAVTetrahedronMeshData@Gu@2@AEBV342@AEBVSoftBodyCollisionData@42@AEAVCollisionMeshMappingData@42@_NPEBUPxBoundedData@2@@Z 0000000180194280 f   GuCookingTetrahedronMesh.obj
 0001:00193e90       ?computeRestPoseAndPointMass@@YAXPEAU?$TetrahedronT@I@Gu@physx@@IPEBV?$PxVec3T@M@3@PEAMPEAV?$PxMat33T@M@3@@Z 0000000180194e90 f   GuCookingTetrahedronMesh.obj
 0001:001943e0       ?computeSimData@TetrahedronMeshBuilder@physx@@SAXAEBVPxTetrahedronMeshDesc@2@AEAVTetrahedronMeshData@Gu@2@AEAVSoftBodySimulationData@52@AEBUPxCookingParams@2@@Z 00000001801953e0 f   GuCookingTetrahedronMesh.obj
 0001:00194ab0       ?computeTetData@TetrahedronMeshBuilder@physx@@SAXAEBVPxTetrahedronMeshDesc@2@AEAVTetrahedronMeshData@Gu@2@@Z 0000000180195ab0 f   GuCookingTetrahedronMesh.obj
 0001:00194ba0       ?computeTetrahedronPartition@@YAIPEBU?$TetrahedronT@I@Gu@physx@@IPEAII@Z 0000000180195ba0 f   GuCookingTetrahedronMesh.obj
 0001:00194c90       ?createCollisionModelMapping@TetrahedronMeshBuilder@physx@@SAXAEBVTetrahedronMeshData@Gu@2@AEBVSoftBodyCollisionData@42@AEAVCollisionMeshMappingData@42@@Z 0000000180195c90 f   GuCookingTetrahedronMesh.obj
 0001:00195270       ?createGRBMidPhaseAndData@TetrahedronMeshBuilder@physx@@SAXIAEAVTetrahedronMeshData@Gu@2@AEAVSoftBodyCollisionData@42@AEBUPxCookingParams@2@@Z 0000000180196270 f   GuCookingTetrahedronMesh.obj
 0001:00195fa0       ?createMidPhaseStructure@BV32TetrahedronMeshBuilder@physx@@SAXAEBUPxCookingParams@2@AEAVTetrahedronMeshData@Gu@2@AEAVBV32Tree@52@AEAVSoftBodyCollisionData@52@@Z 0000000180196fa0 f   GuCookingTetrahedronMesh.obj
 0001:00196270       ?createMidPhaseStructure@TetrahedronMeshBuilder@physx@@SAXAEAVTetrahedronMeshData@Gu@2@AEAVSoftBodyCollisionData@42@AEBUPxCookingParams@2@@Z 0000000180197270 f   GuCookingTetrahedronMesh.obj
 0001:00196f40       ?getData@CollisionTetrahedronMeshData@Gu@physx@@UEAAPEAVPxSoftBodyCollisionData@3@XZ 0000000180197f40 f i GuCookingTetrahedronMesh.obj
 0001:00196f40       ?getData@CollisionTetrahedronMeshData@Gu@physx@@UEBAPEBVPxSoftBodyCollisionData@3@XZ 0000000180197f40 f i GuCookingTetrahedronMesh.obj
 0001:00196f40       ?getData@SimulationTetrahedronMeshData@Gu@physx@@UEAAPEAVPxSoftBodySimulationData@3@XZ 0000000180197f40 f i GuCookingTetrahedronMesh.obj
 0001:00196f60       ?importMesh@TetrahedronMeshBuilder@physx@@SA_NAEBVPxTetrahedronMeshDesc@2@AEBUPxCookingParams@2@AEAVTetrahedronMeshData@Gu@2@AEAVSoftBodyCollisionData@62@_N@Z 0000000180197f60 f   GuCookingTetrahedronMesh.obj
 0001:00197290       ?isValid@PxTetrahedronMeshDesc@physx@@QEBA_NXZ 0000000180198290 f i GuCookingTetrahedronMesh.obj
 0001:00197300       ?loadFromDesc@TetrahedronMeshBuilder@physx@@SA_NAEBVPxTetrahedronMeshDesc@2@0VPxSoftBodySimulationDataDesc@2@AEAVTetrahedronMeshData@Gu@2@AEAVSoftBodySimulationData@62@2AEAVSoftBodyCollisionData@62@AEAVCollisionMeshMappingData@62@AEBUPxCookingParams@2@_N@Z 0000000180198300 f   GuCookingTetrahedronMesh.obj
 0001:00197470       ?release@CollisionTetrahedronMeshData@Gu@physx@@UEAAXXZ 0000000180198470 f i GuCookingTetrahedronMesh.obj
 0001:00197490       ?reserveInternal@?$PxHashBase@V?$PxPair@$$CBVSortedTriangleInds@@I@physx@@VSortedTriangleInds@@USortedTriangleIndsHash@@UGetKey@?$PxHashMapBase@VSortedTriangleInds@@IUSortedTriangleIndsHash@@VPxAllocator@physx@@@2@VPxAllocator@2@$00@physx@@AEAAXI@Z 0000000180198490 f i GuCookingTetrahedronMesh.obj
 0001:001976d0       ?saveSoftBodyMeshData@TetrahedronMeshBuilder@physx@@SA_NAEAVPxOutputStream@2@_NAEBUPxCookingParams@2@AEBVTetrahedronMeshData@Gu@2@AEBVSoftBodySimulationData@62@3AEBVSoftBodyCollisionData@62@AEBVCollisionMeshMappingData@62@@Z 00000001801986d0 f   GuCookingTetrahedronMesh.obj
 0001:00197de0       ?saveTetrahedronMeshData@TetrahedronMeshBuilder@physx@@SA_NAEAVPxOutputStream@2@_NAEBUPxCookingParams@2@AEBVTetrahedronMeshData@Gu@2@@Z 0000000180198de0 f   GuCookingTetrahedronMesh.obj
 0001:00197f90       ?smoothMassRatiosWhilePreservingTotalMass@@YAXPEAMIPEBIHMM@Z 0000000180198f90 f   GuCookingTetrahedronMesh.obj
 0001:00198430       ?support@?$LocalConvex@VTetrahedronV@Gu@physx@@@Gu@physx@@UEBA?AT__m128@@AEBT4@@Z 0000000180199430 f i GuCookingTetrahedronMesh.obj
 0001:001984f0       ?support@?$LocalConvex@VTetrahedronV@Gu@physx@@@Gu@physx@@UEBA?AT__m128@@AEBT4@AEAH@Z 00000001801994f0 f i GuCookingTetrahedronMesh.obj
 0001:001986a0       assembleSoftBodyMesh       00000001801996a0 f   GuCookingTetrahedronMesh.obj
 0001:00198700       assembleSoftBodyMesh_Sim   0000000180199700 f   GuCookingTetrahedronMesh.obj
 0001:001987b0       computeCollisionData       00000001801997b0 f   GuCookingTetrahedronMesh.obj
 0001:001989b0       computeModelsMapping       00000001801999b0 f   GuCookingTetrahedronMesh.obj
 0001:00198ab0       computeSimulationData      0000000180199ab0 f   GuCookingTetrahedronMesh.obj
 0001:00198c80       cookSoftBodyMesh           0000000180199c80 f   GuCookingTetrahedronMesh.obj
 0001:001992a0       cookTetrahedronMesh        000000018019a2a0 f   GuCookingTetrahedronMesh.obj
 0001:00199390       createSoftBodyMesh         000000018019a390 f   GuCookingTetrahedronMesh.obj
 0001:00199a30       createTetrahedronMesh      000000018019aa30 f   GuCookingTetrahedronMesh.obj
 0001:0019b710       ?computeVolumeIntegrals@physx@@YA_NAEBVPxSimpleTriangleMesh@1@MAEAUPxIntegrals@1@@Z 000000018019c710 f   GuCookingVolumeIntegration.obj
 0001:0019b750       ?computeVolumeIntegralsEberly@physx@@YA_NAEBVPxConvexMeshDesc@1@MAEAUPxIntegrals@1@AEBV?$PxVec3T@M@1@_N@Z 000000018019c750 f   GuCookingVolumeIntegration.obj
 0001:0019bdb0       ??0QuickHull@local@@QEAA@AEBUPxCookingParams@physx@@AEBVPxConvexMeshDesc@3@@Z 000000018019cdb0 f   GuCookingQuickHullConvexHullLib.obj
 0001:0019be60       ??0QuickHullConvexHullLib@physx@@QEAA@AEBVPxConvexMeshDesc@1@AEBUPxCookingParams@1@@Z 000000018019ce60 f   GuCookingQuickHullConvexHullLib.obj
 0001:0019bf40       ??1?$MemBlock@UQuickHullFace@local@@$00@local@@QEAA@XZ 000000018019cf40 f i GuCookingQuickHullConvexHullLib.obj
 0001:0019bf40       ??1?$MemBlock@UQuickHullHalfEdge@local@@$0A@@local@@QEAA@XZ 000000018019cf40 f i GuCookingQuickHullConvexHullLib.obj
 0001:0019c000       ??1QuickHull@local@@QEAA@XZ 000000018019d000 f   GuCookingQuickHullConvexHullLib.obj
 0001:0019c160       ??_GConvexHull@physx@@QEAAPEAXI@Z 000000018019d160 f i GuCookingQuickHullConvexHullLib.obj
 0001:0019c250       ??_EConvexHullLib@physx@@UEAAPEAXI@Z 000000018019d250 f i GuCookingQuickHullConvexHullLib.obj
 0001:0019c250       ??_GConvexHullLib@physx@@UEAAPEAXI@Z 000000018019d250 f i GuCookingQuickHullConvexHullLib.obj
 0001:0019c290       ??_EQuickHullConvexHullLib@physx@@UEAAPEAXI@Z 000000018019d290 f i GuCookingQuickHullConvexHullLib.obj
 0001:0019c290       ??_GQuickHullConvexHullLib@physx@@UEAAPEAXI@Z 000000018019d290 f i GuCookingQuickHullConvexHullLib.obj
 0001:0019c3b0       ?addPointToHull@QuickHull@local@@IEAA_NPEBUQuickHullVertex@2@AEAUQuickHullFace@2@AEA_N@Z 000000018019d3b0 f   GuCookingQuickHullConvexHullLib.obj
 0001:0019c680       ?addSimplex@QuickHull@local@@IEAAXPEAUQuickHullVertex@2@_N@Z 000000018019d680 f   GuCookingQuickHullConvexHullLib.obj
 0001:0019cb50       ?allocate@?$PxArray@PEAUQuickHullFace@local@@V?$PxReflectionAllocator@PEAUQuickHullFace@local@@@physx@@@physx@@IEAAPEAPEAUQuickHullFace@local@@I@Z 000000018019db50 f i GuCookingQuickHullConvexHullLib.obj
 0001:0019cc00       ?allocate@?$PxArray@PEAUQuickHullHalfEdge@local@@V?$PxReflectionAllocator@PEAUQuickHullHalfEdge@local@@@physx@@@physx@@IEAAPEAPEAUQuickHullHalfEdge@local@@I@Z 000000018019dc00 f i GuCookingQuickHullConvexHullLib.obj
 0001:0019ccb0       ?allocate@?$PxArray@PEAUQuickHullVertex@local@@V?$PxReflectionAllocator@PEAUQuickHullVertex@local@@@physx@@@physx@@IEAAPEAPEAUQuickHullVertex@local@@I@Z 000000018019dcb0 f i GuCookingQuickHullConvexHullLib.obj
 0001:0019cd60       ?allocate@?$PxArray@UExpandPoint@local@@V?$PxReflectionAllocator@UExpandPoint@local@@@physx@@@physx@@IEAAPEAUExpandPoint@local@@I@Z 000000018019dd60 f i GuCookingQuickHullConvexHullLib.obj
 0001:0019ce10       ?allocate@?$PxArray@VPxPlane@physx@@V?$PxReflectionAllocator@VPxPlane@physx@@@2@@physx@@IEAAPEAVPxPlane@2@I@Z 000000018019de10 f i GuCookingQuickHullConvexHullLib.obj
 0001:0019cec0       ?buildHull@QuickHull@local@@QEAA?AW4Enum@QuickHullResult@2@XZ 000000018019dec0 f   GuCookingQuickHullConvexHullLib.obj
 0001:0019d110       ?calculateHorizon@QuickHull@local@@IEAAXAEBV?$PxVec3T@M@physx@@PEAUQuickHullHalfEdge@2@AEAUQuickHullFace@2@AEAV?$PxArray@PEAUQuickHullHalfEdge@local@@V?$PxReflectionAllocator@PEAUQuickHullHalfEdge@local@@@physx@@@4@AEAV?$PxArray@PEAUQuickHullFace@local@@V?$PxReflectionAllocator@PEAUQuickHullFace@local@@@physx@@@4@@Z 000000018019e110 f   GuCookingQuickHullConvexHullLib.obj
 0001:0019d2c0       ?canMergeFaces@QuickHull@local@@IEAA_NAEBUQuickHullHalfEdge@2@@Z 000000018019e2c0 f   GuCookingQuickHullConvexHullLib.obj
 0001:0019daf0       ?cleanupForSimplex@QuickHullConvexHullLib@physx@@IEAA_NPEAV?$PxVec3T@M@2@IPEAUQuickHullVertex@local@@1AEAM2@Z 000000018019eaf0 f   GuCookingQuickHullConvexHullLib.obj
 0001:0019e710       ?computeMinMaxVerts@QuickHull@local@@IEAAXXZ 000000018019f710 f   GuCookingQuickHullConvexHullLib.obj
 0001:0019eae0       ?connectHalfEdges@QuickHullFace@local@@AEAAPEAU12@PEAUQuickHullHalfEdge@2@0@Z 000000018019fae0 f   GuCookingQuickHullConvexHullLib.obj
 0001:0019ee50       ?copy@?$PxArray@UExpandPoint@local@@V?$PxReflectionAllocator@UExpandPoint@local@@@physx@@@physx@@KAXPEAUExpandPoint@local@@0PEBU34@@Z 000000018019fe50 f i GuCookingQuickHullConvexHullLib.obj
 0001:0019ef00       ?copy@?$PxArray@VPxPlane@physx@@V?$PxReflectionAllocator@VPxPlane@physx@@@2@@physx@@KAXPEAVPxPlane@2@0PEBV32@@Z 000000018019ff00 f i GuCookingQuickHullConvexHullLib.obj
 0001:0019f000       ?createConvexHull@QuickHullConvexHullLib@physx@@UEAA?AW4Enum@PxConvexMeshCookingResult@2@XZ 00000001801a0000 f   GuCookingQuickHullConvexHullLib.obj
 0001:0019f410       ?createEdgeList@QuickHullConvexHullLib@physx@@UEAA_NIPEBEPEAPEAEPEAPEAG2@Z 00000001801a0410 f   GuCookingQuickHullConvexHullLib.obj
 0001:0019f630       ?createTriangle@QuickHull@local@@IEAAPEAUQuickHullFace@2@AEBUQuickHullVertex@2@00@Z 00000001801a0630 f   GuCookingQuickHullConvexHullLib.obj
 0001:0019fa20       ?doAdjacentMerge@QuickHull@local@@IEAA_NAEAUQuickHullFace@2@_NAEA_N@Z 00000001801a0a20 f   GuCookingQuickHullConvexHullLib.obj
 0001:0019fd70       ?expandHull@QuickHullConvexHullLib@physx@@IEAA?AW4Enum@PxConvexMeshCookingResult@2@XZ 00000001801a0d70 f   GuCookingQuickHullConvexHullLib.obj
 0001:001a06b0       ?expandHullOBB@QuickHullConvexHullLib@physx@@IEAA?AW4Enum@PxConvexMeshCookingResult@2@XZ 00000001801a16b0 f   GuCookingQuickHullConvexHullLib.obj
 0001:001a0af0       ?fillConvexMeshDesc@QuickHullConvexHullLib@physx@@UEAAXAEAVPxConvexMeshDesc@2@@Z 00000001801a1af0 f   GuCookingQuickHullConvexHullLib.obj
 0001:001a0b40       ?fillConvexMeshDescFromCroppedHull@QuickHullConvexHullLib@physx@@IEAAXAEAVPxConvexMeshDesc@2@@Z 00000001801a1b40 f   GuCookingQuickHullConvexHullLib.obj
 0001:001a0d30       ?fillConvexMeshDescFromQuickHull@QuickHullConvexHullLib@physx@@IEAAXAEAVPxConvexMeshDesc@2@@Z 00000001801a1d30 f   GuCookingQuickHullConvexHullLib.obj
 0001:001a10b0       ?findSimplex@QuickHull@local@@IEAA_NXZ 00000001801a20b0 f   GuCookingQuickHullConvexHullLib.obj
 0001:001a1d30       ?getFreeItem@?$MemBlock@UQuickHullFace@local@@$00@local@@QEAAPEAUQuickHullFace@2@XZ 00000001801a2d30 f i GuCookingQuickHullConvexHullLib.obj
 0001:001a1e60       ?getFreeItem@?$MemBlock@UQuickHullHalfEdge@local@@$0A@@local@@QEAAPEAUQuickHullHalfEdge@2@XZ 00000001801a2e60 f i GuCookingQuickHullConvexHullLib.obj
 0001:001a1f30       ?growAndPushBack@?$PxArray@PEAUQuickHullFace@local@@V?$PxReflectionAllocator@PEAUQuickHullFace@local@@@physx@@@physx@@IEAAAEAPEAUQuickHullFace@local@@AEBQEAU34@@Z 00000001801a2f30 f i GuCookingQuickHullConvexHullLib.obj
 0001:001a1ff0       ?growAndPushBack@?$PxArray@PEAUQuickHullHalfEdge@local@@V?$PxReflectionAllocator@PEAUQuickHullHalfEdge@local@@@physx@@@physx@@IEAAAEAPEAUQuickHullHalfEdge@local@@AEBQEAU34@@Z 00000001801a2ff0 f i GuCookingQuickHullConvexHullLib.obj
 0001:001a20b0       ?growAndPushBack@?$PxArray@PEAUQuickHullVertex@local@@V?$PxReflectionAllocator@PEAUQuickHullVertex@local@@@physx@@@physx@@IEAAAEAPEAUQuickHullVertex@local@@AEBQEAU34@@Z 00000001801a30b0 f i GuCookingQuickHullConvexHullLib.obj
 0001:001a2170       ?growAndPushBack@?$PxArray@UExpandPoint@local@@V?$PxReflectionAllocator@UExpandPoint@local@@@physx@@@physx@@IEAAAEAUExpandPoint@local@@AEBU34@@Z 00000001801a3170 f i GuCookingQuickHullConvexHullLib.obj
 0001:001a2270       ?growAndPushBack@?$PxArray@VPxPlane@physx@@V?$PxReflectionAllocator@VPxPlane@physx@@@2@@physx@@IEAAAEAVPxPlane@2@AEBV32@@Z 00000001801a3270 f i GuCookingQuickHullConvexHullLib.obj
 0001:001a2330       ?init@?$MemBlock@UQuickHullFace@local@@$00@local@@QEAAXI@Z 00000001801a3330 f i GuCookingQuickHullConvexHullLib.obj
 0001:001a2430       ?init@?$MemBlock@UQuickHullHalfEdge@local@@$0A@@local@@QEAAXI@Z 00000001801a3430 f i GuCookingQuickHullConvexHullLib.obj
 0001:001a24d0       ?mergeAdjacentFace@QuickHullFace@local@@QEAA_NPEAUQuickHullHalfEdge@2@AEAV?$PxArray@PEAUQuickHullFace@local@@V?$PxReflectionAllocator@PEAUQuickHullFace@local@@@physx@@@physx@@@Z 00000001801a34d0 f   GuCookingQuickHullConvexHullLib.obj
 0001:001a2930       ?nextPointToAdd@QuickHull@local@@IEAAPEAUQuickHullVertex@2@AEAPEAUQuickHullFace@2@@Z 00000001801a3930 f   GuCookingQuickHullConvexHullLib.obj
 0001:001a2ab0       ?parseInputVertices@QuickHull@local@@QEAAXPEBV?$PxVec3T@M@physx@@I@Z 00000001801a3ab0 f   GuCookingQuickHullConvexHullLib.obj
 0001:001a2c30       ?postMergeHull@QuickHull@local@@IEAAXXZ 00000001801a3c30 f   GuCookingQuickHullConvexHullLib.obj
 0001:001a2e90       ?preallocate@QuickHull@local@@QEAAXI@Z 00000001801a3e90 f   GuCookingQuickHullConvexHullLib.obj
 0001:001a2fd0       ?recreate@?$PxArray@PEAUQuickHullFace@local@@V?$PxReflectionAllocator@PEAUQuickHullFace@local@@@physx@@@physx@@IEAAXI@Z 00000001801a3fd0 f i GuCookingQuickHullConvexHullLib.obj
 0001:001a3070       ?recreate@?$PxArray@PEAUQuickHullHalfEdge@local@@V?$PxReflectionAllocator@PEAUQuickHullHalfEdge@local@@@physx@@@physx@@IEAAXI@Z 00000001801a4070 f i GuCookingQuickHullConvexHullLib.obj
 0001:001a3110       ?recreate@?$PxArray@PEAUQuickHullVertex@local@@V?$PxReflectionAllocator@PEAUQuickHullVertex@local@@@physx@@@physx@@IEAAXI@Z 00000001801a4110 f i GuCookingQuickHullConvexHullLib.obj
 0001:001a31b0       ?recreate@?$PxArray@UExpandPoint@local@@V?$PxReflectionAllocator@UExpandPoint@local@@@physx@@@physx@@IEAAXI@Z 00000001801a41b0 f i GuCookingQuickHullConvexHullLib.obj
 0001:001a3240       ?recreate@?$PxArray@VPxPlane@physx@@V?$PxReflectionAllocator@VPxPlane@physx@@@2@@physx@@IEAAXI@Z 00000001801a4240 f i GuCookingQuickHullConvexHullLib.obj
 0001:001a32d0       ?resolveUnclaimedPoints@QuickHull@local@@IEAAXAEBV?$PxArray@PEAUQuickHullFace@local@@V?$PxReflectionAllocator@PEAUQuickHullFace@local@@@physx@@@physx@@@Z 00000001801a42d0 f   GuCookingQuickHullConvexHullLib.obj
 0001:001a3550       ??$copy@V?$PxReflectionAllocator@VPair@@@physx@@@?$PxArray@VPair@@V?$PxReflectionAllocator@VPair@@@physx@@@physx@@IEAAXAEBV01@@Z 00000001801a4550 f i GuCookingConvexPolygonsBuilder.obj
 0001:001a35d0       ??0ConvexPolygonsBuilder@physx@@QEAA@PEAUConvexHullData@Gu@1@_N@Z 00000001801a45d0 f   GuCookingConvexPolygonsBuilder.obj
 0001:001a35f0       ??1ConvexPolygonsBuilder@physx@@QEAA@XZ 00000001801a45f0 f   GuCookingConvexPolygonsBuilder.obj
 0001:001a3e40       ?allocate@?$PxArray@VPair@@V?$PxReflectionAllocator@VPair@@@physx@@@physx@@IEAAPEAVPair@@I@Z 00000001801a4e40 f i GuCookingConvexPolygonsBuilder.obj
 0001:001a4940       ?computeHullPolygons@ConvexPolygonsBuilder@physx@@QEAA_NAEBIPEBV?$PxVec3T@M@2@0PEBI@Z 00000001801a5940 f   GuCookingConvexPolygonsBuilder.obj
 0001:001a5c00       ?createPolygonData@ConvexPolygonsBuilder@physx@@AEAA_NXZ 00000001801a6c00 f   GuCookingConvexPolygonsBuilder.obj
 0001:001a6660       ?createTrianglesFromPolygons@ConvexPolygonsBuilder@physx@@AEAA_NXZ 00000001801a7660 f   GuCookingConvexPolygonsBuilder.obj
 0001:001a7ce0       ?growAndPushBack@?$PxArray@VPair@@V?$PxReflectionAllocator@VPair@@@physx@@@physx@@IEAAAEAVPair@@AEBV3@@Z 00000001801a8ce0 f i GuCookingConvexPolygonsBuilder.obj
 0001:001a7e70       ??0ConvexMeshBuilder@physx@@QEAA@_N@Z 00000001801a8e70 f   GuCookingConvexMeshBuilder.obj
 0001:001a7ee0       ??1ConvexMeshBuilder@physx@@QEAA@XZ 00000001801a8ee0 f   GuCookingConvexMeshBuilder.obj
 0001:001a8370       ?build@ConvexMeshBuilder@physx@@QEAA_NAEBVPxConvexMeshDesc@2@I_NPEAVConvexHullLib@2@@Z 00000001801a9370 f   GuCookingConvexMeshBuilder.obj
 0001:001a8710       ?computeHullPolygons@ConvexMeshBuilder@physx@@QEAA_NAEBIPEBV?$PxVec3T@M@2@0PEBIAEAVPxAllocatorCallback@2@AEAIAEAPEAV32@4AEAPEAI4AEAPEAUPxHullPolygon@2@@Z 00000001801a9710 f   GuCookingConvexMeshBuilder.obj
 0001:001a8920       ?computeMassInfo@ConvexMeshBuilder@physx@@QEAAX_N@Z 00000001801a9920 f   GuCookingConvexMeshBuilder.obj
 0001:001a8cb0       ?computeSDF@ConvexMeshBuilder@physx@@QEAAXAEBVPxConvexMeshDesc@2@@Z 00000001801a9cb0 f   GuCookingConvexMeshBuilder.obj
 0001:001a90e0       ?copy@ConvexMeshBuilder@physx@@QEAA_NAEAUConvexHullInitData@Gu@2@@Z 00000001801aa0e0 f   GuCookingConvexMeshBuilder.obj
 0001:001a9240       ?loadConvexHull@ConvexMeshBuilder@physx@@QEAA_NAEBVPxConvexMeshDesc@2@PEAVConvexHullLib@2@@Z 00000001801aa240 f   GuCookingConvexMeshBuilder.obj
 0001:001a9490       ?save@ConvexMeshBuilder@physx@@QEBA_NAEAVPxOutputStream@2@_N@Z 00000001801aa490 f   GuCookingConvexMeshBuilder.obj
 0001:001a98b0       ??0ConvexHull@physx@@QEAA@AEBV?$PxVec3T@M@1@AEBV?$PxTransformT@M@1@AEBV?$PxArray@VPxPlane@physx@@V?$PxReflectionAllocator@VPxPlane@physx@@@2@@1@@Z 00000001801aa8b0 f   GuCookingConvexHullUtils.obj
 0001:001aa9d0       ?allocate@?$PxArray@VHalfEdge@ConvexHull@physx@@V?$PxReflectionAllocator@VHalfEdge@ConvexHull@physx@@@3@@physx@@IEAAPEAVHalfEdge@ConvexHull@2@I@Z 00000001801ab9d0 f i GuCookingConvexHullUtils.obj
 0001:001aaa80       ?assertIntact@ConvexHull@physx@@QEBA_NM@Z 00000001801aba80 f   GuCookingConvexHullUtils.obj
 0001:001aada0       ?computeOBBFromConvex@physx@@YA_NAEBVPxConvexMeshDesc@1@AEAV?$PxVec3T@M@1@AEAV?$PxTransformT@M@1@@Z 00000001801abda0 f   GuCookingConvexHullUtils.obj
 0001:001ab400       ?computeOBBSIMD@local@@YAXIPEBT__m128@@AEAT2@AEBT2@1@Z 00000001801ac400 f   GuCookingConvexHullUtils.obj
 0001:001ab7b0       ?convexHullCrop@physx@@YAPEAVConvexHull@1@AEBV21@AEBVPxPlane@1@M@Z 00000001801ac7b0 f   GuCookingConvexHullUtils.obj
 0001:001ac5b0       ?findCandidatePlane@ConvexHull@physx@@QEBAHMM@Z 00000001801ad5b0 f   GuCookingConvexHullUtils.obj
 0001:001aca00       ?growAndPushBack@?$PxArray@VHalfEdge@ConvexHull@physx@@V?$PxReflectionAllocator@VHalfEdge@ConvexHull@physx@@@3@@physx@@IEAAAEAVHalfEdge@ConvexHull@2@AEBV342@@Z 00000001801ada00 f i GuCookingConvexHullUtils.obj
 0001:001acac0       ?maxNumVertsPerFace@ConvexHull@physx@@QEBAIXZ 00000001801adac0 f   GuCookingConvexHullUtils.obj
 0001:001acb30       ?recreate@?$PxArray@VHalfEdge@ConvexHull@physx@@V?$PxReflectionAllocator@VHalfEdge@ConvexHull@physx@@@3@@physx@@IEAAXI@Z 00000001801adb30 f i GuCookingConvexHullUtils.obj
 0001:001acbd0       ?resize@?$PxArray@VHalfEdge@ConvexHull@physx@@V?$PxReflectionAllocator@VHalfEdge@ConvexHull@physx@@@3@@physx@@QEAAXIAEBVHalfEdge@ConvexHull@2@@Z 00000001801adbd0 f i GuCookingConvexHullUtils.obj
 0001:001acc90       ?resize@?$PxArray@VPxPlane@physx@@V?$PxReflectionAllocator@VPxPlane@physx@@@2@@physx@@QEAAXIAEBVPxPlane@2@@Z 00000001801adc90 f i GuCookingConvexHullUtils.obj
 0001:001acdb0       ??1ConvexHullLib@physx@@UEAA@XZ 00000001801addb0 f   GuCookingConvexHullLib.obj
 0001:001ad3a0       ?cleanupVertices@ConvexHullLib@physx@@IEAA_NIPEBV?$PxVec3T@M@2@IAEAIPEAV32@@Z 00000001801ae3a0 f   GuCookingConvexHullLib.obj
 0001:001ad4e0       ?shiftAndcleanupVertices@ConvexHullLib@physx@@IEAA_NIPEBV?$PxVec3T@M@2@IAEAIPEAV32@@Z 00000001801ae4e0 f   GuCookingConvexHullLib.obj
 0001:001adac0       ?shiftConvexMeshDesc@ConvexHullLib@physx@@IEAAXAEAVPxConvexMeshDesc@2@@Z 00000001801aeac0 f   GuCookingConvexHullLib.obj
 0001:001adb80       ?swapLargestFace@ConvexHullLib@physx@@IEAAXAEAVPxConvexMeshDesc@2@@Z 00000001801aeb80 f   GuCookingConvexHullLib.obj
 0001:001addb0       ??0ConvexHullBuilder@physx@@QEAA@PEAUConvexHullData@Gu@1@_N@Z 00000001801aedb0 f   GuCookingConvexHullBuilder.obj
 0001:001adde0       ??1ConvexHullBuilder@physx@@QEAA@XZ 00000001801aede0 f   GuCookingConvexHullBuilder.obj
 0001:001adef0       ?calculateVertexMapTable@ConvexHullBuilder@physx@@QEAA_NI_N@Z 00000001801aeef0 f   GuCookingConvexHullBuilder.obj
 0001:001ae0b0       ?checkHullPolygons@ConvexHullBuilder@physx@@QEBA_NXZ 00000001801af0b0 f   GuCookingConvexHullBuilder.obj
 0001:001ae670       ?copy@ConvexHullBuilder@physx@@QEAA_NAEAUConvexHullData@Gu@2@AEAI@Z 00000001801af670 f   GuCookingConvexHullBuilder.obj
 0001:001ae8e0       ?createEdgeList@ConvexHullBuilder@physx@@QEAA_N_NI@Z 00000001801af8e0 f   GuCookingConvexHullBuilder.obj
 0001:001af020       ?init@ConvexHullBuilder@physx@@QEAA_NIPEBV?$PxVec3T@M@2@PEBIIIPEBUPxHullPolygon@2@_NPEAVConvexHullLib@2@@Z 00000001801b0020 f   GuCookingConvexHullBuilder.obj
 0001:001af960       ?save@ConvexHullBuilder@physx@@QEBA_NAEAVPxOutputStream@2@_N@Z 00000001801b0960 f   GuCookingConvexHullBuilder.obj
 0001:001afc80       ??0BigConvexDataBuilder@physx@@QEAA@PEBUConvexHullData@Gu@1@PEAVBigConvexData@1@PEBV?$PxVec3T@M@1@@Z 00000001801b0c80 f   GuCookingBigConvexDataBuilder.obj
 0001:001afc90       ?computeValencies@BigConvexDataBuilder@physx@@QEAA_NAEBVConvexHullBuilder@2@@Z 00000001801b0c90 f   GuCookingBigConvexDataBuilder.obj
 0001:001b0080       ?precompute@BigConvexDataBuilder@physx@@QEAA_NI@Z 00000001801b1080 f   GuCookingBigConvexDataBuilder.obj
 0001:001b0c70       ?save@BigConvexDataBuilder@physx@@QEBA_NAEAVPxOutputStream@2@_N@Z 00000001801b1c70 f   GuCookingBigConvexDataBuilder.obj
 0001:001b0e5e       __imp_load_PxGetFoundation 00000001801b1e5e f   PhysXFoundation_64:PhysXFoundation_64.dll
 0001:001b0e6a       __tailMerge_physxfoundation_64_dll 00000001801b1e6a     PhysXFoundation_64:PhysXFoundation_64.dll
 0001:001b0ee3       __imp_load_PxGetBroadcastAllocator 00000001801b1ee3 f   PhysXFoundation_64:PhysXFoundation_64.dll
 0001:001b0eef       __imp_load_?PxAtomicIncrement@physx@@YAHPECH@Z 00000001801b1eef f   PhysXFoundation_64:PhysXFoundation_64.dll
 0001:001b0efb       __imp_load_??0PxMutexImpl@physx@@QEAA@XZ 00000001801b1efb f   PhysXFoundation_64:PhysXFoundation_64.dll
 0001:001b0f07       __imp_load_??1PxMutexImpl@physx@@QEAA@XZ 00000001801b1f07 f   PhysXFoundation_64:PhysXFoundation_64.dll
 0001:001b0f13       __imp_load_?lock@PxMutexImpl@physx@@QEAAXXZ 00000001801b1f13 f   PhysXFoundation_64:PhysXFoundation_64.dll
 0001:001b0f1f       __imp_load_?unlock@PxMutexImpl@physx@@QEAAXXZ 00000001801b1f1f f   PhysXFoundation_64:PhysXFoundation_64.dll
 0001:001b0f2b       __imp_load_?getSize@PxMutexImpl@physx@@SAIXZ 00000001801b1f2b f   PhysXFoundation_64:PhysXFoundation_64.dll
 0001:001b0f37       __imp_load_?PxAtomicDecrement@physx@@YAHPECH@Z 00000001801b1f37 f   PhysXFoundation_64:PhysXFoundation_64.dll
 0001:001b0f43       __imp_load_?PxTransformFromSegment@physx@@YA?AV?$PxTransformT@M@1@AEBV?$PxVec3T@M@1@0PEAM@Z 00000001801b1f43 f   PhysXFoundation_64:PhysXFoundation_64.dll
 0001:001b0f4f       __imp_load_?PxAtomicAdd@physx@@YAHPECHH@Z 00000001801b1f4f f   PhysXFoundation_64:PhysXFoundation_64.dll
 0001:001b0f5b       __imp_load_?getDefaultStackSize@PxThreadImpl@physx@@SAIXZ 00000001801b1f5b f   PhysXFoundation_64:PhysXFoundation_64.dll
 0001:001b0f67       __imp_load_??0PxThreadImpl@physx@@QEAA@P6APEAXPEAX@Z0PEBD@Z 00000001801b1f67 f   PhysXFoundation_64:PhysXFoundation_64.dll
 0001:001b0f73       __imp_load_??1PxThreadImpl@physx@@QEAA@XZ 00000001801b1f73 f   PhysXFoundation_64:PhysXFoundation_64.dll
 0001:001b0f7f       __imp_load_?start@PxThreadImpl@physx@@QEAAXIPEAVPxRunnable@2@@Z 00000001801b1f7f f   PhysXFoundation_64:PhysXFoundation_64.dll
 0001:001b0f8b       __imp_load_?waitForQuit@PxThreadImpl@physx@@QEAA_NXZ 00000001801b1f8b f   PhysXFoundation_64:PhysXFoundation_64.dll
 0001:001b0f97       __imp_load_?getSize@PxThreadImpl@physx@@SAIXZ 00000001801b1f97 f   PhysXFoundation_64:PhysXFoundation_64.dll
 0001:001b0fa3       __imp_load_?allocate@PxTempAllocator@physx@@QEAAPEAX_KPEBDH@Z 00000001801b1fa3 f   PhysXFoundation_64:PhysXFoundation_64.dll
 0001:001b0faf       __imp_load_?deallocate@PxTempAllocator@physx@@QEAAXPEAX@Z 00000001801b1faf f   PhysXFoundation_64:PhysXFoundation_64.dll
 0001:001b0fbb       __imp_load_?PxOptimizeBoundingBox@physx@@YA?AV?$PxVec3T@M@1@AEAV?$PxMat33T@M@1@@Z 00000001801b1fbb f   PhysXFoundation_64:PhysXFoundation_64.dll
 0001:001b0fc7       __imp_load_PxGetProfilerCallback 00000001801b1fc7 f   PhysXFoundation_64:PhysXFoundation_64.dll
 0001:001b0fd3       __imp_load_??0PxFPUGuard@physx@@QEAA@XZ 00000001801b1fd3 f   PhysXFoundation_64:PhysXFoundation_64.dll
 0001:001b0fdf       __imp_load_??1PxFPUGuard@physx@@QEAA@XZ 00000001801b1fdf f   PhysXFoundation_64:PhysXFoundation_64.dll
 0001:001b0feb       __imp_load_?PxDiagonalize@physx@@YA?AV?$PxVec3T@M@1@AEBV?$PxMat33T@M@1@AEAV?$PxQuatT@M@1@@Z 00000001801b1feb f   PhysXFoundation_64:PhysXFoundation_64.dll
 0001:001b0ff8       ?DloadAcquireSectionWriteAccess@@YAXXZ 00000001801b1ff8 f i Delayimp:delayhlp.obj
 0001:001b10a4       ?DloadGetSRWLockFunctionPointers@@YAEXZ 00000001801b20a4 f i Delayimp:delayhlp.obj
 0001:001b1144       ?DloadMakePermanentImageCommit@@YAXPEAX_K@Z 00000001801b2144 f i Delayimp:delayhlp.obj
 0001:001b11dc       ?DloadObtainSection@@YAPEAXPEAK0@Z 00000001801b21dc f i Delayimp:delayhlp.obj
 0001:001b1278       ?DloadProtectSection@@YAXKPEAK@Z 00000001801b2278 f i Delayimp:delayhlp.obj
 0001:001b1308       ?DloadReleaseSectionWriteAccess@@YAXXZ 00000001801b2308 f i Delayimp:delayhlp.obj
 0001:001b139c       __delayLoadHelper2         00000001801b239c f   Delayimp:delayhlp.obj
 0001:001b1674       ??3@YAXPEAX_K@Z            00000001801b2674 f   LIBCMT:delete_scalar_size.obj
 0001:001b1674       ??_V@YAXPEAX@Z             00000001801b2674 f   LIBCMT:delete_array.obj
 0001:001b167c       ??_Etype_info@@UEAAPEAXI@Z 00000001801b267c f i LIBCMT:std_type_info_static.obj
 0001:001b167c       ??_Gtype_info@@UEAAPEAXI@Z 00000001801b267c f i LIBCMT:std_type_info_static.obj
 0001:001b16a8       ?__scrt_initialize_type_info@@YAXXZ 00000001801b26a8 f   LIBCMT:tncleanup.obj
 0001:001b16b8       ?__scrt_uninitialize_type_info@@YAXXZ 00000001801b26b8 f   LIBCMT:tncleanup.obj
 0001:001b16e0       __chkstk                   00000001801b26e0 f   LIBCMT:chkstk.obj
 0001:001b16e0       _alloca_probe              00000001801b26e0 f   LIBCMT:chkstk.obj
 0001:001b1730       __vdecl_sinf4              00000001801b2730 f   LIBCMT:svml_ssinf4_dispatch.obj
 0001:001b1750       __libm_sse2_sincosf_       00000001801b2750 f   LIBCMT:svml_ssinf4_dispatch.obj
 0001:001b1793       __libm_sse2_sincosf4_      00000001801b2793 f   LIBCMT:svml_ssinf4_dispatch.obj
 0001:001b17a0       ??3@YAXPEAX@Z              00000001801b27a0 f   LIBCMT:delete_scalar.obj
 0001:001b17a8       __scrt_acquire_startup_lock 00000001801b27a8 f   LIBCMT:utility.obj
 0001:001b17e4       __scrt_dllmain_after_initialize_c 00000001801b27e4 f   LIBCMT:utility.obj
 0001:001b1818       __scrt_dllmain_before_initialize_c 00000001801b2818 f   LIBCMT:utility.obj
 0001:001b1830       __scrt_dllmain_crt_thread_attach 00000001801b2830 f   LIBCMT:utility.obj
 0001:001b1858       __scrt_dllmain_crt_thread_detach 00000001801b2858 f   LIBCMT:utility.obj
 0001:001b1870       __scrt_dllmain_exception_filter 00000001801b2870 f   LIBCMT:utility.obj
 0001:001b18d0       __scrt_dllmain_uninitialize_c 00000001801b28d0 f   LIBCMT:utility.obj
 0001:001b1900       __scrt_dllmain_uninitialize_critical 00000001801b2900 f   LIBCMT:utility.obj
 0001:001b1914       __scrt_initialize_crt      00000001801b2914 f   LIBCMT:utility.obj
 0001:001b1960       __scrt_initialize_onexit_tables 00000001801b2960 f   LIBCMT:utility.obj
 0001:001b19ec       __scrt_is_nonwritable_in_current_image 00000001801b29ec f   LIBCMT:utility.obj
 0001:001b1a84       __scrt_release_startup_lock 00000001801b2a84 f   LIBCMT:utility.obj
 0001:001b1aa8       __scrt_uninitialize_crt    00000001801b2aa8 f   LIBCMT:utility.obj
 0001:001b1ad4       _onexit                    00000001801b2ad4 f   LIBCMT:utility.obj
 0001:001b1b10       atexit                     00000001801b2b10 f   LIBCMT:utility.obj
 0001:001b1b28       __isa_available_init       00000001801b2b28 f   LIBCMT:cpu_disp.obj
 0001:001b1ff4       _DllMainCRTStartup         00000001801b2ff4 f   LIBCMT:dll_dllmain.obj
 0001:001b2040       __sse2_sinf4@@16           00000001801b3040 f   LIBCMT:svml_ssinf4_sse2.obj
 0001:001b2980       __sse4_sinf4@@16           00000001801b3980 f   LIBCMT:svml_ssinf4_sse4.obj
 0001:001b30f4       __scrt_is_ucrt_dll_in_use  00000001801b40f4 f   LIBCMT:ucrt_detection.obj
 0001:001b3100       __crt_debugger_hook        00000001801b4100 f   LIBCMT:utility_desktop.obj
 0001:001b3108       __scrt_fastfail            00000001801b4108 f   LIBCMT:utility_desktop.obj
 0001:001b3254       __security_init_cookie     00000001801b4254 f   LIBCMT:gs_support.obj
 0001:001b3300       __local_stdio_scanf_options 00000001801b4300 f i LIBCMT:default_local_stdio_options.obj
 0001:001b3308       __scrt_initialize_default_local_stdio_options 00000001801b4308 f   LIBCMT:default_local_stdio_options.obj
 0001:001b3324       __scrt_get_dyn_tls_init_callback 00000001801b4324 f   LIBCMT:dyn_tls_init.obj
 0001:001b332c       _RTC_Initialize            00000001801b432c f   LIBCMT:initsect.obj
 0001:001b3368       _RTC_Terminate             00000001801b4368 f   LIBCMT:initsect.obj
 0001:001b33b0       __common_ssin_cout_rare    00000001801b43b0 f   LIBCMT:svml_s_sin_cout.obj
 0001:001b3430       memcpy_repmovs             00000001801b4430 f   libvcruntime:memcpy.obj
 0001:001b3450       memcpy                     00000001801b4450 f   libvcruntime:memcpy.obj
 0001:001b3450       memmove                    00000001801b4450 f   libvcruntime:memcpy.obj
 0001:001b3ac8       _get_purecall_handler      00000001801b4ac8 f   libvcruntime:purevirt.obj
 0001:001b3ad4       _purecall                  00000001801b4ad4 f   libvcruntime:purevirt.obj
 0001:001b3af8       __std_type_info_compare    00000001801b4af8 f   libvcruntime:std_type_info.obj
 0001:001b3b20       __std_type_info_destroy_list 00000001801b4b20 f   libvcruntime:std_type_info.obj
 0001:001b3b4c       __std_type_info_name       00000001801b4b4c f   libvcruntime:std_type_info.obj
 0001:001b3c80       memset_repstos             00000001801b4c80 f   libvcruntime:memset.obj
 0001:001b3ca0       memset                     00000001801b4ca0 f   libvcruntime:memset.obj
 0001:001b4028       strstr                     00000001801b5028 f   libvcruntime:strstr.obj
 0001:001b4220       __vcrt_initialize          00000001801b5220 f   libvcruntime:initialization.obj
 0001:001b4248       __vcrt_thread_attach       00000001801b5248 f   libvcruntime:initialization.obj
 0001:001b425c       __vcrt_thread_detach       00000001801b525c f   libvcruntime:initialization.obj
 0001:001b4270       __vcrt_uninitialize        00000001801b5270 f   libvcruntime:initialization.obj
 0001:001b428c       __vcrt_uninitialize_critical 00000001801b528c f   libvcruntime:initialization.obj
 0001:001b429c       __C_specific_handler       00000001801b529c f   libvcruntime:riscchandler.obj
 0001:001b4494       __DestructExceptionObject  00000001801b5494 f   libvcruntime:ehhelpers.obj
 0001:001b4504       ?_CallMemberFunction0@@YAXQEAX0@Z 00000001801b5504 f i libvcruntime:ehhelpers.obj
 0001:001b4508       _IsExceptionObjectToBeDestroyed 00000001801b5508 f   libvcruntime:ehhelpers.obj
 0001:001b4538       __AdjustPointer            00000001801b5538 f   libvcruntime:ehhelpers.obj
 0001:001b455c       __FrameUnwindFilter        00000001801b555c f   libvcruntime:ehhelpers.obj
 0001:001b45c4       __std_terminate            00000001801b55c4 f   libvcruntime:ehhelpers.obj
 0001:001b45d0       ??$?0$00@DName@@QEAA@PEBDU?$StringLifeSelector@$00@@@Z 00000001801b55d0 f i libvcruntime:undname.obj
 0001:001b4610       ??$?0$01@DName@@QEAA@PEBDU?$StringLifeSelector@$01@@@Z 00000001801b5610 f i libvcruntime:undname.obj
 0001:001b4610       ??$?0$0A@@DName@@QEAA@PEBDU?$StringLifeSelector@$0A@@@@Z 00000001801b5610 f i libvcruntime:undname.obj
 0001:001b4650       ??$?0$01@pcharNode@@QEAA@PEBDHU?$StringLifeSelector@$01@@@Z 00000001801b5650 f i libvcruntime:undname.obj
 0001:001b4650       ??$?0$0A@@pcharNode@@QEAA@PEBDHU?$StringLifeSelector@$0A@@@@Z 00000001801b5650 f i libvcruntime:undname.obj
 0001:001b46c4       ??$append@VDNameNode@@@DName@@AEAAXPEBVDNameNode@@@Z 00000001801b56c4 f i libvcruntime:undname.obj
 0001:001b46c4       ??$append@VDNameStatusNode@@@DName@@AEAAXPEBVDNameStatusNode@@@Z 00000001801b56c4 f i libvcruntime:undname.obj
 0001:001b46c4       ??$append@VcharNode@@@DName@@AEAAXPEBVcharNode@@@Z 00000001801b56c4 f i libvcruntime:undname.obj
 0001:001b46c4       ??$append@VpcharNode@@@DName@@AEAAXPEBVpcharNode@@@Z 00000001801b56c4 f i libvcruntime:undname.obj
 0001:001b4728       ??$doPchar@$00@DName@@AEAAXPEBDH@Z 00000001801b5728 f i libvcruntime:undname.obj
 0001:001b47cc       ??$doPchar@$01@DName@@AEAAXPEBDH@Z 00000001801b57cc f i libvcruntime:undname.obj
 0001:001b47cc       ??$doPchar@$0A@@DName@@AEAAXPEBDH@Z 00000001801b57cc f i libvcruntime:undname.obj
 0001:001b4864       ??0DName@@QEAA@AEAPEBDD@Z  00000001801b5864 f   libvcruntime:undname.obj
 0001:001b4914       ??0DName@@QEAA@AEBUStringLiteral@@@Z 00000001801b5914 f   libvcruntime:undname.obj
 0001:001b4940       ??0DName@@QEAA@PEAV0@@Z    00000001801b5940 f   libvcruntime:undname.obj
 0001:001b49c4       ??0DName@@QEAA@_J@Z        00000001801b59c4 f   libvcruntime:undname.obj
 0001:001b4a6c       ??0DName@@QEAA@_K@Z        00000001801b5a6c f   libvcruntime:undname.obj
 0001:001b4afc       ??2@YAPEAX_KAEAV_HeapManager@@H@Z 00000001801b5afc f   libvcruntime:undname.obj
 0001:001b4b28       ??4DName@@QEAAAEAV0@W4DNameStatus@@@Z 00000001801b5b28 f   libvcruntime:undname.obj
 0001:001b4b58       ??AReplicator@@QEBA?AVDName@@H@Z 00000001801b5b58 f   libvcruntime:undname.obj
 0001:001b4b98       ??HDName@@QEBA?AV0@AEBUStringLiteral@@@Z 00000001801b5b98 f   libvcruntime:undname.obj
 0001:001b4bc4       ??HDName@@QEBA?AV0@AEBV0@@Z 00000001801b5bc4 f   libvcruntime:undname.obj
 0001:001b4bf0       ??HDName@@QEBA?AV0@D@Z     00000001801b5bf0 f   libvcruntime:undname.obj
 0001:001b4c1c       ??HDName@@QEBA?AV0@W4DNameStatus@@@Z 00000001801b5c1c f   libvcruntime:undname.obj
 0001:001b4c48       ??YDName@@QEAAAEAV0@AEBUStringLiteral@@@Z 00000001801b5c48 f   libvcruntime:undname.obj
 0001:001b4cc8       ??YDName@@QEAAAEAV0@AEBV0@@Z 00000001801b5cc8 f   libvcruntime:undname.obj
 0001:001b4d20       ??YDName@@QEAAAEAV0@D@Z    00000001801b5d20 f   libvcruntime:undname.obj
 0001:001b4d8c       ??YDName@@QEAAAEAV0@W4DNameStatus@@@Z 00000001801b5d8c f   libvcruntime:undname.obj
 0001:001b4de4       ??YReplicator@@QEAAAEAV0@AEBVDName@@@Z 00000001801b5de4 f   libvcruntime:undname.obj
 0001:001b4e3c       ?UScore@UnDecorator@@SA?AUStringLiteral@@W4Tokens@@@Z 00000001801b5e3c f   libvcruntime:undname.obj
 0001:001b4e88       ?composeDeclaration@UnDecorator@@CA?AVDName@@AEBV2@@Z 00000001801b5e88 f i libvcruntime:undname.obj
 0001:001b5d7c       ?doPchar@DName@@AEAAXD@Z   00000001801b6d7c f   libvcruntime:undname.obj
 0001:001b5dcc       ?getAddressOf@UnDecorator@@CA?AVDName@@XZ 00000001801b6dcc f   libvcruntime:undname.obj
 0001:001b5e5c       ?getArgumentList@UnDecorator@@CA?AVDName@@XZ 00000001801b6e5c f   libvcruntime:undname.obj
 0001:001b6010       ?getArgumentTypes@UnDecorator@@CA?AVDName@@XZ 00000001801b7010 f   libvcruntime:undname.obj
 0001:001b615c       ?getArrayAccess@UnDecorator@@CA?AVDName@@XZ 00000001801b715c f   libvcruntime:undname.obj
 0001:001b61f8       ?getArrayObject@UnDecorator@@CA?AVDName@@XZ 00000001801b71f8 f   libvcruntime:undname.obj
 0001:001b62b4       ?getArrayType@UnDecorator@@CA?AVDName@@AEBV2@@Z 00000001801b72b4 f i libvcruntime:undname.obj
 0001:001b6520       ?getBasedType@UnDecorator@@CA?AVDName@@XZ 00000001801b7520 f   libvcruntime:undname.obj
 0001:001b6618       ?getBasicDataType@UnDecorator@@CA?AVDName@@AEBV2@@Z 00000001801b7618 f   libvcruntime:undname.obj
 0001:001b6c1c       ?getCallingConvention@UnDecorator@@CA?AVDName@@XZ 00000001801b7c1c f   libvcruntime:undname.obj
 0001:001b6d54       ?getDataIndirectType@UnDecorator@@CA?AVDName@@AEBV2@W4IndirectionKind@@0H@Z 00000001801b7d54 f   libvcruntime:undname.obj
 0001:001b7678       ?getDataType@UnDecorator@@CA?AVDName@@PEAV2@@Z 00000001801b8678 f   libvcruntime:undname.obj
 0001:001b778c       ?getDecoratedName@UnDecorator@@CA?AVDName@@XZ 00000001801b878c f   libvcruntime:undname.obj
 0001:001b7a74       ?getDimension@UnDecorator@@CA?AVDName@@_N@Z 00000001801b8a74 f   libvcruntime:undname.obj
 0001:001b7bbc       ?getDispatchTarget@UnDecorator@@CA?AVDName@@XZ 00000001801b8bbc f   libvcruntime:undname.obj
 0001:001b7c1c       ?getECSUDataType@UnDecorator@@CA?AVDName@@XZ 00000001801b8c1c f   libvcruntime:undname.obj
 0001:001b7e18       ?getEnumType@UnDecorator@@CA?AVDName@@XZ 00000001801b8e18 f i libvcruntime:undname.obj
 0001:001b7f48       ?getExtendedDataIndirectType@UnDecorator@@CA?AVDName@@AEAW4IndirectionKind@@AEA_NH@Z 00000001801b8f48 f   libvcruntime:undname.obj
 0001:001b814c       ?getExternalDataType@UnDecorator@@CA?AVDName@@AEBV2@@Z 00000001801b914c f i libvcruntime:undname.obj
 0001:001b820c       ?getFloatingPoint@UnDecorator@@CA?AVDName@@H@Z 00000001801b920c f   libvcruntime:undname.obj
 0001:001b8374       ?getFunctionIndirectType@UnDecorator@@CA?AVDName@@AEBV2@@Z 00000001801b9374 f   libvcruntime:undname.obj
 0001:001b88a8       ?getLastChar@DNameStatusNode@@UEBADXZ 00000001801b98a8 f i libvcruntime:undname.obj
 0001:001b88b4       ?getLastChar@charNode@@UEBADXZ 00000001801b98b4 f i libvcruntime:undname.obj
 0001:001b88b8       ?getLastChar@pDNameNode@@UEBADXZ 00000001801b98b8 f i libvcruntime:undname.obj
 0001:001b88e4       ?getLastChar@pairNode@@UEBADXZ 00000001801b98e4 f i libvcruntime:undname.obj
 0001:001b891c       ?getLastChar@pcharNode@@UEBADXZ 00000001801b991c f i libvcruntime:undname.obj
 0001:001b8930       ?getLexicalFrame@UnDecorator@@CA?AVDName@@XZ 00000001801b9930 f i libvcruntime:undname.obj
 0001:001b8994       ?getMemberAccess@UnDecorator@@CA?AVDName@@XZ 00000001801b9994 f   libvcruntime:undname.obj
 0001:001b8a28       ?getMemoryWithBuffer@_HeapManager@@QEAAPEAX_K@Z 00000001801b9a28 f   libvcruntime:undname.obj
 0001:001b8ab8       ?getNoexcept@UnDecorator@@CA?AVDName@@XZ 00000001801b9ab8 f   libvcruntime:undname.obj
 0001:001b8b1c       ?getNumberOfDimensions@UnDecorator@@CAHXZ 00000001801b9b1c f   libvcruntime:undname.obj
 0001:001b8b84       ?getOperatorName@UnDecorator@@CA?AVDName@@_NPEA_N@Z 00000001801b9b84 f i libvcruntime:undname.obj
 0001:001b9534       ?getPointerToMember@UnDecorator@@CA?AVDName@@XZ 00000001801ba534 f   libvcruntime:undname.obj
 0001:001b962c       ?getPrimaryDataType@UnDecorator@@CA?AVDName@@AEBV2@@Z 00000001801ba62c f   libvcruntime:undname.obj
 0001:001b98e4       ?getPtrRefDataType@UnDecorator@@CA?AVDName@@AEBV2@H@Z 00000001801ba8e4 f   libvcruntime:undname.obj
 0001:001b9ab0       ?getPtrRefType@UnDecorator@@CA?AVDName@@AEBV2@0W4IndirectionKind@@@Z 00000001801baab0 f   libvcruntime:undname.obj
 0001:001b9c88       ?getRestrictionSpec@UnDecorator@@CA?AVDName@@XZ 00000001801bac88 f   libvcruntime:undname.obj
 0001:001b9e64       ?getReturnType@UnDecorator@@CA?AVDName@@PEAV2@@Z 00000001801bae64 f   libvcruntime:undname.obj
 0001:001b9e98       ?getScope@UnDecorator@@CA?AVDName@@XZ 00000001801bae98 f   libvcruntime:undname.obj
 0001:001ba350       ?getScopedName@UnDecorator@@CA?AVDName@@XZ 00000001801bb350 f   libvcruntime:undname.obj
 0001:001ba490       ?getSignedDimension@UnDecorator@@CA?AVDName@@XZ 00000001801bb490 f   libvcruntime:undname.obj
 0001:001ba518       ?getString@DNameStatusNode@@UEBAPEADPEAD0@Z 00000001801bb518 f i libvcruntime:undname.obj
 0001:001ba560       ?getString@charNode@@UEBAPEADPEAD0@Z 00000001801bb560 f i libvcruntime:undname.obj
 0001:001ba574       ?getString@pDNameNode@@UEBAPEADPEAD0@Z 00000001801bb574 f i libvcruntime:undname.obj
 0001:001ba5a4       ?getString@pairNode@@UEBAPEADPEAD0@Z 00000001801bb5a4 f i libvcruntime:undname.obj
 0001:001ba5f0       ?getString@pcharNode@@UEBAPEADPEAD0@Z 00000001801bb5f0 f i libvcruntime:undname.obj
 0001:001ba628       ?getStringEncoding@UnDecorator@@CA?AVDName@@W4PrefixKind@@H@Z 00000001801bb628 f   libvcruntime:undname.obj
 0001:001ba738       ?getStringObject@UnDecorator@@CA?AVDName@@XZ 00000001801bb738 f   libvcruntime:undname.obj
 0001:001ba7a0       ?getSymbolName@UnDecorator@@CA?AVDName@@XZ 00000001801bb7a0 f i libvcruntime:undname.obj
 0001:001ba7ec       ?getTemplateArgumentList@UnDecorator@@CA?AVDName@@XZ 00000001801bb7ec f   libvcruntime:undname.obj
 0001:001baa08       ?getTemplateName@UnDecorator@@CA?AVDName@@_N@Z 00000001801bba08 f   libvcruntime:undname.obj
 0001:001bac9c       ?getTemplateNonTypeArgument@UnDecorator@@CA?AVDName@@XZ 00000001801bbc9c f   libvcruntime:undname.obj
 0001:001bb1ec       ?getTemplateTypeArgument@UnDecorator@@CA?AVDName@@XZ 00000001801bc1ec f   libvcruntime:undname.obj
 0001:001bb354       ?getThrowTypes@UnDecorator@@CA?AVDName@@XZ 00000001801bc354 f   libvcruntime:undname.obj
 0001:001bb378       ?getTypeEncoding@UnDecorator@@CAHXZ 00000001801bc378 f i libvcruntime:undname.obj
 0001:001bb734       ?getUndecoratedName@UnDecorator@@QEAAPEADPEADH@Z 00000001801bc734 f i libvcruntime:undname.obj
 0001:001bb888       ?getUnionObject@UnDecorator@@CA?AVDName@@XZ 00000001801bc888 f   libvcruntime:undname.obj
 0001:001bb960       ?getVCallThunkType@UnDecorator@@CA?AVDName@@XZ 00000001801bc960 f i libvcruntime:undname.obj
 0001:001bb9d8       ?getValue@UnDecorator@@CA?AV?$optional@_K@std@@XZ 00000001801bc9d8 f   libvcruntime:undname.obj
 0001:001bba28       ?getValueObject@UnDecorator@@CA?AVDName@@XZ 00000001801bca28 f   libvcruntime:undname.obj
 0001:001bbb68       ?getVdispMapType@UnDecorator@@CA?AVDName@@AEBV2@@Z 00000001801bcb68 f i libvcruntime:undname.obj
 0001:001bbbe4       ?getVfTableType@UnDecorator@@CA?AVDName@@AEBV2@@Z 00000001801bcbe4 f i libvcruntime:undname.obj
 0001:001bbdf0       ?getZName@UnDecorator@@CA?AVDName@@_N0@Z 00000001801bcdf0 f   libvcruntime:undname.obj
 0001:001bc0c4       ?length@pDNameNode@@UEBAHXZ 00000001801bd0c4 f i libvcruntime:undname.obj
 0001:001bc0ec       ?length@pairNode@@UEBAHXZ  00000001801bd0ec f i libvcruntime:undname.obj
 0001:001bc134       ?parseDecoratedName@UnDecorator@@CA?AVDName@@XZ 00000001801bd134 f   libvcruntime:undname.obj
 0001:001bc24c       ?raw_length@pDNameNode@@UEBAHXZ 00000001801bd24c f i libvcruntime:undname.obj
 0001:001bc250       ?raw_length@pairNode@@UEBAHXZ 00000001801bd250 f i libvcruntime:undname.obj
 0001:001bc254       __unDName                  00000001801bd254 f   libvcruntime:undname.obj
 0001:001bc27c       __unDNameEx                00000001801bd27c f   libvcruntime:undname.obj
 0001:001bc3b0       snprintf                   00000001801bd3b0 f i libvcruntime:undname.obj
 0001:001bc408       sprintf_s                  00000001801bd408 f i libvcruntime:undname.obj
 0001:001bc45c       __vcrt_freefls             00000001801bd45c f   libvcruntime:per_thread_data.obj
 0001:001bc47c       __vcrt_freeptd             00000001801bd47c f   libvcruntime:per_thread_data.obj
 0001:001bc4cc       __vcrt_getptd              00000001801bd4cc f   libvcruntime:per_thread_data.obj
 0001:001bc4e8       __vcrt_getptd_noexit       00000001801bd4e8 f   libvcruntime:per_thread_data.obj
 0001:001bc5a8       __vcrt_initialize_ptd      00000001801bd5a8 f   libvcruntime:per_thread_data.obj
 0001:001bc5f0       __vcrt_uninitialize_ptd    00000001801bd5f0 f   libvcruntime:per_thread_data.obj
 0001:001bc614       __vcrt_initialize_locks    00000001801bd614 f   libvcruntime:locks.obj
 0001:001bc65c       __vcrt_lock                00000001801bd65c f   libvcruntime:locks.obj
 0001:001bc678       __vcrt_uninitialize_locks  00000001801bd678 f   libvcruntime:locks.obj
 0001:001bc6b0       __vcrt_unlock              00000001801bd6b0 f   libvcruntime:locks.obj
 0001:001bc6e0       _NLG_Notify                00000001801bd6e0 f   libvcruntime:notify.obj
 0001:001bc700       __NLG_Dispatch2            00000001801bd700 f   libvcruntime:notify.obj
 0001:001bc710       __NLG_Return2              00000001801bd710 f   libvcruntime:notify.obj
 0001:001bc714       __except_validate_context_record 00000001801bd714 f   libvcruntime:jbcxrval.obj
 0001:001bc74c       ??$_CallSETranslator@V__FrameHandler3@@@@YAHPEAUEHExceptionRecord@@PEA_KPEAU_CONTEXT@@PEAU_xDISPATCHER_CONTEXT@@PEBU_s_FuncInfo@@K1H@Z 00000001801bd74c f i libvcruntime:risctrnsctrl.obj
 0001:001bc7a0       ??$_CallSETranslator@V__FrameHandler4@@@@YAHPEAUEHExceptionRecord@@PEA_KPEAU_CONTEXT@@PEAU_xDISPATCHER_CONTEXT@@PEAUFuncInfo4@FH4@@K1H@Z 00000001801bd7a0 f i libvcruntime:risctrnsctrl.obj
 0001:001bc7f4       ?CatchTryBlock@__FrameHandler3@@SAPEBU_s_TryBlockMapEntry@@PEBU_s_FuncInfo@@H@Z 00000001801bd7f4 f   libvcruntime:risctrnsctrl.obj
 0001:001bc858       ?DecompFuncInfo@FH4@@YA_JPEAEAEAUFuncInfo4@1@_KH_N@Z 00000001801bd858 f i libvcruntime:risctrnsctrl.obj
 0001:001bc98c       ?ExecutionInCatch@__FrameHandler3@@SA_NPEAU_xDISPATCHER_CONTEXT@@PEBU_s_FuncInfo@@@Z 00000001801bd98c f   libvcruntime:risctrnsctrl.obj
 0001:001bc9b8       ?ExecutionInCatch@__FrameHandler4@@SA_NPEAU_xDISPATCHER_CONTEXT@@PEAUFuncInfo4@FH4@@@Z 00000001801bd9b8 f   libvcruntime:risctrnsctrl.obj
 0001:001bc9c0       ?FrameUnwindToEmptyState@__FrameHandler3@@SAXPEA_KPEAU_xDISPATCHER_CONTEXT@@PEBU_s_FuncInfo@@@Z 00000001801bd9c0 f   libvcruntime:risctrnsctrl.obj
 0001:001bca24       ?FrameUnwindToEmptyState@__FrameHandler4@@SAXPEA_KPEAU_xDISPATCHER_CONTEXT@@PEAUFuncInfo4@FH4@@@Z 00000001801bda24 f   libvcruntime:risctrnsctrl.obj
 0001:001bca58       ?GetEstablisherFrame@__FrameHandler3@@SAPEA_KPEA_KPEAU_xDISPATCHER_CONTEXT@@PEBU_s_FuncInfo@@0@Z 00000001801bda58 f   libvcruntime:risctrnsctrl.obj
 0001:001bcb24       ?GetEstablisherFrame@__FrameHandler4@@SAPEA_KPEA_KPEAU_xDISPATCHER_CONTEXT@@PEAUFuncInfo4@FH4@@0@Z 00000001801bdb24 f   libvcruntime:risctrnsctrl.obj
 0001:001bcb48       ?GetRangeOfTrysToCheck@__FrameHandler3@@SA?AU?$pair@Viterator@TryBlockMap@__FrameHandler3@@V123@@std@@AEAVTryBlockMap@1@HPEAU_xDISPATCHER_CONTEXT@@PEBU_s_FuncInfo@@H@Z 00000001801bdb48 f   libvcruntime:risctrnsctrl.obj
 0001:001bcc88       ?GetRangeOfTrysToCheck@__FrameHandler4@@SA?AU?$pair@Viterator@TryBlockMap4@FH4@@V123@@std@@AEAVTryBlockMap4@FH4@@HPEAU_xDISPATCHER_CONTEXT@@PEAUFuncInfo4@5@H@Z 00000001801bdc88 f   libvcruntime:risctrnsctrl.obj
 0001:001bcdf4       ?UnwindNestedFrames@__FrameHandler3@@SAXPEA_KPEAUEHExceptionRecord@@PEAU_CONTEXT@@0PEAXPEBU_s_FuncInfo@@HHPEBU_s_HandlerType@@PEAU_xDISPATCHER_CONTEXT@@E@Z 00000001801bddf4 f   libvcruntime:risctrnsctrl.obj
 0001:001bcef8       ?UnwindNestedFrames@__FrameHandler4@@SAXPEA_KPEAUEHExceptionRecord@@PEAU_CONTEXT@@0PEAXPEAUFuncInfo4@FH4@@HHPEAUHandlerType4@5@PEAU_xDISPATCHER_CONTEXT@@E@Z 00000001801bdef8 f   libvcruntime:risctrnsctrl.obj
 0001:001bd018       ?setBuffer@TryBlockMap4@FH4@@QEAAXViterator@12@@Z 00000001801be018 f i libvcruntime:risctrnsctrl.obj
 0001:001bd1dc       _CreateFrameInfo           00000001801be1dc f   libvcruntime:risctrnsctrl.obj
 0001:001bd218       _FindAndUnlinkFrame        00000001801be218 f   libvcruntime:risctrnsctrl.obj
 0001:001bd26c       _GetImageBase              00000001801be26c f   libvcruntime:risctrnsctrl.obj
 0001:001bd280       _GetThrowImageBase         00000001801be280 f   libvcruntime:risctrnsctrl.obj
 0001:001bd294       _SetImageBase              00000001801be294 f   libvcruntime:risctrnsctrl.obj
 0001:001bd2ac       _SetThrowImageBase         00000001801be2ac f   libvcruntime:risctrnsctrl.obj
 0001:001bd2c4       __CxxFrameHandler3         00000001801be2c4 f   libvcruntime:risctrnsctrl.obj
 0001:001bd34c       __CxxFrameHandler4         00000001801be34c f   libvcruntime:risctrnsctrl.obj
 0001:001bd55c       __vcrt_FlsAlloc            00000001801be55c f   libvcruntime:winapi_downlevel.obj
 0001:001bd5a4       __vcrt_FlsFree             00000001801be5a4 f   libvcruntime:winapi_downlevel.obj
 0001:001bd5ec       __vcrt_FlsGetValue         00000001801be5ec f   libvcruntime:winapi_downlevel.obj
 0001:001bd634       __vcrt_FlsSetValue         00000001801be634 f   libvcruntime:winapi_downlevel.obj
 0001:001bd688       __vcrt_InitializeCriticalSectionEx 00000001801be688 f   libvcruntime:winapi_downlevel.obj
 0001:001bd6ec       ?GetCurrentState@__FrameHandler3@@SAHPEA_KPEAU_xDISPATCHER_CONTEXT@@PEBU_s_FuncInfo@@@Z 00000001801be6ec f   libvcruntime:ehstate.obj
 0001:001bd714       ?GetUnwindTryBlock@__FrameHandler3@@SAHPEA_KPEAU_xDISPATCHER_CONTEXT@@PEBU_s_FuncInfo@@@Z 00000001801be714 f   libvcruntime:ehstate.obj
 0001:001bd740       ?SetState@__FrameHandler3@@SAXPEA_KPEBU_s_FuncInfo@@H@Z 00000001801be740 f   libvcruntime:ehstate.obj
 0001:001bd74c       ?SetUnwindTryBlock@__FrameHandler3@@SAXPEA_KPEAU_xDISPATCHER_CONTEXT@@PEBU_s_FuncInfo@@H@Z 00000001801be74c f   libvcruntime:ehstate.obj
 0001:001bd788       ?StateFromControlPc@__FrameHandler3@@SAHPEBU_s_FuncInfo@@PEAU_xDISPATCHER_CONTEXT@@@Z 00000001801be788 f   libvcruntime:ehstate.obj
 0001:001bd790       ?StateFromControlPc@__FrameHandler4@@SAHPEAUFuncInfo4@FH4@@PEAU_xDISPATCHER_CONTEXT@@@Z 00000001801be790 f   libvcruntime:ehstate.obj
 0001:001bd798       ?StateFromIp@__FrameHandler3@@SAHPEBU_s_FuncInfo@@PEAU_xDISPATCHER_CONTEXT@@_K@Z 00000001801be798 f   libvcruntime:ehstate.obj
 0001:001bd800       ?StateFromIp@__FrameHandler4@@SAHPEAUFuncInfo4@FH4@@PEAU_xDISPATCHER_CONTEXT@@_K@Z 00000001801be800 f   libvcruntime:ehstate.obj
 0001:001bef00       ??$TypeMatchHelper@V__FrameHandler3@@@@YAHPEBU_s_HandlerType@@PEBU_s_CatchableType@@PEBU_s_ThrowInfo@@@Z 00000001801bff00 f i libvcruntime:frame.obj
 0001:001bf040       ??$TypeMatchHelper@V__FrameHandler4@@@@YAHPEAUHandlerType4@FH4@@PEBU_s_CatchableType@@PEBU_s_ThrowInfo@@@Z 00000001801c0040 f i libvcruntime:frame.obj
 0001:001bf184       ??$__InternalCxxFrameHandler@V__FrameHandler3@@@@YA?AW4_EXCEPTION_DISPOSITION@@PEAUEHExceptionRecord@@PEA_KPEAU_CONTEXT@@PEAU_xDISPATCHER_CONTEXT@@PEBU_s_FuncInfo@@H1E@Z 00000001801c0184 f i libvcruntime:frame.obj
 0001:001bf3bc       ??$__InternalCxxFrameHandler@V__FrameHandler4@@@@YA?AW4_EXCEPTION_DISPOSITION@@PEAUEHExceptionRecord@@PEA_KPEAU_CONTEXT@@PEAU_xDISPATCHER_CONTEXT@@PEAUFuncInfo4@FH4@@H1E@Z 00000001801c03bc f i libvcruntime:frame.obj
 0001:001bf650       ??$__InternalCxxFrameHandlerWrapper@V__FrameHandler3@@@@YA?AW4_EXCEPTION_DISPOSITION@@PEAUEHExceptionRecord@@PEA_KPEAU_CONTEXT@@PEAU_xDISPATCHER_CONTEXT@@PEBU_s_FuncInfo@@H1E@Z 00000001801c0650 f i libvcruntime:frame.obj
 0001:001bf658       ??$__InternalCxxFrameHandlerWrapper@V__FrameHandler4@@@@YA?AW4_EXCEPTION_DISPOSITION@@PEAUEHExceptionRecord@@PEA_KPEAU_CONTEXT@@PEAU_xDISPATCHER_CONTEXT@@PEAUFuncInfo4@FH4@@H1E@Z 00000001801c0658 f i libvcruntime:frame.obj
 0001:001bf6b4       ??0HandlerMap4@FH4@@QEAA@PEBUTryBlockMapEntry4@1@_KH@Z 00000001801c06b4 f i libvcruntime:frame.obj
 0001:001bf730       ??0TryBlockMap4@FH4@@QEAA@PEBUFuncInfo4@1@_K@Z 00000001801c0730 f i libvcruntime:frame.obj
 0001:001bf808       ??0bad_exception@std@@QEAA@AEBV01@@Z 00000001801c0808 f i libvcruntime:frame.obj
 0001:001bf844       ??0bad_exception@std@@QEAA@XZ 00000001801c0844 f i libvcruntime:frame.obj
 0001:001bf864       ??0exception@std@@QEAA@AEBV01@@Z 00000001801c0864 f i libvcruntime:frame.obj
 0001:001bf898       ??1bad_exception@std@@UEAA@XZ 00000001801c0898 f i libvcruntime:frame.obj
 0001:001bf8ac       ??_Ebad_exception@std@@UEAAPEAXI@Z 00000001801c08ac f i libvcruntime:frame.obj
 0001:001bf8ac       ??_Eexception@std@@UEAAPEAXI@Z 00000001801c08ac f i libvcruntime:frame.obj
 0001:001bf8ac       ??_Gbad_exception@std@@UEAAPEAXI@Z 00000001801c08ac f i libvcruntime:frame.obj
 0001:001bf8ac       ??_Gexception@std@@UEAAPEAXI@Z 00000001801c08ac f i libvcruntime:frame.obj
 0001:001bf8f0       ?CxxCallCatchBlock@__FrameHandler3@@SAPEAXPEAU_EXCEPTION_RECORD@@@Z 00000001801c08f0 f   libvcruntime:frame.obj
 0001:001bfadc       ?CxxCallCatchBlock@__FrameHandler4@@SAPEAXPEAU_EXCEPTION_RECORD@@@Z 00000001801c0adc f   libvcruntime:frame.obj
 0001:001bfd2c       ?DecompHandler@HandlerMap4@FH4@@AEAAXXZ 00000001801c0d2c f i libvcruntime:frame.obj
 0001:001bff78       ?FrameUnwindToState@__FrameHandler3@@SAXPEA_KPEAU_xDISPATCHER_CONTEXT@@PEBU_s_FuncInfo@@H@Z 00000001801c0f78 f   libvcruntime:frame.obj
 0001:001c0104       ?FrameUnwindToState@__FrameHandler4@@SAXPEA_KPEAU_xDISPATCHER_CONTEXT@@PEAUFuncInfo4@FH4@@H@Z 00000001801c1104 f   libvcruntime:frame.obj
 0001:001c0400       ?GetHandlerSearchState@__FrameHandler3@@SAHPEA_KPEAU_xDISPATCHER_CONTEXT@@PEBU_s_FuncInfo@@@Z 00000001801c1400 f i libvcruntime:frame.obj
 0001:001c0610       ?ReadEntry@UWMap4@FH4@@AEAAXPEAPEAE@Z 00000001801c1610 f i libvcruntime:frame.obj
 0001:001c06ac       ?_CallMemberFunction1@@YAXQEAX00@Z 00000001801c16ac f i libvcruntime:frame.obj
 0001:001c06b8       ?_CallMemberFunction2@@YAXQEAX00H@Z 00000001801c16b8 f i libvcruntime:frame.obj
 0001:001c06c8       ?getStartStop@UWMap4@FH4@@QEAAXHHAEAViterator@12@0@Z 00000001801c16c8 f i libvcruntime:frame.obj
 0001:001c0798       ?getStateFromIterators@UWMap4@FH4@@SAHAEBViterator@12@H0H0@Z 00000001801c1798 f i libvcruntime:frame.obj
 0001:001c0848       ?what@exception@std@@UEBAPEBDXZ 00000001801c1848 f i libvcruntime:frame.obj
 0001:001c0870       _CallSettingFrame          00000001801c1870 f   libvcruntime:handlers.obj
 0001:001c08c0       _CallSettingFrame_LookupContinuationIndex 00000001801c18c0 f   libvcruntime:handlers.obj
 0001:001c08f0       _CallSettingFrame_NotifyContinuationAddr 00000001801c18f0 f   libvcruntime:handlers.obj
 0001:001c0920       _CallSettingFrameEncoded   00000001801c1920 f   libvcruntime:handlers.obj
 0001:001c0968       __std_exception_copy       00000001801c1968 f   libvcruntime:std_exception.obj
 0001:001c09f8       __std_exception_destroy    00000001801c19f8 f   libvcruntime:std_exception.obj
 0001:001c0a20       _CxxThrowException         00000001801c1a20 f   libvcruntime:throw.obj
 0001:001c0ac0       _local_unwind              00000001801c1ac0 f   libvcruntime:jmpuwind.obj
 0001:001c0af0       cosf                       00000001801c1af0 f   libucrt:cosf.obj
 0001:001c0ff0       sinf                       00000001801c1ff0 f   libucrt:sinf.obj
 0001:001c16f0       tanf                       00000001801c26f0 f   libucrt:tanf.obj
 0001:001c1d64       __acrt_initialize_stdio    00000001801c2d64 f   libucrt:_file.obj
 0001:001c1e84       __acrt_iob_func            00000001801c2e84 f   libucrt:_file.obj
 0001:001c1e98       __acrt_uninitialize_stdio  00000001801c2e98 f   libucrt:_file.obj
 0001:001c1ef4       _lock_file                 00000001801c2ef4 f   libucrt:_file.obj
 0001:001c1f00       _unlock_file               00000001801c2f00 f   libucrt:_file.obj
 0001:001c20fc       ??$ensure_buffer_is_big_enough@D@formatting_buffer@__crt_stdio_output@@QEAA_N_KAEAV__crt_cached_ptd_host@@@Z 00000001801c30fc f i libucrt:output.obj
 0001:001c21a4       ??$parse_integer@KV?$c_string_character_source@D@__crt_strtox@@$0A@@__crt_strtox@@YAKAEAV__crt_cached_ptd_host@@V?$c_string_character_source@D@0@H_N@Z 00000001801c31a4 f i libucrt:output.obj
 0001:001c2454       ??$type_case_integer@$07@?$output_processor@DV?$stream_output_adapter@D@__crt_stdio_output@@V?$standard_base@DV?$stream_output_adapter@D@__crt_stdio_output@@@2@@__crt_stdio_output@@AEAA_N_N@Z 00000001801c3454 f i libucrt:output.obj
 0001:001c2454       ??$type_case_integer@$07@?$output_processor@DV?$string_output_adapter@D@__crt_stdio_output@@V?$format_validation_base@DV?$string_output_adapter@D@__crt_stdio_output@@@2@@__crt_stdio_output@@AEAA_N_N@Z 00000001801c3454 f i libucrt:output.obj
 0001:001c2454       ??$type_case_integer@$07@?$output_processor@DV?$string_output_adapter@D@__crt_stdio_output@@V?$standard_base@DV?$string_output_adapter@D@__crt_stdio_output@@@2@@__crt_stdio_output@@AEAA_N_N@Z 00000001801c3454 f i libucrt:output.obj
 0001:001c263c       ??$type_case_integer@$09@?$output_processor@DV?$stream_output_adapter@D@__crt_stdio_output@@V?$standard_base@DV?$stream_output_adapter@D@__crt_stdio_output@@@2@@__crt_stdio_output@@AEAA_N_N@Z 00000001801c363c f i libucrt:output.obj
 0001:001c263c       ??$type_case_integer@$09@?$output_processor@DV?$string_output_adapter@D@__crt_stdio_output@@V?$format_validation_base@DV?$string_output_adapter@D@__crt_stdio_output@@@2@@__crt_stdio_output@@AEAA_N_N@Z 00000001801c363c f i libucrt:output.obj
 0001:001c263c       ??$type_case_integer@$09@?$output_processor@DV?$string_output_adapter@D@__crt_stdio_output@@V?$standard_base@DV?$string_output_adapter@D@__crt_stdio_output@@@2@@__crt_stdio_output@@AEAA_N_N@Z 00000001801c363c f i libucrt:output.obj
 0001:001c2824       ??$type_case_integer@$0BA@@?$output_processor@DV?$stream_output_adapter@D@__crt_stdio_output@@V?$standard_base@DV?$stream_output_adapter@D@__crt_stdio_output@@@2@@__crt_stdio_output@@AEAA_N_N@Z 00000001801c3824 f i libucrt:output.obj
 0001:001c2824       ??$type_case_integer@$0BA@@?$output_processor@DV?$string_output_adapter@D@__crt_stdio_output@@V?$format_validation_base@DV?$string_output_adapter@D@__crt_stdio_output@@@2@@__crt_stdio_output@@AEAA_N_N@Z 00000001801c3824 f i libucrt:output.obj
 0001:001c2824       ??$type_case_integer@$0BA@@?$output_processor@DV?$string_output_adapter@D@__crt_stdio_output@@V?$standard_base@DV?$string_output_adapter@D@__crt_stdio_output@@@2@@__crt_stdio_output@@AEAA_N_N@Z 00000001801c3824 f i libucrt:output.obj
 0001:001c2a0c       ??$type_case_integer_parse_into_buffer@I$07@?$output_processor@DV?$stream_output_adapter@D@__crt_stdio_output@@V?$standard_base@DV?$stream_output_adapter@D@__crt_stdio_output@@@2@@__crt_stdio_output@@AEAAXI_N@Z 00000001801c3a0c f i libucrt:output.obj
 0001:001c2a0c       ??$type_case_integer_parse_into_buffer@I$07@?$output_processor@DV?$string_output_adapter@D@__crt_stdio_output@@V?$format_validation_base@DV?$string_output_adapter@D@__crt_stdio_output@@@2@@__crt_stdio_output@@AEAAXI_N@Z 00000001801c3a0c f i libucrt:output.obj
 0001:001c2a0c       ??$type_case_integer_parse_into_buffer@I$07@?$output_processor@DV?$string_output_adapter@D@__crt_stdio_output@@V?$standard_base@DV?$string_output_adapter@D@__crt_stdio_output@@@2@@__crt_stdio_output@@AEAAXI_N@Z 00000001801c3a0c f i libucrt:output.obj
 0001:001c2a88       ??$type_case_integer_parse_into_buffer@I$09@?$output_processor@DV?$stream_output_adapter@D@__crt_stdio_output@@V?$standard_base@DV?$stream_output_adapter@D@__crt_stdio_output@@@2@@__crt_stdio_output@@AEAAXI_N@Z 00000001801c3a88 f i libucrt:output.obj
 0001:001c2a88       ??$type_case_integer_parse_into_buffer@I$09@?$output_processor@DV?$string_output_adapter@D@__crt_stdio_output@@V?$format_validation_base@DV?$string_output_adapter@D@__crt_stdio_output@@@2@@__crt_stdio_output@@AEAAXI_N@Z 00000001801c3a88 f i libucrt:output.obj
 0001:001c2a88       ??$type_case_integer_parse_into_buffer@I$09@?$output_processor@DV?$string_output_adapter@D@__crt_stdio_output@@V?$standard_base@DV?$string_output_adapter@D@__crt_stdio_output@@@2@@__crt_stdio_output@@AEAAXI_N@Z 00000001801c3a88 f i libucrt:output.obj
 0001:001c2b30       ??$type_case_integer_parse_into_buffer@I$0BA@@?$output_processor@DV?$stream_output_adapter@D@__crt_stdio_output@@V?$standard_base@DV?$stream_output_adapter@D@__crt_stdio_output@@@2@@__crt_stdio_output@@AEAAXI_N@Z 00000001801c3b30 f i libucrt:output.obj
 0001:001c2b30       ??$type_case_integer_parse_into_buffer@I$0BA@@?$output_processor@DV?$string_output_adapter@D@__crt_stdio_output@@V?$format_validation_base@DV?$string_output_adapter@D@__crt_stdio_output@@@2@@__crt_stdio_output@@AEAAXI_N@Z 00000001801c3b30 f i libucrt:output.obj
 0001:001c2b30       ??$type_case_integer_parse_into_buffer@I$0BA@@?$output_processor@DV?$string_output_adapter@D@__crt_stdio_output@@V?$standard_base@DV?$string_output_adapter@D@__crt_stdio_output@@@2@@__crt_stdio_output@@AEAAXI_N@Z 00000001801c3b30 f i libucrt:output.obj
 0001:001c2bbc       ??$type_case_integer_parse_into_buffer@_K$07@?$output_processor@DV?$stream_output_adapter@D@__crt_stdio_output@@V?$standard_base@DV?$stream_output_adapter@D@__crt_stdio_output@@@2@@__crt_stdio_output@@AEAAX_K_N@Z 00000001801c3bbc f i libucrt:output.obj
 0001:001c2bbc       ??$type_case_integer_parse_into_buffer@_K$07@?$output_processor@DV?$string_output_adapter@D@__crt_stdio_output@@V?$format_validation_base@DV?$string_output_adapter@D@__crt_stdio_output@@@2@@__crt_stdio_output@@AEAAX_K_N@Z 00000001801c3bbc f i libucrt:output.obj
 0001:001c2bbc       ??$type_case_integer_parse_into_buffer@_K$07@?$output_processor@DV?$string_output_adapter@D@__crt_stdio_output@@V?$standard_base@DV?$string_output_adapter@D@__crt_stdio_output@@@2@@__crt_stdio_output@@AEAAX_K_N@Z 00000001801c3bbc f i libucrt:output.obj
 0001:001c2c38       ??$type_case_integer_parse_into_buffer@_K$09@?$output_processor@DV?$stream_output_adapter@D@__crt_stdio_output@@V?$standard_base@DV?$stream_output_adapter@D@__crt_stdio_output@@@2@@__crt_stdio_output@@AEAAX_K_N@Z 00000001801c3c38 f i libucrt:output.obj
 0001:001c2c38       ??$type_case_integer_parse_into_buffer@_K$09@?$output_processor@DV?$string_output_adapter@D@__crt_stdio_output@@V?$format_validation_base@DV?$string_output_adapter@D@__crt_stdio_output@@@2@@__crt_stdio_output@@AEAAX_K_N@Z 00000001801c3c38 f i libucrt:output.obj
 0001:001c2c38       ??$type_case_integer_parse_into_buffer@_K$09@?$output_processor@DV?$string_output_adapter@D@__crt_stdio_output@@V?$standard_base@DV?$string_output_adapter@D@__crt_stdio_output@@@2@@__crt_stdio_output@@AEAAX_K_N@Z 00000001801c3c38 f i libucrt:output.obj
 0001:001c2ce4       ??$type_case_integer_parse_into_buffer@_K$0BA@@?$output_processor@DV?$stream_output_adapter@D@__crt_stdio_output@@V?$standard_base@DV?$stream_output_adapter@D@__crt_stdio_output@@@2@@__crt_stdio_output@@AEAAX_K_N@Z 00000001801c3ce4 f i libucrt:output.obj
 0001:001c2ce4       ??$type_case_integer_parse_into_buffer@_K$0BA@@?$output_processor@DV?$string_output_adapter@D@__crt_stdio_output@@V?$format_validation_base@DV?$string_output_adapter@D@__crt_stdio_output@@@2@@__crt_stdio_output@@AEAAX_K_N@Z 00000001801c3ce4 f i libucrt:output.obj
 0001:001c2ce4       ??$type_case_integer_parse_into_buffer@_K$0BA@@?$output_processor@DV?$string_output_adapter@D@__crt_stdio_output@@V?$standard_base@DV?$string_output_adapter@D@__crt_stdio_output@@@2@@__crt_stdio_output@@AEAAX_K_N@Z 00000001801c3ce4 f i libucrt:output.obj
 0001:001c2e8c       ?crop_zeroes@__crt_stdio_output@@YAXPEADQEAU__crt_locale_pointers@@@Z 00000001801c3e8c f i libucrt:output.obj
 0001:001c2f00       ?get_raw_ptd@__crt_cached_ptd_host@@QEAAPEAU__acrt_ptd@@XZ 00000001801c3f00 f i libucrt:output.obj
 0001:001c2f68       ?parse_int_from_format_string@?$output_processor@DV?$stream_output_adapter@D@__crt_stdio_output@@V?$standard_base@DV?$stream_output_adapter@D@__crt_stdio_output@@@2@@__crt_stdio_output@@AEAA_NQEAH@Z 00000001801c3f68 f i libucrt:output.obj
 0001:001c2f68       ?parse_int_from_format_string@?$output_processor@DV?$string_output_adapter@D@__crt_stdio_output@@V?$format_validation_base@DV?$string_output_adapter@D@__crt_stdio_output@@@2@@__crt_stdio_output@@AEAA_NQEAH@Z 00000001801c3f68 f i libucrt:output.obj
 0001:001c2f68       ?parse_int_from_format_string@?$output_processor@DV?$string_output_adapter@D@__crt_stdio_output@@V?$standard_base@DV?$string_output_adapter@D@__crt_stdio_output@@@2@@__crt_stdio_output@@AEAA_NQEAH@Z 00000001801c3f68 f i libucrt:output.obj
 0001:001c2ff8       ?process@?$output_processor@DV?$stream_output_adapter@D@__crt_stdio_output@@V?$standard_base@DV?$stream_output_adapter@D@__crt_stdio_output@@@2@@__crt_stdio_output@@QEAAHXZ 00000001801c3ff8 f i libucrt:output.obj
 0001:001c3384       ?process@?$output_processor@DV?$string_output_adapter@D@__crt_stdio_output@@V?$format_validation_base@DV?$string_output_adapter@D@__crt_stdio_output@@@2@@__crt_stdio_output@@QEAAHXZ 00000001801c4384 f i libucrt:output.obj
 0001:001c3714       ?process@?$output_processor@DV?$string_output_adapter@D@__crt_stdio_output@@V?$standard_base@DV?$string_output_adapter@D@__crt_stdio_output@@@2@@__crt_stdio_output@@QEAAHXZ 00000001801c4714 f i libucrt:output.obj
 0001:001c3a98       ?state_case_size@?$output_processor@DV?$stream_output_adapter@D@__crt_stdio_output@@V?$standard_base@DV?$stream_output_adapter@D@__crt_stdio_output@@@2@@__crt_stdio_output@@AEAA_NXZ 00000001801c4a98 f i libucrt:output.obj
 0001:001c3c1c       ?state_case_size@?$output_processor@DV?$string_output_adapter@D@__crt_stdio_output@@V?$format_validation_base@DV?$string_output_adapter@D@__crt_stdio_output@@@2@@__crt_stdio_output@@AEAA_NXZ 00000001801c4c1c f i libucrt:output.obj
 0001:001c3c1c       ?state_case_size@?$output_processor@DV?$string_output_adapter@D@__crt_stdio_output@@V?$standard_base@DV?$string_output_adapter@D@__crt_stdio_output@@@2@@__crt_stdio_output@@AEAA_NXZ 00000001801c4c1c f i libucrt:output.obj
 0001:001c3da0       ?state_case_type@?$output_processor@DV?$stream_output_adapter@D@__crt_stdio_output@@V?$standard_base@DV?$stream_output_adapter@D@__crt_stdio_output@@@2@@__crt_stdio_output@@AEAA_NXZ 00000001801c4da0 f i libucrt:output.obj
 0001:001c41d4       ?state_case_type@?$output_processor@DV?$string_output_adapter@D@__crt_stdio_output@@V?$format_validation_base@DV?$string_output_adapter@D@__crt_stdio_output@@@2@@__crt_stdio_output@@AEAA_NXZ 00000001801c51d4 f i libucrt:output.obj
 0001:001c41d4       ?state_case_type@?$output_processor@DV?$string_output_adapter@D@__crt_stdio_output@@V?$standard_base@DV?$string_output_adapter@D@__crt_stdio_output@@@2@@__crt_stdio_output@@AEAA_NXZ 00000001801c51d4 f i libucrt:output.obj
 0001:001c45a0       ?type_case_Z@?$output_processor@DV?$stream_output_adapter@D@__crt_stdio_output@@V?$standard_base@DV?$stream_output_adapter@D@__crt_stdio_output@@@2@@__crt_stdio_output@@AEAA_NXZ 00000001801c55a0 f i libucrt:output.obj
 0001:001c45a0       ?type_case_Z@?$output_processor@DV?$string_output_adapter@D@__crt_stdio_output@@V?$format_validation_base@DV?$string_output_adapter@D@__crt_stdio_output@@@2@@__crt_stdio_output@@AEAA_NXZ 00000001801c55a0 f i libucrt:output.obj
 0001:001c45a0       ?type_case_Z@?$output_processor@DV?$string_output_adapter@D@__crt_stdio_output@@V?$standard_base@DV?$string_output_adapter@D@__crt_stdio_output@@@2@@__crt_stdio_output@@AEAA_NXZ 00000001801c55a0 f i libucrt:output.obj
 0001:001c4618       ?type_case_a@?$output_processor@DV?$stream_output_adapter@D@__crt_stdio_output@@V?$standard_base@DV?$stream_output_adapter@D@__crt_stdio_output@@@2@@__crt_stdio_output@@AEAA_NXZ 00000001801c5618 f i libucrt:output.obj
 0001:001c4618       ?type_case_a@?$output_processor@DV?$string_output_adapter@D@__crt_stdio_output@@V?$format_validation_base@DV?$string_output_adapter@D@__crt_stdio_output@@@2@@__crt_stdio_output@@AEAA_NXZ 00000001801c5618 f i libucrt:output.obj
 0001:001c4618       ?type_case_a@?$output_processor@DV?$string_output_adapter@D@__crt_stdio_output@@V?$standard_base@DV?$string_output_adapter@D@__crt_stdio_output@@@2@@__crt_stdio_output@@AEAA_NXZ 00000001801c5618 f i libucrt:output.obj
 0001:001c4864       ?type_case_c_tchar@?$output_processor@DV?$stream_output_adapter@D@__crt_stdio_output@@V?$standard_base@DV?$stream_output_adapter@D@__crt_stdio_output@@@2@@__crt_stdio_output@@AEAA_ND@Z 00000001801c5864 f i libucrt:output.obj
 0001:001c4864       ?type_case_c_tchar@?$output_processor@DV?$string_output_adapter@D@__crt_stdio_output@@V?$format_validation_base@DV?$string_output_adapter@D@__crt_stdio_output@@@2@@__crt_stdio_output@@AEAA_ND@Z 00000001801c5864 f i libucrt:output.obj
 0001:001c4864       ?type_case_c_tchar@?$output_processor@DV?$string_output_adapter@D@__crt_stdio_output@@V?$standard_base@DV?$string_output_adapter@D@__crt_stdio_output@@@2@@__crt_stdio_output@@AEAA_ND@Z 00000001801c5864 f i libucrt:output.obj
 0001:001c4928       ?type_case_n@?$output_processor@DV?$stream_output_adapter@D@__crt_stdio_output@@V?$standard_base@DV?$stream_output_adapter@D@__crt_stdio_output@@@2@@__crt_stdio_output@@AEAA_NXZ 00000001801c5928 f i libucrt:output.obj
 0001:001c4928       ?type_case_n@?$output_processor@DV?$string_output_adapter@D@__crt_stdio_output@@V?$format_validation_base@DV?$string_output_adapter@D@__crt_stdio_output@@@2@@__crt_stdio_output@@AEAA_NXZ 00000001801c5928 f i libucrt:output.obj
 0001:001c4928       ?type_case_n@?$output_processor@DV?$string_output_adapter@D@__crt_stdio_output@@V?$standard_base@DV?$string_output_adapter@D@__crt_stdio_output@@@2@@__crt_stdio_output@@AEAA_NXZ 00000001801c5928 f i libucrt:output.obj
 0001:001c49dc       ?type_case_s@?$output_processor@DV?$stream_output_adapter@D@__crt_stdio_output@@V?$standard_base@DV?$stream_output_adapter@D@__crt_stdio_output@@@2@@__crt_stdio_output@@AEAA_NXZ 00000001801c59dc f i libucrt:output.obj
 0001:001c49dc       ?type_case_s@?$output_processor@DV?$string_output_adapter@D@__crt_stdio_output@@V?$format_validation_base@DV?$string_output_adapter@D@__crt_stdio_output@@@2@@__crt_stdio_output@@AEAA_NXZ 00000001801c59dc f i libucrt:output.obj
 0001:001c49dc       ?type_case_s@?$output_processor@DV?$string_output_adapter@D@__crt_stdio_output@@V?$standard_base@DV?$string_output_adapter@D@__crt_stdio_output@@@2@@__crt_stdio_output@@AEAA_NXZ 00000001801c59dc f i libucrt:output.obj
 0001:001c4a80       ?update_locale_slow@__crt_cached_ptd_host@@AEAAXXZ 00000001801c5a80 f i libucrt:output.obj
 0001:001c4af8       ?validate_stream_is_ansi_if_required@?$__acrt_stdio_char_traits@D@@SA_NQEAU_iobuf@@@Z 00000001801c5af8 f i libucrt:output.obj
 0001:001c4b94       ?write_string@?$string_output_adapter@D@__crt_stdio_output@@QEBAXQEBDHQEAHAEAV__crt_cached_ptd_host@@@Z 00000001801c5b94 f i libucrt:output.obj
 0001:001c4c38       ?write_string_impl@?$output_adapter_common@DV?$stream_output_adapter@D@__crt_stdio_output@@@__crt_stdio_output@@IEBAXQEBDHQEAHAEAV__crt_cached_ptd_host@@@Z 00000001801c5c38 f i libucrt:output.obj
 0001:001c4d04       __stdio_common_vfprintf    00000001801c5d04 f   libucrt:output.obj
 0001:001c4e28       __stdio_common_vsprintf    00000001801c5e28 f   libucrt:output.obj
 0001:001c507c       __stdio_common_vsprintf_s  00000001801c607c f   libucrt:output.obj
 0001:001c5190       _fpclass                   00000001801c6190 f   libucrt:ieeemisc.obj
 0001:001c5220       powf                       00000001801c6220 f   libucrt:powf.obj
 0001:001c60e8       atan2f                     00000001801c70e8 f   libucrt:atan2f.obj
 0001:001c64f0       strcmp                     00000001801c74f0 f   libucrt:strcmp.obj
 0001:001c6558       acosf                      00000001801c7558 f   libucrt:acosf.obj
 0001:001c6784       free                       00000001801c7784 f   libucrt:free.obj
 0001:001c6798       _seh_filter_dll            00000001801c7798 f   libucrt:exception_filter.obj
 0001:001c67ac       _seh_filter_exe            00000001801c77ac f   libucrt:exception_filter.obj
 0001:001c6bd0       __acrt_initialize_thread_local_exit_callback 00000001801c7bd0 f   libucrt:exit.obj
 0001:001c6bd8       _cexit                     00000001801c7bd8 f   libucrt:exit.obj
 0001:001c6be8       _exit                      00000001801c7be8 f   libucrt:exit.obj
 0001:001c6bf4       _is_c_termination_complete 00000001801c7bf4 f   libucrt:exit.obj
 0001:001c6dbc       __acrt_allocate_buffer_for_argv 00000001801c7dbc f   libucrt:argv_parsing.obj
 0001:001c6e1c       _configure_narrow_argv     00000001801c7e1c f   libucrt:argv_parsing.obj
 0001:001c71a4       __dcrt_uninitialize_environments_nolock 00000001801c81a4 f   libucrt:environment_initialization.obj
 0001:001c71e8       _initialize_narrow_environment 00000001801c81e8 f   libucrt:environment_initialization.obj
 0001:001c7538       _crt_atexit                00000001801c8538 f   libucrt:onexit.obj
 0001:001c7548       _execute_onexit_table      00000001801c8548 f   libucrt:onexit.obj
 0001:001c758c       _initialize_onexit_table   00000001801c858c f   libucrt:onexit.obj
 0001:001c75b4       _register_onexit_function  00000001801c85b4 f   libucrt:onexit.obj
 0001:001c7634       __acrt_uninitialize_command_line 00000001801c8634 f   libucrt:argv_data.obj
 0001:001c772c       __acrt_initialize          00000001801c872c f   libucrt:initialization.obj
 0001:001c7740       __acrt_thread_attach       00000001801c8740 f   libucrt:initialization.obj
 0001:001c7754       __acrt_thread_detach       00000001801c8754 f   libucrt:initialization.obj
 0001:001c7764       __acrt_uninitialize        00000001801c8764 f   libucrt:initialization.obj
 0001:001c779c       __acrt_uninitialize_critical 00000001801c879c f   libucrt:initialization.obj
 0001:001c77ac       _initterm                  00000001801c87ac f   libucrt:initterm.obj
 0001:001c77f0       _initterm_e                00000001801c87f0 f   libucrt:initterm.obj
 0001:001c7838       terminate                  00000001801c8838 f   libucrt:terminate.obj
 0001:001c7864       abort                      00000001801c8864 f   libucrt:abort.obj
 0001:001c78bc       malloc                     00000001801c88bc f   libucrt:malloc.obj
 0001:001c78c4       strcpy_s                   00000001801c88c4 f   libucrt:strcpy_s.obj
 0001:001c7924       ??$parse_integer@KV?$c_string_character_source@D@__crt_strtox@@$00@__crt_strtox@@YAKAEAV__crt_cached_ptd_host@@V?$c_string_character_source@D@0@H_N@Z 00000001801c8924 f i libucrt:atox.obj
 0001:001c7c04       _ischartype_l              00000001801c8c04 f i libucrt:atox.obj
 0001:001c7c7c       atol                       00000001801c8c7c f   libucrt:atox.obj
 0001:001c7d40       strncmp                    00000001801c8d40 f   libucrt:strncmp.obj
 0001:001c7dc0       calloc                     00000001801c8dc0 f   libucrt:calloc.obj
 0001:001c7dc8       wcsncmp                    00000001801c8dc8 f   libucrt:wcsncmp.obj
 0001:001c7e00       __remainder_piby2d2f_forAsm 00000001801c8e00 f   libucrt:remainder_piby2f_forasm.obj
 0001:001c7f50       __remainder_piby2_fma3     00000001801c8f50 f   libucrt:remainder_piby2_forfma3.obj
 0001:001c8140       __remainder_piby2_fma3_bdl 00000001801c9140 f   libucrt:remainder_piby2_forfma3.obj
 0001:001c81b8       _cosf_special              00000001801c91b8 f   libucrt:sincos_special.obj
 0001:001c8258       _sinf_special              00000001801c9258 f   libucrt:sincos_special.obj
 0001:001c826c       _tanf_special              00000001801c926c f   libucrt:sincos_special.obj
 0001:001c8280       _clrfp                     00000001801c9280 f   libucrt:fpctrl.obj
 0001:001c82a0       _ctrlfp                    00000001801c92a0 f   libucrt:fpctrl.obj
 0001:001c831c       _set_statfp                00000001801c931c f   libucrt:fpctrl.obj
 0001:001c833c       _statfp                    00000001801c933c f   libucrt:fpctrl.obj
 0001:001c8350       __acrt_initialize_fma3     00000001801c9350 f   libucrt:fma3_available.obj
 0001:001c83c0       __remainder_piby2d2f_forC  00000001801c93c0 f   libucrt:remainder_piby2f_forc.obj
 0001:001c854c       ?get_raw_ptd_noexit@__crt_cached_ptd_host@@QEAAPEAU__acrt_ptd@@XZ 00000001801c954c f i libucrt:invalid_parameter.obj
 0001:001c85b8       ?value@?$dual_state_global@P6AXPEB_W00I_K@Z@__crt_state_management@@QEAAAEAP6AXPEB_W00I_K@ZAEAV__crt_cached_ptd_host@@@Z 00000001801c95b8 f i libucrt:invalid_parameter.obj
 0001:001c8604       __acrt_call_reportfault    00000001801c9604 f   libucrt:invalid_parameter.obj
 0001:001c8760       __acrt_initialize_invalid_parameter_handler 00000001801c9760 f   libucrt:invalid_parameter.obj
 0001:001c8768       _invalid_parameter         00000001801c9768 f   libucrt:invalid_parameter.obj
 0001:001c8804       _invalid_parameter_internal 00000001801c9804 f   libucrt:invalid_parameter.obj
 0001:001c88d4       _invalid_parameter_noinfo  00000001801c98d4 f   libucrt:invalid_parameter.obj
 0001:001c88f4       _invoke_watson             00000001801c98f4 f   libucrt:invalid_parameter.obj
 0001:001c893c       __acrt_errno_from_os_error 00000001801c993c f   libucrt:errno.obj
 0001:001c8984       __acrt_errno_map_os_error  00000001801c9984 f   libucrt:errno.obj
 0001:001c89cc       __acrt_errno_map_os_error_ptd 00000001801c99cc f   libucrt:errno.obj
 0001:001c89f0       __doserrno                 00000001801c99f0 f   libucrt:errno.obj
 0001:001c8a10       _errno                     00000001801c9a10 f   libucrt:errno.obj
 0001:001c8a30       _calloc_base               00000001801c9a30 f   libucrt:calloc_base.obj
 0001:001c8aa8       _free_base                 00000001801c9aa8 f   libucrt:free_base.obj
 0001:001c8ca4       __acrt_AppPolicyGetProcessTerminationMethodInternal 00000001801c9ca4 f   libucrt:winapi_thunks.obj
 0001:001c8cfc       __acrt_AreFileApisANSI     00000001801c9cfc f   libucrt:winapi_thunks.obj
 0001:001c8d40       __acrt_FlsAlloc            00000001801c9d40 f   libucrt:winapi_thunks.obj
 0001:001c8d48       __acrt_FlsFree             00000001801c9d48 f   libucrt:winapi_thunks.obj
 0001:001c8d50       __acrt_FlsGetValue         00000001801c9d50 f   libucrt:winapi_thunks.obj
 0001:001c8d58       __acrt_FlsSetValue         00000001801c9d58 f   libucrt:winapi_thunks.obj
 0001:001c8d60       __acrt_InitializeCriticalSectionEx 00000001801c9d60 f   libucrt:winapi_thunks.obj
 0001:001c8dd0       __acrt_LCMapStringEx       00000001801c9dd0 f   libucrt:winapi_thunks.obj
 0001:001c8ebc       __acrt_LocaleNameToLCID    00000001801c9ebc f   libucrt:winapi_thunks.obj
 0001:001c8f1c       __acrt_initialize_winapi_thunks 00000001801c9f1c f   libucrt:winapi_thunks.obj
 0001:001c8f40       __acrt_uninitialize_winapi_thunks 00000001801c9f40 f   libucrt:winapi_thunks.obj
 0001:001c8f84       _fcloseall                 00000001801c9f84 f   libucrt:closeall.obj
 0001:001c9214       __acrt_stdio_flush_nolock  00000001801ca214 f   libucrt:fflush.obj
 0001:001c92a0       _fflush_nolock             00000001801ca2a0 f   libucrt:fflush.obj
 0001:001c9374       _flushall                  00000001801ca374 f   libucrt:fflush.obj
 0001:001c937c       __acrt_stdio_free_buffer_nolock 00000001801ca37c f   libucrt:_freebuf.obj
 0001:001c95b4       __acrt_initialize_lowio    00000001801ca5b4 f   libucrt:ioinit.obj
 0001:001c95f0       __acrt_uninitialize_lowio  00000001801ca5f0 f   libucrt:ioinit.obj
 0001:001c9630       _malloc_base               00000001801ca630 f   libucrt:malloc_base.obj
 0001:001c9690       strnlen                    00000001801ca690 f   libucrt:strnlen.obj
 0001:001c97e0       wcsnlen                    00000001801ca7e0 f   libucrt:strnlen.obj
 0001:001c99b8       __acrt_update_locale_info  00000001801ca9b8 f   libucrt:locale_update.obj
 0001:001c99ec       __acrt_update_locale_info_explicit 00000001801ca9ec f   libucrt:locale_update.obj
 0001:001c9a24       __acrt_update_multibyte_info 00000001801caa24 f   libucrt:locale_update.obj
 0001:001c9a58       __acrt_update_multibyte_info_explicit 00000001801caa58 f   libucrt:locale_update.obj
 0001:001ca5c0       __acrt_fp_format           00000001801cb5c0 f   libucrt:cvt.obj
 0001:001ca8a8       _wctomb_internal           00000001801cb8a8 f   libucrt:wctomb.obj
 0001:001caa58       _mbtowc_internal           00000001801cba58 f   libucrt:mbtowc.obj
 0001:001cabd0       _fileno                    00000001801cbbd0 f   libucrt:fileno.obj
 0001:001cabf8       _get_printf_count_output   00000001801cbbf8 f   libucrt:printf_count_output.obj
 0001:001cac10       _fputc_nolock_internal     00000001801cbc10 f   libucrt:fputc.obj
 0001:001cac28       __acrt_should_use_temporary_buffer 00000001801cbc28 f   libucrt:_sftbuf.obj
 0001:001cac70       __acrt_stdio_begin_temporary_buffering_nolock 00000001801cbc70 f   libucrt:_sftbuf.obj
 0001:001cad38       __acrt_stdio_end_temporary_buffering_nolock 00000001801cbd38 f   libucrt:_sftbuf.obj
 0001:001cb0ec       __acrt_freeptd             00000001801cc0ec f   libucrt:per_thread_data.obj
 0001:001cb130       __acrt_getptd              00000001801cc130 f   libucrt:per_thread_data.obj
 0001:001cb204       __acrt_getptd_head         00000001801cc204 f   libucrt:per_thread_data.obj
 0001:001cb2a8       __acrt_getptd_noexit       00000001801cc2a8 f   libucrt:per_thread_data.obj
 0001:001cb370       __acrt_getptd_noexit_explicit 00000001801cc370 f   libucrt:per_thread_data.obj
 0001:001cb430       __acrt_initialize_ptd      00000001801cc430 f   libucrt:per_thread_data.obj
 0001:001cb46c       __acrt_uninitialize_ptd    00000001801cc46c f   libucrt:per_thread_data.obj
 0001:001cb500       __acrt_set_locale_changed  00000001801cc500 f   libucrt:wsetlocale.obj
 0001:001cb50c       __acrt_uninitialize_locale 00000001801cc50c f   libucrt:wsetlocale.obj
 0001:001cb660       _handle_error              00000001801cc660 f   libucrt:libm_error.obj
 0001:001cb788       _handle_errorf             00000001801cc788 f   libucrt:libm_error.obj
 0001:001cb8bc       _handle_nan                00000001801cc8bc f   libucrt:libm_error.obj
 0001:001cb8d8       _handle_nanf               00000001801cc8d8 f   libucrt:libm_error.obj
 0001:001cb8f0       _powf_special              00000001801cc8f0 f   libucrt:pow_special.obj
 0001:001cba40       __acrt_initialize_locks    00000001801cca40 f   libucrt:locks.obj
 0001:001cba88       __acrt_lock                00000001801cca88 f   libucrt:locks.obj
 0001:001cbaa4       __acrt_uninitialize_locks  00000001801ccaa4 f   libucrt:locks.obj
 0001:001cbadc       __acrt_unlock              00000001801ccadc f   libucrt:locks.obj
 0001:001cbaf8       __acrt_get_process_end_policy 00000001801ccaf8 f   libucrt:win_policies.obj
 0001:001cbb48       ??$__acrt_convert_wcs_mbs_cp@D_WV<lambda_7c9dea7b4ca7285d2cdb541a38da6275>@@U__crt_win32_buffer_internal_dynamic_resizing@@@@YAHQEBDAEAV?$__crt_win32_buffer@_WU__crt_win32_buffer_internal_dynamic_resizing@@@@AEBV<lambda_7c9dea7b4ca7285d2cdb541a38da6275>@@I@Z 00000001801ccb48 f i libucrt:argv_wildcards.obj
 0001:001cbcc4       ??$__acrt_convert_wcs_mbs_cp@_WDV<lambda_d8593a27d1aa8c02be35c86a17d324c4>@@U__crt_win32_buffer_internal_dynamic_resizing@@@@YAHQEB_WAEAV?$__crt_win32_buffer@DU__crt_win32_buffer_internal_dynamic_resizing@@@@AEBV<lambda_d8593a27d1aa8c02be35c86a17d324c4>@@I@Z 00000001801cccc4 f i libucrt:argv_wildcards.obj
 0001:001cc56c       ??0_LocaleUpdate@@QEAA@QEAU__crt_locale_pointers@@@Z 00000001801cd56c f i libucrt:argv_wildcards.obj
 0001:001cc608       __acrt_expand_narrow_argv_wildcards 00000001801cd608 f   libucrt:argv_wildcards.obj
 0001:001cc610       ??$__acrt_convert_wcs_mbs_cp@_WDV<lambda_f788ae46380686e8b737efdd8c720d07>@@U__crt_win32_buffer_no_resizing@@@@YAHQEB_WAEAV?$__crt_win32_buffer@DU__crt_win32_buffer_no_resizing@@@@AEBV<lambda_f788ae46380686e8b737efdd8c720d07>@@I@Z 00000001801cd610 f i libucrt:getmodulefilenamea.obj
 0001:001cc72c       __acrt_GetModuleFileNameA  00000001801cd72c f   libucrt:getmodulefilenamea.obj
 0001:001cd048       __acrt_initialize_multibyte 00000001801ce048 f   libucrt:mbctype.obj
 0001:001cd0a8       __acrt_update_thread_multibyte_data 00000001801ce0a8 f   libucrt:mbctype.obj
 0001:001cd0c4       _setmbcp_nolock            00000001801ce0c4 f   libucrt:mbctype.obj
 0001:001cd3f8       _ismbblead                 00000001801ce3f8 f   libucrt:ismbbyte.obj
 0001:001cd40c       __acrt_initialize_command_line 00000001801ce40c f   libucrt:argv_data.obj
 0001:001cd434       __acrt_MultiByteToWideChar 00000001801ce434 f   libucrt:multibytetowidechar.obj
 0001:001cd490       __acrt_WideCharToMultiByte 00000001801ce490 f   libucrt:widechartomultibyte.obj
 0001:001cd540       __dcrt_get_narrow_environment_from_os 00000001801ce540 f   libucrt:get_environment_from_os.obj
 0001:001cd650       _recalloc_base             00000001801ce650 f   libucrt:recalloc.obj
 0001:001cd6e8       __acrt_initialize_heap     00000001801ce6e8 f   libucrt:heap_handle.obj
 0001:001cd704       __acrt_uninitialize_heap   00000001801ce704 f   libucrt:heap_handle.obj
 0001:001cd710       __acrt_execute_initializers 00000001801ce710 f   libucrt:shared_initialization.obj
 0001:001cd7a4       __acrt_execute_uninitializers 00000001801ce7a4 f   libucrt:shared_initialization.obj
 0001:001cd7ec       __acrt_initialize_new_handler 00000001801ce7ec f   libucrt:new_handler.obj
 0001:001cd7f4       _callnewh                  00000001801ce7f4 f   libucrt:new_handler.obj
 0001:001cd830       _query_new_handler         00000001801ce830 f   libucrt:new_handler.obj
 0001:001cd8ac       __acrt_get_sigabrt_handler 00000001801ce8ac f   libucrt:signal.obj
 0001:001cd8dc       __acrt_initialize_signal_handlers 00000001801ce8dc f   libucrt:signal.obj
 0001:001cd8fc       raise                      00000001801ce8fc f   libucrt:signal.obj
 0001:001cdb7c       __acrt_has_user_matherr    00000001801ceb7c f   libucrt:matherr.obj
 0001:001cdb9c       __acrt_initialize_user_matherr 00000001801ceb9c f   libucrt:matherr.obj
 0001:001cdba4       __acrt_invoke_user_matherr 00000001801ceba4 f   libucrt:matherr.obj
 0001:001cdbdc       __pctype_func              00000001801cebdc f   libucrt:ctype.obj
 0001:001cdc0c       _isctype_l                 00000001801cec0c f   libucrt:isctype.obj
 0001:001cdd30       _get_fpsr                  00000001801ced30 f   libucrt:fpsr.obj
 0001:001cdd40       _set_fpsr                  00000001801ced40 f   libucrt:fpsr.obj
 0001:001cdd4a       _fclrf                     00000001801ced4a f   libucrt:fpsr.obj
 0001:001cdd5e       _frnd                      00000001801ced5e f   libucrt:fpsr.obj
 0001:001cdd80       _query_new_mode            00000001801ced80 f   libucrt:new_mode.obj
 0001:001cdd88       __acrt_DownlevelLocaleNameToLCID 00000001801ced88 f   libucrt:lcidtoname_downlevel.obj
 0001:001cdf50       fclose                     00000001801cef50 f   libucrt:fclose.obj
 0001:001ce074       _commit                    00000001801cf074 f   libucrt:commit.obj
 0001:001ce924       _write_internal            00000001801cf924 f   libucrt:write.obj
 0001:001cea4c       _write_nolock              00000001801cfa4c f   libucrt:write.obj
 0001:001ced5c       __acrt_lowio_create_handle_array 00000001801cfd5c f   libucrt:osfinfo.obj
 0001:001cee04       __acrt_lowio_destroy_handle_array 00000001801cfe04 f   libucrt:osfinfo.obj
 0001:001cee54       __acrt_lowio_ensure_fh_exists 00000001801cfe54 f   libucrt:osfinfo.obj
 0001:001ceefc       __acrt_lowio_lock_fh       00000001801cfefc f   libucrt:osfinfo.obj
 0001:001cef24       __acrt_lowio_unlock_fh     00000001801cff24 f   libucrt:osfinfo.obj
 0001:001cef4c       _free_osfhnd               00000001801cff4c f   libucrt:osfinfo.obj
 0001:001cf008       _get_osfhandle             00000001801d0008 f   libucrt:osfinfo.obj
 0001:001cf080       __acrt_add_locale_ref      00000001801d0080 f   libucrt:locale_refcounting.obj
 0001:001cf10c       __acrt_free_locale         00000001801d010c f   libucrt:locale_refcounting.obj
 0001:001cf284       __acrt_locale_add_lc_time_reference 00000001801d0284 f   libucrt:locale_refcounting.obj
 0001:001cf2ac       __acrt_locale_free_lc_time_if_unreferenced 00000001801d02ac f   libucrt:locale_refcounting.obj
 0001:001cf2e4       __acrt_locale_release_lc_time_reference 00000001801d02e4 f   libucrt:locale_refcounting.obj
 0001:001cf30c       __acrt_release_locale_ref  00000001801d030c f   libucrt:locale_refcounting.obj
 0001:001cf3b4       __acrt_update_thread_locale_data 00000001801d03b4 f   libucrt:locale_refcounting.obj
 0001:001cf424       _updatetlocinfoEx_nolock   00000001801d0424 f   libucrt:locale_refcounting.obj
 0001:001cf48c       __acrt_fp_strflt_to_string 00000001801d048c f   libucrt:_fptostr.obj
 0001:001cf610       ?divide@__crt_strtox@@YA_KAEAUbig_integer@1@AEBU21@@Z 00000001801d0610 f i libucrt:cfout.obj
 0001:001cfa9c       __acrt_fltout              00000001801d0a9c f   libucrt:cfout.obj
 0001:001d0d64       fegetround                 00000001801d1d64 f   libucrt:fegetround.obj
 0001:001d0d78       ?__c32rtomb_utf8@__crt_mbstring@@YA_KPEAD_UPEAU_Mbstatet@@AEAV__crt_cached_ptd_host@@@Z 00000001801d1d78 f   libucrt:c32rtomb.obj
 0001:001d0e1c       ?__mbrtowc_utf8@__crt_mbstring@@YA_KPEA_WPEBD_KPEAU_Mbstatet@@AEAV__crt_cached_ptd_host@@@Z 00000001801d1e1c f   libucrt:mbrtowc.obj
 0001:001d0e60       ?__mbsrtowcs_utf8@__crt_mbstring@@YA_KPEA_WPEAPEBD_KPEAU_Mbstatet@@AEAV__crt_cached_ptd_host@@@Z 00000001801d1e60 f   libucrt:mbrtowc.obj
 0001:001d1178       __acrt_stdio_flush_and_write_narrow_nolock 00000001801d2178 f   libucrt:_flsbuf.obj
 0001:001d123c       _isatty                    00000001801d223c f   libucrt:isatty.obj
 0001:001d129c       __acrt_locale_free_monetary 00000001801d229c f   libucrt:initmon.obj
 0001:001d13a8       __acrt_locale_free_numeric 00000001801d23a8 f   libucrt:initnum.obj
 0001:001d1448       __acrt_locale_free_time    00000001801d2448 f   libucrt:inittime.obj
 0001:001d1550       __acrt_GetStringTypeA      00000001801d2550 f   libucrt:getstringtypea.obj
 0001:001d16ec       _raise_exc                 00000001801d26ec f   libucrt:fpexcept.obj
 0001:001d1714       _raise_exc_ex              00000001801d2714 f   libucrt:fpexcept.obj
 0001:001d1a24       _raise_excf                00000001801d2a24 f   libucrt:fpexcept.obj
 0001:001d1a50       _set_errno_from_matherr    00000001801d2a50 f   libucrt:fpexcept.obj
 0001:001d1a80       qsort                      00000001801d2a80 f   libucrt:qsort.obj
 0001:001d1e90       strncpy_s                  00000001801d2e90 f   libucrt:strncpy_s.obj
 0001:001d2020       strpbrk                    00000001801d3020 f   libucrt:strpbrk.obj
 0001:001d23e8       _mbsdec                    00000001801d33e8 f   libucrt:mbsdec.obj
 0001:001d23f0       _mbsdec_l                  00000001801d33f0 f   libucrt:mbsdec.obj
 0001:001d27a4       __acrt_LCMapStringA        00000001801d37a4 f   libucrt:lcmapstringa.obj
 0001:001d2854       _msize_base                00000001801d3854 f   libucrt:msize.obj
 0001:001d2890       _realloc_base              00000001801d3890 f   libucrt:realloc_base.obj
 0001:001d290c       __ascii_wcsnicmp           00000001801d390c f   libucrt:wcsnicmp.obj
 0001:001d29d0       _close_internal            00000001801d39d0 f   libucrt:close.obj
 0001:001d2a94       _close_nolock_internal     00000001801d3a94 f   libucrt:close.obj
 0001:001d2b64       ?__acrt_stdio_free_stream@@YAXV__crt_stdio_stream@@@Z 00000001801d3b64 f   libucrt:stream.obj
 0001:001d2d54       _lseeki64                  00000001801d3d54 f   libucrt:lseek.obj
 0001:001d2df0       _lseeki64_nolock_internal  00000001801d3df0 f   libucrt:lseek.obj
 0001:001d2df8       _putwch_nolock             00000001801d3df8 f   libucrt:putwch.obj
 0001:001d2e34       _query_app_type            00000001801d3e34 f   libucrt:report_runtime_error.obj
 0001:001d2e3c       _controlfp_s               00000001801d3e3c f   libucrt:contrlfp.obj
 0001:001d2ea0       fegetenv                   00000001801d3ea0 f   libucrt:fegetenv.obj
 0001:001d2ec0       fesetenv                   00000001801d3ec0 f   libucrt:fesetenv.obj
 0001:001d2f0c       feholdexcept               00000001801d3f0c f   libucrt:feholdexcept.obj
 0001:001d2f5c       ceil                       00000001801d3f5c f   libucrt:ceil.obj
 0001:001d3020       log10                      00000001801d4020 f   libucrt:log10.obj
 0001:001d35cc       __acrt_fenv_get_common_round_control 00000001801d45cc f   libucrt:_fenvutils.obj
 0001:001d35d8       __acrt_fenv_get_control    00000001801d45d8 f   libucrt:_fenvutils.obj
 0001:001d36bc       __acrt_fenv_get_status     00000001801d46bc f   libucrt:_fenvutils.obj
 0001:001d3714       __acrt_fenv_set_control    00000001801d4714 f   libucrt:_fenvutils.obj
 0001:001d3850       __acrt_fenv_set_status     00000001801d4850 f   libucrt:_fenvutils.obj
 0001:001d38c4       ?reset_and_return@__crt_mbstring@@YA_K_KPEAU_Mbstatet@@@Z 00000001801d48c4 f   libucrt:common_utf8.obj
 0001:001d38cc       ?return_illegal_sequence@__crt_mbstring@@YA_KPEAU_Mbstatet@@AEAV__crt_cached_ptd_host@@@Z 00000001801d48cc f   libucrt:common_utf8.obj
 0001:001d38e0       ?__mbrtoc32_utf8@__crt_mbstring@@YA_KPEA_UPEBD_KPEAU_Mbstatet@@AEAV__crt_cached_ptd_host@@@Z 00000001801d48e0 f   libucrt:mbrtoc32.obj
 0001:001d3abc       __acrt_stdio_allocate_buffer_nolock 00000001801d4abc f   libucrt:_getbuf.obj
 0001:001d3b28       __strncnt                  00000001801d4b28 f   libucrt:strncnt.obj
 0001:001d3b40       __dcrt_lowio_ensure_console_output_initialized 00000001801d4b40 f   libucrt:initcon.obj
 0001:001d3b94       __dcrt_terminate_console_output 00000001801d4b94 f   libucrt:initcon.obj
 0001:001d3bb0       __dcrt_write_console       00000001801d4bb0 f   libucrt:initcon.obj
 0001:001d3c70       _clearfp                   00000001801d4c70 f   libucrt:ieee.obj
 0001:001d3ce0       _control87                 00000001801d4ce0 f   libucrt:ieee.obj
 0001:001d3fb0       _log10_special             00000001801d4fb0 f   libucrt:log_special.obj
 0001:001d4070       _FindPESection             00000001801d5070 f   LIBCMT:pesect.obj
 0001:001d40c0       _IsNonwritableInCurrentImage 00000001801d50c0 f   LIBCMT:pesect.obj
 0001:001d4110       _ValidateImageBase         00000001801d5110 f   LIBCMT:pesect.obj
 0001:001d413c       __GSHandlerCheck           00000001801d513c f   LIBCMT:gshandler.obj
 0001:001d415c       __GSHandlerCheckCommon     00000001801d515c f   LIBCMT:gshandler.obj
 0001:001d41d0       __security_check_cookie    00000001801d51d0 f   LIBCMT:amdsecgs.obj
 0001:001d41f0       __GSHandlerCheck_SEH       00000001801d51f0 f   LIBCMT:gshandlerseh.obj
 0001:001d4278       __raise_securityfailure    00000001801d5278 f   LIBCMT:gs_report.obj
 0001:001d42ac       __report_gsfailure         00000001801d52ac f   LIBCMT:gs_report.obj
 0001:001d4380       __report_rangecheckfailure 00000001801d5380 f   LIBCMT:gs_report.obj
 0001:001d4394       __report_securityfailure   00000001801d5394 f   LIBCMT:gs_report.obj
 0001:001d4514       __GSHandlerCheck_EH        00000001801d5514 f   LIBCMT:gshandlereh.obj
 0001:001d4594       __C_specific_handler_noexcept 00000001801d5594 f   libvcruntime:chandler_noexcept.obj
 0001:001d45e0       strrchr                    00000001801d55e0 f   libvcruntime:strrchr.obj
 0001:001d4730       memcmp                     00000001801d5730 f   libvcruntime:memcmp.obj
 0001:001d4810       _guard_dispatch_icall_nop  00000001801d5810 f   LIBCMT:guard_dispatch.obj
 0001:001d4830       _guard_xfg_dispatch_icall_nop 00000001801d5830 f   LIBCMT:guard_xfg_dispatch.obj
 0002:00000000       __imp_GetLastError         00000001801d6000     kernel32:KERNEL32.dll
 0002:00000008       __imp_FreeLibrary          00000001801d6008     kernel32:KERNEL32.dll
 0002:00000010       __imp_GetProcAddress       00000001801d6010     kernel32:KERNEL32.dll
 0002:00000018       __imp_LoadLibraryA         00000001801d6018     kernel32:KERNEL32.dll
 0002:00000020       __imp_WriteConsoleW        00000001801d6020     kernel32:KERNEL32.dll
 0002:00000028       __imp_RaiseException       00000001801d6028     kernel32:KERNEL32.dll
 0002:00000030       __imp_GetSystemInfo        00000001801d6030     kernel32:KERNEL32.dll
 0002:00000038       __imp_VirtualProtect       00000001801d6038     kernel32:KERNEL32.dll
 0002:00000040       __imp_VirtualQuery         00000001801d6040     kernel32:KERNEL32.dll
 0002:00000048       __imp_GetModuleHandleW     00000001801d6048     kernel32:KERNEL32.dll
 0002:00000050       __imp_LoadLibraryExA       00000001801d6050     kernel32:KERNEL32.dll
 0002:00000058       __imp_InitializeSListHead  00000001801d6058     kernel32:KERNEL32.dll
 0002:00000060       __imp_RtlCaptureContext    00000001801d6060     kernel32:KERNEL32.dll
 0002:00000068       __imp_RtlLookupFunctionEntry 00000001801d6068     kernel32:KERNEL32.dll
 0002:00000070       __imp_RtlVirtualUnwind     00000001801d6070     kernel32:KERNEL32.dll
 0002:00000078       __imp_IsDebuggerPresent    00000001801d6078     kernel32:KERNEL32.dll
 0002:00000080       __imp_UnhandledExceptionFilter 00000001801d6080     kernel32:KERNEL32.dll
 0002:00000088       __imp_SetUnhandledExceptionFilter 00000001801d6088     kernel32:KERNEL32.dll
 0002:00000090       __imp_GetStartupInfoW      00000001801d6090     kernel32:KERNEL32.dll
 0002:00000098       __imp_IsProcessorFeaturePresent 00000001801d6098     kernel32:KERNEL32.dll
 0002:000000a0       __imp_QueryPerformanceCounter 00000001801d60a0     kernel32:KERNEL32.dll
 0002:000000a8       __imp_GetCurrentProcessId  00000001801d60a8     kernel32:KERNEL32.dll
 0002:000000b0       __imp_GetCurrentThreadId   00000001801d60b0     kernel32:KERNEL32.dll
 0002:000000b8       __imp_GetSystemTimeAsFileTime 00000001801d60b8     kernel32:KERNEL32.dll
 0002:000000c0       __imp_InterlockedPushEntrySList 00000001801d60c0     kernel32:KERNEL32.dll
 0002:000000c8       __imp_InterlockedFlushSList 00000001801d60c8     kernel32:KERNEL32.dll
 0002:000000d0       __imp_RtlUnwindEx          00000001801d60d0     kernel32:KERNEL32.dll
 0002:000000d8       __imp_SetLastError         00000001801d60d8     kernel32:KERNEL32.dll
 0002:000000e0       __imp_EnterCriticalSection 00000001801d60e0     kernel32:KERNEL32.dll
 0002:000000e8       __imp_LeaveCriticalSection 00000001801d60e8     kernel32:KERNEL32.dll
 0002:000000f0       __imp_DeleteCriticalSection 00000001801d60f0     kernel32:KERNEL32.dll
 0002:000000f8       __imp_InitializeCriticalSectionAndSpinCount 00000001801d60f8     kernel32:KERNEL32.dll
 0002:00000100       __imp_TlsAlloc             00000001801d6100     kernel32:KERNEL32.dll
 0002:00000108       __imp_TlsGetValue          00000001801d6108     kernel32:KERNEL32.dll
 0002:00000110       __imp_TlsSetValue          00000001801d6110     kernel32:KERNEL32.dll
 0002:00000118       __imp_TlsFree              00000001801d6118     kernel32:KERNEL32.dll
 0002:00000120       __imp_LoadLibraryExW       00000001801d6120     kernel32:KERNEL32.dll
 0002:00000128       __imp_EncodePointer        00000001801d6128     kernel32:KERNEL32.dll
 0002:00000130       __imp_RtlPcToFileHeader    00000001801d6130     kernel32:KERNEL32.dll
 0002:00000138       __imp_RtlUnwind            00000001801d6138     kernel32:KERNEL32.dll
 0002:00000140       __imp_GetCurrentProcess    00000001801d6140     kernel32:KERNEL32.dll
 0002:00000148       __imp_ExitProcess          00000001801d6148     kernel32:KERNEL32.dll
 0002:00000150       __imp_TerminateProcess     00000001801d6150     kernel32:KERNEL32.dll
 0002:00000158       __imp_GetModuleHandleExW   00000001801d6158     kernel32:KERNEL32.dll
 0002:00000160       __imp_GetModuleFileNameW   00000001801d6160     kernel32:KERNEL32.dll
 0002:00000168       __imp_HeapAlloc            00000001801d6168     kernel32:KERNEL32.dll
 0002:00000170       __imp_HeapFree             00000001801d6170     kernel32:KERNEL32.dll
 0002:00000178       __imp_FlsAlloc             00000001801d6178     kernel32:KERNEL32.dll
 0002:00000180       __imp_FlsGetValue          00000001801d6180     kernel32:KERNEL32.dll
 0002:00000188       __imp_FlsSetValue          00000001801d6188     kernel32:KERNEL32.dll
 0002:00000190       __imp_FlsFree              00000001801d6190     kernel32:KERNEL32.dll
 0002:00000198       __imp_LCMapStringW         00000001801d6198     kernel32:KERNEL32.dll
 0002:000001a0       __imp_GetStdHandle         00000001801d61a0     kernel32:KERNEL32.dll
 0002:000001a8       __imp_GetFileType          00000001801d61a8     kernel32:KERNEL32.dll
 0002:000001b0       __imp_FindClose            00000001801d61b0     kernel32:KERNEL32.dll
 0002:000001b8       __imp_FindFirstFileExW     00000001801d61b8     kernel32:KERNEL32.dll
 0002:000001c0       __imp_FindNextFileW        00000001801d61c0     kernel32:KERNEL32.dll
 0002:000001c8       __imp_IsValidCodePage      00000001801d61c8     kernel32:KERNEL32.dll
 0002:000001d0       __imp_GetACP               00000001801d61d0     kernel32:KERNEL32.dll
 0002:000001d8       __imp_GetOEMCP             00000001801d61d8     kernel32:KERNEL32.dll
 0002:000001e0       __imp_GetCPInfo            00000001801d61e0     kernel32:KERNEL32.dll
 0002:000001e8       __imp_GetCommandLineA      00000001801d61e8     kernel32:KERNEL32.dll
 0002:000001f0       __imp_GetCommandLineW      00000001801d61f0     kernel32:KERNEL32.dll
 0002:000001f8       __imp_MultiByteToWideChar  00000001801d61f8     kernel32:KERNEL32.dll
 0002:00000200       __imp_WideCharToMultiByte  00000001801d6200     kernel32:KERNEL32.dll
 0002:00000208       __imp_GetEnvironmentStringsW 00000001801d6208     kernel32:KERNEL32.dll
 0002:00000210       __imp_FreeEnvironmentStringsW 00000001801d6210     kernel32:KERNEL32.dll
 0002:00000218       __imp_GetProcessHeap       00000001801d6218     kernel32:KERNEL32.dll
 0002:00000220       __imp_FlushFileBuffers     00000001801d6220     kernel32:KERNEL32.dll
 0002:00000228       __imp_WriteFile            00000001801d6228     kernel32:KERNEL32.dll
 0002:00000230       __imp_GetConsoleOutputCP   00000001801d6230     kernel32:KERNEL32.dll
 0002:00000238       __imp_GetConsoleMode       00000001801d6238     kernel32:KERNEL32.dll
 0002:00000240       __imp_SetStdHandle         00000001801d6240     kernel32:KERNEL32.dll
 0002:00000248       __imp_GetFileSizeEx        00000001801d6248     kernel32:KERNEL32.dll
 0002:00000250       __imp_SetFilePointerEx     00000001801d6250     kernel32:KERNEL32.dll
 0002:00000258       __imp_GetStringTypeW       00000001801d6258     kernel32:KERNEL32.dll
 0002:00000260       __imp_HeapSize             00000001801d6260     kernel32:KERNEL32.dll
 0002:00000268       __imp_HeapReAlloc          00000001801d6268     kernel32:KERNEL32.dll
 0002:00000270       __imp_CloseHandle          00000001801d6270     kernel32:KERNEL32.dll
 0002:00000278       __imp_CreateFileW          00000001801d6278     kernel32:KERNEL32.dll
 0002:00000280       \177KERNEL32_NULL_THUNK_DATA 00000001801d6280     kernel32:KERNEL32.dll
 0002:00000288       __guard_check_icall_fptr   00000001801d6288     LIBCMT:guard_support.obj
 0002:00000290       __guard_xfg_check_icall_fptr 00000001801d6290     LIBCMT:guard_support.obj
 0002:00000298       __guard_dispatch_icall_fptr 00000001801d6298     LIBCMT:guard_support.obj
 0002:000002a0       __guard_xfg_dispatch_icall_fptr 00000001801d62a0     LIBCMT:guard_support.obj
 0002:000002a8       __guard_xfg_table_dispatch_icall_fptr 00000001801d62a8     LIBCMT:guard_support.obj
 0002:000002b0       __castguard_check_failure_os_handled_fptr 00000001801d62b0     LIBCMT:guard_support.obj
 0002:000002b8       __guard_memcpy_fptr        00000001801d62b8     libvcruntime:softmemtag.obj
 0002:000002c0       __xc_a                     00000001801d62c0     LIBCMT:initializers.obj
 0002:00001c68       __xc_z                     00000001801d7c68     LIBCMT:initializers.obj
 0002:00001c70       __xi_a                     00000001801d7c70     LIBCMT:initializers.obj
 0002:00001c78       __acrt_stdio_initializer   00000001801d7c78     libucrt:stdio_initializer.obj
 0002:00001c80       __acrt_tran_fma3_initializer 00000001801d7c80     libucrt:fma3_initializer.obj
 0002:00001c88       __acrt_multibyte_initializer 00000001801d7c88     libucrt:multibyte_initializer.obj
 0002:00001c90       __xi_z                     00000001801d7c90     LIBCMT:initializers.obj
 0002:00001c98       __xp_a                     00000001801d7c98     LIBCMT:initializers.obj
 0002:00001ca0       __acrt_locale_terminator   00000001801d7ca0     libucrt:locale_initializer.obj
 0002:00001ca8       __dcrt_console_output_terminator 00000001801d7ca8     libucrt:console_output_initializer.obj
 0002:00001cb0       __acrt_stdio_terminator    00000001801d7cb0     libucrt:stdio_initializer.obj
 0002:00001cb8       __xp_z                     00000001801d7cb8     LIBCMT:initializers.obj
 0002:00001cc0       __xt_a                     00000001801d7cc0     LIBCMT:initializers.obj
 0002:00001cc8       __xt_z                     00000001801d7cc8     LIBCMT:initializers.obj
 0002:00001cd0       ??_C@_08MDGMHCHN@PtrTable@ 00000001801d7cd0     CmPtrTable.obj
 0002:00001cdc       ??_C@_04GKJNKENE@void@     00000001801d7cdc     CmPtrTable.obj
 0002:00001ce8       ??_C@_07DFEBJDHE@mSingle@  00000001801d7ce8     CmPtrTable.obj
 0002:00001cf0       ??_C@_05NLHHBMOH@PxU16@    00000001801d7cf0     CmPtrTable.obj
 0002:00001cf8       ??_C@_06EPKHJPIM@mCount@   00000001801d7cf8     CmPtrTable.obj
 0002:00001d00       ??_C@_04DDKJGDCM@bool@     00000001801d7d00     CmPtrTable.obj
 0002:00001d08       ??_C@_0M@DAGELID@mOwnsMemory@ 00000001801d7d08     CmPtrTable.obj
 0002:00001d18       ??_C@_0M@MMPOMMLP@mBufferUsed@ 00000001801d7d18     CmPtrTable.obj
 0002:00001d24       ??_C@_05LMJPANIN@PxU32@    00000001801d7d24     CmPtrTable.obj
 0002:00001d30       ??_C@_09PMLNMEMN@mFreeSlot@ 00000001801d7d30     CmPtrTable.obj
 0002:00001d40       ??_7PxCollection@physx@@6B@ 00000001801d7d40     CmCollection.obj
 0002:00001dc0       ??_C@_00CNPNBAHC@@         00000001801d7dc0     CmCollection.obj
 0002:00001dc8       ??_7Collection@Cm@physx@@6B@ 00000001801d7dc8     CmCollection.obj
 0002:00001e50       ??_C@_0GE@GBACBMOC@PxCollection?3?3add?5called?5for?5an@ 00000001801d7e50     CmCollection.obj
 0002:00001ec0       ??_C@_0FH@CNBKOMJB@D?3?2Repositories?2PhysX?2PhysX?9105@ 00000001801d7ec0     CmCollection.obj
 0002:00001f20       ??_C@_0EM@OMMGDOMK@PxCollection?3?3add?5called?5with?5a@ 00000001801d7f20     CmCollection.obj
 0002:00001f70       ??_C@_0EL@CBFFIHFG@PxCollection?3?3remove?5called?5for@ 00000001801d7f70     CmCollection.obj
 0002:00001fc0       ??_C@_0EP@DBNENNLL@PxCollection?3?3addId?5called?5for?5@ 00000001801d7fc0     CmCollection.obj
 0002:00002010       ??_C@_0FL@DACPFKDD@PxCollection?3?3addId?5called?5with@ 00000001801d8010     CmCollection.obj
 0002:00002070       ??_C@_0EP@GMPAMDKI@PxCollection?3?3addId?5called?5with@ 00000001801d8070     CmCollection.obj
 0002:000020c0       ??_C@_0FO@DIHIGAFD@PxCollection?3?3removeId?5called?5w@ 00000001801d80c0     CmCollection.obj
 0002:00002120       ??_C@_0FF@MENHIPMD@PxCollection?3?3removeId?5called?5w@ 00000001801d8120     CmCollection.obj
 0002:00002180       ??_C@_0FK@BAFICJEM@PxCollection?3?3find?5called?5with?5@ 00000001801d8180     CmCollection.obj
 0002:000021e0       ??_C@_0DF@CLGAFPLL@PxCollection?3?3add?$CIPxCollection?$CG@ 00000001801d81e0     CmCollection.obj
 0002:00002218       ??_C@_0DN@DMJACFO@PxCollection?3?3add?$CIPxCollection?$CG@ 00000001801d8218     CmCollection.obj
 0002:00002258       ??_C@_0DI@DICAIAPC@PxCollection?3?3remove?$CIPxCollecti@ 00000001801d8258     CmCollection.obj
 0002:00002290       ??_C@_0DG@LOILDLGN@PxCollection?3?3getObjects?5called@ 00000001801d8290     CmCollection.obj
 0002:000022c8       ??_C@_0DD@GMICJLDJ@PxCollection?3?3getObjects?5called@ 00000001801d82c8     CmCollection.obj
 0002:00002300       ??_C@_0DC@GILGGBAI@PxCollection?3?3getIds?5called?5wit@ 00000001801d8300     CmCollection.obj
 0002:00002338       ??_C@_0CP@LFEKADKN@PxCollection?3?3getIds?5called?5wit@ 00000001801d8338     CmCollection.obj
 0002:00002370       ??_C@_0FJ@FPCGEDFE@D?3?2Repositories?2PhysX?2PhysX?9105@ 00000001801d8370     CmCollection.obj
 0002:000023d0       ??_C@_0BM@OIFKLHDN@?$DMallocation?5names?5disabled?$DO@ 00000001801d83d0     CmCollection.obj
 0002:000023f0       ??_7RadixSort@Cm@physx@@6B@ 00000001801d83f0     CmRadixSort.obj
 0002:000023f8       ??_7RadixSortBuffered@Cm@physx@@6B@ 00000001801d83f8     CmRadixSort.obj
 0002:00002400       ??_C@_0FG@MAJDHOMO@D?3?2Repositories?2PhysX?2PhysX?9105@ 00000001801d8400     CmRadixSort.obj
 0002:00002460       __xmm@00000001000000010000000100000001 00000001801d8460     CmRadixSort.obj
 0002:00002470       __xmm@00000003000000020000000100000000 00000001801d8470     CmRadixSort.obj
 0002:00002480       __real@3d4ccccd            00000001801d8480     CmVisualization.obj
 0002:00002484       __real@3e19999a            00000001801d8484     CmVisualization.obj
 0002:00002488       __real@3e490fdb            00000001801d8488     CmVisualization.obj
 0002:0000248c       __real@3e800000            00000001801d848c     CmVisualization.obj
 0002:00002490       __real@3e99999a            00000001801d8490     CmVisualization.obj
 0002:00002494       __real@3ea0d97c            00000001801d8494     CmVisualization.obj
 0002:00002498       __real@3eddb3d7            00000001801d8498     CmVisualization.obj
 0002:0000249c       __real@3f3504f3            00000001801d849c     CmVisualization.obj
 0002:000024a0       __real@3f800000            00000001801d84a0     CmVisualization.obj
 0002:000024a4       __real@3fc00000            00000001801d84a4     CmVisualization.obj
 0002:000024a8       __real@3fddb3d7            00000001801d84a8     CmVisualization.obj
 0002:000024ac       __real@40100000            00000001801d84ac     CmVisualization.obj
 0002:000024b0       __real@40c90fdb            00000001801d84b0     CmVisualization.obj
 0002:000024b4       __real@bfddb3d7            00000001801d84b4     CmVisualization.obj
 0002:000024b8       __real@c0000000            00000001801d84b8     CmVisualization.obj
 0002:000024c0       __xmm@3f800000000000000000000000000000 00000001801d84c0     CmVisualization.obj
 0002:000024d0       __xmm@7fffffff7fffffff7fffffff7fffffff 00000001801d84d0     CmVisualization.obj
 0002:000024e0       __xmm@80000000800000008000000080000000 00000001801d84e0     CmVisualization.obj
 0002:000024f0       ??_C@_0BB@CPDDPFKD@GetUpdatedModule@ 00000001801d84f0     CmWindowsModuleUpdateLoader.obj
 0002:00002510       ??_C@_0GO@FPCOIPMO@D?3?2Repositories?2PhysX?2PhysX?9105@ 00000001801d8510     CmWindowsModuleUpdateLoader.obj
 0002:00002580       ??_C@_0CP@PGOIOJOO@?$CFs?3?$CFi?3?5loadLibrary?5error?5when?5l@ 00000001801d8580     CmWindowsModuleUpdateLoader.obj
 0002:000025b0       ??_C@_0BA@EGLNOO@PhysXFoundation@ 00000001801d85b0     CmWindowsDelayLoadHook.obj
 0002:000025c0       ??_C@_0M@ILKNCJKN@PhysXCommon@ 00000001801d85c0     CmWindowsDelayLoadHook.obj
 0002:000025f0       __real@3f000000            00000001801d85f0     GuBox.obj
 0002:000025f4       __real@3f7ff972            00000001801d85f4     GuBox.obj
 0002:00002600       __xmm@000000003a83126f3a83126f3a83126f 00000001801d8600     GuBox.obj
 0002:00002610       __xmm@00000000ba83126fba83126fba83126f 00000001801d8610     GuBox.obj
 0002:00002620       __xmm@3a83126f3a83126f3a83126f3a83126f 00000001801d8620     GuBox.obj
 0002:00002630       __xmm@ba83126fba83126fba83126fba83126f 00000001801d8630     GuBox.obj
 0002:00002660       ??_7EntityReport@Gu@physx@@6B@ 00000001801d8660     GuSweepsHF.obj
 0002:00002660       ??_7OverlapCallback@PxBVH@physx@@6B@ 00000001801d8660     GuQuerySystem.obj
 0002:00002660       ??_7OverlapReport@Gu@physx@@6B@ 00000001801d8660     GuCCTSweepTests.obj
 0002:00002660       ??_7RaycastCallback@PxBVH@physx@@6B@ 00000001801d8660     GuQuerySystem.obj
 0002:00002660       ??_7RemapCallback@RTreeCooker@physx@@6B@ 00000001801d8660     GuCookingTriangleMesh.obj
 0002:00002680       __real@3b03126f            00000001801d8680     GuCCTSweepTests.obj
 0002:00002684       __real@40000000            00000001801d8684     GuCCTSweepTests.obj
 0002:000026c0       ??_C@_0CD@CGJJEFHC@Gu?3?3overlap?$CI?$CJ?3?5pose0?5is?5not?5val@ 00000001801d86c0     GuGeometryQuery.obj
 0002:000026f0       ??_C@_0FO@PFMHBMBJ@D?3?2Repositories?2PhysX?2PhysX?9105@ 00000001801d86f0     GuGeometryQuery.obj
 0002:00002750       ??_C@_0CD@IIPBNEOD@Gu?3?3overlap?$CI?$CJ?3?5pose1?5is?5not?5val@ 00000001801d8750     GuGeometryQuery.obj
 0002:00002778       ??_7SupportLocal@Gu@physx@@6B@ 00000001801d8778     GuGeometryQuery.obj
 0002:00002798       ??_C@_0CO@DGHGHPPJ@PxGeometryQuery?3?3sweep?$CI?$CJ?3?5pose0@ 00000001801d8798     GuGeometryQuery.obj
 0002:000027d0       ??_C@_0FN@LGIMNDID@D?3?2Repositories?2PhysX?2PhysX?9105@ 00000001801d87d0     GuGeometryQuery.obj
 0002:00002830       ??_C@_0CO@JIBOOOGI@PxGeometryQuery?3?3sweep?$CI?$CJ?3?5pose1@ 00000001801d8830     GuGeometryQuery.obj
 0002:00002860       ??_C@_0DA@JEEBDBEM@PxGeometryQuery?3?3sweep?$CI?$CJ?3?5unitD@ 00000001801d8860     GuGeometryQuery.obj
 0002:00002890       ??_C@_0DB@KCEKJBPE@PxGeometryQuery?3?3sweep?$CI?$CJ?3?5dista@ 00000001801d8890     GuGeometryQuery.obj
 0002:000028d0       ??_C@_0FM@HAJNNJNC@PxGeometryQuery?3?3sweep?$CI?$CJ?3?5sweep@ 00000001801d88d0     GuGeometryQuery.obj
 0002:00002930       ??_C@_0CB@JDDBKCNL@Provided?5geometry?50?5is?5not?5vali@ 00000001801d8930     GuGeometryQuery.obj
 0002:00002958       ??_C@_0CB@CKMKHJDD@Provided?5geometry?51?5is?5not?5vali@ 00000001801d8958     GuGeometryQuery.obj
 0002:00002980       ??_C@_0GL@GJKJELMB@PxGeometryQuery?3?3sweep?$CI?$CJ?3?5first@ 00000001801d8980     GuGeometryQuery.obj
 0002:000029f0       ??_C@_0DB@OMDGMOND@PxGeometryQuery?3?3raycast?$CI?$CJ?3?5ray@ 00000001801d89f0     GuGeometryQuery.obj
 0002:00002a28       ??_C@_0DE@MGFNMBNA@PxGeometryQuery?3?3raycast?$CI?$CJ?3?5ray@ 00000001801d8a28     GuGeometryQuery.obj
 0002:00002a60       ??_C@_0CP@NHLDPNEB@PxGeometryQuery?3?3raycast?$CI?$CJ?3?5pos@ 00000001801d8a60     GuGeometryQuery.obj
 0002:00002a90       ??_C@_0DB@HPNPNEMP@PxGeometryQuery?3?3raycast?$CI?$CJ?3?5max@ 00000001801d8a90     GuGeometryQuery.obj
 0002:00002ac8       ??_C@_0DC@BLMIOBO@PxGeometryQuery?3?3raycast?$CI?$CJ?3?5max@ 00000001801d8ac8     GuGeometryQuery.obj
 0002:00002b00       ??_C@_0DP@IPJGHFJE@PxGeometryQuery?3?3raycast?$CI?$CJ?3?5ray@ 00000001801d8b00     GuGeometryQuery.obj
 0002:00002b40       ??_C@_0DF@BMEFDPAL@PxGeometryQuery?3?3pointDistance?$CI@ 00000001801d8b40     GuGeometryQuery.obj
 0002:00002b80       ??_C@_0HD@CIHHMJFE@PxGeometryQuery?3?3pointDistance?$CI@ 00000001801d8b80     GuGeometryQuery.obj
 0002:00002bf8       ??_C@_0DJ@FHLFMELL@PxGeometryQuery?3?3computeGeomBou@ 00000001801d8bf8     GuGeometryQuery.obj
 0002:00002c38       ??_C@_0DL@LECAKFBF@PxGeometryQuery?3?3computePenetra@ 00000001801d8c38     GuGeometryQuery.obj
 0002:00002c78       ??_C@_0DL@BKEIDEIE@PxGeometryQuery?3?3computePenetra@ 00000001801d8c78     GuGeometryQuery.obj
 0002:00002cb8       ??_7?$SupportLocalImpl@VBoxV@Gu@physx@@@Gu@physx@@6B@ 00000001801d8cb8     GuGeometryQuery.obj
 0002:00002cd8       ??_7?$SupportLocalImpl@VConvexHullV@Gu@physx@@@Gu@physx@@6B@ 00000001801d8cd8     GuGeometryQuery.obj
 0002:00002d00       ??_C@_0FB@HGJJDNBK@D?3?2Repositories?2PhysX?2PhysX?9105@ 00000001801d8d00     GuGeometryQuery.obj
 0002:00002d54       __real@30d1b7e9            00000001801d8d54     GuGeometryQuery.obj
 0002:00002d58       __real@322bcc77            00000001801d8d58     GuGeometryQuery.obj
 0002:00002d5c       __real@358637bd            00000001801d8d5c     GuGeometryQuery.obj
 0002:00002d60       __real@38d1b717            00000001801d8d60     GuGeometryQuery.obj
 0002:00002d64       __real@3a83126f            00000001801d8d64     GuGeometryQuery.obj
 0002:00002d68       __real@3ccccccd            00000001801d8d68     GuGeometryQuery.obj
 0002:00002d6c       __real@3dcccccd            00000001801d8d6c     GuGeometryQuery.obj
 0002:00002d70       __real@49742400            00000001801d8d70     GuGeometryQuery.obj
 0002:00002d74       __real@7f7fffff            00000001801d8d74     GuGeometryQuery.obj
 0002:00002d78       __real@bf800000            00000001801d8d78     GuGeometryQuery.obj
 0002:00002d80       __xmm@0000000000000000000000003f800000 00000001801d8d80     GuGeometryQuery.obj
 0002:00002d90       __xmm@00000000000000003f80000000000000 00000001801d8d90     GuGeometryQuery.obj
 0002:00002da0       __xmm@00000000000000003f8000003f800000 00000001801d8da0     GuGeometryQuery.obj
 0002:00002db0       __xmm@000000003f8000000000000000000000 00000001801d8db0     GuGeometryQuery.obj
 0002:00002dc0       __xmm@000000003f8000003f8000003f800000 00000001801d8dc0     GuGeometryQuery.obj
 0002:00002dd0       __xmm@00000000ffffffffffffffffffffffff 00000001801d8dd0     GuGeometryQuery.obj
 0002:00002de0       __xmm@3d4ccccd3d4ccccd3d4ccccd3d4ccccd 00000001801d8de0     GuGeometryQuery.obj
 0002:00002df0       __xmm@3e19999a3e19999a3e19999a3e19999a 00000001801d8df0     GuGeometryQuery.obj
 0002:00002e00       __xmm@3e4ccccd3e4ccccd3e4ccccd3e4ccccd 00000001801d8e00     GuGeometryQuery.obj
 0002:00002e10       __xmm@3e8000003e8000003e8000003e800000 00000001801d8e10     GuGeometryQuery.obj
 0002:00002e20       __xmm@3f7ef9db3f7ef9db3f7ef9db3f7ef9db 00000001801d8e20     GuGeometryQuery.obj
 0002:00002e30       __xmm@3f7ff2e53f7ff2e53f7ff2e53f7ff2e5 00000001801d8e30     GuGeometryQuery.obj
 0002:00002e40       __xmm@3f8000003f8000003f8000003f800000 00000001801d8e40     GuGeometryQuery.obj
 0002:00002e50       __xmm@7f7fffff7f7fffff7f7fffff7f7fffff 00000001801d8e50     GuGeometryQuery.obj
 0002:00002e60       __xmm@bf000000bf000000bf000000bf000000 00000001801d8e60     GuGeometryQuery.obj
 0002:00002e90       ??_C@_0FL@LDHENFIO@D?3?2Repositories?2PhysX?2PhysX?9105@ 00000001801d8e90     GuMeshFactory.obj
 0002:00002f00       ??_C@_0EM@BDFDGBD@Inserting?5object?5failed?3?5Object@ 00000001801d8f00     GuMeshFactory.obj
 0002:00002f70       ??_7CallbackRaycast@RTree@Gu@physx@@6B@ 00000001801d8f70     GuMidphaseRTree.obj
 0002:00002f70       ??_7CallbackRefit@RTree@Gu@physx@@6B@ 00000001801d8f70     GuTriangleMeshRTree.obj
 0002:00002f70       ??_7PxInsertionCallback@physx@@6B@ 00000001801d8f70     GuMeshFactory.obj
 0002:00002f80       ??_7PxCollisionMeshMappingData@physx@@6B@ 00000001801d8f80     GuMeshFactory.obj
 0002:00002f90       ??_7MeshFactory@Gu@physx@@6B@ 00000001801d8f90     GuMeshFactory.obj
 0002:00002f98       ??_7MeshDataBase@Gu@physx@@6B@ 00000001801d8f98     GuMeshFactory.obj
 0002:00002fa0       ??_C@_0FL@FNKCNLAJ@D?3?2Repositories?2PhysX?2PhysX?9105@ 00000001801d8fa0     GuMeshFactory.obj
 0002:00003000       ??_7TriangleMeshData@Gu@physx@@6B@ 00000001801d9000     GuMeshFactory.obj
 0002:00003008       ??_7RTreeTriangleData@Gu@physx@@6B@ 00000001801d9008     GuMeshFactory.obj
 0002:00003010       ??_7BV4TriangleData@Gu@physx@@6B@ 00000001801d9010     GuMeshFactory.obj
 0002:00003018       ??_7SoftBodyCollisionData@Gu@physx@@6B@ 00000001801d9018     GuMeshFactory.obj
 0002:00003020       ??_7CollisionMeshMappingData@Gu@physx@@6B@ 00000001801d9020     GuMeshFactory.obj
 0002:00003030       ??_7SoftBodySimulationData@Gu@physx@@6B@ 00000001801d9030     GuMeshFactory.obj
 0002:00003040       ??_C@_0GP@NHELMDAL@Loading?5triangle?5mesh?5failed?3?5D@ 00000001801d9040     GuMeshFactory.obj
 0002:000030b0       ??_C@_0BP@CDOKDACA@RTree?5binary?5image?5load?5error?4@ 00000001801d90b0     GuMeshFactory.obj
 0002:000030d0       ??_C@_0BN@MJPNIELF@BV4?5binary?5image?5load?5error?4@ 00000001801d90d0     GuMeshFactory.obj
 0002:000030f0       ??_C@_0BO@JDPABAOF@BV32?5binary?5image?5load?5error?4@ 00000001801d90f0     GuMeshFactory.obj
 0002:00003110       ??_C@_0FB@HPPEDEGD@D?3?2Repositories?2PhysX?2PhysX?9105@ 00000001801d9110     GuMeshFactory.obj
 0002:00003170       __xmm@cdcdcdcdcdcdcdcdcdcdcdcdcdcdcdcd 00000001801d9170     GuMeshFactory.obj
 0002:00003180       __xmm@fe7fffff7e7fffff7e7fffff7e7fffff 00000001801d9180     GuMeshFactory.obj
 0002:000031b0       ??_C@_06EJKDJEDO@PxBase@   00000001801d91b0     GuMetaData.obj
 0002:000031b8       ??_C@_07GFCEJNGM@Valency@  00000001801d91b8     GuMetaData.obj
 0002:000031c0       ??_C@_07NHGKEEIN@mOffset@  00000001801d91c0     GuMetaData.obj
 0002:000031c8       ??_C@_0BB@BAGHBMNJ@BigConvexRawData@ 00000001801d91c8     GuMetaData.obj
 0002:000031e0       ??_C@_07PBDEJAAC@mSubdiv@  00000001801d91e0     GuMetaData.obj
 0002:000031e8       ??_C@_0L@HNPACPGH@mNbSamples@ 00000001801d91e8     GuMetaData.obj
 0002:000031f4       ??_C@_04NCKNBPPK@PxU8@     00000001801d91f4     GuMetaData.obj
 0002:00003200       ??_C@_08DEPEKJNI@mSamples@ 00000001801d9200     GuMetaData.obj
 0002:00003210       ??_C@_08IJDNJBMI@mNbVerts@ 00000001801d9210     GuMetaData.obj
 0002:00003220       ??_C@_0M@MMKMIJAF@mNbAdjVerts@ 00000001801d9220     GuMetaData.obj
 0002:00003230       ??_C@_0L@EOKMNILC@mValencies@ 00000001801d9230     GuMetaData.obj
 0002:00003240       ??_C@_0P@DLGEAMHJ@mAdjacentVerts@ 00000001801d9240     GuMetaData.obj
 0002:00003250       ??_C@_03NGLDENDA@SDF@      00000001801d9250     GuMetaData.obj
 0002:00003254       ??_C@_06KDGGGLIJ@PxVec3@   00000001801d9254     GuMetaData.obj
 0002:0000325c       ??_C@_06GIEBFILM@PxReal@   00000001801d925c     GuMetaData.obj
 0002:00003268       ??_C@_0O@PFOPBKAM@BigConvexData@ 00000001801d9268     GuMetaData.obj
 0002:00003278       ??_C@_05PLKALGFN@mData@    00000001801d9278     GuMetaData.obj
 0002:00003280       ??_C@_08PEMCLHEM@mVBuffer@ 00000001801d9280     GuMetaData.obj
 0002:00003290       ??_C@_09FBMAGD@Alignment@  00000001801d9290     GuMetaData.obj
 0002:000032a0       ??_C@_0BE@KFHIBEEA@InternalObjectsData@ 00000001801d92a0     GuMetaData.obj
 0002:000032b8       ??_C@_07NKGFFIBH@mRadius@  00000001801d92b8     GuMetaData.obj
 0002:000032c0       ??_C@_08EHFCACAE@mExtents@ 00000001801d92c0     GuMetaData.obj
 0002:000032d0       ??_C@_0BA@LFMGGCBK@HullPolygonData@ 00000001801d92d0     GuMetaData.obj
 0002:000032e0       ??_C@_06BOHHGLB@mPlane@    00000001801d92e0     GuMetaData.obj
 0002:000032e8       ??_C@_06EHMLHGLN@mVRef8@   00000001801d92e8     GuMetaData.obj
 0002:000032f0       ??_C@_09BAHHHINI@mMinIndex@ 00000001801d92f0     GuMetaData.obj
 0002:00003300       ??_C@_0P@GBLBPIPB@ConvexHullData@ 00000001801d9300     GuMetaData.obj
 0002:00003310       ??_C@_09JDCJAPKD@PxBounds3@ 00000001801d9310     GuMetaData.obj
 0002:0000331c       ??_C@_05NDNHIFA@mAABB@     00000001801d931c     GuMetaData.obj
 0002:00003328       ??_C@_0O@LNOGEMJI@mCenterOfMass@ 00000001801d9328     GuMetaData.obj
 0002:00003338       ??_C@_09CNMCBBKH@mPolygons@ 00000001801d9338     GuMetaData.obj
 0002:00003348       ??_C@_0BC@KKPDCFJC@mBigConvexRawData@ 00000001801d9348     GuMetaData.obj
 0002:00003360       ??_C@_08MPNAAJLD@mSdfData@ 00000001801d9360     GuMetaData.obj
 0002:00003370       ??_C@_08ELDMKGKH@mNbEdges@ 00000001801d9370     GuMetaData.obj
 0002:00003380       ??_C@_0BA@CGLOHBAC@mNbHullVertices@ 00000001801d9380     GuMetaData.obj
 0002:00003390       ??_C@_0M@HGFFLLDM@mNbPolygons@ 00000001801d9390     GuMetaData.obj
 0002:000033a0       ??_C@_09BHJEMDGO@mInternal@ 00000001801d93a0     GuMetaData.obj
 0002:000033b0       ??_C@_0L@GMFHOMKA@ConvexMesh@ 00000001801d93b0     GuMetaData.obj
 0002:000033c0       ??_C@_09ILEBDLJH@mHullData@ 00000001801d93c0     GuMetaData.obj
 0002:000033cc       ??_C@_03DKDIKGNC@mNb@      00000001801d93cc     GuMetaData.obj
 0002:000033d0       ??_C@_0P@ENLHFHMD@mBigConvexData@ 00000001801d93d0     GuMetaData.obj
 0002:000033e0       ??_C@_05ILALLCHK@mMass@    00000001801d93e0     GuMetaData.obj
 0002:000033e8       ??_C@_07DBPDADGB@PxMat33@  00000001801d93e8     GuMetaData.obj
 0002:000033f0       ??_C@_08FNBHNDBI@mInertia@ 00000001801d93f0     GuMetaData.obj
 0002:00003400       ??_C@_0O@FCKNKLMJ@GuMeshFactory@ 00000001801d9400     GuMetaData.obj
 0002:00003410       ??_C@_0N@EGBCLMAK@mMeshFactory@ 00000001801d9410     GuMetaData.obj
 0002:00003420       ??_C@_0BE@CJJAMAMK@PxHeightFieldSample@ 00000001801d9420     GuMetaData.obj
 0002:00003434       ??_C@_05MBLIPEMA@PxI16@    00000001801d9434     GuMetaData.obj
 0002:0000343c       ??_C@_06LNLHEAAG@height@   00000001801d943c     GuMetaData.obj
 0002:00003448       ??_C@_0N@HHDGHJN@PxBitAndByte@ 00000001801d9448     GuMetaData.obj
 0002:00003458       ??_C@_0P@MBBMLBO@materialIndex0@ 00000001801d9458     GuMetaData.obj
 0002:00003468       ??_C@_0P@BFAKPKFP@materialIndex1@ 00000001801d9468     GuMetaData.obj
 0002:00003478       ??_C@_0BD@EBLPJEOE@PxHeightFieldFlags@ 00000001801d9478     GuMetaData.obj
 0002:00003490       ??_C@_0BK@FNNCFFCN@PxHeightFieldFormat?3?3Enum@ 00000001801d9490     GuMetaData.obj
 0002:000034b0       ??_C@_0BA@CLNFMAAA@HeightFieldData@ 00000001801d94b0     GuMetaData.obj
 0002:000034c0       ??_C@_04IMCGAIPI@rows@     00000001801d94c0     GuMetaData.obj
 0002:000034c8       ??_C@_07HIFEPIJN@columns@  00000001801d94c8     GuMetaData.obj
 0002:000034d0       ??_C@_08MOAGOABI@rowLimit@ 00000001801d94d0     GuMetaData.obj
 0002:000034e0       ??_C@_08BAGEHOBO@colLimit@ 00000001801d94e0     GuMetaData.obj
 0002:000034f0       ??_C@_09LKDBLADF@nbColumns@ 00000001801d94f0     GuMetaData.obj
 0002:00003500       ??_C@_07ODIFGGLK@samples@  00000001801d9500     GuMetaData.obj
 0002:00003508       ??_C@_0BE@POHEGOJG@convexEdgeThreshold@ 00000001801d9508     GuMetaData.obj
 0002:0000351c       ??_C@_05GECEPKB@flags@     00000001801d951c     GuMetaData.obj
 0002:00003524       ??_C@_06DLEPGFEF@format@   00000001801d9524     GuMetaData.obj
 0002:00003530       ??_C@_0BF@MOGDNMPL@PxMaterialTableIndex@ 00000001801d9530     GuMetaData.obj
 0002:00003548       ??_C@_0M@JMJICJJO@HeightField@ 00000001801d9548     GuMetaData.obj
 0002:00003558       ??_C@_0O@ENGHMLJP@mSampleStride@ 00000001801d9558     GuMetaData.obj
 0002:00003568       ??_C@_0L@EBEEMFFB@mMinHeight@ 00000001801d9568     GuMetaData.obj
 0002:00003578       ??_C@_0L@EAEIFPOF@mMaxHeight@ 00000001801d9578     GuMetaData.obj
 0002:00003588       ??_C@_0N@FEFJOKKE@mModifyCount@ 00000001801d9588     GuMetaData.obj
 0002:00003598       ??_C@_09PHDKHCK@RTreePage@ 00000001801d9598     GuMetaData.obj
 0002:000035a4       ??_C@_04LLPOBGED@minx@     00000001801d95a4     GuMetaData.obj
 0002:000035ac       ??_C@_04KCOFCHAC@miny@     00000001801d95ac     GuMetaData.obj
 0002:000035b4       ??_C@_04IJMIHEMB@minz@     00000001801d95b4     GuMetaData.obj
 0002:000035bc       ??_C@_04GGOBOBGO@maxx@     00000001801d95bc     GuMetaData.obj
 0002:000035c4       ??_C@_04HPPKNACP@maxy@     00000001801d95c4     GuMetaData.obj
 0002:000035cc       ??_C@_04FENHIDOM@maxz@     00000001801d95cc     GuMetaData.obj
 0002:000035d4       ??_C@_04HHDFEJON@ptrs@     00000001801d95d4     GuMetaData.obj
 0002:000035dc       ??_C@_05FFEIGAJF@RTree@    00000001801d95dc     GuMetaData.obj
 0002:000035e4       ??_C@_06OMCHPNEO@PxVec4@   00000001801d95e4     GuMetaData.obj
 0002:000035f0       ??_C@_0L@NBIFEFLN@mBoundsMin@ 00000001801d95f0     GuMetaData.obj
 0002:00003600       ??_C@_0L@MDAOKBNC@mBoundsMax@ 00000001801d9600     GuMetaData.obj
 0002:00003610       ??_C@_0N@NJEHLCOF@mInvDiagonal@ 00000001801d9610     GuMetaData.obj
 0002:00003620       ??_C@_0BA@BEFIGPFG@mDiagonalScaler@ 00000001801d9620     GuMetaData.obj
 0002:00003630       ??_C@_09DICGGKGO@mPageSize@ 00000001801d9630     GuMetaData.obj
 0002:00003640       ??_C@_0O@BOFFCNOL@mNumRootPages@ 00000001801d9640     GuMetaData.obj
 0002:00003650       ??_C@_0L@JKLGBKAE@mNumLevels@ 00000001801d9650     GuMetaData.obj
 0002:00003660       ??_C@_0M@PHDOHJGK@mTotalNodes@ 00000001801d9660     GuMetaData.obj
 0002:00003670       ??_C@_0M@GDGHALAO@mTotalPages@ 00000001801d9670     GuMetaData.obj
 0002:0000367c       ??_C@_06MHCBBJGP@mFlags@   00000001801d967c     GuMetaData.obj
 0002:00003684       ??_C@_06MMNBLHOK@mPages@   00000001801d9684     GuMetaData.obj
 0002:00003690       ??_C@_0P@JNLGHJNH@SourceMeshBase@ 00000001801d9690     GuMetaData.obj
 0002:000036a0       ??_C@_06JFCLJMNN@mVerts@   00000001801d96a0     GuMetaData.obj
 0002:000036a8       ??_C@_05GNIIDDHH@mType@    00000001801d96a8     GuMetaData.obj
 0002:000036b0       ??_C@_06DHAAKLFK@mRemap@   00000001801d96b0     GuMetaData.obj
 0002:000036b8       ??_C@_0L@LEOGNOEC@SourceMesh@ 00000001801d96b8     GuMetaData.obj
 0002:000036c8       ??_C@_07MPIKOOAP@mNbTris@  00000001801d96c8     GuMetaData.obj
 0002:000036d0       ??_C@_0N@FBMOMEHF@mTriangles32@ 00000001801d96d0     GuMetaData.obj
 0002:000036e0       ??_C@_0N@DGCGNFBP@mTriangles16@ 00000001801d96e0     GuMetaData.obj
 0002:000036f0       ??_C@_0O@NLNHFNO@QuantizedAABB@ 00000001801d96f0     GuMetaData.obj
 0002:00003700       ??_C@_0BC@OOGBEMHH@mData?$FL0?$FN?4mExtents@ 00000001801d9700     GuMetaData.obj
 0002:00003718       ??_C@_0BB@OCEDKIEF@mData?$FL0?$FN?4mCenter@ 00000001801d9718     GuMetaData.obj
 0002:00003730       ??_C@_0BC@HFMEAABI@mData?$FL1?$FN?4mExtents@ 00000001801d9730     GuMetaData.obj
 0002:00003748       ??_C@_0BB@CDMNHHIF@mData?$FL1?$FN?4mCenter@ 00000001801d9748     GuMetaData.obj
 0002:00003760       ??_C@_0BC@CFKNCOI@mData?$FL2?$FN?4mExtents@ 00000001801d9760     GuMetaData.obj
 0002:00003778       ??_C@_0BB@LKCPBBIE@mData?$FL2?$FN?4mCenter@ 00000001801d9778     GuMetaData.obj
 0002:00003790       ??_C@_0O@MJJKKPFN@BVDataPackedQ@ 00000001801d9790     GuMetaData.obj
 0002:000037a0       ??_C@_0O@JFMLAIPJ@CenterExtents@ 00000001801d97a0     GuMetaData.obj
 0002:000037b0       ??_C@_07GNKDIIKJ@mCenter@  00000001801d97b0     GuMetaData.obj
 0002:000037b8       ??_C@_0P@KBMJDPLO@BVDataPackedNQ@ 00000001801d97b8     GuMetaData.obj
 0002:000037c8       ??_C@_0M@PNCEBOG@LocalBounds@ 00000001801d97c8     GuMetaData.obj
 0002:000037d4       ??_C@_05KNFBNCOH@float@    00000001801d97d4     GuMetaData.obj
 0002:000037e0       ??_C@_0BC@LADJKHPL@mExtentsMagnitude@ 00000001801d97e0     GuMetaData.obj
 0002:000037f8       ??_C@_07HELIOLAF@BV4Tree@  00000001801d97f8     GuMetaData.obj
 0002:00003800       ??_C@_0P@EMMDNPMH@mMeshInterface@ 00000001801d9800     GuMetaData.obj
 0002:00003810       ??_C@_0N@DCKMHLCL@mLocalBounds@ 00000001801d9810     GuMetaData.obj
 0002:00003820       ??_C@_08EEJOMIJL@mNbNodes@ 00000001801d9820     GuMetaData.obj
 0002:0000382c       ??_C@_06FIIIMFIO@mNodes@   00000001801d982c     GuMetaData.obj
 0002:00003838       ??_C@_09FGKNPI@mInitData@  00000001801d9838     GuMetaData.obj
 0002:00003848       ??_C@_0BC@CLDEHKCO@mCenterOrMinCoeff@ 00000001801d9848     GuMetaData.obj
 0002:00003860       ??_C@_0BD@LAOLBNJ@mExtentsOrMaxCoeff@ 00000001801d9860     GuMetaData.obj
 0002:00003878       ??_C@_0P@JEECKKBL@mUserAllocated@ 00000001801d9878     GuMetaData.obj
 0002:00003888       ??_C@_0L@GLIMNECG@mQuantized@ 00000001801d9888     GuMetaData.obj
 0002:00003898       ??_C@_0L@CCOJDAID@mIsEdgeSet@ 00000001801d9898     GuMetaData.obj
 0002:000038a8       ??_C@_08BNDBAGDH@mPadding@ 00000001801d98a8     GuMetaData.obj
 0002:000038b8       ??_C@_0N@OJNNNLIB@TriangleMesh@ 00000001801d98b8     GuMetaData.obj
 0002:000038c8       ??_C@_0M@OGEDMEAL@mNbVertices@ 00000001801d98c8     GuMetaData.obj
 0002:000038d8       ??_C@_0N@MGGDNHNI@mNbTriangles@ 00000001801d98d8     GuMetaData.obj
 0002:000038e8       ??_C@_09LNNEGOJA@mVertices@ 00000001801d98e8     GuMetaData.obj
 0002:000038f8       ??_C@_0L@KBOFAKLO@mTriangles@ 00000001801d98f8     GuMetaData.obj
 0002:00003908       ??_C@_0P@MHDFIHLD@mExtraTrigData@ 00000001801d9908     GuMetaData.obj
 0002:00003918       ??_C@_0N@MGIKKCI@mGeomEpsilon@ 00000001801d9918     GuMetaData.obj
 0002:00003928       ??_C@_0BB@IFLOOCNA@mMaterialIndices@ 00000001801d9928     GuMetaData.obj
 0002:00003940       ??_C@_0L@OPJMBFMI@mFaceRemap@ 00000001801d9940     GuMetaData.obj
 0002:00003950       ??_C@_0N@BIOECAPM@mAdjacencies@ 00000001801d9950     GuMetaData.obj
 0002:00003960       ??_C@_09CICJHLPI@mEdgeList@ 00000001801d9960     GuMetaData.obj
 0002:00003970       ??_C@_0BD@IPKCNNIK@mLocalCenterOfMass@ 00000001801d9970     GuMetaData.obj
 0002:00003988       ??_C@_0BA@OCOIGPII@mGRB_triIndices@ 00000001801d9988     GuMetaData.obj
 0002:00003998       ??_C@_0BE@JPINNDAH@mGRB_triAdjacencies@ 00000001801d9998     GuMetaData.obj
 0002:000039b0       ??_C@_0P@EDFJJHEF@mGRB_faceRemap@ 00000001801d99b0     GuMetaData.obj
 0002:000039c0       ??_C@_0BG@EEALPPCP@mGRB_faceRemapInverse@ 00000001801d99c0     GuMetaData.obj
 0002:000039d8       ??_C@_0O@CKMBAIFN@mGRB_BV32Tree@ 00000001801d99d8     GuMetaData.obj
 0002:000039e8       ??_C@_0BE@MGIOIICI@mSdfData?4mMeshLower@ 00000001801d99e8     GuMetaData.obj
 0002:00003a00       ??_C@_0BC@NNEDELGI@mSdfData?4mSpacing@ 00000001801d9a00     GuMetaData.obj
 0002:00003a18       ??_C@_0BB@OHOFDAIL@mSdfData?4mDims?4x@ 00000001801d9a18     GuMetaData.obj
 0002:00003a30       ??_C@_0BB@POPOABMK@mSdfData?4mDims?4y@ 00000001801d9a30     GuMetaData.obj
 0002:00003a48       ??_C@_0BB@NFNDFCAJ@mSdfData?4mDims?4z@ 00000001801d9a48     GuMetaData.obj
 0002:00003a60       ??_C@_0BC@GMPBGGPI@mSdfData?4mNumSdfs@ 00000001801d9a60     GuMetaData.obj
 0002:00003a78       ??_C@_0O@BCEBBLNE@mSdfData?4mSdf@ 00000001801d9a78     GuMetaData.obj
 0002:00003a88       ??_C@_0BG@HMHEFHIE@mSdfData?4mSubgridSize@ 00000001801d9a88     GuMetaData.obj
 0002:00003aa0       ??_C@_0BI@OFJBKPGB@mSdfData?4mNumStartSlots@ 00000001801d9aa0     GuMetaData.obj
 0002:00003ab8       ??_C@_0BM@MGEPBEON@mSdfData?4mSubgridStartSlots@ 00000001801d9ab8     GuMetaData.obj
 0002:00003ad8       ??_C@_0BJ@PKKGJLNM@mSdfData?4mNumSubgridSdfs@ 00000001801d9ad8     GuMetaData.obj
 0002:00003af8       ??_C@_0BF@HLMPGIBH@mSdfData?4mSubgridSdf@ 00000001801d9af8     GuMetaData.obj
 0002:00003b10       ??_C@_0CF@GMJNHGOK@mSdfData?4mSdfSubgrids3DTexBlock@ 00000001801d9b10     GuMetaData.obj
 0002:00003b38       ??_C@_0CF@HFIGEHKL@mSdfData?4mSdfSubgrids3DTexBlock@ 00000001801d9b38     GuMetaData.obj
 0002:00003b60       ??_C@_0CF@FOKLBEGI@mSdfData?4mSdfSubgrids3DTexBlock@ 00000001801d9b60     GuMetaData.obj
 0002:00003b88       ??_C@_0BO@EIPCIOJH@mSdfData?4mSubgridsMinSdfValue@ 00000001801d9b88     GuMetaData.obj
 0002:00003ba8       ??_C@_0BO@NIIBJOHN@mSdfData?4mSubgridsMaxSdfValue@ 00000001801d9ba8     GuMetaData.obj
 0002:00003bc8       ??_C@_0BO@GKGODKFG@mSdfData?4mBytesPerSparsePixel@ 00000001801d9bc8     GuMetaData.obj
 0002:00003be8       ??_C@_0BJ@LEBGJKBE@mAccumulatedTrianglesRef@ 00000001801d9be8     GuMetaData.obj
 0002:00003c08       ??_C@_0BF@OJMCNCDP@mTrianglesReferences@ 00000001801d9c08     GuMetaData.obj
 0002:00003c20       ??_C@_0BH@LDGPOFA@mNbTrianglesReferences@ 00000001801d9c20     GuMetaData.obj
 0002:00003c38       ??_C@_0BC@IFGECKF@RTreeTriangleMesh@ 00000001801d9c38     GuMetaData.obj
 0002:00003c4c       ??_C@_06JDIHDDGN@mRTree@   00000001801d9c4c     GuMetaData.obj
 0002:00003c58       ??_C@_0BA@LNNFPOKA@BV4TriangleMesh@ 00000001801d9c58     GuMetaData.obj
 0002:00003c68       ??_C@_08FKLPEGDB@mBV4Tree@ 00000001801d9c68     GuMetaData.obj
 0002:00003c78       ??_7?$SupportLocalImpl@VConvexHullNoScaleV@Gu@physx@@@Gu@physx@@6B@ 00000001801d9c78     GuMTD.obj
 0002:00003cc0       ?absMask@?1??FAbs@aos@physx@@YA?AT__m128@@T4@@Z@4QBIB 00000001801d9cc0     GuMTD.obj
 0002:00003cd0       ??_7GjkConvex@Gu@physx@@6B@ 00000001801d9cd0     GuMTD.obj
 0002:00003d00       ??_7?$LocalConvex@VCapsuleV@Gu@physx@@@Gu@physx@@6B@ 00000001801d9d00     GuMTD.obj
 0002:00003d30       ??_7?$LocalConvex@VConvexHullV@Gu@physx@@@Gu@physx@@6B@ 00000001801d9d30     GuMTD.obj
 0002:00003d60       __real@2edbe6ff            00000001801d9d60     GuMTD.obj
 0002:00003d64       __real@34000000            00000001801d9d64     GuMTD.obj
 0002:00003d68       __real@ff7fffff            00000001801d9d68     GuMTD.obj
 0002:00003d70       __xmm@34000000340000003400000034000000 00000001801d9d70     GuMTD.obj
 0002:00003d80       __xmm@358637bd358637bd358637bd358637bd 00000001801d9d80     GuMTD.obj
 0002:00003d90       __xmm@3dcccccd3dcccccd3dcccccd3dcccccd 00000001801d9d90     GuMTD.obj
 0002:00003da0       __xmm@3f7ff1413f7ff1413f7ff1413f7ff141 00000001801d9da0     GuMTD.obj
 0002:00003dd0       ??_7?$RelativeConvex@VBoxV@Gu@physx@@@Gu@physx@@6B@ 00000001801d9dd0     GuOverlapTests.obj
 0002:00003e00       ??_7?$RelativeConvex@VConvexHullV@Gu@physx@@@Gu@physx@@6B@ 00000001801d9e00     GuOverlapTests.obj
 0002:00003e60       __real@1e3ce508            00000001801d9e60     GuRaycastTests.obj
 0002:00003e64       __real@28800000            00000001801d9e64     GuRaycastTests.obj
 0002:00003e68       __real@33d6bf95            00000001801d9e68     GuRaycastTests.obj
 0002:00003e6c       __real@3727c5ac            00000001801d9e6c     GuRaycastTests.obj
 0002:00003e70       __real@3f0147ae            00000001801d9e70     GuRaycastTests.obj
 0002:00003e74       __real@3f7ffffe            00000001801d9e74     GuRaycastTests.obj
 0002:00003e78       __real@3f800347            00000001801d9e78     GuRaycastTests.obj
 0002:00003e7c       __real@41200000            00000001801d9e7c     GuRaycastTests.obj
 0002:00003e80       __real@80000000            00000001801d9e80     GuRaycastTests.obj
 0002:00003e84       __real@b3d6bf95            00000001801d9e84     GuRaycastTests.obj
 0002:00003e88       __real@b8d1b717            00000001801d9e88     GuRaycastTests.obj
 0002:00003e8c       __real@c1200000            00000001801d9e8c     GuRaycastTests.obj
 0002:00003ec0       ??_7?$MeshHitCallback@UPxGeomRaycastHit@physx@@@Gu@physx@@6B@ 00000001801d9ec0     GuSweepMTD.obj
 0002:00003ed0       ??_7MeshMTDGenerationCallback@@6B@ 00000001801d9ed0     GuSweepMTD.obj
 0002:00003ee0       ??_7MidPhaseQueryLocalReport@@6B@ 00000001801d9ee0     GuSweepMTD.obj
 0002:00003ef0       __real@3f8147ae            00000001801d9ef0     GuSweepMTD.obj
 0002:00003ef4       __real@3f933333            00000001801d9ef4     GuSweepMTD.obj
 0002:00003f20       __real@3c23d70a            00000001801d9f20     GuSweepSharedTests.obj
 0002:00003f24       __real@42c80000            00000001801d9f24     GuSweepSharedTests.obj
 0002:00003f30       __xmm@ffffffffffffffffffffffffffffffff 00000001801d9f30     GuSweepSharedTests.obj
 0002:00003f60       ??_7?$LocalConvex@VBoxV@Gu@physx@@@Gu@physx@@6B@ 00000001801d9f60     GuSweepTests.obj
 0002:00003f90       ??_7?$LocalConvex@VTriangleV@Gu@physx@@@Gu@physx@@6B@ 00000001801d9f90     GuSweepTests.obj
 0002:00003fc0       __xmm@00000002000000020000000200000002 00000001801d9fc0     GuSweepTests.obj
 0002:00003fd0       __xmm@3eaaaa9f3eaaaa9f3eaaaa9f3eaaaa9f 00000001801d9fd0     GuSweepTests.obj
 0002:00004088       ??_7PxRunnable@physx@@6B@  00000001801da088     GuSDF.obj
 0002:000040a0       ??_C@_0FD@JJOLCKGK@D?3?2Repositories?2PhysX?2PhysX?9105@ 00000001801da0a0     GuSDF.obj
 0002:000040f8       ??_7PointOntoTriangleMeshProjector@Gu@physx@@6B@ 00000001801da0f8     GuSDF.obj
 0002:00004110       ??_7?$PxThreadT@V?$PxReflectionAllocator@VPxThreadImpl@physx@@@physx@@@physx@@6B@ 00000001801da110     GuSDF.obj
 0002:00004120       ??_C@_06FJHNOCKE@thread@   00000001801da120     GuSDF.obj
 0002:00004130       ??_C@_0LB@PNCFCFJO@SDF?5creation?3?5Fixing?5of?5the?5inp@ 00000001801da130     GuSDF.obj
 0002:000041f0       ??_C@_0GH@OCDHPNNL@SDF?5creation?3?5Input?5mesh?5is?5not@ 00000001801da1f0     GuSDF.obj
 0002:00004260       ??_C@_0FC@BAKDHMEL@D?3?2Repositories?2PhysX?2PhysX?9105@ 00000001801da260     GuSDF.obj
 0002:000042c0       ??_C@_0FA@OBALIIJD@D?3?2Repositories?2PhysX?2PhysX?9105@ 00000001801da2c0     GuSDF.obj
 0002:00004310       ??_C@_0FJ@LNBLLAFF@D?3?2Repositories?2PhysX?2PhysX?9105@ 00000001801da310     GuSDF.obj
 0002:0000436c       __real@37800080            00000001801da36c     GuSDF.obj
 0002:00004370       __real@3b808081            00000001801da370     GuSDF.obj
 0002:00004374       __real@3e2aaaab            00000001801da374     GuSDF.obj
 0002:00004378       __real@3eaaaaab            00000001801da378     GuSDF.obj
 0002:0000437c       __real@3f7d70a4            00000001801da37c     GuSDF.obj
 0002:00004380       __real@7e7fffff            00000001801da380     GuSDF.obj
 0002:00004384       __real@bf000000            00000001801da384     GuSDF.obj
 0002:00004388       __real@fe7fffff            00000001801da388     GuSDF.obj
 0002:00004390       __xmm@00000001000000000000000000000000 00000001801da390     GuSDF.obj
 0002:000043a0       __real@437f0000            00000001801da3a0     GuCookingSDF.obj
 0002:000043a4       __real@477fff00            00000001801da3a4     GuCookingSDF.obj
 0002:000043d0       ??_7?$RelativeConvex@UCustomConvexV@@@Gu@physx@@6B@ 00000001801da3d0     GuGjkQuery.obj
 0002:00004400       ??_7?$LocalConvex@UCustomConvexV@@@Gu@physx@@6B@ 00000001801da400     GuGjkQuery.obj
 0002:00004430       ??_7?$LocalConvex@UPointConvexV@@@Gu@physx@@6B@ 00000001801da430     GuGjkQuery.obj
 0002:00004480       __real@3da2f983            00000001801da480     GuWindingNumber.obj
 0002:00004484       __real@3e22f983            00000001801da484     GuWindingNumber.obj
 0002:00004488       __real@3f99999a            00000001801da488     GuWindingNumber.obj
 0002:000044f0       __real@3c343958            00000001801da4f0     GuCCDSweepConvexMesh.obj
 0002:000044f4       __real@3ca3d70a            00000001801da4f4     GuCCDSweepConvexMesh.obj
 0002:000044f8       __real@3f0ccccd            00000001801da4f8     GuCCDSweepConvexMesh.obj
 0002:000044fc       __real@3f8ccccd            00000001801da4fc     GuCCDSweepConvexMesh.obj
 0002:00004500       __real@b58637bd            00000001801da500     GuCCDSweepConvexMesh.obj
 0002:00004530       ??_7?$RelativeConvex@VCapsuleV@Gu@physx@@@Gu@physx@@6B@ 00000001801da530     GuCCDSweepPrimitives.obj
 0002:00004560       ??_7?$RelativeConvex@VTriangleV@Gu@physx@@@Gu@physx@@6B@ 00000001801da560     GuCCDSweepPrimitives.obj
 0002:00004590       __real@3ba3d70a            00000001801da590     GuCCDSweepPrimitives.obj
 0002:00004594       __real@501502f9            00000001801da594     GuCCDSweepPrimitives.obj
 0002:000045c0       ??_C@_0GC@NLNKDHPG@D?3?2Repositories?2PhysX?2PhysX?9105@ 00000001801da5c0     GuAdjacencies.obj
 0002:00004628       ??_C@_0DA@FMEHLBKI@Adjacencies?3?3UpdateLink?3?5invali@ 00000001801da628     GuAdjacencies.obj
 0002:00004660       ??_C@_0EA@CPHOACLK@Adjacencies?3?3CreateDatabase?3?5ca@ 00000001801da660     GuAdjacencies.obj
 0002:000046a0       ??_C@_0FP@ENDFBJKH@D?3?2Repositories?2PhysX?2PhysX?9105@ 00000001801da6a0     GuEdgeList.obj
 0002:00004700       ??_C@_0CO@GBNJFPN@EdgeList?3?3CreateFacesToEdges?3?5N@ 00000001801da700     GuEdgeList.obj
 0002:00004730       ??_C@_0CO@EHJBBMNK@EdgeList?3?3ComputeActiveEdges?3?5N@ 00000001801da730     GuEdgeList.obj
 0002:00004760       ??_C@_0DI@GBHLFOFP@ActiveEdges?3?3ComputeConvexEdges@ 00000001801da760     GuEdgeList.obj
 0002:00004798       ??_C@_0DM@JOGBLHDI@ActiveEdges?3?3ComputeConvexEdges@ 00000001801da798     GuEdgeList.obj
 0002:000047e0       ??_C@_0ED@FEMJKPEL@ActiveEdges?3?3ComputeConvexEdges@ 00000001801da7e0     GuEdgeList.obj
 0002:00004830       ??_C@_0EB@BFDPMFCD@ActiveEdges?3?3ComputeConvexEdges@ 00000001801da830     GuEdgeList.obj
 0002:00004874       __real@bf7fbe77            00000001801da874     GuEdgeList.obj
 0002:00004878       ??_7Quantizer@Gu@physx@@6B@ 00000001801da878     GuQuantizer.obj
 0002:000048a0       ??_7QuantizerImpl@@6B@     00000001801da8a0     GuQuantizer.obj
 0002:000048d0       ??_C@_0GA@IBBCHGLA@D?3?2Repositories?2PhysX?2PhysX?9105@ 00000001801da8d0     GuQuantizer.obj
 0002:00004930       __real@3f0020c5            00000001801da930     GuQuantizer.obj
 0002:00004934       __real@3f8020c5            00000001801da934     GuQuantizer.obj
 0002:00004940       ??_C@_0GC@POIBBKKC@D?3?2Repositories?2PhysX?2PhysX?9105@ 00000001801da940     GuMeshCleaner.obj
 0002:000049b0       ??_C@_0GE@LHJMIJDK@D?3?2Repositories?2PhysX?2PhysX?9105@ 00000001801da9b0     GuVertexReducer.obj
 0002:00004b10       __real@3f7fbe77            00000001801dab10     GuContactBoxBox.obj
 0002:00004b60       __real@3f7ff2e5            00000001801dab60     GuContactCapsuleCapsule.obj
 0002:00004b64       __real@40800000            00000001801dab64     GuContactCapsuleCapsule.obj
 0002:00004bf0       __real@358637be            00000001801dabf0     GuContactCapsuleMesh.obj
 0002:00004bf4       __real@ba83126f            00000001801dabf4     GuContactCapsuleMesh.obj
 0002:00004c50       ??_7ConvexMeshContactGenerationCallback@@6B@ 00000001801dac50     GuContactConvexMesh.obj
 0002:00004cd0       __real@3ec90fdb            00000001801dacd0     GuContactPolygonPolygon.obj
 0002:00004cd4       __real@3f490fdb            00000001801dacd4     GuContactPolygonPolygon.obj
 0002:00004cd8       __real@3f96cbe4            00000001801dacd8     GuContactPolygonPolygon.obj
 0002:00004cdc       __real@3fc90fdb            00000001801dacdc     GuContactPolygonPolygon.obj
 0002:00004ce0       __real@3ffb53d2            00000001801dace0     GuContactPolygonPolygon.obj
 0002:00004ce4       __real@4016cbe4            00000001801dace4     GuContactPolygonPolygon.obj
 0002:00004ce8       __real@402feddf            00000001801dace8     GuContactPolygonPolygon.obj
 0002:00004d20       ??_C@_0DL@OAFGOMGB@Dropping?5contacts?5in?5sphere?5vs?5@ 00000001801dad20     GuContactSphereMesh.obj
 0002:00004d60       ??_C@_0GJ@MGKGPGIH@D?3?2Repositories?2PhysX?2PhysX?9105@ 00000001801dad60     GuContactSphereMesh.obj
 0002:00004e00       ??_C@_0GE@OFBPONBO@D?3?2Repositories?2PhysX?2PhysX?9105@ 00000001801dae00     GuBigConvexData.obj
 0002:00004e90       ??_C@_0N@CDGINLLF@PxConvexMesh@ 00000001801dae90     GuConvexMesh.obj
 0002:00004ea0       ??_7PxBase@physx@@6B@      00000001801daea0     GuConvexMesh.obj
 0002:00004ec8       ??_C@_0N@OPPDBGAG@PxRefCounted@ 00000001801daec8     GuConvexMesh.obj
 0002:00004ed8       ??_7ConvexMesh@Gu@physx@@6B@ 00000001801daed8     GuConvexMesh.obj
 0002:00004f70       ??_C@_0GB@BENMCAIG@D?3?2Repositories?2PhysX?2PhysX?9105@ 00000001801daf70     GuConvexMesh.obj
 0002:00004fd8       ??_C@_0DM@NEJKOFIP@Loading?5convex?5mesh?5failed?3?5Dep@ 00000001801dafd8     GuConvexMesh.obj
 0002:00005018       ??_C@_0DB@PAHEPIEL@PxConvexMesh?3?3release?3?5double?5d@ 00000001801db018     GuConvexMesh.obj
 0002:00005050       ??_C@_0FJ@KLLIAANO@D?3?2Repositories?2PhysX?2PhysX?9105@ 00000001801db050     GuConvexMesh.obj
 0002:000050d0       __xmm@000000000000000000000000ffffffff 00000001801db0d0     GuConvexSupportTable.obj
 0002:000050e0       __xmm@0000000000000000ffffffff00000000 00000001801db0e0     GuConvexSupportTable.obj
 0002:000050f0       __xmm@0000000000000000ffffffffffffffff 00000001801db0f0     GuConvexSupportTable.obj
 0002:00005100       __xmm@00000000ffffffff0000000000000000 00000001801db100     GuConvexSupportTable.obj
 0002:00005110       __xmm@00000000ffffffff00000000ffffffff 00000001801db110     GuConvexSupportTable.obj
 0002:00005120       __xmm@00000000ffffffffffffffff00000000 00000001801db120     GuConvexSupportTable.obj
 0002:000051f0       __xmm@3f0000003f0000003f0000003f000000 00000001801db1f0     GuDistanceSegmentSegment.obj
 0002:00005220       __real@2b8cbccc            00000001801db220     GuDistanceSegmentTriangle.obj
 0002:00005230       __xmm@3f8000013f8000013f8000013f800001 00000001801db230     GuDistanceSegmentTriangle.obj
 0002:00005240       __xmm@b4000000b4000000b4000000b4000000 00000001801db240     GuDistanceSegmentTriangle.obj
 0002:000052c0       __xmm@38d1b71738d1b71738d1b71738d1b717 00000001801db2c0     GuGJKSimplex.obj
 0002:000052f0       ??_C@_0O@PBAKPCEC@PxHeightField@ 00000001801db2f0     GuHeightField.obj
 0002:00005300       ??_7HeightField@Gu@physx@@6B@ 00000001801db300     GuHeightField.obj
 0002:000053b8       ??_C@_0DC@BDMMBOKH@PxHeightField?3?3release?3?5double?5@ 00000001801db3b8     GuHeightField.obj
 0002:000053f0       ??_C@_0DF@LLAFPPKJ@Gu?3?3HeightField?3?3modifySamples?3@ 00000001801db3f0     GuHeightField.obj
 0002:00005430       ??_C@_0FO@BEMECPHD@D?3?2Repositories?2PhysX?2PhysX?9105@ 00000001801db430     GuHeightField.obj
 0002:00005490       ??_C@_0CI@DMKEKGNK@Gu?3?3HeightField?3?3load?3?5PX_ALLOC@ 00000001801db490     GuHeightField.obj
 0002:000054b8       ??_C@_0DG@LACOBMDE@Gu?3?3HeightField?3?3loadFromDesc?3?5@ 00000001801db4b8     GuHeightField.obj
 0002:000054f0       ??_C@_0FC@FEIHDFIH@D?3?2Repositories?2PhysX?2PhysX?9105@ 00000001801db4f0     GuHeightField.obj
 0002:00005570       ??_C@_0DH@EJDJIMCB@HeightFieldShape?3?3getTriangle?3?5@ 00000001801db570     GuHeightFieldUtil.obj
 0002:000055b0       ??_C@_0GC@FBKBGOHB@D?3?2Repositories?2PhysX?2PhysX?9105@ 00000001801db5b0     GuHeightFieldUtil.obj
 0002:00005614       __real@3a03126f            00000001801db614     GuHeightFieldUtil.obj
 0002:00005618       __real@3f19999a            00000001801db618     GuHeightFieldUtil.obj
 0002:00005620       __xmm@40000000000000000000000000000000 00000001801db620     GuHeightFieldUtil.obj
 0002:000056b0       ??_7HeightFieldTraceSegmentReport@@6B@ 00000001801db6b0     GuSweepsHF.obj
 0002:000056c0       ??_7CapsuleTraceSegmentReport@@6B@ 00000001801db6c0     GuSweepsHF.obj
 0002:000056d0       ??_7ConvexTraceSegmentReport@@6B@ 00000001801db6d0     GuSweepsHF.obj
 0002:000056e0       ??_7BoxTraceSegmentReport@@6B@ 00000001801db6e0     GuSweepsHF.obj
 0002:000056f0       __real@aedbe6ff            00000001801db6f0     GuSweepsHF.obj
 0002:00005720       __real@3089705f            00000001801db720     GuIntersectionRayBox.obj
 0002:00005724       __real@b4000000            00000001801db724     GuIntersectionRayBox.obj
 0002:00005730       __xmm@000000003089705f3089705f3089705f 00000001801db730     GuIntersectionRayBox.obj
 0002:00005740       __xmm@00000000bf800000bf800000bf800000 00000001801db740     GuIntersectionRayBox.obj
 0002:00005770       __real@7fc00000            00000001801db770     GuIntersectionTriangleTriangle.obj
 0002:00005780       __xmm@7fc000007fc000007fc000007fc00000 00000001801db780     GuIntersectionTriangleTriangle.obj
 0002:000057b0       ??_7SourceMeshBase@Gu@physx@@6B@ 00000001801db7b0     GuBV4.obj
 0002:000057d8       ??_7SourceMesh@Gu@physx@@6B@ 00000001801db7d8     GuBV4.obj
 0002:00005800       ??_7TetrahedronSourceMesh@Gu@physx@@6B@ 00000001801db800     GuBV4.obj
 0002:00005830       ??_C@_0FI@FILHMBPB@D?3?2Repositories?2PhysX?2PhysX?9105@ 00000001801db830     GuBV4.obj
 0002:00005890       __xmm@ff7fffffff7fffffff7fffffff7fffff 00000001801db890     GuBV4.obj
 0002:000058c0       ??_C@_0FN@GBJEFJJK@D?3?2Repositories?2PhysX?2PhysX?9105@ 00000001801db8c0     GuBV4Build.obj
 0002:00005920       __real@38000100            00000001801db920     GuBV4Build.obj
 0002:00005924       __real@3e93cd3a            00000001801db924     GuBV4Build.obj
 0002:00005928       __real@46fffe00            00000001801db928     GuBV4Build.obj
 0002:0000592c       __real@be93cd3a            00000001801db92c     GuBV4Build.obj
 0002:00005950       __xmm@0000ffff0000ffff0000ffff0000ffff 00000001801db950     GuBV4_AABBSweep.obj
 0002:00005960       __xmm@3089705f3089705f3089705f3089705f 00000001801db960     GuBV4_AABBSweep.obj
 0002:00005970       __xmm@33d6bf9533d6bf9533d6bf9533d6bf95 00000001801db970     GuBV4_AABBSweep.obj
 0002:00005980       __xmm@40000000400000004000000040000000 00000001801db980     GuBV4_AABBSweep.obj
 0002:00005a50       __real@00000000            00000001801dba50     GuBV4_Raycast.obj
 0002:00005a80       __real@4f7fffff            00000001801dba80     GuBV4_SphereOverlap.obj
 0002:00005ad0       __xmm@000000007f7fffff0000000000000000 00000001801dbad0     GuMidphaseBV4.obj
 0002:00005b40       ??_C@_0DK@FFHPKGEP@PxMeshQuery?3?3getTriangle?3?5trian@ 00000001801dbb40     GuMeshQuery.obj
 0002:00005b80       ??_C@_0FO@BHCMNHBI@D?3?2Repositories?2PhysX?2PhysX?9105@ 00000001801dbb80     GuMeshQuery.obj
 0002:00005be0       ??_C@_0FD@EHCCILIF@Adjacency?5information?5not?5creat@ 00000001801dbbe0     GuMeshQuery.obj
 0002:00005c40       ??_C@_0FA@MCAAGAGM@findOverlapTriangleMesh?3?5Only?5b@ 00000001801dbc40     GuMeshQuery.obj
 0002:00005c90       ??_C@_0FL@BKNMAHIA@PxMeshQuery?3?3findOverlapTriangl@ 00000001801dbc90     GuMeshQuery.obj
 0002:00005cf0       ??_C@_0EM@BEFNLPHI@findOverlapHeightField?3?5Only?5bo@ 00000001801dbcf0     GuMeshQuery.obj
 0002:00005d40       ??_C@_0CJ@NLNHIMDM@PxMeshQuery?3?3sweep?$CI?$CJ?3?5pose?5is?5n@ 00000001801dbd40     GuMeshQuery.obj
 0002:00005d70       ??_C@_0CM@BFKJPOOO@PxMeshQuery?3?3sweep?$CI?$CJ?3?5unitDir?5i@ 00000001801dbd70     GuMeshQuery.obj
 0002:00005da0       ??_C@_0CN@JKBDLLPP@PxMeshQuery?3?3sweep?$CI?$CJ?3?5distance?5@ 00000001801dbda0     GuMeshQuery.obj
 0002:00005dd0       ??_C@_0DN@DPNNFGGF@PxMeshQuery?3?3sweep?$CI?$CJ?3?5sweep?5dis@ 00000001801dbdd0     GuMeshQuery.obj
 0002:00005e10       ??_C@_0BA@MBAFFELP@MeshQuery?4sweep@ 00000001801dbe10     GuMeshQuery.obj
 0002:00005e20       ??_C@_0FJ@GNAHJJCM@PxMeshQuery?3?3sweep?$CI?$CJ?3?5geometry?5@ 00000001801dbe20     GuMeshQuery.obj
 0002:00005e7c       __real@4cbebc20            00000001801dbe7c     GuMeshQuery.obj
 0002:00005ea0       ??_7Callback@RTree@Gu@physx@@6B@ 00000001801dbea0     GuMidphaseRTree.obj
 0002:00005eb8       ??_7?$RayRTreeCallback@$00$0A@@@6BCallbackRaycast@RTree@Gu@physx@@@ 00000001801dbeb8     GuMidphaseRTree.obj
 0002:00005eb8       ??_7?$RayRTreeCallback@$0A@$0A@@@6BCallbackRaycast@RTree@Gu@physx@@@ 00000001801dbeb8     GuMidphaseRTree.obj
 0002:00005ec8       ??_7?$RayRTreeCallback@$00$0A@@@6BCallback@RTree@Gu@physx@@@ 00000001801dbec8     GuMidphaseRTree.obj
 0002:00005ec8       ??_7?$RayRTreeCallback@$0A@$0A@@@6BCallback@RTree@Gu@physx@@@ 00000001801dbec8     GuMidphaseRTree.obj
 0002:00005ee0       ??_7RayMeshColliderCallback@@6B@ 00000001801dbee0     GuMidphaseRTree.obj
 0002:00005ef0       ??_C@_0EN@DPPFLBLF@Point?9mesh?5distance?5query?5not?5s@ 00000001801dbef0     GuMidphaseRTree.obj
 0002:00005f40       ??_C@_0GC@JPACNJIE@D?3?2Repositories?2PhysX?2PhysX?9105@ 00000001801dbf40     GuMidphaseRTree.obj
 0002:00005fa8       ??_7?$RayRTreeCallback@$0A@$00@@6BCallbackRaycast@RTree@Gu@physx@@@ 00000001801dbfa8     GuMidphaseRTree.obj
 0002:00005fb8       ??_7?$RayRTreeCallback@$0A@$00@@6BCallback@RTree@Gu@physx@@@ 00000001801dbfb8     GuMidphaseRTree.obj
 0002:00005fd0       ??_7?$RayRTreeCallback@$00$00@@6BCallbackRaycast@RTree@Gu@physx@@@ 00000001801dbfd0     GuMidphaseRTree.obj
 0002:00005fe0       ??_7?$RayRTreeCallback@$00$00@@6BCallback@RTree@Gu@physx@@@ 00000001801dbfe0     GuMidphaseRTree.obj
 0002:00006060       __xmm@7f7fffff000000000000000000000000 00000001801dc060     GuMidphaseRTree.obj
 0002:000060e0       ??_7?$PxReportCallback@UPxGeomIndexPair@physx@@@physx@@6B@ 00000001801dc0e0     GuOverlapTestsMesh.obj
 0002:00006100       ??_C@_0EP@CEFGCJKJ@PxGeometryQuery?3?3overlap?$CI?$CJ?3?5onl@ 00000001801dc100     GuOverlapTestsMesh.obj
 0002:00006150       ??_C@_0GF@GCJCENFK@D?3?2Repositories?2PhysX?2PhysX?9105@ 00000001801dc150     GuOverlapTestsMesh.obj
 0002:000061e0       ?MN@RTreePage@Gu@physx@@2MB 00000001801dc1e0     GuRTree.obj
 0002:000061e4       ?MX@RTreePage@Gu@physx@@2MB 00000001801dc1e4     GuRTree.obj
 0002:000061f0       ??_C@_0FK@CJHKECIK@D?3?2Repositories?2PhysX?2PhysX?9105@ 00000001801dc1f0     GuRTree.obj
 0002:000062c0       ??_7SweepShapeMeshHitCallback@Gu@physx@@6B@ 00000001801dc2c0     GuSweepsMesh.obj
 0002:000062d0       ??_7SweepCapsuleMeshHitCallback@Gu@physx@@6B@ 00000001801dc2d0     GuSweepsMesh.obj
 0002:000062e0       ??_7SweepBoxMeshHitCallback@Gu@physx@@6B@ 00000001801dc2e0     GuSweepsMesh.obj
 0002:000062f0       ??_7SweepConvexMeshHitCallback@Gu@physx@@6B@ 00000001801dc2f0     GuSweepsMesh.obj
 0002:00006320       ??_C@_0P@GGNFNHKF@PxTriangleMesh@ 00000001801dc320     GuTriangleMesh.obj
 0002:00006330       ??_7TriangleMesh@Gu@physx@@6B@ 00000001801dc330     GuTriangleMesh.obj
 0002:00006408       ??_C@_0DD@LOOPMCGG@PxTriangleMesh?3?3release?3?5double@ 00000001801dc408     GuTriangleMesh.obj
 0002:00006440       ??_C@_0FH@PMPAJDGI@PxTriangleMesh?3?3getVerticesForM@ 00000001801dc440     GuTriangleMesh.obj
 0002:000064a0       ??_C@_0GB@CKIMIPGH@D?3?2Repositories?2PhysX?2PhysX?9105@ 00000001801dc4a0     GuTriangleMesh.obj
 0002:00006510       ??_C@_0EF@GMNFLDH@PxTriangleMesh?3?3refitBVH?$CI?$CJ?5is?5n@ 00000001801dc510     GuTriangleMesh.obj
 0002:00006560       __xmm@38383838383838383838383838383838 00000001801dc560     GuTriangleMesh.obj
 0002:00006590       ??_C@_0BE@CNJKIINO@PxBVH34TriangleMesh@ 00000001801dc590     GuTriangleMeshBV4.obj
 0002:000065a8       ??_7BV4TriangleMesh@Gu@physx@@6B@ 00000001801dc5a8     GuTriangleMeshBV4.obj
 0002:00006680       ??_C@_0EF@JLFNNPLP@BVH34?5trees?3?5refit?5operation?5on@ 00000001801dc680     GuTriangleMeshBV4.obj
 0002:000066d0       ??_C@_0GE@CJCFNJJK@D?3?2Repositories?2PhysX?2PhysX?9105@ 00000001801dc6d0     GuTriangleMeshBV4.obj
 0002:00006734       __real@3951b717            00000001801dc734     GuTriangleMeshBV4.obj
 0002:00006760       ??_C@_0BE@EIFHCCBO@PxBVH33TriangleMesh@ 00000001801dc760     GuTriangleMeshRTree.obj
 0002:00006778       ??_7RTreeTriangleMesh@Gu@physx@@6B@ 00000001801dc778     GuTriangleMeshRTree.obj
 0002:00006850       ??_7?$RefitCallback@G@physx@@6B@ 00000001801dc850     GuTriangleMeshRTree.obj
 0002:00006860       ??_7?$RefitCallback@I@physx@@6B@ 00000001801dc860     GuTriangleMeshRTree.obj
 0002:00006890       ??_C@_0FJ@LGKBJEFK@D?3?2Repositories?2PhysX?2PhysX?9105@ 00000001801dc890     GuBV32.obj
 0002:00006910       ??_C@_0FO@ECOGAJCN@D?3?2Repositories?2PhysX?2PhysX?9105@ 00000001801dc910     GuBV32Build.obj
 0002:00006990       ??_C@_0BC@FDAIDHBP@PxTetrahedronMesh@ 00000001801dc990     GuTetrahedronMesh.obj
 0002:000069a8       ??_C@_0BC@FBICGJIB@PxSoftBodyAuxData@ 00000001801dc9a8     GuTetrahedronMesh.obj
 0002:000069c0       ??_C@_0P@CLLFGFAA@PxSoftBodyMesh@ 00000001801dc9c0     GuTetrahedronMesh.obj
 0002:000069d0       ??_7SoftBodyAuxData@Gu@physx@@6B@ 00000001801dc9d0     GuTetrahedronMesh.obj
 0002:00006a18       ??_7TetrahedronMesh@Gu@physx@@6B@ 00000001801dca18     GuTetrahedronMesh.obj
 0002:00006a90       ??_7BVTetrahedronMesh@Gu@physx@@6B@ 00000001801dca90     GuTetrahedronMesh.obj
 0002:00006b08       ??_7SoftBodyMesh@Gu@physx@@6B@ 00000001801dcb08     GuTetrahedronMesh.obj
 0002:00006b88       ??_C@_0DG@JJNMDPMD@PxTetrahedronMesh?3?3release?3?5dou@ 00000001801dcb88     GuTetrahedronMesh.obj
 0002:00006bc0       ??_C@_0DD@GGFGEPII@PxSoftBodyMesh?3?3release?3?5double@ 00000001801dcbc0     GuTetrahedronMesh.obj
 0002:00006c00       ??_C@_0GE@MLGGDDAO@D?3?2Repositories?2PhysX?2PhysX?9105@ 00000001801dcc00     GuTetrahedronMesh.obj
 0002:00006cb0       __xmm@00000000358637bd358637bd358637bd 00000001801dccb0     GuPCMContactBoxBox.obj
 0002:00006cc0       __xmm@3f4ccccd3f4ccccd3f4ccccd3f4ccccd 00000001801dccc0     GuPCMContactBoxBox.obj
 0002:00006cd0       __xmm@3f8003473f8003473f8003473f800347 00000001801dccd0     GuPCMContactBoxBox.obj
 0002:00006ce0       __xmm@ffffffff00000000ffffffffffffffff 00000001801dcce0     GuPCMContactBoxBox.obj
 0002:00006d10       ??_7?$LocalConvex@VConvexHullNoScaleV@Gu@physx@@@Gu@physx@@6B@ 00000001801dcd10     GuPCMContactBoxConvex.obj
 0002:00006d40       __xmm@3f3504f33f3504f33f3504f33f3504f3 00000001801dcd40     GuPCMContactBoxConvex.obj
 0002:00006d90       __xmm@ffffffffffffffffffffffff00000000 00000001801dcd90     GuPCMContactCapsuleCapsule.obj
 0002:00006dc0       __xmm@3fa000003fa000003fa000003fa00000 00000001801dcdc0     GuPCMContactCapsuleConvex.obj
 0002:00006df0       ??_7PCMCapsuleVsHeightfieldContactGenerationCallback@@6B@ 00000001801dcdf0     GuPCMContactCapsuleHeightField.obj
 0002:00006e00       __real@3f7f3b64            00000001801dce00     GuPCMContactCapsuleHeightField.obj
 0002:00006e50       __xmm@3f7ff9723f7ff9723f7ff9723f7ff972 00000001801dce50     GuPCMContactCapsuleMesh.obj
 0002:00006e60       __xmm@3f7fffef3f7fffef3f7fffef3f7fffef 00000001801dce60     GuPCMContactCapsuleMesh.obj
 0002:00006e70       __xmm@60ad78ec60ad78ec60ad78ec60ad78ec 00000001801dce70     GuPCMContactCapsuleMesh.obj
 0002:00006ea0       ??_7?$SupportLocalImpl@VTriangleV@Gu@physx@@@Gu@physx@@6B@ 00000001801dcea0     GuPCMContactConvexCommon.obj
 0002:00006ec0       __xmm@3cf5c2803cf5c2803cf5c2803cf5c280 00000001801dcec0     GuPCMContactConvexCommon.obj
 0002:00006ed0       __xmm@3f7851ec3f7851ec3f7851ec3f7851ec 00000001801dced0     GuPCMContactConvexCommon.obj
 0002:00006f00       ??_7?$RelativeConvex@VConvexHullNoScaleV@Gu@physx@@@Gu@physx@@6B@ 00000001801dcf00     GuPCMContactConvexConvex.obj
 0002:00006f50       ??_7PCMConvexVsHeightfieldContactGenerationCallback@physx@@6B@ 00000001801dcf50     GuPCMContactConvexHeightField.obj
 0002:00006f60       __xmm@3f19999a3f19999a3f19999a3f19999a 00000001801dcf60     GuPCMContactConvexHeightField.obj
 0002:00006fa0       ??_7PCMConvexVsMeshContactGenerationCallback@physx@@6B@ 00000001801dcfa0     GuPCMContactConvexMesh.obj
 0002:00006fd0       __xmm@3f34fdf43f34fdf43f34fdf43f34fdf4 00000001801dcfd0     GuPCMContactGenBoxConvex.obj
 0002:00007000       __xmm@3f80a3d73f80a3d73f80a3d73f80a3d7 00000001801dd000     GuPCMContactGenSphereCapsule.obj
 0002:00007010       __xmm@bba3d70abba3d70abba3d70abba3d70a 00000001801dd010     GuPCMContactGenSphereCapsule.obj
 0002:00007040       __xmm@3f7ffd613f7ffd613f7ffd613f7ffd61 00000001801dd040     GuPCMContactPlaneBox.obj
 0002:00007070       __real@3b23d70b            00000001801dd070     GuPCMContactPlaneCapsule.obj
 0002:00007080       __xmm@3ca3d70a3ca3d70a3ca3d70a3ca3d70a 00000001801dd080     GuPCMContactPlaneCapsule.obj
 0002:000070b0       __xmm@3a03126f3a03126f3a03126f3a03126f 00000001801dd0b0     GuPCMContactPlaneConvex.obj
 0002:00007140       ??_7PCMSphereVsHeightfieldContactGenerationCallback@physx@@6B@ 00000001801dd140     GuPCMContactSphereHeightField.obj
 0002:000071d0       __xmm@3727c5ac3727c5ac3727c5ac3727c5ac 00000001801dd1d0     GuPCMContactSphereSphere.obj
 0002:00007200       __xmm@3f7f06f73f7f06f73f7f06f73f7f06f7 00000001801dd200     GuPCMContactCustomGeometry.obj
 0002:00007210       ?gPCMBoxPolygonData@Gu@physx@@3QBEB 00000001801dd210     GuPCMShapeConvex.obj
 0002:00007290       ?invalidateThresholds@Gu@physx@@3QBMB 00000001801dd290     GuPersistentContactManifold.obj
 0002:000072a8       ?invalidateQuatThresholds@Gu@physx@@3QBMB 00000001801dd2a8     GuPersistentContactManifold.obj
 0002:000072c0       ?invalidateThresholds2@Gu@physx@@3QBMB 00000001801dd2c0     GuPersistentContactManifold.obj
 0002:000072d0       ?invalidateQuatThresholds2@Gu@physx@@3QBMB 00000001801dd2d0     GuPersistentContactManifold.obj
 0002:000072e0       __xmm@00000000340000003400000034000000 00000001801dd2e0     GuPersistentContactManifold.obj
 0002:000072f0       __xmm@000000003f8000003f80000000000000 00000001801dd2f0     GuPersistentContactManifold.obj
 0002:00007300       __xmm@00000000bf8000003f80000000000000 00000001801dd300     GuPersistentContactManifold.obj
 0002:00007310       __xmm@ffffffffffffffff00000000ffffffff 00000001801dd310     GuPersistentContactManifold.obj
 0002:00007340       __xmm@c1200000c1200000c1200000c1200000 00000001801dd340     GuPCMContactGenUtil.obj
 0002:00007390       __real@b727c5ac            00000001801dd390     GuSweepBoxSphere.obj
 0002:00007400       ??_C@_0GF@KALICIAI@D?3?2Repositories?2PhysX?2PhysX?9105@ 00000001801dd400     GuSweepCapsuleBox.obj
 0002:000074b0       __real@3f7fff58            00000001801dd4b0     GuSweepCapsuleTriangle.obj
 0002:00007520       ??_C@_0CH@DHJGKCPD@Gu?3?3computeBounds?3?5Unknown?5shap@ 00000001801dd520     GuBounds.obj
 0002:00007550       ??_C@_0FG@GNFKBAKA@D?3?2Repositories?2PhysX?2PhysX?9105@ 00000001801dd550     GuBounds.obj
 0002:000075a8       __real@34800000            00000001801dd5a8     GuBounds.obj
 0002:000075ac       __real@3f7fffef            00000001801dd5ac     GuBounds.obj
 0002:000075b0       __xmm@3f8147ae3f8147ae3f8147ae3f8147ae 00000001801dd5b0     GuBounds.obj
 0002:000075e0       ??_C@_0FI@GHMFICJB@D?3?2Repositories?2PhysX?2PhysX?9105@ 00000001801dd5e0     GuAABBTree.obj
 0002:00007640       __xmm@5a60b17f5a60b17f5a60b17f5a60b17f 00000001801dd640     GuAABBTree.obj
 0002:00007650       __xmm@da60b17fda60b17fda60b17fda60b17f 00000001801dd650     GuAABBTree.obj
 0002:000076c0       ??_C@_0GD@JMNHDOCO@D?3?2Repositories?2PhysX?2PhysX?9105@ 00000001801dd6c0     GuIncrementalAABBTree.obj
 0002:00007730       ??_C@_0FA@NNDOLOEN@D?3?2Repositories?2PhysX?2PhysX?9105@ 00000001801dd730     GuIncrementalAABBTree.obj
 0002:00007780       __real@40400000            00000001801dd780     GuIncrementalAABBTree.obj
 0002:00007790       ??_C@_0FD@PBNJGELN@D?3?2Repositories?2PhysX?2PhysX?9105@ 00000001801dd790     GuSAH.obj
 0002:00007810       ??_7PxBVH@physx@@6B@       00000001801dd810     GuBVH.obj
 0002:00007888       ??_C@_05OKJNPKBM@PxBVH@    00000001801dd888     GuBVH.obj
 0002:00007890       ??_7RefCountable@Cm@physx@@6B@ 00000001801dd890     GuBVH.obj
 0002:000078a0       ??_7BVH@Gu@physx@@6BPxBVH@2@@ 00000001801dd8a0     GuBVH.obj
 0002:00007918       ??_7BVH@Gu@physx@@6BRefCountable@Cm@2@@ 00000001801dd918     GuBVH.obj
 0002:00007930       ??_C@_0FD@ODLBPHEI@D?3?2Repositories?2PhysX?2PhysX?9105@ 00000001801dd930     GuBVH.obj
 0002:00007988       ??_C@_0CK@HAIOEINI@PxBVH?3?3release?3?5double?5deletion@ 00000001801dd988     GuBVH.obj
 0002:000079e0       ??_C@_0GJ@KDJEOJIK@D?3?2Repositories?2PhysX?2PhysX?9105@ 00000001801dd9e0     GuIncrementalAABBPrunerCore.obj
 0002:00007a4c       __real@3f80a3d7            00000001801dda4c     GuIncrementalAABBPrunerCore.obj
 0002:00007a70       ??_7BasePruner@Gu@physx@@6B@ 00000001801dda70     GuIncrementalAABBPruner.obj
 0002:00007a88       ??_7IncrementalAABBPruner@Gu@physx@@6B@ 00000001801dda88     GuIncrementalAABBPruner.obj
 0002:00007b10       ??_C@_0BM@FLAABPLG@SceneQuery?4prunerAddObjects@ 00000001801ddb10     GuIncrementalAABBPruner.obj
 0002:00007b30       ??_C@_0BP@EAAOKPEE@SceneQuery?4prunerUpdateObjects@ 00000001801ddb30     GuIncrementalAABBPruner.obj
 0002:00007b50       ??_C@_0BP@EHMBNBOH@SceneQuery?4prunerRemoveObjects@ 00000001801ddb50     GuIncrementalAABBPruner.obj
 0002:00007b70       ??_C@_0BI@HOKOKBIM@SceneQuery?4prunerCommit@ 00000001801ddb70     GuIncrementalAABBPruner.obj
 0002:00007b90       ??_C@_0GF@LLNCMNDF@D?3?2Repositories?2PhysX?2PhysX?9105@ 00000001801ddb90     GuIncrementalAABBPruner.obj
 0002:00007c20       ??_C@_0BE@PKINCBHP@PruningPool?3?3resize@ 00000001801ddc20     GuPruningPool.obj
 0002:00007c40       ??_C@_0FL@KBOEAAML@D?3?2Repositories?2PhysX?2PhysX?9105@ 00000001801ddc40     GuPruningPool.obj
 0002:00007ca0       ??_C@_0BI@HMDEMGJB@PruningPool?3?3addObjects@ 00000001801ddca0     GuPruningPool.obj
 0002:00007cb8       ??_C@_0BK@JPNIEHEJ@PruningPool?3?3removeObject@ 00000001801ddcb8     GuPruningPool.obj
 0002:00007cd8       ??_C@_0BJ@GNLAFFBD@PruningPool?3?3shiftOrigin@ 00000001801ddcd8     GuPruningPool.obj
 0002:00007cf8       ??_C@_0CE@MGPCCKGE@PruningPool?3?3updateAndInflateBo@ 00000001801ddcf8     GuPruningPool.obj
 0002:00007d60       ??_7BucketPruner@Gu@physx@@6B@ 00000001801ddd60     GuBucketPruner.obj
 0002:00007df0       ??_C@_0FM@DALEECGC@D?3?2Repositories?2PhysX?2PhysX?9105@ 00000001801dddf0     GuBucketPruner.obj
 0002:00007e4c       __real@bf13cd3a            00000001801dde4c     GuBucketPruner.obj
 0002:00007e50       __xmm@000000007e7fffff7e7fffff7e7fffff 00000001801dde50     GuBucketPruner.obj
 0002:00007e60       __xmm@00000000fe7ffffffe7ffffffe7fffff 00000001801dde60     GuBucketPruner.obj
 0002:00007e70       __xmm@3f13cd3a3f13cd3a3f13cd3a3f13cd3a 00000001801dde70     GuBucketPruner.obj
 0002:00007e80       __xmm@bf13cd3abf13cd3abf13cd3a3f13cd3a 00000001801dde80     GuBucketPruner.obj
 0002:00007e90       __xmm@bf8000003f8000003f800000bf800000 00000001801dde90     GuBucketPruner.obj
 0002:00007ea0       __xmm@bf8000003f800000bf8000003f800000 00000001801ddea0     GuBucketPruner.obj
 0002:00007eb0       __xmm@bf800000bf8000003f8000003f800000 00000001801ddeb0     GuBucketPruner.obj
 0002:00007ec0       __xmm@bf800000bf800000bf8000003f800000 00000001801ddec0     GuBucketPruner.obj
 0002:00007ed0       ?mIndices@MaverickNode@Gu@physx@@2QBIB 00000001801dded0     GuMaverickNode.obj
 0002:00007f30       ??_C@_0GE@JPCMPAOD@D?3?2Repositories?2PhysX?2PhysX?9105@ 00000001801ddf30     GuExtendedBucketPruner.obj
 0002:00007fc0       ??_7CompanionPruner@Gu@physx@@6B@ 00000001801ddfc0     GuSecondaryPruner.obj
 0002:00008040       ??_7CompanionPrunerBucket@@6B@ 00000001801de040     GuSecondaryPruner.obj
 0002:000080c0       ??_7CompanionPrunerIncremental@@6B@ 00000001801de0c0     GuSecondaryPruner.obj
 0002:00008140       ??_7CompanionPrunerAABBTree@@6B@ 00000001801de140     GuSecondaryPruner.obj
 0002:000081c0       ??_C@_0FP@IEGFGMAE@D?3?2Repositories?2PhysX?2PhysX?9105@ 00000001801de1c0     GuSecondaryPruner.obj
 0002:00008240       ??_7AABBPruner@Gu@physx@@6B@ 00000001801de240     GuAABBPruner.obj
 0002:000082e0       ??_C@_0CC@JANKLMNO@SceneQuery?4bucketPrunerAddObjec@ 00000001801de2e0     GuAABBPruner.obj
 0002:00008310       ??_C@_0LA@IHBEIKND@SceneQuery?5static?5AABB?5Tree?5reb@ 00000001801de310     GuAABBPruner.obj
 0002:000083c0       ??_C@_0FK@BKFIHLPH@D?3?2Repositories?2PhysX?2PhysX?9105@ 00000001801de3c0     GuAABBPruner.obj
 0002:00008420       ??_C@_0CB@JOCHAJIC@SceneQuery?4prunerNewTreeFinaliz@ 00000001801de420     GuAABBPruner.obj
 0002:00008448       ??_C@_0BP@IOICCIGM@SceneQuery?4prunerNewTreeSwitch@ 00000001801de448     GuAABBPruner.obj
 0002:00008468       ??_C@_0CA@LJGALBJD@SceneQuery?4prunerNewTreeMapping@ 00000001801de468     GuAABBPruner.obj
 0002:00008488       ??_C@_0CD@OCIEMIME@SceneQuery?4prunerNewTreeFinalRe@ 00000001801de488     GuAABBPruner.obj
 0002:000084b0       ??_C@_0CG@PMFEEPAE@SceneQuery?4prunerNewTreeRemoveO@ 00000001801de4b0     GuAABBPruner.obj
 0002:000084d8       ??_C@_0BL@NAENOAHO@SceneQuery?4prunerBuildStep@ 00000001801de4d8     GuAABBPruner.obj
 0002:000084f8       ??_C@_0CC@MJCIDELA@SceneQuery?4prunerNewTreeFullRef@ 00000001801de4f8     GuAABBPruner.obj
 0002:00008520       ??_C@_0BI@DAHHAEPA@SceneQuery?4prepareBuild@ 00000001801de520     GuAABBPruner.obj
 0002:00008538       ??_C@_0CF@PDMDBIIO@SceneQuery?4prunerFullRebuildAAB@ 00000001801de538     GuAABBPruner.obj
 0002:00008560       ??_C@_0CE@GKMPPEJP@SceneQuery?4prunerUpdateBucketPr@ 00000001801de560     GuAABBPruner.obj
 0002:00008588       ??_C@_0CI@MKOHFNNO@SceneQuery?4prunerRefitUpdatedAn@ 00000001801de588     GuAABBPruner.obj
 0002:000085b0       ??_C@_0FN@GDCDADEJ@D?3?2Repositories?2PhysX?2PhysX?9105@ 00000001801de5b0     GuActorShapeMap.obj
 0002:00008630       ??_C@_0BF@DNABLJAF@Invalid?5pruner?5index@ 00000001801de630     GuQuerySystem.obj
 0002:00008650       ??_C@_0FL@PPICPIEB@D?3?2Repositories?2PhysX?2PhysX?9105@ 00000001801de650     GuQuerySystem.obj
 0002:000086b0       ??_C@_0BO@MMDENGGP@QuerySystem?4processDirtyLists@ 00000001801de6b0     GuQuerySystem.obj
 0002:000086d0       ??_C@_0BE@PHJMAGEL@QuerySystem?3?3update@ 00000001801de6d0     GuQuerySystem.obj
 0002:000086e8       ??_C@_0BK@GODFCMPK@QuerySystem?4commitUpdates@ 00000001801de6e8     GuQuerySystem.obj
 0002:00008738       ??_C@_0CA@NAJNANMC@QuerySystem?4createTreeOfPruners@ 00000001801de738     GuQuerySystem.obj
 0002:00008780       ??_C@_0FH@LDPDOCBD@D?3?2Repositories?2PhysX?2PhysX?9105@ 00000001801de780     GuFactory.obj
 0002:000087e0       ?reductionFactors@SubSortQuick@physx@@2QBMB 00000001801de7e0     GuRTreeCooking.obj
 0002:000087f0       ?stopAtTrisPerLeaf1@SubSortQuick@physx@@2QBIB 00000001801de7f0     GuRTreeCooking.obj
 0002:000088c0       ??_C@_0GE@HJPILKBG@D?3?2Repositories?2PhysX?2PhysX?9105@ 00000001801de8c0     GuRTreeCooking.obj
 0002:00008924       __real@41100000            00000001801de924     GuRTreeCooking.obj
 0002:00008928       __real@41700000            00000001801de928     GuRTreeCooking.obj
 0002:0000892c       __real@42200000            00000001801de92c     GuRTreeCooking.obj
 0002:00008930       __xmm@00000004000000030000000200000001 00000001801de930     GuRTreeCooking.obj
 0002:00008960       ??_C@_0GC@FJHDKAPE@D?3?2Repositories?2PhysX?2PhysX?9105@ 00000001801de960     GuCookingBVH.obj
 0002:000089c8       ??_C@_0DL@JHPKHGFA@Cooking?3?3cookBVH?3?5user?9provided@ 00000001801de9c8     GuCookingBVH.obj
 0002:00008a08       ??_C@_0DN@PLNPGFEB@Cooking?3?3createBVH?3?5user?9provid@ 00000001801dea08     GuCookingBVH.obj
 0002:00008a50       ??_C@_0EL@JCJBAPHL@Cooking?3?3cookHeightField?3?5user?9@ 00000001801dea50     GuCookingHF.obj
 0002:00008aa0       ??_C@_0GB@FGFCNALB@D?3?2Repositories?2PhysX?2PhysX?9105@ 00000001801deaa0     GuCookingHF.obj
 0002:00008b10       ??_C@_0EN@FCEPCAFC@Cooking?3?3createHeightField?3?5use@ 00000001801deb10     GuCookingHF.obj
 0002:00008b60       ??_C@_0EK@EKAIJEBL@Cooking?3?3cookConvexMesh?3?5user?9p@ 00000001801deb60     GuCookingConvexMesh.obj
 0002:00008bb0       ??_C@_0FA@GFFGAPML@Cooking?3?3cookConvexMesh?3?5provid@ 00000001801debb0     GuCookingConvexMesh.obj
 0002:00008c00       ??_C@_0EP@PKDCPNNO@Cooking?3?3cookConvexMesh?3?5provid@ 00000001801dec00     GuCookingConvexMesh.obj
 0002:00008c50       ??_C@_0EO@LKFMMDE@Cooking?3?3cookConvexMesh?3?5user?9p@ 00000001801dec50     GuCookingConvexMesh.obj
 0002:00008ca0       ??_C@_0EL@KJEPJALG@Cooking?3?3cookConvexMesh?3?5user?9p@ 00000001801deca0     GuCookingConvexMesh.obj
 0002:00008cf0       ??_C@_0FM@LHMEBKMM@Cooking?3?3cookConvexMesh?3?5GPU?9co@ 00000001801decf0     GuCookingConvexMesh.obj
 0002:00008d50       ??_C@_0FJ@FHCFFABE@Cooking?3?3cookConvexMesh?3?5GPU?9co@ 00000001801ded50     GuCookingConvexMesh.obj
 0002:00008db0       ??_C@_0GJ@LNFBJBJH@D?3?2Repositories?2PhysX?2PhysX?9105@ 00000001801dedb0     GuCookingConvexMesh.obj
 0002:00008e40       ??_7TriangleMeshBuilder@physx@@6B@ 00000001801dee40     GuCookingTriangleMesh.obj
 0002:00008e68       ??_7RTreeTriangleMeshBuilder@physx@@6B@ 00000001801dee68     GuCookingTriangleMesh.obj
 0002:00008e90       ??_7BV4TriangleMeshBuilder@physx@@6B@ 00000001801dee90     GuCookingTriangleMesh.obj
 0002:00008ec0       ??_C@_0GL@MMPNHBHI@D?3?2Repositories?2PhysX?2PhysX?9105@ 00000001801deec0     GuCookingTriangleMesh.obj
 0002:00008f30       ??_C@_0DJ@IGODLHLP@TriangleMesh?3?5Enable?5mesh?5weldi@ 00000001801def30     GuCookingTriangleMesh.obj
 0002:00008f70       ??_C@_0FJ@HHJLKGDF@TriangleMesh?3?5triangles?5are?5too@ 00000001801def70     GuCookingTriangleMesh.obj
 0002:00008fd0       ??_C@_0CN@KGPHHHLK@TriangleMesh?3?5mesh?5is?5too?5big?5f@ 00000001801defd0     GuCookingTriangleMesh.obj
 0002:00009000       ??_C@_0DD@CMJGDCNN@TriangleMesh?3?3loadFromDesc?3?5des@ 00000001801df000     GuCookingTriangleMesh.obj
 0002:00009040       ??_C@_0ED@ILJJNHIP@TriangleMesh?3?3loadFromDesc?3?5mPa@ 00000001801df040     GuCookingTriangleMesh.obj
 0002:00009088       ??_C@_0CK@BJFFGDPK@input?5mesh?5contains?5corrupted?5v@ 00000001801df088     GuCookingTriangleMesh.obj
 0002:000090b8       ??_C@_0BJ@BKHDBBHO@cleaning?5the?5mesh?5failed@ 00000001801df0b8     GuCookingTriangleMesh.obj
 0002:000090d8       ??_C@_0CC@BPIMLJA@input?5sdf?5contains?5corrupted?5da@ 00000001801df0d8     GuCookingTriangleMesh.obj
 0002:00009100       ??_C@_0BK@JIDHMMCE@BV4?5tree?5failed?5to?5build?4@ 00000001801df100     GuCookingTriangleMesh.obj
 0002:00009120       ??_C@_0BL@DHNECNBE@BV32?5tree?5failed?5to?5build?4@ 00000001801df120     GuCookingTriangleMesh.obj
 0002:00009140       ??_7RTreeCookerRemap@@6B@  00000001801df140     GuCookingTriangleMesh.obj
 0002:00009150       ??_C@_0FC@PJIHAFK@Cooking?3?3validateTriangleMesh?3?5@ 00000001801df150     GuCookingTriangleMesh.obj
 0002:000091a4       __real@48742400            00000001801df1a4     GuCookingTriangleMesh.obj
 0002:000091d0       ??_7PxCollisionTetrahedronMeshData@physx@@6B@ 00000001801df1d0     GuCookingTetrahedronMesh.obj
 0002:00009200       ??_7PxSimulationTetrahedronMeshData@physx@@6B@ 00000001801df200     GuCookingTetrahedronMesh.obj
 0002:00009220       ??_7CollisionTetrahedronMeshData@Gu@physx@@6B@ 00000001801df220     GuCookingTetrahedronMesh.obj
 0002:00009250       ??_7SimulationTetrahedronMeshData@Gu@physx@@6B@ 00000001801df250     GuCookingTetrahedronMesh.obj
 0002:00009270       ??_C@_0GO@HBCBFKDM@D?3?2Repositories?2PhysX?2PhysX?9105@ 00000001801df270     GuCookingTetrahedronMesh.obj
 0002:000092e0       ??_7?$LocalConvex@VTetrahedronV@Gu@physx@@@Gu@physx@@6B@ 00000001801df2e0     GuCookingTetrahedronMesh.obj
 0002:00009310       ??_C@_0CD@OJGNHLOE@BV4_AABBTree?5tree?5failed?5to?5bui@ 00000001801df310     GuCookingTetrahedronMesh.obj
 0002:00009338       ??_C@_0DG@NCNIEEHB@TetrahedronMesh?3?3loadFromDesc?3?5@ 00000001801df338     GuCookingTetrahedronMesh.obj
 0002:00009370       ??_C@_0EG@CJIFGLMC@TetrahedronMesh?3?3loadFromDesc?3?5@ 00000001801df370     GuCookingTetrahedronMesh.obj
 0002:000093b8       __real@be2aaaab            00000001801df3b8     GuCookingTetrahedronMesh.obj
 0002:000093c0       __xmm@00000003000000030000000300000003 00000001801df3c0     GuCookingTetrahedronMesh.obj
 0002:000093f0       __real@3bc79ca10c924223    00000001801df3f0     GuCookingVolumeIntegration.obj
 0002:000093f8       __real@3f91111111111111    00000001801df3f8     GuCookingVolumeIntegration.obj
 0002:00009400       __real@3fa5555555555555    00000001801df400     GuCookingVolumeIntegration.obj
 0002:00009408       __real@3fa999999999999a    00000001801df408     GuCookingVolumeIntegration.obj
 0002:00009410       __real@3fb5555555555555    00000001801df410     GuCookingVolumeIntegration.obj
 0002:00009418       __real@3fc5555555555555    00000001801df418     GuCookingVolumeIntegration.obj
 0002:00009420       __real@3fe0000000000000    00000001801df420     GuCookingVolumeIntegration.obj
 0002:00009428       __real@3ff0000000000000    00000001801df428     GuCookingVolumeIntegration.obj
 0002:00009430       __real@4008000000000000    00000001801df430     GuCookingVolumeIntegration.obj
 0002:00009438       __real@4010000000000000    00000001801df438     GuCookingVolumeIntegration.obj
 0002:00009440       __real@bf91111111111111    00000001801df440     GuCookingVolumeIntegration.obj
 0002:00009448       __real@bfa999999999999a    00000001801df448     GuCookingVolumeIntegration.obj
 0002:00009450       __real@bfb5555555555555    00000001801df450     GuCookingVolumeIntegration.obj
 0002:00009458       __real@bfc5555555555555    00000001801df458     GuCookingVolumeIntegration.obj
 0002:00009460       __xmm@3c0888893c0888893c0888893c088889 00000001801df460     GuCookingVolumeIntegration.obj
 0002:00009470       __xmm@3c8888893c8888893c8888893c888889 00000001801df470     GuCookingVolumeIntegration.obj
 0002:00009480       __xmm@3d2aaaab3d2aaaab3d2aaaab3d2aaaab 00000001801df480     GuCookingVolumeIntegration.obj
 0002:00009490       __xmm@3e2aaaab3e2aaaab3e2aaaab3e2aaaab 00000001801df490     GuCookingVolumeIntegration.obj
 0002:000094a0       __xmm@3f811111111111113f81111111111111 00000001801df4a0     GuCookingVolumeIntegration.obj
 0002:000094b0       __xmm@3f811111111111113f91111111111111 00000001801df4b0     GuCookingVolumeIntegration.obj
 0002:000094c0       __xmm@3f911111111111113f91111111111111 00000001801df4c0     GuCookingVolumeIntegration.obj
 0002:000094d0       __xmm@3fa55555555555553fa5555555555555 00000001801df4d0     GuCookingVolumeIntegration.obj
 0002:000094e0       __xmm@3fa55555555555553fc5555555555555 00000001801df4e0     GuCookingVolumeIntegration.obj
 0002:000094f0       __xmm@3fd55555555555553fd5555555555555 00000001801df4f0     GuCookingVolumeIntegration.obj
 0002:00009500       __xmm@3fe00000000000003fe0000000000000 00000001801df500     GuCookingVolumeIntegration.obj
 0002:00009510       __xmm@7fffffffffffffff7fffffffffffffff 00000001801df510     GuCookingVolumeIntegration.obj
 0002:00009520       __xmm@80000000000000008000000000000000 00000001801df520     GuCookingVolumeIntegration.obj
 0002:00009530       ??_7ConvexHullLib@physx@@6B@ 00000001801df530     GuCookingQuickHullConvexHullLib.obj
 0002:00009550       ??_7QuickHullConvexHullLib@physx@@6B@ 00000001801df550     GuCookingQuickHullConvexHullLib.obj
 0002:00009570       ??_C@_0HF@NAPPMPDG@D?3?2Repositories?2PhysX?2PhysX?9105@ 00000001801df570     GuCookingQuickHullConvexHullLib.obj
 0002:000095f0       ??_C@_0GA@EPPAEJPM@QuickHullConvexHullLib?3?3findSim@ 00000001801df5f0     GuCookingQuickHullConvexHullLib.obj
 0002:00009650       ??_C@_0FB@NEBIJMML@QuickHullConvexHullLib?3?3findSim@ 00000001801df650     GuCookingQuickHullConvexHullLib.obj
 0002:000096b0       ??_C@_0FB@CLLCBEMM@QuickHullConvexHullLib?3?3findSim@ 00000001801df6b0     GuCookingQuickHullConvexHullLib.obj
 0002:00009704       __real@34c00000            00000001801df704     GuCookingQuickHullConvexHullLib.obj
 0002:00009708       ??_C@_0DP@PJBJBEGF@Meshmerizer?3?3extractHullPolygon@ 00000001801df708     GuCookingConvexPolygonsBuilder.obj
 0002:00009750       ??_C@_0HE@BAMEOKCA@D?3?2Repositories?2PhysX?2PhysX?9105@ 00000001801df750     GuCookingConvexPolygonsBuilder.obj
 0002:000097c8       ??_C@_0DL@IAFKOCCK@ConvexHullBuilder?3?5convex?5hull?5@ 00000001801df7c8     GuCookingConvexPolygonsBuilder.obj
 0002:00009810       ??_C@_0GF@OJLJHAMH@ConvexHullBuilder?3?3CreateTriang@ 00000001801df810     GuCookingConvexPolygonsBuilder.obj
 0002:000098a0       ??_C@_0DF@LLFJIJGM@Gu?3?3ConvexMesh?3?3loadFromDesc?3?5d@ 00000001801df8a0     GuCookingConvexMeshBuilder.obj
 0002:000098e0       ??_C@_0HK@JOGKIEAA@Gu?3?3ConvexMesh?3?5Mesh?5has?5a?5nega@ 00000001801df8e0     GuCookingConvexMeshBuilder.obj
 0002:00009960       ??_C@_0DH@NJPPHFFD@Gu?3?3ConvexMesh?3?5Error?5computing@ 00000001801df960     GuCookingConvexMeshBuilder.obj
 0002:00009998       ??_C@_0DJ@LJDLGLDJ@Gu?3?3ConvexMesh?3?3loadConvexHull?3@ 00000001801df998     GuCookingConvexMeshBuilder.obj
 0002:000099e0       ??_C@_0HJ@KJANPPOE@ConvexMeshBuilder?3?3computeHullP@ 00000001801df9e0     GuCookingConvexMeshBuilder.obj
 0002:00009a60       ??_C@_0HA@LADHAMJ@D?3?2Repositories?2PhysX?2PhysX?9105@ 00000001801dfa60     GuCookingConvexMeshBuilder.obj
 0002:00009ad0       ??_C@_0O@JMAGMMGG@PxHullPolygon@ 00000001801dfad0     GuCookingConvexMeshBuilder.obj
 0002:00009ae0       __real@3f13cd3a            00000001801dfae0     GuCookingConvexMeshBuilder.obj
 0002:00009b10       ??_C@_0GO@KGAKCH@D?3?2Repositories?2PhysX?2PhysX?9105@ 00000001801dfb10     GuCookingConvexHullUtils.obj
 0002:00009b80       __real@3e20d97c            00000001801dfb80     GuCookingConvexHullUtils.obj
 0002:00009b90       ??_C@_0GM@JMKICPLK@D?3?2Repositories?2PhysX?2PhysX?9105@ 00000001801dfb90     GuCookingConvexHullLib.obj
 0002:00009c00       ??_C@_0JE@PABBNGEL@ConvexHullLib?3?3cleanupVertices?3@ 00000001801dfc00     GuCookingConvexHullLib.obj
 0002:00009cc0       ??_C@_0HA@MFKHNAJM@D?3?2Repositories?2PhysX?2PhysX?9105@ 00000001801dfcc0     GuCookingConvexHullBuilder.obj
 0002:00009d30       ??_C@_0EB@DCEIFDGC@ConvexHullBuilder?3?3init?3?5convex@ 00000001801dfd30     GuCookingConvexHullBuilder.obj
 0002:00009d80       ??_C@_0FM@KICBLCBH@Gu?3?3ConvexMesh?3?3checkHullPolygo@ 00000001801dfd80     GuCookingConvexHullBuilder.obj
 0002:00009de0       ??_C@_0GO@HBFIOGLL@Gu?3?3ConvexMesh?3?3checkHullPolygo@ 00000001801dfde0     GuCookingConvexHullBuilder.obj
 0002:00009e50       ??_C@_0HF@OLJFBIEL@ConvexHullBuilder?3?5convex?5hull?5@ 00000001801dfe50     GuCookingConvexHullBuilder.obj
 0002:00009ed0       ??_C@_0OG@JNHFOIL@ConvexHullBuilder?3?5convex?5hull?5@ 00000001801dfed0     GuCookingConvexHullBuilder.obj
 0002:00009fc0       ??_C@_0EJ@NIOIBAKH@Cooking?3?3cookConvexMesh?3?5non?9ma@ 00000001801dffc0     GuCookingConvexHullBuilder.obj
 0002:0000a030       ??_C@_0HD@OGJOLIJ@D?3?2Repositories?2PhysX?2PhysX?9105@ 00000001801e0030     GuCookingBigConvexDataBuilder.obj
 0002:0000a0b0       __sz_PhysXFoundation_64_dll 00000001801e00b0     PhysXFoundation_64:PhysXFoundation_64.dll
 0002:0000a0c8       ??_C@_1BK@DBDEIDLH@?$AAK?$AAE?$AAR?$AAN?$AAE?$AAL?$AA3?$AA2?$AA?4?$AAD?$AAL?$AAL@ 00000001801e00c8     Delayimp:delayhlp.obj
 0002:0000a0e8       ??_C@_0BI@OMNLIJDB@AcquireSRWLockExclusive@ 00000001801e00e8     Delayimp:delayhlp.obj
 0002:0000a100       ??_C@_0BI@HMIEPCNJ@ReleaseSRWLockExclusive@ 00000001801e0100     Delayimp:delayhlp.obj
 0002:0000a118       __pfnDliFailureHook2       00000001801e0118     Delayimp:delayhk1.obj
 0002:0000a128       ??_7type_info@@6B@         00000001801e0128     LIBCMT:std_type_info_static.obj
 0002:0000a190       _pDefaultRawDllMain        00000001801e0190     LIBCMT:dll_dllmain.obj
 0002:0000a190       _pRawDllMain               00000001801e0190     LIBCMT:dll_dllmain.obj
 0002:0000a1a0       _load_config_used          00000001801e01a0     LIBCMT:loadcfg.obj
 0002:0000a2e0       _pDestructExceptionObject  00000001801e02e0     libvcruntime:ehhelpers.obj
 0002:0000aa00       ??_C@_08EHJDFFNH@__based?$CI@ 00000001801e0a00     libvcruntime:undname.obj
 0002:0000aa10       ??_C@_07KOLFKCDI@__cdecl@  00000001801e0a10     libvcruntime:undname.obj
 0002:0000aa18       ??_C@_08GHMPAG@__pascal@   00000001801e0a18     libvcruntime:undname.obj
 0002:0000aa28       ??_C@_09IFJBGAPI@__stdcall@ 00000001801e0a28     libvcruntime:undname.obj
 0002:0000aa38       ??_C@_0L@NPHFGOKO@__thiscall@ 00000001801e0a38     libvcruntime:undname.obj
 0002:0000aa48       ??_C@_0L@JMKHOMEK@__fastcall@ 00000001801e0a48     libvcruntime:undname.obj
 0002:0000aa58       ??_C@_0N@BCKKPABJ@__vectorcall@ 00000001801e0a58     libvcruntime:undname.obj
 0002:0000aa68       ??_C@_09HIJEGCPM@__clrcall@ 00000001801e0a68     libvcruntime:undname.obj
 0002:0000aa74       ??_C@_06GHPCKEAG@__eabi@   00000001801e0a74     libvcruntime:undname.obj
 0002:0000aa80       ??_C@_09IOPIDJLG@__swift_1@ 00000001801e0a80     libvcruntime:undname.obj
 0002:0000aa90       ??_C@_09KFNFGKHF@__swift_2@ 00000001801e0a90     libvcruntime:undname.obj
 0002:0000aaa0       ??_C@_09LMMOFLDE@__swift_3@ 00000001801e0aa0     libvcruntime:undname.obj
 0002:0000aab0       ??_C@_07JOMMBBKO@__ptr64@  00000001801e0ab0     libvcruntime:undname.obj
 0002:0000aab8       ??_C@_0L@PILCLIHE@__restrict@ 00000001801e0ab8     libvcruntime:undname.obj
 0002:0000aac8       ??_C@_0M@GFIIJFMG@__unaligned@ 00000001801e0ac8     libvcruntime:undname.obj
 0002:0000aad8       ??_C@_09DHDLOLLB@restrict?$CI@ 00000001801e0ad8     libvcruntime:undname.obj
 0002:0000aae4       ??_C@_04NIHEBCM@?5new@     00000001801e0ae4     libvcruntime:undname.obj
 0002:0000aaf0       ??_C@_07FPCDHGMM@?5delete@ 00000001801e0af0     libvcruntime:undname.obj
 0002:0000aaf8       ??_C@_01NEMOKFLO@?$DN@     00000001801e0af8     libvcruntime:undname.obj
 0002:0000aafc       ??_C@_02GPIOPFAK@?$DO?$DO@ 00000001801e0afc     libvcruntime:undname.obj
 0002:0000ab00       ??_C@_02FODMEDOG@?$DM?$DM@ 00000001801e0b00     libvcruntime:undname.obj
 0002:0000ab04       ??_C@_01DCLJPIOD@?$CB@     00000001801e0b04     libvcruntime:undname.obj
 0002:0000ab08       ??_C@_02EGOFBIJA@?$DN?$DN@ 00000001801e0b08     libvcruntime:undname.obj
 0002:0000ab0c       ??_C@_02FDNJECIE@?$CB?$DN@ 00000001801e0b0c     libvcruntime:undname.obj
 0002:0000ab10       ??_C@_02GPECMEKF@?$FL?$FN@ 00000001801e0b10     libvcruntime:undname.obj
 0002:0000ab18       ??_C@_08LHJFAFGD@operator@ 00000001801e0b18     libvcruntime:undname.obj
 0002:0000ab24       ??_C@_02HBOOOICD@?9?$DO@   00000001801e0b24     libvcruntime:undname.obj
 0002:0000ab28       ??_C@_01NBENCBCI@?$CK@     00000001801e0b28     libvcruntime:undname.obj
 0002:0000ab2c       ??_C@_02ECNGHCIF@?$CL?$CL@ 00000001801e0b2c     libvcruntime:undname.obj
 0002:0000ab30       ??_C@_02BAABKJLB@?9?9@     00000001801e0b30     libvcruntime:undname.obj
 0002:0000ab34       ??_C@_01JOAMLHOP@?9@       00000001801e0b34     libvcruntime:undname.obj
 0002:0000ab38       ??_C@_01MIFGBAGJ@?$CL@     00000001801e0b38     libvcruntime:undname.obj
 0002:0000ab3c       ??_C@_01HNPIGOCE@?$CG@     00000001801e0b3c     libvcruntime:undname.obj
 0002:0000ab40       ??_C@_03MNHNFDLC@?9?$DO?$CK@ 00000001801e0b40     libvcruntime:undname.obj
 0002:0000ab44       ??_C@_01KMDKNFGN@?1@       00000001801e0b44     libvcruntime:undname.obj
 0002:0000ab48       ??_C@_01FGNFDNOH@?$CF@     00000001801e0b48     libvcruntime:undname.obj
 0002:0000ab4c       ??_C@_01MNNFJEPP@?$DM@     00000001801e0b4c     libvcruntime:undname.obj
 0002:0000ab50       ??_C@_02EHCHHCKH@?$DM?$DN@ 00000001801e0b50     libvcruntime:undname.obj
 0002:0000ab54       ??_C@_01PPODPGHN@?$DO@     00000001801e0b54     libvcruntime:undname.obj
 0002:0000ab58       ??_C@_02EEKDKGMJ@?$DO?$DN@ 00000001801e0b58     libvcruntime:undname.obj
 0002:0000ab5c       ??_C@_01IHBHIGKO@?0@       00000001801e0b5c     libvcruntime:undname.obj
 0002:0000ab60       ??_C@_02HCKGKOFO@?$CI?$CJ@ 00000001801e0b60     libvcruntime:undname.obj
 0002:0000ab64       ??_C@_01PJKLJHI@?$HO@      00000001801e0b64     libvcruntime:undname.obj
 0002:0000ab68       ??_C@_01JKBOJNNK@?$FO@     00000001801e0b68     libvcruntime:undname.obj
 0002:0000ab6c       ??_C@_01DNKMNLPK@?$HM@     00000001801e0b6c     libvcruntime:undname.obj
 0002:0000ab70       ??_C@_02PPKAJPJL@?$CG?$CG@ 00000001801e0b70     libvcruntime:undname.obj
 0002:0000ab74       ??_C@_02NONPIBCD@?$HM?$HM@ 00000001801e0b74     libvcruntime:undname.obj
 0002:0000ab78       ??_C@_02FPIMKNGF@?$CK?$DN@ 00000001801e0b78     libvcruntime:undname.obj
 0002:0000ab7c       ??_C@_02FOEOMHFC@?$CL?$DN@ 00000001801e0b7c     libvcruntime:undname.obj
 0002:0000ab80       ??_C@_02FKMDLLOA@?9?$DN@   00000001801e0b80     libvcruntime:undname.obj
 0002:0000ab84       ??_C@_02FJEHGPIO@?1?$DN@   00000001801e0b84     libvcruntime:undname.obj
 0002:0000ab88       ??_C@_02FENAOKFI@?$CF?$DN@ 00000001801e0b88     libvcruntime:undname.obj
 0002:0000ab8c       ??_C@_03IKFCCPFF@?$DO?$DO?$DN@ 00000001801e0b8c     libvcruntime:undname.obj
 0002:0000ab90       ??_C@_03CDNPDDLA@?$DM?$DM?$DN@ 00000001801e0b90     libvcruntime:undname.obj
 0002:0000ab94       ??_C@_02FGJGFEAB@?$CG?$DN@ 00000001801e0b94     libvcruntime:undname.obj
 0002:0000ab98       ??_C@_02DHLNPPGH@?$HM?$DN@ 00000001801e0b98     libvcruntime:undname.obj
 0002:0000ab9c       ??_C@_02MHEGNOJ@?$FO?$DN@  00000001801e0b9c     libvcruntime:undname.obj
 0002:0000aba0       ??_C@_09IFPLHPGF@?$GAvftable?8@ 00000001801e0ba0     libvcruntime:undname.obj
 0002:0000abb0       ??_C@_09BLBHBJP@?$GAvbtable?8@ 00000001801e0bb0     libvcruntime:undname.obj
 0002:0000abc0       ??_C@_07FEEIOKP@?$GAvcall?8@ 00000001801e0bc0     libvcruntime:undname.obj
 0002:0000abc8       ??_C@_08LLFFHHDJ@?$GAtypeof?8@ 00000001801e0bc8     libvcruntime:undname.obj
 0002:0000abd8       ??_C@_0BF@KDPPACIK@?$GAlocal?5static?5guard?8@ 00000001801e0bd8     libvcruntime:undname.obj
 0002:0000abf0       ??_C@_08OBABFOLI@?$GAstring?8@ 00000001801e0bf0     libvcruntime:undname.obj
 0002:0000ac00       ??_C@_0BD@JDLKDPAB@?$GAvbase?5destructor?8@ 00000001801e0c00     libvcruntime:undname.obj
 0002:0000ac18       ??_C@_0BN@DEGPLNFK@?$GAvector?5deleting?5destructor?8@ 00000001801e0c18     libvcruntime:undname.obj
 0002:0000ac38       ??_C@_0BO@OBMKPJIG@?$GAdefault?5constructor?5closure?8@ 00000001801e0c38     libvcruntime:undname.obj
 0002:0000ac58       ??_C@_0BN@IMDCHIKM@?$GAscalar?5deleting?5destructor?8@ 00000001801e0c58     libvcruntime:undname.obj
 0002:0000ac78       ??_C@_0BO@PFGOCPJJ@?$GAvector?5constructor?5iterator?8@ 00000001801e0c78     libvcruntime:undname.obj
 0002:0000ac98       ??_C@_0BN@LFPFMEDL@?$GAvector?5destructor?5iterator?8@ 00000001801e0c98     libvcruntime:undname.obj
 0002:0000acb8       ??_C@_0CE@IKBNEHA@?$GAvector?5vbase?5constructor?5itera@ 00000001801e0cb8     libvcruntime:undname.obj
 0002:0000ace0       ??_C@_0BL@NILFHHPC@?$GAvirtual?5displacement?5map?8@ 00000001801e0ce0     libvcruntime:undname.obj
 0002:0000ad00       ??_C@_0CB@JONCMFFK@?$GAeh?5vector?5constructor?5iterator@ 00000001801e0d00     libvcruntime:undname.obj
 0002:0000ad28       ??_C@_0CA@GCEOPDGL@?$GAeh?5vector?5destructor?5iterator?8@ 00000001801e0d28     libvcruntime:undname.obj
 0002:0000ad48       ??_C@_0CH@OOJPLCPH@?$GAeh?5vector?5vbase?5constructor?5it@ 00000001801e0d48     libvcruntime:undname.obj
 0002:0000ad70       ??_C@_0BL@LLKPOHJI@?$GAcopy?5constructor?5closure?8@ 00000001801e0d70     libvcruntime:undname.obj
 0002:0000ad90       ??_C@_0BA@KBCDOMBN@?$GAudt?5returning?8@ 00000001801e0d90     libvcruntime:undname.obj
 0002:0000ada0       ??_C@_03KLGMFNMG@?$GAEH@   00000001801e0da0     libvcruntime:undname.obj
 0002:0000ada4       ??_C@_05KHLCHHI@?$GARTTI@  00000001801e0da4     libvcruntime:undname.obj
 0002:0000adb0       ??_C@_0BA@KKLDJDLB@?$GAlocal?5vftable?8@ 00000001801e0db0     libvcruntime:undname.obj
 0002:0000adc0       ??_C@_0CE@IIHCMGGL@?$GAlocal?5vftable?5constructor?5clos@ 00000001801e0dc0     libvcruntime:undname.obj
 0002:0000ade4       ??_C@_06FHBGPFGH@?5new?$FL?$FN@ 00000001801e0de4     libvcruntime:undname.obj
 0002:0000adf0       ??_C@_09LBNFPBCA@?5delete?$FL?$FN@ 00000001801e0df0     libvcruntime:undname.obj
 0002:0000ae00       ??_C@_0P@HJKNJFNN@?$GAomni?5callsig?8@ 00000001801e0e00     libvcruntime:undname.obj
 0002:0000ae10       ??_C@_0BL@CNOONJFP@?$GAplacement?5delete?5closure?8@ 00000001801e0e10     libvcruntime:undname.obj
 0002:0000ae30       ??_C@_0BN@CKNJLHMB@?$GAplacement?5delete?$FL?$FN?5closure?8@ 00000001801e0e30     libvcruntime:undname.obj
 0002:0000ae50       ??_C@_0CG@CFDHKGGD@?$GAmanaged?5vector?5constructor?5ite@ 00000001801e0e50     libvcruntime:undname.obj
 0002:0000ae78       ??_C@_0CF@IMGKMJNO@?$GAmanaged?5vector?5destructor?5iter@ 00000001801e0e78     libvcruntime:undname.obj
 0002:0000aea0       ??_C@_0CG@HLDDJMAG@?$GAeh?5vector?5copy?5constructor?5ite@ 00000001801e0ea0     libvcruntime:undname.obj
 0002:0000aec8       ??_C@_0CM@FCBBDIGB@?$GAeh?5vector?5vbase?5copy?5construct@ 00000001801e0ec8     libvcruntime:undname.obj
 0002:0000aef8       ??_C@_0BL@CLIPGLGB@?$GAdynamic?5initializer?5for?5?8@ 00000001801e0ef8     libvcruntime:undname.obj
 0002:0000af18       ??_C@_0CB@PDBIFEP@?$GAdynamic?5atexit?5destructor?5for?5@ 00000001801e0f18     libvcruntime:undname.obj
 0002:0000af40       ??_C@_0CD@CGAJBKEJ@?$GAvector?5copy?5constructor?5iterat@ 00000001801e0f40     libvcruntime:undname.obj
 0002:0000af68       ??_C@_0CJ@GJELGAMM@?$GAvector?5vbase?5copy?5constructor?5@ 00000001801e0f68     libvcruntime:undname.obj
 0002:0000af98       ??_C@_0CL@FGIJHLCE@?$GAmanaged?5vector?5copy?5constructo@ 00000001801e0f98     libvcruntime:undname.obj
 0002:0000afc8       ??_C@_0BM@PMGGMLDN@?$GAlocal?5static?5thread?5guard?8@ 00000001801e0fc8     libvcruntime:undname.obj
 0002:0000afe8       ??_C@_0N@BDNMDMOL@operator?5?$CC?$CC?5@ 00000001801e0fe8     libvcruntime:undname.obj
 0002:0000aff8       ??_C@_0BC@GGEBGALA@operator?5co_await@ 00000001801e0ff8     libvcruntime:undname.obj
 0002:0000b010       ??_C@_0M@GAAIMMOH@operator?$DM?$DN?$DO@ 00000001801e1010     libvcruntime:undname.obj
 0002:0000b020       ??_C@_0BC@DAFEJGAK@?5Type?5Descriptor?8@ 00000001801e1020     libvcruntime:undname.obj
 0002:0000b038       ??_C@_0BM@LDKODKLH@?5Base?5Class?5Descriptor?5at?5?$CI@ 00000001801e1038     libvcruntime:undname.obj
 0002:0000b058       ??_C@_0BD@LGICGFMM@?5Base?5Class?5Array?8@ 00000001801e1058     libvcruntime:undname.obj
 0002:0000b070       ??_C@_0BN@MECKDCOJ@?5Class?5Hierarchy?5Descriptor?8@ 00000001801e1070     libvcruntime:undname.obj
 0002:0000b090       ??_C@_0BK@CFCOFLF@?5Complete?5Object?5Locator?8@ 00000001801e1090     libvcruntime:undname.obj
 0002:0000b0b0       ??_C@_0BG@JNJLAMPM@?$GAanonymous?5namespace?8@ 00000001801e10b0     libvcruntime:undname.obj
 0002:0000b0c8       ??_C@_04HEJADOOB@CV?3?5@   00000001801e10c8     libvcruntime:undname.obj
 0002:0000b0d0       ??_C@_02MOLJINC@?3?3@      00000001801e10d0     libvcruntime:undname.obj
 0002:0000b0d8       ??_C@_0BE@JAEOCHPE@template?9parameter?9@ 00000001801e10d8     libvcruntime:undname.obj
 0002:0000b0f0       ??_C@_0BF@LNLGBBNL@?$GAtemplate?9parameter?9@ 00000001801e10f0     libvcruntime:undname.obj
 0002:0000b108       ??_C@_0O@KHGCOMHP@generic?9type?9@ 00000001801e1108     libvcruntime:undname.obj
 0002:0000b118       ??_C@_0P@ODDENDLM@?$GAgeneric?9type?9@ 00000001801e1118     libvcruntime:undname.obj
 0002:0000b128       ??_C@_02OHHJMEON@?8?8@     00000001801e1128     libvcruntime:undname.obj
 0002:0000b130       ??_C@_0BN@IBLMMFAP@?$GAnon?9type?9template?9parameter@ 00000001801e1130     libvcruntime:undname.obj
 0002:0000b150       ??_C@_03DLDNIBIK@?$CFlf@   00000001801e1150     libvcruntime:undname.obj
 0002:0000b154       ??_C@_04OFALKAJ@?$DP?$DP_C@ 00000001801e1154     libvcruntime:undname.obj
 0002:0000b15c       ??_C@_03KHICJKCI@?4?4?4@   00000001801e115c     libvcruntime:undname.obj
 0002:0000b160       ??_C@_04HIBGFPH@NULL@      00000001801e1160     libvcruntime:undname.obj
 0002:0000b168       ??_C@_02DPKJAMEF@?$CFd@    00000001801e1168     libvcruntime:undname.obj
 0002:0000b170       ??_C@_0BK@IHCCFNEL@?$GAtemplate?9type?9parameter?9@ 00000001801e1170     libvcruntime:undname.obj
 0002:0000b190       ??_C@_0BK@OFCNNNKO@?$GAgeneric?9class?9parameter?9@ 00000001801e1190     libvcruntime:undname.obj
 0002:0000b1b0       ??_C@_0BL@NGJBLFIL@?$GAgeneric?9method?9parameter?9@ 00000001801e11b0     libvcruntime:undname.obj
 0002:0000b1d0       ??_C@_07OHNGEDJK@nullptr@  00000001801e11d0     libvcruntime:undname.obj
 0002:0000b1d8       ??_C@_06COJIGPIB@lambda@   00000001801e11d8     libvcruntime:undname.obj
 0002:0000b1e0       ??_C@_0BE@EODMJLIF@?$GAtemplate?9parameter@ 00000001801e11e0     libvcruntime:undname.obj
 0002:0000b1f4       ??_C@_03OPGICMGF@?$HN?8?5@ 00000001801e11f4     libvcruntime:undname.obj
 0002:0000b1f8       ??_C@_02IGFCGPIL@?$HN?8@   00000001801e11f8     libvcruntime:undname.obj
 0002:0000b200       ??_C@_0N@CBHHHENL@?$GAvtordispex?$HL@ 00000001801e1200     libvcruntime:undname.obj
 0002:0000b210       ??_C@_0L@GHPFDFH@?$GAvtordisp?$HL@ 00000001801e1210     libvcruntime:undname.obj
 0002:0000b220       ??_C@_0L@HNGCOGAE@?$GAadjustor?$HL@ 00000001801e1220     libvcruntime:undname.obj
 0002:0000b230       ??_C@_0CB@KJDOOODE@?$GAlocal?5static?5destructor?5helper@ 00000001801e1230     libvcruntime:undname.obj
 0002:0000b258       ??_C@_0DB@ILEFOCIJ@?$GAtemplate?5static?5data?5member?5co@ 00000001801e1258     libvcruntime:undname.obj
 0002:0000b290       ??_C@_0DA@HGFJFBBE@?$GAtemplate?5static?5data?5member?5de@ 00000001801e1290     libvcruntime:undname.obj
 0002:0000b2c0       ??_C@_07PGOEDBHP@static?5@ 00000001801e12c0     libvcruntime:undname.obj
 0002:0000b2c8       ??_C@_08NIEOINHE@virtual?5@ 00000001801e12c8     libvcruntime:undname.obj
 0002:0000b2d8       ??_C@_09LAPHOOG@private?3?5@ 00000001801e12d8     libvcruntime:undname.obj
 0002:0000b2e8       ??_C@_0M@GAIFPFIP@protected?3?5@ 00000001801e12e8     libvcruntime:undname.obj
 0002:0000b2f8       ??_C@_08GPDDCMKI@public?3?5@ 00000001801e12f8     libvcruntime:undname.obj
 0002:0000b308       ??_C@_08KJLFOPNE@?$FLthunk?$FN?3@ 00000001801e1308     libvcruntime:undname.obj
 0002:0000b318       ??_C@_0M@DHNBOJMP@extern?5?$CCC?$CC?5@ 00000001801e1318     libvcruntime:undname.obj
 0002:0000b324       ??_C@_02KCKGHPCA@?$CJ?5@   00000001801e1324     libvcruntime:undname.obj
 0002:0000b328       ??_C@_05CIHEBHNO@char?5@   00000001801e1328     libvcruntime:undname.obj
 0002:0000b330       ??_C@_06EHJMALKF@short?5@  00000001801e1330     libvcruntime:undname.obj
 0002:0000b338       ??_C@_04LAHKHJMA@int?5@    00000001801e1338     libvcruntime:undname.obj
 0002:0000b340       ??_C@_05CJIMAING@long?5@   00000001801e1340     libvcruntime:undname.obj
 0002:0000b348       ??_C@_09EBBEKKIH@unsigned?5@ 00000001801e1348     libvcruntime:undname.obj
 0002:0000b354       ??_C@_05BEFAKPML@void?5@   00000001801e1354     libvcruntime:undname.obj
 0002:0000b360       ??_C@_09GAIEOBLP@volatile?5@ 00000001801e1360     libvcruntime:undname.obj
 0002:0000b370       ??_C@_08PABEKFH@volatile@  00000001801e1370     libvcruntime:undname.obj
 0002:0000b380       ??_C@_0BA@LKIJLKPP@std?3?3nullptr_t?5@ 00000001801e1380     libvcruntime:undname.obj
 0002:0000b390       ??_C@_0P@GCOCNKDM@std?3?3nullptr_t@ 00000001801e1390     libvcruntime:undname.obj
 0002:0000b3a0       ??_C@_0L@EGPHHEKN@?$DMellipsis?$DO@ 00000001801e13a0     libvcruntime:undname.obj
 0002:0000b3ac       ??_C@_04EENFHACM@?0?4?4?4@ 00000001801e13ac     libvcruntime:undname.obj
 0002:0000b3b8       ??_C@_0M@ELJOJFFH@?0?$DMellipsis?$DO@ 00000001801e13b8     libvcruntime:undname.obj
 0002:0000b3c8       ??_C@_09DNHFEOJI@?5noexcept@ 00000001801e13c8     libvcruntime:undname.obj
 0002:0000b3d4       ??_C@_03PBJBJNON@cpu@      00000001801e13d4     libvcruntime:undname.obj
 0002:0000b3d8       ??_C@_03DCBBJBAA@amp@      00000001801e13d8     libvcruntime:undname.obj
 0002:0000b3dc       ??_C@_02KEGNLNML@?0?5@     00000001801e13dc     libvcruntime:undname.obj
 0002:0000b3e0       ??_C@_04ENMBGAPA@char@     00000001801e13e0     libvcruntime:undname.obj
 0002:0000b3e8       ??_C@_05BFKKPKCG@short@    00000001801e13e8     libvcruntime:undname.obj
 0002:0000b3f0       ??_C@_03JBIPMCLC@int@      00000001801e13f0     libvcruntime:undname.obj
 0002:0000b3f4       ??_C@_04GOKPGOLB@long@     00000001801e13f4     libvcruntime:undname.obj
 0002:0000b3fc       ??_C@_06BNJCAIGJ@double@   00000001801e13fc     libvcruntime:undname.obj
 0002:0000b404       ??_C@_06EBGKOKIG@__int8@   00000001801e1404     libvcruntime:undname.obj
