 PhysX_64

 Timestamp is 64be005a (Mon Jul 24 10:08:50 2023)

 Preferred load address is 0000000180000000

 Start         Length     Name                   Class
 0001:00000000 00003510H .text$di                CODE
 0001:00003510 001e5b90H .text$mn                CODE
 0001:001e90a0 00000040H .text$mn$00             CODE
 0001:001e90e0 00000680H .text$x                 CODE
 0001:001e9760 0000002fH .text$yd                CODE
 0002:00000000 000002b8H .idata$5                DATA
 0002:000002b8 00000038H .00cfg                  DATA
 0002:000002f0 00000008H .CRT$XCA                DATA
 0002:000002f8 00001a40H .CRT$XCU                DATA
 0002:00001d38 00000008H .CRT$XCZ                DATA
 0002:00001d40 00000008H .CRT$XIA                DATA
 0002:00001d48 00000018H .CRT$XIC                DATA
 0002:00001d60 00000008H .CRT$XIZ                DATA
 0002:00001d68 00000008H .CRT$XPA                DATA
 0002:00001d70 00000010H .CRT$XPX                DATA
 0002:00001d80 00000008H .CRT$XPXA               DATA
 0002:00001d88 00000008H .CRT$XPZ                DATA
 0002:00001d90 00000008H .CRT$XTA                DATA
 0002:00001d98 00000008H .CRT$XTZ                DATA
 0002:00001da0 00000000H .gehcont$y              DATA
 0002:00001da0 00000000H .gfids$y                DATA
 0002:00001da0 00038ce0H .rdata                  DATA
 0002:0003aa80 00000000H .rdata$CastGuardVftablesA DATA
 0002:0003aa80 00000000H .rdata$CastGuardVftablesC DATA
 0002:0003aa80 0000043cH .rdata$r                DATA
 0002:0003aebc 00000cb8H .rdata$voltmd           DATA
 0002:0003bb74 00000434H .rdata$zzzdbg           DATA
 0002:0003bfa8 00000008H .rtc$IAA                DATA
 0002:0003bfb0 00000008H .rtc$IZZ                DATA
 0002:0003bfb8 00000008H .rtc$TAA                DATA
 0002:0003bfc0 00000008H .rtc$TZZ                DATA
 0002:0003bfc8 0001c690H .xdata                  DATA
 0002:00058658 00000084H .xdata$x                DATA
 0002:000586dc 00000040H .didat$2                DATA
 0002:0005871c 00000024H .didat$3                DATA
 0002:00058740 00000748H .didat$4                DATA
 0002:00058e88 000050c0H .didat$6                DATA
 0002:0005df48 00000748H .didat$7                DATA
 0002:0005e690 00002ce4H .edata                  DATA
 0002:00061374 00000014H .idata$2                DATA
 0002:00061388 00000018H .idata$3                DATA
 0002:000613a0 000002b8H .idata$4                DATA
 0002:00061658 00000642H .idata$6                DATA
 0003:00000000 00002830H .data                   DATA
 0003:00002830 00003b20H .data$r                 DATA
 0003:00006350 000000f0H .data$rs                DATA
 0003:00006440 00000750H .didat$5                DATA
 0003:00006b90 00004d20H .bss                    DATA
 0004:00000000 00018ba0H .pdata                  DATA
 0005:00000000 0000236cH _RDATA                  DATA
 0006:00000000 000000a0H .rsrc$01                DATA
 0006:000000a0 00000488H .rsrc$02                DATA

  Address         Publics by Value              Rva+Base               Lib:Object

 0000:00000000       __AbsoluteZero             0000000000000000     <absolute>
 0000:00000000       ___safe_se_handler_count   0000000000000000     <absolute>
 0000:00000000       ___safe_se_handler_table   0000000000000000     <absolute>
 0000:00000000       __arm64x_extra_rfe_table   0000000000000000     <absolute>
 0000:00000000       __arm64x_extra_rfe_table_size 0000000000000000     <absolute>
 0000:00000000       __arm64x_native_entrypoint 0000000000000000     <absolute>
 0000:00000000       __arm64x_redirection_metadata 0000000000000000     <absolute>
 0000:00000000       __arm64x_redirection_metadata_count 0000000000000000     <absolute>
 0000:00000000       __dynamic_value_reloc_table 0000000000000000     <absolute>
 0000:00000000       __enclave_config           0000000000000000     <absolute>
 0000:00000000       __guard_check_icall_a64n_fptr 0000000000000000     <absolute>
 0000:00000000       __guard_eh_cont_count      0000000000000000     <absolute>
 0000:00000000       __guard_eh_cont_table      0000000000000000     <absolute>
 0000:00000000       __guard_fids_count         0000000000000000     <absolute>
 0000:00000000       __guard_fids_table         0000000000000000     <absolute>
 0000:00000000       __guard_iat_count          0000000000000000     <absolute>
 0000:00000000       __guard_iat_table          0000000000000000     <absolute>
 0000:00000000       __guard_longjmp_count      0000000000000000     <absolute>
 0000:00000000       __guard_longjmp_table      0000000000000000     <absolute>
 0000:00000000       __hybrid_auxiliary_delayload_iat 0000000000000000     <absolute>
 0000:00000000       __hybrid_auxiliary_delayload_iat_copy 0000000000000000     <absolute>
 0000:00000000       __hybrid_auxiliary_iat     0000000000000000     <absolute>
 0000:00000000       __hybrid_auxiliary_iat_copy 0000000000000000     <absolute>
 0000:00000000       __hybrid_code_map          0000000000000000     <absolute>
 0000:00000000       __hybrid_code_map_count    0000000000000000     <absolute>
 0000:00000000       __x64_code_ranges_to_entry_points 0000000000000000     <absolute>
 0000:00000000       __x64_code_ranges_to_entry_points_count 0000000000000000     <absolute>
 0000:00000100       __guard_flags              0000000000000100     <absolute>
 0000:00000000       __ImageBase                0000000180000000     <linker-defined>
 0001:00003510       ??0PxFoundation@physx@@QEAA@AEBV01@@Z 0000000180004510 f i NpOmniPvd.obj
 0001:00003510       ??0PxFoundation@physx@@QEAA@XZ 0000000180004510 f i NpOmniPvd.obj
 0001:00003520       ??1PxFoundation@physx@@MEAA@XZ 0000000180004520 f i NpOmniPvd.obj
 0001:00003530       ??0PxGeometryGeneratedInfo@physx@@QEAA@XZ 0000000180004530 f i PxAutoGeneratedMetaDataObjects.obj
 0001:00003530       ??0PxGeometryGeneratedValues@physx@@QEAA@PEBVPxGeometry@1@@Z 0000000180004530 f i PxAutoGeneratedMetaDataObjects.obj
 0001:00003530       ??0PxPlaneGeometryGeneratedInfo@physx@@QEAA@XZ 0000000180004530 f i PxAutoGeneratedMetaDataObjects.obj
 0001:00003530       ??0PxPlaneGeometryGeneratedValues@physx@@QEAA@PEBVPxPlaneGeometry@1@@Z 0000000180004530 f i PxAutoGeneratedMetaDataObjects.obj
 0001:00003530       ??4PxFoundation@physx@@QEAAAEAV01@AEBV01@@Z 0000000180004530 f i NpOmniPvd.obj
 0001:00003530       ??4PxMutexImpl@physx@@QEAAAEAV01@AEBV01@@Z 0000000180004530 f i NpOmniPvd.obj
 0001:00003530       ??4PxSListImpl@physx@@QEAAAEAU01@AEBU01@@Z 0000000180004530 f i OmniPvdPxSampler.obj
 0001:00003530       ??4PxSyncImpl@physx@@QEAAAEAV01@AEBV01@@Z 0000000180004530 f i OmniPvdPxSampler.obj
 0001:00003530       ??4PxThreadImpl@physx@@QEAAAEAV01@AEBV01@@Z 0000000180004530 f i OmniPvdPxSampler.obj
 0001:00003540       ??_EPxFoundation@physx@@MEAAPEAXI@Z 0000000180004540 f i NpOmniPvd.obj
 0001:000035d0       ??_ENpOmniPvd@physx@@UEAAPEAXI@Z 00000001800045d0 f i NpOmniPvd.obj
 0001:000035d0       ??_GNpOmniPvd@physx@@UEAAPEAXI@Z 00000001800045d0 f i NpOmniPvd.obj
 0001:000036b0       ??_EPVDCapture@Sq@physx@@UEAAPEAXI@Z 00000001800046b0 f i NpSceneQueries.obj
 0001:000036b0       ??_EPxOmniPvd@physx@@UEAAPEAXI@Z 00000001800046b0 f i NpOmniPvd.obj
 0001:000036b0       ??_GPVDCapture@Sq@physx@@UEAAPEAXI@Z 00000001800046b0 f i NpSceneQueries.obj
 0001:000036b0       ??_GPxOmniPvd@physx@@UEAAPEAXI@Z 00000001800046b0 f i NpOmniPvd.obj
 0001:000036e0       ?decRefCount@NpOmniPvd@physx@@SAXXZ 00000001800046e0 f   NpOmniPvd.obj
 0001:00003700       ?getFileWriteStream@NpOmniPvd@physx@@UEAAPEAVOmniPvdFileWriteStream@@XZ 0000000180004700 f   NpOmniPvd.obj
 0001:00003730       ?getWriter@NpOmniPvd@physx@@UEAAPEAVOmniPvdWriter@@XZ 0000000180004730 f   NpOmniPvd.obj
 0001:00003760       ?incRefCount@NpOmniPvd@physx@@SAXXZ 0000000180004760 f   NpOmniPvd.obj
 0001:00003770       ?initOmniPvd@NpOmniPvd@physx@@QEAA_NXZ 0000000180004770 f   NpOmniPvd.obj
 0001:00003940       ?release@NpOmniPvd@physx@@UEAAXXZ 0000000180004940 f   NpOmniPvd.obj
 0001:000039a0       ?startSampling@NpOmniPvd@physx@@UEAA_NXZ 00000001800049a0 f   NpOmniPvd.obj
 0001:000039c0       PxCreateOmniPvd            00000001800049c0 f   NpOmniPvd.obj
 0001:00003aa0       ??$addToUniqueList@VPxAggregate@physx@@VPxActor@2@@OmniPvdPxSampler@@QEAAXIAEBVPxAggregate@physx@@AEBVPxActor@2@@Z 0000000180004aa0 f i OmniPvdPxSampler.obj
 0001:00003aa0       ??$addToUniqueList@VPxPhysics@physx@@VPxScene@2@@OmniPvdPxSampler@@QEAAXIAEBVPxPhysics@physx@@AEBVPxScene@2@@Z 0000000180004aa0 f i OmniPvdPxSampler.obj
 0001:00003aa0       ??$addToUniqueList@VPxRigidActor@physx@@VPxShape@2@@OmniPvdPxSampler@@QEAAXIAEBVPxRigidActor@physx@@AEBVPxShape@2@@Z 0000000180004aa0 f i OmniPvdPxSampler.obj
 0001:00003aa0       ??$addToUniqueList@VPxScene@physx@@VPxActor@2@@OmniPvdPxSampler@@QEAAXIAEBVPxScene@physx@@AEBVPxActor@2@@Z 0000000180004aa0 f i OmniPvdPxSampler.obj
 0001:00003aa0       ??$addToUniqueList@VPxScene@physx@@VPxAggregate@2@@OmniPvdPxSampler@@QEAAXIAEBVPxScene@physx@@AEBVPxAggregate@2@@Z 0000000180004aa0 f i OmniPvdPxSampler.obj
 0001:00003aa0       ??$addToUniqueList@VPxScene@physx@@VPxArticulationReducedCoordinate@2@@OmniPvdPxSampler@@QEAAXIAEBVPxScene@physx@@AEBVPxArticulationReducedCoordinate@2@@Z 0000000180004aa0 f i OmniPvdPxSampler.obj
 0001:00003af0       ??$createObject@VPxScene@physx@@@OmniPvdPxSampler@@QEAAXIAEBVPxScene@physx@@@Z 0000000180004af0 f i OmniPvdPxSampler.obj
 0001:00003b20       ??$destroyObject@VPxMaterial@physx@@@OmniPvdPxSampler@@QEAAXAEBVPxMaterial@physx@@@Z 0000000180004b20 f i OmniPvdPxSampler.obj
 0001:00003b20       ??$destroyObject@VPxPhysics@physx@@@OmniPvdPxSampler@@QEAAXAEBVPxPhysics@physx@@@Z 0000000180004b20 f i OmniPvdPxSampler.obj
 0001:00003b20       ??$destroyObject@VPxScene@physx@@@OmniPvdPxSampler@@QEAAXAEBVPxScene@physx@@@Z 0000000180004b20 f i OmniPvdPxSampler.obj
 0001:00003b40       ??$removeFromUniqueList@VPxAggregate@physx@@VPxActor@2@@OmniPvdPxSampler@@QEAAXIAEBVPxAggregate@physx@@AEBVPxActor@2@@Z 0000000180004b40 f i OmniPvdPxSampler.obj
 0001:00003b40       ??$removeFromUniqueList@VPxPhysics@physx@@VPxScene@2@@OmniPvdPxSampler@@QEAAXIAEBVPxPhysics@physx@@AEBVPxScene@2@@Z 0000000180004b40 f i OmniPvdPxSampler.obj
 0001:00003b40       ??$removeFromUniqueList@VPxRigidActor@physx@@VPxShape@2@@OmniPvdPxSampler@@QEAAXIAEBVPxRigidActor@physx@@AEBVPxShape@2@@Z 0000000180004b40 f i OmniPvdPxSampler.obj
 0001:00003b40       ??$removeFromUniqueList@VPxScene@physx@@VPxActor@2@@OmniPvdPxSampler@@QEAAXIAEBVPxScene@physx@@AEBVPxActor@2@@Z 0000000180004b40 f i OmniPvdPxSampler.obj
 0001:00003b40       ??$removeFromUniqueList@VPxScene@physx@@VPxAggregate@2@@OmniPvdPxSampler@@QEAAXIAEBVPxScene@physx@@AEBVPxAggregate@2@@Z 0000000180004b40 f i OmniPvdPxSampler.obj
 0001:00003b40       ??$removeFromUniqueList@VPxScene@physx@@VPxArticulationReducedCoordinate@2@@OmniPvdPxSampler@@QEAAXIAEBVPxScene@physx@@AEBVPxArticulationReducedCoordinate@2@@Z 0000000180004b40 f i OmniPvdPxSampler.obj
 0001:00003b90       ??$setAttribute@VPxActor@physx@@E@OmniPvdPxSampler@@QEAAXIAEBVPxActor@physx@@AEBE@Z 0000000180004b90 f i OmniPvdPxSampler.obj
 0001:00003b90       ??$setAttribute@VPxArticulationReducedCoordinate@physx@@V?$PxFlags@W4Enum@PxArticulationFlag@physx@@E@2@@OmniPvdPxSampler@@QEAAXIAEBVPxArticulationReducedCoordinate@physx@@AEBV?$PxFlags@W4Enum@PxArticulationFlag@physx@@E@2@@Z 0000000180004b90 f i OmniPvdPxSampler.obj
 0001:00003b90       ??$setAttribute@VPxRigidDynamic@physx@@V?$PxFlags@W4Enum@PxRigidDynamicLockFlag@physx@@E@2@@OmniPvdPxSampler@@QEAAXIAEBVPxRigidDynamic@physx@@AEBV?$PxFlags@W4Enum@PxRigidDynamicLockFlag@physx@@E@2@@Z 0000000180004b90 f i OmniPvdPxSampler.obj
 0001:00003b90       ??$setAttribute@VPxRigidDynamic@physx@@_N@OmniPvdPxSampler@@QEAAXIAEBVPxRigidDynamic@physx@@AEB_N@Z 0000000180004b90 f i OmniPvdPxSampler.obj
 0001:00003b90       ??$setAttribute@VPxScene@physx@@_N@OmniPvdPxSampler@@QEAAXIAEBVPxScene@physx@@AEB_N@Z 0000000180004b90 f i OmniPvdPxSampler.obj
 0001:00003b90       ??$setAttribute@VPxShape@physx@@V?$PxFlags@W4Enum@PxShapeFlag@physx@@E@2@@OmniPvdPxSampler@@QEAAXIAEBVPxShape@physx@@AEBV?$PxFlags@W4Enum@PxShapeFlag@physx@@E@2@@Z 0000000180004b90 f i OmniPvdPxSampler.obj
 0001:00003bd0       ??$setAttribute@VPxActor@physx@@VPxBounds3@2@@OmniPvdPxSampler@@QEAAXIAEBVPxActor@physx@@AEBVPxBounds3@2@@Z 0000000180004bd0 f i OmniPvdPxSampler.obj
 0001:00003bd0       ??$setAttribute@VPxArticulationReducedCoordinate@physx@@VPxBounds3@2@@OmniPvdPxSampler@@QEAAXIAEBVPxArticulationReducedCoordinate@physx@@AEBVPxBounds3@2@@Z 0000000180004bd0 f i OmniPvdPxSampler.obj
 0001:00003bd0       ??$setAttribute@VPxScene@physx@@VPxBounds3@2@@OmniPvdPxSampler@@QEAAXIAEBVPxScene@physx@@AEBVPxBounds3@2@@Z 0000000180004bd0 f i OmniPvdPxSampler.obj
 0001:00003c10       ??$setAttribute@VPxAggregate@physx@@PEBVPxScene@2@@OmniPvdPxSampler@@QEAAXIAEBVPxAggregate@physx@@AEBQEBVPxScene@2@@Z 0000000180004c10 f i OmniPvdPxSampler.obj
 0001:00003c10       ??$setAttribute@VPxScene@physx@@VPxTolerancesScale@2@@OmniPvdPxSampler@@QEAAXIAEBVPxScene@physx@@AEBVPxTolerancesScale@2@@Z 0000000180004c10 f i OmniPvdPxSampler.obj
 0001:00003c50       ??$setAttribute@VPxArticulationJointReducedCoordinate@physx@@M@OmniPvdPxSampler@@QEAAXIAEBVPxArticulationJointReducedCoordinate@physx@@AEBM@Z 0000000180004c50 f i OmniPvdPxSampler.obj
 0001:00003c50       ??$setAttribute@VPxArticulationJointReducedCoordinate@physx@@W4Enum@PxArticulationJointType@2@@OmniPvdPxSampler@@QEAAXIAEBVPxArticulationJointReducedCoordinate@physx@@AEBW4Enum@PxArticulationJointType@2@@Z 0000000180004c50 f i OmniPvdPxSampler.obj
 0001:00003c50       ??$setAttribute@VPxArticulationLink@physx@@M@OmniPvdPxSampler@@QEAAXIAEBVPxArticulationLink@physx@@AEBM@Z 0000000180004c50 f i OmniPvdPxSampler.obj
 0001:00003c50       ??$setAttribute@VPxArticulationReducedCoordinate@physx@@I@OmniPvdPxSampler@@QEAAXIAEBVPxArticulationReducedCoordinate@physx@@AEBI@Z 0000000180004c50 f i OmniPvdPxSampler.obj
 0001:00003c50       ??$setAttribute@VPxArticulationReducedCoordinate@physx@@M@OmniPvdPxSampler@@QEAAXIAEBVPxArticulationReducedCoordinate@physx@@AEBM@Z 0000000180004c50 f i OmniPvdPxSampler.obj
 0001:00003c50       ??$setAttribute@VPxMaterial@physx@@M@OmniPvdPxSampler@@QEAAXIAEBVPxMaterial@physx@@AEBM@Z 0000000180004c50 f i OmniPvdPxSampler.obj
 0001:00003c50       ??$setAttribute@VPxMaterial@physx@@W4Enum@PxCombineMode@2@@OmniPvdPxSampler@@QEAAXIAEBVPxMaterial@physx@@AEBW4Enum@PxCombineMode@2@@Z 0000000180004c50 f i OmniPvdPxSampler.obj
 0001:00003c50       ??$setAttribute@VPxRigidBody@physx@@M@OmniPvdPxSampler@@QEAAXIAEBVPxRigidBody@physx@@AEBM@Z 0000000180004c50 f i OmniPvdPxSampler.obj
 0001:00003c50       ??$setAttribute@VPxRigidDynamic@physx@@I@OmniPvdPxSampler@@QEAAXIAEBVPxRigidDynamic@physx@@AEBI@Z 0000000180004c50 f i OmniPvdPxSampler.obj
 0001:00003c50       ??$setAttribute@VPxRigidDynamic@physx@@M@OmniPvdPxSampler@@QEAAXIAEBVPxRigidDynamic@physx@@AEBM@Z 0000000180004c50 f i OmniPvdPxSampler.obj
 0001:00003c50       ??$setAttribute@VPxScene@physx@@I@OmniPvdPxSampler@@QEAAXIAEBVPxScene@physx@@AEBI@Z 0000000180004c50 f i OmniPvdPxSampler.obj
 0001:00003c50       ??$setAttribute@VPxScene@physx@@M@OmniPvdPxSampler@@QEAAXIAEBVPxScene@physx@@AEBM@Z 0000000180004c50 f i OmniPvdPxSampler.obj
 0001:00003c50       ??$setAttribute@VPxScene@physx@@V?$PxFlags@W4Enum@PxSceneFlag@physx@@I@2@@OmniPvdPxSampler@@QEAAXIAEBVPxScene@physx@@AEBV?$PxFlags@W4Enum@PxSceneFlag@physx@@I@2@@Z 0000000180004c50 f i OmniPvdPxSampler.obj
 0001:00003c50       ??$setAttribute@VPxScene@physx@@W4Enum@PxBroadPhaseType@2@@OmniPvdPxSampler@@QEAAXIAEBVPxScene@physx@@AEBW4Enum@PxBroadPhaseType@2@@Z 0000000180004c50 f i OmniPvdPxSampler.obj
 0001:00003c50       ??$setAttribute@VPxScene@physx@@W4Enum@PxFrictionType@2@@OmniPvdPxSampler@@QEAAXIAEBVPxScene@physx@@AEBW4Enum@PxFrictionType@2@@Z 0000000180004c50 f i OmniPvdPxSampler.obj
 0001:00003c50       ??$setAttribute@VPxScene@physx@@W4Enum@PxPairFilteringMode@2@@OmniPvdPxSampler@@QEAAXIAEBVPxScene@physx@@AEBW4Enum@PxPairFilteringMode@2@@Z 0000000180004c50 f i OmniPvdPxSampler.obj
 0001:00003c50       ??$setAttribute@VPxScene@physx@@W4Enum@PxSolverType@2@@OmniPvdPxSampler@@QEAAXIAEBVPxScene@physx@@AEBW4Enum@PxSolverType@2@@Z 0000000180004c50 f i OmniPvdPxSampler.obj
 0001:00003c50       ??$setAttribute@VPxShape@physx@@M@OmniPvdPxSampler@@QEAAXIAEBVPxShape@physx@@AEBM@Z 0000000180004c50 f i OmniPvdPxSampler.obj
 0001:00003c90       ??$setAttribute@VPxArticulationJointReducedCoordinate@physx@@V?$PxQuatT@M@2@@OmniPvdPxSampler@@QEAAXIAEBVPxArticulationJointReducedCoordinate@physx@@AEBV?$PxQuatT@M@2@@Z 0000000180004c90 f i OmniPvdPxSampler.obj
 0001:00003c90       ??$setAttribute@VPxRigidActor@physx@@V?$PxQuatT@M@2@@OmniPvdPxSampler@@QEAAXIAEBVPxRigidActor@physx@@AEBV?$PxQuatT@M@2@@Z 0000000180004c90 f i OmniPvdPxSampler.obj
 0001:00003c90       ??$setAttribute@VPxShape@physx@@UPxFilterData@2@@OmniPvdPxSampler@@QEAAXIAEBVPxShape@physx@@AEBUPxFilterData@2@@Z 0000000180004c90 f i OmniPvdPxSampler.obj
 0001:00003c90       ??$setAttribute@VPxShape@physx@@V?$PxQuatT@M@2@@OmniPvdPxSampler@@QEAAXIAEBVPxShape@physx@@AEBV?$PxQuatT@M@2@@Z 0000000180004c90 f i OmniPvdPxSampler.obj
 0001:00003cd0       ??$setAttribute@VPxArticulationJointReducedCoordinate@physx@@V?$PxVec3T@M@2@@OmniPvdPxSampler@@QEAAXIAEBVPxArticulationJointReducedCoordinate@physx@@AEBV?$PxVec3T@M@2@@Z 0000000180004cd0 f i OmniPvdPxSampler.obj
 0001:00003cd0       ??$setAttribute@VPxRigidActor@physx@@V?$PxVec3T@M@2@@OmniPvdPxSampler@@QEAAXIAEBVPxRigidActor@physx@@AEBV?$PxVec3T@M@2@@Z 0000000180004cd0 f i OmniPvdPxSampler.obj
 0001:00003cd0       ??$setAttribute@VPxRigidBody@physx@@V?$PxVec3T@M@2@@OmniPvdPxSampler@@QEAAXIAEBVPxRigidBody@physx@@AEBV?$PxVec3T@M@2@@Z 0000000180004cd0 f i OmniPvdPxSampler.obj
 0001:00003cd0       ??$setAttribute@VPxScene@physx@@V?$PxVec3T@M@2@@OmniPvdPxSampler@@QEAAXIAEBVPxScene@physx@@AEBV?$PxVec3T@M@2@@Z 0000000180004cd0 f i OmniPvdPxSampler.obj
 0001:00003cd0       ??$setAttribute@VPxShape@physx@@V?$PxVec3T@M@2@@OmniPvdPxSampler@@QEAAXIAEBVPxShape@physx@@AEBV?$PxVec3T@M@2@@Z 0000000180004cd0 f i OmniPvdPxSampler.obj
 0001:00003d10       ??$setAttribute@VPxMaterial@physx@@V?$PxFlags@W4Enum@PxMaterialFlag@physx@@G@2@@OmniPvdPxSampler@@QEAAXIAEBVPxMaterial@physx@@AEBV?$PxFlags@W4Enum@PxMaterialFlag@physx@@G@2@@Z 0000000180004d10 f i OmniPvdPxSampler.obj
 0001:00003d10       ??$setAttribute@VPxRigidBody@physx@@V?$PxFlags@W4Enum@PxRigidBodyFlag@physx@@G@2@@OmniPvdPxSampler@@QEAAXIAEBVPxRigidBody@physx@@AEBV?$PxFlags@W4Enum@PxRigidBodyFlag@physx@@G@2@@Z 0000000180004d10 f i OmniPvdPxSampler.obj
 0001:00003d50       ??$setAttribute@VPxRigidBody@physx@@V?$PxTransformT@M@2@@OmniPvdPxSampler@@QEAAXIAEBVPxRigidBody@physx@@AEBV?$PxTransformT@M@2@@Z 0000000180004d50 f i OmniPvdPxSampler.obj
 0001:00003d90       ??$setAttribute@VPxScene@physx@@UPxgDynamicsMemoryConfig@2@@OmniPvdPxSampler@@QEAAXIAEBVPxScene@physx@@AEBUPxgDynamicsMemoryConfig@2@@Z 0000000180004d90 f i OmniPvdPxSampler.obj
 0001:00003dd0       ??$setAttributeBytes@VPxArticulationJointReducedCoordinate@physx@@M@OmniPvdPxSampler@@QEAAXIAEBVPxArticulationJointReducedCoordinate@physx@@PEBMI@Z 0000000180004dd0 f i OmniPvdPxSampler.obj
 0001:00003dd0       ??$setAttributeBytes@VPxArticulationJointReducedCoordinate@physx@@W4Enum@PxArticulationDriveType@2@@OmniPvdPxSampler@@QEAAXIAEBVPxArticulationJointReducedCoordinate@physx@@PEBW4Enum@PxArticulationDriveType@2@I@Z 0000000180004dd0 f i OmniPvdPxSampler.obj
 0001:00003dd0       ??$setAttributeBytes@VPxArticulationJointReducedCoordinate@physx@@W4Enum@PxArticulationMotion@2@@OmniPvdPxSampler@@QEAAXIAEBVPxArticulationJointReducedCoordinate@physx@@PEBW4Enum@PxArticulationMotion@2@I@Z 0000000180004dd0 f i OmniPvdPxSampler.obj
 0001:00003e10       ??0OmniPvdPxSampler@@QEAA@XZ 0000000180004e10 f   OmniPvdPxSampler.obj
 0001:00003f40       ??0OmniPvdSamplerInternals@@QEAA@XZ 0000000180004f40 f i OmniPvdPxSampler.obj
 0001:000041a0       ??1OmniPvdPxSampler@@QEAA@XZ 00000001800051a0 f   OmniPvdPxSampler.obj
 0001:00004360       ??4PxFPUGuard@physx@@QEAAAEAV01@AEBV01@@Z 0000000180005360 f i OmniPvdPxSampler.obj
 0001:00004380       ??1ActorCore@Sc@physx@@QEAA@XZ 0000000180005380 f i SimulationController_static_64:ScActorCore.obj
 0001:00004380       ??1ArticulationCore@Sc@physx@@QEAA@XZ 0000000180005380 f i SimulationController_static_64:ScArticulationCore.obj
 0001:00004380       ??1ArticulationJointCore@Sc@physx@@QEAA@XZ 0000000180005380 f i SimulationController_static_64:ScArticulationJointCore.obj
 0001:00004380       ??1BpFilter@Bp@physx@@QEAA@XZ 0000000180005380 f i LowLevelAABB_static_64:BpFiltering.obj
 0001:00004380       ??1ConstraintInteraction@Sc@physx@@QEAA@XZ 0000000180005380 f i SimulationController_static_64:ScConstraintInteraction.obj
 0001:00004380       ??1PxsContactManager@physx@@QEAA@XZ 0000000180005380 f i LowLevel_static_64:PxsContactManager.obj
 0001:00004380       ??1SapPairManager@Bp@physx@@QEAA@XZ 0000000180005380 f i LowLevelAABB_static_64:BpBroadPhaseSapAux.obj
 0001:00004380       ?PxcClearContactCacheStats@@YAXXZ 0000000180005380 f i LowLevel_static_64:PxcContactCache.obj
 0001:00004380       ?PxcDisplayContactCacheStats@@YAXXZ 0000000180005380 f i LowLevel_static_64:PxcContactCache.obj
 0001:00004380       ?__empty_global_delete@@YAXPEAX_K@Z 0000000180005380 f i OmniPvdPxSampler.obj
 0001:00004380       ?__global_delete@@YAXPEAX_K@Z 0000000180005380 f i OmniPvdPxSampler.obj
 0001:00004380       ?acquireContext@PxsNphaseImplementationContext@physx@@UEAAXXZ 0000000180005380 f i LowLevel_static_64:PxsNphaseImplementationContext.obj
 0001:00004380       ?activateCloth@PxsSimulationController@physx@@UEAAXPEAVFEMCloth@Dy@2@@Z 0000000180005380 f i SimulationController_static_64:ScScene.obj
 0001:00004380       ?activateHairSystem@PxsSimulationController@physx@@UEAAXPEAVHairSystem@Dy@2@@Z 0000000180005380 f i SimulationController_static_64:ScScene.obj
 0001:00004380       ?activateSoftbody@PxsSimulationController@physx@@UEAAXPEAVSoftBody@Dy@2@@Z 0000000180005380 f i SimulationController_static_64:ScScene.obj
 0001:00004380       ?activateSoftbodySelfCollision@PxsSimulationController@physx@@UEAAXPEAVSoftBody@Dy@2@@Z 0000000180005380 f i SimulationController_static_64:ScScene.obj
 0001:00004380       ?addArticulation@PxsSimulationController@physx@@UEAAXPEAVFeatherstoneArticulation@Dy@2@AEBVPxNodeIndex@2@@Z 0000000180005380 f i SimulationController_static_64:ScScene.obj
 0001:00004380       ?addClothFilter@NpSoftBody@physx@@UEAAXPEAVPxFEMCloth@2@II@Z 0000000180005380 f i NpSoftBody.obj
 0001:00004380       ?addClothFilter@PxsSimulationController@physx@@UEAAXPEAVFEMCloth@Dy@2@0II@Z 0000000180005380 f i SimulationController_static_64:ScScene.obj
 0001:00004380       ?addClothFilter@PxsSimulationController@physx@@UEAAXPEAVSoftBody@Dy@2@PEAVFEMCloth@42@II@Z 0000000180005380 f i SimulationController_static_64:ScScene.obj
 0001:00004380       ?addDynamic@PxsSimulationController@physx@@UEAAXPEAVPxsRigidBody@2@AEBVPxNodeIndex@2@@Z 0000000180005380 f i SimulationController_static_64:ScScene.obj
 0001:00004380       ?addDynamics@PxsSimulationController@physx@@UEAAXPEAPEAVPxsRigidBody@2@PEBII@Z 0000000180005380 f i SimulationController_static_64:ScScene.obj
 0001:00004380       ?addFEMCloth@PxsSimulationController@physx@@UEAAXPEAVFEMCloth@Dy@2@AEBVPxNodeIndex@2@@Z 0000000180005380 f i SimulationController_static_64:ScScene.obj
 0001:00004380       ?addHairSystem@PxsSimulationController@physx@@UEAAXPEAVHairSystem@Dy@2@AEBVPxNodeIndex@2@@Z 0000000180005380 f i SimulationController_static_64:ScScene.obj
 0001:00004380       ?addJoint@PxsSimulationController@physx@@UEAAXIPEAUConstraint@Dy@2@AEAVIslandSim@IG@2@AEAV?$PxArray@IV?$PxReflectionAllocator@I@physx@@@2@AEAV?$PxArray@UPxgSolverConstraintManagerConstants@physx@@VPxVirtualAllocator@2@@2@I@Z 0000000180005380 f i SimulationController_static_64:ScScene.obj
 0001:00004380       ?addParticleFilter@PxsSimulationController@physx@@UEAAXPEAVSoftBody@Dy@2@PEAVParticleSystem@42@III@Z 0000000180005380 f i SimulationController_static_64:ScScene.obj
 0001:00004380       ?addParticleSystem@PxsSimulationController@physx@@UEAAXPEAVParticleSystem@Dy@2@AEBVPxNodeIndex@2@W4Enum@PxParticleSolverType@2@@Z 0000000180005380 f i SimulationController_static_64:ScScene.obj
 0001:00004380       ?addRigidFilter@PxsSimulationController@physx@@UEAAXPEAVFEMCloth@Dy@2@AEBVPxNodeIndex@2@I@Z 0000000180005380 f i SimulationController_static_64:ScScene.obj
 0001:00004380       ?addRigidFilter@PxsSimulationController@physx@@UEAAXPEAVSoftBody@Dy@2@AEBVPxNodeIndex@2@1I@Z 0000000180005380 f i SimulationController_static_64:ScScene.obj
 0001:00004380       ?addShape@PxsSimulationController@physx@@UEAAXPEAUPxsShapeSim@2@I@Z 0000000180005380 f i SimulationController_static_64:ScScene.obj
 0001:00004380       ?addSoftBody@PxsSimulationController@physx@@UEAAXPEAVSoftBody@Dy@2@AEBVPxNodeIndex@2@@Z 0000000180005380 f i SimulationController_static_64:ScScene.obj
 0001:00004380       ?addSoftBodyFilter@PxsSimulationController@physx@@UEAAXPEAVSoftBody@Dy@2@0II@Z 0000000180005380 f i SimulationController_static_64:ScScene.obj
 0001:00004380       ?addSoftBodyFilters@PxsSimulationController@physx@@UEAAXPEAVSoftBody@Dy@2@0PEAI1I@Z 0000000180005380 f i SimulationController_static_64:ScScene.obj
 0001:00004380       ?addTetRigidFilter@PxsSimulationController@physx@@UEAAXPEAVSoftBody@Dy@2@AEBVPxNodeIndex@2@I@Z 0000000180005380 f i SimulationController_static_64:ScScene.obj
 0001:00004380       ?addTriRigidFilter@PxsSimulationController@physx@@UEAAXPEAVFEMCloth@Dy@2@AEBVPxNodeIndex@2@I@Z 0000000180005380 f i SimulationController_static_64:ScScene.obj
 0001:00004380       ?applyActorData@PxsSimulationController@physx@@UEAAXPEAXPEAUPxGpuActorPair@2@W4Enum@PxActorCacheFlag@2@I00@Z 0000000180005380 f i SimulationController_static_64:ScScene.obj
 0001:00004380       ?applyArticulationData@PxsSimulationController@physx@@UEAAXPEAX0W4Enum@PxArticulationGpuDataType@2@I00@Z 0000000180005380 f i SimulationController_static_64:ScScene.obj
 0001:00004380       ?applyParticleBufferData@PxsSimulationController@physx@@UEAAXPEBIPEBUPxGpuParticleBufferIndexPair@2@PEBV?$PxFlags@W4Enum@PxParticleBufferFlag@physx@@I@2@IPEAX3@Z 0000000180005380 f i SimulationController_static_64:ScScene.obj
 0001:00004380       ?applySoftBodyData@PxsSimulationController@physx@@UEAAXPEAPEAXPEAX1W4Enum@PxSoftBodyGpuDataFlag@2@II1@Z 0000000180005380 f i SimulationController_static_64:ScScene.obj
 0001:00004380       ?clear@PxsSimulationController@physx@@UEAAXXZ 0000000180005380 f i SimulationController_static_64:ScScene.obj
 0001:00004380       ?clearOutOfBoundsObjects@AABBManagerBase@Bp@physx@@UEAAXXZ 0000000180005380 f i LowLevelAABB_static_64:BpAABBManagerBase.obj
 0001:00004380       ?computeCoriolisAndCentrifugalForces@PxsSimulationController@physx@@UEAAXPEBUPxIndexDataPair@2@IPEAX@Z 0000000180005380 f i SimulationController_static_64:ScScene.obj
 0001:00004380       ?computeDenseJacobians@PxsSimulationController@physx@@UEAAXPEBUPxIndexDataPair@2@IPEAX@Z 0000000180005380 f i SimulationController_static_64:ScScene.obj
 0001:00004380       ?computeGeneralizedGravityForces@PxsSimulationController@physx@@UEAAXPEBUPxIndexDataPair@2@IAEBV?$PxVec3T@M@2@PEAX@Z 0000000180005380 f i SimulationController_static_64:ScScene.obj
 0001:00004380       ?computeGeneralizedMassMatrices@PxsSimulationController@physx@@UEAAXPEBUPxIndexDataPair@2@IPEAX@Z 0000000180005380 f i SimulationController_static_64:ScScene.obj
 0001:00004380       ?concludeContact@Dy@physx@@YAXAEBUPxSolverConstraintDesc@2@@Z 0000000180005380 f i LowLevelDynamics_static_64:DyTGSContactPrep.obj
 0001:00004380       ?copyArticulationData@PxsSimulationController@physx@@UEAAXPEAX0W4Enum@PxArticulationGpuDataType@2@I0@Z 0000000180005380 f i SimulationController_static_64:ScScene.obj
 0001:00004380       ?copyBodyData@PxsSimulationController@physx@@UEAAXPEAUPxGpuBodyData@2@PEAUPxGpuActorPair@2@IPEAX@Z 0000000180005380 f i SimulationController_static_64:ScScene.obj
 0001:00004380       ?copyContactData@PxsSimulationController@physx@@UEAAXPEAVContext@Dy@2@PEAXI11@Z 0000000180005380 f i SimulationController_static_64:ScScene.obj
 0001:00004380       ?copySoftBodyData@PxsSimulationController@physx@@UEAAXPEAPEAXPEAX1W4Enum@PxSoftBodyGpuDataFlag@2@II1@Z 0000000180005380 f i SimulationController_static_64:ScScene.obj
 0001:00004380       ?createPvdInstance@PvdSceneClient@Vd@physx@@QEAAXPEBV?$MaterialCoreT@UPxsPBDMaterialData@physx@@VPxPBDMaterial@2@@3@@Z 0000000180005380 f i NpPvdSceneClient.obj
 0001:00004380       ?createPvdInstance@PvdSceneClient@Vd@physx@@QEAAXPEBVNpArticulationFixedTendon@3@@Z 0000000180005380 f i NpPvdSceneClient.obj
 0001:00004380       ?createPvdInstance@PvdSceneClient@Vd@physx@@QEAAXPEBVNpArticulationJointReducedCoordinate@3@@Z 0000000180005380 f i NpPvdSceneClient.obj
 0001:00004380       ?createPvdInstance@PvdSceneClient@Vd@physx@@QEAAXPEBVNpArticulationSensor@3@@Z 0000000180005380 f i NpPvdSceneClient.obj
 0001:00004380       ?createPvdInstance@PvdSceneClient@Vd@physx@@QEAAXPEBVNpArticulationSpatialTendon@3@@Z 0000000180005380 f i NpPvdSceneClient.obj
 0001:00004380       ?createPvdInstance@PvdSceneClient@Vd@physx@@QEAAXPEBVNpPBDParticleSystem@3@@Z 0000000180005380 f i NpPvdSceneClient.obj
 0001:00004380       ?createPvdInstance@PvdSceneClient@Vd@physx@@QEAAXPEBVNpSoftBody@3@@Z 0000000180005380 f i NpPvdSceneClient.obj
 0001:00004380       ?deactivateCloth@PxsSimulationController@physx@@UEAAXPEAVFEMCloth@Dy@2@@Z 0000000180005380 f i SimulationController_static_64:ScScene.obj
 0001:00004380       ?deactivateHairSystem@PxsSimulationController@physx@@UEAAXPEAVHairSystem@Dy@2@@Z 0000000180005380 f i SimulationController_static_64:ScScene.obj
 0001:00004380       ?deactivateSoftbody@PxsSimulationController@physx@@UEAAXPEAVSoftBody@Dy@2@@Z 0000000180005380 f i SimulationController_static_64:ScScene.obj
 0001:00004380       ?deactivateSoftbodySelfCollision@PxsSimulationController@physx@@UEAAXPEAVSoftBody@Dy@2@@Z 0000000180005380 f i SimulationController_static_64:ScScene.obj
 0001:00004380       ?destroyInstance@PvdMetaDataBinding@Vd@physx@@QEAAXAEAVPvdDataStream@pvdsdk@3@AEBVPxFEMSoftBodyMaterial@3@AEBVPxPhysics@3@@Z 0000000180005380 f i PvdMetaDataPvdBinding.obj
 0001:00004380       ?destroyInstance@PvdMetaDataBinding@Vd@physx@@QEAAXAEAVPvdDataStream@pvdsdk@3@AEBVPxPBDParticleSystem@3@AEBVPxScene@3@@Z 0000000180005380 f i PvdMetaDataPvdBinding.obj
 0001:00004380       ?destroyInstance@PvdMetaDataBinding@Vd@physx@@QEAAXAEAVPvdDataStream@pvdsdk@3@AEBVPxSoftBody@3@AEBVPxScene@3@@Z 0000000180005380 f i PvdMetaDataPvdBinding.obj
 0001:00004380       ?evaluateSDFDistances@PxsSimulationController@physx@@UEAAXPEBIIPEBV?$PxVec4T@M@2@0IPEAV32@PEAX@Z 0000000180005380 f i SimulationController_static_64:ScScene.obj
 0001:00004380       ?exportData@?$NpParticleSystem@VPxPBDParticleSystem@physx@@@physx@@UEBAXAEAVPxSerializationContext@2@@Z 0000000180005380 f i NpParticleSystem.obj
 0001:00004380       ?exportExtraData@?$PxSerializerDefaultAdapter@VNpArticulationJointReducedCoordinate@physx@@@physx@@UEBAXAEAVPxBase@2@AEAVPxSerializationContext@2@@Z 0000000180005380 f i NpSerializerAdapter.obj
 0001:00004380       ?exportExtraData@?$PxSerializerDefaultAdapter@VNpConstraint@physx@@@physx@@UEBAXAEAVPxBase@2@AEAVPxSerializationContext@2@@Z 0000000180005380 f i NpSerializerAdapter.obj
 0001:00004380       ?exportExtraData@?$PxSerializerDefaultAdapter@VNpMaterial@physx@@@physx@@UEBAXAEAVPxBase@2@AEAVPxSerializationContext@2@@Z 0000000180005380 f i NpSerializerAdapter.obj
 0001:00004380       ?exportExtraData@NpArticulationSensor@physx@@UEAAXAEAVPxSerializationContext@2@@Z 0000000180005380 f i NpArticulationSensor.obj
 0001:00004380       ?fetchBroadPhaseResults@BroadPhaseABP@Bp@physx@@UEAAXXZ 0000000180005380 f i LowLevelAABB_static_64:BpBroadPhaseABP.obj
 0001:00004380       ?fetchBroadPhaseResults@BroadPhaseMBP@Bp@physx@@UEAAXXZ 0000000180005380 f i LowLevelAABB_static_64:BpBroadPhaseMBP.obj
 0001:00004380       ?fetchBroadPhaseResults@BroadPhaseSap@Bp@physx@@UEAAXXZ 0000000180005380 f i LowLevelAABB_static_64:BpBroadPhaseSap.obj
 0001:00004380       ?fetchUpdateContactManager@PxsNphaseImplementationContext@physx@@UEAAXXZ 0000000180005380 f i LowLevel_static_64:PxsNphaseImplementationContext.obj
 0001:00004380       ?finalizeQuery@?$PxHitCallback@UPxOverlapHit@physx@@@physx@@UEAAXXZ 0000000180005380 f i SceneQuery_static_64:SqQuery.obj
 0001:00004380       ?finalizeQuery@?$PxHitCallback@UPxRaycastHit@physx@@@physx@@UEAAXXZ 0000000180005380 f i SceneQuery_static_64:SqQuery.obj
 0001:00004380       ?finalizeQuery@?$PxHitCallback@UPxSweepHit@physx@@@physx@@UEAAXXZ 0000000180005380 f i SceneQuery_static_64:SqQuery.obj
 0001:00004380       ?flush@PvdPhysicsClient@Vd@physx@@UEAAXXZ 0000000180005380 f i PvdPhysicsClient.obj
 0001:00004380       ?flush@PvdSceneClient@Vd@physx@@UEAAXXZ 0000000180005380 f i NpPvdSceneClient.obj
 0001:00004380       ?flush@PxsSimulationController@physx@@UEAAXXZ 0000000180005380 f i SimulationController_static_64:ScScene.obj
 0001:00004380       ?flushInsertions@PxsSimulationController@physx@@UEAAXXZ 0000000180005380 f i SimulationController_static_64:ScScene.obj
 0001:00004380       ?getDataStreamBase@Context@Dy@physx@@UEAAXAEAPEAX00@Z 0000000180005380 f i LowLevelDynamics_static_64:DyTGSDynamics.obj
 0001:00004380       ?gpuDmabackData@PxsSimulationController@physx@@UEAAXAEAVPxsTransformCache@2@AEAVBoundsArray@Bp@2@AEAV?$PxBitMapBase@VPxVirtualAllocator@physx@@@2@_N@Z 0000000180005380 f i SimulationController_static_64:ScScene.obj
 0001:00004380       ?internalWakeUp@ActorSim@Sc@physx@@UEAAXM@Z 0000000180005380 f i SimulationController_static_64:ScScene.obj
 0001:00004380       ?mergeChangedAABBMgHandle@PxsSimulationController@physx@@UEAAXI_N@Z 0000000180005380 f i SimulationController_static_64:ScScene.obj
 0001:00004380       ?mergeResults@DynamicsTGSContext@Dy@physx@@UEAAXXZ 0000000180005380 f i LowLevelDynamics_static_64:DyTGSDynamics.obj
 0001:00004380       ?onMeshFactoryBufferRelease@OmniPvdListener@NpPhysics@physx@@UEAAXPEBVPxBase@3@G@Z 0000000180005380 f i NpPhysics.obj
 0001:00004380       ?onObjectAdd@MeshFactoryListener@Gu@physx@@UEAAXPEBVPxBase@3@@Z 0000000180005380 f i PvdPhysicsClient.obj
 0001:00004380       ?onObjectRemove@MeshFactoryListener@Gu@physx@@UEAAXPEBVPxBase@3@@Z 0000000180005380 f i PvdPhysicsClient.obj
 0001:00004380       ?postActorFlagChange@ActorSim@Sc@physx@@UEAAXII@Z 0000000180005380 f i SimulationController_static_64:ScScene.obj
 0001:00004380       ?postBroadPhaseUpdateContactManager@PxsNphaseImplementationContext@physx@@UEAAXPEAVPxBaseTask@2@@Z 0000000180005380 f i LowLevel_static_64:PxsNphaseImplementationContext.obj
 0001:00004380       ?preBroadPhase@BroadPhaseABP@Bp@physx@@UEAAXAEBVBroadPhaseUpdateData@23@@Z 0000000180005380 f i LowLevelAABB_static_64:BpBroadPhaseABP.obj
 0001:00004380       ?preBroadPhase@BroadPhaseMBP@Bp@physx@@UEAAXAEBVBroadPhaseUpdateData@23@@Z 0000000180005380 f i LowLevelAABB_static_64:BpBroadPhaseMBP.obj
 0001:00004380       ?preBroadPhase@BroadPhaseSap@Bp@physx@@UEAAXAEBVBroadPhaseUpdateData@23@@Z 0000000180005380 f i LowLevelAABB_static_64:BpBroadPhaseSap.obj
 0001:00004380       ?preExportDataReset@NpShapeManager@physx@@QEAAXXZ 0000000180005380 f i NpShapeManager.obj
 0001:00004380       ?preIntegrateAndUpdateBound@PxsSimulationController@physx@@UEAAXPEAVPxBaseTask@2@V?$PxVec3T@M@2@M@Z 0000000180005380 f i SimulationController_static_64:ScScene.obj
 0001:00004380       ?preallocateNewBuffers@PxsNphaseImplementationContext@physx@@UEAAXII@Z 0000000180005380 f i LowLevel_static_64:PxsNphaseImplementationContext.obj
 0001:00004380       ?processFoundPatches@Context@Dy@physx@@UEAAXAEAVSimpleIslandManager@IG@3@PEAPEAVPxsContactManager@3@IPEAUPxsContactManagerOutputCounts@3@@Z 0000000180005380 f i LowLevelDynamics_static_64:DyTGSDynamics.obj
 0001:00004380       ?processLostPatches@Context@Dy@physx@@UEAAXAEAVSimpleIslandManager@IG@3@PEAPEAVPxsContactManager@3@IPEAUPxsContactManagerOutputCounts@3@@Z 0000000180005380 f i LowLevelDynamics_static_64:DyTGSDynamics.obj
 0001:00004380       ?registerAggregate@PxsNphaseImplementationContext@physx@@UEAAXI@Z 0000000180005380 f i LowLevel_static_64:PxsNphaseImplementationContext.obj
 0001:00004380       ?registerCountedInteraction@ActorSim@Sc@physx@@UEAAXXZ 0000000180005380 f i SimulationController_static_64:ScScene.obj
 0001:00004380       ?registerMaterial@PxsNphaseImplementationContext@physx@@UEAAXAEBV?$MaterialCoreT@UPxsFEMClothMaterialData@physx@@VPxFEMClothMaterial@2@@2@@Z 0000000180005380 f i LowLevel_static_64:PxsNphaseImplementationContext.obj
 0001:00004380       ?registerMaterial@PxsNphaseImplementationContext@physx@@UEAAXAEBV?$MaterialCoreT@UPxsFEMSoftBodyMaterialData@physx@@VPxFEMSoftBodyMaterial@2@@2@@Z 0000000180005380 f i LowLevel_static_64:PxsNphaseImplementationContext.obj
 0001:00004380       ?registerMaterial@PxsNphaseImplementationContext@physx@@UEAAXAEBV?$MaterialCoreT@UPxsFLIPMaterialData@physx@@VPxFLIPMaterial@2@@2@@Z 0000000180005380 f i LowLevel_static_64:PxsNphaseImplementationContext.obj
 0001:00004380       ?registerMaterial@PxsNphaseImplementationContext@physx@@UEAAXAEBV?$MaterialCoreT@UPxsMPMMaterialData@physx@@VPxMPMMaterial@2@@2@@Z 0000000180005380 f i LowLevel_static_64:PxsNphaseImplementationContext.obj
 0001:00004380       ?registerMaterial@PxsNphaseImplementationContext@physx@@UEAAXAEBV?$MaterialCoreT@UPxsMaterialData@physx@@VPxMaterial@2@@2@@Z 0000000180005380 f i LowLevel_static_64:PxsNphaseImplementationContext.obj
 0001:00004380       ?registerMaterial@PxsNphaseImplementationContext@physx@@UEAAXAEBV?$MaterialCoreT@UPxsPBDMaterialData@physx@@VPxPBDMaterial@2@@2@@Z 0000000180005380 f i LowLevel_static_64:PxsNphaseImplementationContext.obj
 0001:00004380       ?registerShape@PxsNphaseImplementationContext@physx@@UEAAXAEBVPxNodeIndex@2@AEBUPxsShapeCore@2@IPEAVPxActor@2@_N@Z 0000000180005380 f i LowLevel_static_64:PxsNphaseImplementationContext.obj
 0001:00004380       ?reinsertShape@PxsSimulationController@physx@@UEAAXPEAUPxsShapeSim@2@I@Z 0000000180005380 f i SimulationController_static_64:ScScene.obj
 0001:00004380       ?releaseArticulation@PxsSimulationController@physx@@UEAAXPEAVFeatherstoneArticulation@Dy@2@AEBVPxNodeIndex@2@@Z 0000000180005380 f i SimulationController_static_64:ScScene.obj
 0001:00004380       ?releaseContext@PxsNphaseImplementationContext@physx@@UEAAXXZ 0000000180005380 f i LowLevel_static_64:PxsNphaseImplementationContext.obj
 0001:00004380       ?releaseDeferredAggregateIds@AABBManager@Bp@physx@@UEAAXXZ 0000000180005380 f i LowLevelAABB_static_64:BpAABBManager.obj
 0001:00004380       ?releaseDeferredArticulationIds@PxsSimulationController@physx@@UEAAXXZ 0000000180005380 f i SimulationController_static_64:ScScene.obj
 0001:00004380       ?releaseDeferredFEMClothIds@PxsSimulationController@physx@@UEAAXXZ 0000000180005380 f i SimulationController_static_64:ScScene.obj
 0001:00004380       ?releaseDeferredHairSystemIds@PxsSimulationController@physx@@UEAAXXZ 0000000180005380 f i SimulationController_static_64:ScScene.obj
 0001:00004380       ?releaseDeferredParticleSystemIds@PxsSimulationController@physx@@UEAAXXZ 0000000180005380 f i SimulationController_static_64:ScScene.obj
 0001:00004380       ?releaseDeferredSoftBodyIds@PxsSimulationController@physx@@UEAAXXZ 0000000180005380 f i SimulationController_static_64:ScScene.obj
 0001:00004380       ?releaseFEMCloth@PxsSimulationController@physx@@UEAAXPEAVFEMCloth@Dy@2@@Z 0000000180005380 f i SimulationController_static_64:ScScene.obj
 0001:00004380       ?releaseHairSystem@PxsSimulationController@physx@@UEAAXPEAVHairSystem@Dy@2@@Z 0000000180005380 f i SimulationController_static_64:ScScene.obj
 0001:00004380       ?releaseParticleSystem@PxsSimulationController@physx@@UEAAXPEAVParticleSystem@Dy@2@W4Enum@PxParticleSolverType@2@@Z 0000000180005380 f i SimulationController_static_64:ScScene.obj
 0001:00004380       ?releasePvdInstance@PvdSceneClient@Vd@physx@@QEAAXPEBV?$MaterialCoreT@UPxsPBDMaterialData@physx@@VPxPBDMaterial@2@@3@@Z 0000000180005380 f i NpPvdSceneClient.obj
 0001:00004380       ?releasePvdInstance@PvdSceneClient@Vd@physx@@QEAAXPEBVNpArticulationFixedTendon@3@@Z 0000000180005380 f i NpPvdSceneClient.obj
 0001:00004380       ?releasePvdInstance@PvdSceneClient@Vd@physx@@QEAAXPEBVNpArticulationJointReducedCoordinate@3@@Z 0000000180005380 f i NpPvdSceneClient.obj
 0001:00004380       ?releasePvdInstance@PvdSceneClient@Vd@physx@@QEAAXPEBVNpArticulationSensor@3@@Z 0000000180005380 f i NpPvdSceneClient.obj
 0001:00004380       ?releasePvdInstance@PvdSceneClient@Vd@physx@@QEAAXPEBVNpArticulationSpatialTendon@3@@Z 0000000180005380 f i NpPvdSceneClient.obj
 0001:00004380       ?releasePvdInstance@PvdSceneClient@Vd@physx@@QEAAXPEBVNpPBDParticleSystem@3@@Z 0000000180005380 f i NpPvdSceneClient.obj
 0001:00004380       ?releasePvdInstance@PvdSceneClient@Vd@physx@@QEAAXPEBVNpSoftBody@3@@Z 0000000180005380 f i NpPvdSceneClient.obj
 0001:00004380       ?releaseSoftBody@PxsSimulationController@physx@@UEAAXPEAVSoftBody@Dy@2@@Z 0000000180005380 f i SimulationController_static_64:ScScene.obj
 0001:00004380       ?removeClothAttachment@NpSoftBody@physx@@UEAAXPEAVPxFEMCloth@2@I@Z 0000000180005380 f i NpSoftBody.obj
 0001:00004380       ?removeClothAttachment@PxsSimulationController@physx@@UEAAXPEAVSoftBody@Dy@2@I@Z 0000000180005380 f i SimulationController_static_64:ScScene.obj
 0001:00004380       ?removeClothFilter@NpSoftBody@physx@@UEAAXPEAVPxFEMCloth@2@II@Z 0000000180005380 f i NpSoftBody.obj
 0001:00004380       ?removeClothFilter@PxsSimulationController@physx@@UEAAXPEAVFEMCloth@Dy@2@0II@Z 0000000180005380 f i SimulationController_static_64:ScScene.obj
 0001:00004380       ?removeClothFilter@PxsSimulationController@physx@@UEAAXPEAVSoftBody@Dy@2@PEAVFEMCloth@42@II@Z 0000000180005380 f i SimulationController_static_64:ScScene.obj
 0001:00004380       ?removeJoint@PxsSimulationController@physx@@UEAAXIPEAUConstraint@Dy@2@AEAV?$PxArray@IV?$PxReflectionAllocator@I@physx@@@2@AEAVIslandSim@IG@2@@Z 0000000180005380 f i SimulationController_static_64:ScScene.obj
 0001:00004380       ?removeParticleAttachment@PxsSimulationController@physx@@UEAAXPEAVSoftBody@Dy@2@I@Z 0000000180005380 f i SimulationController_static_64:ScScene.obj
 0001:00004380       ?removeParticleFilter@PxsSimulationController@physx@@UEAAXPEAVSoftBody@Dy@2@PEBVParticleSystem@42@III@Z 0000000180005380 f i SimulationController_static_64:ScScene.obj
 0001:00004380       ?removeRigidAttachment@PxsSimulationController@physx@@UEAAXPEAVFEMCloth@Dy@2@I@Z 0000000180005380 f i SimulationController_static_64:ScScene.obj
 0001:00004380       ?removeRigidAttachment@PxsSimulationController@physx@@UEAAXPEAVSoftBody@Dy@2@I@Z 0000000180005380 f i SimulationController_static_64:ScScene.obj
 0001:00004380       ?removeRigidFilter@PxsSimulationController@physx@@UEAAXPEAVFEMCloth@Dy@2@AEBVPxNodeIndex@2@I@Z 0000000180005380 f i SimulationController_static_64:ScScene.obj
 0001:00004380       ?removeRigidFilter@PxsSimulationController@physx@@UEAAXPEAVSoftBody@Dy@2@AEBVPxNodeIndex@2@I@Z 0000000180005380 f i SimulationController_static_64:ScScene.obj
 0001:00004380       ?removeShape@PxsSimulationController@physx@@UEAAXI@Z 0000000180005380 f i SimulationController_static_64:ScScene.obj
 0001:00004380       ?removeSoftBodyAttachment@PxsSimulationController@physx@@UEAAXPEAVSoftBody@Dy@2@I@Z 0000000180005380 f i SimulationController_static_64:ScScene.obj
 0001:00004380       ?removeSoftBodyFilter@PxsSimulationController@physx@@UEAAXPEAVSoftBody@Dy@2@0II@Z 0000000180005380 f i SimulationController_static_64:ScScene.obj
 0001:00004380       ?removeSoftBodyFilters@PxsSimulationController@physx@@UEAAXPEAVSoftBody@Dy@2@0PEAI1I@Z 0000000180005380 f i SimulationController_static_64:ScScene.obj
 0001:00004380       ?removeTetRigidFilter@PxsSimulationController@physx@@UEAAXPEAVSoftBody@Dy@2@AEBVPxNodeIndex@2@I@Z 0000000180005380 f i SimulationController_static_64:ScScene.obj
 0001:00004380       ?removeTriClothAttachment@PxsSimulationController@physx@@UEAAXPEAVFEMCloth@Dy@2@I@Z 0000000180005380 f i SimulationController_static_64:ScScene.obj
 0001:00004380       ?removeTriRigidAttachment@PxsSimulationController@physx@@UEAAXPEAVFEMCloth@Dy@2@I@Z 0000000180005380 f i SimulationController_static_64:ScScene.obj
 0001:00004380       ?removeTriRigidFilter@PxsSimulationController@physx@@UEAAXPEAVFEMCloth@Dy@2@AEBVPxNodeIndex@2@I@Z 0000000180005380 f i SimulationController_static_64:ScScene.obj
 0001:00004380       ?requiresObjects@NpArticulationJointReducedCoordinate@physx@@UEAAXAEAVPxProcessPxBaseCallback@2@@Z 0000000180005380 f i NpArticulationJointReducedCoordinate.obj
 0001:00004380       ?requiresObjects@NpArticulationSensor@physx@@UEAAXAEAVPxProcessPxBaseCallback@2@@Z 0000000180005380 f i NpArticulationSensor.obj
 0001:00004380       ?requiresObjects@NpConstraint@physx@@UEAAXAEAVPxProcessPxBaseCallback@2@@Z 0000000180005380 f i NpConstraint.obj
 0001:00004380       ?requiresObjects@NpFEMSoftBodyMaterial@physx@@UEAAXAEAVPxProcessPxBaseCallback@2@@Z 0000000180005380 f i NpFEMSoftBodyMaterial.obj
 0001:00004380       ?requiresObjects@NpMaterial@physx@@UEAAXAEAVPxProcessPxBaseCallback@2@@Z 0000000180005380 f i NpMaterial.obj
 0001:00004380       ?requiresObjects@NpPBDMaterial@physx@@UEAAXAEAVPxProcessPxBaseCallback@2@@Z 0000000180005380 f i NpPBDMaterial.obj
 0001:00004380       ?reserve@PxsSimulationController@physx@@UEAAXI@Z 0000000180005380 f i SimulationController_static_64:ScScene.obj
 0001:00004380       ?run@PvdCommand@PvdInstanceDataStream@pvdsdk@physx@@UEAAXAEAV234@@Z 0000000180005380 f i PvdMetaDataPvdBinding.obj
 0001:00004380       ?runInternal@FanoutTask@Cm@physx@@UEAAXXZ 0000000180005380 f i SimulationController_static_64:ScScene.obj
 0001:00004380       ?runInternal@SceneCompletion@NpScene@physx@@UEAAXXZ 0000000180005380 f i NpScene.obj
 0001:00004380       ?sendAllProperties@PvdMetaDataBinding@Vd@physx@@QEAAXAEAVPvdDataStream@pvdsdk@3@AEBVPxFEMSoftBodyMaterial@3@@Z 0000000180005380 f i PvdMetaDataPvdBinding.obj
 0001:00004380       ?sendAllProperties@PvdMetaDataBinding@Vd@physx@@QEAAXAEAVPvdDataStream@pvdsdk@3@AEBVPxPBDParticleSystem@3@@Z 0000000180005380 f i PvdMetaDataPvdBinding.obj
 0001:00004380       ?sendAllProperties@PvdMetaDataBinding@Vd@physx@@QEAAXAEAVPvdDataStream@pvdsdk@3@AEBVPxSoftBody@3@@Z 0000000180005380 f i PvdMetaDataPvdBinding.obj
 0001:00004380       ?serialize@EndPropertyMessageGroup@pvdsdk@physx@@UEAAXAEAVPvdEventSerializer@23@@Z 0000000180005380 f i PhysXPvdSDK_static_64:PxPvdDataStream.obj
 0001:00004380       ?serialize@EndSetPropertyValue@pvdsdk@physx@@UEAAXAEAVPvdEventSerializer@23@@Z 0000000180005380 f i PhysXPvdSDK_static_64:PxPvdDataStream.obj
 0001:00004380       ?setBounds@PxsSimulationController@physx@@UEAAXPEAVBoundsArray@Bp@2@@Z 0000000180005380 f i SimulationController_static_64:ScScene.obj
 0001:00004380       ?setClothMaterials@NpShape@physx@@UEAAXPEBQEAVPxFEMClothMaterial@2@G@Z 0000000180005380 f i NpShape.obj
 0001:00004380       ?setClothWakeCounter@PxsSimulationController@physx@@UEAAXPEAVFEMCloth@Dy@2@@Z 0000000180005380 f i SimulationController_static_64:ScScene.obj
 0001:00004380       ?setGPUStateChanged@AABBManagerBase@Bp@physx@@UEAAXXZ 0000000180005380 f i LowLevelAABB_static_64:BpAABBManagerBase.obj
 0001:00004380       ?setGlobalPose@NpArticulationLink@physx@@UEAAXAEBV?$PxTransformT@M@2@_N@Z 0000000180005380 f i NpArticulationLink.obj
 0001:00004380       ?setHairSystemWakeCounter@PxsSimulationController@physx@@UEAAXPEAVHairSystem@Dy@2@@Z 0000000180005380 f i SimulationController_static_64:ScScene.obj
 0001:00004380       ?setPersistentStateChanged@AABBManagerBase@Bp@physx@@UEAAXXZ 0000000180005380 f i LowLevelAABB_static_64:BpAABBManagerBase.obj
 0001:00004380       ?setSoftBodyWakeCounter@PxsSimulationController@physx@@UEAAXPEAVSoftBody@Dy@2@@Z 0000000180005380 f i SimulationController_static_64:ScScene.obj
 0001:00004380       ?shiftOrigin@BroadPhaseABP@Bp@physx@@UEAAXAEBV?$PxVec3T@M@3@PEBVPxBounds3@3@PEBM@Z 0000000180005380 f i LowLevelAABB_static_64:BpBroadPhaseABP.obj
 0001:00004380       ?sortContacts@PxsSimulationController@physx@@UEAAXXZ 0000000180005380 f i SimulationController_static_64:ScScene.obj
 0001:00004380       ?startNarrowPhaseTasks@PxsNphaseImplementationContext@physx@@UEAAXXZ 0000000180005380 f i LowLevel_static_64:PxsNphaseImplementationContext.obj
 0001:00004380       ?stopSimulation@PxTaskMgr@physx@@UEAAXXZ 0000000180005380 f i PhysXTask_static_64:TaskManager.obj
 0001:00004380       ?streamShapeMaterials@@YAXPEAVPxShape@physx@@PEBQEAVPxFEMSoftBodyMaterial@2@I@Z 0000000180005380 f i OmniPvdPxSampler.obj
 0001:00004380       ?switchFromNoSim@?$NpRigidActorTemplate@VPxArticulationLink@physx@@@physx@@UEAAXXZ 0000000180005380 f i NpArticulationLink.obj
 0001:00004380       ?switchFromNoSim@?$NpRigidActorTemplate@VPxRigidDynamic@physx@@@physx@@UEAAXXZ 0000000180005380 f i NpRigidDynamic.obj
 0001:00004380       ?switchFromNoSim@?$NpRigidActorTemplate@VPxRigidStatic@physx@@@physx@@UEAAXXZ 0000000180005380 f i NpRigidStatic.obj
 0001:00004380       ?switchToNoSim@?$NpRigidActorTemplate@VPxArticulationLink@physx@@@physx@@UEAAXXZ 0000000180005380 f i NpArticulationLink.obj
 0001:00004380       ?switchToNoSim@?$NpRigidActorTemplate@VPxRigidDynamic@physx@@@physx@@UEAAXXZ 0000000180005380 f i NpRigidDynamic.obj
 0001:00004380       ?switchToNoSim@?$NpRigidActorTemplate@VPxRigidStatic@physx@@@physx@@UEAAXXZ 0000000180005380 f i NpRigidStatic.obj
 0001:00004380       ?syncParticleData@PxsSimulationController@physx@@UEAAXXZ 0000000180005380 f i SimulationController_static_64:ScScene.obj
 0001:00004380       ?unregisterCountedInteraction@ActorSim@Sc@physx@@UEAAXXZ 0000000180005380 f i SimulationController_static_64:ScScene.obj
 0001:00004380       ?unregisterMaterial@PxsNphaseImplementationContext@physx@@UEAAXAEBV?$MaterialCoreT@UPxsFEMClothMaterialData@physx@@VPxFEMClothMaterial@2@@2@@Z 0000000180005380 f i LowLevel_static_64:PxsNphaseImplementationContext.obj
 0001:00004380       ?unregisterMaterial@PxsNphaseImplementationContext@physx@@UEAAXAEBV?$MaterialCoreT@UPxsFEMSoftBodyMaterialData@physx@@VPxFEMSoftBodyMaterial@2@@2@@Z 0000000180005380 f i LowLevel_static_64:PxsNphaseImplementationContext.obj
 0001:00004380       ?unregisterMaterial@PxsNphaseImplementationContext@physx@@UEAAXAEBV?$MaterialCoreT@UPxsFLIPMaterialData@physx@@VPxFLIPMaterial@2@@2@@Z 0000000180005380 f i LowLevel_static_64:PxsNphaseImplementationContext.obj
 0001:00004380       ?unregisterMaterial@PxsNphaseImplementationContext@physx@@UEAAXAEBV?$MaterialCoreT@UPxsMPMMaterialData@physx@@VPxMPMMaterial@2@@2@@Z 0000000180005380 f i LowLevel_static_64:PxsNphaseImplementationContext.obj
 0001:00004380       ?unregisterMaterial@PxsNphaseImplementationContext@physx@@UEAAXAEBV?$MaterialCoreT@UPxsMaterialData@physx@@VPxMaterial@2@@2@@Z 0000000180005380 f i LowLevel_static_64:PxsNphaseImplementationContext.obj
 0001:00004380       ?unregisterMaterial@PxsNphaseImplementationContext@physx@@UEAAXAEBV?$MaterialCoreT@UPxsPBDMaterialData@physx@@VPxPBDMaterial@2@@2@@Z 0000000180005380 f i LowLevel_static_64:PxsNphaseImplementationContext.obj
 0001:00004380       ?unregisterShape@PxsNphaseImplementationContext@physx@@UEAAXAEBUPxsShapeCore@2@I_N@Z 0000000180005380 f i LowLevel_static_64:PxsNphaseImplementationContext.obj
 0001:00004380       ?update@PxsSimulationController@physx@@UEAAXAEAV?$PxBitMapBase@VPxVirtualAllocator@physx@@@2@@Z 0000000180005380 f i SimulationController_static_64:ScScene.obj
 0001:00004380       ?updateArticulation@PxsSimulationController@physx@@UEAAXPEAVFeatherstoneArticulation@Dy@2@AEBVPxNodeIndex@2@@Z 0000000180005380 f i SimulationController_static_64:ScScene.obj
 0001:00004380       ?updateArticulationAfterIntegration@PxsSimulationController@physx@@UEAAXPEAVPxsContext@2@PEAVAABBManagerBase@Bp@2@AEAV?$PxArray@PEAVBodySim@Sc@physx@@V?$PxReflectionAllocator@PEAVBodySim@Sc@physx@@@3@@2@PEAVPxBaseTask@2@AEAVIslandSim@IG@2@M@Z 0000000180005380 f i SimulationController_static_64:ScScene.obj
 0001:00004380       ?updateArticulationExtAccel@PxsSimulationController@physx@@UEAAXPEAVFeatherstoneArticulation@Dy@2@AEBVPxNodeIndex@2@@Z 0000000180005380 f i SimulationController_static_64:ScScene.obj
 0001:00004380       ?updateArticulationJoint@PxsSimulationController@physx@@UEAAXPEAVFeatherstoneArticulation@Dy@2@AEBVPxNodeIndex@2@@Z 0000000180005380 f i SimulationController_static_64:ScScene.obj
 0001:00004380       ?updateBodies@PxsSimulationController@physx@@UEAAXPEAPEAVPxsRigidBody@2@PEAII@Z 0000000180005380 f i SimulationController_static_64:ScScene.obj
 0001:00004380       ?updateBodies@PxsSimulationController@physx@@UEAAXPEAVPxBaseTask@2@@Z 0000000180005380 f i SimulationController_static_64:ScScene.obj
 0001:00004380       ?updateBodyCore@Context@Dy@physx@@UEAAXPEAVPxBaseTask@3@@Z 0000000180005380 f i LowLevelDynamics_static_64:DyTGSDynamics.obj
 0001:00004380       ?updateBoundsAndShapes@PxsSimulationController@physx@@UEAAXAEAVAABBManagerBase@Bp@2@_N1@Z 0000000180005380 f i SimulationController_static_64:ScScene.obj
 0001:00004380       ?updateDynamic@PxsSimulationController@physx@@UEAAXPEAVFeatherstoneArticulation@Dy@2@AEBVPxNodeIndex@2@@Z 0000000180005380 f i SimulationController_static_64:ScScene.obj
 0001:00004380       ?updateJoint@PxsSimulationController@physx@@UEAAXIPEAUConstraint@Dy@2@@Z 0000000180005380 f i SimulationController_static_64:ScScene.obj
 0001:00004380       ?updateMaterial@PxsNphaseImplementationContext@physx@@UEAAXAEBV?$MaterialCoreT@UPxsFEMClothMaterialData@physx@@VPxFEMClothMaterial@2@@2@@Z 0000000180005380 f i LowLevel_static_64:PxsNphaseImplementationContext.obj
 0001:00004380       ?updateMaterial@PxsNphaseImplementationContext@physx@@UEAAXAEBV?$MaterialCoreT@UPxsFEMSoftBodyMaterialData@physx@@VPxFEMSoftBodyMaterial@2@@2@@Z 0000000180005380 f i LowLevel_static_64:PxsNphaseImplementationContext.obj
 0001:00004380       ?updateMaterial@PxsNphaseImplementationContext@physx@@UEAAXAEBV?$MaterialCoreT@UPxsFLIPMaterialData@physx@@VPxFLIPMaterial@2@@2@@Z 0000000180005380 f i LowLevel_static_64:PxsNphaseImplementationContext.obj
 0001:00004380       ?updateMaterial@PxsNphaseImplementationContext@physx@@UEAAXAEBV?$MaterialCoreT@UPxsMPMMaterialData@physx@@VPxMPMMaterial@2@@2@@Z 0000000180005380 f i LowLevel_static_64:PxsNphaseImplementationContext.obj
 0001:00004380       ?updateMaterial@PxsNphaseImplementationContext@physx@@UEAAXAEBV?$MaterialCoreT@UPxsMaterialData@physx@@VPxMaterial@2@@2@@Z 0000000180005380 f i LowLevel_static_64:PxsNphaseImplementationContext.obj
 0001:00004380       ?updateMaterial@PxsNphaseImplementationContext@physx@@UEAAXAEBV?$MaterialCoreT@UPxsPBDMaterialData@physx@@VPxPBDMaterial@2@@2@@Z 0000000180005380 f i LowLevel_static_64:PxsNphaseImplementationContext.obj
 0001:00004380       ?updateParticleSystemsAndSoftBodies@PxsSimulationController@physx@@UEAAXXZ 0000000180005380 f i SimulationController_static_64:ScScene.obj
 0001:00004380       ?updatePvdProperties@PvdSceneClient@Vd@physx@@QEAAXPEBV?$MaterialCoreT@UPxsPBDMaterialData@physx@@VPxPBDMaterial@2@@3@@Z 0000000180005380 f i NpPvdSceneClient.obj
 0001:00004380       ?updatePvdProperties@PvdSceneClient@Vd@physx@@QEAAXPEBVNpArticulationFixedTendon@3@@Z 0000000180005380 f i NpPvdSceneClient.obj
 0001:00004380       ?updatePvdProperties@PvdSceneClient@Vd@physx@@QEAAXPEBVNpArticulationSpatialTendon@3@@Z 0000000180005380 f i NpPvdSceneClient.obj
 0001:00004380       ?updatePvdProperties@PvdSceneClient@Vd@physx@@QEAAXPEBVNpSoftBody@3@@Z 0000000180005380 f i NpPvdSceneClient.obj
 0001:00004380       ?updateShape@PxsSimulationController@physx@@UEAAXAEAUPxsShapeSim@2@AEBVPxNodeIndex@2@@Z 0000000180005380 f i SimulationController_static_64:ScScene.obj
 0001:00004380       ?updateShapeMaterial@PxsNphaseImplementationContext@physx@@UEAAXAEBUPxsShapeCore@2@@Z 0000000180005380 f i LowLevel_static_64:PxsNphaseImplementationContext.obj
 0001:00004380       ?updateShapes@PxsSimulationController@physx@@UEAAXPEAVPxBaseTask@2@@Z 0000000180005380 f i SimulationController_static_64:ScScene.obj
 0001:00004380       ?visualize@BasePruner@Gu@physx@@UEBAXAEAVPxRenderOutput@3@II@Z 0000000180005380 f i SceneQuery_static_64:SqCompoundPruner.obj
 0001:00004380       _guard_check_icall_nop     0000000180005380 f i LIBCMT:guard_support.obj
 0001:00004390       ?addSharedMeshIfNotSeen@OmniPvdSamplerInternals@@QEAA_NPEBXW4OmniPvdSharedMeshEnum@@@Z 0000000180005390 f   OmniPvdPxSampler.obj
 0001:000044b0       ?create@?$PxHashBase@V?$PxPair@QEAVNpScene@physx@@PEAVOmniPvdPxScene@@@physx@@PEAVNpScene@2@U?$PxHash@PEAVNpScene@physx@@@2@UGetKey@?$PxHashMapBase@PEAVNpScene@physx@@PEAVOmniPvdPxScene@@U?$PxHash@PEAVNpScene@physx@@@2@VPxAllocator@2@@2@VPxAllocator@2@$00@physx@@QEAAPEAV?$PxPair@QEAVNpScene@physx@@PEAVOmniPvdPxScene@@@2@AEBQEAVNpScene@2@AEA_N@Z 00000001800054b0 f i OmniPvdPxSampler.obj
 0001:000044b0       ?create@?$PxHashBase@V?$PxPair@QEAVPxDeletionListener@physx@@PEAUNpDelListenerEntry@NpPhysics@2@@physx@@PEAVPxDeletionListener@2@U?$PxHash@PEAVPxDeletionListener@physx@@@2@UGetKey@?$PxHashMapBase@PEAVPxDeletionListener@physx@@PEAUNpDelListenerEntry@NpPhysics@2@U?$PxHash@PEAVPxDeletionListener@physx@@@2@VPxAllocator@2@@2@VPxAllocator@2@$00@physx@@QEAAPEAV?$PxPair@QEAVPxDeletionListener@physx@@PEAUNpDelListenerEntry@NpPhysics@2@@2@AEBQEAVPxDeletionListener@2@AEA_N@Z 00000001800054b0 f i NpPhysics.obj
 0001:000044b0       ?create@?$PxHashBase@V?$PxPair@QEBVPxShape@physx@@PEAV?$PxHashSet@PEBVPxRigidActor@physx@@U?$PxHash@PEBVPxRigidActor@physx@@@2@VPxAllocator@2@@2@@physx@@PEBVPxShape@2@U?$PxHash@PEBVPxShape@physx@@@2@UGetKey@?$PxHashMapBase@PEBVPxShape@physx@@PEAV?$PxHashSet@PEBVPxRigidActor@physx@@U?$PxHash@PEBVPxRigidActor@physx@@@2@VPxAllocator@2@@2@U?$PxHash@PEBVPxShape@physx@@@2@VPxAllocator@2@@2@VPxAllocator@2@$00@physx@@QEAAPEAV?$PxPair@QEBVPxShape@physx@@PEAV?$PxHashSet@PEBVPxRigidActor@physx@@U?$PxHash@PEBVPxRigidActor@physx@@@2@VPxAllocator@2@@2@@2@AEBQEBVPxShape@2@AEA_N@Z 00000001800054b0 f i PvdMetaDataPvdBinding.obj
 0001:00004640       ?create@?$PxHashBase@V?$PxPair@QEBXW4OmniPvdSharedMeshEnum@@@physx@@PEBXU?$PxHash@PEBX@2@UGetKey@?$PxHashMapBase@PEBXW4OmniPvdSharedMeshEnum@@U?$PxHash@PEBX@physx@@VPxAllocator@3@@2@VPxAllocator@2@$00@physx@@QEAAPEAV?$PxPair@QEBXW4OmniPvdSharedMeshEnum@@@2@AEBQEBXAEA_N@Z 0000000180005640 f i OmniPvdPxSampler.obj
 0001:000047d0       ?createGeometry@@YAXAEBVPxGeometry@physx@@@Z 00000001800057d0 f   OmniPvdPxSampler.obj
 0001:00004cc0       ?getInstance@OmniPvdPxSampler@@SAPEAV1@XZ 0000000180005cc0 f   OmniPvdPxSampler.obj
 0001:00004ce0       ?getSampledScene@OmniPvdPxSampler@@AEAAPEAVOmniPvdPxScene@@PEAVNpScene@physx@@@Z 0000000180005ce0 f   OmniPvdPxSampler.obj
 0001:00004e70       ?growAndPushBack@?$PxArray@IV?$PxReflectionAllocator@I@physx@@@physx@@IEAAAEAIAEBI@Z 0000000180005e70 f i OmniPvdPxSampler.obj
 0001:00004fa0       ?growAndPushBack@?$PxArray@MV?$PxReflectionAllocator@M@physx@@@physx@@IEAAAEAMAEBM@Z 0000000180005fa0 f i OmniPvdPxSampler.obj
 0001:00005100       ?growAndPushBack@?$PxArray@PEAVPxActor@physx@@V?$PxReflectionAllocator@PEAVPxActor@physx@@@2@@physx@@IEAAAEAPEAVPxActor@2@AEBQEAV32@@Z 0000000180006100 f i OmniPvdPxSampler.obj
 0001:00005230       ?growAndPushBack@?$PxArray@PEAVPxShape@physx@@V?$PxReflectionAllocator@PEAVPxShape@physx@@@2@@physx@@IEAAAEAPEAVPxShape@2@AEBQEAV32@@Z 0000000180006230 f i OmniPvdPxSampler.obj
 0001:00005360       ?growAndPushBack@?$PxArray@V?$PxVec3T@M@physx@@V?$PxReflectionAllocator@V?$PxVec3T@M@physx@@@2@@physx@@IEAAAEAV?$PxVec3T@M@2@AEBV32@@Z 0000000180006360 f i OmniPvdPxSampler.obj
 0001:00005550       ?isSampling@OmniPvdPxSampler@@QEAA_NXZ 0000000180006550 f   OmniPvdPxSampler.obj
 0001:000055a0       ?getPxgDynamicsMemoryConfig_IsValid@@YA_NPEBUPxgDynamicsMemoryConfig@physx@@@Z 00000001800065a0 f i PxAutoGeneratedMetaDataObjects.obj
 0001:000055a0       ?isValid@PxgDynamicsMemoryConfig@physx@@QEBA_NXZ 00000001800065a0 f i OmniPvdPxSampler.obj
 0001:000055c0       ?onObjectAdd@OmniPvdPxSampler@@QEAAXPEBVPxBase@physx@@@Z 00000001800065c0 f   OmniPvdPxSampler.obj
 0001:000060a0       ?onObjectRemove@OmniPvdPxSampler@@QEAAXPEBVPxBase@physx@@@Z 00000001800070a0 f   OmniPvdPxSampler.obj
 0001:00006530       ?registerClasses@OmniPvdStreamContainer@@QEAAXXZ 0000000180007530 f   OmniPvdPxSampler.obj
 0001:00008fb0       ?reserveInternal@?$PxHashBase@V?$PxPair@QEAVNpScene@physx@@PEAVOmniPvdPxScene@@@physx@@PEAVNpScene@2@U?$PxHash@PEAVNpScene@physx@@@2@UGetKey@?$PxHashMapBase@PEAVNpScene@physx@@PEAVOmniPvdPxScene@@U?$PxHash@PEAVNpScene@physx@@@2@VPxAllocator@2@@2@VPxAllocator@2@$00@physx@@AEAAXI@Z 0000000180009fb0 f i OmniPvdPxSampler.obj
 0001:00008fb0       ?reserveInternal@?$PxHashBase@V?$PxPair@QEAVPxDeletionListener@physx@@PEAUNpDelListenerEntry@NpPhysics@2@@physx@@PEAVPxDeletionListener@2@U?$PxHash@PEAVPxDeletionListener@physx@@@2@UGetKey@?$PxHashMapBase@PEAVPxDeletionListener@physx@@PEAUNpDelListenerEntry@NpPhysics@2@U?$PxHash@PEAVPxDeletionListener@physx@@@2@VPxAllocator@2@@2@VPxAllocator@2@$00@physx@@AEAAXI@Z 0000000180009fb0 f i NpPhysics.obj
 0001:00008fb0       ?reserveInternal@?$PxHashBase@V?$PxPair@QEBVPxShape@physx@@PEAV?$PxHashSet@PEBVPxRigidActor@physx@@U?$PxHash@PEBVPxRigidActor@physx@@@2@VPxAllocator@2@@2@@physx@@PEBVPxShape@2@U?$PxHash@PEBVPxShape@physx@@@2@UGetKey@?$PxHashMapBase@PEBVPxShape@physx@@PEAV?$PxHashSet@PEBVPxRigidActor@physx@@U?$PxHash@PEBVPxRigidActor@physx@@@2@VPxAllocator@2@@2@U?$PxHash@PEBVPxShape@physx@@@2@VPxAllocator@2@@2@VPxAllocator@2@$00@physx@@AEAAXI@Z 0000000180009fb0 f i PvdMetaDataPvdBinding.obj
 0001:00009190       ?reserveInternal@?$PxHashBase@V?$PxPair@QEBXW4OmniPvdSharedMeshEnum@@@physx@@PEBXU?$PxHash@PEBX@2@UGetKey@?$PxHashMapBase@PEBXW4OmniPvdSharedMeshEnum@@U?$PxHash@PEBX@physx@@VPxAllocator@3@@2@VPxAllocator@2@$00@physx@@AEAAXI@Z 000000018000a190 f i OmniPvdPxSampler.obj
 0001:00009370       ?sampleScene@OmniPvdPxSampler@@QEAAXPEAVNpScene@physx@@@Z 000000018000a370 f   OmniPvdPxSampler.obj
 0001:00009400       ?setOmniPvdWriter@OmniPvdPxSampler@@QEAAXPEAVOmniPvdWriter@@@Z 000000018000a400 f   OmniPvdPxSampler.obj
 0001:00009410       ?startSampling@OmniPvdPxSampler@@QEAAXXZ 000000018000a410 f   OmniPvdPxSampler.obj
 0001:00009530       ?streamActorName@@YAXAEAVPxActor@physx@@PEBD@Z 000000018000a530 f   OmniPvdPxSampler.obj
 0001:000095a0       ?streamArticulation@@YAXPEBVPxArticulationReducedCoordinate@physx@@@Z 000000018000a5a0 f   OmniPvdPxSampler.obj
 0001:00009a10       ?streamArticulationJoint@@YAXPEBVPxArticulationJointReducedCoordinate@physx@@@Z 000000018000aa10 f   OmniPvdPxSampler.obj
 0001:0000a340       ?streamConvexMesh@@YAXPEBVPxConvexMesh@physx@@@Z 000000018000b340 f   OmniPvdPxSampler.obj
 0001:0000a740       ?streamHeightField@@YAXPEBVPxHeightField@physx@@@Z 000000018000b740 f   OmniPvdPxSampler.obj
 0001:0000ad10       ?streamMaterial@@YAXPEBVPxMaterial@physx@@@Z 000000018000bd10 f   OmniPvdPxSampler.obj
 0001:0000afc0       ?streamRigidActorTForm@@YAXAEBVPxRigidActor@physx@@@Z 000000018000bfc0 f   OmniPvdPxSampler.obj
 0001:0000b090       ?streamRigidDynamic@@YAXPEBVPxRigidDynamic@physx@@@Z 000000018000c090 f   OmniPvdPxSampler.obj
 0001:0000b3e0       ?streamSceneContacts@OmniPvdPxSampler@@QEAAXAEAVNpScene@physx@@@Z 000000018000c3e0 f   OmniPvdPxSampler.obj
 0001:0000bc60       ?streamSceneName@@YAXAEAVPxScene@physx@@PEBD@Z 000000018000cc60 f   OmniPvdPxSampler.obj
 0001:0000bcd0       ?streamShape@@YAXPEBVPxShape@physx@@@Z 000000018000ccd0 f   OmniPvdPxSampler.obj
 0001:0000c1c0       ?streamShapeMaterials@@YAXPEAVPxShape@physx@@PEBQEAVPxMaterial@2@I@Z 000000018000d1c0 f   OmniPvdPxSampler.obj
 0001:0000c220       ?streamTetMesh@@YAXPEBVPxTetrahedronMesh@physx@@@Z 000000018000d220 f   OmniPvdPxSampler.obj
 0001:0000c670       ?streamTriMesh@@YAXPEBVPxTriangleMesh@physx@@@Z 000000018000d670 f   OmniPvdPxSampler.obj
 0001:0000cb20       ??0PvdSceneClient@Vd@physx@@QEAA@AEAVNpScene@2@@Z 000000018000db20 f   NpPvdSceneClient.obj
 0001:0000cb90       ??1PvdSceneClient@Vd@physx@@UEAA@XZ 000000018000db90 f   NpPvdSceneClient.obj
 0001:0000cc04       ??_EPvdSceneClient@Vd@physx@@W7EAAPEAXI@Z 000000018000dc04 f i NpPvdSceneClient.obj
 0001:0000cc10       ??_EPvdSceneClient@Vd@physx@@WBA@EAAPEAXI@Z 000000018000dc10 f i NpPvdSceneClient.obj
 0001:0000cc20       ??_EPvdClient@pvdsdk@physx@@MEAAPEAXI@Z 000000018000dc20 f i NpPvdSceneClient.obj
 0001:0000cc20       ??_GPvdClient@pvdsdk@physx@@MEAAPEAXI@Z 000000018000dc20 f i NpPvdSceneClient.obj
 0001:0000cc80       ??_EPvdSceneClient@Vd@physx@@UEAAPEAXI@Z 000000018000dc80 f i NpPvdSceneClient.obj
 0001:0000cc80       ??_GPvdSceneClient@Vd@physx@@UEAAPEAXI@Z 000000018000dc80 f i NpPvdSceneClient.obj
 0001:0000cd20       ??_EAdapter@Sq@physx@@UEAAPEAXI@Z 000000018000dd20 f i NpSceneQueries.obj
 0001:0000cd20       ??_ECompoundPrunerOverlapCallback@Sq@physx@@UEAAPEAXI@Z 000000018000dd20 f i SceneQuery_static_64:SqQuery.obj
 0001:0000cd20       ??_ECompoundPrunerRaycastCallback@Sq@physx@@UEAAPEAXI@Z 000000018000dd20 f i SceneQuery_static_64:SqQuery.obj
 0001:0000cd20       ??_EDebugVizCallback@physx@@UEAAPEAXI@Z 000000018000dd20 f i SceneQuery_static_64:SqCompoundPruner.obj
 0001:0000cd20       ??_EEndPropertyMessageGroup@pvdsdk@physx@@UEAAPEAXI@Z 000000018000dd20 f i PhysXPvdSDK_static_64:PxPvdDataStream.obj
 0001:0000cd20       ??_EEndSetPropertyValue@pvdsdk@physx@@UEAAPEAXI@Z 000000018000dd20 f i PhysXPvdSDK_static_64:PxPvdDataStream.obj
 0001:0000cd20       ??_EEventSerializeable@pvdsdk@physx@@MEAAPEAXI@Z 000000018000dd20 f i PhysXPvdSDK_static_64:PxPvdDataStream.obj
 0001:0000cd20       ??_EPrunerOverlapCallback@Gu@physx@@UEAAPEAXI@Z 000000018000dd20 f i SceneQuery_static_64:SqQuery.obj
 0001:0000cd20       ??_EPrunerPayloadRemovalCallback@Gu@physx@@UEAAPEAXI@Z 000000018000dd20 f i NpSceneQueries.obj
 0001:0000cd20       ??_EPrunerRaycastCallback@Gu@physx@@UEAAPEAXI@Z 000000018000dd20 f i SceneQuery_static_64:SqQuery.obj
 0001:0000cd20       ??_EPvdVisualizer@Vd@physx@@MEAAPEAXI@Z 000000018000dd20 f i NpPvdSceneClient.obj
 0001:0000cd20       ??_EPxErrorCallback@physx@@UEAAPEAXI@Z 000000018000dd20 f i PvdPhysicsClient.obj
 0001:0000cd20       ??_EPxProcessPxBaseCallback@physx@@UEAAPEAXI@Z 000000018000dd20 f i NpSerializerAdapter.obj
 0001:0000cd20       ??_ERendererEventClient@pvdsdk@physx@@UEAAPEAXI@Z 000000018000dd20 f i NpPvdSceneClient.obj
 0001:0000cd20       ??_GAdapter@Sq@physx@@UEAAPEAXI@Z 000000018000dd20 f i NpSceneQueries.obj
 0001:0000cd20       ??_GCompoundPrunerOverlapCallback@Sq@physx@@UEAAPEAXI@Z 000000018000dd20 f i SceneQuery_static_64:SqQuery.obj
 0001:0000cd20       ??_GCompoundPrunerRaycastCallback@Sq@physx@@UEAAPEAXI@Z 000000018000dd20 f i SceneQuery_static_64:SqQuery.obj
 0001:0000cd20       ??_GDebugVizCallback@physx@@UEAAPEAXI@Z 000000018000dd20 f i SceneQuery_static_64:SqCompoundPruner.obj
 0001:0000cd20       ??_GEndPropertyMessageGroup@pvdsdk@physx@@UEAAPEAXI@Z 000000018000dd20 f i PhysXPvdSDK_static_64:PxPvdDataStream.obj
 0001:0000cd20       ??_GEndSetPropertyValue@pvdsdk@physx@@UEAAPEAXI@Z 000000018000dd20 f i PhysXPvdSDK_static_64:PxPvdDataStream.obj
 0001:0000cd20       ??_GEventSerializeable@pvdsdk@physx@@MEAAPEAXI@Z 000000018000dd20 f i PhysXPvdSDK_static_64:PxPvdDataStream.obj
 0001:0000cd20       ??_GPrunerOverlapCallback@Gu@physx@@UEAAPEAXI@Z 000000018000dd20 f i SceneQuery_static_64:SqQuery.obj
 0001:0000cd20       ??_GPrunerPayloadRemovalCallback@Gu@physx@@UEAAPEAXI@Z 000000018000dd20 f i NpSceneQueries.obj
 0001:0000cd20       ??_GPrunerRaycastCallback@Gu@physx@@UEAAPEAXI@Z 000000018000dd20 f i SceneQuery_static_64:SqQuery.obj
 0001:0000cd20       ??_GPvdVisualizer@Vd@physx@@MEAAPEAXI@Z 000000018000dd20 f i NpPvdSceneClient.obj
 0001:0000cd20       ??_GPxErrorCallback@physx@@UEAAPEAXI@Z 000000018000dd20 f i PvdPhysicsClient.obj
 0001:0000cd20       ??_GPxProcessPxBaseCallback@physx@@UEAAPEAXI@Z 000000018000dd20 f i NpSerializerAdapter.obj
 0001:0000cd20       ??_GRendererEventClient@pvdsdk@physx@@UEAAPEAXI@Z 000000018000dd20 f i NpPvdSceneClient.obj
 0001:0000cd50       ??_EPxBroadPhaseRegions@physx@@MEAAPEAXI@Z 000000018000dd50 f i NpImmediateMode.obj
 0001:0000cd50       ??_EPxConstraintVisualizer@physx@@MEAAPEAXI@Z 000000018000dd50 f i NpPvdSceneClient.obj
 0001:0000cd50       ??_GPxBroadPhaseRegions@physx@@MEAAPEAXI@Z 000000018000dd50 f i NpImmediateMode.obj
 0001:0000cd50       ??_GPxConstraintVisualizer@physx@@MEAAPEAXI@Z 000000018000dd50 f i NpPvdSceneClient.obj
 0001:0000cd80       ??_EPxPvdSceneClient@physx@@MEAAPEAXI@Z 000000018000dd80 f i NpPvdSceneClient.obj
 0001:0000cd80       ??_GPxPvdSceneClient@physx@@MEAAPEAXI@Z 000000018000dd80 f i NpPvdSceneClient.obj
 0001:0000ce40       ?addBodyAndShapesToPvd@PvdSceneClient@Vd@physx@@QEAAXAEAVNpRigidDynamic@3@@Z 000000018000de40 f   NpPvdSceneClient.obj
 0001:0000d0d0       ?addStaticAndShapesToPvd@PvdSceneClient@Vd@physx@@QEAAXAEAVNpRigidStatic@3@@Z 000000018000e0d0 f   NpPvdSceneClient.obj
 0001:0000d240       ?attachAggregateActor@PvdSceneClient@Vd@physx@@QEAAXPEBVNpAggregate@3@PEAVNpActor@3@@Z 000000018000e240 f   NpPvdSceneClient.obj
 0001:0000d2a0       ?createPvdInstance@PvdSceneClient@Vd@physx@@QEAAXPEBV?$MaterialCoreT@UPxsFEMSoftBodyMaterialData@physx@@VPxFEMSoftBodyMaterial@2@@3@@Z 000000018000e2a0 f   NpPvdSceneClient.obj
 0001:0000d310       ?createPvdInstance@PvdSceneClient@Vd@physx@@QEAAXPEBV?$MaterialCoreT@UPxsMaterialData@physx@@VPxMaterial@2@@3@@Z 000000018000e310 f   NpPvdSceneClient.obj
 0001:0000d380       ?createPvdInstance@PvdSceneClient@Vd@physx@@QEAAXPEBVNpAggregate@3@@Z 000000018000e380 f   NpPvdSceneClient.obj
 0001:0000d470       ?createPvdInstance@PvdSceneClient@Vd@physx@@QEAAXPEBVNpArticulationLink@3@@Z 000000018000e470 f   NpPvdSceneClient.obj
 0001:0000d470       ?createPvdInstance@PvdSceneClient@Vd@physx@@QEAAXPEBVNpRigidDynamic@3@@Z 000000018000e470 f   NpPvdSceneClient.obj
 0001:0000d530       ?createPvdInstance@PvdSceneClient@Vd@physx@@QEAAXPEBVNpArticulationReducedCoordinate@3@@Z 000000018000e530 f   NpPvdSceneClient.obj
 0001:0000d590       ?createPvdInstance@PvdSceneClient@Vd@physx@@QEAAXPEBVNpConstraint@3@@Z 000000018000e590 f   NpPvdSceneClient.obj
 0001:0000d5e0       ?createPvdInstance@PvdSceneClient@Vd@physx@@QEAAXPEBVNpRigidStatic@3@@Z 000000018000e5e0 f   NpPvdSceneClient.obj
 0001:0000d640       ?createPvdInstance@PvdSceneClient@Vd@physx@@QEAAXPEBVNpShape@3@AEAVPxActor@3@@Z 000000018000e640 f   NpPvdSceneClient.obj
 0001:0000d750       ?detachAggregateActor@PvdSceneClient@Vd@physx@@QEAAXPEBVNpAggregate@3@PEAVNpActor@3@@Z 000000018000e750 f   NpPvdSceneClient.obj
 0001:0000d7b0       ?drawLines@PvdSceneClient@Vd@physx@@UEAAXPEBUPxDebugLine@3@I@Z 000000018000e7b0 f   NpPvdSceneClient.obj
 0001:0000d7d0       ?drawPoints@PvdSceneClient@Vd@physx@@UEAAXPEBUPxDebugPoint@3@I@Z 000000018000e7d0 f   NpPvdSceneClient.obj
 0001:0000d7f0       ?drawText@PvdSceneClient@Vd@physx@@UEAAXAEBUPxDebugText@3@@Z 000000018000e7f0 f   NpPvdSceneClient.obj
 0001:0000d810       ?drawTriangles@PvdSceneClient@Vd@physx@@UEAAXPEBUPxDebugTriangle@3@I@Z 000000018000e810 f   NpPvdSceneClient.obj
 0001:0000d830       ?frameEnd@PvdSceneClient@Vd@physx@@QEAAXXZ 000000018000e830 f   NpPvdSceneClient.obj
 0001:0000da40       ?frameStart@PvdSceneClient@Vd@physx@@QEAAXM@Z 000000018000ea40 f   NpPvdSceneClient.obj
 0001:0000db20       ?getClientInternal@PvdSceneClient@Vd@physx@@UEAAPEAVPvdClient@pvdsdk@3@XZ 000000018000eb20 f i NpPvdSceneClient.obj
 0001:0000db30       ?getDataStream@PvdSceneClient@Vd@physx@@UEAAPEAVPvdDataStream@pvdsdk@3@XZ 000000018000eb30 f i NpPvdSceneClient.obj
 0001:0000db30       ?getLink@NpArticulationAttachment@physx@@UEBAPEAVPxArticulationLink@2@XZ 000000018000eb30 f i NpArticulationTendon.obj
 0001:0000db30       ?getLink@NpArticulationSensor@physx@@UEBAPEAVPxArticulationLink@2@XZ 000000018000eb30 f i NpArticulationSensor.obj
 0001:0000db30       ?getLink@NpArticulationTendonJoint@physx@@UEBAPEAVPxArticulationLink@2@XZ 000000018000eb30 f i NpArticulationTendon.obj
 0001:0000db30       ?getPxConvexMeshGeometryConvexMesh@@YAPEAVPxConvexMesh@physx@@PEBVPxConvexMeshGeometry@2@@Z 000000018000eb30 f i PxAutoGeneratedMetaDataObjects.obj
 0001:0000db30       ?getPxTriangleMeshGeometryTriangleMesh@@YAPEAVPxTriangleMesh@physx@@PEBVPxTriangleMeshGeometry@2@@Z 000000018000eb30 f i PxAutoGeneratedMetaDataObjects.obj
 0001:0000db30       ?getTriangles@RenderBuffer@Cm@physx@@UEBAPEBUPxDebugTriangle@3@XZ 000000018000eb30 f i NpScene.obj
 0001:0000db40       ?getScenePvdFlags@PvdSceneClient@Vd@physx@@UEBA?AV?$PxFlags@W4Enum@PxPvdSceneFlag@physx@@E@3@XZ 000000018000eb40 f i NpPvdSceneClient.obj
 0001:0000db50       ?growAndPushBack@?$PxArray@UContact@Sc@physx@@V?$PxReflectionAllocator@UContact@Sc@physx@@@3@@physx@@IEAAAEAUContact@Sc@2@AEBU342@@Z 000000018000eb50 f i NpPvdSceneClient.obj
 0001:0000df50       ?isConnected@PvdSceneClient@Vd@physx@@UEBA_NXZ 000000018000ef50 f i NpPvdSceneClient.obj
 0001:0000df60       ?onPvdConnected@PvdSceneClient@Vd@physx@@UEAAXXZ 000000018000ef60 f   NpPvdSceneClient.obj
 0001:0000e080       ?onPvdDisconnected@PvdSceneClient@Vd@physx@@UEAAXXZ 000000018000f080 f   NpPvdSceneClient.obj
 0001:0000e0e0       ?originShift@PvdSceneClient@Vd@physx@@QEAAXV?$PxVec3T@M@3@@Z 000000018000f0e0 f   NpPvdSceneClient.obj
 0001:0000e130       ?recreate@?$PxArray@PEAVPxActor@physx@@V?$PxReflectionAllocator@PEAVPxActor@physx@@@2@@physx@@IEAAXI@Z 000000018000f130 f i NpPvdSceneClient.obj
 0001:0000e240       ?recreate@?$PxArray@PEAVPxArticulationReducedCoordinate@physx@@V?$PxReflectionAllocator@PEAVPxArticulationReducedCoordinate@physx@@@2@@physx@@IEAAXI@Z 000000018000f240 f i NpPvdSceneClient.obj
 0001:0000e350       ?releaseAndRecreateGeometry@PvdSceneClient@Vd@physx@@QEAAXPEBVNpShape@3@@Z 000000018000f350 f   NpPvdSceneClient.obj
 0001:0000e3b0       ?releasePvdInstance@PvdSceneClient@Vd@physx@@QEAAXPEBV?$MaterialCoreT@UPxsFEMSoftBodyMaterialData@physx@@VPxFEMSoftBodyMaterial@2@@3@@Z 000000018000f3b0 f   NpPvdSceneClient.obj
 0001:0000e410       ?releasePvdInstance@PvdSceneClient@Vd@physx@@QEAAXPEBV?$MaterialCoreT@UPxsMaterialData@physx@@VPxMaterial@2@@3@@Z 000000018000f410 f   NpPvdSceneClient.obj
 0001:0000e470       ?releasePvdInstance@PvdSceneClient@Vd@physx@@QEAAXPEBVNpAggregate@3@@Z 000000018000f470 f   NpPvdSceneClient.obj
 0001:0000e560       ?releasePvdInstance@PvdSceneClient@Vd@physx@@QEAAXPEBVNpArticulationLink@3@@Z 000000018000f560 f   NpPvdSceneClient.obj
 0001:0000e560       ?releasePvdInstance@PvdSceneClient@Vd@physx@@QEAAXPEBVNpRigidDynamic@3@@Z 000000018000f560 f   NpPvdSceneClient.obj
 0001:0000e560       ?releasePvdInstance@PvdSceneClient@Vd@physx@@QEAAXPEBVNpRigidStatic@3@@Z 000000018000f560 f   NpPvdSceneClient.obj
 0001:0000e590       ?releasePvdInstance@PvdSceneClient@Vd@physx@@QEAAXPEBVNpArticulationReducedCoordinate@3@@Z 000000018000f590 f   NpPvdSceneClient.obj
 0001:0000e5e0       ?releasePvdInstance@PvdSceneClient@Vd@physx@@QEAAXPEBVNpConstraint@3@@Z 000000018000f5e0 f   NpPvdSceneClient.obj
 0001:0000e660       ?releasePvdInstance@PvdSceneClient@Vd@physx@@QEAAXPEBVNpShape@3@AEAVPxActor@3@@Z 000000018000f660 f   NpPvdSceneClient.obj
 0001:0000e840       ?releasePvdInstance@PvdSceneClient@Vd@physx@@QEAAXPEBVPxActor@3@@Z 000000018000f840 f   NpPvdSceneClient.obj
 0001:0000e920       ?releasePvdInstance@PvdSceneClient@Vd@physx@@QEAAXXZ 000000018000f920 f   NpPvdSceneClient.obj
 0001:0000e980       ?resize@?$PxArray@PEAVPxActor@physx@@V?$PxReflectionAllocator@PEAVPxActor@physx@@@2@@physx@@QEAAXIAEBQEAVPxActor@2@@Z 000000018000f980 f i NpPvdSceneClient.obj
 0001:0000ea40       ?resize@?$PxArray@PEAVPxArticulationReducedCoordinate@physx@@V?$PxReflectionAllocator@PEAVPxArticulationReducedCoordinate@physx@@@2@@physx@@QEAAXIAEBQEAVPxArticulationReducedCoordinate@2@@Z 000000018000fa40 f i NpPvdSceneClient.obj
 0001:0000eb00       ?sendEntireScene@PvdSceneClient@Vd@physx@@AEAAXXZ 000000018000fb00 f   NpPvdSceneClient.obj
 0001:0000eee0       ?setScenePvdFlag@PvdSceneClient@Vd@physx@@UEAAXW4Enum@PxPvdSceneFlag@3@_N@Z 000000018000fee0 f   NpPvdSceneClient.obj
 0001:0000eef0       ?setScenePvdFlags@PvdSceneClient@Vd@physx@@UEAAXV?$PxFlags@W4Enum@PxPvdSceneFlag@physx@@E@3@@Z 000000018000fef0 f i NpPvdSceneClient.obj
 0001:0000ef00       ?updateBodyPvdProperties@PvdSceneClient@Vd@physx@@QEAAXPEBVNpActor@3@@Z 000000018000ff00 f   NpPvdSceneClient.obj
 0001:0000efd0       ?updateCamera@PvdSceneClient@Vd@physx@@UEAAXPEBDAEBV?$PxVec3T@M@3@11@Z 000000018000ffd0 f   NpPvdSceneClient.obj
 0001:0000eff0       ?updateConstraint@PvdSceneClient@Vd@physx@@AEAAXAEBVConstraintCore@Sc@3@I@Z 000000018000fff0 f   NpPvdSceneClient.obj
 0001:0000f060       ?updateContacts@PvdSceneClient@Vd@physx@@QEAAXXZ 0000000180010060 f   NpPvdSceneClient.obj
 0001:0000f330       ?updateJoints@PvdSceneClient@Vd@physx@@QEAAXXZ 0000000180010330 f   NpPvdSceneClient.obj
 0001:0000f760       ?updateKinematicTarget@PvdSceneClient@Vd@physx@@QEAAXPEBVNpActor@3@AEBV?$PxTransformT@M@3@@Z 0000000180010760 f   NpPvdSceneClient.obj
 0001:0000f850       ?updateMaterials@PvdSceneClient@Vd@physx@@QEAAXPEBVNpShape@3@@Z 0000000180010850 f   NpPvdSceneClient.obj
 0001:0000f8a0       ?updatePvdProperties@PvdSceneClient@Vd@physx@@QEAAXPEBV?$MaterialCoreT@UPxsFEMSoftBodyMaterialData@physx@@VPxFEMSoftBodyMaterial@2@@3@@Z 00000001800108a0 f   NpPvdSceneClient.obj
 0001:0000f8f0       ?updatePvdProperties@PvdSceneClient@Vd@physx@@QEAAXPEBV?$MaterialCoreT@UPxsMaterialData@physx@@VPxMaterial@2@@3@@Z 00000001800108f0 f   NpPvdSceneClient.obj
 0001:0000f940       ?updatePvdProperties@PvdSceneClient@Vd@physx@@QEAAXPEBVNpActor@3@@Z 0000000180010940 f   NpPvdSceneClient.obj
 0001:0000fa50       ?updatePvdProperties@PvdSceneClient@Vd@physx@@QEAAXPEBVNpAggregate@3@@Z 0000000180010a50 f   NpPvdSceneClient.obj
 0001:0000faa0       ?updatePvdProperties@PvdSceneClient@Vd@physx@@QEAAXPEBVNpArticulationJointReducedCoordinate@3@@Z 0000000180010aa0 f   NpPvdSceneClient.obj
 0001:0000faf0       ?updatePvdProperties@PvdSceneClient@Vd@physx@@QEAAXPEBVNpArticulationReducedCoordinate@3@@Z 0000000180010af0 f   NpPvdSceneClient.obj
 0001:0000fb40       ?updatePvdProperties@PvdSceneClient@Vd@physx@@QEAAXPEBVNpConstraint@3@@Z 0000000180010b40 f   NpPvdSceneClient.obj
 0001:0000fb90       ?updatePvdProperties@PvdSceneClient@Vd@physx@@QEAAXPEBVNpRigidStatic@3@@Z 0000000180010b90 f   NpPvdSceneClient.obj
 0001:0000fbe0       ?updatePvdProperties@PvdSceneClient@Vd@physx@@QEAAXPEBVNpShape@3@@Z 0000000180010be0 f   NpPvdSceneClient.obj
 0001:0000fc30       ?updatePvdProperties@PvdSceneClient@Vd@physx@@QEAAXXZ 0000000180010c30 f   NpPvdSceneClient.obj
 0001:0000fc50       ?updateSceneQueries@PvdSceneClient@Vd@physx@@QEAAXXZ 0000000180010c50 f   NpPvdSceneClient.obj
 0001:0000fca0       ?visualize@PvdSceneClient@Vd@physx@@QEAAXAEBVPxRenderBuffer@3@@Z 0000000180010ca0 f   NpPvdSceneClient.obj
 0001:0000fdb0       ?visualize@PvdSceneClient@Vd@physx@@UEAAXAEAVPxArticulationLink@3@@Z 0000000180010db0 f   NpPvdSceneClient.obj
 0001:00010510       ??0PvdSceneQueryCollector@Vd@physx@@QEAA@PEAVPvdSceneClient@12@_N@Z 0000000180011510 f   NpPvdSceneQueryCollector.obj
 0001:000106f0       ?copy@?$PxArray@UPvdOverlap@Vd@physx@@V?$PxReflectionAllocator@UPvdOverlap@Vd@physx@@@3@@physx@@KAXPEAUPvdOverlap@Vd@2@0PEBU342@@Z 00000001800116f0 f i NpPvdSceneQueryCollector.obj
 0001:000109d0       ?copy@?$PxArray@UPvdRaycast@Vd@physx@@V?$PxReflectionAllocator@UPvdRaycast@Vd@physx@@@3@@physx@@KAXPEAUPvdRaycast@Vd@2@0PEBU342@@Z 00000001800119d0 f i NpPvdSceneQueryCollector.obj
 0001:00010c50       ?growAndPushBack@?$PxArray@UPvdOverlap@Vd@physx@@V?$PxReflectionAllocator@UPvdOverlap@Vd@physx@@@3@@physx@@IEAAAEAUPvdOverlap@Vd@2@AEBU342@@Z 0000000180011c50 f i NpPvdSceneQueryCollector.obj
 0001:00010dd0       ?growAndPushBack@?$PxArray@UPvdRaycast@Vd@physx@@V?$PxReflectionAllocator@UPvdRaycast@Vd@physx@@@3@@physx@@IEAAAEAUPvdRaycast@Vd@2@AEBU342@@Z 0000000180011dd0 f i NpPvdSceneQueryCollector.obj
 0001:00010f60       ?growAndPushBack@?$PxArray@UPvdSqHit@Vd@physx@@V?$PxReflectionAllocator@UPvdSqHit@Vd@physx@@@3@@physx@@IEAAAEAUPvdSqHit@Vd@2@AEBU342@@Z 0000000180011f60 f i NpPvdSceneQueryCollector.obj
 0001:000112f0       ?growAndPushBack@?$PxArray@UPvdSweep@Vd@physx@@V?$PxReflectionAllocator@UPvdSweep@Vd@physx@@@3@@physx@@IEAAAEAUPvdSweep@Vd@2@AEBU342@@Z 00000001800122f0 f i NpPvdSceneQueryCollector.obj
 0001:00011670       ?growAndPushBack@?$PxArray@UPxFilterData@physx@@V?$PxReflectionAllocator@UPxFilterData@physx@@@2@@physx@@IEAAAEAUPxFilterData@2@AEBU32@@Z 0000000180012670 f i NpPvdSceneQueryCollector.obj
 0001:000117d0       ?growAndPushBack@?$PxArray@V?$PxTransformT@M@physx@@V?$PxReflectionAllocator@V?$PxTransformT@M@physx@@@2@@physx@@IEAAAEAV?$PxTransformT@M@2@AEBV32@@Z 00000001800127d0 f i NpPvdSceneQueryCollector.obj
 0001:00011a70       ?growAndPushBack@?$PxArray@VPxGeometryHolder@physx@@V?$PxReflectionAllocator@VPxGeometryHolder@physx@@@2@@physx@@IEAAAEAVPxGeometryHolder@2@AEBV32@@Z 0000000180012a70 f i NpPvdSceneQueryCollector.obj
 0001:00011bd0       ?overlapMultiple@PvdSceneQueryCollector@Vd@physx@@QEAAXAEBVPxGeometry@3@AEBV?$PxTransformT@M@3@PEBUPxOverlapHit@3@IAEBUPxQueryFilterData@3@@Z 0000000180012bd0 f   NpPvdSceneQueryCollector.obj
 0001:00011ee0       ?raycast@PvdSceneQueryCollector@Vd@physx@@QEAAXAEBV?$PxVec3T@M@3@0MPEBUPxRaycastHit@3@IAEBUPxQueryFilterData@3@_N@Z 0000000180012ee0 f   NpPvdSceneQueryCollector.obj
 0001:00012010       ?release@PvdSceneQueryCollector@Vd@physx@@QEAAXXZ 0000000180013010 f   NpPvdSceneQueryCollector.obj
 0001:000120c0       ?sweep@PvdSceneQueryCollector@Vd@physx@@QEAAXAEBVPxGeometry@3@AEBV?$PxTransformT@M@3@AEBV?$PxVec3T@M@3@MPEBUPxSweepHit@3@IAEBUPxQueryFilterData@3@_N@Z 00000001800130c0 f   NpPvdSceneQueryCollector.obj
 0001:00012480       ??$addPropertyMessage@VPxArticulationJointReducedCoordinate@physx@@UPxArticulationJointUpdateBlock@Vd@2@@PvdPropertyDefinitionHelper@pvdsdk@physx@@QEAAXXZ 0000000180013480 f i PvdMetaDataPvdBinding.obj
 0001:000124d0       ??$addPropertyMessage@VPxArticulationLink@physx@@UPxArticulationLinkUpdateBlock@Vd@2@@PvdPropertyDefinitionHelper@pvdsdk@physx@@QEAAXXZ 00000001800134d0 f i PvdMetaDataPvdBinding.obj
 0001:00012520       ??$addPropertyMessage@VPxRigidDynamic@physx@@UPxRigidDynamicUpdateBlock@Vd@2@@PvdPropertyDefinitionHelper@pvdsdk@physx@@QEAAXXZ 0000000180013520 f i PvdMetaDataPvdBinding.obj
 0001:00012570       ??$addPropertyMessageArg@E@PvdPropertyDefinitionHelper@pvdsdk@physx@@QEAAXI@Z 0000000180013570 f i PvdMetaDataPvdBinding.obj
 0001:000125b0       ??$addPropertyMessageArg@I@PvdPropertyDefinitionHelper@pvdsdk@physx@@QEAAXI@Z 00000001800135b0 f i PvdMetaDataPvdBinding.obj
 0001:000125f0       ??$addPropertyMessageArg@M@PvdPropertyDefinitionHelper@pvdsdk@physx@@QEAAXI@Z 00000001800135f0 f i PvdMetaDataPvdBinding.obj
 0001:00012630       ??$addPropertyMessageArg@V?$PxTransformT@M@physx@@@PvdPropertyDefinitionHelper@pvdsdk@physx@@QEAAXI@Z 0000000180013630 f i PvdMetaDataPvdBinding.obj
 0001:00012670       ??$addPropertyMessageArg@V?$PxVec3T@M@physx@@@PvdPropertyDefinitionHelper@pvdsdk@physx@@QEAAXI@Z 0000000180013670 f i PvdMetaDataPvdBinding.obj
 0001:000126b0       ??$addPropertyMessageArg@_N@PvdPropertyDefinitionHelper@pvdsdk@physx@@QEAAXI@Z 00000001800136b0 f i PvdMetaDataPvdBinding.obj
 0001:000126f0       ??$createClass@UPvdOverlap@Vd@physx@@@PvdMetaDataStream@pvdsdk@physx@@QEAA?AW4Enum@PvdErrorType@12@XZ 00000001800136f0 f i PvdMetaDataPvdBinding.obj
 0001:00012f70       ??$createProperty@UPvdContact@Vd@physx@@I@PvdMetaDataStream@pvdsdk@physx@@QEAA?AW4Enum@PvdErrorType@12@PEBD0W43PropertyType@12@V?$DataRef@UNamedValue@pvdsdk@physx@@@12@@Z 0000000180013f70 f i PvdMetaDataPvdBinding.obj
 0001:00012fe0       ??$createProperty@UPvdContact@Vd@physx@@M@PvdMetaDataStream@pvdsdk@physx@@QEAA?AW4Enum@PvdErrorType@12@PEBD0W43PropertyType@12@V?$DataRef@UNamedValue@pvdsdk@physx@@@12@@Z 0000000180013fe0 f i PvdMetaDataPvdBinding.obj
 0001:00013050       ??$createProperty@UPvdContact@Vd@physx@@UObjectRef@pvdsdk@3@@PvdMetaDataStream@pvdsdk@physx@@QEAA?AW4Enum@PvdErrorType@12@PEBD0W43PropertyType@12@V?$DataRef@UNamedValue@pvdsdk@physx@@@12@@Z 0000000180014050 f i PvdMetaDataPvdBinding.obj
 0001:000130c0       ??$createProperty@UPvdContact@Vd@physx@@V?$PxVec3T@M@3@@PvdMetaDataStream@pvdsdk@physx@@QEAA?AW4Enum@PvdErrorType@12@PEBD0W43PropertyType@12@V?$DataRef@UNamedValue@pvdsdk@physx@@@12@@Z 00000001800140c0 f i PvdMetaDataPvdBinding.obj
 0001:00013130       ??$createProperty@UPvdHullPolygonData@Vd@physx@@G@PvdMetaDataStream@pvdsdk@physx@@QEAA?AW4Enum@PvdErrorType@12@PEBD0W43PropertyType@12@V?$DataRef@UNamedValue@pvdsdk@physx@@@12@@Z 0000000180014130 f i PvdMetaDataPvdBinding.obj
 0001:000131a0       ??$createProperty@UPvdOverlap@Vd@physx@@I@PvdMetaDataStream@pvdsdk@physx@@QEAA?AW4Enum@PvdErrorType@12@PEBD0W43PropertyType@12@V?$DataRef@UNamedValue@pvdsdk@physx@@@12@@Z 00000001800141a0 f i PvdMetaDataPvdBinding.obj
 0001:00013210       ??$createProperty@UPvdOverlap@Vd@physx@@PEBD@PvdMetaDataStream@pvdsdk@physx@@QEAA?AW4Enum@PvdErrorType@12@PEBD0W43PropertyType@12@V?$DataRef@UNamedValue@pvdsdk@physx@@@12@@Z 0000000180014210 f i PvdMetaDataPvdBinding.obj
 0001:00013280       ??$createProperty@UPvdOverlap@Vd@physx@@UPxFilterData@3@@PvdMetaDataStream@pvdsdk@physx@@QEAA?AW4Enum@PvdErrorType@12@PEBD0W43PropertyType@12@V?$DataRef@UNamedValue@pvdsdk@physx@@@12@@Z 0000000180014280 f i PvdMetaDataPvdBinding.obj
 0001:000132f0       ??$createProperty@UPvdOverlap@Vd@physx@@V?$PxTransformT@M@3@@PvdMetaDataStream@pvdsdk@physx@@QEAA?AW4Enum@PvdErrorType@12@PEBD0W43PropertyType@12@V?$DataRef@UNamedValue@pvdsdk@physx@@@12@@Z 00000001800142f0 f i PvdMetaDataPvdBinding.obj
 0001:00013360       ??$createProperty@UPvdRaycast@Vd@physx@@I@PvdMetaDataStream@pvdsdk@physx@@QEAA?AW4Enum@PvdErrorType@12@PEBD0W43PropertyType@12@V?$DataRef@UNamedValue@pvdsdk@physx@@@12@@Z 0000000180014360 f i PvdMetaDataPvdBinding.obj
 0001:000133d0       ??$createProperty@UPvdRaycast@Vd@physx@@M@PvdMetaDataStream@pvdsdk@physx@@QEAA?AW4Enum@PvdErrorType@12@PEBD0W43PropertyType@12@V?$DataRef@UNamedValue@pvdsdk@physx@@@12@@Z 00000001800143d0 f i PvdMetaDataPvdBinding.obj
 0001:00013440       ??$createProperty@UPvdRaycast@Vd@physx@@PEBD@PvdMetaDataStream@pvdsdk@physx@@QEAA?AW4Enum@PvdErrorType@12@PEBD0W43PropertyType@12@V?$DataRef@UNamedValue@pvdsdk@physx@@@12@@Z 0000000180014440 f i PvdMetaDataPvdBinding.obj
 0001:000134b0       ??$createProperty@UPvdRaycast@Vd@physx@@UPxFilterData@3@@PvdMetaDataStream@pvdsdk@physx@@QEAA?AW4Enum@PvdErrorType@12@PEBD0W43PropertyType@12@V?$DataRef@UNamedValue@pvdsdk@physx@@@12@@Z 00000001800144b0 f i PvdMetaDataPvdBinding.obj
 0001:00013520       ??$createProperty@UPvdRaycast@Vd@physx@@V?$PxVec3T@M@3@@PvdMetaDataStream@pvdsdk@physx@@QEAA?AW4Enum@PvdErrorType@12@PEBD0W43PropertyType@12@V?$DataRef@UNamedValue@pvdsdk@physx@@@12@@Z 0000000180014520 f i PvdMetaDataPvdBinding.obj
 0001:00013590       ??$createProperty@UPvdSqHit@Vd@physx@@I@PvdMetaDataStream@pvdsdk@physx@@QEAA?AW4Enum@PvdErrorType@12@PEBD0W43PropertyType@12@V?$DataRef@UNamedValue@pvdsdk@physx@@@12@@Z 0000000180014590 f i PvdMetaDataPvdBinding.obj
 0001:00013600       ??$createProperty@UPvdSqHit@Vd@physx@@M@PvdMetaDataStream@pvdsdk@physx@@QEAA?AW4Enum@PvdErrorType@12@PEBD0W43PropertyType@12@V?$DataRef@UNamedValue@pvdsdk@physx@@@12@@Z 0000000180014600 f i PvdMetaDataPvdBinding.obj
 0001:00013670       ??$createProperty@UPvdSqHit@Vd@physx@@UObjectRef@pvdsdk@3@@PvdMetaDataStream@pvdsdk@physx@@QEAA?AW4Enum@PvdErrorType@12@PEBD0W43PropertyType@12@V?$DataRef@UNamedValue@pvdsdk@physx@@@12@@Z 0000000180014670 f i PvdMetaDataPvdBinding.obj
 0001:000136e0       ??$createProperty@UPvdSqHit@Vd@physx@@V?$PxVec3T@M@3@@PvdMetaDataStream@pvdsdk@physx@@QEAA?AW4Enum@PvdErrorType@12@PEBD0W43PropertyType@12@V?$DataRef@UNamedValue@pvdsdk@physx@@@12@@Z 00000001800146e0 f i PvdMetaDataPvdBinding.obj
 0001:00013750       ??$createProperty@UPvdSweep@Vd@physx@@I@PvdMetaDataStream@pvdsdk@physx@@QEAA?AW4Enum@PvdErrorType@12@PEBD0W43PropertyType@12@V?$DataRef@UNamedValue@pvdsdk@physx@@@12@@Z 0000000180014750 f i PvdMetaDataPvdBinding.obj
 0001:000137c0       ??$createProperty@UPvdSweep@Vd@physx@@M@PvdMetaDataStream@pvdsdk@physx@@QEAA?AW4Enum@PvdErrorType@12@PEBD0W43PropertyType@12@V?$DataRef@UNamedValue@pvdsdk@physx@@@12@@Z 00000001800147c0 f i PvdMetaDataPvdBinding.obj
 0001:00013830       ??$createProperty@UPvdSweep@Vd@physx@@PEBD@PvdMetaDataStream@pvdsdk@physx@@QEAA?AW4Enum@PvdErrorType@12@PEBD0W43PropertyType@12@V?$DataRef@UNamedValue@pvdsdk@physx@@@12@@Z 0000000180014830 f i PvdMetaDataPvdBinding.obj
 0001:000138a0       ??$createProperty@UPvdSweep@Vd@physx@@V?$PxVec3T@M@3@@PvdMetaDataStream@pvdsdk@physx@@QEAA?AW4Enum@PvdErrorType@12@PEBD0W43PropertyType@12@V?$DataRef@UNamedValue@pvdsdk@physx@@@12@@Z 00000001800148a0 f i PvdMetaDataPvdBinding.obj
 0001:00013910       ??$createProperty@UPxHeightFieldSample@physx@@E@PvdMetaDataStream@pvdsdk@physx@@QEAA?AW4Enum@PvdErrorType@12@PEBD0W43PropertyType@12@V?$DataRef@UNamedValue@pvdsdk@physx@@@12@@Z 0000000180014910 f i PvdMetaDataPvdBinding.obj
 0001:00013980       ??$createProperty@VPxActor@physx@@UObjectRef@pvdsdk@2@@PvdMetaDataStream@pvdsdk@physx@@QEAA?AW4Enum@PvdErrorType@12@PEBD0W43PropertyType@12@V?$DataRef@UNamedValue@pvdsdk@physx@@@12@@Z 0000000180014980 f i PvdMetaDataPvdBinding.obj
 0001:000139f0       ??$createProperty@VPxAggregate@physx@@UObjectRef@pvdsdk@2@@PvdMetaDataStream@pvdsdk@physx@@QEAA?AW4Enum@PvdErrorType@12@PEBD0W43PropertyType@12@V?$DataRef@UNamedValue@pvdsdk@physx@@@12@@Z 00000001800149f0 f i PvdMetaDataPvdBinding.obj
 0001:00013a60       ??$createProperty@VPxArticulationJointReducedCoordinate@physx@@UObjectRef@pvdsdk@2@@PvdMetaDataStream@pvdsdk@physx@@QEAA?AW4Enum@PvdErrorType@12@PEBD0W43PropertyType@12@V?$DataRef@UNamedValue@pvdsdk@physx@@@12@@Z 0000000180014a60 f i PvdMetaDataPvdBinding.obj
 0001:00013ad0       ??$createProperty@VPxArticulationLink@physx@@UObjectRef@pvdsdk@2@@PvdMetaDataStream@pvdsdk@physx@@QEAA?AW4Enum@PvdErrorType@12@PEBD0W43PropertyType@12@V?$DataRef@UNamedValue@pvdsdk@physx@@@12@@Z 0000000180014ad0 f i PvdMetaDataPvdBinding.obj
 0001:00013b40       ??$createProperty@VPxArticulationReducedCoordinate@physx@@UObjectRef@pvdsdk@2@@PvdMetaDataStream@pvdsdk@physx@@QEAA?AW4Enum@PvdErrorType@12@PEBD0W43PropertyType@12@V?$DataRef@UNamedValue@pvdsdk@physx@@@12@@Z 0000000180014b40 f i PvdMetaDataPvdBinding.obj
 0001:00013bb0       ??$createProperty@VPxConvexMesh@physx@@V?$PxVec3T@M@2@@PvdMetaDataStream@pvdsdk@physx@@QEAA?AW4Enum@PvdErrorType@12@PEBD0W43PropertyType@12@V?$DataRef@UNamedValue@pvdsdk@physx@@@12@@Z 0000000180014bb0 f i PvdMetaDataPvdBinding.obj
 0001:00013c20       ??$createProperty@VPxRigidActor@physx@@UObjectRef@pvdsdk@2@@PvdMetaDataStream@pvdsdk@physx@@QEAA?AW4Enum@PvdErrorType@12@PEBD0W43PropertyType@12@V?$DataRef@UNamedValue@pvdsdk@physx@@@12@@Z 0000000180014c20 f i PvdMetaDataPvdBinding.obj
 0001:00013c90       ??$createProperty@VPxRigidDynamic@physx@@V?$PxTransformT@M@2@@PvdMetaDataStream@pvdsdk@physx@@QEAA?AW4Enum@PvdErrorType@12@PEBD0W43PropertyType@12@V?$DataRef@UNamedValue@pvdsdk@physx@@@12@@Z 0000000180014c90 f i PvdMetaDataPvdBinding.obj
 0001:00013d00       ??$createProperty@VPxScene@physx@@UObjectRef@pvdsdk@2@@PvdMetaDataStream@pvdsdk@physx@@QEAA?AW4Enum@PvdErrorType@12@PEBD0W43PropertyType@12@V?$DataRef@UNamedValue@pvdsdk@physx@@@12@@Z 0000000180014d00 f i PvdMetaDataPvdBinding.obj
 0001:00013d70       ??$createProperty@VPxScene@physx@@UPvdOverlap@Vd@2@@PvdMetaDataStream@pvdsdk@physx@@QEAA?AW4Enum@PvdErrorType@12@PEBD0W43PropertyType@12@V?$DataRef@UNamedValue@pvdsdk@physx@@@12@@Z 0000000180014d70 f i PvdMetaDataPvdBinding.obj
 0001:00013de0       ??$createProperty@VPxScene@physx@@UPvdRaycast@Vd@2@@PvdMetaDataStream@pvdsdk@physx@@QEAA?AW4Enum@PvdErrorType@12@PEBD0W43PropertyType@12@V?$DataRef@UNamedValue@pvdsdk@physx@@@12@@Z 0000000180014de0 f i PvdMetaDataPvdBinding.obj
 0001:00013e50       ??$createProperty@VPxScene@physx@@UPvdSqHit@Vd@2@@PvdMetaDataStream@pvdsdk@physx@@QEAA?AW4Enum@PvdErrorType@12@PEBD0W43PropertyType@12@V?$DataRef@UNamedValue@pvdsdk@physx@@@12@@Z 0000000180014e50 f i PvdMetaDataPvdBinding.obj
 0001:00013ec0       ??$createProperty@VPxScene@physx@@UPvdSweep@Vd@2@@PvdMetaDataStream@pvdsdk@physx@@QEAA?AW4Enum@PvdErrorType@12@PEBD0W43PropertyType@12@V?$DataRef@UNamedValue@pvdsdk@physx@@@12@@Z 0000000180014ec0 f i PvdMetaDataPvdBinding.obj
 0001:00013f30       ??$createProperty@VPxScene@physx@@UPxFilterData@2@@PvdMetaDataStream@pvdsdk@physx@@QEAA?AW4Enum@PvdErrorType@12@PEBD0W43PropertyType@12@V?$DataRef@UNamedValue@pvdsdk@physx@@@12@@Z 0000000180014f30 f i PvdMetaDataPvdBinding.obj
 0001:00013fa0       ??$createProperty@VPxScene@physx@@V?$PxTransformT@M@2@@PvdMetaDataStream@pvdsdk@physx@@QEAA?AW4Enum@PvdErrorType@12@PEBD0W43PropertyType@12@V?$DataRef@UNamedValue@pvdsdk@physx@@@12@@Z 0000000180014fa0 f i PvdMetaDataPvdBinding.obj
 0001:00014010       ??$createProperty@VPxShape@physx@@UObjectRef@pvdsdk@2@@PvdMetaDataStream@pvdsdk@physx@@QEAA?AW4Enum@PvdErrorType@12@PEBD0W43PropertyType@12@V?$DataRef@UNamedValue@pvdsdk@physx@@@12@@Z 0000000180015010 f i PvdMetaDataPvdBinding.obj
 0001:00014080       ??$createProperty@VPxTetrahedronMesh@physx@@I@PvdMetaDataStream@pvdsdk@physx@@QEAA?AW4Enum@PvdErrorType@12@PEBD0W43PropertyType@12@V?$DataRef@UNamedValue@pvdsdk@physx@@@12@@Z 0000000180015080 f i PvdMetaDataPvdBinding.obj
 0001:000140f0       ??$createProperty@VPxTriangleMesh@physx@@I@PvdMetaDataStream@pvdsdk@physx@@QEAA?AW4Enum@PvdErrorType@12@PEBD0W43PropertyType@12@V?$DataRef@UNamedValue@pvdsdk@physx@@@12@@Z 00000001800150f0 f i PvdMetaDataPvdBinding.obj
 0001:00015620       ??$visitAllProperties@VPxConvexMeshGeometry@physx@@U?$PvdPropertyFilter@UPvdClassInfoValueStructDefine@Vd@physx@@@Vd@2@@physx@@YAIU?$PvdPropertyFilter@UPvdClassInfoValueStructDefine@Vd@physx@@@Vd@0@@Z 0000000180016620 f i PvdMetaDataPvdBinding.obj
 0001:000157d0       ??$visitAllProperties@VPxFEMSoftBodyMaterial@physx@@U?$PvdPropertyFilter@UPvdClassInfoDefine@Vd@physx@@@Vd@2@@physx@@YAIU?$PvdPropertyFilter@UPvdClassInfoDefine@Vd@physx@@@Vd@0@@Z 00000001800167d0 f i PvdMetaDataPvdBinding.obj
 0001:000159e0       ??$visitAllProperties@VPxFEMSoftBodyMaterial@physx@@U?$PvdPropertyFilter@UPvdClassInfoValueStructDefine@Vd@physx@@@Vd@2@@physx@@YAIU?$PvdPropertyFilter@UPvdClassInfoValueStructDefine@Vd@physx@@@Vd@0@@Z 00000001800169e0 f i PvdMetaDataPvdBinding.obj
 0001:00015bd0       ??$visitAllProperties@VPxTolerancesScale@physx@@U?$PvdPropertyFilter@UPvdClassInfoValueStructDefine@Vd@physx@@@Vd@2@@physx@@YAIU?$PvdPropertyFilter@UPvdClassInfoValueStructDefine@Vd@physx@@@Vd@0@@Z 0000000180016bd0 f i PvdMetaDataPvdBinding.obj
 0001:00015d70       ??$visitAllProperties@VPxTriangleMeshGeometry@physx@@U?$PvdPropertyFilter@UPvdClassInfoValueStructDefine@Vd@physx@@@Vd@2@@physx@@YAIU?$PvdPropertyFilter@UPvdClassInfoValueStructDefine@Vd@physx@@@Vd@0@@Z 0000000180016d70 f i PvdMetaDataPvdBinding.obj
 0001:00015f20       ??$visitBaseProperties@U?$PvdPropertyFilter@UPvdClassInfoDefine@Vd@physx@@@Vd@physx@@@PxBaseMaterialGeneratedInfo@physx@@QEBAIU?$PvdPropertyFilter@UPvdClassInfoDefine@Vd@physx@@@Vd@1@I@Z 0000000180016f20 f i PvdMetaDataPvdBinding.obj
 0001:00015f60       ??$visitInstanceProperties@U?$PvdPropertyFilter@UPvdClassInfoDefine@Vd@physx@@@Vd@physx@@@PxActorGeneratedInfo@physx@@QEBAIU?$PvdPropertyFilter@UPvdClassInfoDefine@Vd@physx@@@Vd@1@I@Z 0000000180016f60 f i PvdMetaDataPvdBinding.obj
 0001:00016160       ??$visitInstanceProperties@U?$PvdPropertyFilter@UPvdClassInfoDefine@Vd@physx@@@Vd@physx@@@PxAggregateGeneratedInfo@physx@@QEBAIU?$PvdPropertyFilter@UPvdClassInfoDefine@Vd@physx@@@Vd@1@I@Z 0000000180017160 f i PvdMetaDataPvdBinding.obj
 0001:00016330       ??$visitInstanceProperties@U?$PvdPropertyFilter@UPvdClassInfoDefine@Vd@physx@@@Vd@physx@@@PxArticulationDriveGeneratedInfo@physx@@QEBAIU?$PvdPropertyFilter@UPvdClassInfoDefine@Vd@physx@@@Vd@1@I@Z 0000000180017330 f i PvdMetaDataPvdBinding.obj
 0001:00016530       ??$visitInstanceProperties@U?$PvdPropertyFilter@UPvdClassInfoDefine@Vd@physx@@@Vd@physx@@@PxArticulationJointReducedCoordinateGeneratedInfo@physx@@QEBAIU?$PvdPropertyFilter@UPvdClassInfoDefine@Vd@physx@@@Vd@1@I@Z 0000000180017530 f i PvdMetaDataPvdBinding.obj
 0001:00016d90       ??$visitInstanceProperties@U?$PvdPropertyFilter@UPvdClassInfoDefine@Vd@physx@@@Vd@physx@@@PxArticulationLinkGeneratedInfo@physx@@QEBAIU?$PvdPropertyFilter@UPvdClassInfoDefine@Vd@physx@@@Vd@1@I@Z 0000000180017d90 f i PvdMetaDataPvdBinding.obj
 0001:00017020       ??$visitInstanceProperties@U?$PvdPropertyFilter@UPvdClassInfoDefine@Vd@physx@@@Vd@physx@@@PxArticulationReducedCoordinateGeneratedInfo@physx@@QEBAIU?$PvdPropertyFilter@UPvdClassInfoDefine@Vd@physx@@@Vd@1@I@Z 0000000180018020 f i PvdMetaDataPvdBinding.obj
 0001:00017590       ??$visitInstanceProperties@U?$PvdPropertyFilter@UPvdClassInfoDefine@Vd@physx@@@Vd@physx@@@PxConstraintGeneratedInfo@physx@@QEBAIU?$PvdPropertyFilter@UPvdClassInfoDefine@Vd@physx@@@Vd@1@I@Z 0000000180018590 f i PvdMetaDataPvdBinding.obj
 0001:00017950       ??$visitInstanceProperties@U?$PvdPropertyFilter@UPvdClassInfoDefine@Vd@physx@@@Vd@physx@@@PxConvexMeshGeometryGeneratedInfo@physx@@QEBAIU?$PvdPropertyFilter@UPvdClassInfoDefine@Vd@physx@@@Vd@1@I@Z 0000000180018950 f i PvdMetaDataPvdBinding.obj
 0001:00017b40       ??$visitInstanceProperties@U?$PvdPropertyFilter@UPvdClassInfoDefine@Vd@physx@@@Vd@physx@@@PxFEMSoftBodyMaterialGeneratedInfo@physx@@QEBAIU?$PvdPropertyFilter@UPvdClassInfoDefine@Vd@physx@@@Vd@1@I@Z 0000000180018b40 f i PvdMetaDataPvdBinding.obj
 0001:00017d60       ??$visitInstanceProperties@U?$PvdPropertyFilter@UPvdClassInfoDefine@Vd@physx@@@Vd@physx@@@PxHeightFieldDescGeneratedInfo@physx@@QEBAIU?$PvdPropertyFilter@UPvdClassInfoDefine@Vd@physx@@@Vd@1@I@Z 0000000180018d60 f i PvdMetaDataPvdBinding.obj
 0001:00018030       ??$visitInstanceProperties@U?$PvdPropertyFilter@UPvdClassInfoDefine@Vd@physx@@@Vd@physx@@@PxHeightFieldGeometryGeneratedInfo@physx@@QEBAIU?$PvdPropertyFilter@UPvdClassInfoDefine@Vd@physx@@@Vd@1@I@Z 0000000180019030 f i PvdMetaDataPvdBinding.obj
 0001:00018290       ??$visitInstanceProperties@U?$PvdPropertyFilter@UPvdClassInfoDefine@Vd@physx@@@Vd@physx@@@PxMaterialGeneratedInfo@physx@@QEBAIU?$PvdPropertyFilter@UPvdClassInfoDefine@Vd@physx@@@Vd@1@I@Z 0000000180019290 f i PvdMetaDataPvdBinding.obj
 0001:00018660       ??$visitInstanceProperties@U?$PvdPropertyFilter@UPvdClassInfoDefine@Vd@physx@@@Vd@physx@@@PxMeshScaleGeneratedInfo@physx@@QEBAIU?$PvdPropertyFilter@UPvdClassInfoDefine@Vd@physx@@@Vd@1@I@Z 0000000180019660 f i PvdMetaDataPvdBinding.obj
 0001:00018770       ??$visitInstanceProperties@U?$PvdPropertyFilter@UPvdClassInfoDefine@Vd@physx@@@Vd@physx@@@PxRefCountedGeneratedInfo@physx@@QEBAIU?$PvdPropertyFilter@UPvdClassInfoDefine@Vd@physx@@@Vd@1@I@Z 0000000180019770 f i PvdMetaDataPvdBinding.obj
 0001:00018800       ??$visitInstanceProperties@U?$PvdPropertyFilter@UPvdClassInfoDefine@Vd@physx@@@Vd@physx@@@PxRigidBodyGeneratedInfo@physx@@QEBAIU?$PvdPropertyFilter@UPvdClassInfoDefine@Vd@physx@@@Vd@1@I@Z 0000000180019800 f i PvdMetaDataPvdBinding.obj
 0001:00018da0       ??$visitInstanceProperties@U?$PvdPropertyFilter@UPvdClassInfoDefine@Vd@physx@@@Vd@physx@@@PxRigidDynamicGeneratedInfo@physx@@QEBAIU?$PvdPropertyFilter@UPvdClassInfoDefine@Vd@physx@@@Vd@1@I@Z 0000000180019da0 f i PvdMetaDataPvdBinding.obj
 0001:00019260       ??$visitInstanceProperties@U?$PvdPropertyFilter@UPvdClassInfoDefine@Vd@physx@@@Vd@physx@@@PxSceneDescGeneratedInfo@physx@@QEBAIU?$PvdPropertyFilter@UPvdClassInfoDefine@Vd@physx@@@Vd@1@I@Z 000000018001a260 f i PvdMetaDataPvdBinding.obj
 0001:00019f30       ??$visitInstanceProperties@U?$PvdPropertyFilter@UPvdClassInfoDefine@Vd@physx@@@Vd@physx@@@PxSceneLimitsGeneratedInfo@physx@@QEBAIU?$PvdPropertyFilter@UPvdClassInfoDefine@Vd@physx@@@Vd@1@I@Z 000000018001af30 f i PvdMetaDataPvdBinding.obj
 0001:0001a250       ??$visitInstanceProperties@U?$PvdPropertyFilter@UPvdClassInfoDefine@Vd@physx@@@Vd@physx@@@PxSceneQueryDescGeneratedInfo@physx@@QEBAIU?$PvdPropertyFilter@UPvdClassInfoDefine@Vd@physx@@@Vd@1@I@Z 000000018001b250 f i PvdMetaDataPvdBinding.obj
 0001:0001a770       ??$visitInstanceProperties@U?$PvdPropertyFilter@UPvdClassInfoDefine@Vd@physx@@@Vd@physx@@@PxShapeGeneratedInfo@physx@@QEBAIU?$PvdPropertyFilter@UPvdClassInfoDefine@Vd@physx@@@Vd@1@I@Z 000000018001b770 f i PvdMetaDataPvdBinding.obj
 0001:0001acc0       ??$visitInstanceProperties@U?$PvdPropertyFilter@UPvdClassInfoDefine@Vd@physx@@@Vd@physx@@@PxSimulationStatisticsGeneratedInfo@physx@@QEBAIU?$PvdPropertyFilter@UPvdClassInfoDefine@Vd@physx@@@Vd@1@I@Z 000000018001bcc0 f i PvdMetaDataPvdBinding.obj
 0001:0001c0d0       ??$visitInstanceProperties@U?$PvdPropertyFilter@UPvdClassInfoDefine@Vd@physx@@@Vd@physx@@@PxTriangleMeshGeometryGeneratedInfo@physx@@QEBAIU?$PvdPropertyFilter@UPvdClassInfoDefine@Vd@physx@@@Vd@1@I@Z 000000018001d0d0 f i PvdMetaDataPvdBinding.obj
 0001:0001c2d0       ??$visitInstanceProperties@U?$PvdPropertyFilter@UPvdClassInfoDefine@Vd@physx@@@Vd@physx@@@PxgDynamicsMemoryConfigGeneratedInfo@physx@@QEBAIU?$PvdPropertyFilter@UPvdClassInfoDefine@Vd@physx@@@Vd@1@I@Z 000000018001d2d0 f i PvdMetaDataPvdBinding.obj
 0001:0001c7c0       ??$visitInstanceProperties@U?$PvdPropertyFilter@UPvdClassInfoValueStructDefine@Vd@physx@@@Vd@physx@@@PxActorGeneratedInfo@physx@@QEBAIU?$PvdPropertyFilter@UPvdClassInfoValueStructDefine@Vd@physx@@@Vd@1@I@Z 000000018001d7c0 f i PvdMetaDataPvdBinding.obj
 0001:0001c970       ??$visitInstanceProperties@U?$PvdPropertyFilter@UPvdClassInfoValueStructDefine@Vd@physx@@@Vd@physx@@@PxAggregateGeneratedInfo@physx@@QEBAIU?$PvdPropertyFilter@UPvdClassInfoValueStructDefine@Vd@physx@@@Vd@1@I@Z 000000018001d970 f i PvdMetaDataPvdBinding.obj
 0001:0001cb40       ??$visitInstanceProperties@U?$PvdPropertyFilter@UPvdClassInfoValueStructDefine@Vd@physx@@@Vd@physx@@@PxArticulationDriveGeneratedInfo@physx@@QEBAIU?$PvdPropertyFilter@UPvdClassInfoValueStructDefine@Vd@physx@@@Vd@1@I@Z 000000018001db40 f i PvdMetaDataPvdBinding.obj
 0001:0001cd00       ??$visitInstanceProperties@U?$PvdPropertyFilter@UPvdClassInfoValueStructDefine@Vd@physx@@@Vd@physx@@@PxArticulationJointReducedCoordinateGeneratedInfo@physx@@QEBAIU?$PvdPropertyFilter@UPvdClassInfoValueStructDefine@Vd@physx@@@Vd@1@I@Z 000000018001dd00 f i PvdMetaDataPvdBinding.obj
 0001:0001d4f0       ??$visitInstanceProperties@U?$PvdPropertyFilter@UPvdClassInfoValueStructDefine@Vd@physx@@@Vd@physx@@@PxArticulationLinkGeneratedInfo@physx@@QEBAIU?$PvdPropertyFilter@UPvdClassInfoValueStructDefine@Vd@physx@@@Vd@1@I@Z 000000018001e4f0 f i PvdMetaDataPvdBinding.obj
 0001:0001d780       ??$visitInstanceProperties@U?$PvdPropertyFilter@UPvdClassInfoValueStructDefine@Vd@physx@@@Vd@physx@@@PxArticulationReducedCoordinateGeneratedInfo@physx@@QEBAIU?$PvdPropertyFilter@UPvdClassInfoValueStructDefine@Vd@physx@@@Vd@1@I@Z 000000018001e780 f i PvdMetaDataPvdBinding.obj
 0001:0001dc90       ??$visitInstanceProperties@U?$PvdPropertyFilter@UPvdClassInfoValueStructDefine@Vd@physx@@@Vd@physx@@@PxConstraintGeneratedInfo@physx@@QEBAIU?$PvdPropertyFilter@UPvdClassInfoValueStructDefine@Vd@physx@@@Vd@1@I@Z 000000018001ec90 f i PvdMetaDataPvdBinding.obj
 0001:0001e000       ??$visitInstanceProperties@U?$PvdPropertyFilter@UPvdClassInfoValueStructDefine@Vd@physx@@@Vd@physx@@@PxFEMSoftBodyMaterialGeneratedInfo@physx@@QEBAIU?$PvdPropertyFilter@UPvdClassInfoValueStructDefine@Vd@physx@@@Vd@1@I@Z 000000018001f000 f i PvdMetaDataPvdBinding.obj
 0001:0001e1e0       ??$visitInstanceProperties@U?$PvdPropertyFilter@UPvdClassInfoValueStructDefine@Vd@physx@@@Vd@physx@@@PxHeightFieldDescGeneratedInfo@physx@@QEBAIU?$PvdPropertyFilter@UPvdClassInfoValueStructDefine@Vd@physx@@@Vd@1@I@Z 000000018001f1e0 f i PvdMetaDataPvdBinding.obj
 0001:0001e430       ??$visitInstanceProperties@U?$PvdPropertyFilter@UPvdClassInfoValueStructDefine@Vd@physx@@@Vd@physx@@@PxHeightFieldGeometryGeneratedInfo@physx@@QEBAIU?$PvdPropertyFilter@UPvdClassInfoValueStructDefine@Vd@physx@@@Vd@1@I@Z 000000018001f430 f i PvdMetaDataPvdBinding.obj
 0001:0001e630       ??$visitInstanceProperties@U?$PvdPropertyFilter@UPvdClassInfoValueStructDefine@Vd@physx@@@Vd@physx@@@PxMaterialGeneratedInfo@physx@@QEBAIU?$PvdPropertyFilter@UPvdClassInfoValueStructDefine@Vd@physx@@@Vd@1@I@Z 000000018001f630 f i PvdMetaDataPvdBinding.obj
 0001:0001e970       ??$visitInstanceProperties@U?$PvdPropertyFilter@UPvdClassInfoValueStructDefine@Vd@physx@@@Vd@physx@@@PxMeshScaleGeneratedInfo@physx@@QEBAIU?$PvdPropertyFilter@UPvdClassInfoValueStructDefine@Vd@physx@@@Vd@1@I@Z 000000018001f970 f i PvdMetaDataPvdBinding.obj
 0001:0001ea80       ??$visitInstanceProperties@U?$PvdPropertyFilter@UPvdClassInfoValueStructDefine@Vd@physx@@@Vd@physx@@@PxRefCountedGeneratedInfo@physx@@QEBAIU?$PvdPropertyFilter@UPvdClassInfoValueStructDefine@Vd@physx@@@Vd@1@I@Z 000000018001fa80 f i PvdMetaDataPvdBinding.obj
 0001:0001eb00       ??$visitInstanceProperties@U?$PvdPropertyFilter@UPvdClassInfoValueStructDefine@Vd@physx@@@Vd@physx@@@PxRigidBodyGeneratedInfo@physx@@QEBAIU?$PvdPropertyFilter@UPvdClassInfoValueStructDefine@Vd@physx@@@Vd@1@I@Z 000000018001fb00 f i PvdMetaDataPvdBinding.obj
 0001:0001f060       ??$visitInstanceProperties@U?$PvdPropertyFilter@UPvdClassInfoValueStructDefine@Vd@physx@@@Vd@physx@@@PxRigidDynamicGeneratedInfo@physx@@QEBAIU?$PvdPropertyFilter@UPvdClassInfoValueStructDefine@Vd@physx@@@Vd@1@I@Z 0000000180020060 f i PvdMetaDataPvdBinding.obj
 0001:0001f4b0       ??$visitInstanceProperties@U?$PvdPropertyFilter@UPvdClassInfoValueStructDefine@Vd@physx@@@Vd@physx@@@PxSceneDescGeneratedInfo@physx@@QEBAIU?$PvdPropertyFilter@UPvdClassInfoValueStructDefine@Vd@physx@@@Vd@1@I@Z 00000001800204b0 f i PvdMetaDataPvdBinding.obj
 0001:0001ffc0       ??$visitInstanceProperties@U?$PvdPropertyFilter@UPvdClassInfoValueStructDefine@Vd@physx@@@Vd@physx@@@PxSceneLimitsGeneratedInfo@physx@@QEBAIU?$PvdPropertyFilter@UPvdClassInfoValueStructDefine@Vd@physx@@@Vd@1@I@Z 0000000180020fc0 f i PvdMetaDataPvdBinding.obj
 0001:000202e0       ??$visitInstanceProperties@U?$PvdPropertyFilter@UPvdClassInfoValueStructDefine@Vd@physx@@@Vd@physx@@@PxSceneQueryDescGeneratedInfo@physx@@QEBAIU?$PvdPropertyFilter@UPvdClassInfoValueStructDefine@Vd@physx@@@Vd@1@I@Z 00000001800212e0 f i PvdMetaDataPvdBinding.obj
 0001:000206c0       ??$visitInstanceProperties@U?$PvdPropertyFilter@UPvdClassInfoValueStructDefine@Vd@physx@@@Vd@physx@@@PxShapeGeneratedInfo@physx@@QEBAIU?$PvdPropertyFilter@UPvdClassInfoValueStructDefine@Vd@physx@@@Vd@1@I@Z 00000001800216c0 f i PvdMetaDataPvdBinding.obj
 0001:00020bc0       ??$visitInstanceProperties@U?$PvdPropertyFilter@UPvdClassInfoValueStructDefine@Vd@physx@@@Vd@physx@@@PxSimulationStatisticsGeneratedInfo@physx@@QEBAIU?$PvdPropertyFilter@UPvdClassInfoValueStructDefine@Vd@physx@@@Vd@1@I@Z 0000000180021bc0 f i PvdMetaDataPvdBinding.obj
 0001:00021f60       ??$visitInstanceProperties@U?$PvdPropertyFilter@UPvdClassInfoValueStructDefine@Vd@physx@@@Vd@physx@@@PxgDynamicsMemoryConfigGeneratedInfo@physx@@QEBAIU?$PvdPropertyFilter@UPvdClassInfoValueStructDefine@Vd@physx@@@Vd@1@I@Z 0000000180022f60 f i PvdMetaDataPvdBinding.obj
 0001:00022450       ??0?$ScopedPropertyValueSender@UPvdOverlap@Vd@physx@@$0CA@U123@U?$NullConverter@UPvdOverlap@Vd@physx@@@23@@Vd@physx@@QEAA@AEAVPvdDataStream@pvdsdk@2@PEBXPEBD@Z 0000000180023450 f i PvdMetaDataPvdBinding.obj
 0001:00022670       ??0?$ScopedPropertyValueSender@UPvdRaycast@Vd@physx@@$0CA@U123@U?$NullConverter@UPvdRaycast@Vd@physx@@@23@@Vd@physx@@QEAA@AEAVPvdDataStream@pvdsdk@2@PEBXPEBD@Z 0000000180023670 f i PvdMetaDataPvdBinding.obj
 0001:00022890       ??0?$ScopedPropertyValueSender@UPvdSqHit@Vd@physx@@$0CA@U123@U?$NullConverter@UPvdSqHit@Vd@physx@@@23@@Vd@physx@@QEAA@AEAVPvdDataStream@pvdsdk@2@PEBXPEBD@Z 0000000180023890 f i PvdMetaDataPvdBinding.obj
 0001:00022ca0       ??0?$ScopedPropertyValueSender@UPxFilterData@physx@@$0CA@U12@U?$NullConverter@UPxFilterData@physx@@@Vd@2@@Vd@physx@@QEAA@AEAVPvdDataStream@pvdsdk@2@PEBXPEBD@Z 0000000180023ca0 f i PvdMetaDataPvdBinding.obj
 0001:00022ea0       ??0PvdMetaDataBinding@Vd@physx@@QEAA@XZ 0000000180023ea0 f   PvdMetaDataPvdBinding.obj
 0001:00022fc0       ??0PxSimulationStatistics@physx@@QEAA@XZ 0000000180023fc0 f i PvdMetaDataPvdBinding.obj
 0001:00023150       ??1PvdMetaDataBinding@Vd@physx@@QEAA@XZ 0000000180024150 f   PvdMetaDataPvdBinding.obj
 0001:000232a0       ??_EChangeOjectRefCmd@Vd@physx@@UEAAPEAXI@Z 00000001800242a0 f i PvdMetaDataPvdBinding.obj
 0001:000232a0       ??_GChangeOjectRefCmd@Vd@physx@@UEAAPEAXI@Z 00000001800242a0 f i PvdMetaDataPvdBinding.obj
 0001:000232d0       ??_EPvdCommand@PvdInstanceDataStream@pvdsdk@physx@@UEAAPEAXI@Z 00000001800242d0 f i PvdMetaDataPvdBinding.obj
 0001:000232d0       ??_GPvdCommand@PvdInstanceDataStream@pvdsdk@physx@@UEAAPEAXI@Z 00000001800242d0 f i PvdMetaDataPvdBinding.obj
 0001:00023300       ??_GPvdMetaDataBindingData@Vd@physx@@QEAAPEAXI@Z 0000000180024300 f i PvdMetaDataPvdBinding.obj
 0001:00023450       ?allocate@?$PxArray@PEAVPxShape@physx@@V?$PxInlineAllocator@$0CI@V?$PxReflectionAllocator@PEAVPxShape@physx@@@physx@@@2@@physx@@IEAAPEAPEAVPxShape@2@I@Z 0000000180024450 f i PvdMetaDataPvdBinding.obj
 0001:00023510       ?append@?$ScopedPropertyValueSender@UPvdSqHit@Vd@physx@@$0CA@U123@U?$NullConverter@UPvdSqHit@Vd@physx@@@23@@Vd@physx@@QEAAXAEBUPvdSqHit@23@@Z 0000000180024510 f i PvdMetaDataPvdBinding.obj
 0001:000235d0       ?attachAggregateActor@PvdMetaDataBinding@Vd@physx@@QEAAXAEAVPvdDataStream@pvdsdk@3@AEBVPxAggregate@3@AEBVPxActor@3@@Z 00000001800245d0 f   PvdMetaDataPvdBinding.obj
 0001:000235f0       ?canRun@ChangeOjectRefCmd@Vd@physx@@UEAA_NAEAVPvdInstanceDataStream@pvdsdk@3@@Z 00000001800245f0 f i PvdMetaDataPvdBinding.obj
 0001:00023610       ?canRun@PvdCommand@PvdInstanceDataStream@pvdsdk@physx@@UEAA_NAEAV234@@Z 0000000180024610 f i PvdMetaDataPvdBinding.obj
 0001:00023610       ?getOutOfBoundsObjects@AABBManagerBase@Bp@physx@@UEAA_NAEAUOutOfBoundsData@123@@Z 0000000180024610 f i LowLevelAABB_static_64:BpAABBManagerBase.obj
 0001:00023610       ?hasFEMCloth@PxsSimulationController@physx@@UEBA_NXZ 0000000180024610 f i SimulationController_static_64:ScScene.obj
 0001:00023610       ?hasHairSystems@PxsSimulationController@physx@@UEBA_NXZ 0000000180024610 f i SimulationController_static_64:ScScene.obj
 0001:00023610       ?hasSoftBodies@PxsSimulationController@physx@@UEBA_NXZ 0000000180024610 f i SimulationController_static_64:ScScene.obj
 0001:00023610       ?isSubordinate@?$PxSerializerDefaultAdapter@VBV4TriangleMesh@Gu@physx@@@physx@@UEBA_NXZ 0000000180024610 f i NpSerializerAdapter.obj
 0001:00023610       ?isSubordinate@?$PxSerializerDefaultAdapter@VConvexMesh@Gu@physx@@@physx@@UEBA_NXZ 0000000180024610 f i NpSerializerAdapter.obj
 0001:00023610       ?isSubordinate@?$PxSerializerDefaultAdapter@VHeightField@Gu@physx@@@physx@@UEBA_NXZ 0000000180024610 f i NpSerializerAdapter.obj
 0001:00023610       ?isSubordinate@?$PxSerializerDefaultAdapter@VNpAggregate@physx@@@physx@@UEBA_NXZ 0000000180024610 f i NpSerializerAdapter.obj
 0001:00023610       ?isSubordinate@?$PxSerializerDefaultAdapter@VNpArticulationAttachment@physx@@@physx@@UEBA_NXZ 0000000180024610 f i NpSerializerAdapter.obj
 0001:00023610       ?isSubordinate@?$PxSerializerDefaultAdapter@VNpArticulationFixedTendon@physx@@@physx@@UEBA_NXZ 0000000180024610 f i NpSerializerAdapter.obj
 0001:00023610       ?isSubordinate@?$PxSerializerDefaultAdapter@VNpArticulationReducedCoordinate@physx@@@physx@@UEBA_NXZ 0000000180024610 f i NpSerializerAdapter.obj
 0001:00023610       ?isSubordinate@?$PxSerializerDefaultAdapter@VNpArticulationSensor@physx@@@physx@@UEBA_NXZ 0000000180024610 f i NpSerializerAdapter.obj
 0001:00023610       ?isSubordinate@?$PxSerializerDefaultAdapter@VNpArticulationSpatialTendon@physx@@@physx@@UEBA_NXZ 0000000180024610 f i NpSerializerAdapter.obj
 0001:00023610       ?isSubordinate@?$PxSerializerDefaultAdapter@VNpArticulationTendonJoint@physx@@@physx@@UEBA_NXZ 0000000180024610 f i NpSerializerAdapter.obj
 0001:00023610       ?isSubordinate@?$PxSerializerDefaultAdapter@VNpMaterial@physx@@@physx@@UEBA_NXZ 0000000180024610 f i NpSerializerAdapter.obj
 0001:00023610       ?isSubordinate@?$PxSerializerDefaultAdapter@VNpRigidDynamic@physx@@@physx@@UEBA_NXZ 0000000180024610 f i NpSerializerAdapter.obj
 0001:00023610       ?isSubordinate@?$PxSerializerDefaultAdapter@VNpRigidStatic@physx@@@physx@@UEBA_NXZ 0000000180024610 f i NpSerializerAdapter.obj
 0001:00023610       ?isSubordinate@?$PxSerializerDefaultAdapter@VNpShape@physx@@@physx@@UEBA_NXZ 0000000180024610 f i NpSerializerAdapter.obj
 0001:00023610       ?isSubordinate@?$PxSerializerDefaultAdapter@VPruningStructure@Sq@physx@@@physx@@UEBA_NXZ 0000000180024610 f i NpSerializerAdapter.obj
 0001:00023610       ?isSubordinate@?$PxSerializerDefaultAdapter@VRTreeTriangleMesh@Gu@physx@@@physx@@UEBA_NXZ 0000000180024610 f i NpSerializerAdapter.obj
 0001:00023610       ?processTouches@?$PxHitBuffer@UPxRaycastHit@physx@@@physx@@MEAA_NPEBUPxRaycastHit@2@I@Z 0000000180024610 f i SceneQuery_static_64:SqQuery.obj
 0001:00023610       ?processTouches@?$PxHitBuffer@UPxSweepHit@physx@@@physx@@MEAA_NPEBUPxSweepHit@2@I@Z 0000000180024610 f i SceneQuery_static_64:SqQuery.obj
 0001:00023610       ?removeRegion@BroadPhaseBase@Bp@physx@@UEAA_NI@Z 0000000180024610 f i LowLevelAABB_static_64:BpBroadPhaseSap.obj
 0001:00023610       ?update@PersistentPairs@Bp@physx@@UEAA_NAEAVAABBManager@23@PEAUBpCacheData@23@@Z 0000000180024610 f i LowLevelAABB_static_64:BpAABBManager.obj
 0001:00023720       ?create@?$PxHashBase@PEAVPxActor@physx@@PEAV12@U?$PxHash@PEAVPxActor@physx@@@2@UGetKey@?$PxHashSetBase@PEAVPxActor@physx@@U?$PxHash@PEAVPxActor@physx@@@2@VPxAllocator@2@$0A@@2@VPxAllocator@2@$0A@@physx@@QEAAPEAPEAVPxActor@2@AEBQEAV32@AEA_N@Z 0000000180024720 f i PvdMetaDataPvdBinding.obj
 0001:00023720       ?create@?$PxHashBase@PEAVPxAggregate@physx@@PEAV12@U?$PxHash@PEAVPxAggregate@physx@@@2@UGetKey@?$PxHashSetBase@PEAVPxAggregate@physx@@U?$PxHash@PEAVPxAggregate@physx@@@2@VPxAllocator@2@$0A@@2@VPxAllocator@2@$0A@@physx@@QEAAPEAPEAVPxAggregate@2@AEBQEAV32@AEA_N@Z 0000000180024720 f i NpFactory.obj
 0001:00023720       ?create@?$PxHashBase@PEAVPxArticulationReducedCoordinate@physx@@PEAV12@U?$PxHash@PEAVPxArticulationReducedCoordinate@physx@@@2@UGetKey@?$PxHashSetBase@PEAVPxArticulationReducedCoordinate@physx@@U?$PxHash@PEAVPxArticulationReducedCoordinate@physx@@@2@VPxAllocator@2@$0A@@2@VPxAllocator@2@$0A@@physx@@QEAAPEAPEAVPxArticulationReducedCoordinate@2@AEBQEAV32@AEA_N@Z 0000000180024720 f i NpFactory.obj
 0001:00023720       ?create@?$PxHashBase@PEAVPxConstraint@physx@@PEAV12@U?$PxHash@PEAVPxConstraint@physx@@@2@UGetKey@?$PxHashSetBase@PEAVPxConstraint@physx@@U?$PxHash@PEAVPxConstraint@physx@@@2@VPxAllocator@2@$0A@@2@VPxAllocator@2@$0A@@physx@@QEAAPEAPEAVPxConstraint@2@AEBQEAV32@AEA_N@Z 0000000180024720 f i NpFactory.obj
 0001:00023720       ?create@?$PxHashBase@PEAVPxParticleBuffer@physx@@PEAV12@U?$PxHash@PEAVPxParticleBuffer@physx@@@2@UGetKey@?$PxHashSetBase@PEAVPxParticleBuffer@physx@@U?$PxHash@PEAVPxParticleBuffer@physx@@@2@VPxAllocator@2@$0A@@2@VPxAllocator@2@$0A@@physx@@QEAAPEAPEAVPxParticleBuffer@2@AEBQEAV32@AEA_N@Z 0000000180024720 f i NpFactory.obj
 0001:00023720       ?create@?$PxHashBase@PEBVPxBase@physx@@PEBV12@U?$PxHash@PEBVPxBase@physx@@@2@UGetKey@?$PxHashSetBase@PEBVPxBase@physx@@U?$PxHash@PEBVPxBase@physx@@@2@VPxAllocator@2@$0A@@2@VPxAllocator@2@$0A@@physx@@QEAAPEAPEBVPxBase@2@AEBQEBV32@AEA_N@Z 0000000180024720 f i NpPhysics.obj
 0001:00023720       ?create@?$PxHashBase@PEBVPxRigidActor@physx@@PEBV12@U?$PxHash@PEBVPxRigidActor@physx@@@2@UGetKey@?$PxHashSetBase@PEBVPxRigidActor@physx@@U?$PxHash@PEBVPxRigidActor@physx@@@2@VPxAllocator@2@$0A@@2@VPxAllocator@2@$0A@@physx@@QEAAPEAPEBVPxRigidActor@2@AEBQEBV32@AEA_N@Z 0000000180024720 f i PvdMetaDataPvdBinding.obj
 0001:000238c0       ?createInstance@PvdMetaDataBinding@Vd@physx@@QEAAXAEAVPvdDataStream@pvdsdk@3@AEBVPxAggregate@3@AEBVPxScene@3@@Z 00000001800248c0 f   PvdMetaDataPvdBinding.obj
 0001:000239d0       ?createInstance@PvdMetaDataBinding@Vd@physx@@QEAAXAEAVPvdDataStream@pvdsdk@3@AEBVPxArticulationReducedCoordinate@3@AEBVPxScene@3@AEBVPxPhysics@3@PEAVPsPvd@53@@Z 00000001800249d0 f   PvdMetaDataPvdBinding.obj
 0001:00023f10       ?createInstance@PvdMetaDataBinding@Vd@physx@@QEAAXAEAVPvdDataStream@pvdsdk@3@AEBVPxConvexMesh@3@AEBVPxPhysics@3@@Z 0000000180024f10 f   PvdMetaDataPvdBinding.obj
 0001:00024220       ?createInstance@PvdMetaDataBinding@Vd@physx@@QEAAXAEAVPvdDataStream@pvdsdk@3@AEBVPxFEMSoftBodyMaterial@3@AEBVPxPhysics@3@@Z 0000000180025220 f   PvdMetaDataPvdBinding.obj
 0001:000242e0       ?createInstance@PvdMetaDataBinding@Vd@physx@@QEAAXAEAVPvdDataStream@pvdsdk@3@AEBVPxHeightField@3@AEBVPxPhysics@3@@Z 00000001800252e0 f   PvdMetaDataPvdBinding.obj
 0001:000243b0       ?createInstance@PvdMetaDataBinding@Vd@physx@@QEAAXAEAVPvdDataStream@pvdsdk@3@AEBVPxMaterial@3@AEBVPxPhysics@3@@Z 00000001800253b0 f   PvdMetaDataPvdBinding.obj
 0001:000244d0       ?createInstance@PvdMetaDataBinding@Vd@physx@@QEAAXAEAVPvdDataStream@pvdsdk@3@AEBVPxRigidDynamic@3@AEBVPxScene@3@AEBVPxPhysics@3@PEAVPsPvd@53@@Z 00000001800254d0 f   PvdMetaDataPvdBinding.obj
 0001:000245d0       ?createInstance@PvdMetaDataBinding@Vd@physx@@QEAAXAEAVPvdDataStream@pvdsdk@3@AEBVPxRigidStatic@3@AEBVPxScene@3@AEBVPxPhysics@3@PEAVPsPvd@53@@Z 00000001800255d0 f   PvdMetaDataPvdBinding.obj
 0001:000246d0       ?createInstance@PvdMetaDataBinding@Vd@physx@@QEAAXAEAVPvdDataStream@pvdsdk@3@AEBVPxShape@3@AEBVPxRigidActor@3@AEBVPxPhysics@3@PEAVPsPvd@53@@Z 00000001800256d0 f   PvdMetaDataPvdBinding.obj
 0001:00024b00       ?createInstance@PvdMetaDataBinding@Vd@physx@@QEAAXAEAVPvdDataStream@pvdsdk@3@AEBVPxTetrahedronMesh@3@AEBVPxPhysics@3@@Z 0000000180025b00 f   PvdMetaDataPvdBinding.obj
 0001:00024cd0       ?createInstance@PvdMetaDataBinding@Vd@physx@@QEAAXAEAVPvdDataStream@pvdsdk@3@AEBVPxTriangleMesh@3@AEBVPxPhysics@3@@Z 0000000180025cd0 f   PvdMetaDataPvdBinding.obj
 0001:00024f70       ?destroyInstance@PvdMetaDataBinding@Vd@physx@@QEAAXAEAVPvdDataStream@pvdsdk@3@AEBVPxAggregate@3@AEBVPxScene@3@@Z 0000000180025f70 f   PvdMetaDataPvdBinding.obj
 0001:00024fb0       ?destroyInstance@PvdMetaDataBinding@Vd@physx@@QEAAXAEAVPvdDataStream@pvdsdk@3@AEBVPxArticulationLink@3@@Z 0000000180025fb0 f   PvdMetaDataPvdBinding.obj
 0001:00025010       ?destroyInstance@PvdMetaDataBinding@Vd@physx@@QEAAXAEAVPvdDataStream@pvdsdk@3@AEBVPxArticulationReducedCoordinate@3@AEBVPxScene@3@@Z 0000000180026010 f   PvdMetaDataPvdBinding.obj
 0001:00025050       ?destroyInstance@PvdMetaDataBinding@Vd@physx@@QEAAXAEAVPvdDataStream@pvdsdk@3@AEBVPxConvexMesh@3@AEBVPxPhysics@3@@Z 0000000180026050 f   PvdMetaDataPvdBinding.obj
 0001:00025090       ?destroyInstance@PvdMetaDataBinding@Vd@physx@@QEAAXAEAVPvdDataStream@pvdsdk@3@AEBVPxHeightField@3@AEBVPxPhysics@3@@Z 0000000180026090 f   PvdMetaDataPvdBinding.obj
 0001:000250d0       ?destroyInstance@PvdMetaDataBinding@Vd@physx@@QEAAXAEAVPvdDataStream@pvdsdk@3@AEBVPxMaterial@3@AEBVPxPhysics@3@@Z 00000001800260d0 f   PvdMetaDataPvdBinding.obj
 0001:00025110       ?destroyInstance@PvdMetaDataBinding@Vd@physx@@QEAAXAEAVPvdDataStream@pvdsdk@3@AEBVPxRigidDynamic@3@AEBVPxScene@3@@Z 0000000180026110 f   PvdMetaDataPvdBinding.obj
 0001:00025160       ?destroyInstance@PvdMetaDataBinding@Vd@physx@@QEAAXAEAVPvdDataStream@pvdsdk@3@AEBVPxRigidStatic@3@AEBVPxScene@3@@Z 0000000180026160 f   PvdMetaDataPvdBinding.obj
 0001:000251b0       ?destroyInstance@PvdMetaDataBinding@Vd@physx@@QEAAXAEAVPvdDataStream@pvdsdk@3@AEBVPxShape@3@AEBVPxRigidActor@3@@Z 00000001800261b0 f   PvdMetaDataPvdBinding.obj
 0001:00025560       ?destroyInstance@PvdMetaDataBinding@Vd@physx@@QEAAXAEAVPvdDataStream@pvdsdk@3@AEBVPxTetrahedronMesh@3@AEBVPxPhysics@3@@Z 0000000180026560 f   PvdMetaDataPvdBinding.obj
 0001:000255a0       ?destroyInstance@PvdMetaDataBinding@Vd@physx@@QEAAXAEAVPvdDataStream@pvdsdk@3@AEBVPxTriangleMesh@3@AEBVPxPhysics@3@@Z 00000001800265a0 f   PvdMetaDataPvdBinding.obj
 0001:000255e0       ?detachAggregateActor@PvdMetaDataBinding@Vd@physx@@QEAAXAEAVPvdDataStream@pvdsdk@3@AEBVPxAggregate@3@AEBVPxActor@3@@Z 00000001800265e0 f   PvdMetaDataPvdBinding.obj
 0001:00025600       ?erase@?$PxHashBase@V?$PxPair@QEAVPxDeletionListener@physx@@PEAUNpDelListenerEntry@NpPhysics@2@@physx@@PEAVPxDeletionListener@2@U?$PxHash@PEAVPxDeletionListener@physx@@@2@UGetKey@?$PxHashMapBase@PEAVPxDeletionListener@physx@@PEAUNpDelListenerEntry@NpPhysics@2@U?$PxHash@PEAVPxDeletionListener@physx@@@2@VPxAllocator@2@@2@VPxAllocator@2@$00@physx@@QEAA_NAEBQEAVPxDeletionListener@2@@Z 0000000180026600 f i NpPhysics.obj
 0001:00025600       ?erase@?$PxHashBase@V?$PxPair@QEBVPxShape@physx@@PEAV?$PxHashSet@PEBVPxRigidActor@physx@@U?$PxHash@PEBVPxRigidActor@physx@@@2@VPxAllocator@2@@2@@physx@@PEBVPxShape@2@U?$PxHash@PEBVPxShape@physx@@@2@UGetKey@?$PxHashMapBase@PEBVPxShape@physx@@PEAV?$PxHashSet@PEBVPxRigidActor@physx@@U?$PxHash@PEBVPxRigidActor@physx@@@2@VPxAllocator@2@@2@U?$PxHash@PEBVPxShape@physx@@@2@VPxAllocator@2@@2@VPxAllocator@2@$00@physx@@QEAA_NAEBQEBVPxShape@2@@Z 0000000180026600 f i PvdMetaDataPvdBinding.obj
 0001:000257b0       ?erase@?$PxHashSetBase@PEAVPxActor@physx@@U?$PxHash@PEAVPxActor@physx@@@2@VPxAllocator@2@$0A@@physx@@QEAA_NAEBQEAVPxActor@2@@Z 00000001800267b0 f i PvdMetaDataPvdBinding.obj
 0001:00025880       ?find@?$PxHashMapBase@PEBVPxShape@physx@@PEAV?$PxHashSet@PEBVPxRigidActor@physx@@U?$PxHash@PEBVPxRigidActor@physx@@@2@VPxAllocator@2@@2@U?$PxHash@PEBVPxShape@physx@@@2@VPxAllocator@2@@physx@@QEBAPEBV?$PxPair@QEBVPxShape@physx@@PEAV?$PxHashSet@PEBVPxRigidActor@physx@@U?$PxHash@PEBVPxRigidActor@physx@@@2@VPxAllocator@2@@2@@2@AEBQEBVPxShape@2@@Z 0000000180026880 f i PvdMetaDataPvdBinding.obj
 0001:00025920       ?originShift@PvdMetaDataBinding@Vd@physx@@QEAAXAEAVPvdDataStream@pvdsdk@3@PEBVPxScene@3@V?$PxVec3T@M@3@@Z 0000000180026920 f   PvdMetaDataPvdBinding.obj
 0001:00025970       ?recreate@?$PxArray@EV?$PxReflectionAllocator@E@physx@@@physx@@IEAAXI@Z 0000000180026970 f i PvdMetaDataPvdBinding.obj
 0001:00025a60       ?recreate@?$PxArray@PEAVPxArticulationLink@physx@@V?$PxReflectionAllocator@PEAVPxArticulationLink@physx@@@2@@physx@@IEAAXI@Z 0000000180026a60 f i PvdMetaDataPvdBinding.obj
 0001:00025b70       ?recreate@?$PxArray@PEAVPxShape@physx@@V?$PxInlineAllocator@$0CI@V?$PxReflectionAllocator@PEAVPxShape@physx@@@physx@@@2@@physx@@IEAAXI@Z 0000000180026b70 f i PvdMetaDataPvdBinding.obj
 0001:00025c10       ?registerSDKProperties@PvdMetaDataBinding@Vd@physx@@QEAAXAEAVPvdDataStream@pvdsdk@3@@Z 0000000180026c10 f   PvdMetaDataPvdBinding.obj
 0001:0002a240       ?releaseAndRecreateGeometry@PvdMetaDataBinding@Vd@physx@@QEAAXAEAVPvdDataStream@pvdsdk@3@AEBVPxShape@3@AEAVPxPhysics@3@PEAVPsPvd@53@@Z 000000018002b240 f   PvdMetaDataPvdBinding.obj
 0001:0002a420       ?reserveInternal@?$PxHashBase@PEAVPxActor@physx@@PEAV12@U?$PxHash@PEAVPxActor@physx@@@2@UGetKey@?$PxHashSetBase@PEAVPxActor@physx@@U?$PxHash@PEAVPxActor@physx@@@2@VPxAllocator@2@$0A@@2@VPxAllocator@2@$0A@@physx@@AEAAXI@Z 000000018002b420 f i PvdMetaDataPvdBinding.obj
 0001:0002a420       ?reserveInternal@?$PxHashBase@PEAVPxAggregate@physx@@PEAV12@U?$PxHash@PEAVPxAggregate@physx@@@2@UGetKey@?$PxHashSetBase@PEAVPxAggregate@physx@@U?$PxHash@PEAVPxAggregate@physx@@@2@VPxAllocator@2@$0A@@2@VPxAllocator@2@$0A@@physx@@AEAAXI@Z 000000018002b420 f i NpFactory.obj
 0001:0002a420       ?reserveInternal@?$PxHashBase@PEAVPxArticulationReducedCoordinate@physx@@PEAV12@U?$PxHash@PEAVPxArticulationReducedCoordinate@physx@@@2@UGetKey@?$PxHashSetBase@PEAVPxArticulationReducedCoordinate@physx@@U?$PxHash@PEAVPxArticulationReducedCoordinate@physx@@@2@VPxAllocator@2@$0A@@2@VPxAllocator@2@$0A@@physx@@AEAAXI@Z 000000018002b420 f i NpFactory.obj
 0001:0002a420       ?reserveInternal@?$PxHashBase@PEAVPxConstraint@physx@@PEAV12@U?$PxHash@PEAVPxConstraint@physx@@@2@UGetKey@?$PxHashSetBase@PEAVPxConstraint@physx@@U?$PxHash@PEAVPxConstraint@physx@@@2@VPxAllocator@2@$0A@@2@VPxAllocator@2@$0A@@physx@@AEAAXI@Z 000000018002b420 f i NpFactory.obj
 0001:0002a420       ?reserveInternal@?$PxHashBase@PEAVPxParticleBuffer@physx@@PEAV12@U?$PxHash@PEAVPxParticleBuffer@physx@@@2@UGetKey@?$PxHashSetBase@PEAVPxParticleBuffer@physx@@U?$PxHash@PEAVPxParticleBuffer@physx@@@2@VPxAllocator@2@$0A@@2@VPxAllocator@2@$0A@@physx@@AEAAXI@Z 000000018002b420 f i NpFactory.obj
 0001:0002a420       ?reserveInternal@?$PxHashBase@PEBVPxBase@physx@@PEBV12@U?$PxHash@PEBVPxBase@physx@@@2@UGetKey@?$PxHashSetBase@PEBVPxBase@physx@@U?$PxHash@PEBVPxBase@physx@@@2@VPxAllocator@2@$0A@@2@VPxAllocator@2@$0A@@physx@@AEAAXI@Z 000000018002b420 f i NpPhysics.obj
 0001:0002a420       ?reserveInternal@?$PxHashBase@PEBVPxRigidActor@physx@@PEBV12@U?$PxHash@PEBVPxRigidActor@physx@@@2@UGetKey@?$PxHashSetBase@PEBVPxRigidActor@physx@@U?$PxHash@PEBVPxRigidActor@physx@@@2@VPxAllocator@2@$0A@@2@VPxAllocator@2@$0A@@physx@@AEAAXI@Z 000000018002b420 f i PvdMetaDataPvdBinding.obj
 0001:0002a810       ?resize@?$PxArray@EV?$PxReflectionAllocator@E@physx@@@physx@@QEAAXIAEBE@Z 000000018002b810 f i PvdMetaDataPvdBinding.obj
 0001:0002a8d0       ?resize@?$PxArray@PEAVPxArticulationLink@physx@@V?$PxReflectionAllocator@PEAVPxArticulationLink@physx@@@2@@physx@@QEAAXIAEBQEAVPxArticulationLink@2@@Z 000000018002b8d0 f i PvdMetaDataPvdBinding.obj
 0001:0002a990       ?resize@?$PxArray@PEAVPxShape@physx@@V?$PxInlineAllocator@$0CI@V?$PxReflectionAllocator@PEAVPxShape@physx@@@physx@@@2@@physx@@QEAAXIAEBQEAVPxShape@2@@Z 000000018002b990 f i PvdMetaDataPvdBinding.obj
 0001:0002aa50       ?run@ChangeOjectRefCmd@Vd@physx@@UEAAXAEAVPvdInstanceDataStream@pvdsdk@3@@Z 000000018002ba50 f i PvdMetaDataPvdBinding.obj
 0001:0002aad0       ?sendAllProperties@PvdMetaDataBinding@Vd@physx@@QEAAXAEAVPvdDataStream@pvdsdk@3@AEBVPxAggregate@3@@Z 000000018002bad0 f   PvdMetaDataPvdBinding.obj
 0001:0002ab40       ?sendAllProperties@PvdMetaDataBinding@Vd@physx@@QEAAXAEAVPvdDataStream@pvdsdk@3@AEBVPxArticulationJointReducedCoordinate@3@@Z 000000018002bb40 f   PvdMetaDataPvdBinding.obj
 0001:0002abc0       ?sendAllProperties@PvdMetaDataBinding@Vd@physx@@QEAAXAEAVPvdDataStream@pvdsdk@3@AEBVPxArticulationLink@3@@Z 000000018002bbc0 f   PvdMetaDataPvdBinding.obj
 0001:0002ac40       ?sendAllProperties@PvdMetaDataBinding@Vd@physx@@QEAAXAEAVPvdDataStream@pvdsdk@3@AEBVPxArticulationReducedCoordinate@3@@Z 000000018002bc40 f   PvdMetaDataPvdBinding.obj
 0001:0002acc0       ?sendAllProperties@PvdMetaDataBinding@Vd@physx@@QEAAXAEAVPvdDataStream@pvdsdk@3@AEBVPxHeightField@3@@Z 000000018002bcc0 f   PvdMetaDataPvdBinding.obj
 0001:0002ae30       ?sendAllProperties@PvdMetaDataBinding@Vd@physx@@QEAAXAEAVPvdDataStream@pvdsdk@3@AEBVPxMaterial@3@@Z 000000018002be30 f   PvdMetaDataPvdBinding.obj
 0001:0002aeb0       ?sendAllProperties@PvdMetaDataBinding@Vd@physx@@QEAAXAEAVPvdDataStream@pvdsdk@3@AEBVPxPhysics@3@@Z 000000018002beb0 f   PvdMetaDataPvdBinding.obj
 0001:0002b040       ?sendAllProperties@PvdMetaDataBinding@Vd@physx@@QEAAXAEAVPvdDataStream@pvdsdk@3@AEBVPxRigidDynamic@3@@Z 000000018002c040 f   PvdMetaDataPvdBinding.obj
 0001:0002b0c0       ?sendAllProperties@PvdMetaDataBinding@Vd@physx@@QEAAXAEAVPvdDataStream@pvdsdk@3@AEBVPxRigidStatic@3@@Z 000000018002c0c0 f   PvdMetaDataPvdBinding.obj
 0001:0002b140       ?sendAllProperties@PvdMetaDataBinding@Vd@physx@@QEAAXAEAVPvdDataStream@pvdsdk@3@AEBVPxScene@3@@Z 000000018002c140 f   PvdMetaDataPvdBinding.obj
 0001:0002b590       ?sendAllProperties@PvdMetaDataBinding@Vd@physx@@QEAAXAEAVPvdDataStream@pvdsdk@3@AEBVPxShape@3@@Z 000000018002c590 f   PvdMetaDataPvdBinding.obj
 0001:0002b610       ?sendBeginFrame@PvdMetaDataBinding@Vd@physx@@QEAAXAEAVPvdDataStream@pvdsdk@3@PEBVPxScene@3@M@Z 000000018002c610 f   PvdMetaDataPvdBinding.obj
 0001:0002b700       ?sendContacts@PvdMetaDataBinding@Vd@physx@@QEAAXAEAVPvdDataStream@pvdsdk@3@AEBVPxScene@3@@Z 000000018002c700 f   PvdMetaDataPvdBinding.obj
 0001:0002b760       ?sendContacts@PvdMetaDataBinding@Vd@physx@@QEAAXAEAVPvdDataStream@pvdsdk@3@AEBVPxScene@3@AEAV?$PxArray@UContact@Sc@physx@@V?$PxReflectionAllocator@UContact@Sc@physx@@@3@@3@@Z 000000018002c760 f   PvdMetaDataPvdBinding.obj
 0001:0002b910       ?sendEndFrame@PvdMetaDataBinding@Vd@physx@@QEAAXAEAVPvdDataStream@pvdsdk@3@PEBVPxScene@3@@Z 000000018002c910 f   PvdMetaDataPvdBinding.obj
 0001:0002bb70       ?sendSceneQueries@PvdMetaDataBinding@Vd@physx@@QEAAXAEAVPvdDataStream@pvdsdk@3@AEBVPxScene@3@PEAVPsPvd@53@@Z 000000018002cb70 f   PvdMetaDataPvdBinding.obj
 0001:0002c8e0       ?sendStats@PvdMetaDataBinding@Vd@physx@@QEAAXAEAVPvdDataStream@pvdsdk@3@PEBVPxScene@3@@Z 000000018002d8e0 f   PvdMetaDataPvdBinding.obj
 0001:0002d440       ?updateDynamicActorsAndArticulations@PvdMetaDataBinding@Vd@physx@@QEAAXAEAVPvdDataStream@pvdsdk@3@PEBVPxScene@3@PEAVPvdVisualizer@23@@Z 000000018002e440 f   PvdMetaDataPvdBinding.obj
 0001:0002d9f0       ?updateMaterials@PvdMetaDataBinding@Vd@physx@@QEAAXAEAVPvdDataStream@pvdsdk@3@AEBVPxShape@3@PEAVPsPvd@53@@Z 000000018002e9f0 f   PvdMetaDataPvdBinding.obj
 0001:0002da80       ??0PvdPhysicsClient@Vd@physx@@QEAA@PEAVPsPvd@pvdsdk@2@@Z 000000018002ea80 f   PvdPhysicsClient.obj
 0001:0002dacc       ??_EPvdPhysicsClient@Vd@physx@@W7EAAPEAXI@Z 000000018002eacc f i PvdPhysicsClient.obj
 0001:0002dad8       ??_EPvdPhysicsClient@Vd@physx@@WBA@EAAPEAXI@Z 000000018002ead8 f i PvdPhysicsClient.obj
 0001:0002daf0       ??_EMeshDeletionListener@NpPhysics@physx@@UEAAPEAXI@Z 000000018002eaf0 f i NpPhysics.obj
 0001:0002daf0       ??_EMeshFactoryListener@Gu@physx@@MEAAPEAXI@Z 000000018002eaf0 f i PvdPhysicsClient.obj
 0001:0002daf0       ??_EOmniPvdListener@NpPhysics@physx@@UEAAPEAXI@Z 000000018002eaf0 f i NpPhysics.obj
 0001:0002daf0       ??_GMeshDeletionListener@NpPhysics@physx@@UEAAPEAXI@Z 000000018002eaf0 f i NpPhysics.obj
 0001:0002daf0       ??_GMeshFactoryListener@Gu@physx@@MEAAPEAXI@Z 000000018002eaf0 f i PvdPhysicsClient.obj
 0001:0002daf0       ??_GOmniPvdListener@NpPhysics@physx@@UEAAPEAXI@Z 000000018002eaf0 f i NpPhysics.obj
 0001:0002db20       ??_EPvdPhysicsClient@Vd@physx@@UEAAPEAXI@Z 000000018002eb20 f i PvdPhysicsClient.obj
 0001:0002db20       ??_GPvdPhysicsClient@Vd@physx@@UEAAPEAXI@Z 000000018002eb20 f i PvdPhysicsClient.obj
 0001:0002dbd0       ?destroyPvdInstance@PvdPhysicsClient@Vd@physx@@QEAAXPEBVPxPhysics@3@@Z 000000018002ebd0 f   PvdPhysicsClient.obj
 0001:0002dbf0       ?getDataStream@PvdPhysicsClient@Vd@physx@@UEAAPEAVPvdDataStream@pvdsdk@3@XZ 000000018002ebf0 f   PvdPhysicsClient.obj
 0001:0002dbf0       ?getName@FanoutTask@Cm@physx@@UEBAPEBDXZ 000000018002ebf0 f   SimulationController_static_64:ScScene.obj
 0001:0002dc00       ?isConnected@PvdPhysicsClient@Vd@physx@@UEBA_NXZ 000000018002ec00 f   PvdPhysicsClient.obj
 0001:0002dc10       ?onMeshFactoryBufferRelease@PvdPhysicsClient@Vd@physx@@UEAAXPEBVPxBase@3@G@Z 000000018002ec10 f   PvdPhysicsClient.obj
 0001:0002dd10       ?onPvdConnected@PvdPhysicsClient@Vd@physx@@UEAAXXZ 000000018002ed10 f   PvdPhysicsClient.obj
 0001:0002dd50       ?onPvdDisconnected@PvdPhysicsClient@Vd@physx@@UEAAXXZ 000000018002ed50 f   PvdPhysicsClient.obj
 0001:0002dd80       ?recreate@?$PxArray@PEAVPxConvexMesh@physx@@V?$PxReflectionAllocator@PEAVPxConvexMesh@physx@@@2@@physx@@IEAAXI@Z 000000018002ed80 f i PvdPhysicsClient.obj
 0001:0002de90       ?recreate@?$PxArray@PEAVPxHeightField@physx@@V?$PxReflectionAllocator@PEAVPxHeightField@physx@@@2@@physx@@IEAAXI@Z 000000018002ee90 f i PvdPhysicsClient.obj
 0001:0002dfa0       ?recreate@?$PxArray@PEAVPxMaterial@physx@@V?$PxReflectionAllocator@PEAVPxMaterial@physx@@@2@@physx@@IEAAXI@Z 000000018002efa0 f i PvdPhysicsClient.obj
 0001:0002e0b0       ?recreate@?$PxArray@PEAVPxTetrahedronMesh@physx@@V?$PxReflectionAllocator@PEAVPxTetrahedronMesh@physx@@@2@@physx@@IEAAXI@Z 000000018002f0b0 f i PvdPhysicsClient.obj
 0001:0002e1c0       ?recreate@?$PxArray@PEAVPxTriangleMesh@physx@@V?$PxReflectionAllocator@PEAVPxTriangleMesh@physx@@@2@@physx@@IEAAXI@Z 000000018002f1c0 f i PvdPhysicsClient.obj
 0001:0002e2d0       ?reportError@PvdPhysicsClient@Vd@physx@@UEAAXW4Enum@PxErrorCode@3@PEBD1H@Z 000000018002f2d0 f   PvdPhysicsClient.obj
 0001:0002e2f0       ?resize@?$PxArray@PEAVPxConvexMesh@physx@@V?$PxReflectionAllocator@PEAVPxConvexMesh@physx@@@2@@physx@@QEAAXIAEBQEAVPxConvexMesh@2@@Z 000000018002f2f0 f i PvdPhysicsClient.obj
 0001:0002e3b0       ?resize@?$PxArray@PEAVPxHeightField@physx@@V?$PxReflectionAllocator@PEAVPxHeightField@physx@@@2@@physx@@QEAAXIAEBQEAVPxHeightField@2@@Z 000000018002f3b0 f i PvdPhysicsClient.obj
 0001:0002e470       ?resize@?$PxArray@PEAVPxMaterial@physx@@V?$PxReflectionAllocator@PEAVPxMaterial@physx@@@2@@physx@@QEAAXIAEBQEAVPxMaterial@2@@Z 000000018002f470 f i PvdPhysicsClient.obj
 0001:0002e530       ?resize@?$PxArray@PEAVPxTetrahedronMesh@physx@@V?$PxReflectionAllocator@PEAVPxTetrahedronMesh@physx@@@2@@physx@@QEAAXIAEBQEAVPxTetrahedronMesh@2@@Z 000000018002f530 f i PvdPhysicsClient.obj
 0001:0002e5f0       ?resize@?$PxArray@PEAVPxTriangleMesh@physx@@V?$PxReflectionAllocator@PEAVPxTriangleMesh@physx@@@2@@physx@@QEAAXIAEBQEAVPxTriangleMesh@2@@Z 000000018002f5f0 f i PvdPhysicsClient.obj
 0001:0002e6b0       ?sendEntireSDK@PvdPhysicsClient@Vd@physx@@QEAAXXZ 000000018002f6b0 f   PvdPhysicsClient.obj
 0001:0002eac0       ??0PxActorGeneratedInfo@physx@@QEAA@XZ 000000018002fac0 f   PxAutoGeneratedMetaDataObjects.obj
 0001:0002ebf0       ??0PxActorGeneratedValues@physx@@QEAA@PEBVPxActor@1@@Z 000000018002fbf0 f   PxAutoGeneratedMetaDataObjects.obj
 0001:0002ec70       ??0PxAggregateGeneratedInfo@physx@@QEAA@XZ 000000018002fc70 f   PxAutoGeneratedMetaDataObjects.obj
 0001:0002ed50       ??0PxAggregateGeneratedValues@physx@@QEAA@PEBVPxAggregate@1@@Z 000000018002fd50 f   PxAutoGeneratedMetaDataObjects.obj
 0001:0002edb0       ??0PxArticulationDriveGeneratedInfo@physx@@QEAA@XZ 000000018002fdb0 f   PxAutoGeneratedMetaDataObjects.obj
 0001:0002ee60       ??0PxArticulationDriveGeneratedValues@physx@@QEAA@PEBUPxArticulationDrive@1@@Z 000000018002fe60 f   PxAutoGeneratedMetaDataObjects.obj
 0001:0002ee80       ??0PxArticulationJointReducedCoordinateGeneratedInfo@physx@@QEAA@XZ 000000018002fe80 f   PxAutoGeneratedMetaDataObjects.obj
 0001:0002f0f0       ??0PxArticulationJointReducedCoordinateGeneratedValues@physx@@QEAA@PEBVPxArticulationJointReducedCoordinate@1@@Z 00000001800300f0 f   PxAutoGeneratedMetaDataObjects.obj
 0001:0002f2b0       ??0PxArticulationLimitGeneratedInfo@physx@@QEAA@XZ 00000001800302b0 f   PxAutoGeneratedMetaDataObjects.obj
 0001:0002f310       ??0PxArticulationLimitGeneratedValues@physx@@QEAA@PEBUPxArticulationLimit@1@@Z 0000000180030310 f   PxAutoGeneratedMetaDataObjects.obj
 0001:0002f320       ??0PxArticulationLinkGeneratedInfo@physx@@QEAA@XZ 0000000180030320 f   PxAutoGeneratedMetaDataObjects.obj
 0001:0002f490       ??0PxArticulationLinkGeneratedValues@physx@@QEAA@PEBVPxArticulationLink@1@@Z 0000000180030490 f   PxAutoGeneratedMetaDataObjects.obj
 0001:0002f540       ??0PxArticulationReducedCoordinateGeneratedInfo@physx@@QEAA@XZ 0000000180030540 f   PxAutoGeneratedMetaDataObjects.obj
 0001:0002f850       ??0PxArticulationReducedCoordinateGeneratedValues@physx@@QEAA@PEBVPxArticulationReducedCoordinate@1@@Z 0000000180030850 f   PxAutoGeneratedMetaDataObjects.obj
 0001:0002f950       ??0PxBaseMaterialGeneratedInfo@physx@@QEAA@XZ 0000000180030950 f   PxAutoGeneratedMetaDataObjects.obj
 0001:0002f9a0       ??0PxBaseMaterialGeneratedValues@physx@@QEAA@PEBVPxBaseMaterial@1@@Z 00000001800309a0 f   PxAutoGeneratedMetaDataObjects.obj
 0001:0002f9e0       ??0PxBoxGeometryGeneratedInfo@physx@@QEAA@XZ 00000001800309e0 f   PxAutoGeneratedMetaDataObjects.obj
 0001:0002fa10       ??0PxBoxGeometryGeneratedValues@physx@@QEAA@PEBVPxBoxGeometry@1@@Z 0000000180030a10 f   PxAutoGeneratedMetaDataObjects.obj
 0001:0002fa10       ?getPxBoxGeometryHalfExtents@@YA?AV?$PxVec3T@M@physx@@PEBVPxBoxGeometry@2@@Z 0000000180030a10 f   PxAutoGeneratedMetaDataObjects.obj
 0001:0002fa30       ??0PxBroadPhaseDescGeneratedInfo@physx@@QEAA@XZ 0000000180030a30 f   PxAutoGeneratedMetaDataObjects.obj
 0001:0002fb70       ??0PxBroadPhaseDescGeneratedValues@physx@@QEAA@PEBVPxBroadPhaseDesc@1@@Z 0000000180030b70 f   PxAutoGeneratedMetaDataObjects.obj
 0001:0002fbc0       ??0PxCapsuleGeometryGeneratedInfo@physx@@QEAA@XZ 0000000180030bc0 f   PxAutoGeneratedMetaDataObjects.obj
 0001:0002fc20       ??0PxCapsuleGeometryGeneratedValues@physx@@QEAA@PEBVPxCapsuleGeometry@1@@Z 0000000180030c20 f   PxAutoGeneratedMetaDataObjects.obj
 0001:0002fc30       ??0PxConstraintGeneratedInfo@physx@@QEAA@XZ 0000000180030c30 f   PxAutoGeneratedMetaDataObjects.obj
 0001:0002fdc0       ??0PxConstraintGeneratedValues@physx@@QEAA@PEBVPxConstraint@1@@Z 0000000180030dc0 f   PxAutoGeneratedMetaDataObjects.obj
 0001:0002fe50       ??0PxConvexMeshGeometryGeneratedInfo@physx@@QEAA@XZ 0000000180030e50 f   PxAutoGeneratedMetaDataObjects.obj
 0001:0002fed0       ??0PxConvexMeshGeometryGeneratedValues@physx@@QEAA@PEBVPxConvexMeshGeometry@1@@Z 0000000180030ed0 f   PxAutoGeneratedMetaDataObjects.obj
 0001:0002ff10       ??0PxCustomGeometryGeneratedInfo@physx@@QEAA@XZ 0000000180030f10 f   PxAutoGeneratedMetaDataObjects.obj
 0001:0002ff30       ??0PxCustomGeometryGeneratedValues@physx@@QEAA@PEBVPxCustomGeometry@1@@Z 0000000180030f30 f   PxAutoGeneratedMetaDataObjects.obj
 0001:0002ff60       ??0PxFEMMaterialGeneratedInfo@physx@@QEAA@XZ 0000000180030f60 f   PxAutoGeneratedMetaDataObjects.obj
 0001:00030030       ??0PxFEMMaterialGeneratedValues@physx@@QEAA@PEBVPxFEMMaterial@1@@Z 0000000180031030 f   PxAutoGeneratedMetaDataObjects.obj
 0001:00030090       ??0PxFEMSoftBodyMaterialGeneratedInfo@physx@@QEAA@XZ 0000000180031090 f   PxAutoGeneratedMetaDataObjects.obj
 0001:00030170       ??0PxFEMSoftBodyMaterialGeneratedValues@physx@@QEAA@PEBVPxFEMSoftBodyMaterial@1@@Z 0000000180031170 f   PxAutoGeneratedMetaDataObjects.obj
 0001:00030210       ??0PxHeightFieldDescGeneratedInfo@physx@@QEAA@XZ 0000000180031210 f   PxAutoGeneratedMetaDataObjects.obj
 0001:00030320       ??0PxHeightFieldDescGeneratedValues@physx@@QEAA@PEBVPxHeightFieldDesc@1@@Z 0000000180031320 f   PxAutoGeneratedMetaDataObjects.obj
 0001:00030350       ??0PxHeightFieldGeometryGeneratedInfo@physx@@QEAA@XZ 0000000180031350 f   PxAutoGeneratedMetaDataObjects.obj
 0001:00030430       ??0PxHeightFieldGeometryGeneratedValues@physx@@QEAA@PEBVPxHeightFieldGeometry@1@@Z 0000000180031430 f   PxAutoGeneratedMetaDataObjects.obj
 0001:00030460       ??0PxMaterialGeneratedInfo@physx@@QEAA@XZ 0000000180031460 f   PxAutoGeneratedMetaDataObjects.obj
 0001:00030620       ??0PxMaterialGeneratedValues@physx@@QEAA@PEBVPxMaterial@1@@Z 0000000180031620 f   PxAutoGeneratedMetaDataObjects.obj
 0001:000306d0       ??0PxMeshScaleGeneratedInfo@physx@@QEAA@XZ 00000001800316d0 f   PxAutoGeneratedMetaDataObjects.obj
 0001:00030730       ??0PxMeshScaleGeneratedValues@physx@@QEAA@PEBVPxMeshScale@1@@Z 0000000180031730 f   PxAutoGeneratedMetaDataObjects.obj
 0001:00030760       ??0PxPBDMaterialGeneratedInfo@physx@@QEAA@XZ 0000000180031760 f   PxAutoGeneratedMetaDataObjects.obj
 0001:00030980       ??0PxPBDMaterialGeneratedValues@physx@@QEAA@PEBVPxPBDMaterial@1@@Z 0000000180031980 f   PxAutoGeneratedMetaDataObjects.obj
 0001:00030a50       ??0PxParticleMaterialGeneratedInfo@physx@@QEAA@XZ 0000000180031a50 f   PxAutoGeneratedMetaDataObjects.obj
 0001:00030b90       ??0PxParticleMaterialGeneratedValues@physx@@QEAA@PEBVPxParticleMaterial@1@@Z 0000000180031b90 f   PxAutoGeneratedMetaDataObjects.obj
 0001:00030c10       ??0PxPhysicsGeneratedInfo@physx@@QEAA@XZ 0000000180031c10 f   PxAutoGeneratedMetaDataObjects.obj
 0001:00030ea0       ??0PxPhysicsGeneratedValues@physx@@QEAA@PEBVPxPhysics@1@@Z 0000000180031ea0 f   PxAutoGeneratedMetaDataObjects.obj
 0001:00030ea0       ?getPxPhysics_TolerancesScale@@YA?BVPxTolerancesScale@physx@@PEBVPxPhysics@2@@Z 0000000180031ea0 f   PxAutoGeneratedMetaDataObjects.obj
 0001:00030ed0       ??0PxPruningStructureGeneratedInfo@physx@@QEAA@XZ 0000000180031ed0 f   PxAutoGeneratedMetaDataObjects.obj
 0001:00030f60       ??0PxPruningStructureGeneratedValues@physx@@QEAA@PEBVPxPruningStructure@1@@Z 0000000180031f60 f   PxAutoGeneratedMetaDataObjects.obj
 0001:00030fb0       ??0PxRefCountedGeneratedInfo@physx@@QEAA@XZ 0000000180031fb0 f   PxAutoGeneratedMetaDataObjects.obj
 0001:00030fd0       ??0PxRefCountedGeneratedValues@physx@@QEAA@PEBVPxRefCounted@1@@Z 0000000180031fd0 f   PxAutoGeneratedMetaDataObjects.obj
 0001:00030ff0       ??0PxRigidActorGeneratedInfo@physx@@QEAA@XZ 0000000180031ff0 f   PxAutoGeneratedMetaDataObjects.obj
 0001:000310b0       ??0PxRigidActorGeneratedValues@physx@@QEAA@PEBVPxRigidActor@1@@Z 00000001800320b0 f   PxAutoGeneratedMetaDataObjects.obj
 0001:000310f0       ??0PxRigidBodyGeneratedInfo@physx@@QEAA@XZ 00000001800320f0 f   PxAutoGeneratedMetaDataObjects.obj
 0001:000313d0       ??0PxRigidBodyGeneratedValues@physx@@QEAA@PEBVPxRigidBody@1@@Z 00000001800323d0 f   PxAutoGeneratedMetaDataObjects.obj
 0001:00031510       ??0PxRigidDynamicGeneratedInfo@physx@@QEAA@XZ 0000000180032510 f   PxAutoGeneratedMetaDataObjects.obj
 0001:00031730       ??0PxRigidDynamicGeneratedValues@physx@@QEAA@PEBVPxRigidDynamic@1@@Z 0000000180032730 f   PxAutoGeneratedMetaDataObjects.obj
 0001:00031820       ??0PxRigidStaticGeneratedInfo@physx@@QEAA@XZ 0000000180032820 f   PxAutoGeneratedMetaDataObjects.obj
 0001:00031860       ??0PxRigidStaticGeneratedValues@physx@@QEAA@PEBVPxRigidStatic@1@@Z 0000000180032860 f   PxAutoGeneratedMetaDataObjects.obj
 0001:000318a0       ??0PxSceneDescGeneratedInfo@physx@@QEAA@XZ 00000001800328a0 f   PxAutoGeneratedMetaDataObjects.obj
 0001:000320a0       ??0PxSceneDescGeneratedValues@physx@@QEAA@PEBVPxSceneDesc@1@@Z 00000001800330a0 f   PxAutoGeneratedMetaDataObjects.obj
 0001:00032310       ??0PxSceneGeneratedInfo@physx@@QEAA@XZ 0000000180033310 f   PxAutoGeneratedMetaDataObjects.obj
 0001:00032ac0       ??0PxSceneGeneratedValues@physx@@QEAA@PEBVPxScene@1@@Z 0000000180033ac0 f   PxAutoGeneratedMetaDataObjects.obj
 0001:00032d80       ??0PxSceneLimitsGeneratedInfo@physx@@QEAA@XZ 0000000180033d80 f   PxAutoGeneratedMetaDataObjects.obj
 0001:00032f00       ??0PxSceneLimitsGeneratedValues@physx@@QEAA@PEBVPxSceneLimits@1@@Z 0000000180033f00 f   PxAutoGeneratedMetaDataObjects.obj
 0001:00032f40       ??0PxSceneQueryDescGeneratedInfo@physx@@QEAA@XZ 0000000180033f40 f   PxAutoGeneratedMetaDataObjects.obj
 0001:00033110       ??0PxSceneQueryDescGeneratedValues@physx@@QEAA@PEBVPxSceneQueryDesc@1@@Z 0000000180034110 f   PxAutoGeneratedMetaDataObjects.obj
 0001:00033170       ??0PxSceneQuerySystemBaseGeneratedInfo@physx@@QEAA@XZ 0000000180034170 f   PxAutoGeneratedMetaDataObjects.obj
 0001:000331e0       ??0PxSceneQuerySystemBaseGeneratedValues@physx@@QEAA@PEBVPxSceneQuerySystemBase@1@@Z 00000001800341e0 f   PxAutoGeneratedMetaDataObjects.obj
 0001:00033230       ??0PxSceneSQSystemGeneratedInfo@physx@@QEAA@XZ 0000000180034230 f   PxAutoGeneratedMetaDataObjects.obj
 0001:00033340       ??0PxSceneSQSystemGeneratedValues@physx@@QEAA@PEBVPxSceneSQSystem@1@@Z 0000000180034340 f   PxAutoGeneratedMetaDataObjects.obj
 0001:000333c0       ??0PxShapeGeneratedInfo@physx@@QEAA@XZ 00000001800343c0 f   PxAutoGeneratedMetaDataObjects.obj
 0001:000336d0       ??0PxShapeGeneratedValues@physx@@QEAA@PEBVPxShape@1@@Z 00000001800346d0 f   PxAutoGeneratedMetaDataObjects.obj
 0001:00033990       ??0PxSimulationStatisticsGeneratedInfo@physx@@QEAA@XZ 0000000180034990 f   PxAutoGeneratedMetaDataObjects.obj
 0001:00034240       ??0PxSimulationStatisticsGeneratedValues@physx@@QEAA@PEBVPxSimulationStatistics@1@@Z 0000000180035240 f   PxAutoGeneratedMetaDataObjects.obj
 0001:00034690       ??0PxSphereGeometryGeneratedInfo@physx@@QEAA@XZ 0000000180035690 f   PxAutoGeneratedMetaDataObjects.obj
 0001:000346c0       ??0PxSphereGeometryGeneratedValues@physx@@QEAA@PEBVPxSphereGeometry@1@@Z 00000001800356c0 f   PxAutoGeneratedMetaDataObjects.obj
 0001:000346d0       ??0PxTetrahedronMeshGeometryGeneratedInfo@physx@@QEAA@XZ 00000001800356d0 f   PxAutoGeneratedMetaDataObjects.obj
 0001:00034700       ??0PxTetrahedronMeshGeometryGeneratedValues@physx@@QEAA@PEBVPxTetrahedronMeshGeometry@1@@Z 0000000180035700 f   PxAutoGeneratedMetaDataObjects.obj
 0001:00034710       ??0PxTolerancesScaleGeneratedInfo@physx@@QEAA@XZ 0000000180035710 f   PxAutoGeneratedMetaDataObjects.obj
 0001:00034780       ??0PxTolerancesScaleGeneratedValues@physx@@QEAA@PEBVPxTolerancesScale@1@@Z 0000000180035780 f   PxAutoGeneratedMetaDataObjects.obj
 0001:000347a0       ??0PxTriangleMeshGeometryGeneratedInfo@physx@@QEAA@XZ 00000001800357a0 f   PxAutoGeneratedMetaDataObjects.obj
 0001:00034820       ??0PxTriangleMeshGeometryGeneratedValues@physx@@QEAA@PEBVPxTriangleMeshGeometry@1@@Z 0000000180035820 f   PxAutoGeneratedMetaDataObjects.obj
 0001:00034860       ??0PxgDynamicsMemoryConfigGeneratedInfo@physx@@QEAA@XZ 0000000180035860 f   PxAutoGeneratedMetaDataObjects.obj
 0001:00034ad0       ??0PxgDynamicsMemoryConfigGeneratedValues@physx@@QEAA@PEBUPxgDynamicsMemoryConfig@1@@Z 0000000180035ad0 f   PxAutoGeneratedMetaDataObjects.obj
 0001:00034b40       ?createPxPhysics_BVHs@@YAPEAVPxBVH@physx@@PEAVPxPhysics@2@AEAVPxInputStream@2@@Z 0000000180035b40 f   PxAutoGeneratedMetaDataObjects.obj
 0001:00034b40       ?getPxFEMSoftBodyMaterial_MaterialModel@@YA?AW4Enum@PxFEMSoftBodyMaterialModel@physx@@PEBVPxFEMSoftBodyMaterial@3@@Z 0000000180035b40 f   PxAutoGeneratedMetaDataObjects.obj
 0001:00034b40       ?getPxPBDMaterial_Viscosity@@YAMPEBVPxPBDMaterial@physx@@@Z 0000000180035b40 f   PxAutoGeneratedMetaDataObjects.obj
 0001:00034b40       ?setPxArticulationReducedCoordinate_MaxCOMAngularVelocity@@YAXPEAVPxArticulationReducedCoordinate@physx@@M@Z 0000000180035b40 f   PxAutoGeneratedMetaDataObjects.obj
 0001:00034b40       ?setPxMaterial_FrictionCombineMode@@YAXPEAVPxMaterial@physx@@W4Enum@PxCombineMode@2@@Z 0000000180035b40 f   PxAutoGeneratedMetaDataObjects.obj
 0001:00034b40       ?setPxScene_Limits@@YAXPEAVPxScene@physx@@AEBVPxSceneLimits@2@@Z 0000000180035b40 f   PxAutoGeneratedMetaDataObjects.obj
 0001:00034b50       ?createPxPhysics_ConvexMeshes@@YAPEAVPxConvexMesh@physx@@PEAVPxPhysics@2@AEAVPxInputStream@2@@Z 0000000180035b50 f   PxAutoGeneratedMetaDataObjects.obj
 0001:00034b50       ?getPxActor_OwnerClient@@YAEPEBVPxActor@physx@@@Z 0000000180035b50 f   PxAutoGeneratedMetaDataObjects.obj
 0001:00034b50       ?setPxConstraint_MinResponseThreshold@@YAXPEAVPxConstraint@physx@@M@Z 0000000180035b50 f   PxAutoGeneratedMetaDataObjects.obj
 0001:00034b50       ?setPxFEMSoftBodyMaterial_DampingScale@@YAXPEAVPxFEMSoftBodyMaterial@physx@@M@Z 0000000180035b50 f   PxAutoGeneratedMetaDataObjects.obj
 0001:00034b50       ?setPxParticleMaterial_AdhesionRadiusScale@@YAXPEAVPxParticleMaterial@physx@@M@Z 0000000180035b50 f   PxAutoGeneratedMetaDataObjects.obj
 0001:00034b60       ?createPxPhysics_HeightFields@@YAPEAVPxHeightField@physx@@PEAVPxPhysics@2@AEAVPxInputStream@2@@Z 0000000180035b60 f   PxAutoGeneratedMetaDataObjects.obj
 0001:00034b60       ?getPxConstraint_IsValid@@YA_NPEBVPxConstraint@physx@@@Z 0000000180035b60 f   PxAutoGeneratedMetaDataObjects.obj
 0001:00034b60       ?getPxFEMMaterial_DynamicFriction@@YAMPEBVPxFEMMaterial@physx@@@Z 0000000180035b60 f   PxAutoGeneratedMetaDataObjects.obj
 0001:00034b60       ?getPxMaterial_Restitution@@YAMPEBVPxMaterial@physx@@@Z 0000000180035b60 f   PxAutoGeneratedMetaDataObjects.obj
 0001:00034b60       ?getPxParticleMaterial_Adhesion@@YAMPEBVPxParticleMaterial@physx@@@Z 0000000180035b60 f   PxAutoGeneratedMetaDataObjects.obj
 0001:00034b60       ?setPxActor_DominanceGroup@@YAXPEAVPxActor@physx@@E@Z 0000000180035b60 f   PxAutoGeneratedMetaDataObjects.obj
 0001:00034b60       ?setPxArticulationJointReducedCoordinate_Motion@@YAXPEAVPxArticulationJointReducedCoordinate@physx@@W4Enum@PxArticulationAxis@2@W43PxArticulationMotion@2@@Z 0000000180035b60 f   PxAutoGeneratedMetaDataObjects.obj
 0001:00034b60       ?setPxArticulationReducedCoordinate_WakeCounter@@YAXPEAVPxArticulationReducedCoordinate@physx@@M@Z 0000000180035b60 f   PxAutoGeneratedMetaDataObjects.obj
 0001:00034b60       ?setPxShape_SimulationFilterData@@YAXPEAVPxShape@physx@@AEBUPxFilterData@2@@Z 0000000180035b60 f   PxAutoGeneratedMetaDataObjects.obj
 0001:00034b70       ?createPxPhysics_Scenes@@YAPEAVPxScene@physx@@PEAVPxPhysics@2@AEBVPxSceneDesc@2@@Z 0000000180035b70 f   PxAutoGeneratedMetaDataObjects.obj
 0001:00034b70       ?getNbPxArticulationReducedCoordinate_Links@@YAIPEBVPxArticulationReducedCoordinate@physx@@@Z 0000000180035b70 f   PxAutoGeneratedMetaDataObjects.obj
 0001:00034b70       ?getPxMaterial_RestitutionCombineMode@@YA?AW4Enum@PxCombineMode@physx@@PEBVPxMaterial@3@@Z 0000000180035b70 f   PxAutoGeneratedMetaDataObjects.obj
 0001:00034b70       ?getPxScene_Timestamp@@YAIPEBVPxScene@physx@@@Z 0000000180035b70 f   PxAutoGeneratedMetaDataObjects.obj
 0001:00034b70       ?setPxPBDMaterial_SurfaceTension@@YAXPEAVPxPBDMaterial@physx@@M@Z 0000000180035b70 f   PxAutoGeneratedMetaDataObjects.obj
 0001:00034b80       ?createPxPhysics_TetrahedronMeshes@@YAPEAVPxTetrahedronMesh@physx@@PEAVPxPhysics@2@AEAVPxInputStream@2@@Z 0000000180035b80 f   PxAutoGeneratedMetaDataObjects.obj
 0001:00034b80       ?getNbPxAggregate_Actors@@YAIPEBVPxAggregate@physx@@@Z 0000000180035b80 f   PxAutoGeneratedMetaDataObjects.obj
 0001:00034b80       ?getPxFEMMaterial_YoungsModulus@@YAMPEBVPxFEMMaterial@physx@@@Z 0000000180035b80 f   PxAutoGeneratedMetaDataObjects.obj
 0001:00034b80       ?getPxMaterial_DynamicFriction@@YAMPEBVPxMaterial@physx@@@Z 0000000180035b80 f   PxAutoGeneratedMetaDataObjects.obj
 0001:00034b80       ?getPxParticleMaterial_Friction@@YAMPEBVPxParticleMaterial@physx@@@Z 0000000180035b80 f   PxAutoGeneratedMetaDataObjects.obj
 0001:00034b80       ?setPxArticulationJointReducedCoordinate_ChildPose@@YAXPEAVPxArticulationJointReducedCoordinate@physx@@AEBV?$PxTransformT@M@2@@Z 0000000180035b80 f   PxAutoGeneratedMetaDataObjects.obj
 0001:00034b80       ?setPxArticulationReducedCoordinate_SleepThreshold@@YAXPEAVPxArticulationReducedCoordinate@physx@@M@Z 0000000180035b80 f   PxAutoGeneratedMetaDataObjects.obj
 0001:00034b90       ?createPxPhysics_TriangleMeshes@@YAPEAVPxTriangleMesh@physx@@PEAVPxPhysics@2@AEAVPxInputStream@2@@Z 0000000180035b90 f   PxAutoGeneratedMetaDataObjects.obj
 0001:00034b90       ?getNbPxPruningStructure_RigidActors@@YAIPEBVPxPruningStructure@physx@@@Z 0000000180035b90 f   PxAutoGeneratedMetaDataObjects.obj
 0001:00034b90       ?getPxActor_Scene@@YAPEAVPxScene@physx@@PEBVPxActor@2@@Z 0000000180035b90 f   PxAutoGeneratedMetaDataObjects.obj
 0001:00034b90       ?getPxConstraint_Actors@@YAXPEBVPxConstraint@physx@@AEAPEAVPxRigidActor@2@1@Z 0000000180035b90 f   PxAutoGeneratedMetaDataObjects.obj
 0001:00034b90       ?getPxSceneQuerySystemBase_StaticTimestamp@@YAIPEBVPxSceneQuerySystemBase@physx@@@Z 0000000180035b90 f   PxAutoGeneratedMetaDataObjects.obj
 0001:00034b90       ?getPxSceneSQSystem_SceneQueryStaticTimestamp@@YAIPEBVPxSceneSQSystem@physx@@@Z 0000000180035b90 f   PxAutoGeneratedMetaDataObjects.obj
 0001:00034b90       ?setPxArticulationJointReducedCoordinate_ParentPose@@YAXPEAVPxArticulationJointReducedCoordinate@physx@@AEBV?$PxTransformT@M@2@@Z 0000000180035b90 f   PxAutoGeneratedMetaDataObjects.obj
 0001:00034b90       ?setPxArticulationReducedCoordinate_SolverIterationCounts@@YAXPEAVPxArticulationReducedCoordinate@physx@@II@Z 0000000180035b90 f   PxAutoGeneratedMetaDataObjects.obj
 0001:00034ba0       ?getNbPxArticulationLink_Children@@YAIPEBVPxArticulationLink@physx@@@Z 0000000180035ba0 f   PxAutoGeneratedMetaDataObjects.obj
 0001:00034ba0       ?setPxRigidDynamic_SleepThreshold@@YAXPEAVPxRigidDynamic@physx@@M@Z 0000000180035ba0 f   PxAutoGeneratedMetaDataObjects.obj
 0001:00034bb0       ?getNbPxPhysics_BVHs@@YAIPEBVPxPhysics@physx@@@Z 0000000180035bb0 f   PxAutoGeneratedMetaDataObjects.obj
 0001:00034bb0       ?getPxArticulationReducedCoordinate_MaxCOMAngularVelocity@@YAMPEBVPxArticulationReducedCoordinate@physx@@@Z 0000000180035bb0 f   PxAutoGeneratedMetaDataObjects.obj
 0001:00034bb0       ?getPxMaterial_FrictionCombineMode@@YA?AW4Enum@PxCombineMode@physx@@PEBVPxMaterial@3@@Z 0000000180035bb0 f   PxAutoGeneratedMetaDataObjects.obj
 0001:00034bb0       ?setPxPBDMaterial_VorticityConfinement@@YAXPEAVPxPBDMaterial@physx@@M@Z 0000000180035bb0 f   PxAutoGeneratedMetaDataObjects.obj
 0001:00034bc0       ?getNbPxPhysics_ConvexMeshes@@YAIPEBVPxPhysics@physx@@@Z 0000000180035bc0 f   PxAutoGeneratedMetaDataObjects.obj
 0001:00034bc0       ?getPxActor_Aggregate@@YAPEAVPxAggregate@physx@@PEBVPxActor@2@@Z 0000000180035bc0 f   PxAutoGeneratedMetaDataObjects.obj
 0001:00034bc0       ?getPxConstraint_MinResponseThreshold@@YAMPEBVPxConstraint@physx@@@Z 0000000180035bc0 f   PxAutoGeneratedMetaDataObjects.obj
 0001:00034bc0       ?getPxFEMSoftBodyMaterial_DampingScale@@YAMPEBVPxFEMSoftBodyMaterial@physx@@@Z 0000000180035bc0 f   PxAutoGeneratedMetaDataObjects.obj
 0001:00034bc0       ?getPxParticleMaterial_AdhesionRadiusScale@@YAMPEBVPxParticleMaterial@physx@@@Z 0000000180035bc0 f   PxAutoGeneratedMetaDataObjects.obj
 0001:00034bc0       ?setPxArticulationReducedCoordinate_MaxCOMLinearVelocity@@YAXPEAVPxArticulationReducedCoordinate@physx@@M@Z 0000000180035bc0 f   PxAutoGeneratedMetaDataObjects.obj
 0001:00034bd0       ?getNbPxPhysics_FEMClothMaterials@@YAIPEBVPxPhysics@physx@@@Z 0000000180035bd0 f   PxAutoGeneratedMetaDataObjects.obj
 0001:00034be0       ?getNbPxPhysics_FEMSoftBodyMaterials@@YAIPEBVPxPhysics@physx@@@Z 0000000180035be0 f   PxAutoGeneratedMetaDataObjects.obj
 0001:00034bf0       ?getNbPxPhysics_HeightFields@@YAIPEBVPxPhysics@physx@@@Z 0000000180035bf0 f   PxAutoGeneratedMetaDataObjects.obj
 0001:00034bf0       ?getPxActor_DominanceGroup@@YAEPEBVPxActor@physx@@@Z 0000000180035bf0 f   PxAutoGeneratedMetaDataObjects.obj
 0001:00034bf0       ?getPxAggregate_SelfCollision@@YA_NPEBVPxAggregate@physx@@@Z 0000000180035bf0 f   PxAutoGeneratedMetaDataObjects.obj
 0001:00034bf0       ?getPxArticulationJointReducedCoordinate_Motion@@YA?AW4Enum@PxArticulationMotion@physx@@PEBVPxArticulationJointReducedCoordinate@3@W41PxArticulationAxis@3@@Z 0000000180035bf0 f   PxAutoGeneratedMetaDataObjects.obj
 0001:00034bf0       ?getPxArticulationReducedCoordinate_WakeCounter@@YAMPEBVPxArticulationReducedCoordinate@physx@@@Z 0000000180035bf0 f   PxAutoGeneratedMetaDataObjects.obj
 0001:00034bf0       ?setPxConstraint_BreakForce@@YAXPEAVPxConstraint@physx@@MM@Z 0000000180035bf0 f   PxAutoGeneratedMetaDataObjects.obj
 0001:00034bf0       ?setPxFEMSoftBodyMaterial_Damping@@YAXPEAVPxFEMSoftBodyMaterial@physx@@M@Z 0000000180035bf0 f   PxAutoGeneratedMetaDataObjects.obj
 0001:00034bf0       ?setPxMaterial_Damping@@YAXPEAVPxMaterial@physx@@M@Z 0000000180035bf0 f   PxAutoGeneratedMetaDataObjects.obj
 0001:00034bf0       ?setPxParticleMaterial_GravityScale@@YAXPEAVPxParticleMaterial@physx@@M@Z 0000000180035bf0 f   PxAutoGeneratedMetaDataObjects.obj
 0001:00034c00       ?getNbPxPhysics_Materials@@YAIPEBVPxPhysics@physx@@@Z 0000000180035c00 f   PxAutoGeneratedMetaDataObjects.obj
 0001:00034c00       ?getNbPxScene_Articulations@@YAIPEBVPxScene@physx@@@Z 0000000180035c00 f   PxAutoGeneratedMetaDataObjects.obj
 0001:00034c10       ?getNbPxPhysics_PBDMaterials@@YAIPEBVPxPhysics@physx@@@Z 0000000180035c10 f   PxAutoGeneratedMetaDataObjects.obj
 0001:00034c10       ?getPxScene_CudaContextManager@@YAPEAVPxCudaContextManager@physx@@PEBVPxScene@2@@Z 0000000180035c10 f   PxAutoGeneratedMetaDataObjects.obj
 0001:00034c10       ?setPxRigidBody_MaxDepenetrationVelocity@@YAXPEAVPxRigidBody@physx@@M@Z 0000000180035c10 f   PxAutoGeneratedMetaDataObjects.obj
 0001:00034c20       ?getNbPxPhysics_Scenes@@YAIPEBVPxPhysics@physx@@@Z 0000000180035c20 f   PxAutoGeneratedMetaDataObjects.obj
 0001:00034c20       ?getNbPxRigidActor_Shapes@@YAIPEBVPxRigidActor@physx@@@Z 0000000180035c20 f   PxAutoGeneratedMetaDataObjects.obj
 0001:00034c20       ?getPxPBDMaterial_SurfaceTension@@YAMPEBVPxPBDMaterial@physx@@@Z 0000000180035c20 f   PxAutoGeneratedMetaDataObjects.obj
 0001:00034c20       ?setPxArticulationJointReducedCoordinate_Armature@@YAXPEAVPxArticulationJointReducedCoordinate@physx@@W4Enum@PxArticulationAxis@2@M@Z 0000000180035c20 f   PxAutoGeneratedMetaDataObjects.obj
 0001:00034c20       ?setPxScene_Name@@YAXPEAVPxScene@physx@@PEBD@Z 0000000180035c20 f   PxAutoGeneratedMetaDataObjects.obj
 0001:00034c30       ?getNbPxPhysics_Shapes@@YAIPEBVPxPhysics@physx@@@Z 0000000180035c30 f   PxAutoGeneratedMetaDataObjects.obj
 0001:00034c30       ?getPxPBDMaterial_CFLCoefficient@@YAMPEBVPxPBDMaterial@physx@@@Z 0000000180035c30 f   PxAutoGeneratedMetaDataObjects.obj
 0001:00034c30       ?getPxRigidBody_InvMass@@YAMPEBVPxRigidBody@physx@@@Z 0000000180035c30 f   PxAutoGeneratedMetaDataObjects.obj
 0001:00034c30       ?setPxArticulationJointReducedCoordinate_JointVelocity@@YAXPEAVPxArticulationJointReducedCoordinate@physx@@W4Enum@PxArticulationAxis@2@M@Z 0000000180035c30 f   PxAutoGeneratedMetaDataObjects.obj
 0001:00034c30       ?setPxShape_TorsionalPatchRadius@@YAXPEAVPxShape@physx@@M@Z 0000000180035c30 f   PxAutoGeneratedMetaDataObjects.obj
 0001:00034c40       ?getNbPxPhysics_TetrahedronMeshes@@YAIPEBVPxPhysics@physx@@@Z 0000000180035c40 f   PxAutoGeneratedMetaDataObjects.obj
 0001:00034c40       ?getPxAggregate_MaxNbShapes@@YAIPEBVPxAggregate@physx@@@Z 0000000180035c40 f   PxAutoGeneratedMetaDataObjects.obj
 0001:00034c40       ?getPxFEMMaterial_Poissons@@YAMPEBVPxFEMMaterial@physx@@@Z 0000000180035c40 f   PxAutoGeneratedMetaDataObjects.obj
 0001:00034c40       ?getPxMaterial_StaticFriction@@YAMPEBVPxMaterial@physx@@@Z 0000000180035c40 f   PxAutoGeneratedMetaDataObjects.obj
 0001:00034c40       ?getPxParticleMaterial_Damping@@YAMPEBVPxParticleMaterial@physx@@@Z 0000000180035c40 f   PxAutoGeneratedMetaDataObjects.obj
 0001:00034c40       ?getPxSceneSQSystem_StaticStructure@@YA?AW4Enum@PxPruningStructureType@physx@@PEBVPxSceneSQSystem@3@@Z 0000000180035c40 f   PxAutoGeneratedMetaDataObjects.obj
 0001:00034c40       ?setPxArticulationJointReducedCoordinate_JointType@@YAXPEAVPxArticulationJointReducedCoordinate@physx@@W4Enum@PxArticulationJointType@2@@Z 0000000180035c40 f   PxAutoGeneratedMetaDataObjects.obj
 0001:00034c40       ?setPxArticulationReducedCoordinate_StabilizationThreshold@@YAXPEAVPxArticulationReducedCoordinate@physx@@M@Z 0000000180035c40 f   PxAutoGeneratedMetaDataObjects.obj
 0001:00034c40       ?setPxShape_LocalPose@@YAXPEAVPxShape@physx@@AEBV?$PxTransformT@M@2@@Z 0000000180035c40 f   PxAutoGeneratedMetaDataObjects.obj
 0001:00034c50       ?getNbPxPhysics_TriangleMeshes@@YAIPEBVPxPhysics@physx@@@Z 0000000180035c50 f   PxAutoGeneratedMetaDataObjects.obj
 0001:00034c50       ?getPxArticulationReducedCoordinate_SolverIterationCounts@@YAXPEBVPxArticulationReducedCoordinate@physx@@AEAI1@Z 0000000180035c50 f   PxAutoGeneratedMetaDataObjects.obj
 0001:00034c50       ?getPxPruningStructure_StaticMergeData@@YAPEBXPEBVPxPruningStructure@physx@@@Z 0000000180035c50 f   PxAutoGeneratedMetaDataObjects.obj
 0001:00034c50       ?setPxActor_Name@@YAXPEAVPxActor@physx@@PEBD@Z 0000000180035c50 f   PxAutoGeneratedMetaDataObjects.obj
 0001:00034c50       ?setPxConstraint_Actors@@YAXPEAVPxConstraint@physx@@PEAVPxRigidActor@2@1@Z 0000000180035c50 f   PxAutoGeneratedMetaDataObjects.obj
 0001:00034c60       ?getNbPxRigidActor_Constraints@@YAIPEBVPxRigidActor@physx@@@Z 0000000180035c60 f   PxAutoGeneratedMetaDataObjects.obj
 0001:00034c60       ?getPxPBDMaterial_Cohesion@@YAMPEBVPxPBDMaterial@physx@@@Z 0000000180035c60 f   PxAutoGeneratedMetaDataObjects.obj
 0001:00034c60       ?setPxArticulationJointReducedCoordinate_FrictionCoefficient@@YAXPEAVPxArticulationJointReducedCoordinate@physx@@M@Z 0000000180035c60 f   PxAutoGeneratedMetaDataObjects.obj
 0001:00034c60       ?setPxArticulationReducedCoordinate_Name@@YAXPEAVPxArticulationReducedCoordinate@physx@@PEBD@Z 0000000180035c60 f   PxAutoGeneratedMetaDataObjects.obj
 0001:00034c60       ?setPxShape_ContactOffset@@YAXPEAVPxShape@physx@@M@Z 0000000180035c60 f   PxAutoGeneratedMetaDataObjects.obj
 0001:00034c70       ?getNbPxScene_Actors@@YAIPEBVPxScene@physx@@V?$PxFlags@W4Enum@PxActorTypeFlag@physx@@G@2@@Z 0000000180035c70 f   PxAutoGeneratedMetaDataObjects.obj
 0001:00034c90       ?getNbPxScene_Aggregates@@YAIPEBVPxScene@physx@@@Z 0000000180035c90 f   PxAutoGeneratedMetaDataObjects.obj
 0001:00034ca0       ?getNbPxScene_BroadPhaseRegions@@YAIPEBVPxScene@physx@@@Z 0000000180035ca0 f   PxAutoGeneratedMetaDataObjects.obj
 0001:00034cb0       ?getNbPxScene_Constraints@@YAIPEBVPxScene@physx@@@Z 0000000180035cb0 f   PxAutoGeneratedMetaDataObjects.obj
 0001:00034cc0       ?getNbPxScene_SoftBodies@@YAIPEBVPxScene@physx@@@Z 0000000180035cc0 f   PxAutoGeneratedMetaDataObjects.obj
 0001:00034cc0       ?getPxRigidBody_AngularDamping@@YAMPEBVPxRigidBody@physx@@@Z 0000000180035cc0 f   PxAutoGeneratedMetaDataObjects.obj
 0001:00034cd0       ?getNbPxShape_Materials@@YAIPEBVPxShape@physx@@@Z 0000000180035cd0 f   PxAutoGeneratedMetaDataObjects.obj
 0001:00034cf0       ?getCpuDispatcher@PxTaskMgr@physx@@UEBAPEAVPxCpuDispatcher@2@XZ 0000000180035cf0 f i PhysXTask_static_64:TaskManager.obj
 0001:00034cf0       ?getOmniPvd@NpPhysics@physx@@UEAAPEAVPxOmniPvd@2@XZ 0000000180035cf0 f i NpPhysics.obj
 0001:00034cf0       ?getPxActorUserData@@YAPEAXPEBVPxActor@physx@@@Z 0000000180035cf0 f i PxAutoGeneratedMetaDataObjects.obj
 0001:00034cf0       ?getPxAggregateUserData@@YAPEAXPEBVPxAggregate@physx@@@Z 0000000180035cf0 f i PxAutoGeneratedMetaDataObjects.obj
 0001:00034cf0       ?getPxArticulationJointReducedCoordinateUserData@@YAPEAXPEBVPxArticulationJointReducedCoordinate@physx@@@Z 0000000180035cf0 f i PxAutoGeneratedMetaDataObjects.obj
 0001:00034cf0       ?getPxArticulationReducedCoordinateUserData@@YAPEAXPEBVPxArticulationReducedCoordinate@physx@@@Z 0000000180035cf0 f i PxAutoGeneratedMetaDataObjects.obj
 0001:00034cf0       ?getPxBaseMaterialUserData@@YAPEAXPEBVPxBaseMaterial@physx@@@Z 0000000180035cf0 f i PxAutoGeneratedMetaDataObjects.obj
 0001:00034cf0       ?getPxBroadPhaseDescMContextManager@@YAPEAVPxCudaContextManager@physx@@PEBVPxBroadPhaseDesc@2@@Z 0000000180035cf0 f i PxAutoGeneratedMetaDataObjects.obj
 0001:00034cf0       ?getPxConstraintUserData@@YAPEAXPEBVPxConstraint@physx@@@Z 0000000180035cf0 f i PxAutoGeneratedMetaDataObjects.obj
 0001:00034cf0       ?getPxShapeUserData@@YAPEAXPEBVPxShape@physx@@@Z 0000000180035cf0 f i PxAutoGeneratedMetaDataObjects.obj
 0001:00034d00       ?getPxActor_ActorFlags@@YA?AV?$PxFlags@W4Enum@PxActorFlag@physx@@E@physx@@PEBVPxActor@2@@Z 0000000180035d00 f   PxAutoGeneratedMetaDataObjects.obj
 0001:00034d00       ?getPxShape_LocalPose@@YA?AV?$PxTransformT@M@physx@@PEBVPxShape@2@@Z 0000000180035d00 f   PxAutoGeneratedMetaDataObjects.obj
 0001:00034d30       ?getPxActor_Name@@YAPEBDPEBVPxActor@physx@@@Z 0000000180035d30 f   PxAutoGeneratedMetaDataObjects.obj
 0001:00034d30       ?getPxArticulationReducedCoordinate_IsSleeping@@YA_NPEBVPxArticulationReducedCoordinate@physx@@@Z 0000000180035d30 f   PxAutoGeneratedMetaDataObjects.obj
 0001:00034d30       ?getPxPruningStructure_DynamicMergeData@@YAPEBXPEBVPxPruningStructure@physx@@@Z 0000000180035d30 f   PxAutoGeneratedMetaDataObjects.obj
 0001:00034d30       ?setPxFEMMaterial_YoungsModulus@@YAXPEAVPxFEMMaterial@physx@@M@Z 0000000180035d30 f   PxAutoGeneratedMetaDataObjects.obj
 0001:00034d30       ?setPxMaterial_DynamicFriction@@YAXPEAVPxMaterial@physx@@M@Z 0000000180035d30 f   PxAutoGeneratedMetaDataObjects.obj
 0001:00034d30       ?setPxParticleMaterial_Friction@@YAXPEAVPxParticleMaterial@physx@@M@Z 0000000180035d30 f   PxAutoGeneratedMetaDataObjects.obj
 0001:00034d30       ?setPxShape_Geom@PxShapeGeomProperty@physx@@SAXPEAVPxShape@2@AEBVPxGeometry@2@@Z 0000000180035d30 f   PxAutoGeneratedMetaDataObjects.obj
 0001:00034d40       ?getPxAggregate_Actors@@YAIPEBVPxAggregate@physx@@PEAPEAVPxActor@2@I@Z 0000000180035d40 f   PxAutoGeneratedMetaDataObjects.obj
 0001:00034d40       ?getPxPhysics_TetrahedronMeshes@@YAIPEBVPxPhysics@physx@@PEAPEAVPxTetrahedronMesh@2@I@Z 0000000180035d40 f   PxAutoGeneratedMetaDataObjects.obj
 0001:00034d50       ?getPxAggregate_ConcreteTypeName@@YAPEBDPEBVPxAggregate@physx@@@Z 0000000180035d50 f   PxAutoGeneratedMetaDataObjects.obj
 0001:00034d50       ?getPxArticulationJointReducedCoordinate_ConcreteTypeName@@YAPEBDPEBVPxArticulationJointReducedCoordinate@physx@@@Z 0000000180035d50 f   PxAutoGeneratedMetaDataObjects.obj
 0001:00034d50       ?getPxArticulationLink_ConcreteTypeName@@YAPEBDPEBVPxArticulationLink@physx@@@Z 0000000180035d50 f   PxAutoGeneratedMetaDataObjects.obj
 0001:00034d50       ?getPxConstraint_ConcreteTypeName@@YAPEBDPEBVPxConstraint@physx@@@Z 0000000180035d50 f   PxAutoGeneratedMetaDataObjects.obj
 0001:00034d50       ?getPxFEMSoftBodyMaterial_ConcreteTypeName@@YAPEBDPEBVPxFEMSoftBodyMaterial@physx@@@Z 0000000180035d50 f   PxAutoGeneratedMetaDataObjects.obj
 0001:00034d50       ?getPxMaterial_ConcreteTypeName@@YAPEBDPEBVPxMaterial@physx@@@Z 0000000180035d50 f   PxAutoGeneratedMetaDataObjects.obj
 0001:00034d50       ?getPxPBDMaterial_ConcreteTypeName@@YAPEBDPEBVPxPBDMaterial@physx@@@Z 0000000180035d50 f   PxAutoGeneratedMetaDataObjects.obj
 0001:00034d50       ?getPxPruningStructure_ConcreteTypeName@@YAPEBDPEBVPxPruningStructure@physx@@@Z 0000000180035d50 f   PxAutoGeneratedMetaDataObjects.obj
 0001:00034d50       ?getPxRigidDynamic_ConcreteTypeName@@YAPEBDPEBVPxRigidDynamic@physx@@@Z 0000000180035d50 f   PxAutoGeneratedMetaDataObjects.obj
 0001:00034d50       ?getPxRigidStatic_ConcreteTypeName@@YAPEBDPEBVPxRigidStatic@physx@@@Z 0000000180035d50 f   PxAutoGeneratedMetaDataObjects.obj
 0001:00034d50       ?getPxShape_ConcreteTypeName@@YAPEBDPEBVPxShape@physx@@@Z 0000000180035d50 f   PxAutoGeneratedMetaDataObjects.obj
 0001:00034d50       ?setPxSceneQuerySystemBase_DynamicTreeRebuildRateHint@@YAXPEAVPxSceneQuerySystemBase@physx@@I@Z 0000000180035d50 f   PxAutoGeneratedMetaDataObjects.obj
 0001:00034d60       ?getPxAggregate_MaxNbActors@@YAIPEBVPxAggregate@physx@@@Z 0000000180035d60 f   PxAutoGeneratedMetaDataObjects.obj
 0001:00034d60       ?getPxArticulationReducedCoordinate_SleepThreshold@@YAMPEBVPxArticulationReducedCoordinate@physx@@@Z 0000000180035d60 f   PxAutoGeneratedMetaDataObjects.obj
 0001:00034d60       ?setPxFEMMaterial_Poissons@@YAXPEAVPxFEMMaterial@physx@@M@Z 0000000180035d60 f   PxAutoGeneratedMetaDataObjects.obj
 0001:00034d60       ?setPxMaterial_StaticFriction@@YAXPEAVPxMaterial@physx@@M@Z 0000000180035d60 f   PxAutoGeneratedMetaDataObjects.obj
 0001:00034d60       ?setPxParticleMaterial_Damping@@YAXPEAVPxParticleMaterial@physx@@M@Z 0000000180035d60 f   PxAutoGeneratedMetaDataObjects.obj
 0001:00034d70       ?getDamping@ArticulationFixedTendonCore@Sc@physx@@QEBAMXZ 0000000180035d70 f i SimulationController_static_64:ScArticulationTendonCore.obj
 0001:00034d70       ?getDamping@ArticulationSpatialTendonCore@Sc@physx@@QEBAMXZ 0000000180035d70 f i SimulationController_static_64:ScArticulationTendonCore.obj
 0001:00034d70       ?getPxArticulationDriveDamping@@YAMPEBUPxArticulationDrive@physx@@@Z 0000000180035d70 f i PxAutoGeneratedMetaDataObjects.obj
 0001:00034d70       ?getPxArticulationLimitHigh@@YAMPEBUPxArticulationLimit@physx@@@Z 0000000180035d70 f i PxAutoGeneratedMetaDataObjects.obj
 0001:00034d70       ?getPxTolerancesScaleSpeed@@YAMPEBVPxTolerancesScale@physx@@@Z 0000000180035d70 f i PxAutoGeneratedMetaDataObjects.obj
 0001:00034d80       ?getPxArticulationDriveDriveType@@YA?AW4Enum@PxArticulationDriveType@physx@@PEBUPxArticulationDrive@3@@Z 0000000180035d80 f i PxAutoGeneratedMetaDataObjects.obj
 0001:00034d80       ?getPxSceneLimitsMaxNbDynamicShapes@@YAIPEBVPxSceneLimits@physx@@@Z 0000000180035d80 f i PxAutoGeneratedMetaDataObjects.obj
 0001:00034d80       ?getPxSceneQueryDescDynamicTreeSecondaryPruner@@YA?AW4Enum@PxDynamicTreeSecondaryPruner@physx@@PEBVPxSceneQueryDesc@3@@Z 0000000180035d80 f i PxAutoGeneratedMetaDataObjects.obj
 0001:00034d80       ?getPxSimulationStatisticsNbStaticBodies@@YAIPEBVPxSimulationStatistics@physx@@@Z 0000000180035d80 f i PxAutoGeneratedMetaDataObjects.obj
 0001:00034d80       ?getPxgDynamicsMemoryConfigHeapCapacity@@YAIPEBUPxgDynamicsMemoryConfig@physx@@@Z 0000000180035d80 f i PxAutoGeneratedMetaDataObjects.obj
 0001:00034d80       ?getReferenceCount@NpFEMSoftBodyMaterial@physx@@UEBAIXZ 0000000180035d80 f i NpFEMSoftBodyMaterial.obj
 0001:00034d80       ?getReferenceCount@NpMaterial@physx@@UEBAIXZ 0000000180035d80 f i NpMaterial.obj
 0001:00034d80       ?getReferenceCount@NpPBDMaterial@physx@@UEBAIXZ 0000000180035d80 f i NpPBDMaterial.obj
 0001:00034d80       ?getReferenceCount@NpShape@physx@@UEBAIXZ 0000000180035d80 f i NpShape.obj
 0001:00034d80       ?length@DNameStatusNode@@UEBAHXZ 0000000180035d80 f i libvcruntime:undname.obj
 0001:00034d80       ?raw_length@DNameStatusNode@@UEBAHXZ 0000000180035d80 f i libvcruntime:undname.obj
 0001:00034d90       ?getOffset@ArticulationFixedTendonCore@Sc@physx@@QEBAMXZ 0000000180035d90 f i SimulationController_static_64:ScArticulationTendonCore.obj
 0001:00034d90       ?getOffset@ArticulationSpatialTendonCore@Sc@physx@@QEBAMXZ 0000000180035d90 f i SimulationController_static_64:ScArticulationTendonCore.obj
 0001:00034d90       ?getPxArticulationDriveMaxForce@@YAMPEBUPxArticulationDrive@physx@@@Z 0000000180035d90 f i PxAutoGeneratedMetaDataObjects.obj
 0001:00034d90       ?getPxCapsuleGeometryRadius@@YAMPEBVPxCapsuleGeometry@physx@@@Z 0000000180035d90 f i PxAutoGeneratedMetaDataObjects.obj
 0001:00034d90       ?getPxSphereGeometryRadius@@YAMPEBVPxSphereGeometry@physx@@@Z 0000000180035d90 f i PxAutoGeneratedMetaDataObjects.obj
 0001:00034da0       ?getPxArticulationDriveStiffness@@YAMPEBUPxArticulationDrive@physx@@@Z 0000000180035da0 f i PxAutoGeneratedMetaDataObjects.obj
 0001:00034da0       ?getPxArticulationLimitLow@@YAMPEBUPxArticulationLimit@physx@@@Z 0000000180035da0 f i PxAutoGeneratedMetaDataObjects.obj
 0001:00034da0       ?getPxTolerancesScaleLength@@YAMPEBVPxTolerancesScale@physx@@@Z 0000000180035da0 f i PxAutoGeneratedMetaDataObjects.obj
 0001:00034da0       ?getStiffness@ArticulationFixedTendonCore@Sc@physx@@QEBAMXZ 0000000180035da0 f i SimulationController_static_64:ScArticulationTendonCore.obj
 0001:00034da0       ?getStiffness@ArticulationSpatialTendonCore@Sc@physx@@QEBAMXZ 0000000180035da0 f i SimulationController_static_64:ScArticulationTendonCore.obj
 0001:00034db0       ?getPxArticulationJointReducedCoordinate_Armature@@YAMPEBVPxArticulationJointReducedCoordinate@physx@@W4Enum@PxArticulationAxis@2@@Z 0000000180035db0 f   PxAutoGeneratedMetaDataObjects.obj
 0001:00034db0       ?getPxScene_Name@@YAPEBDPEBVPxScene@physx@@@Z 0000000180035db0 f   PxAutoGeneratedMetaDataObjects.obj
 0001:00034db0       ?setPxPBDMaterial_Cohesion@@YAXPEAVPxPBDMaterial@physx@@M@Z 0000000180035db0 f   PxAutoGeneratedMetaDataObjects.obj
 0001:00034dc0       ?getPxArticulationJointReducedCoordinate_ChildPose@@YA?AV?$PxTransformT@M@physx@@PEBVPxArticulationJointReducedCoordinate@2@@Z 0000000180035dc0 f   PxAutoGeneratedMetaDataObjects.obj
 0001:00034df0       ?getPxArticulationJointReducedCoordinate_DriveParams@@YA?AUPxArticulationDrive@physx@@PEBVPxArticulationJointReducedCoordinate@2@W4Enum@PxArticulationAxis@2@@Z 0000000180035df0 f   PxAutoGeneratedMetaDataObjects.obj
 0001:00034e20       ?getPxArticulationJointReducedCoordinate_FrictionCoefficient@@YAMPEBVPxArticulationJointReducedCoordinate@physx@@@Z 0000000180035e20 f   PxAutoGeneratedMetaDataObjects.obj
 0001:00034e20       ?getPxArticulationReducedCoordinate_Name@@YAPEBDPEBVPxArticulationReducedCoordinate@physx@@@Z 0000000180035e20 f   PxAutoGeneratedMetaDataObjects.obj
 0001:00034e20       ?getPxShape_ContactOffset@@YAMPEBVPxShape@physx@@@Z 0000000180035e20 f   PxAutoGeneratedMetaDataObjects.obj
 0001:00034e20       ?setPxPBDMaterial_Lift@@YAXPEAVPxPBDMaterial@physx@@M@Z 0000000180035e20 f   PxAutoGeneratedMetaDataObjects.obj
 0001:00034e30       ?getPxArticulationJointReducedCoordinate_JointPosition@@YAMPEBVPxArticulationJointReducedCoordinate@physx@@W4Enum@PxArticulationAxis@2@@Z 0000000180035e30 f   PxAutoGeneratedMetaDataObjects.obj
 0001:00034e30       ?getPxRigidBody_Mass@@YAMPEBVPxRigidBody@physx@@@Z 0000000180035e30 f   PxAutoGeneratedMetaDataObjects.obj
 0001:00034e30       ?getPxShape_DensityForFluid@@YAMPEBVPxShape@physx@@@Z 0000000180035e30 f   PxAutoGeneratedMetaDataObjects.obj
 0001:00034e30       ?setPxPBDMaterial_CFLCoefficient@@YAXPEAVPxPBDMaterial@physx@@M@Z 0000000180035e30 f   PxAutoGeneratedMetaDataObjects.obj
 0001:00034e40       ?getPxArticulationJointReducedCoordinate_JointType@@YA?AW4Enum@PxArticulationJointType@physx@@PEBVPxArticulationJointReducedCoordinate@3@@Z 0000000180035e40 f   PxAutoGeneratedMetaDataObjects.obj
 0001:00034e40       ?getPxArticulationReducedCoordinate_StabilizationThreshold@@YAMPEBVPxArticulationReducedCoordinate@physx@@@Z 0000000180035e40 f   PxAutoGeneratedMetaDataObjects.obj
 0001:00034e40       ?getPxSceneSQSystem_DynamicStructure@@YA?AW4Enum@PxPruningStructureType@physx@@PEBVPxSceneSQSystem@3@@Z 0000000180035e40 f   PxAutoGeneratedMetaDataObjects.obj
 0001:00034e40       ?setPxFEMMaterial_DynamicFriction@@YAXPEAVPxFEMMaterial@physx@@M@Z 0000000180035e40 f   PxAutoGeneratedMetaDataObjects.obj
 0001:00034e40       ?setPxMaterial_Restitution@@YAXPEAVPxMaterial@physx@@M@Z 0000000180035e40 f   PxAutoGeneratedMetaDataObjects.obj
 0001:00034e40       ?setPxParticleMaterial_Adhesion@@YAXPEAVPxParticleMaterial@physx@@M@Z 0000000180035e40 f   PxAutoGeneratedMetaDataObjects.obj
 0001:00034e50       ?getPxArticulationJointReducedCoordinate_JointVelocity@@YAMPEBVPxArticulationJointReducedCoordinate@physx@@W4Enum@PxArticulationAxis@2@@Z 0000000180035e50 f   PxAutoGeneratedMetaDataObjects.obj
 0001:00034e50       ?getPxShape_TorsionalPatchRadius@@YAMPEBVPxShape@physx@@@Z 0000000180035e50 f   PxAutoGeneratedMetaDataObjects.obj
 0001:00034e50       ?setPxPBDMaterial_ParticleFrictionScale@@YAXPEAVPxPBDMaterial@physx@@M@Z 0000000180035e50 f   PxAutoGeneratedMetaDataObjects.obj
 0001:00034e50       ?setPxRigidBody_MassSpaceInertiaTensor@@YAXPEAVPxRigidBody@physx@@AEBV?$PxVec3T@M@2@@Z 0000000180035e50 f   PxAutoGeneratedMetaDataObjects.obj
 0001:00034e60       ?getPxArticulationJointReducedCoordinate_LimitParams@@YA?AUPxArticulationLimit@physx@@PEBVPxArticulationJointReducedCoordinate@2@W4Enum@PxArticulationAxis@2@@Z 0000000180035e60 f   PxAutoGeneratedMetaDataObjects.obj
 0001:00034e90       ?getPxArticulationJointReducedCoordinate_MaxJointVelocity@@YAMPEBVPxArticulationJointReducedCoordinate@physx@@@Z 0000000180035e90 f   PxAutoGeneratedMetaDataObjects.obj
 0001:00034e90       ?getPxArticulationReducedCoordinate_Aggregate@@YAPEAVPxAggregate@physx@@PEBVPxArticulationReducedCoordinate@2@@Z 0000000180035e90 f   PxAutoGeneratedMetaDataObjects.obj
 0001:00034e90       ?getPxShape_RestOffset@@YAMPEBVPxShape@physx@@@Z 0000000180035e90 f   PxAutoGeneratedMetaDataObjects.obj
 0001:00034e90       ?setPxPBDMaterial_Drag@@YAXPEAVPxPBDMaterial@physx@@M@Z 0000000180035e90 f   PxAutoGeneratedMetaDataObjects.obj
 0001:00034ea0       ?getPxArticulationJointReducedCoordinate_ParentPose@@YA?AV?$PxTransformT@M@physx@@PEBVPxArticulationJointReducedCoordinate@2@@Z 0000000180035ea0 f   PxAutoGeneratedMetaDataObjects.obj
 0001:00034ed0       ?getPxArticulationLink_AngularVelocity@@YA?AV?$PxVec3T@M@physx@@PEBVPxArticulationLink@2@@Z 0000000180035ed0 f   PxAutoGeneratedMetaDataObjects.obj
 0001:00034ed0       ?getPxRigidDynamic_AngularVelocity@@YA?AV?$PxVec3T@M@physx@@PEBVPxRigidDynamic@2@@Z 0000000180035ed0 f   PxAutoGeneratedMetaDataObjects.obj
 0001:00034f00       ?getPxArticulationLink_CfmScale@@YAMPEBVPxArticulationLink@physx@@@Z 0000000180035f00 f   PxAutoGeneratedMetaDataObjects.obj
 0001:00034f00       ?getPxScene_FilterCallback@@YAPEAVPxSimulationFilterCallback@physx@@PEBVPxScene@2@@Z 0000000180035f00 f   PxAutoGeneratedMetaDataObjects.obj
 0001:00034f10       ?getPxArticulationLink_Children@@YAIPEBVPxArticulationLink@physx@@PEAPEAV12@I@Z 0000000180035f10 f   PxAutoGeneratedMetaDataObjects.obj
 0001:00034f20       ?getPxArticulationLink_InboundJoint@@YAPEAVPxArticulationJointReducedCoordinate@physx@@PEBVPxArticulationLink@2@@Z 0000000180035f20 f   PxAutoGeneratedMetaDataObjects.obj
 0001:00034f20       ?setPxScene_BroadPhaseCallback@@YAXPEAVPxScene@physx@@PEAVPxBroadPhaseCallback@2@@Z 0000000180035f20 f   PxAutoGeneratedMetaDataObjects.obj
 0001:00034f30       ?getPxArticulationLink_InboundJointDof@@YAIPEBVPxArticulationLink@physx@@@Z 0000000180035f30 f   PxAutoGeneratedMetaDataObjects.obj
 0001:00034f30       ?getPxRigidDynamic_IsSleeping@@YA_NPEBVPxRigidDynamic@physx@@@Z 0000000180035f30 f   PxAutoGeneratedMetaDataObjects.obj
 0001:00034f30       ?getPxScene_BroadPhaseCallback@@YAPEAVPxBroadPhaseCallback@physx@@PEBVPxScene@2@@Z 0000000180035f30 f   PxAutoGeneratedMetaDataObjects.obj
 0001:00034f40       ?getPxArticulationLink_LinearVelocity@@YA?AV?$PxVec3T@M@physx@@PEBVPxArticulationLink@2@@Z 0000000180035f40 f   PxAutoGeneratedMetaDataObjects.obj
 0001:00034f40       ?getPxRigidDynamic_LinearVelocity@@YA?AV?$PxVec3T@M@physx@@PEBVPxRigidDynamic@2@@Z 0000000180035f40 f   PxAutoGeneratedMetaDataObjects.obj
 0001:00034f70       ?getPxArticulationLink_LinkIndex@@YAIPEBVPxArticulationLink@physx@@@Z 0000000180035f70 f   PxAutoGeneratedMetaDataObjects.obj
 0001:00034f70       ?getPxRigidDynamic_SleepThreshold@@YAMPEBVPxRigidDynamic@physx@@@Z 0000000180035f70 f   PxAutoGeneratedMetaDataObjects.obj
 0001:00034f80       ?getPxArticulationReducedCoordinate_ArticulationFlags@@YA?AV?$PxFlags@W4Enum@PxArticulationFlag@physx@@E@physx@@PEBVPxArticulationReducedCoordinate@2@@Z 0000000180035f80 f   PxAutoGeneratedMetaDataObjects.obj
 0001:00034fb0       ?getPxArticulationReducedCoordinate_Links@@YAIPEBVPxArticulationReducedCoordinate@physx@@PEAPEAVPxArticulationLink@2@I@Z 0000000180035fb0 f   PxAutoGeneratedMetaDataObjects.obj
 0001:00034fc0       ?getPxArticulationReducedCoordinate_MaxCOMLinearVelocity@@YAMPEBVPxArticulationReducedCoordinate@physx@@@Z 0000000180035fc0 f   PxAutoGeneratedMetaDataObjects.obj
 0001:00034fc0       ?setPxFEMSoftBodyMaterial_MaterialModel@@YAXPEAVPxFEMSoftBodyMaterial@physx@@W4Enum@PxFEMSoftBodyMaterialModel@2@@Z 0000000180035fc0 f   PxAutoGeneratedMetaDataObjects.obj
 0001:00034fc0       ?setPxPBDMaterial_Viscosity@@YAXPEAVPxPBDMaterial@physx@@M@Z 0000000180035fc0 f   PxAutoGeneratedMetaDataObjects.obj
 0001:00034fd0       ?getPxArticulationReducedCoordinate_RootAngularVelocity@@YA?AV?$PxVec3T@M@physx@@PEBVPxArticulationReducedCoordinate@2@@Z 0000000180035fd0 f   PxAutoGeneratedMetaDataObjects.obj
 0001:00035000       ?getPxArticulationReducedCoordinate_RootGlobalPose@@YA?AV?$PxTransformT@M@physx@@PEBVPxArticulationReducedCoordinate@2@@Z 0000000180036000 f   PxAutoGeneratedMetaDataObjects.obj
 0001:00035030       ?getPxArticulationReducedCoordinate_RootLinearVelocity@@YA?AV?$PxVec3T@M@physx@@PEBVPxArticulationReducedCoordinate@2@@Z 0000000180036030 f   PxAutoGeneratedMetaDataObjects.obj
 0001:00035060       ?getPxArticulationReducedCoordinate_Scene@@YAPEAVPxScene@physx@@PEBVPxArticulationReducedCoordinate@2@@Z 0000000180036060 f   PxAutoGeneratedMetaDataObjects.obj
 0001:00035060       ?getPxConstraint_Scene@@YAPEAVPxScene@physx@@PEBVPxConstraint@2@@Z 0000000180036060 f   PxAutoGeneratedMetaDataObjects.obj
 0001:00035060       ?getPxRefCounted_ReferenceCount@@YAIPEBVPxRefCounted@physx@@@Z 0000000180036060 f   PxAutoGeneratedMetaDataObjects.obj
 0001:00035060       ?getPxSceneQuerySystemBase_UpdateMode@@YA?AW4Enum@PxSceneQueryUpdateMode@physx@@PEBVPxSceneQuerySystemBase@3@@Z 0000000180036060 f   PxAutoGeneratedMetaDataObjects.obj
 0001:00035060       ?getPxSceneSQSystem_SceneQueryUpdateMode@@YA?AW4Enum@PxSceneQueryUpdateMode@physx@@PEBVPxSceneSQSystem@3@@Z 0000000180036060 f   PxAutoGeneratedMetaDataObjects.obj
 0001:00035070       ?getConcreteTypeName@?$PxSerializerDefaultAdapter@VBV4TriangleMesh@Gu@physx@@@physx@@UEBAPEBDXZ 0000000180036070 f i NpSerializerAdapter.obj
 0001:00035070       ?getConcreteTypeName@?$PxSerializerDefaultAdapter@VConvexMesh@Gu@physx@@@physx@@UEBAPEBDXZ 0000000180036070 f i NpSerializerAdapter.obj
 0001:00035070       ?getConcreteTypeName@?$PxSerializerDefaultAdapter@VHeightField@Gu@physx@@@physx@@UEBAPEBDXZ 0000000180036070 f i NpSerializerAdapter.obj
 0001:00035070       ?getConcreteTypeName@?$PxSerializerDefaultAdapter@VNpAggregate@physx@@@physx@@UEBAPEBDXZ 0000000180036070 f i NpSerializerAdapter.obj
 0001:00035070       ?getConcreteTypeName@?$PxSerializerDefaultAdapter@VNpArticulationAttachment@physx@@@physx@@UEBAPEBDXZ 0000000180036070 f i NpSerializerAdapter.obj
 0001:00035070       ?getConcreteTypeName@?$PxSerializerDefaultAdapter@VNpArticulationFixedTendon@physx@@@physx@@UEBAPEBDXZ 0000000180036070 f i NpSerializerAdapter.obj
 0001:00035070       ?getConcreteTypeName@?$PxSerializerDefaultAdapter@VNpArticulationJointReducedCoordinate@physx@@@physx@@UEBAPEBDXZ 0000000180036070 f i NpSerializerAdapter.obj
 0001:00035070       ?getConcreteTypeName@?$PxSerializerDefaultAdapter@VNpArticulationLink@physx@@@physx@@UEBAPEBDXZ 0000000180036070 f i NpSerializerAdapter.obj
 0001:00035070       ?getConcreteTypeName@?$PxSerializerDefaultAdapter@VNpArticulationReducedCoordinate@physx@@@physx@@UEBAPEBDXZ 0000000180036070 f i NpSerializerAdapter.obj
 0001:00035070       ?getConcreteTypeName@?$PxSerializerDefaultAdapter@VNpArticulationSensor@physx@@@physx@@UEBAPEBDXZ 0000000180036070 f i NpSerializerAdapter.obj
 0001:00035070       ?getConcreteTypeName@?$PxSerializerDefaultAdapter@VNpArticulationSpatialTendon@physx@@@physx@@UEBAPEBDXZ 0000000180036070 f i NpSerializerAdapter.obj
 0001:00035070       ?getConcreteTypeName@?$PxSerializerDefaultAdapter@VNpArticulationTendonJoint@physx@@@physx@@UEBAPEBDXZ 0000000180036070 f i NpSerializerAdapter.obj
 0001:00035070       ?getConcreteTypeName@?$PxSerializerDefaultAdapter@VNpConstraint@physx@@@physx@@UEBAPEBDXZ 0000000180036070 f i NpSerializerAdapter.obj
 0001:00035070       ?getConcreteTypeName@?$PxSerializerDefaultAdapter@VNpMaterial@physx@@@physx@@UEBAPEBDXZ 0000000180036070 f i NpSerializerAdapter.obj
 0001:00035070       ?getConcreteTypeName@?$PxSerializerDefaultAdapter@VNpRigidDynamic@physx@@@physx@@UEBAPEBDXZ 0000000180036070 f i NpSerializerAdapter.obj
 0001:00035070       ?getConcreteTypeName@?$PxSerializerDefaultAdapter@VNpRigidStatic@physx@@@physx@@UEBAPEBDXZ 0000000180036070 f i NpSerializerAdapter.obj
 0001:00035070       ?getConcreteTypeName@?$PxSerializerDefaultAdapter@VNpShape@physx@@@physx@@UEBAPEBDXZ 0000000180036070 f i NpSerializerAdapter.obj
 0001:00035070       ?getConcreteTypeName@?$PxSerializerDefaultAdapter@VPruningStructure@Sq@physx@@@physx@@UEBAPEBDXZ 0000000180036070 f i NpSerializerAdapter.obj
 0001:00035070       ?getConcreteTypeName@?$PxSerializerDefaultAdapter@VRTreeTriangleMesh@Gu@physx@@@physx@@UEBAPEBDXZ 0000000180036070 f i NpSerializerAdapter.obj
 0001:00035070       ?getPoints@RenderBuffer@Cm@physx@@UEBAPEBUPxDebugPoint@3@XZ 0000000180036070 f i NpScene.obj
 0001:00035070       ?getPxBroadPhaseDescMContextID@@YA_KPEBVPxBroadPhaseDesc@physx@@@Z 0000000180036070 f i PxAutoGeneratedMetaDataObjects.obj
 0001:00035070       ?getPxHeightFieldGeometryHeightField@@YAPEAVPxHeightField@physx@@PEBVPxHeightFieldGeometry@2@@Z 0000000180036070 f i PxAutoGeneratedMetaDataObjects.obj
 0001:00035070       ?getPxSceneUserData@@YAPEAXPEBVPxScene@physx@@@Z 0000000180036070 f i PxAutoGeneratedMetaDataObjects.obj
 0001:00035070       ?getPxTetrahedronMeshGeometryTetrahedronMesh@@YAPEAVPxTetrahedronMesh@physx@@PEBVPxTetrahedronMeshGeometry@2@@Z 0000000180036070 f i PxAutoGeneratedMetaDataObjects.obj
 0001:00035080       ?getPxBroadPhaseDescMDiscardKinematicVsKinematic@@YA_NPEBVPxBroadPhaseDesc@physx@@@Z 0000000180036080 f i PxAutoGeneratedMetaDataObjects.obj
 0001:00035090       ?getPxBroadPhaseDescMDiscardStaticVsKinematic@@YA_NPEBVPxBroadPhaseDesc@physx@@@Z 0000000180036090 f i PxAutoGeneratedMetaDataObjects.obj
 0001:000350a0       ?getPxBroadPhaseDescMFoundLostPairsCapacity@@YAIPEBVPxBroadPhaseDesc@physx@@@Z 00000001800360a0 f i PxAutoGeneratedMetaDataObjects.obj
 0001:000350a0       ?getPxSceneLimitsMaxNbRegions@@YAIPEBVPxSceneLimits@physx@@@Z 00000001800360a0 f i PxAutoGeneratedMetaDataObjects.obj
 0001:000350a0       ?getPxSceneQueryDescStaticNbObjectsPerNode@@YAIPEBVPxSceneQueryDesc@physx@@@Z 00000001800360a0 f i PxAutoGeneratedMetaDataObjects.obj
 0001:000350a0       ?getPxgDynamicsMemoryConfigTotalAggregatePairsCapacity@@YAIPEBUPxgDynamicsMemoryConfig@physx@@@Z 00000001800360a0 f i PxAutoGeneratedMetaDataObjects.obj
 0001:000350a0       ?getReference@FanoutTask@Cm@physx@@UEBAHXZ 00000001800360a0 f i SimulationController_static_64:ScScene.obj
 0001:000350a0       ?raw_length@pairNode@@UEBAHXZ 00000001800360a0 f i libvcruntime:undname.obj
 0001:000350b0       ?getPxBroadPhaseDescMType@@YA?AW4Enum@PxBroadPhaseType@physx@@PEBVPxBroadPhaseDesc@3@@Z 00000001800360b0 f i PxAutoGeneratedMetaDataObjects.obj
 0001:000350b0       ?getPxHeightFieldDescNbRows@@YAIPEBVPxHeightFieldDesc@physx@@@Z 00000001800360b0 f i PxAutoGeneratedMetaDataObjects.obj
 0001:000350b0       ?getPxSceneLimitsMaxNbActors@@YAIPEBVPxSceneLimits@physx@@@Z 00000001800360b0 f i PxAutoGeneratedMetaDataObjects.obj
 0001:000350b0       ?getPxSceneQueryDescStaticStructure@@YA?AW4Enum@PxPruningStructureType@physx@@PEBVPxSceneQueryDesc@3@@Z 00000001800360b0 f i PxAutoGeneratedMetaDataObjects.obj
 0001:000350b0       ?getPxSimulationStatisticsNbActiveConstraints@@YAIPEBVPxSimulationStatistics@physx@@@Z 00000001800360b0 f i PxAutoGeneratedMetaDataObjects.obj
 0001:000350b0       ?getPxgDynamicsMemoryConfigTempBufferCapacity@@YAIPEBUPxgDynamicsMemoryConfig@physx@@@Z 00000001800360b0 f i PxAutoGeneratedMetaDataObjects.obj
 0001:000350c0       ?getPxBroadPhaseDesc_IsValid@@YA_NPEBVPxBroadPhaseDesc@physx@@@Z 00000001800360c0 f   PxAutoGeneratedMetaDataObjects.obj
 0001:000350e0       ?getLimitStiffness@ArticulationFixedTendonCore@Sc@physx@@QEBAMXZ 00000001800360e0 f i SimulationController_static_64:ScArticulationTendonCore.obj
 0001:000350e0       ?getLimitStiffness@ArticulationSpatialTendonCore@Sc@physx@@QEBAMXZ 00000001800360e0 f i SimulationController_static_64:ScArticulationTendonCore.obj
 0001:000350e0       ?getPxCapsuleGeometryHalfHeight@@YAMPEBVPxCapsuleGeometry@physx@@@Z 00000001800360e0 f i PxAutoGeneratedMetaDataObjects.obj
 0001:000350f0       ?getPxConstraint_BreakForce@@YAXPEBVPxConstraint@physx@@AEAM1@Z 00000001800360f0 f   PxAutoGeneratedMetaDataObjects.obj
 0001:000350f0       ?getPxFEMSoftBodyMaterial_Damping@@YAMPEBVPxFEMSoftBodyMaterial@physx@@@Z 00000001800360f0 f   PxAutoGeneratedMetaDataObjects.obj
 0001:000350f0       ?getPxMaterial_Damping@@YAMPEBVPxMaterial@physx@@@Z 00000001800360f0 f   PxAutoGeneratedMetaDataObjects.obj
 0001:000350f0       ?getPxParticleMaterial_GravityScale@@YAMPEBVPxParticleMaterial@physx@@@Z 00000001800360f0 f   PxAutoGeneratedMetaDataObjects.obj
 0001:000350f0       ?setPxActor_OwnerClient@@YAXPEAVPxActor@physx@@E@Z 00000001800360f0 f   PxAutoGeneratedMetaDataObjects.obj
 0001:000350f0       ?setPxShape_QueryFilterData@@YAXPEAVPxShape@physx@@AEBUPxFilterData@2@@Z 00000001800360f0 f   PxAutoGeneratedMetaDataObjects.obj
 0001:00035100       ?getPxConstraint_Flags@@YA?AV?$PxFlags@W4Enum@PxConstraintFlag@physx@@G@physx@@PEBVPxConstraint@2@@Z 0000000180036100 f   PxAutoGeneratedMetaDataObjects.obj
 0001:00035130       ?getPxConvexMeshGeometryMeshFlags@@YA?AV?$PxFlags@W4Enum@PxConvexMeshGeometryFlag@physx@@E@physx@@PEBVPxConvexMeshGeometry@2@@Z 0000000180036130 f i PxAutoGeneratedMetaDataObjects.obj
 0001:00035140       ?getPxConvexMeshGeometryScale@@YA?AVPxMeshScale@physx@@PEBVPxConvexMeshGeometry@2@@Z 0000000180036140 f i PxAutoGeneratedMetaDataObjects.obj
 0001:00035140       ?getPxTriangleMeshGeometryScale@@YA?AVPxMeshScale@physx@@PEBVPxTriangleMeshGeometry@2@@Z 0000000180036140 f i PxAutoGeneratedMetaDataObjects.obj
 0001:00035170       ?getAdhesion@NpPBDMaterial@physx@@UEBAMXZ 0000000180036170 f i NpPBDMaterial.obj
 0001:00035170       ?getPxHeightFieldDescConvexEdgeThreshold@@YAMPEBVPxHeightFieldDesc@physx@@@Z 0000000180036170 f i PxAutoGeneratedMetaDataObjects.obj
 0001:00035170       ?getRestitution@NpMaterial@physx@@UEBAMXZ 0000000180036170 f i NpMaterial.obj
 0001:00035170       ?getYoungsModulus@NpFEMSoftBodyMaterial@physx@@UEBAMXZ 0000000180036170 f i NpFEMSoftBodyMaterial.obj
 0001:00035180       ?getPxHeightFieldDescFlags@@YA?AV?$PxFlags@W4Enum@PxHeightFieldFlag@physx@@G@physx@@PEBVPxHeightFieldDesc@2@@Z 0000000180036180 f i PxAutoGeneratedMetaDataObjects.obj
 0001:00035190       ?getPxHeightFieldDescFormat@@YA?AW4Enum@PxHeightFieldFormat@physx@@PEBVPxHeightFieldDesc@3@@Z 0000000180036190 f i PxAutoGeneratedMetaDataObjects.obj
 0001:00035190       ?getPxSceneLimitsMaxNbStaticShapes@@YAIPEBVPxSceneLimits@physx@@@Z 0000000180036190 f i PxAutoGeneratedMetaDataObjects.obj
 0001:00035190       ?getPxSceneQueryDescDynamicTreeRebuildRateHint@@YAIPEBVPxSceneQueryDesc@physx@@@Z 0000000180036190 f i PxAutoGeneratedMetaDataObjects.obj
 0001:00035190       ?getPxSimulationStatisticsNbActiveKinematicBodies@@YAIPEBVPxSimulationStatistics@physx@@@Z 0000000180036190 f i PxAutoGeneratedMetaDataObjects.obj
 0001:00035190       ?getPxgDynamicsMemoryConfigMaxRigidPatchCount@@YAIPEBUPxgDynamicsMemoryConfig@physx@@@Z 0000000180036190 f i PxAutoGeneratedMetaDataObjects.obj
 0001:000351a0       ?getPxHeightFieldDescNbColumns@@YAIPEBVPxHeightFieldDesc@physx@@@Z 00000001800361a0 f i PxAutoGeneratedMetaDataObjects.obj
 0001:000351a0       ?getPxSceneLimitsMaxNbBodies@@YAIPEBVPxSceneLimits@physx@@@Z 00000001800361a0 f i PxAutoGeneratedMetaDataObjects.obj
 0001:000351a0       ?getPxSceneQueryDescDynamicStructure@@YA?AW4Enum@PxPruningStructureType@physx@@PEBVPxSceneQueryDesc@3@@Z 00000001800361a0 f i PxAutoGeneratedMetaDataObjects.obj
 0001:000351a0       ?getPxSimulationStatisticsNbActiveDynamicBodies@@YAIPEBVPxSimulationStatistics@physx@@@Z 00000001800361a0 f i PxAutoGeneratedMetaDataObjects.obj
 0001:000351a0       ?getPxgDynamicsMemoryConfigMaxRigidContactCount@@YAIPEBUPxgDynamicsMemoryConfig@physx@@@Z 00000001800361a0 f i PxAutoGeneratedMetaDataObjects.obj
 0001:000351b0       ?getPxHeightFieldDescSamples@@YA?AUPxStridedData@physx@@PEBVPxHeightFieldDesc@2@@Z 00000001800361b0 f i PxAutoGeneratedMetaDataObjects.obj
 0001:000351c0       ?getDynamicFriction@NpMaterial@physx@@UEBAMXZ 00000001800361c0 f i NpMaterial.obj
 0001:000351c0       ?getFriction@NpPBDMaterial@physx@@UEBAMXZ 00000001800361c0 f i NpPBDMaterial.obj
 0001:000351c0       ?getPxHeightFieldGeometryColumnScale@@YAMPEBVPxHeightFieldGeometry@physx@@@Z 00000001800361c0 f i PxAutoGeneratedMetaDataObjects.obj
 0001:000351c0       ?getSpringRestLength@ArticulationFixedTendonCore@Sc@physx@@QEBAMXZ 00000001800361c0 f i SimulationController_static_64:ScArticulationTendonCore.obj
 0001:000351d0       ?getPxHeightFieldGeometryHeightFieldFlags@@YA?AV?$PxFlags@W4Enum@PxMeshGeometryFlag@physx@@E@physx@@PEBVPxHeightFieldGeometry@2@@Z 00000001800361d0 f i PxAutoGeneratedMetaDataObjects.obj
 0001:000351e0       ?getPxHeightFieldGeometryHeightScale@@YAMPEBVPxHeightFieldGeometry@physx@@@Z 00000001800361e0 f i PxAutoGeneratedMetaDataObjects.obj
 0001:000351f0       ?getPxHeightFieldGeometryRowScale@@YAMPEBVPxHeightFieldGeometry@physx@@@Z 00000001800361f0 f i PxAutoGeneratedMetaDataObjects.obj
 0001:00035200       ?getPxMaterial_Flags@@YA?AV?$PxFlags@W4Enum@PxMaterialFlag@physx@@G@physx@@PEBVPxMaterial@2@@Z 0000000180036200 f   PxAutoGeneratedMetaDataObjects.obj
 0001:00035200       ?getPxScene_Flags@@YA?AV?$PxFlags@W4Enum@PxSceneFlag@physx@@I@physx@@PEBVPxScene@2@@Z 0000000180036200 f   PxAutoGeneratedMetaDataObjects.obj
 0001:00035230       ?getPxMeshScaleRotation@@YA?AV?$PxQuatT@M@physx@@PEBVPxMeshScale@2@@Z 0000000180036230 f i PxAutoGeneratedMetaDataObjects.obj
 0001:00035250       ?getPxMeshScaleScale@@YA?AV?$PxVec3T@M@physx@@PEBVPxMeshScale@2@@Z 0000000180036250 f i PxAutoGeneratedMetaDataObjects.obj
 0001:00035270       ?getPxPBDMaterial_Drag@@YAMPEBVPxPBDMaterial@physx@@@Z 0000000180036270 f   PxAutoGeneratedMetaDataObjects.obj
 0001:00035270       ?setPxArticulationJointReducedCoordinate_JointPosition@@YAXPEAVPxArticulationJointReducedCoordinate@physx@@W4Enum@PxArticulationAxis@2@M@Z 0000000180036270 f   PxAutoGeneratedMetaDataObjects.obj
 0001:00035270       ?setPxRigidBody_Mass@@YAXPEAVPxRigidBody@physx@@M@Z 0000000180036270 f   PxAutoGeneratedMetaDataObjects.obj
 0001:00035270       ?setPxShape_DensityForFluid@@YAXPEAVPxShape@physx@@M@Z 0000000180036270 f   PxAutoGeneratedMetaDataObjects.obj
 0001:00035280       ?getPxPBDMaterial_Lift@@YAMPEBVPxPBDMaterial@physx@@@Z 0000000180036280 f   PxAutoGeneratedMetaDataObjects.obj
 0001:00035280       ?setPxArticulationJointReducedCoordinate_MaxJointVelocity@@YAXPEAVPxArticulationJointReducedCoordinate@physx@@M@Z 0000000180036280 f   PxAutoGeneratedMetaDataObjects.obj
 0001:00035280       ?setPxRigidBody_CMassLocalPose@@YAXPEAVPxRigidBody@physx@@AEBV?$PxTransformT@M@2@@Z 0000000180036280 f   PxAutoGeneratedMetaDataObjects.obj
 0001:00035280       ?setPxShape_RestOffset@@YAXPEAVPxShape@physx@@M@Z 0000000180036280 f   PxAutoGeneratedMetaDataObjects.obj
 0001:00035290       ?getPxPBDMaterial_ParticleAdhesionScale@@YAMPEBVPxPBDMaterial@physx@@@Z 0000000180036290 f   PxAutoGeneratedMetaDataObjects.obj
 0001:00035290       ?getPxShape_InternalShapeIndex@@YAIPEBVPxShape@physx@@@Z 0000000180036290 f   PxAutoGeneratedMetaDataObjects.obj
 0001:00035290       ?setPxRigidBody_LinearDamping@@YAXPEAVPxRigidBody@physx@@M@Z 0000000180036290 f   PxAutoGeneratedMetaDataObjects.obj
 0001:000352a0       ?getPxPBDMaterial_ParticleFrictionScale@@YAMPEBVPxPBDMaterial@physx@@@Z 00000001800362a0 f   PxAutoGeneratedMetaDataObjects.obj
 0001:000352a0       ?setPxShape_MinTorsionalPatchRadius@@YAXPEAVPxShape@physx@@M@Z 00000001800362a0 f   PxAutoGeneratedMetaDataObjects.obj
 0001:000352b0       ?getPxPBDMaterial_VorticityConfinement@@YAMPEBVPxPBDMaterial@physx@@@Z 00000001800362b0 f   PxAutoGeneratedMetaDataObjects.obj
 0001:000352b0       ?setPxMaterial_RestitutionCombineMode@@YAXPEAVPxMaterial@physx@@W4Enum@PxCombineMode@2@@Z 00000001800362b0 f   PxAutoGeneratedMetaDataObjects.obj
 0001:000352c0       ?getPxPhysics_BVHs@@YAIPEBVPxPhysics@physx@@PEAPEAVPxBVH@2@I@Z 00000001800362c0 f   PxAutoGeneratedMetaDataObjects.obj
 0001:000352c0       ?getPxShape_Materials@@YAIPEBVPxShape@physx@@PEAPEAVPxMaterial@2@I@Z 00000001800362c0 f   PxAutoGeneratedMetaDataObjects.obj
 0001:000352d0       ?getPxPhysics_ConvexMeshes@@YAIPEBVPxPhysics@physx@@PEAPEAVPxConvexMesh@2@I@Z 00000001800362d0 f   PxAutoGeneratedMetaDataObjects.obj
 0001:000352e0       ?getPxPhysics_FEMClothMaterials@@YAIPEBVPxPhysics@physx@@PEAPEAVPxFEMClothMaterial@2@I@Z 00000001800362e0 f   PxAutoGeneratedMetaDataObjects.obj
 0001:000352f0       ?getPxPhysics_FEMSoftBodyMaterials@@YAIPEBVPxPhysics@physx@@PEAPEAVPxFEMSoftBodyMaterial@2@I@Z 00000001800362f0 f   PxAutoGeneratedMetaDataObjects.obj
 0001:00035300       ?getPxPhysics_HeightFields@@YAIPEBVPxPhysics@physx@@PEAPEAVPxHeightField@2@I@Z 0000000180036300 f   PxAutoGeneratedMetaDataObjects.obj
 0001:00035310       ?getPxPhysics_Materials@@YAIPEBVPxPhysics@physx@@PEAPEAVPxMaterial@2@I@Z 0000000180036310 f   PxAutoGeneratedMetaDataObjects.obj
 0001:00035310       ?getPxScene_Articulations@@YAIPEBVPxScene@physx@@PEAPEAVPxArticulationReducedCoordinate@2@I@Z 0000000180036310 f   PxAutoGeneratedMetaDataObjects.obj
 0001:00035320       ?getPxPhysics_PBDMaterials@@YAIPEBVPxPhysics@physx@@PEAPEAVPxPBDMaterial@2@I@Z 0000000180036320 f   PxAutoGeneratedMetaDataObjects.obj
 0001:00035330       ?getPxPhysics_Scenes@@YAIPEBVPxPhysics@physx@@PEAPEAVPxScene@2@I@Z 0000000180036330 f   PxAutoGeneratedMetaDataObjects.obj
 0001:00035330       ?getPxRigidActor_Shapes@@YAIPEBVPxRigidActor@physx@@PEAPEAVPxShape@2@I@Z 0000000180036330 f   PxAutoGeneratedMetaDataObjects.obj
 0001:00035340       ?getPxPhysics_Shapes@@YAIPEBVPxPhysics@physx@@PEAPEAVPxShape@2@I@Z 0000000180036340 f   PxAutoGeneratedMetaDataObjects.obj
 0001:00035350       ?getPxPhysics_TriangleMeshes@@YAIPEBVPxPhysics@physx@@PEAPEAVPxTriangleMesh@2@I@Z 0000000180036350 f   PxAutoGeneratedMetaDataObjects.obj
 0001:00035360       ?getPxPruningStructure_RigidActors@@YAIPEBVPxPruningStructure@physx@@PEAPEAVPxRigidActor@2@I@Z 0000000180036360 f   PxAutoGeneratedMetaDataObjects.obj
 0001:00035370       ?getPxRigidActor_Constraints@@YAIPEBVPxRigidActor@physx@@PEAPEAVPxConstraint@2@I@Z 0000000180036370 f   PxAutoGeneratedMetaDataObjects.obj
 0001:00035380       ?getPxRigidActor_GlobalPose@@YA?AV?$PxTransformT@M@physx@@PEBVPxRigidActor@2@@Z 0000000180036380 f   PxAutoGeneratedMetaDataObjects.obj
 0001:000353b0       ?getPxRigidBody_CMassLocalPose@@YA?AV?$PxTransformT@M@physx@@PEBVPxRigidBody@2@@Z 00000001800363b0 f   PxAutoGeneratedMetaDataObjects.obj
 0001:000353e0       ?getPxRigidBody_ContactSlopCoefficient@@YAMPEBVPxRigidBody@physx@@@Z 00000001800363e0 f   PxAutoGeneratedMetaDataObjects.obj
 0001:000353e0       ?setPxScene_CCDContactModifyCallback@@YAXPEAVPxScene@physx@@PEAVPxCCDContactModifyCallback@2@@Z 00000001800363e0 f   PxAutoGeneratedMetaDataObjects.obj
 0001:000353f0       ?getPxRigidBody_LinearDamping@@YAMPEBVPxRigidBody@physx@@@Z 00000001800363f0 f   PxAutoGeneratedMetaDataObjects.obj
 0001:00035400       ?getPxRigidBody_MassSpaceInertiaTensor@@YA?AV?$PxVec3T@M@physx@@PEBVPxRigidBody@2@@Z 0000000180036400 f   PxAutoGeneratedMetaDataObjects.obj
 0001:00035430       ?getPxRigidBody_MassSpaceInvInertiaTensor@@YA?AV?$PxVec3T@M@physx@@PEBVPxRigidBody@2@@Z 0000000180036430 f   PxAutoGeneratedMetaDataObjects.obj
 0001:00035460       ?getPxRigidBody_MaxAngularVelocity@@YAMPEBVPxRigidBody@physx@@@Z 0000000180036460 f   PxAutoGeneratedMetaDataObjects.obj
 0001:00035470       ?getPxRigidBody_MaxContactImpulse@@YAMPEBVPxRigidBody@physx@@@Z 0000000180036470 f   PxAutoGeneratedMetaDataObjects.obj
 0001:00035470       ?getPxScene_SimulationEventCallback@@YAPEAVPxSimulationEventCallback@physx@@PEBVPxScene@2@@Z 0000000180036470 f   PxAutoGeneratedMetaDataObjects.obj
 0001:00035480       ?getPxRigidBody_MaxDepenetrationVelocity@@YAMPEBVPxRigidBody@physx@@@Z 0000000180036480 f   PxAutoGeneratedMetaDataObjects.obj
 0001:00035490       ?getPxRigidBody_MaxLinearVelocity@@YAMPEBVPxRigidBody@physx@@@Z 0000000180036490 f   PxAutoGeneratedMetaDataObjects.obj
 0001:000354a0       ?getPxRigidBody_MinCCDAdvanceCoefficient@@YAMPEBVPxRigidBody@physx@@@Z 00000001800364a0 f   PxAutoGeneratedMetaDataObjects.obj
 0001:000354a0       ?getPxScene_CpuDispatcher@@YAPEAVPxCpuDispatcher@physx@@PEBVPxScene@2@@Z 00000001800364a0 f   PxAutoGeneratedMetaDataObjects.obj
 0001:000354b0       ?getPxRigidBody_RigidBodyFlags@@YA?AV?$PxFlags@W4Enum@PxRigidBodyFlag@physx@@G@physx@@PEBVPxRigidBody@2@@Z 00000001800364b0 f   PxAutoGeneratedMetaDataObjects.obj
 0001:000354e0       ?getPxRigidDynamic_ContactReportThreshold@@YAMPEBVPxRigidDynamic@physx@@@Z 00000001800364e0 f   PxAutoGeneratedMetaDataObjects.obj
 0001:000354f0       ?getPxRigidDynamic_RigidDynamicLockFlags@@YA?AV?$PxFlags@W4Enum@PxRigidDynamicLockFlag@physx@@E@physx@@PEBVPxRigidDynamic@2@@Z 00000001800364f0 f   PxAutoGeneratedMetaDataObjects.obj
 0001:00035520       ?getPxRigidDynamic_SolverIterationCounts@@YAXPEBVPxRigidDynamic@physx@@AEAI1@Z 0000000180036520 f   PxAutoGeneratedMetaDataObjects.obj
 0001:00035530       ?getPxRigidDynamic_StabilizationThreshold@@YAMPEBVPxRigidDynamic@physx@@@Z 0000000180036530 f   PxAutoGeneratedMetaDataObjects.obj
 0001:00035530       ?getPxScene_FilterShader@@YAP6A?AV?$PxFlags@W4Enum@PxFilterFlag@physx@@G@physx@@IUPxFilterData@2@I0AEAV?$PxFlags@W4Enum@PxPairFlag@physx@@G@2@PEBXI@ZPEBVPxScene@2@@Z 0000000180036530 f   PxAutoGeneratedMetaDataObjects.obj
 0001:00035530       ?setPxArticulationLink_CfmScale@@YAXPEAVPxArticulationLink@physx@@M@Z 0000000180036530 f   PxAutoGeneratedMetaDataObjects.obj
 0001:00035540       ?getPxRigidDynamic_WakeCounter@@YAMPEBVPxRigidDynamic@physx@@@Z 0000000180036540 f   PxAutoGeneratedMetaDataObjects.obj
 0001:00035550       ?getPxSceneDescBounceThresholdVelocity@@YAMPEBVPxSceneDesc@physx@@@Z 0000000180036550 f i PxAutoGeneratedMetaDataObjects.obj
 0001:00035560       ?getPxSceneDescBroadPhaseCallback@@YAPEAVPxBroadPhaseCallback@physx@@PEBVPxSceneDesc@2@@Z 0000000180036560 f i PxAutoGeneratedMetaDataObjects.obj
 0001:00035560       ?getTendon@NpArticulationAttachment@physx@@UEBAPEAVPxArticulationSpatialTendon@2@XZ 0000000180036560 f i NpArticulationTendon.obj
 0001:00035570       ?getPxSceneDescBroadPhaseType@@YA?AW4Enum@PxBroadPhaseType@physx@@PEBVPxSceneDesc@3@@Z 0000000180036570 f i PxAutoGeneratedMetaDataObjects.obj
 0001:00035570       ?getPxSimulationStatisticsNbNewTouches@@YAIPEBVPxSimulationStatistics@physx@@@Z 0000000180036570 f i PxAutoGeneratedMetaDataObjects.obj
 0001:00035580       ?getPxSceneDescCcdContactModifyCallback@@YAPEAVPxCCDContactModifyCallback@physx@@PEBVPxSceneDesc@2@@Z 0000000180036580 f i PxAutoGeneratedMetaDataObjects.obj
 0001:00035580       ?getSimulationMesh@NpSoftBody@physx@@UEAAPEAVPxTetrahedronMesh@2@XZ 0000000180036580 f i NpSoftBody.obj
 0001:00035580       ?getSimulationMesh@NpSoftBody@physx@@UEBAPEBVPxTetrahedronMesh@2@XZ 0000000180036580 f i NpSoftBody.obj
 0001:00035590       ?getPeakConstraintBlockCount@PxcNpMemBlockPool@physx@@QEBAIXZ 0000000180036590 f i LowLevel_static_64:PxcNpMemBlockPool.obj
 0001:00035590       ?getPxSceneDescCcdMaxPasses@@YAIPEBVPxSceneDesc@physx@@@Z 0000000180036590 f i PxAutoGeneratedMetaDataObjects.obj
 0001:000355a0       ?getMaxVelocity@ParticleSystemCore@Sc@physx@@QEBAMXZ 00000001800365a0 f i SimulationController_static_64:ScParticleSystemCore.obj
 0001:000355a0       ?getPxSceneDescCcdMaxSeparation@@YAMPEBVPxSceneDesc@physx@@@Z 00000001800365a0 f i PxAutoGeneratedMetaDataObjects.obj
 0001:000355b0       ?getMaxDepenetrationVelocity@ParticleSystemCore@Sc@physx@@QEBAMXZ 00000001800365b0 f i SimulationController_static_64:ScParticleSystemCore.obj
 0001:000355b0       ?getPxSceneDescCcdThreshold@@YAMPEBVPxSceneDesc@physx@@@Z 00000001800365b0 f i PxAutoGeneratedMetaDataObjects.obj
 0001:000355c0       ?getPxSceneDescContactModifyCallback@@YAPEAVPxContactModifyCallback@physx@@PEBVPxSceneDesc@2@@Z 00000001800365c0 f i PxAutoGeneratedMetaDataObjects.obj
 0001:000355c0       ?getShape@NpSoftBody@physx@@UEAAPEAVPxShape@2@XZ 00000001800365c0 f i NpSoftBody.obj
 0001:000355d0       ?getDynamicStructure@NpScene@physx@@UEBA?AW4Enum@PxPruningStructureType@2@XZ 00000001800365d0 f i NpSceneQueries.obj
 0001:000355d0       ?getPxSceneDescContactPairSlabSize@@YAIPEBVPxSceneDesc@physx@@@Z 00000001800365d0 f i PxAutoGeneratedMetaDataObjects.obj
 0001:000355e0       ?getPxSceneDescContactReportStreamBufferSize@@YAIPEBVPxSceneDesc@physx@@@Z 00000001800365e0 f i PxAutoGeneratedMetaDataObjects.obj
 0001:000355f0       ?getPxSceneDescCpuDispatcher@@YAPEAVPxCpuDispatcher@physx@@PEBVPxSceneDesc@2@@Z 00000001800365f0 f i PxAutoGeneratedMetaDataObjects.obj
 0001:000355f0       ?getPxSimulationStatisticsGpuMemHeapSolver@@YA_KPEBVPxSimulationStatistics@physx@@@Z 00000001800365f0 f i PxAutoGeneratedMetaDataObjects.obj
 0001:00035600       ?getPxSceneDescCudaContextManager@@YAPEAVPxCudaContextManager@physx@@PEBVPxSceneDesc@2@@Z 0000000180036600 f i PxAutoGeneratedMetaDataObjects.obj
 0001:00035600       ?getPxSimulationStatisticsGpuMemHeapArticulation@@YA_KPEBVPxSimulationStatistics@physx@@@Z 0000000180036600 f i PxAutoGeneratedMetaDataObjects.obj
 0001:00035610       ?getArticulation@NpArticulationFixedTendon@physx@@UEBAPEAVPxArticulationReducedCoordinate@2@XZ 0000000180036610 f i NpArticulationTendon.obj
 0001:00035610       ?getArticulation@NpArticulationSpatialTendon@physx@@UEBAPEAVPxArticulationReducedCoordinate@2@XZ 0000000180036610 f i NpArticulationTendon.obj
 0001:00035610       ?getPxSceneDescFilterCallback@@YAPEAVPxSimulationFilterCallback@physx@@PEBVPxSceneDesc@2@@Z 0000000180036610 f i PxAutoGeneratedMetaDataObjects.obj
 0001:00035610       ?getShapeInteractions@PxsNphaseImplementationContext@physx@@UEAAPEAPEAVShapeInteraction@Sc@2@XZ 0000000180036610 f i LowLevel_static_64:PxsNphaseImplementationContext.obj
 0001:00035620       ?getPxSceneDescFilterShader@@YAP6A?AV?$PxFlags@W4Enum@PxFilterFlag@physx@@G@physx@@IUPxFilterData@2@I0AEAV?$PxFlags@W4Enum@PxPairFlag@physx@@G@2@PEBXI@ZPEBVPxSceneDesc@2@@Z 0000000180036620 f i PxAutoGeneratedMetaDataObjects.obj
 0001:00035630       ?getPxSceneDescFilterShaderData@@YAPEBXPEBVPxSceneDesc@physx@@@Z 0000000180036630 f i PxAutoGeneratedMetaDataObjects.obj
 0001:00035630       ?getSoftBodyAuxData@NpSoftBody@physx@@UEAAPEAVPxSoftBodyAuxData@2@XZ 0000000180036630 f i NpSoftBody.obj
 0001:00035630       ?getSoftBodyAuxData@NpSoftBody@physx@@UEBAPEBVPxSoftBodyAuxData@2@XZ 0000000180036630 f i NpSoftBody.obj
 0001:00035640       ?getDefaultContactReportStreamBufferSize@NPhaseCore@Sc@physx@@QEBAIXZ 0000000180036640 f i SimulationController_static_64:ScNPhaseCore.obj
 0001:00035640       ?getNbRigidActors@PruningStructure@Sq@physx@@UEBAIXZ 0000000180036640 f i NpPruningStructure.obj
 0001:00035640       ?getPxSceneDescFilterShaderDataSize@@YAIPEBVPxSceneDesc@physx@@@Z 0000000180036640 f i PxAutoGeneratedMetaDataObjects.obj
 0001:00035640       ?getPxSimulationStatisticsCompressedContactSize@@YAIPEBVPxSimulationStatistics@physx@@@Z 0000000180036640 f i PxAutoGeneratedMetaDataObjects.obj
 0001:00035650       ?getPxSceneDescFlags@@YA?AV?$PxFlags@W4Enum@PxSceneFlag@physx@@I@physx@@PEBVPxSceneDesc@2@@Z 0000000180036650 f i PxAutoGeneratedMetaDataObjects.obj
 0001:00035660       ?getPxSceneDescFrictionCorrelationDistance@@YAMPEBVPxSceneDesc@physx@@@Z 0000000180036660 f i PxAutoGeneratedMetaDataObjects.obj
 0001:00035670       ?getPxSceneDescFrictionOffsetThreshold@@YAMPEBVPxSceneDesc@physx@@@Z 0000000180036670 f i PxAutoGeneratedMetaDataObjects.obj
 0001:00035680       ?getPxSceneDescFrictionType@@YA?AW4Enum@PxFrictionType@physx@@PEBVPxSceneDesc@3@@Z 0000000180036680 f i PxAutoGeneratedMetaDataObjects.obj
 0001:00035690       ?getPxSceneDescGpuComputeVersion@@YAIPEBVPxSceneDesc@physx@@@Z 0000000180036690 f i PxAutoGeneratedMetaDataObjects.obj
 0001:00035690       ?getStaticStructure@NpScene@physx@@UEBA?AW4Enum@PxPruningStructureType@2@XZ 0000000180036690 f i NpSceneQueries.obj
 0001:000356a0       ?getPxSceneDescGpuDynamicsConfig@@YA?AUPxgDynamicsMemoryConfig@physx@@PEBVPxSceneDesc@2@@Z 00000001800366a0 f i PxAutoGeneratedMetaDataObjects.obj
 0001:000356d0       ?getPxSceneDescGpuMaxNumPartitions@@YAIPEBVPxSceneDesc@physx@@@Z 00000001800366d0 f i PxAutoGeneratedMetaDataObjects.obj
 0001:000356e0       ?getPxSceneDescGpuMaxNumStaticPartitions@@YAIPEBVPxSceneDesc@physx@@@Z 00000001800366e0 f i PxAutoGeneratedMetaDataObjects.obj
 0001:000356f0       ?getPxSceneDescGravity@@YA?AV?$PxVec3T@M@physx@@PEBVPxSceneDesc@2@@Z 00000001800366f0 f i PxAutoGeneratedMetaDataObjects.obj
 0001:00035710       ?getPxSceneDescKineKineFilteringMode@@YA?AW4Enum@PxPairFilteringMode@physx@@PEBVPxSceneDesc@3@@Z 0000000180036710 f i PxAutoGeneratedMetaDataObjects.obj
 0001:00035710       ?getPxSimulationStatisticsNbNewPairs@@YAIPEBVPxSimulationStatistics@physx@@@Z 0000000180036710 f i PxAutoGeneratedMetaDataObjects.obj
 0001:00035720       ?getPxSceneDescLimits@@YA?AVPxSceneLimits@physx@@PEBVPxSceneDesc@2@@Z 0000000180036720 f i PxAutoGeneratedMetaDataObjects.obj
 0001:00035740       ?getFluidRestOffset@ParticleSystemCore@Sc@physx@@QEBAMXZ 0000000180036740 f i SimulationController_static_64:ScParticleSystemCore.obj
 0001:00035740       ?getPxSceneDescMaxBiasCoefficient@@YAMPEBVPxSceneDesc@physx@@@Z 0000000180036740 f i PxAutoGeneratedMetaDataObjects.obj
 0001:00035750       ?getPxSceneDescMaxNbContactDataBlocks@@YAIPEBVPxSceneDesc@physx@@@Z 0000000180036750 f i PxAutoGeneratedMetaDataObjects.obj
 0001:00035760       ?getPxSceneDescNbContactDataBlocks@@YAIPEBVPxSceneDesc@physx@@@Z 0000000180036760 f i PxAutoGeneratedMetaDataObjects.obj
 0001:00035770       ?getPxSceneDescSanityBounds@@YA?AVPxBounds3@physx@@PEBVPxSceneDesc@2@@Z 0000000180036770 f i PxAutoGeneratedMetaDataObjects.obj
 0001:000357b0       ?getName@?$DelegateTask@VAABBManager@Bp@physx@@$H?postBpStage3@123@AEAAXPEAVPxBaseTask@3@@ZA@@Cm@physx@@UEBAPEBDXZ 00000001800367b0 f i LowLevelAABB_static_64:BpAABBManager.obj
 0001:000357b0       ?getName@?$DelegateTask@VNPhaseCore@Sc@physx@@$1?mergeProcessedTriggerInteractions@123@QEAAXPEAVPxBaseTask@3@@Z@Cm@physx@@UEBAPEBDXZ 00000001800367b0 f i SimulationController_static_64:ScNPhaseCore.obj
 0001:000357b0       ?getName@?$DelegateTask@VNpScene@physx@@$H?executeAdvance@12@QEAAXPEAVPxBaseTask@2@@ZA@@Cm@physx@@UEBAPEBDXZ 00000001800367b0 f i NpScene.obj
 0001:000357b0       ?getName@?$DelegateTask@VNpScene@physx@@$H?executeCollide@12@QEAAXPEAVPxBaseTask@2@@ZA@@Cm@physx@@UEBAPEBDXZ 00000001800367b0 f i NpScene.obj
 0001:000357b0       ?getName@?$DelegateTask@VNpScene@physx@@$H?executeScene@12@QEAAXPEAVPxBaseTask@2@@ZA@@Cm@physx@@UEBAPEBDXZ 00000001800367b0 f i NpScene.obj
 0001:000357b0       ?getName@?$DelegateTask@VNpScene@physx@@$H?sceneQueriesDynamicPrunerUpdate@12@AEAAXPEAVPxBaseTask@2@@ZA@@Cm@physx@@UEBAPEBDXZ 00000001800367b0 f i NpScene.obj
 0001:000357b0       ?getName@?$DelegateTask@VNpScene@physx@@$H?sceneQueriesStaticPrunerUpdate@12@AEAAXPEAVPxBaseTask@2@@ZA@@Cm@physx@@UEBAPEBDXZ 00000001800367b0 f i NpScene.obj
 0001:000357b0       ?getName@?$DelegateTask@VPxsCCDContext@physx@@$1?postCCDAdvance@12@AEAAXPEAVPxBaseTask@2@@Z@Cm@physx@@UEBAPEBDXZ 00000001800367b0 f i LowLevel_static_64:PxsCCD.obj
 0001:000357b0       ?getName@?$DelegateTask@VPxsCCDContext@physx@@$1?postCCDDepenetrate@12@AEAAXPEAVPxBaseTask@2@@Z@Cm@physx@@UEBAPEBDXZ 00000001800367b0 f i LowLevel_static_64:PxsCCD.obj
 0001:000357b0       ?getName@?$DelegateTask@VPxsCCDContext@physx@@$1?postCCDSweep@12@AEAAXPEAVPxBaseTask@2@@Z@Cm@physx@@UEBAPEBDXZ 00000001800367b0 f i LowLevel_static_64:PxsCCD.obj
 0001:000357b0       ?getName@?$DelegateTask@VScene@Sc@physx@@$1?advanceStep@123@AEAAXPEAVPxBaseTask@3@@Z@Cm@physx@@UEBAPEBDXZ 00000001800367b0 f i SimulationController_static_64:ScScene.obj
 0001:000357b0       ?getName@?$DelegateTask@VScene@Sc@physx@@$1?afterIntegration@123@AEAAXPEAVPxBaseTask@3@@Z@Cm@physx@@UEBAPEBDXZ 00000001800367b0 f i SimulationController_static_64:ScScene.obj
 0001:000357b0       ?getName@?$DelegateTask@VScene@Sc@physx@@$1?broadPhase@123@AEAAXPEAVPxBaseTask@3@@Z@Cm@physx@@UEBAPEBDXZ 00000001800367b0 f i SimulationController_static_64:ScScene.obj
 0001:000357b0       ?getName@?$DelegateTask@VScene@Sc@physx@@$1?broadPhaseFirstPass@123@AEAAXPEAVPxBaseTask@3@@Z@Cm@physx@@UEBAPEBDXZ 00000001800367b0 f i SimulationController_static_64:ScScene.obj
 0001:000357b0       ?getName@?$DelegateTask@VScene@Sc@physx@@$1?broadPhaseSecondPass@123@AEAAXPEAVPxBaseTask@3@@Z@Cm@physx@@UEBAPEBDXZ 00000001800367b0 f i SimulationController_static_64:ScScene.obj
 0001:000357b0       ?getName@?$DelegateTask@VScene@Sc@physx@@$1?ccdBroadPhase@123@AEAAXPEAVPxBaseTask@3@@Z@Cm@physx@@UEBAPEBDXZ 00000001800367b0 f i SimulationController_static_64:ScCCD.obj
 0001:000357b0       ?getName@?$DelegateTask@VScene@Sc@physx@@$1?ccdBroadPhaseAABB@123@AEAAXPEAVPxBaseTask@3@@Z@Cm@physx@@UEBAPEBDXZ 00000001800367b0 f i SimulationController_static_64:ScCCD.obj
 0001:000357b0       ?getName@?$DelegateTask@VScene@Sc@physx@@$1?collideStep@123@AEAAXPEAVPxBaseTask@3@@Z@Cm@physx@@UEBAPEBDXZ 00000001800367b0 f i SimulationController_static_64:ScScene.obj
 0001:000357b0       ?getName@?$DelegateTask@VScene@Sc@physx@@$1?destroyManagers@123@AEAAXPEAVPxBaseTask@3@@Z@Cm@physx@@UEBAPEBDXZ 00000001800367b0 f i SimulationController_static_64:ScScene.obj
 0001:000357b0       ?getName@?$DelegateTask@VScene@Sc@physx@@$1?islandGen@123@AEAAXPEAVPxBaseTask@3@@Z@Cm@physx@@UEBAPEBDXZ 00000001800367b0 f i SimulationController_static_64:ScScene.obj
 0001:000357b0       ?getName@?$DelegateTask@VScene@Sc@physx@@$1?islandInsertion@123@QEAAXPEAVPxBaseTask@3@@Z@Cm@physx@@UEBAPEBDXZ 00000001800367b0 f i SimulationController_static_64:ScScene.obj
 0001:000357b0       ?getName@?$DelegateTask@VScene@Sc@physx@@$1?lostTouchReports@123@AEAAXPEAVPxBaseTask@3@@Z@Cm@physx@@UEBAPEBDXZ 00000001800367b0 f i SimulationController_static_64:ScScene.obj
 0001:000357b0       ?getName@?$DelegateTask@VScene@Sc@physx@@$1?postBroadPhase@123@AEAAXPEAVPxBaseTask@3@@Z@Cm@physx@@UEBAPEBDXZ 00000001800367b0 f i SimulationController_static_64:ScScene.obj
 0001:000357b0       ?getName@?$DelegateTask@VScene@Sc@physx@@$1?postBroadPhaseContinuation@123@AEAAXPEAVPxBaseTask@3@@Z@Cm@physx@@UEBAPEBDXZ 00000001800367b0 f i SimulationController_static_64:ScScene.obj
 0001:000357b0       ?getName@?$DelegateTask@VScene@Sc@physx@@$1?postBroadPhaseStage2@123@AEAAXPEAVPxBaseTask@3@@Z@Cm@physx@@UEBAPEBDXZ 00000001800367b0 f i SimulationController_static_64:ScScene.obj
 0001:000357b0       ?getName@?$DelegateTask@VScene@Sc@physx@@$1?postCCDPass@123@AEAAXPEAVPxBaseTask@3@@Z@Cm@physx@@UEBAPEBDXZ 00000001800367b0 f i SimulationController_static_64:ScCCD.obj
 0001:000357b0       ?getName@?$DelegateTask@VScene@Sc@physx@@$1?postIslandGen@123@AEAAXPEAVPxBaseTask@3@@Z@Cm@physx@@UEBAPEBDXZ 00000001800367b0 f i SimulationController_static_64:ScScene.obj
 0001:000357b0       ?getName@?$DelegateTask@VScene@Sc@physx@@$1?postSolver@123@AEAAXPEAVPxBaseTask@3@@Z@Cm@physx@@UEBAPEBDXZ 00000001800367b0 f i SimulationController_static_64:ScScene.obj
 0001:000357b0       ?getName@?$DelegateTask@VScene@Sc@physx@@$1?postThirdPassIslandGen@123@AEAAXPEAVPxBaseTask@3@@Z@Cm@physx@@UEBAPEBDXZ 00000001800367b0 f i SimulationController_static_64:ScScene.obj
 0001:000357b0       ?getName@?$DelegateTask@VScene@Sc@physx@@$1?preIntegrate@123@AEAAXPEAVPxBaseTask@3@@Z@Cm@physx@@UEBAPEBDXZ 00000001800367b0 f i SimulationController_static_64:ScScene.obj
 0001:000357b0       ?getName@?$DelegateTask@VScene@Sc@physx@@$1?preRigidBodyNarrowPhase@123@AEAAXPEAVPxBaseTask@3@@Z@Cm@physx@@UEBAPEBDXZ 00000001800367b0 f i SimulationController_static_64:ScScene.obj
 0001:000357b0       ?getName@?$DelegateTask@VScene@Sc@physx@@$1?preallocateContactManagers@123@QEAAXPEAVPxBaseTask@3@@Z@Cm@physx@@UEBAPEBDXZ 00000001800367b0 f i SimulationController_static_64:ScScene.obj
 0001:000357b0       ?getName@?$DelegateTask@VScene@Sc@physx@@$1?processFoundSolverPatches@123@AEAAXPEAVPxBaseTask@3@@Z@Cm@physx@@UEBAPEBDXZ 00000001800367b0 f i SimulationController_static_64:ScScene.obj
 0001:000357b0       ?getName@?$DelegateTask@VScene@Sc@physx@@$1?processLostContacts2@123@AEAAXPEAVPxBaseTask@3@@Z@Cm@physx@@UEBAPEBDXZ 00000001800367b0 f i SimulationController_static_64:ScScene.obj
 0001:000357b0       ?getName@?$DelegateTask@VScene@Sc@physx@@$1?processLostContacts3@123@AEAAXPEAVPxBaseTask@3@@Z@Cm@physx@@UEBAPEBDXZ 00000001800367b0 f i SimulationController_static_64:ScScene.obj
 0001:000357b0       ?getName@?$DelegateTask@VScene@Sc@physx@@$1?processLostContacts@123@AEAAXPEAVPxBaseTask@3@@Z@Cm@physx@@UEBAPEBDXZ 00000001800367b0 f i SimulationController_static_64:ScScene.obj
 0001:000357b0       ?getName@?$DelegateTask@VScene@Sc@physx@@$1?processLostSolverPatches@123@AEAAXPEAVPxBaseTask@3@@Z@Cm@physx@@UEBAPEBDXZ 00000001800367b0 f i SimulationController_static_64:ScScene.obj
 0001:000357b0       ?getName@?$DelegateTask@VScene@Sc@physx@@$1?processNarrowPhaseLostTouchEvents@123@AEAAXPEAVPxBaseTask@3@@Z@Cm@physx@@UEBAPEBDXZ 00000001800367b0 f i SimulationController_static_64:ScScene.obj
 0001:000357b0       ?getName@?$DelegateTask@VScene@Sc@physx@@$1?processNarrowPhaseLostTouchEventsIslands@123@AEAAXPEAVPxBaseTask@3@@Z@Cm@physx@@UEBAPEBDXZ 00000001800367b0 f i SimulationController_static_64:ScScene.obj
 0001:000357b0       ?getName@?$DelegateTask@VScene@Sc@physx@@$1?registerContactManagers@123@QEAAXPEAVPxBaseTask@3@@Z@Cm@physx@@UEBAPEBDXZ 00000001800367b0 f i SimulationController_static_64:ScScene.obj
 0001:000357b0       ?getName@?$DelegateTask@VScene@Sc@physx@@$1?registerInteractions@123@QEAAXPEAVPxBaseTask@3@@Z@Cm@physx@@UEBAPEBDXZ 00000001800367b0 f i SimulationController_static_64:ScScene.obj
 0001:000357b0       ?getName@?$DelegateTask@VScene@Sc@physx@@$1?registerSceneInteractions@123@QEAAXPEAVPxBaseTask@3@@Z@Cm@physx@@UEBAPEBDXZ 00000001800367b0 f i SimulationController_static_64:ScScene.obj
 0001:000357b0       ?getName@?$DelegateTask@VScene@Sc@physx@@$1?rigidBodyNarrowPhase@123@AEAAXPEAVPxBaseTask@3@@Z@Cm@physx@@UEBAPEBDXZ 00000001800367b0 f i SimulationController_static_64:ScScene.obj
 0001:000357b0       ?getName@?$DelegateTask@VScene@Sc@physx@@$1?secondPassNarrowPhase@123@QEAAXPEAVPxBaseTask@3@@Z@Cm@physx@@UEBAPEBDXZ 00000001800367b0 f i SimulationController_static_64:ScScene.obj
 0001:000357b0       ?getName@?$DelegateTask@VScene@Sc@physx@@$1?setEdgesConnected@123@AEAAXPEAVPxBaseTask@3@@Z@Cm@physx@@UEBAPEBDXZ 00000001800367b0 f i SimulationController_static_64:ScScene.obj
 0001:000357b0       ?getName@?$DelegateTask@VScene@Sc@physx@@$1?solver@123@AEAAXPEAVPxBaseTask@3@@Z@Cm@physx@@UEBAPEBDXZ 00000001800367b0 f i SimulationController_static_64:ScScene.obj
 0001:000357b0       ?getName@?$DelegateTask@VScene@Sc@physx@@$1?unblockNarrowPhase@123@AEAAXPEAVPxBaseTask@3@@Z@Cm@physx@@UEBAPEBDXZ 00000001800367b0 f i SimulationController_static_64:ScScene.obj
 0001:000357b0       ?getName@?$DelegateTask@VScene@Sc@physx@@$1?unregisterInteractions@123@AEAAXPEAVPxBaseTask@3@@Z@Cm@physx@@UEBAPEBDXZ 00000001800367b0 f i SimulationController_static_64:ScScene.obj
 0001:000357b0       ?getName@?$DelegateTask@VScene@Sc@physx@@$1?updateBodies@123@AEAAXPEAVPxBaseTask@3@@Z@Cm@physx@@UEBAPEBDXZ 00000001800367b0 f i SimulationController_static_64:ScScene.obj
 0001:000357b0       ?getName@?$DelegateTask@VScene@Sc@physx@@$1?updateBroadPhase@123@AEAAXPEAVPxBaseTask@3@@Z@Cm@physx@@UEBAPEBDXZ 00000001800367b0 f i SimulationController_static_64:ScScene.obj
 0001:000357b0       ?getName@?$DelegateTask@VScene@Sc@physx@@$1?updateCCDMultiPass@123@AEAAXPEAVPxBaseTask@3@@Z@Cm@physx@@UEBAPEBDXZ 00000001800367b0 f i SimulationController_static_64:ScScene.obj
 0001:000357b0       ?getName@?$DelegateTask@VScene@Sc@physx@@$1?updateCCDSinglePass@123@AEAAXPEAVPxBaseTask@3@@Z@Cm@physx@@UEBAPEBDXZ 00000001800367b0 f i SimulationController_static_64:ScCCD.obj
 0001:000357b0       ?getName@?$DelegateTask@VScene@Sc@physx@@$1?updateCCDSinglePassStage2@123@AEAAXPEAVPxBaseTask@3@@Z@Cm@physx@@UEBAPEBDXZ 00000001800367b0 f i SimulationController_static_64:ScCCD.obj
 0001:000357b0       ?getName@?$DelegateTask@VScene@Sc@physx@@$1?updateCCDSinglePassStage3@123@AEAAXPEAVPxBaseTask@3@@Z@Cm@physx@@UEBAPEBDXZ 00000001800367b0 f i SimulationController_static_64:ScCCD.obj
 0001:000357b0       ?getName@?$DelegateTask@VScene@Sc@physx@@$1?updateDynamics@123@AEAAXPEAVPxBaseTask@3@@Z@Cm@physx@@UEBAPEBDXZ 00000001800367b0 f i SimulationController_static_64:ScScene.obj
 0001:000357b0       ?getName@?$DelegateTask@VScene@Sc@physx@@$1?updateShapes@123@AEAAXPEAVPxBaseTask@3@@Z@Cm@physx@@UEBAPEBDXZ 00000001800367b0 f i SimulationController_static_64:ScScene.obj
 0001:000357b0       ?getName@?$DelegateTask@VScene@Sc@physx@@$1?updateSimulationController@123@AEAAXPEAVPxBaseTask@3@@Z@Cm@physx@@UEBAPEBDXZ 00000001800367b0 f i SimulationController_static_64:ScScene.obj
 0001:000357b0       ?getParent@NpArticulationAttachment@physx@@UEBAPEAVPxArticulationAttachment@2@XZ 00000001800367b0 f i NpArticulationTendon.obj
 0001:000357b0       ?getParent@NpArticulationTendonJoint@physx@@UEBAPEAVPxArticulationTendonJoint@2@XZ 00000001800367b0 f i NpArticulationTendon.obj
 0001:000357b0       ?getPxSceneDescSimulationEventCallback@@YAPEAVPxSimulationEventCallback@physx@@PEBVPxSceneDesc@2@@Z 00000001800367b0 f i PxAutoGeneratedMetaDataObjects.obj
 0001:000357c0       ?getPxSceneDescSolverArticulationBatchSize@@YAIPEBVPxSceneDesc@physx@@@Z 00000001800367c0 f i PxAutoGeneratedMetaDataObjects.obj
 0001:000357d0       ?getNbFixedTendons@NpArticulationReducedCoordinate@physx@@UEAAIXZ 00000001800367d0 f i NpArticulationReducedCoordinate.obj
 0001:000357d0       ?getPxSceneDescSolverBatchSize@@YAIPEBVPxSceneDesc@physx@@@Z 00000001800367d0 f i PxAutoGeneratedMetaDataObjects.obj
 0001:000357e0       ?getPxSceneDescSolverType@@YA?AW4Enum@PxSolverType@physx@@PEBVPxSceneDesc@3@@Z 00000001800367e0 f i PxAutoGeneratedMetaDataObjects.obj
 0001:000357f0       ?getPxSceneDescStaticKineFilteringMode@@YA?AW4Enum@PxPairFilteringMode@physx@@PEBVPxSceneDesc@3@@Z 00000001800367f0 f i PxAutoGeneratedMetaDataObjects.obj
 0001:000357f0       ?getPxSimulationStatisticsNbLostPairs@@YAIPEBVPxSimulationStatistics@physx@@@Z 00000001800367f0 f i PxAutoGeneratedMetaDataObjects.obj
 0001:00035800       ?getPxSceneDescUserData@@YAPEAXPEBVPxSceneDesc@physx@@@Z 0000000180036800 f i PxAutoGeneratedMetaDataObjects.obj
 0001:00035800       ?getPxSimulationStatisticsGpuMemHeapSimulation@@YA_KPEBVPxSimulationStatistics@physx@@@Z 0000000180036800 f i PxAutoGeneratedMetaDataObjects.obj
 0001:00035810       ?getPxSceneDescWakeCounterResetValue@@YAMPEBVPxSceneDesc@physx@@@Z 0000000180036810 f i PxAutoGeneratedMetaDataObjects.obj
 0001:00035820       ?getNbPoints@RenderBuffer@Cm@physx@@UEBAIXZ 0000000180036820 f i NpScene.obj
 0001:00035820       ?getPxSceneLimitsMaxNbAggregates@@YAIPEBVPxSceneLimits@physx@@@Z 0000000180036820 f i PxAutoGeneratedMetaDataObjects.obj
 0001:00035820       ?getPxSceneQueryDescStaticBVHBuildStrategy@@YA?AW4Enum@PxBVHBuildStrategy@physx@@PEBVPxSceneQueryDesc@3@@Z 0000000180036820 f i PxAutoGeneratedMetaDataObjects.obj
 0001:00035820       ?getPxSimulationStatisticsNbDynamicBodies@@YAIPEBVPxSimulationStatistics@physx@@@Z 0000000180036820 f i PxAutoGeneratedMetaDataObjects.obj
 0001:00035820       ?getPxgDynamicsMemoryConfigFoundLostPairsCapacity@@YAIPEBUPxgDynamicsMemoryConfig@physx@@@Z 0000000180036820 f i PxAutoGeneratedMetaDataObjects.obj
 0001:00035820       ?length@pcharNode@@UEBAHXZ 0000000180036820 f i libvcruntime:undname.obj
 0001:00035820       ?raw_length@pcharNode@@UEBAHXZ 0000000180036820 f i libvcruntime:undname.obj
 0001:00035830       ?getPxSceneLimitsMaxNbBroadPhaseOverlaps@@YAIPEBVPxSceneLimits@physx@@@Z 0000000180036830 f i PxAutoGeneratedMetaDataObjects.obj
 0001:00035830       ?getPxSceneQueryDescDynamicNbObjectsPerNode@@YAIPEBVPxSceneQueryDesc@physx@@@Z 0000000180036830 f i PxAutoGeneratedMetaDataObjects.obj
 0001:00035830       ?getPxgDynamicsMemoryConfigMaxSoftBodyContacts@@YAIPEBUPxgDynamicsMemoryConfig@physx@@@Z 0000000180036830 f i PxAutoGeneratedMetaDataObjects.obj
 0001:00035840       ?getPxSceneLimitsMaxNbConstraints@@YAIPEBVPxSceneLimits@physx@@@Z 0000000180036840 f i PxAutoGeneratedMetaDataObjects.obj
 0001:00035840       ?getPxSceneQueryDescDynamicBVHBuildStrategy@@YA?AW4Enum@PxBVHBuildStrategy@physx@@PEBVPxSceneQueryDesc@3@@Z 0000000180036840 f i PxAutoGeneratedMetaDataObjects.obj
 0001:00035840       ?getPxSimulationStatisticsNbKinematicBodies@@YAIPEBVPxSimulationStatistics@physx@@@Z 0000000180036840 f i PxAutoGeneratedMetaDataObjects.obj
 0001:00035840       ?getPxgDynamicsMemoryConfigFoundLostAggregatePairsCapacity@@YAIPEBUPxgDynamicsMemoryConfig@physx@@@Z 0000000180036840 f i PxAutoGeneratedMetaDataObjects.obj
 0001:00035850       ?getNbLines@RenderBuffer@Cm@physx@@UEBAIXZ 0000000180036850 f i NpScene.obj
 0001:00035850       ?getPxSceneQueryDescSceneQueryUpdateMode@@YA?AW4Enum@PxSceneQueryUpdateMode@physx@@PEBVPxSceneQueryDesc@3@@Z 0000000180036850 f i PxAutoGeneratedMetaDataObjects.obj
 0001:00035850       ?getPxgDynamicsMemoryConfigMaxFemClothContacts@@YAIPEBUPxgDynamicsMemoryConfig@physx@@@Z 0000000180036850 f i PxAutoGeneratedMetaDataObjects.obj
 0001:00035850       ?getReference@PxLightCpuTask@physx@@UEBAHXZ 0000000180036850 f i NpScene.obj
 0001:00035860       ?getPxSceneQueryDesc_IsValid@@YA_NPEBVPxSceneQueryDesc@physx@@@Z 0000000180036860 f   PxAutoGeneratedMetaDataObjects.obj
 0001:00035880       ?getPxSceneQuerySystemBase_DynamicTreeRebuildRateHint@@YAIPEBVPxSceneQuerySystemBase@physx@@@Z 0000000180036880 f   PxAutoGeneratedMetaDataObjects.obj
 0001:00035890       ?getPxScene_Actors@@YAIPEBVPxScene@physx@@V?$PxFlags@W4Enum@PxActorTypeFlag@physx@@G@2@PEAPEAVPxActor@2@I@Z 0000000180036890 f   PxAutoGeneratedMetaDataObjects.obj
 0001:000358c0       ?getPxScene_Aggregates@@YAIPEBVPxScene@physx@@PEAPEAVPxAggregate@2@I@Z 00000001800368c0 f   PxAutoGeneratedMetaDataObjects.obj
 0001:000358d0       ?getPxScene_BounceThresholdVelocity@@YAMPEBVPxScene@physx@@@Z 00000001800368d0 f   PxAutoGeneratedMetaDataObjects.obj
 0001:000358e0       ?getPxScene_BroadPhaseRegions@@YAIPEBVPxScene@physx@@PEAUPxBroadPhaseRegionInfo@2@I@Z 00000001800368e0 f   PxAutoGeneratedMetaDataObjects.obj
 0001:000358f0       ?getPxScene_BroadPhaseType@@YA?AW4Enum@PxBroadPhaseType@physx@@PEBVPxScene@3@@Z 00000001800368f0 f   PxAutoGeneratedMetaDataObjects.obj
 0001:00035900       ?getPxScene_CCDContactModifyCallback@@YAPEAVPxCCDContactModifyCallback@physx@@PEBVPxScene@2@@Z 0000000180036900 f   PxAutoGeneratedMetaDataObjects.obj
 0001:00035910       ?getPxScene_CCDMaxPasses@@YAIPEBVPxScene@physx@@@Z 0000000180036910 f   PxAutoGeneratedMetaDataObjects.obj
 0001:00035920       ?getPxScene_CCDMaxSeparation@@YAMPEBVPxScene@physx@@@Z 0000000180036920 f   PxAutoGeneratedMetaDataObjects.obj
 0001:00035930       ?getPxScene_CCDThreshold@@YAMPEBVPxScene@physx@@@Z 0000000180036930 f   PxAutoGeneratedMetaDataObjects.obj
 0001:00035940       ?getPxScene_Constraints@@YAIPEBVPxScene@physx@@PEAPEAVPxConstraint@2@I@Z 0000000180036940 f   PxAutoGeneratedMetaDataObjects.obj
 0001:00035950       ?getPxScene_ContactModifyCallback@@YAPEAVPxContactModifyCallback@physx@@PEBVPxScene@2@@Z 0000000180036950 f   PxAutoGeneratedMetaDataObjects.obj
 0001:00035960       ?getPxScene_ContactReportStreamBufferSize@@YAIPEBVPxScene@physx@@@Z 0000000180036960 f   PxAutoGeneratedMetaDataObjects.obj
 0001:00035970       ?getPxScene_FilterShaderDataSize@@YAIPEBVPxScene@physx@@@Z 0000000180036970 f   PxAutoGeneratedMetaDataObjects.obj
 0001:00035970       ?setPxRigidDynamic_StabilizationThreshold@@YAXPEAVPxRigidDynamic@physx@@M@Z 0000000180036970 f   PxAutoGeneratedMetaDataObjects.obj
 0001:00035980       ?getPxScene_FrictionCorrelationDistance@@YAMPEBVPxScene@physx@@@Z 0000000180036980 f   PxAutoGeneratedMetaDataObjects.obj
 0001:00035990       ?getPxScene_FrictionOffsetThreshold@@YAMPEBVPxScene@physx@@@Z 0000000180036990 f   PxAutoGeneratedMetaDataObjects.obj
 0001:000359a0       ?getPxScene_FrictionType@@YA?AW4Enum@PxFrictionType@physx@@PEBVPxScene@3@@Z 00000001800369a0 f   PxAutoGeneratedMetaDataObjects.obj
 0001:000359b0       ?getPxScene_GpuDynamicsConfig@@YA?AUPxgDynamicsMemoryConfig@physx@@PEBVPxScene@2@@Z 00000001800369b0 f   PxAutoGeneratedMetaDataObjects.obj
 0001:000359e0       ?getPxScene_Gravity@@YA?AV?$PxVec3T@M@physx@@PEBVPxScene@2@@Z 00000001800369e0 f   PxAutoGeneratedMetaDataObjects.obj
 0001:00035a10       ?getPxScene_KinematicKinematicFilteringMode@@YA?AW4Enum@PxPairFilteringMode@physx@@PEBVPxScene@3@@Z 0000000180036a10 f   PxAutoGeneratedMetaDataObjects.obj
 0001:00035a20       ?getPxScene_Limits@@YA?AVPxSceneLimits@physx@@PEBVPxScene@2@@Z 0000000180036a20 f   PxAutoGeneratedMetaDataObjects.obj
 0001:00035a50       ?getPxScene_MaxBiasCoefficient@@YAMPEBVPxScene@physx@@@Z 0000000180036a50 f   PxAutoGeneratedMetaDataObjects.obj
 0001:00035a60       ?getPxScene_MaxNbContactDataBlocksUsed@@YAIPEBVPxScene@physx@@@Z 0000000180036a60 f   PxAutoGeneratedMetaDataObjects.obj
 0001:00035a70       ?getPxScene_SoftBodies@@YAIPEBVPxScene@physx@@PEAPEAVPxSoftBody@2@I@Z 0000000180036a70 f   PxAutoGeneratedMetaDataObjects.obj
 0001:00035a80       ?getPxScene_SolverArticulationBatchSize@@YAIPEBVPxScene@physx@@@Z 0000000180036a80 f   PxAutoGeneratedMetaDataObjects.obj
 0001:00035a90       ?getPxScene_SolverBatchSize@@YAIPEBVPxScene@physx@@@Z 0000000180036a90 f   PxAutoGeneratedMetaDataObjects.obj
 0001:00035aa0       ?getPxScene_SolverType@@YA?AW4Enum@PxSolverType@physx@@PEBVPxScene@3@@Z 0000000180036aa0 f   PxAutoGeneratedMetaDataObjects.obj
 0001:00035ab0       ?getPxScene_StaticKinematicFilteringMode@@YA?AW4Enum@PxPairFilteringMode@physx@@PEBVPxScene@3@@Z 0000000180036ab0 f   PxAutoGeneratedMetaDataObjects.obj
 0001:00035ac0       ?getPxScene_TaskManager@@YAPEAVPxTaskManager@physx@@PEBVPxScene@2@@Z 0000000180036ac0 f   PxAutoGeneratedMetaDataObjects.obj
 0001:00035ad0       ?getPxScene_VisualizationCullingBox@@YA?AVPxBounds3@physx@@PEBVPxScene@2@@Z 0000000180036ad0 f   PxAutoGeneratedMetaDataObjects.obj
 0001:00035b00       ?getPxScene_WakeCounterResetValue@@YAMPEBVPxScene@physx@@@Z 0000000180036b00 f   PxAutoGeneratedMetaDataObjects.obj
 0001:00035b10       ?getPxShape_Flags@@YA?AV?$PxFlags@W4Enum@PxShapeFlag@physx@@E@physx@@PEBVPxShape@2@@Z 0000000180036b10 f   PxAutoGeneratedMetaDataObjects.obj
 0001:00035b40       ?getPxShape_IsExclusive@@YA_NPEBVPxShape@physx@@@Z 0000000180036b40 f   PxAutoGeneratedMetaDataObjects.obj
 0001:00035b50       ?getPxShape_MinTorsionalPatchRadius@@YAMPEBVPxShape@physx@@@Z 0000000180036b50 f   PxAutoGeneratedMetaDataObjects.obj
 0001:00035b50       ?setPxPBDMaterial_ParticleAdhesionScale@@YAXPEAVPxPBDMaterial@physx@@M@Z 0000000180036b50 f   PxAutoGeneratedMetaDataObjects.obj
 0001:00035b60       ?getPxShape_Name@@YAPEBDPEBVPxShape@physx@@@Z 0000000180036b60 f   PxAutoGeneratedMetaDataObjects.obj
 0001:00035b60       ?setPxRigidBody_MaxLinearVelocity@@YAXPEAVPxRigidBody@physx@@M@Z 0000000180036b60 f   PxAutoGeneratedMetaDataObjects.obj
 0001:00035b70       ?getPxShape_QueryFilterData@@YA?AUPxFilterData@physx@@PEBVPxShape@2@@Z 0000000180036b70 f   PxAutoGeneratedMetaDataObjects.obj
 0001:00035ba0       ?getPxShape_SimulationFilterData@@YA?AUPxFilterData@physx@@PEBVPxShape@2@@Z 0000000180036ba0 f   PxAutoGeneratedMetaDataObjects.obj
 0001:00035bd0       ?getPxSimulationStatisticsGpuMemFEMCloths@@YA_KPEBVPxSimulationStatistics@physx@@@Z 0000000180036bd0 f i PxAutoGeneratedMetaDataObjects.obj
 0001:00035be0       ?getPxSimulationStatisticsGpuMemHairSystems@@YA_KPEBVPxSimulationStatistics@physx@@@Z 0000000180036be0 f i PxAutoGeneratedMetaDataObjects.obj
 0001:00035bf0       ?getPxSimulationStatisticsGpuMemHeap@@YA_KPEBVPxSimulationStatistics@physx@@@Z 0000000180036bf0 f i PxAutoGeneratedMetaDataObjects.obj
 0001:00035bf0       ?getTorsionalData@PxsNphaseImplementationContext@physx@@UEAAPEAUPxsTorsionalFrictionData@2@XZ 0000000180036bf0 f i LowLevel_static_64:PxsNphaseImplementationContext.obj
 0001:00035c00       ?getPxSimulationStatisticsGpuMemHeapBroadPhase@@YA_KPEBVPxSimulationStatistics@physx@@@Z 0000000180036c00 f i PxAutoGeneratedMetaDataObjects.obj
 0001:00035c10       ?getFoundation@NpPhysics@physx@@UEAAAEAVPxFoundation@2@XZ 0000000180036c10 f i NpPhysics.obj
 0001:00035c10       ?getPxSimulationStatisticsGpuMemHeapFEMCloths@@YA_KPEBVPxSimulationStatistics@physx@@@Z 0000000180036c10 f i PxAutoGeneratedMetaDataObjects.obj
 0001:00035c20       ?getPxSimulationStatisticsGpuMemHeapHairSystems@@YA_KPEBVPxSimulationStatistics@physx@@@Z 0000000180036c20 f i PxAutoGeneratedMetaDataObjects.obj
 0001:00035c30       ?getPxSimulationStatisticsGpuMemHeapNarrowPhase@@YA_KPEBVPxSimulationStatistics@physx@@@Z 0000000180036c30 f i PxAutoGeneratedMetaDataObjects.obj
 0001:00035c40       ?getPxSimulationStatisticsGpuMemHeapOther@@YA_KPEBVPxSimulationStatistics@physx@@@Z 0000000180036c40 f i PxAutoGeneratedMetaDataObjects.obj
 0001:00035c50       ?getCudaContextManager@NpSoftBody@physx@@UEBAPEAVPxCudaContextManager@2@XZ 0000000180036c50 f i NpSoftBody.obj
 0001:00035c50       ?getPxSimulationStatisticsGpuMemHeapParticles@@YA_KPEBVPxSimulationStatistics@physx@@@Z 0000000180036c50 f i PxAutoGeneratedMetaDataObjects.obj
 0001:00035c60       ?getPxSimulationStatisticsGpuMemHeapSimulationArticulation@@YA_KPEBVPxSimulationStatistics@physx@@@Z 0000000180036c60 f i PxAutoGeneratedMetaDataObjects.obj
 0001:00035c70       ?getPxSimulationStatisticsGpuMemHeapSimulationFEMCloth@@YA_KPEBVPxSimulationStatistics@physx@@@Z 0000000180036c70 f i PxAutoGeneratedMetaDataObjects.obj
 0001:00035c80       ?getPxSimulationStatisticsGpuMemHeapSimulationHairSystem@@YA_KPEBVPxSimulationStatistics@physx@@@Z 0000000180036c80 f i PxAutoGeneratedMetaDataObjects.obj
 0001:00035c90       ?getPxSimulationStatisticsGpuMemHeapSimulationParticles@@YA_KPEBVPxSimulationStatistics@physx@@@Z 0000000180036c90 f i PxAutoGeneratedMetaDataObjects.obj
 0001:00035ca0       ?getPxSimulationStatisticsGpuMemHeapSimulationSoftBody@@YA_KPEBVPxSimulationStatistics@physx@@@Z 0000000180036ca0 f i PxAutoGeneratedMetaDataObjects.obj
 0001:00035cb0       ?getPxSimulationStatisticsGpuMemHeapSoftBodies@@YA_KPEBVPxSimulationStatistics@physx@@@Z 0000000180036cb0 f i PxAutoGeneratedMetaDataObjects.obj
 0001:00035cc0       ?getPxSimulationStatisticsGpuMemParticles@@YA_KPEBVPxSimulationStatistics@physx@@@Z 0000000180036cc0 f i PxAutoGeneratedMetaDataObjects.obj
 0001:00035cc0       ?getRestDistances@PxsNphaseImplementationContext@physx@@UEAAPEAMXZ 0000000180036cc0 f i LowLevel_static_64:PxsNphaseImplementationContext.obj
 0001:00035cd0       ?getPxSimulationStatisticsGpuMemSoftBodies@@YA_KPEBVPxSimulationStatistics@physx@@@Z 0000000180036cd0 f i PxAutoGeneratedMetaDataObjects.obj
 0001:00035ce0       ?getPxSimulationStatisticsNbAggregates@@YAIPEBVPxSimulationStatistics@physx@@@Z 0000000180036ce0 f i PxAutoGeneratedMetaDataObjects.obj
 0001:00035cf0       ?getPxSimulationStatisticsNbArticulations@@YAIPEBVPxSimulationStatistics@physx@@@Z 0000000180036cf0 f i PxAutoGeneratedMetaDataObjects.obj
 0001:00035d00       ?getPxSimulationStatisticsNbAxisSolverConstraints@@YAIPEBVPxSimulationStatistics@physx@@@Z 0000000180036d00 f i PxAutoGeneratedMetaDataObjects.obj
 0001:00035d10       ?getPxSimulationStatisticsNbBroadPhaseAdds@@YAIPEBVPxSimulationStatistics@physx@@@Z 0000000180036d10 f i PxAutoGeneratedMetaDataObjects.obj
 0001:00035d20       ?getPxSimulationStatisticsNbBroadPhaseRemoves@@YAIPEBVPxSimulationStatistics@physx@@@Z 0000000180036d20 f i PxAutoGeneratedMetaDataObjects.obj
 0001:00035d30       ?getPxSimulationStatisticsNbDiscreteContactPairsTotal@@YAIPEBVPxSimulationStatistics@physx@@@Z 0000000180036d30 f i PxAutoGeneratedMetaDataObjects.obj
 0001:00035d40       ?getPxSimulationStatisticsNbDiscreteContactPairsWithCacheHits@@YAIPEBVPxSimulationStatistics@physx@@@Z 0000000180036d40 f i PxAutoGeneratedMetaDataObjects.obj
 0001:00035d50       ?getPxSimulationStatisticsNbDiscreteContactPairsWithContacts@@YAIPEBVPxSimulationStatistics@physx@@@Z 0000000180036d50 f i PxAutoGeneratedMetaDataObjects.obj
 0001:00035d60       ?getPxSimulationStatisticsNbLostTouches@@YAIPEBVPxSimulationStatistics@physx@@@Z 0000000180036d60 f i PxAutoGeneratedMetaDataObjects.obj
 0001:00035d70       ?getPxSimulationStatisticsNbPartitions@@YAIPEBVPxSimulationStatistics@physx@@@Z 0000000180036d70 f i PxAutoGeneratedMetaDataObjects.obj
 0001:00035d80       ?getNbAttachments@NpArticulationSpatialTendon@physx@@UEBAIXZ 0000000180036d80 f i NpArticulationTendon.obj
 0001:00035d80       ?getNbTendonJoints@NpArticulationFixedTendon@physx@@UEBAIXZ 0000000180036d80 f i NpArticulationTendon.obj
 0001:00035d80       ?getPxSimulationStatisticsPeakConstraintMemory@@YAIPEBVPxSimulationStatistics@physx@@@Z 0000000180036d80 f i PxAutoGeneratedMetaDataObjects.obj
 0001:00035d90       ?getPxSimulationStatisticsRequiredContactConstraintMemory@@YAIPEBVPxSimulationStatistics@physx@@@Z 0000000180036d90 f i PxAutoGeneratedMetaDataObjects.obj
 0001:00035da0       ?getPxTolerancesScale_IsValid@@YA_NPEBVPxTolerancesScale@physx@@@Z 0000000180036da0 f   PxAutoGeneratedMetaDataObjects.obj
 0001:00035db0       ?getPxTriangleMeshGeometryMeshFlags@@YA?AV?$PxFlags@W4Enum@PxMeshGeometryFlag@physx@@E@physx@@PEBVPxTriangleMeshGeometry@2@@Z 0000000180036db0 f i PxAutoGeneratedMetaDataObjects.obj
 0001:00035dc0       ?getPxgDynamicsMemoryConfigCollisionStackSize@@YAIPEBUPxgDynamicsMemoryConfig@physx@@@Z 0000000180036dc0 f i PxAutoGeneratedMetaDataObjects.obj
 0001:00035dd0       ?getPxgDynamicsMemoryConfigMaxHairContacts@@YAIPEBUPxgDynamicsMemoryConfig@physx@@@Z 0000000180036dd0 f i PxAutoGeneratedMetaDataObjects.obj
 0001:00035de0       ?getPxgDynamicsMemoryConfigMaxParticleContacts@@YAIPEBUPxgDynamicsMemoryConfig@physx@@@Z 0000000180036de0 f i PxAutoGeneratedMetaDataObjects.obj
 0001:00035df0       ?setCpuDispatcher@PxTaskMgr@physx@@UEAAXAEAVPxCpuDispatcher@2@@Z 0000000180036df0 f i PhysXTask_static_64:TaskManager.obj
 0001:00035df0       ?setPxActorUserData@@YAXPEAVPxActor@physx@@PEAX@Z 0000000180036df0 f i PxAutoGeneratedMetaDataObjects.obj
 0001:00035df0       ?setPxAggregateUserData@@YAXPEAVPxAggregate@physx@@PEAX@Z 0000000180036df0 f i PxAutoGeneratedMetaDataObjects.obj
 0001:00035df0       ?setPxArticulationJointReducedCoordinateUserData@@YAXPEAVPxArticulationJointReducedCoordinate@physx@@PEAX@Z 0000000180036df0 f i PxAutoGeneratedMetaDataObjects.obj
 0001:00035df0       ?setPxArticulationReducedCoordinateUserData@@YAXPEAVPxArticulationReducedCoordinate@physx@@PEAX@Z 0000000180036df0 f i PxAutoGeneratedMetaDataObjects.obj
 0001:00035df0       ?setPxBaseMaterialUserData@@YAXPEAVPxBaseMaterial@physx@@PEAX@Z 0000000180036df0 f i PxAutoGeneratedMetaDataObjects.obj
 0001:00035df0       ?setPxBroadPhaseDescMContextManager@@YAXPEAVPxBroadPhaseDesc@physx@@PEAVPxCudaContextManager@2@@Z 0000000180036df0 f i PxAutoGeneratedMetaDataObjects.obj
 0001:00035df0       ?setPxConstraintUserData@@YAXPEAVPxConstraint@physx@@PEAX@Z 0000000180036df0 f i PxAutoGeneratedMetaDataObjects.obj
 0001:00035df0       ?setPxShapeUserData@@YAXPEAVPxShape@physx@@PEAX@Z 0000000180036df0 f i PxAutoGeneratedMetaDataObjects.obj
 0001:00035e00       ?setPxActor_ActorFlags@@YAXPEAVPxActor@physx@@V?$PxFlags@W4Enum@PxActorFlag@physx@@E@2@@Z 0000000180036e00 f   PxAutoGeneratedMetaDataObjects.obj
 0001:00035e20       ?setPxArticulationDriveDamping@@YAXPEAUPxArticulationDrive@physx@@M@Z 0000000180036e20 f i PxAutoGeneratedMetaDataObjects.obj
 0001:00035e20       ?setPxArticulationLimitHigh@@YAXPEAUPxArticulationLimit@physx@@M@Z 0000000180036e20 f i PxAutoGeneratedMetaDataObjects.obj
 0001:00035e20       ?setPxTolerancesScaleSpeed@@YAXPEAVPxTolerancesScale@physx@@M@Z 0000000180036e20 f i PxAutoGeneratedMetaDataObjects.obj
 0001:00035e30       ?setPxArticulationDriveDriveType@@YAXPEAUPxArticulationDrive@physx@@W4Enum@PxArticulationDriveType@2@@Z 0000000180036e30 f i PxAutoGeneratedMetaDataObjects.obj
 0001:00035e30       ?setPxSceneLimitsMaxNbDynamicShapes@@YAXPEAVPxSceneLimits@physx@@I@Z 0000000180036e30 f i PxAutoGeneratedMetaDataObjects.obj
 0001:00035e30       ?setPxSceneQueryDescDynamicTreeSecondaryPruner@@YAXPEAVPxSceneQueryDesc@physx@@W4Enum@PxDynamicTreeSecondaryPruner@2@@Z 0000000180036e30 f i PxAutoGeneratedMetaDataObjects.obj
 0001:00035e30       ?setPxSimulationStatisticsNbStaticBodies@@YAXPEAVPxSimulationStatistics@physx@@I@Z 0000000180036e30 f i PxAutoGeneratedMetaDataObjects.obj
 0001:00035e30       ?setPxgDynamicsMemoryConfigHeapCapacity@@YAXPEAUPxgDynamicsMemoryConfig@physx@@I@Z 0000000180036e30 f i PxAutoGeneratedMetaDataObjects.obj
 0001:00035e40       ?setPxArticulationDriveMaxForce@@YAXPEAUPxArticulationDrive@physx@@M@Z 0000000180036e40 f i PxAutoGeneratedMetaDataObjects.obj
 0001:00035e40       ?setPxCapsuleGeometryRadius@@YAXPEAVPxCapsuleGeometry@physx@@M@Z 0000000180036e40 f i PxAutoGeneratedMetaDataObjects.obj
 0001:00035e40       ?setPxSphereGeometryRadius@@YAXPEAVPxSphereGeometry@physx@@M@Z 0000000180036e40 f i PxAutoGeneratedMetaDataObjects.obj
 0001:00035e50       ?setPxArticulationDriveStiffness@@YAXPEAUPxArticulationDrive@physx@@M@Z 0000000180036e50 f i PxAutoGeneratedMetaDataObjects.obj
 0001:00035e50       ?setPxArticulationLimitLow@@YAXPEAUPxArticulationLimit@physx@@M@Z 0000000180036e50 f i PxAutoGeneratedMetaDataObjects.obj
 0001:00035e50       ?setPxTolerancesScaleLength@@YAXPEAVPxTolerancesScale@physx@@M@Z 0000000180036e50 f i PxAutoGeneratedMetaDataObjects.obj
 0001:00035e60       ?setPxArticulationJointReducedCoordinate_DriveParams@@YAXPEAVPxArticulationJointReducedCoordinate@physx@@W4Enum@PxArticulationAxis@2@UPxArticulationDrive@2@@Z 0000000180036e60 f   PxAutoGeneratedMetaDataObjects.obj
 0001:00035e80       ?setPxArticulationJointReducedCoordinate_LimitParams@@YAXPEAVPxArticulationJointReducedCoordinate@physx@@W4Enum@PxArticulationAxis@2@UPxArticulationLimit@2@@Z 0000000180036e80 f   PxAutoGeneratedMetaDataObjects.obj
 0001:00035ea0       ?setPxArticulationReducedCoordinate_ArticulationFlags@@YAXPEAVPxArticulationReducedCoordinate@physx@@V?$PxFlags@W4Enum@PxArticulationFlag@physx@@E@2@@Z 0000000180036ea0 f   PxAutoGeneratedMetaDataObjects.obj
 0001:00035ec0       ?setPxArticulationReducedCoordinate_RootAngularVelocity@@YAXPEAVPxArticulationReducedCoordinate@physx@@AEBV?$PxVec3T@M@2@@Z 0000000180036ec0 f   PxAutoGeneratedMetaDataObjects.obj
 0001:00035ed0       ?setPxArticulationReducedCoordinate_RootGlobalPose@@YAXPEAVPxArticulationReducedCoordinate@physx@@AEBV?$PxTransformT@M@2@@Z 0000000180036ed0 f   PxAutoGeneratedMetaDataObjects.obj
 0001:00035ee0       ?setPxArticulationReducedCoordinate_RootLinearVelocity@@YAXPEAVPxArticulationReducedCoordinate@physx@@AEBV?$PxVec3T@M@2@@Z 0000000180036ee0 f   PxAutoGeneratedMetaDataObjects.obj
 0001:00035ef0       ?setPxBoxGeometryHalfExtents@@YAXPEAVPxBoxGeometry@physx@@V?$PxVec3T@M@2@@Z 0000000180036ef0 f i PxAutoGeneratedMetaDataObjects.obj
 0001:00035f10       ?setPxBroadPhaseDescMContextID@@YAXPEAVPxBroadPhaseDesc@physx@@_K@Z 0000000180036f10 f i PxAutoGeneratedMetaDataObjects.obj
 0001:00035f10       ?setPxHeightFieldGeometryHeightField@@YAXPEAVPxHeightFieldGeometry@physx@@PEAVPxHeightField@2@@Z 0000000180036f10 f i PxAutoGeneratedMetaDataObjects.obj
 0001:00035f10       ?setPxSceneUserData@@YAXPEAVPxScene@physx@@PEAX@Z 0000000180036f10 f i PxAutoGeneratedMetaDataObjects.obj
 0001:00035f10       ?setPxTetrahedronMeshGeometryTetrahedronMesh@@YAXPEAVPxTetrahedronMeshGeometry@physx@@PEAVPxTetrahedronMesh@2@@Z 0000000180036f10 f i PxAutoGeneratedMetaDataObjects.obj
 0001:00035f20       ?setPxBroadPhaseDescMDiscardKinematicVsKinematic@@YAXPEAVPxBroadPhaseDesc@physx@@_N@Z 0000000180036f20 f i PxAutoGeneratedMetaDataObjects.obj
 0001:00035f30       ?setPxBroadPhaseDescMDiscardStaticVsKinematic@@YAXPEAVPxBroadPhaseDesc@physx@@_N@Z 0000000180036f30 f i PxAutoGeneratedMetaDataObjects.obj
 0001:00035f40       ?setPxBroadPhaseDescMFoundLostPairsCapacity@@YAXPEAVPxBroadPhaseDesc@physx@@I@Z 0000000180036f40 f i PxAutoGeneratedMetaDataObjects.obj
 0001:00035f40       ?setPxSceneLimitsMaxNbRegions@@YAXPEAVPxSceneLimits@physx@@I@Z 0000000180036f40 f i PxAutoGeneratedMetaDataObjects.obj
 0001:00035f40       ?setPxSceneQueryDescStaticNbObjectsPerNode@@YAXPEAVPxSceneQueryDesc@physx@@I@Z 0000000180036f40 f i PxAutoGeneratedMetaDataObjects.obj
 0001:00035f40       ?setPxgDynamicsMemoryConfigTotalAggregatePairsCapacity@@YAXPEAUPxgDynamicsMemoryConfig@physx@@I@Z 0000000180036f40 f i PxAutoGeneratedMetaDataObjects.obj
 0001:00035f50       ?setPxBroadPhaseDescMType@@YAXPEAVPxBroadPhaseDesc@physx@@W4Enum@PxBroadPhaseType@2@@Z 0000000180036f50 f i PxAutoGeneratedMetaDataObjects.obj
 0001:00035f50       ?setPxHeightFieldDescNbRows@@YAXPEAVPxHeightFieldDesc@physx@@I@Z 0000000180036f50 f i PxAutoGeneratedMetaDataObjects.obj
 0001:00035f50       ?setPxSceneLimitsMaxNbActors@@YAXPEAVPxSceneLimits@physx@@I@Z 0000000180036f50 f i PxAutoGeneratedMetaDataObjects.obj
 0001:00035f50       ?setPxSceneQueryDescStaticStructure@@YAXPEAVPxSceneQueryDesc@physx@@W4Enum@PxPruningStructureType@2@@Z 0000000180036f50 f i PxAutoGeneratedMetaDataObjects.obj
 0001:00035f50       ?setPxSimulationStatisticsNbActiveConstraints@@YAXPEAVPxSimulationStatistics@physx@@I@Z 0000000180036f50 f i PxAutoGeneratedMetaDataObjects.obj
 0001:00035f50       ?setPxgDynamicsMemoryConfigTempBufferCapacity@@YAXPEAUPxgDynamicsMemoryConfig@physx@@I@Z 0000000180036f50 f i PxAutoGeneratedMetaDataObjects.obj
 0001:00035f60       ?setPxCapsuleGeometryHalfHeight@@YAXPEAVPxCapsuleGeometry@physx@@M@Z 0000000180036f60 f i PxAutoGeneratedMetaDataObjects.obj
 0001:00035f70       ?setPxConstraint_Flags@@YAXPEAVPxConstraint@physx@@V?$PxFlags@W4Enum@PxConstraintFlag@physx@@G@2@@Z 0000000180036f70 f   PxAutoGeneratedMetaDataObjects.obj
 0001:00035f90       ?setPxConvexMeshGeometryConvexMesh@@YAXPEAVPxConvexMeshGeometry@physx@@PEAVPxConvexMesh@2@@Z 0000000180036f90 f i PxAutoGeneratedMetaDataObjects.obj
 0001:00035f90       ?setPxTriangleMeshGeometryTriangleMesh@@YAXPEAVPxTriangleMeshGeometry@physx@@PEAVPxTriangleMesh@2@@Z 0000000180036f90 f i PxAutoGeneratedMetaDataObjects.obj
 0001:00035fa0       ?setPxConvexMeshGeometryMeshFlags@@YAXPEAVPxConvexMeshGeometry@physx@@V?$PxFlags@W4Enum@PxConvexMeshGeometryFlag@physx@@E@2@@Z 0000000180036fa0 f i PxAutoGeneratedMetaDataObjects.obj
 0001:00035fb0       ?setPxConvexMeshGeometryScale@@YAXPEAVPxConvexMeshGeometry@physx@@VPxMeshScale@2@@Z 0000000180036fb0 f i PxAutoGeneratedMetaDataObjects.obj
 0001:00035fb0       ?setPxTriangleMeshGeometryScale@@YAXPEAVPxTriangleMeshGeometry@physx@@VPxMeshScale@2@@Z 0000000180036fb0 f i PxAutoGeneratedMetaDataObjects.obj
 0001:00035fe0       ?setPxHeightFieldDescConvexEdgeThreshold@@YAXPEAVPxHeightFieldDesc@physx@@M@Z 0000000180036fe0 f i PxAutoGeneratedMetaDataObjects.obj
 0001:00035ff0       ?setPxHeightFieldDescFlags@@YAXPEAVPxHeightFieldDesc@physx@@V?$PxFlags@W4Enum@PxHeightFieldFlag@physx@@G@2@@Z 0000000180036ff0 f i PxAutoGeneratedMetaDataObjects.obj
 0001:00036000       ?setPxHeightFieldDescFormat@@YAXPEAVPxHeightFieldDesc@physx@@W4Enum@PxHeightFieldFormat@2@@Z 0000000180037000 f i PxAutoGeneratedMetaDataObjects.obj
 0001:00036000       ?setPxSceneLimitsMaxNbStaticShapes@@YAXPEAVPxSceneLimits@physx@@I@Z 0000000180037000 f i PxAutoGeneratedMetaDataObjects.obj
 0001:00036000       ?setPxSceneQueryDescDynamicTreeRebuildRateHint@@YAXPEAVPxSceneQueryDesc@physx@@I@Z 0000000180037000 f i PxAutoGeneratedMetaDataObjects.obj
 0001:00036000       ?setPxSimulationStatisticsNbActiveKinematicBodies@@YAXPEAVPxSimulationStatistics@physx@@I@Z 0000000180037000 f i PxAutoGeneratedMetaDataObjects.obj
 0001:00036000       ?setPxgDynamicsMemoryConfigMaxRigidPatchCount@@YAXPEAUPxgDynamicsMemoryConfig@physx@@I@Z 0000000180037000 f i PxAutoGeneratedMetaDataObjects.obj
 0001:00036010       ?setPxHeightFieldDescNbColumns@@YAXPEAVPxHeightFieldDesc@physx@@I@Z 0000000180037010 f i PxAutoGeneratedMetaDataObjects.obj
 0001:00036010       ?setPxSceneLimitsMaxNbBodies@@YAXPEAVPxSceneLimits@physx@@I@Z 0000000180037010 f i PxAutoGeneratedMetaDataObjects.obj
 0001:00036010       ?setPxSceneQueryDescDynamicStructure@@YAXPEAVPxSceneQueryDesc@physx@@W4Enum@PxPruningStructureType@2@@Z 0000000180037010 f i PxAutoGeneratedMetaDataObjects.obj
 0001:00036010       ?setPxSimulationStatisticsNbActiveDynamicBodies@@YAXPEAVPxSimulationStatistics@physx@@I@Z 0000000180037010 f i PxAutoGeneratedMetaDataObjects.obj
 0001:00036010       ?setPxgDynamicsMemoryConfigMaxRigidContactCount@@YAXPEAUPxgDynamicsMemoryConfig@physx@@I@Z 0000000180037010 f i PxAutoGeneratedMetaDataObjects.obj
 0001:00036020       ?setPxHeightFieldDescSamples@@YAXPEAVPxHeightFieldDesc@physx@@UPxStridedData@2@@Z 0000000180037020 f i PxAutoGeneratedMetaDataObjects.obj
 0001:00036030       ?setPxHeightFieldGeometryColumnScale@@YAXPEAVPxHeightFieldGeometry@physx@@M@Z 0000000180037030 f i PxAutoGeneratedMetaDataObjects.obj
 0001:00036040       ?setPxHeightFieldGeometryHeightFieldFlags@@YAXPEAVPxHeightFieldGeometry@physx@@V?$PxFlags@W4Enum@PxMeshGeometryFlag@physx@@E@2@@Z 0000000180037040 f i PxAutoGeneratedMetaDataObjects.obj
 0001:00036050       ?setPxHeightFieldGeometryHeightScale@@YAXPEAVPxHeightFieldGeometry@physx@@M@Z 0000000180037050 f i PxAutoGeneratedMetaDataObjects.obj
 0001:00036060       ?setPxHeightFieldGeometryRowScale@@YAXPEAVPxHeightFieldGeometry@physx@@M@Z 0000000180037060 f i PxAutoGeneratedMetaDataObjects.obj
 0001:00036070       ?setPxMaterial_Flags@@YAXPEAVPxMaterial@physx@@V?$PxFlags@W4Enum@PxMaterialFlag@physx@@G@2@@Z 0000000180037070 f   PxAutoGeneratedMetaDataObjects.obj
 0001:00036090       ?setPxMeshScaleRotation@@YAXPEAVPxMeshScale@physx@@V?$PxQuatT@M@2@@Z 0000000180037090 f i PxAutoGeneratedMetaDataObjects.obj
 0001:000360b0       ?setPxMeshScaleScale@@YAXPEAVPxMeshScale@physx@@V?$PxVec3T@M@2@@Z 00000001800370b0 f i PxAutoGeneratedMetaDataObjects.obj
 0001:000360d0       ?setPxRigidActor_GlobalPose@@YAXPEAVPxRigidActor@physx@@AEBV?$PxTransformT@M@2@@Z 00000001800370d0 f   PxAutoGeneratedMetaDataObjects.obj
 0001:000360e0       ?setPxRigidBody_AngularDamping@@YAXPEAVPxRigidBody@physx@@M@Z 00000001800370e0 f   PxAutoGeneratedMetaDataObjects.obj
 0001:000360f0       ?setPxRigidBody_ContactSlopCoefficient@@YAXPEAVPxRigidBody@physx@@M@Z 00000001800370f0 f   PxAutoGeneratedMetaDataObjects.obj
 0001:000360f0       ?setPxScene_ContactModifyCallback@@YAXPEAVPxScene@physx@@PEAVPxContactModifyCallback@2@@Z 00000001800370f0 f   PxAutoGeneratedMetaDataObjects.obj
 0001:00036100       ?setPxRigidBody_MaxAngularVelocity@@YAXPEAVPxRigidBody@physx@@M@Z 0000000180037100 f   PxAutoGeneratedMetaDataObjects.obj
 0001:00036110       ?setPxRigidBody_MaxContactImpulse@@YAXPEAVPxRigidBody@physx@@M@Z 0000000180037110 f   PxAutoGeneratedMetaDataObjects.obj
 0001:00036110       ?setPxScene_SimulationEventCallback@@YAXPEAVPxScene@physx@@PEAVPxSimulationEventCallback@2@@Z 0000000180037110 f   PxAutoGeneratedMetaDataObjects.obj
 0001:00036120       ?setPxRigidBody_MinCCDAdvanceCoefficient@@YAXPEAVPxRigidBody@physx@@M@Z 0000000180037120 f   PxAutoGeneratedMetaDataObjects.obj
 0001:00036130       ?setPxRigidBody_RigidBodyFlags@@YAXPEAVPxRigidBody@physx@@V?$PxFlags@W4Enum@PxRigidBodyFlag@physx@@G@2@@Z 0000000180037130 f   PxAutoGeneratedMetaDataObjects.obj
 0001:00036150       ?setPxRigidDynamic_AngularVelocity@@YAXPEAVPxRigidDynamic@physx@@AEBV?$PxVec3T@M@2@@Z 0000000180037150 f   PxAutoGeneratedMetaDataObjects.obj
 0001:00036160       ?setPxRigidDynamic_ContactReportThreshold@@YAXPEAVPxRigidDynamic@physx@@M@Z 0000000180037160 f   PxAutoGeneratedMetaDataObjects.obj
 0001:00036170       ?setPxRigidDynamic_LinearVelocity@@YAXPEAVPxRigidDynamic@physx@@AEBV?$PxVec3T@M@2@@Z 0000000180037170 f   PxAutoGeneratedMetaDataObjects.obj
 0001:00036180       ?setPxRigidDynamic_RigidDynamicLockFlags@@YAXPEAVPxRigidDynamic@physx@@V?$PxFlags@W4Enum@PxRigidDynamicLockFlag@physx@@E@2@@Z 0000000180037180 f   PxAutoGeneratedMetaDataObjects.obj
 0001:000361a0       ?setPxRigidDynamic_SolverIterationCounts@@YAXPEAVPxRigidDynamic@physx@@II@Z 00000001800371a0 f   PxAutoGeneratedMetaDataObjects.obj
 0001:000361b0       ?setPxRigidDynamic_WakeCounter@@YAXPEAVPxRigidDynamic@physx@@M@Z 00000001800371b0 f   PxAutoGeneratedMetaDataObjects.obj
 0001:000361c0       ?setPxSceneDescBounceThresholdVelocity@@YAXPEAVPxSceneDesc@physx@@M@Z 00000001800371c0 f i PxAutoGeneratedMetaDataObjects.obj
 0001:000361d0       ?setPxSceneDescBroadPhaseCallback@@YAXPEAVPxSceneDesc@physx@@PEAVPxBroadPhaseCallback@2@@Z 00000001800371d0 f i PxAutoGeneratedMetaDataObjects.obj
 0001:000361e0       ?setPxSceneDescBroadPhaseType@@YAXPEAVPxSceneDesc@physx@@W4Enum@PxBroadPhaseType@2@@Z 00000001800371e0 f i PxAutoGeneratedMetaDataObjects.obj
 0001:000361e0       ?setPxSimulationStatisticsNbNewTouches@@YAXPEAVPxSimulationStatistics@physx@@I@Z 00000001800371e0 f i PxAutoGeneratedMetaDataObjects.obj
 0001:000361f0       ?setPxSceneDescCcdContactModifyCallback@@YAXPEAVPxSceneDesc@physx@@PEAVPxCCDContactModifyCallback@2@@Z 00000001800371f0 f i PxAutoGeneratedMetaDataObjects.obj
 0001:00036200       ?setPxSceneDescCcdMaxPasses@@YAXPEAVPxSceneDesc@physx@@I@Z 0000000180037200 f i PxAutoGeneratedMetaDataObjects.obj
 0001:00036210       ?setMaxVelocity@ParticleSystemCore@Sc@physx@@QEAAXM@Z 0000000180037210 f i SimulationController_static_64:ScParticleSystemCore.obj
 0001:00036210       ?setPxSceneDescCcdMaxSeparation@@YAXPEAVPxSceneDesc@physx@@M@Z 0000000180037210 f i PxAutoGeneratedMetaDataObjects.obj
 0001:00036220       ?setMaxDepenetrationVelocity@ParticleSystemCore@Sc@physx@@QEAAXM@Z 0000000180037220 f i SimulationController_static_64:ScParticleSystemCore.obj
 0001:00036220       ?setPxSceneDescCcdThreshold@@YAXPEAVPxSceneDesc@physx@@M@Z 0000000180037220 f i PxAutoGeneratedMetaDataObjects.obj
 0001:00036230       ?setPxSceneDescContactModifyCallback@@YAXPEAVPxSceneDesc@physx@@PEAVPxContactModifyCallback@2@@Z 0000000180037230 f i PxAutoGeneratedMetaDataObjects.obj
 0001:00036240       ?setPxSceneDescContactPairSlabSize@@YAXPEAVPxSceneDesc@physx@@I@Z 0000000180037240 f i PxAutoGeneratedMetaDataObjects.obj
 0001:00036250       ?setPxSceneDescContactReportStreamBufferSize@@YAXPEAVPxSceneDesc@physx@@I@Z 0000000180037250 f i PxAutoGeneratedMetaDataObjects.obj
 0001:00036260       ?setPxSceneDescCpuDispatcher@@YAXPEAVPxSceneDesc@physx@@PEAVPxCpuDispatcher@2@@Z 0000000180037260 f i PxAutoGeneratedMetaDataObjects.obj
 0001:00036260       ?setPxSimulationStatisticsGpuMemHeapSolver@@YAXPEAVPxSimulationStatistics@physx@@_K@Z 0000000180037260 f i PxAutoGeneratedMetaDataObjects.obj
 0001:00036270       ?setPxSceneDescCudaContextManager@@YAXPEAVPxSceneDesc@physx@@PEAVPxCudaContextManager@2@@Z 0000000180037270 f i PxAutoGeneratedMetaDataObjects.obj
 0001:00036270       ?setPxSimulationStatisticsGpuMemHeapArticulation@@YAXPEAVPxSimulationStatistics@physx@@_K@Z 0000000180037270 f i PxAutoGeneratedMetaDataObjects.obj
 0001:00036280       ?setPxSceneDescFilterCallback@@YAXPEAVPxSceneDesc@physx@@PEAVPxSimulationFilterCallback@2@@Z 0000000180037280 f i PxAutoGeneratedMetaDataObjects.obj
 0001:00036290       ?setPxSceneDescFilterShader@@YAXPEAVPxSceneDesc@physx@@P6A?AV?$PxFlags@W4Enum@PxFilterFlag@physx@@G@2@IUPxFilterData@2@I1AEAV?$PxFlags@W4Enum@PxPairFlag@physx@@G@2@PEBXI@Z@Z 0000000180037290 f i PxAutoGeneratedMetaDataObjects.obj
 0001:000362a0       ?setPxSceneDescFilterShaderData@@YAXPEAVPxSceneDesc@physx@@PEBX@Z 00000001800372a0 f i PxAutoGeneratedMetaDataObjects.obj
 0001:000362b0       ?setPxSceneDescFilterShaderDataSize@@YAXPEAVPxSceneDesc@physx@@I@Z 00000001800372b0 f i PxAutoGeneratedMetaDataObjects.obj
 0001:000362b0       ?setPxSimulationStatisticsCompressedContactSize@@YAXPEAVPxSimulationStatistics@physx@@I@Z 00000001800372b0 f i PxAutoGeneratedMetaDataObjects.obj
 0001:000362c0       ?setPxSceneDescFlags@@YAXPEAVPxSceneDesc@physx@@V?$PxFlags@W4Enum@PxSceneFlag@physx@@I@2@@Z 00000001800372c0 f i PxAutoGeneratedMetaDataObjects.obj
 0001:000362d0       ?setPxSceneDescFrictionCorrelationDistance@@YAXPEAVPxSceneDesc@physx@@M@Z 00000001800372d0 f i PxAutoGeneratedMetaDataObjects.obj
 0001:000362e0       ?setPxSceneDescFrictionOffsetThreshold@@YAXPEAVPxSceneDesc@physx@@M@Z 00000001800372e0 f i PxAutoGeneratedMetaDataObjects.obj
 0001:000362f0       ?setPxSceneDescFrictionType@@YAXPEAVPxSceneDesc@physx@@W4Enum@PxFrictionType@2@@Z 00000001800372f0 f i PxAutoGeneratedMetaDataObjects.obj
 0001:00036300       ?setPxSceneDescGpuComputeVersion@@YAXPEAVPxSceneDesc@physx@@I@Z 0000000180037300 f i PxAutoGeneratedMetaDataObjects.obj
 0001:00036310       ?setPxSceneDescGpuDynamicsConfig@@YAXPEAVPxSceneDesc@physx@@UPxgDynamicsMemoryConfig@2@@Z 0000000180037310 f i PxAutoGeneratedMetaDataObjects.obj
 0001:00036340       ?setPxSceneDescGpuMaxNumPartitions@@YAXPEAVPxSceneDesc@physx@@I@Z 0000000180037340 f i PxAutoGeneratedMetaDataObjects.obj
 0001:00036350       ?setPxSceneDescGpuMaxNumStaticPartitions@@YAXPEAVPxSceneDesc@physx@@I@Z 0000000180037350 f i PxAutoGeneratedMetaDataObjects.obj
 0001:00036360       ?setPxSceneDescGravity@@YAXPEAVPxSceneDesc@physx@@V?$PxVec3T@M@2@@Z 0000000180037360 f i PxAutoGeneratedMetaDataObjects.obj
 0001:00036380       ?setPxSceneDescKineKineFilteringMode@@YAXPEAVPxSceneDesc@physx@@W4Enum@PxPairFilteringMode@2@@Z 0000000180037380 f i PxAutoGeneratedMetaDataObjects.obj
 0001:00036380       ?setPxSimulationStatisticsNbNewPairs@@YAXPEAVPxSimulationStatistics@physx@@I@Z 0000000180037380 f i PxAutoGeneratedMetaDataObjects.obj
 0001:00036390       ?setPxSceneDescLimits@@YAXPEAVPxSceneDesc@physx@@VPxSceneLimits@2@@Z 0000000180037390 f i PxAutoGeneratedMetaDataObjects.obj
 0001:000363b0       ?setFluidRestOffset@ParticleSystemCore@Sc@physx@@QEAAXM@Z 00000001800373b0 f i SimulationController_static_64:ScParticleSystemCore.obj
 0001:000363b0       ?setPxSceneDescMaxBiasCoefficient@@YAXPEAVPxSceneDesc@physx@@M@Z 00000001800373b0 f i PxAutoGeneratedMetaDataObjects.obj
 0001:000363c0       ?setPxSceneDescMaxNbContactDataBlocks@@YAXPEAVPxSceneDesc@physx@@I@Z 00000001800373c0 f i PxAutoGeneratedMetaDataObjects.obj
 0001:000363d0       ?setPxSceneDescNbContactDataBlocks@@YAXPEAVPxSceneDesc@physx@@I@Z 00000001800373d0 f i PxAutoGeneratedMetaDataObjects.obj
 0001:000363e0       ?setPxSceneDescSanityBounds@@YAXPEAVPxSceneDesc@physx@@VPxBounds3@2@@Z 00000001800373e0 f i PxAutoGeneratedMetaDataObjects.obj
 0001:00036420       ?setPxSceneDescSimulationEventCallback@@YAXPEAVPxSceneDesc@physx@@PEAVPxSimulationEventCallback@2@@Z 0000000180037420 f i PxAutoGeneratedMetaDataObjects.obj
 0001:00036430       ?setPxSceneDescSolverArticulationBatchSize@@YAXPEAVPxSceneDesc@physx@@I@Z 0000000180037430 f i PxAutoGeneratedMetaDataObjects.obj
 0001:00036440       ?setPxSceneDescSolverBatchSize@@YAXPEAVPxSceneDesc@physx@@I@Z 0000000180037440 f i PxAutoGeneratedMetaDataObjects.obj
 0001:00036450       ?setPxSceneDescSolverType@@YAXPEAVPxSceneDesc@physx@@W4Enum@PxSolverType@2@@Z 0000000180037450 f i PxAutoGeneratedMetaDataObjects.obj
 0001:00036460       ?setPxSceneDescStaticKineFilteringMode@@YAXPEAVPxSceneDesc@physx@@W4Enum@PxPairFilteringMode@2@@Z 0000000180037460 f i PxAutoGeneratedMetaDataObjects.obj
 0001:00036460       ?setPxSimulationStatisticsNbLostPairs@@YAXPEAVPxSimulationStatistics@physx@@I@Z 0000000180037460 f i PxAutoGeneratedMetaDataObjects.obj
 0001:00036470       ?setPxSceneDescUserData@@YAXPEAVPxSceneDesc@physx@@PEAX@Z 0000000180037470 f i PxAutoGeneratedMetaDataObjects.obj
 0001:00036470       ?setPxSimulationStatisticsGpuMemHeapSimulation@@YAXPEAVPxSimulationStatistics@physx@@_K@Z 0000000180037470 f i PxAutoGeneratedMetaDataObjects.obj
 0001:00036480       ?setPxSceneDescWakeCounterResetValue@@YAXPEAVPxSceneDesc@physx@@M@Z 0000000180037480 f i PxAutoGeneratedMetaDataObjects.obj
 0001:00036490       ?setPxSceneDesc_ToDefault@@YAXPEAVPxSceneDesc@physx@@AEBVPxTolerancesScale@2@@Z 0000000180037490 f   PxAutoGeneratedMetaDataObjects.obj
 0001:00036700       ?setPxSceneLimitsMaxNbAggregates@@YAXPEAVPxSceneLimits@physx@@I@Z 0000000180037700 f i PxAutoGeneratedMetaDataObjects.obj
 0001:00036700       ?setPxSceneQueryDescStaticBVHBuildStrategy@@YAXPEAVPxSceneQueryDesc@physx@@W4Enum@PxBVHBuildStrategy@2@@Z 0000000180037700 f i PxAutoGeneratedMetaDataObjects.obj
 0001:00036700       ?setPxSimulationStatisticsNbDynamicBodies@@YAXPEAVPxSimulationStatistics@physx@@I@Z 0000000180037700 f i PxAutoGeneratedMetaDataObjects.obj
 0001:00036700       ?setPxgDynamicsMemoryConfigFoundLostPairsCapacity@@YAXPEAUPxgDynamicsMemoryConfig@physx@@I@Z 0000000180037700 f i PxAutoGeneratedMetaDataObjects.obj
 0001:00036710       ?setPxSceneLimitsMaxNbBroadPhaseOverlaps@@YAXPEAVPxSceneLimits@physx@@I@Z 0000000180037710 f i PxAutoGeneratedMetaDataObjects.obj
 0001:00036710       ?setPxSceneQueryDescDynamicNbObjectsPerNode@@YAXPEAVPxSceneQueryDesc@physx@@I@Z 0000000180037710 f i PxAutoGeneratedMetaDataObjects.obj
 0001:00036710       ?setPxgDynamicsMemoryConfigMaxSoftBodyContacts@@YAXPEAUPxgDynamicsMemoryConfig@physx@@I@Z 0000000180037710 f i PxAutoGeneratedMetaDataObjects.obj
 0001:00036720       ?setPxSceneLimitsMaxNbConstraints@@YAXPEAVPxSceneLimits@physx@@I@Z 0000000180037720 f i PxAutoGeneratedMetaDataObjects.obj
 0001:00036720       ?setPxSceneQueryDescDynamicBVHBuildStrategy@@YAXPEAVPxSceneQueryDesc@physx@@W4Enum@PxBVHBuildStrategy@2@@Z 0000000180037720 f i PxAutoGeneratedMetaDataObjects.obj
 0001:00036720       ?setPxSimulationStatisticsNbKinematicBodies@@YAXPEAVPxSimulationStatistics@physx@@I@Z 0000000180037720 f i PxAutoGeneratedMetaDataObjects.obj
 0001:00036720       ?setPxgDynamicsMemoryConfigFoundLostAggregatePairsCapacity@@YAXPEAUPxgDynamicsMemoryConfig@physx@@I@Z 0000000180037720 f i PxAutoGeneratedMetaDataObjects.obj
 0001:00036730       ?setPxSceneQueryDescSceneQueryUpdateMode@@YAXPEAVPxSceneQueryDesc@physx@@W4Enum@PxSceneQueryUpdateMode@2@@Z 0000000180037730 f i PxAutoGeneratedMetaDataObjects.obj
 0001:00036730       ?setPxgDynamicsMemoryConfigMaxFemClothContacts@@YAXPEAUPxgDynamicsMemoryConfig@physx@@I@Z 0000000180037730 f i PxAutoGeneratedMetaDataObjects.obj
 0001:00036740       ?setPxSceneQuerySystemBase_UpdateMode@@YAXPEAVPxSceneQuerySystemBase@physx@@W4Enum@PxSceneQueryUpdateMode@2@@Z 0000000180037740 f   PxAutoGeneratedMetaDataObjects.obj
 0001:00036740       ?setPxSceneSQSystem_SceneQueryUpdateMode@@YAXPEAVPxSceneSQSystem@physx@@W4Enum@PxSceneQueryUpdateMode@2@@Z 0000000180037740 f   PxAutoGeneratedMetaDataObjects.obj
 0001:00036750       ?setPxScene_BounceThresholdVelocity@@YAXPEAVPxScene@physx@@M@Z 0000000180037750 f   PxAutoGeneratedMetaDataObjects.obj
 0001:00036760       ?setPxScene_CCDMaxPasses@@YAXPEAVPxScene@physx@@I@Z 0000000180037760 f   PxAutoGeneratedMetaDataObjects.obj
 0001:00036770       ?setPxScene_CCDMaxSeparation@@YAXPEAVPxScene@physx@@M@Z 0000000180037770 f   PxAutoGeneratedMetaDataObjects.obj
 0001:00036780       ?setPxScene_CCDThreshold@@YAXPEAVPxScene@physx@@M@Z 0000000180037780 f   PxAutoGeneratedMetaDataObjects.obj
 0001:00036790       ?setPxScene_FrictionCorrelationDistance@@YAXPEAVPxScene@physx@@M@Z 0000000180037790 f   PxAutoGeneratedMetaDataObjects.obj
 0001:000367a0       ?setPxScene_FrictionOffsetThreshold@@YAXPEAVPxScene@physx@@M@Z 00000001800377a0 f   PxAutoGeneratedMetaDataObjects.obj
 0001:000367b0       ?setPxScene_Gravity@@YAXPEAVPxScene@physx@@AEBV?$PxVec3T@M@2@@Z 00000001800377b0 f   PxAutoGeneratedMetaDataObjects.obj
 0001:000367c0       ?setPxScene_MaxBiasCoefficient@@YAXPEAVPxScene@physx@@M@Z 00000001800377c0 f   PxAutoGeneratedMetaDataObjects.obj
 0001:000367d0       ?setPxScene_NbContactDataBlocks@@YAXPEAVPxScene@physx@@I@Z 00000001800377d0 f   PxAutoGeneratedMetaDataObjects.obj
 0001:000367e0       ?setPxScene_SolverArticulationBatchSize@@YAXPEAVPxScene@physx@@I@Z 00000001800377e0 f   PxAutoGeneratedMetaDataObjects.obj
 0001:000367f0       ?setPxScene_SolverBatchSize@@YAXPEAVPxScene@physx@@I@Z 00000001800377f0 f   PxAutoGeneratedMetaDataObjects.obj
 0001:00036800       ?setPxScene_VisualizationCullingBox@@YAXPEAVPxScene@physx@@AEBVPxBounds3@2@@Z 0000000180037800 f   PxAutoGeneratedMetaDataObjects.obj
 0001:00036810       ?setPxShape_Flags@@YAXPEAVPxShape@physx@@V?$PxFlags@W4Enum@PxShapeFlag@physx@@E@2@@Z 0000000180037810 f   PxAutoGeneratedMetaDataObjects.obj
 0001:00036830       ?setPxShape_Name@@YAXPEAVPxShape@physx@@PEBD@Z 0000000180037830 f   PxAutoGeneratedMetaDataObjects.obj
 0001:00036840       ?setAggregate@NpArticulationReducedCoordinate@physx@@QEAAXPEAVPxAggregate@2@@Z 0000000180037840 f i NpArticulationReducedCoordinate.obj
 0001:00036840       ?setPxSimulationStatisticsGpuMemFEMCloths@@YAXPEAVPxSimulationStatistics@physx@@_K@Z 0000000180037840 f i PxAutoGeneratedMetaDataObjects.obj
 0001:00036850       ?setPxSimulationStatisticsGpuMemHairSystems@@YAXPEAVPxSimulationStatistics@physx@@_K@Z 0000000180037850 f i PxAutoGeneratedMetaDataObjects.obj
 0001:00036860       ?setPxSimulationStatisticsGpuMemHeap@@YAXPEAVPxSimulationStatistics@physx@@_K@Z 0000000180037860 f i PxAutoGeneratedMetaDataObjects.obj
 0001:00036870       ?setPxSimulationStatisticsGpuMemHeapBroadPhase@@YAXPEAVPxSimulationStatistics@physx@@_K@Z 0000000180037870 f i PxAutoGeneratedMetaDataObjects.obj
 0001:00036880       ?setPxSimulationStatisticsGpuMemHeapFEMCloths@@YAXPEAVPxSimulationStatistics@physx@@_K@Z 0000000180037880 f i PxAutoGeneratedMetaDataObjects.obj
 0001:00036890       ?setPxSimulationStatisticsGpuMemHeapHairSystems@@YAXPEAVPxSimulationStatistics@physx@@_K@Z 0000000180037890 f i PxAutoGeneratedMetaDataObjects.obj
 0001:000368a0       ?setPxSimulationStatisticsGpuMemHeapNarrowPhase@@YAXPEAVPxSimulationStatistics@physx@@_K@Z 00000001800378a0 f i PxAutoGeneratedMetaDataObjects.obj
 0001:000368b0       ?setPxSimulationStatisticsGpuMemHeapOther@@YAXPEAVPxSimulationStatistics@physx@@_K@Z 00000001800378b0 f i PxAutoGeneratedMetaDataObjects.obj
 0001:000368c0       ?setPxSimulationStatisticsGpuMemHeapParticles@@YAXPEAVPxSimulationStatistics@physx@@_K@Z 00000001800378c0 f i PxAutoGeneratedMetaDataObjects.obj
 0001:000368d0       ?setPxSimulationStatisticsGpuMemHeapSimulationArticulation@@YAXPEAVPxSimulationStatistics@physx@@_K@Z 00000001800378d0 f i PxAutoGeneratedMetaDataObjects.obj
 0001:000368e0       ?setPxSimulationStatisticsGpuMemHeapSimulationFEMCloth@@YAXPEAVPxSimulationStatistics@physx@@_K@Z 00000001800378e0 f i PxAutoGeneratedMetaDataObjects.obj
 0001:000368f0       ?setPxSimulationStatisticsGpuMemHeapSimulationHairSystem@@YAXPEAVPxSimulationStatistics@physx@@_K@Z 00000001800378f0 f i PxAutoGeneratedMetaDataObjects.obj
 0001:00036900       ?setPxSimulationStatisticsGpuMemHeapSimulationParticles@@YAXPEAVPxSimulationStatistics@physx@@_K@Z 0000000180037900 f i PxAutoGeneratedMetaDataObjects.obj
 0001:00036910       ?setPxSimulationStatisticsGpuMemHeapSimulationSoftBody@@YAXPEAVPxSimulationStatistics@physx@@_K@Z 0000000180037910 f i PxAutoGeneratedMetaDataObjects.obj
 0001:00036920       ?setPxSimulationStatisticsGpuMemHeapSoftBodies@@YAXPEAVPxSimulationStatistics@physx@@_K@Z 0000000180037920 f i PxAutoGeneratedMetaDataObjects.obj
 0001:00036930       ?setPxSimulationStatisticsGpuMemParticles@@YAXPEAVPxSimulationStatistics@physx@@_K@Z 0000000180037930 f i PxAutoGeneratedMetaDataObjects.obj
 0001:00036940       ?setPxSimulationStatisticsGpuMemSoftBodies@@YAXPEAVPxSimulationStatistics@physx@@_K@Z 0000000180037940 f i PxAutoGeneratedMetaDataObjects.obj
 0001:00036950       ?setPxSimulationStatisticsNbAggregates@@YAXPEAVPxSimulationStatistics@physx@@I@Z 0000000180037950 f i PxAutoGeneratedMetaDataObjects.obj
 0001:00036960       ?setPxSimulationStatisticsNbArticulations@@YAXPEAVPxSimulationStatistics@physx@@I@Z 0000000180037960 f i PxAutoGeneratedMetaDataObjects.obj
 0001:00036970       ?setPxSimulationStatisticsNbAxisSolverConstraints@@YAXPEAVPxSimulationStatistics@physx@@I@Z 0000000180037970 f i PxAutoGeneratedMetaDataObjects.obj
 0001:00036980       ?setPxSimulationStatisticsNbBroadPhaseAdds@@YAXPEAVPxSimulationStatistics@physx@@I@Z 0000000180037980 f i PxAutoGeneratedMetaDataObjects.obj
 0001:00036990       ?setPxSimulationStatisticsNbBroadPhaseRemoves@@YAXPEAVPxSimulationStatistics@physx@@I@Z 0000000180037990 f i PxAutoGeneratedMetaDataObjects.obj
 0001:000369a0       ?setPxSimulationStatisticsNbDiscreteContactPairsTotal@@YAXPEAVPxSimulationStatistics@physx@@I@Z 00000001800379a0 f i PxAutoGeneratedMetaDataObjects.obj
 0001:000369b0       ?setPxSimulationStatisticsNbDiscreteContactPairsWithCacheHits@@YAXPEAVPxSimulationStatistics@physx@@I@Z 00000001800379b0 f i PxAutoGeneratedMetaDataObjects.obj
 0001:000369c0       ?setPxSimulationStatisticsNbDiscreteContactPairsWithContacts@@YAXPEAVPxSimulationStatistics@physx@@I@Z 00000001800379c0 f i PxAutoGeneratedMetaDataObjects.obj
 0001:000369d0       ?setPxSimulationStatisticsNbLostTouches@@YAXPEAVPxSimulationStatistics@physx@@I@Z 00000001800379d0 f i PxAutoGeneratedMetaDataObjects.obj
 0001:000369e0       ?setPxSimulationStatisticsNbPartitions@@YAXPEAVPxSimulationStatistics@physx@@I@Z 00000001800379e0 f i PxAutoGeneratedMetaDataObjects.obj
 0001:000369f0       ?setPxSimulationStatisticsPeakConstraintMemory@@YAXPEAVPxSimulationStatistics@physx@@I@Z 00000001800379f0 f i PxAutoGeneratedMetaDataObjects.obj
 0001:00036a00       ?setPxSimulationStatisticsRequiredContactConstraintMemory@@YAXPEAVPxSimulationStatistics@physx@@I@Z 0000000180037a00 f i PxAutoGeneratedMetaDataObjects.obj
 0001:00036a10       ?setPxTriangleMeshGeometryMeshFlags@@YAXPEAVPxTriangleMeshGeometry@physx@@V?$PxFlags@W4Enum@PxMeshGeometryFlag@physx@@E@2@@Z 0000000180037a10 f i PxAutoGeneratedMetaDataObjects.obj
 0001:00036a20       ?setPxgDynamicsMemoryConfigCollisionStackSize@@YAXPEAUPxgDynamicsMemoryConfig@physx@@I@Z 0000000180037a20 f i PxAutoGeneratedMetaDataObjects.obj
 0001:00036a30       ?setPxgDynamicsMemoryConfigMaxHairContacts@@YAXPEAUPxgDynamicsMemoryConfig@physx@@I@Z 0000000180037a30 f i PxAutoGeneratedMetaDataObjects.obj
 0001:00036a40       ?setPxgDynamicsMemoryConfigMaxParticleContacts@@YAXPEAUPxgDynamicsMemoryConfig@physx@@I@Z 0000000180037a40 f i PxAutoGeneratedMetaDataObjects.obj
 0001:00036a50       ??0NbCCDPairsProperty@physx@@QEAA@XZ 0000000180037a50 f   PxMetaDataObjects.obj
 0001:00036a80       ??0NbDiscreteContactPairsProperty@physx@@QEAA@XZ 0000000180037a80 f   PxMetaDataObjects.obj
 0001:00036ab0       ??0NbModifiedContactPairsProperty@physx@@QEAA@XZ 0000000180037ab0 f   PxMetaDataObjects.obj
 0001:00036ae0       ??0NbShapesProperty@physx@@QEAA@XZ 0000000180037ae0 f   PxMetaDataObjects.obj
 0001:00036b10       ??0NbTriggerPairsProperty@physx@@QEAA@XZ 0000000180037b10 f   PxMetaDataObjects.obj
 0001:00036b40       ??0PxCustomGeometryCustomTypeProperty@physx@@QEAA@XZ 0000000180037b40 f   PxMetaDataObjects.obj
 0001:00036b60       ??0SimulationStatisticsProperty@physx@@QEAA@XZ 0000000180037b60 f   PxMetaDataObjects.obj
 0001:00036b80       ?GetCustomType@@YAIPEBVPxCustomGeometry@physx@@@Z 0000000180037b80 f i PxMetaDataObjects.obj
 0001:00036ba0       ?GetNbCCDPairs@@YAIPEBVPxSimulationStatistics@physx@@W4Enum@PxGeometryType@2@1@Z 0000000180037ba0 f i PxMetaDataObjects.obj
 0001:00036bc0       ?GetNbDiscreteContactPairs@@YAIPEBVPxSimulationStatistics@physx@@W4Enum@PxGeometryType@2@1@Z 0000000180037bc0 f i PxMetaDataObjects.obj
 0001:00036be0       ?GetNbModifiedContactPairs@@YAIPEBVPxSimulationStatistics@physx@@W4Enum@PxGeometryType@2@1@Z 0000000180037be0 f i PxMetaDataObjects.obj
 0001:00036c00       ?GetNbShape@@YAIPEBVPxSimulationStatistics@physx@@W4Enum@PxGeometryType@2@@Z 0000000180037c00 f i PxMetaDataObjects.obj
 0001:00036c10       ?GetNbTriggerPairs@@YAIPEBVPxSimulationStatistics@physx@@W4Enum@PxGeometryType@2@1@Z 0000000180037c10 f i PxMetaDataObjects.obj
 0001:00036c30       ?GetStats@@YA?AVPxSimulationStatistics@physx@@PEBVPxScene@2@@Z 0000000180037c30 f i PxMetaDataObjects.obj
 0001:00036c70       ?SetNbCCDPairs@@YAXPEAVPxSimulationStatistics@physx@@W4Enum@PxGeometryType@2@1I@Z 0000000180037c70 f i PxMetaDataObjects.obj
 0001:00036c90       ?SetNbDiscreteContactPairs@@YAXPEAVPxSimulationStatistics@physx@@W4Enum@PxGeometryType@2@1I@Z 0000000180037c90 f i PxMetaDataObjects.obj
 0001:00036cb0       ?SetNbModifiedContactPairs@@YAXPEAVPxSimulationStatistics@physx@@W4Enum@PxGeometryType@2@1I@Z 0000000180037cb0 f i PxMetaDataObjects.obj
 0001:00036cd0       ?SetNbShape@@YAXPEAVPxSimulationStatistics@physx@@W4Enum@PxGeometryType@2@I@Z 0000000180037cd0 f i PxMetaDataObjects.obj
 0001:00036ce0       ?SetNbTriggerPairs@@YAXPEAVPxSimulationStatistics@physx@@W4Enum@PxGeometryType@2@1I@Z 0000000180037ce0 f i PxMetaDataObjects.obj
 0001:00036d00       ?createLink@PxArticulationReducedCoordinateLinkCollectionPropHelper@physx@@QEBAPEAVPxArticulationLink@2@PEAVPxArticulationReducedCoordinate@2@PEAV32@AEBV?$PxTransformT@M@2@@Z 0000000180037d00 f   PxMetaDataObjects.obj
 0001:00036e30       ?createShape@PxRigidActorShapeCollectionHelper@physx@@QEBAPEAVPxShape@2@PEAVPxRigidActor@2@AEBVPxGeometry@2@AEAVPxMaterial@2@V?$PxFlags@W4Enum@PxShapeFlag@physx@@E@2@@Z 0000000180037e30 f   PxMetaDataObjects.obj
 0001:00036eb0       ?createShape@PxRigidActorShapeCollectionHelper@physx@@QEBAPEAVPxShape@2@PEAVPxRigidActor@2@AEBVPxGeometry@2@PEBQEAVPxMaterial@2@GV?$PxFlags@W4Enum@PxShapeFlag@physx@@E@2@@Z 0000000180037eb0 f   PxMetaDataObjects.obj
 0001:00036f40       ?getGeometry@PxShapeGeomPropertyHelper@physx@@QEBA_NPEBVPxShape@2@AEAVPxBoxGeometry@2@@Z 0000000180037f40 f   PxMetaDataObjects.obj
 0001:00036f80       ?getGeometry@PxShapeGeomPropertyHelper@physx@@QEBA_NPEBVPxShape@2@AEAVPxCapsuleGeometry@2@@Z 0000000180037f80 f   PxMetaDataObjects.obj
 0001:00036fc0       ?getGeometry@PxShapeGeomPropertyHelper@physx@@QEBA_NPEBVPxShape@2@AEAVPxConvexMeshGeometry@2@@Z 0000000180037fc0 f   PxMetaDataObjects.obj
 0001:00037030       ?getGeometry@PxShapeGeomPropertyHelper@physx@@QEBA_NPEBVPxShape@2@AEAVPxHeightFieldGeometry@2@@Z 0000000180038030 f   PxMetaDataObjects.obj
 0001:00037080       ?getGeometry@PxShapeGeomPropertyHelper@physx@@QEBA_NPEBVPxShape@2@AEAVPxParticleSystemGeometry@2@@Z 0000000180038080 f   PxMetaDataObjects.obj
 0001:000370c0       ?getGeometry@PxShapeGeomPropertyHelper@physx@@QEBA_NPEBVPxShape@2@AEAVPxPlaneGeometry@2@@Z 00000001800380c0 f   PxMetaDataObjects.obj
 0001:000370f0       ?getGeometry@PxShapeGeomPropertyHelper@physx@@QEBA_NPEBVPxShape@2@AEAVPxSphereGeometry@2@@Z 00000001800380f0 f   PxMetaDataObjects.obj
 0001:00037130       ?getGeometry@PxShapeGeomPropertyHelper@physx@@QEBA_NPEBVPxShape@2@AEAVPxTetrahedronMeshGeometry@2@@Z 0000000180038130 f   PxMetaDataObjects.obj
 0001:00037170       ?getGeometry@PxShapeGeomPropertyHelper@physx@@QEBA_NPEBVPxShape@2@AEAVPxTriangleMeshGeometry@2@@Z 0000000180038170 f   PxMetaDataObjects.obj
 0001:000371e0       ?getGeometryType@PxShapeGeomPropertyHelper@physx@@QEBA?AW4Enum@PxGeometryType@2@PEBVPxShape@2@@Z 00000001800381e0 f   PxMetaDataObjects.obj
 0001:00037200       ?isFinite@?$PxQuatT@M@physx@@QEBA_NXZ 0000000180038200 f i PxMetaDataObjects.obj
 0001:00037270       ?setMaterials@PxShapeMaterialsPropertyHelper@physx@@QEBAXPEAVPxShape@2@PEBQEAVPxMaterial@2@G@Z 0000000180038270 f   PxMetaDataObjects.obj
 0001:00037290       ??0NpActor@physx@@QEAA@W4Enum@NpType@1@@Z 0000000180038290 f   NpActor.obj
 0001:000372b0       ??4PxPartitionedParticleCloth@physx@@QEAAAEAU01@AEBU01@@Z 00000001800382b0 f i NpActor.obj
 0001:000372e0       ?addConnector@NpActor@physx@@QEAAXW4Enum@NpConnectorType@2@PEAVPxBase@2@PEBD@Z 00000001800382e0 f   NpActor.obj
 0001:000374b0       ?addConstraintsToSceneInternal@NpActor@physx@@AEAAXXZ 00000001800384b0 f   NpActor.obj
 0001:00037550       ?allocate@?$PxArray@VNpConnector@physx@@V?$PxInlineAllocator@$0EA@V?$PxReflectionAllocator@VNpConnector@physx@@@physx@@@2@@physx@@IEAAPEAVNpConnector@2@I@Z 0000000180038550 f i NpActor.obj
 0001:00037600       ?exportExtraData@NpActor@physx@@QEAAXAEAVPxSerializationContext@2@@Z 0000000180038600 f   NpActor.obj
 0001:00037800       ?findConnector@NpActor@physx@@QEBAIW4Enum@NpConnectorType@2@PEAVPxBase@2@@Z 0000000180038800 f   NpActor.obj
 0001:00037850       ?getAggregate@NpActor@physx@@QEBAPEAVPxAggregate@2@XZ 0000000180038850 f   NpActor.obj
 0001:00037890       ?getBodyCore@physx@@YAPEBVBodyCore@Sc@1@PEBVPxRigidActor@1@@Z 0000000180038890 f   NpActor.obj
 0001:000378b0       ?getNbConnectors@NpActor@physx@@QEBAIW4Enum@NpConnectorType@2@@Z 00000001800388b0 f   NpActor.obj
 0001:000378f0       ?getNpAggregate@NpActor@physx@@QEBAPEAVNpAggregate@2@AEAI@Z 00000001800388f0 f   NpActor.obj
 0001:00037930       ?getPxActor@NpActor@physx@@QEBAPEBVPxActor@2@XZ 0000000180038930 f   NpActor.obj
 0001:00037960       ?getShapeManager_@NpActor@physx@@SAPEAVNpShapeManager@2@AEAVPxRigidActor@2@@Z 0000000180038960 f   NpActor.obj
 0001:00037980       ?growAndPushBack@?$PxArray@VNpConnector@physx@@V?$PxInlineAllocator@$0EA@V?$PxReflectionAllocator@VNpConnector@physx@@@physx@@@2@@physx@@IEAAAEAVNpConnector@2@AEBV32@@Z 0000000180038980 f i NpActor.obj
 0001:00037a80       ?importExtraData@NpActor@physx@@QEAAXAEAVPxDeserializationContext@2@@Z 0000000180038a80 f   NpActor.obj
 0001:00037b20       ?onActorRelease@NpActor@physx@@SAXPEAVPxActor@2@@Z 0000000180038b20 f   NpActor.obj
 0001:00037b30       ?recreate@?$PxArray@VNpConnector@physx@@V?$PxInlineAllocator@$0EA@V?$PxReflectionAllocator@VNpConnector@physx@@@physx@@@2@@physx@@IEAAXI@Z 0000000180038b30 f i NpActor.obj
 0001:00037bf0       ?removeConnector@NpActor@physx@@QEAAXAEAVPxActor@2@W4Enum@NpConnectorType@2@PEAVPxBase@2@PEBD@Z 0000000180038bf0 f   NpActor.obj
 0001:00037d20       ?removeConstraints@NpActor@physx@@QEAAXAEAVPxRigidActor@2@@Z 0000000180038d20 f   NpActor.obj
 0001:00037e10       ?removeConstraintsFromScene@NpActor@physx@@QEAAXXZ 0000000180038e10 f   NpActor.obj
 0001:00037e80       ?removeFromAggregate@NpActor@physx@@QEAAXAEAVPxActor@2@@Z 0000000180038e80 f   NpActor.obj
 0001:00037ea0       ?resizeUninitialized@?$PxArray@VNpConnector@physx@@V?$PxInlineAllocator@$0EA@V?$PxReflectionAllocator@VNpConnector@physx@@@physx@@@2@@physx@@QEAAXI@Z 0000000180038ea0 f i NpActor.obj
 0001:00037ee0       ?resolveReferences@NpActor@physx@@QEAAXAEAVPxDeserializationContext@2@@Z 0000000180038ee0 f   NpActor.obj
 0001:00037f70       ?scSetDominanceGroup@NpActor@physx@@QEAAXE@Z 0000000180038f70 f   NpActor.obj
 0001:00038010       ?scSetOwnerClient@NpActor@physx@@QEAAXE@Z 0000000180039010 f   NpActor.obj
 0001:000380c0       ?setAggregate@NpActor@physx@@QEAAXPEAVNpAggregate@2@AEAVPxActor@2@@Z 00000001800390c0 f   NpActor.obj
 0001:000381c0       ??0NpAggregate@physx@@QEAA@III@Z 00000001800391c0 f   NpAggregate.obj
 0001:00038270       ??_ENpAggregate@physx@@UEAAPEAXI@Z 0000000180039270 f i NpAggregate.obj
 0001:00038270       ??_GNpAggregate@physx@@UEAAPEAXI@Z 0000000180039270 f i NpAggregate.obj
 0001:00038320       ??_EPxBase@physx@@MEAAPEAXI@Z 0000000180039320 f i NpAggregate.obj
 0001:00038320       ??_GPxBase@physx@@MEAAPEAXI@Z 0000000180039320 f i NpAggregate.obj
 0001:00038350       ?addActor@NpAggregate@physx@@UEAA_NAEAVPxActor@2@PEBVPxBVH@2@@Z 0000000180039350 f   NpAggregate.obj
 0001:00038630       ?addActorInternal@NpAggregate@physx@@AEAAXAEAVPxActor@2@AEAVNpScene@2@PEBVPxBVH@2@@Z 0000000180039630 f   NpAggregate.obj
 0001:00038770       ?addArticulation@NpAggregate@physx@@UEAA_NAEAVPxArticulationReducedCoordinate@2@@Z 0000000180039770 f   NpAggregate.obj
 0001:000389b0       ?addToScene@NpAggregate@physx@@QEAAXAEAVNpScene@2@@Z 00000001800399b0 f   NpAggregate.obj
 0001:00038ae0       ?createObject@NpAggregate@physx@@SAPEAV12@AEAPEAEAEAVPxDeserializationContext@2@@Z 0000000180039ae0 f   NpAggregate.obj
 0001:00038c40       ?decShapeCount@NpAggregate@physx@@QEAAXXZ 0000000180039c40 f   NpAggregate.obj
 0001:00038c50       ?erase@?$PxHashBase@PEAVArticulationCore@Sc@physx@@PEAV123@U?$PxHash@PEAVArticulationCore@Sc@physx@@@3@UGetKey@?$PxHashSetBase@PEAVArticulationCore@Sc@physx@@U?$PxHash@PEAVArticulationCore@Sc@physx@@@3@VPxAllocator@3@$00@3@VPxAllocator@3@$00@physx@@QEAA_NAEBQEAVArticulationCore@Sc@2@@Z 0000000180039c50 f i SimulationController_static_64:ScScene.obj
 0001:00038c50       ?erase@?$PxHashBase@PEAVArticulationSim@Sc@physx@@PEAV123@U?$PxHash@PEAVArticulationSim@Sc@physx@@@3@UGetKey@?$PxHashSetBase@PEAVArticulationSim@Sc@physx@@U?$PxHash@PEAVArticulationSim@Sc@physx@@@3@VPxAllocator@3@$00@3@VPxAllocator@3@$00@physx@@QEAA_NAEBQEAVArticulationSim@Sc@2@@Z 0000000180039c50 f i SimulationController_static_64:ScScene.obj
 0001:00038c50       ?erase@?$PxHashBase@PEAVBodyCore@Sc@physx@@PEAV123@U?$PxHash@PEAVBodyCore@Sc@physx@@@3@UGetKey@?$PxHashSetBase@PEAVBodyCore@Sc@physx@@U?$PxHash@PEAVBodyCore@Sc@physx@@@3@VPxAllocator@3@$00@3@VPxAllocator@3@$00@physx@@QEAA_NAEBQEAVBodyCore@Sc@2@@Z 0000000180039c50 f i SimulationController_static_64:ScScene.obj
 0001:00038c50       ?erase@?$PxHashBase@PEAVConstraintCore@Sc@physx@@PEAV123@U?$PxHash@PEAVConstraintCore@Sc@physx@@@3@UGetKey@?$PxHashSetBase@PEAVConstraintCore@Sc@physx@@U?$PxHash@PEAVConstraintCore@Sc@physx@@@3@VPxAllocator@3@$00@3@VPxAllocator@3@$00@physx@@QEAA_NAEBQEAVConstraintCore@Sc@2@@Z 0000000180039c50 f i SimulationController_static_64:ScScene.obj
 0001:00038c50       ?erase@?$PxHashBase@PEAVConstraintSim@Sc@physx@@PEAV123@U?$PxHash@PEAVConstraintSim@Sc@physx@@@3@UGetKey@?$PxHashSetBase@PEAVConstraintSim@Sc@physx@@U?$PxHash@PEAVConstraintSim@Sc@physx@@@3@VPxAllocator@3@$00@3@VPxAllocator@3@$00@physx@@QEAA_NAEBQEAVConstraintSim@Sc@2@@Z 0000000180039c50 f i SimulationController_static_64:ScConstraintBreakage.obj
 0001:00038c50       ?erase@?$PxHashBase@PEAVHairSystemCore@Sc@physx@@PEAV123@U?$PxHash@PEAVHairSystemCore@Sc@physx@@@3@UGetKey@?$PxHashSetBase@PEAVHairSystemCore@Sc@physx@@U?$PxHash@PEAVHairSystemCore@Sc@physx@@@3@VPxAllocator@3@$00@3@VPxAllocator@3@$00@physx@@QEAA_NAEBQEAVHairSystemCore@Sc@2@@Z 0000000180039c50 f i SimulationController_static_64:ScScene.obj
 0001:00038c50       ?erase@?$PxHashBase@PEAVInteraction@Sc@physx@@PEAV123@U?$PxHash@PEAVInteraction@Sc@physx@@@3@UGetKey@?$PxHashSetBase@PEAVInteraction@Sc@physx@@U?$PxHash@PEAVInteraction@Sc@physx@@@3@VPxAllocator@3@$00@3@VPxAllocator@3@$00@physx@@QEAA_NAEBQEAVInteraction@Sc@2@@Z 0000000180039c50 f i SimulationController_static_64:ScNPhaseCore.obj
 0001:00038c50       ?erase@?$PxHashBase@PEAVParticleSystemCore@Sc@physx@@PEAV123@U?$PxHash@PEAVParticleSystemCore@Sc@physx@@@3@UGetKey@?$PxHashSetBase@PEAVParticleSystemCore@Sc@physx@@U?$PxHash@PEAVParticleSystemCore@Sc@physx@@@3@VPxAllocator@3@$00@3@VPxAllocator@3@$00@physx@@QEAA_NAEBQEAVParticleSystemCore@Sc@2@@Z 0000000180039c50 f i SimulationController_static_64:ScScene.obj
 0001:00038c50       ?erase@?$PxHashBase@PEAVPxAggregate@physx@@PEAV12@U?$PxHash@PEAVPxAggregate@physx@@@2@UGetKey@?$PxHashSetBase@PEAVPxAggregate@physx@@U?$PxHash@PEAVPxAggregate@physx@@@2@VPxAllocator@2@$00@2@VPxAllocator@2@$00@physx@@QEAA_NAEBQEAVPxAggregate@2@@Z 0000000180039c50 f i NpAggregate.obj
 0001:00038c50       ?erase@?$PxHashBase@PEAVPxArticulationReducedCoordinate@physx@@PEAV12@U?$PxHash@PEAVPxArticulationReducedCoordinate@physx@@@2@UGetKey@?$PxHashSetBase@PEAVPxArticulationReducedCoordinate@physx@@U?$PxHash@PEAVPxArticulationReducedCoordinate@physx@@@2@VPxAllocator@2@$00@2@VPxAllocator@2@$00@physx@@QEAA_NAEBQEAVPxArticulationReducedCoordinate@2@@Z 0000000180039c50 f i NpScene.obj
 0001:00038c50       ?erase@?$PxHashBase@PEAVPxPBDParticleSystem@physx@@PEAV12@U?$PxHash@PEAVPxPBDParticleSystem@physx@@@2@UGetKey@?$PxHashSetBase@PEAVPxPBDParticleSystem@physx@@U?$PxHash@PEAVPxPBDParticleSystem@physx@@@2@VPxAllocator@2@$00@2@VPxAllocator@2@$00@physx@@QEAA_NAEBQEAVPxPBDParticleSystem@2@@Z 0000000180039c50 f i NpParticleSystem.obj
 0001:00038c50       ?erase@?$PxHashBase@PEAVPxShape@physx@@PEAV12@U?$PxHash@PEAVPxShape@physx@@@2@UGetKey@?$PxHashSetBase@PEAVPxShape@physx@@U?$PxHash@PEAVPxShape@physx@@@2@VPxAllocator@2@$00@2@VPxAllocator@2@$00@physx@@QEAA_NAEBQEAVPxShape@2@@Z 0000000180039c50 f i NpFactory.obj
 0001:00038c50       ?erase@?$PxHashBase@PEAVPxSoftBody@physx@@PEAV12@U?$PxHash@PEAVPxSoftBody@physx@@@2@UGetKey@?$PxHashSetBase@PEAVPxSoftBody@physx@@U?$PxHash@PEAVPxSoftBody@physx@@@2@VPxAllocator@2@$00@2@VPxAllocator@2@$00@physx@@QEAA_NAEBQEAVPxSoftBody@2@@Z 0000000180039c50 f i NpSoftBody.obj
 0001:00038c50       ?erase@?$PxHashBase@PEAVSoftBodyCore@Sc@physx@@PEAV123@U?$PxHash@PEAVSoftBodyCore@Sc@physx@@@3@UGetKey@?$PxHashSetBase@PEAVSoftBodyCore@Sc@physx@@U?$PxHash@PEAVSoftBodyCore@Sc@physx@@@3@VPxAllocator@3@$00@3@VPxAllocator@3@$00@physx@@QEAA_NAEBQEAVSoftBodyCore@Sc@2@@Z 0000000180039c50 f i SimulationController_static_64:ScScene.obj
 0001:00038c50       ?erase@?$PxHashBase@PEBVBodySim@Sc@physx@@PEBV123@U?$PxHash@PEBVBodySim@Sc@physx@@@3@UGetKey@?$PxHashSetBase@PEBVBodySim@Sc@physx@@U?$PxHash@PEBVBodySim@Sc@physx@@@3@VPxAllocator@3@$00@3@VPxAllocator@3@$00@physx@@QEAA_NAEBQEBVBodySim@Sc@2@@Z 0000000180039c50 f i SimulationController_static_64:ScScene.obj
 0001:00038dd0       ?exportExtraData@NpAggregate@physx@@UEAAXAEAVPxSerializationContext@2@@Z 0000000180039dd0 f   NpAggregate.obj
 0001:00038e20       ?getActors@NpAggregate@physx@@UEBAIPEAPEAVPxActor@2@II@Z 0000000180039e20 f   NpAggregate.obj
 0001:00038ec0       ?getConcreteTypeName@PxAggregate@physx@@UEBAPEBDXZ 0000000180039ec0 f i NpAggregate.obj
 0001:00038ed0       ?getMaxNbActors@NpAggregate@physx@@UEBAIXZ 0000000180039ed0 f   NpAggregate.obj
 0001:00038f10       ?getMaxNbShapes@NpAggregate@physx@@UEBAIXZ 0000000180039f10 f   NpAggregate.obj
 0001:00038f50       ?getNbActors@NpAggregate@physx@@UEBAIXZ 0000000180039f50 f   NpAggregate.obj
 0001:00038f90       ?getLines@RenderBuffer@Cm@physx@@UEBAPEBUPxDebugLine@3@XZ 0000000180039f90 f   NpScene.obj
 0001:00038f90       ?getScene@?$NpActorTemplate@VPxArticulationLink@physx@@@physx@@UEBAPEAVPxScene@2@XZ 0000000180039f90 f   NpArticulationLink.obj
 0001:00038f90       ?getScene@?$NpActorTemplate@VPxPBDParticleSystem@physx@@@physx@@UEBAPEAVPxScene@2@XZ 0000000180039f90 f   NpParticleSystem.obj
 0001:00038f90       ?getScene@?$NpActorTemplate@VPxRigidDynamic@physx@@@physx@@UEBAPEAVPxScene@2@XZ 0000000180039f90 f   NpRigidDynamic.obj
 0001:00038f90       ?getScene@?$NpActorTemplate@VPxRigidStatic@physx@@@physx@@UEBAPEAVPxScene@2@XZ 0000000180039f90 f   NpRigidStatic.obj
 0001:00038f90       ?getScene@?$NpActorTemplate@VPxSoftBody@physx@@@physx@@UEBAPEAVPxScene@2@XZ 0000000180039f90 f   NpSoftBody.obj
 0001:00038f90       ?getScene@NpAggregate@physx@@UEAAPEAVPxScene@2@XZ 0000000180039f90 f   NpAggregate.obj
 0001:00038f90       ?getScene@NpArticulationReducedCoordinate@physx@@UEBAPEAVPxScene@2@XZ 0000000180039f90 f   NpArticulationReducedCoordinate.obj
 0001:00038f90       ?getScene@NpConstraint@physx@@UEBAPEAVPxScene@2@XZ 0000000180039f90 f   NpConstraint.obj
 0001:00038fa0       ?getSelfCollision@NpAggregate@physx@@UEBA_NXZ 0000000180039fa0 f   NpAggregate.obj
 0001:00038fe0       ?incShapeCount@NpAggregate@physx@@QEAAXXZ 0000000180039fe0 f   NpAggregate.obj
 0001:00039020       ?isKindOf@PxAggregate@physx@@MEBA_NPEBD@Z 000000018003a020 f i NpAggregate.obj
 0001:00039070       ?isKindOf@PxBase@physx@@MEBA_NPEBD@Z 000000018003a070 f i NpAggregate.obj
 0001:000390a0       ?isReleasable@PxBase@physx@@UEBA_NXZ 000000018003a0a0 f i NpAggregate.obj
 0001:000390b0       ?preExportDataReset@NpAggregate@physx@@QEAAXXZ 000000018003a0b0 f   NpAggregate.obj
 0001:000390c0       ?release@NpAggregate@physx@@UEAAXXZ 000000018003a0c0 f   NpAggregate.obj
 0001:000392d0       ?removeActor@NpAggregate@physx@@UEAA_NAEAVPxActor@2@@Z 000000018003a2d0 f   NpAggregate.obj
 0001:000395c0       ?removeActorAndReinsert@NpAggregate@physx@@QEAA_NAEAVPxActor@2@_N@Z 000000018003a5c0 f   NpAggregate.obj
 0001:000396a0       ?removeAndReinsert@NpAggregate@physx@@AEAAXAEAVPxActor@2@_N@Z 000000018003a6a0 f   NpAggregate.obj
 0001:00039760       ?removeArticulation@NpAggregate@physx@@UEAA_NAEAVPxArticulationReducedCoordinate@2@@Z 000000018003a760 f   NpAggregate.obj
 0001:00039980       ?removeArticulationAndReinsert@NpAggregate@physx@@QEAA_NAEAVPxArticulationReducedCoordinate@2@_N@Z 000000018003a980 f   NpAggregate.obj
 0001:00039a70       ?requiresObjects@NpAggregate@physx@@UEAAXAEAVPxProcessPxBaseCallback@2@@Z 000000018003aa70 f   NpAggregate.obj
 0001:00039ae0       ?scAddActor@NpAggregate@physx@@AEAAXAEAVNpActor@2@@Z 000000018003aae0 f   NpAggregate.obj
 0001:00039b50       ?scRemoveActor@NpAggregate@physx@@QEAAXAEAVNpActor@2@_N@Z 000000018003ab50 f   NpAggregate.obj
 0001:00039bd0       ??0NpSoftBody@physx@@QEAA@AEAVPxCudaContextManager@1@@Z 000000018003abd0 f   NpSoftBody.obj
 0001:00039c40       ??_E?$NpActorTemplate@VPxSoftBody@physx@@@physx@@UEAAPEAXI@Z 000000018003ac40 f i NpSoftBody.obj
 0001:00039c40       ??_G?$NpActorTemplate@VPxSoftBody@physx@@@physx@@UEAAPEAXI@Z 000000018003ac40 f i NpSoftBody.obj
 0001:00039cc0       ??_ENpSoftBody@physx@@UEAAPEAXI@Z 000000018003acc0 f i NpSoftBody.obj
 0001:00039cc0       ??_GNpSoftBody@physx@@UEAAPEAXI@Z 000000018003acc0 f i NpSoftBody.obj
 0001:00039d50       ??_EPxArticulationLink@physx@@MEAAPEAXI@Z 000000018003ad50 f i NpArticulationLink.obj
 0001:00039d50       ??_EPxPBDParticleSystem@physx@@UEAAPEAXI@Z 000000018003ad50 f i NpParticleSystem.obj
 0001:00039d50       ??_EPxRigidDynamic@physx@@MEAAPEAXI@Z 000000018003ad50 f i NpRigidDynamic.obj
 0001:00039d50       ??_EPxRigidStatic@physx@@MEAAPEAXI@Z 000000018003ad50 f i NpRigidStatic.obj
 0001:00039d50       ??_EPxSoftBody@physx@@UEAAPEAXI@Z 000000018003ad50 f i NpSoftBody.obj
 0001:00039d50       ??_GPxArticulationLink@physx@@MEAAPEAXI@Z 000000018003ad50 f i NpArticulationLink.obj
 0001:00039d50       ??_GPxPBDParticleSystem@physx@@UEAAPEAXI@Z 000000018003ad50 f i NpParticleSystem.obj
 0001:00039d50       ??_GPxRigidDynamic@physx@@MEAAPEAXI@Z 000000018003ad50 f i NpRigidDynamic.obj
 0001:00039d50       ??_GPxRigidStatic@physx@@MEAAPEAXI@Z 000000018003ad50 f i NpRigidStatic.obj
 0001:00039d50       ??_GPxSoftBody@physx@@UEAAPEAXI@Z 000000018003ad50 f i NpSoftBody.obj
 0001:00039d80       ?addClothAttachment@NpSoftBody@physx@@UEAAIPEAVPxFEMCloth@2@IAEBV?$PxVec4T@M@2@I1PEAUPxConeLimitedConstraint@2@M@Z 000000018003ad80 f   NpSoftBody.obj
 0001:00039d80       ?addClothAttachment@PxsSimulationController@physx@@UEAAIPEAVSoftBody@Dy@2@PEAVFEMCloth@42@IAEBV?$PxVec4T@M@2@I2PEAUPxConeLimitedConstraint@2@M_N@Z 000000018003ad80 f   SimulationController_static_64:ScScene.obj
 0001:00039d80       ?addParticleAttachment@PxsSimulationController@physx@@UEAAIPEAVSoftBody@Dy@2@PEBVParticleSystem@42@IIIAEBV?$PxVec4T@M@2@_N@Z 000000018003ad80 f   SimulationController_static_64:ScScene.obj
 0001:00039d80       ?addRigidAttachment@PxsSimulationController@physx@@UEAAIPEAVFEMCloth@Dy@2@AEBVPxNodeIndex@2@PEAVPxsRigidBody@2@1IAEBV?$PxVec3T@M@2@PEAUPxConeLimitedConstraint@2@_N@Z 000000018003ad80 f   SimulationController_static_64:ScScene.obj
 0001:00039d80       ?addRigidAttachment@PxsSimulationController@physx@@UEAAIPEAVSoftBody@Dy@2@AEBVPxNodeIndex@2@PEAVPxsRigidBody@2@1IAEBV?$PxVec3T@M@2@PEAUPxConeLimitedConstraint@2@_N@Z 000000018003ad80 f   SimulationController_static_64:ScScene.obj
 0001:00039d80       ?addSoftBodyAttachment@PxsSimulationController@physx@@UEAAIPEAVSoftBody@Dy@2@0IIAEBV?$PxVec4T@M@2@1PEAUPxConeLimitedConstraint@2@M_N@Z 000000018003ad80 f   SimulationController_static_64:ScScene.obj
 0001:00039d80       ?addTetRigidAttachment@PxsSimulationController@physx@@UEAAIPEAVSoftBody@Dy@2@PEAVPxsRigidBody@2@AEBVPxNodeIndex@2@IAEBV?$PxVec4T@M@2@AEBV?$PxVec3T@M@2@PEAUPxConeLimitedConstraint@2@_N@Z 000000018003ad80 f   SimulationController_static_64:ScScene.obj
 0001:00039d80       ?addTriClothAttachment@PxsSimulationController@physx@@UEAAIPEAVFEMCloth@Dy@2@0IIAEBV?$PxVec4T@M@2@1_N@Z 000000018003ad80 f   SimulationController_static_64:ScScene.obj
 0001:00039d80       ?addTriRigidAttachment@PxsSimulationController@physx@@UEAAIPEAVFEMCloth@Dy@2@PEAVPxsRigidBody@2@AEBVPxNodeIndex@2@IAEBV?$PxVec4T@M@2@AEBV?$PxVec3T@M@2@PEAUPxConeLimitedConstraint@2@_N@Z 000000018003ad80 f   SimulationController_static_64:ScScene.obj
 0001:00039d80       ?createFEMCloth@NpPhysics@physx@@UEAAPEAVPxFEMCloth@2@AEAVPxCudaContextManager@2@@Z 000000018003ad80 f   NpPhysics.obj
 0001:00039d80       ?createFEMClothMaterial@NpPhysics@physx@@UEAAPEAVPxFEMClothMaterial@2@MMM@Z 000000018003ad80 f   NpPhysics.obj
 0001:00039d80       ?createFLIPMaterial@NpPhysics@physx@@UEAAPEAVPxFLIPMaterial@2@MMMMM@Z 000000018003ad80 f   NpPhysics.obj
 0001:00039d80       ?createFLIPParticleSystem@NpPhysics@physx@@UEAAPEAVPxFLIPParticleSystem@2@AEAVPxCudaContextManager@2@@Z 000000018003ad80 f   NpPhysics.obj
 0001:00039d80       ?createHairSystem@NpPhysics@physx@@UEAAPEAVPxHairSystem@2@AEAVPxCudaContextManager@2@@Z 000000018003ad80 f   NpPhysics.obj
 0001:00039d80       ?createMPMMaterial@NpPhysics@physx@@UEAAPEAVPxMPMMaterial@2@MMM_NMMMMMMMMM@Z 000000018003ad80 f   NpPhysics.obj
 0001:00039d80       ?createMPMParticleSystem@NpPhysics@physx@@UEAAPEAVPxMPMParticleSystem@2@AEAVPxCudaContextManager@2@@Z 000000018003ad80 f   NpPhysics.obj
 0001:00039d80       ?createShape@NpPhysics@physx@@UEAAPEAVPxShape@2@AEBVPxGeometry@2@PEBQEAVPxFEMClothMaterial@2@G_NV?$PxFlags@W4Enum@PxShapeFlag@physx@@E@2@@Z 000000018003ad80 f   NpPhysics.obj
 0001:00039d80       ?getActivatedFEMCloths@PxsSimulationController@physx@@UEBAPEAPEAVFEMCloth@Dy@2@XZ 000000018003ad80 f   SimulationController_static_64:ScScene.obj
 0001:00039d80       ?getActivatedHairSystems@PxsSimulationController@physx@@UEBAPEAPEAVHairSystem@Dy@2@XZ 000000018003ad80 f   SimulationController_static_64:ScScene.obj
 0001:00039d80       ?getActivatedSoftbodies@PxsSimulationController@physx@@UEBAPEAPEAVSoftBody@Dy@2@XZ 000000018003ad80 f   SimulationController_static_64:ScScene.obj
 0001:00039d80       ?getActiveBodies@PxsSimulationController@physx@@UEAAPEAIXZ 000000018003ad80 f   SimulationController_static_64:ScScene.obj
 0001:00039d80       ?getClothMaterials@NpShape@physx@@UEBAIPEAPEAVPxFEMClothMaterial@2@II@Z 000000018003ad80 f   NpShape.obj
 0001:00039d80       ?getDeactivatedFEMCloths@PxsSimulationController@physx@@UEBAPEAPEAVFEMCloth@Dy@2@XZ 000000018003ad80 f   SimulationController_static_64:ScScene.obj
 0001:00039d80       ?getDeactivatedHairSystems@PxsSimulationController@physx@@UEBAPEAPEAVHairSystem@Dy@2@XZ 000000018003ad80 f   SimulationController_static_64:ScScene.obj
 0001:00039d80       ?getDeactivatedSoftbodies@PxsSimulationController@physx@@UEBAPEAPEAVSoftBody@Dy@2@XZ 000000018003ad80 f   SimulationController_static_64:ScScene.obj
 0001:00039d80       ?getDeactiveBodies@PxsSimulationController@physx@@UEAAPEAIXZ 000000018003ad80 f   SimulationController_static_64:ScScene.obj
 0001:00039d80       ?getFEMClothMaterials@NpPhysics@physx@@UEBAIPEAPEAVPxFEMClothMaterial@2@II@Z 000000018003ad80 f   NpPhysics.obj
 0001:00039d80       ?getFEMCloths@NpScene@physx@@UEBAIPEAPEAVPxFEMCloth@2@II@Z 000000018003ad80 f   NpScene.obj
 0001:00039d80       ?getFLIPMaterials@NpPhysics@physx@@UEBAIPEAPEAVPxFLIPMaterial@2@II@Z 000000018003ad80 f   NpPhysics.obj
 0001:00039d80       ?getFrozenShapes@PxsSimulationController@physx@@UEAAPEAIXZ 000000018003ad80 f   SimulationController_static_64:ScScene.obj
 0001:00039d80       ?getGPUContactManagerOutputBase@PxsNphaseImplementationContext@physx@@UEAAPEAUPxsContactManagerOutput@2@XZ 000000018003ad80 f   LowLevel_static_64:PxsNphaseImplementationContext.obj
 0001:00039d80       ?getGPURestDistances@PxsNphaseImplementationContext@physx@@UEAAPEAMXZ 000000018003ad80 f   LowLevel_static_64:PxsNphaseImplementationContext.obj
 0001:00039d80       ?getGPUShapeInteractions@PxsNphaseImplementationContext@physx@@UEAAPEAPEAVShapeInteraction@Sc@2@XZ 000000018003ad80 f   LowLevel_static_64:PxsNphaseImplementationContext.obj
 0001:00039d80       ?getGPUTorsionalData@PxsNphaseImplementationContext@physx@@UEAAPEAUPxsTorsionalFrictionData@2@XZ 000000018003ad80 f   LowLevel_static_64:PxsNphaseImplementationContext.obj
 0001:00039d80       ?getHairSystemWakeCounters@PxsSimulationController@physx@@UEBAPEBMXZ 000000018003ad80 f   SimulationController_static_64:ScScene.obj
 0001:00039d80       ?getHairSystems@NpScene@physx@@UEBAIPEAPEAVPxHairSystem@2@II@Z 000000018003ad80 f   NpScene.obj
 0001:00039d80       ?getMPMDataPointer@PxsSimulationController@physx@@UEAAPEAXAEBVParticleSystem@Dy@2@W4Enum@PxMPMParticleDataFlag@@@Z 000000018003ad80 f   SimulationController_static_64:ScScene.obj
 0001:00039d80       ?getMPMMaterials@NpPhysics@physx@@UEBAIPEAPEAVPxMPMMaterial@2@II@Z 000000018003ad80 f   NpPhysics.obj
 0001:00039d80       ?getNbActivatedFEMCloth@PxsSimulationController@physx@@UEBAIXZ 000000018003ad80 f   SimulationController_static_64:ScScene.obj
 0001:00039d80       ?getNbActivatedHairSystems@PxsSimulationController@physx@@UEBAIXZ 000000018003ad80 f   SimulationController_static_64:ScScene.obj
 0001:00039d80       ?getNbActivatedSoftbodies@PxsSimulationController@physx@@UEBAIXZ 000000018003ad80 f   SimulationController_static_64:ScScene.obj
 0001:00039d80       ?getNbBodies@PxsSimulationController@physx@@UEAAIXZ 000000018003ad80 f   SimulationController_static_64:ScScene.obj
 0001:00039d80       ?getNbDeactivatedFEMCloth@PxsSimulationController@physx@@UEBAIXZ 000000018003ad80 f   SimulationController_static_64:ScScene.obj
 0001:00039d80       ?getNbDeactivatedHairSystems@PxsSimulationController@physx@@UEBAIXZ 000000018003ad80 f   SimulationController_static_64:ScScene.obj
 0001:00039d80       ?getNbDeactivatedSoftbodies@PxsSimulationController@physx@@UEBAIXZ 000000018003ad80 f   SimulationController_static_64:ScScene.obj
 0001:00039d80       ?getNbFEMClothMaterials@NpPhysics@physx@@UEBAIXZ 000000018003ad80 f   NpPhysics.obj
 0001:00039d80       ?getNbFEMCloths@NpScene@physx@@UEBAIXZ 000000018003ad80 f   NpScene.obj
 0001:00039d80       ?getNbFLIPMaterials@NpPhysics@physx@@UEBAIXZ 000000018003ad80 f   NpPhysics.obj
 0001:00039d80       ?getNbFrozenShapes@PxsSimulationController@physx@@UEAAIXZ 000000018003ad80 f   SimulationController_static_64:ScScene.obj
 0001:00039d80       ?getNbHairSystems@NpScene@physx@@UEBAIXZ 000000018003ad80 f   NpScene.obj
 0001:00039d80       ?getNbMPMMaterials@NpPhysics@physx@@UEBAIXZ 000000018003ad80 f   NpPhysics.obj
 0001:00039d80       ?getNbOutOfBoundsObjects@BroadPhaseBase@Bp@physx@@UEBAIXZ 000000018003ad80 f   LowLevelAABB_static_64:BpBroadPhaseSap.obj
 0001:00039d80       ?getNbRegions@BroadPhaseBase@Bp@physx@@UEBAIXZ 000000018003ad80 f   LowLevelAABB_static_64:BpBroadPhaseSap.obj
 0001:00039d80       ?getNbShapes@PxsSimulationController@physx@@UEAAIXZ 000000018003ad80 f   SimulationController_static_64:ScScene.obj
 0001:00039d80       ?getNbUnfrozenShapes@PxsSimulationController@physx@@UEAAIXZ 000000018003ad80 f   SimulationController_static_64:ScScene.obj
 0001:00039d80       ?getNumCountedInteractions@ActorSim@Sc@physx@@UEBAIXZ 000000018003ad80 f   SimulationController_static_64:ScScene.obj
 0001:00039d80       ?getOutOfBoundsObjects@BroadPhaseBase@Bp@physx@@UEBAPEBIXZ 000000018003ad80 f   LowLevelAABB_static_64:BpBroadPhaseSap.obj
 0001:00039d80       ?getRegions@BroadPhaseBase@Bp@physx@@UEBAIPEAUPxBroadPhaseRegionInfo@3@II@Z 000000018003ad80 f   LowLevelAABB_static_64:BpBroadPhaseSap.obj
 0001:00039d80       ?getRigidBodies@PxsSimulationController@physx@@UEAAPEAPEAXXZ 000000018003ad80 f   SimulationController_static_64:ScScene.obj
 0001:00039d80       ?getShapeSims@PxsSimulationController@physx@@UEAAPEAPEAUPxsShapeSim@2@XZ 000000018003ad80 f   SimulationController_static_64:ScScene.obj
 0001:00039d80       ?getSoftBodyWakeCounters@PxsSimulationController@physx@@UEBAPEBMXZ 000000018003ad80 f   SimulationController_static_64:ScScene.obj
 0001:00039d80       ?getSolverType@DynamicsContext@Dy@physx@@UEBA?AW4Enum@PxSolverType@3@XZ 000000018003ad80 f   LowLevelDynamics_static_64:DyDynamics.obj
 0001:00039d80       ?getSparseGridDataPointer@PxsSimulationController@physx@@UEAAPEAXAEBVParticleSystem@Dy@2@W4Enum@PxSparseGridDataFlag@@W45PxParticleSolverType@2@@Z 000000018003ad80 f   SimulationController_static_64:ScScene.obj
 0001:00039d80       ?getType@BroadPhaseSap@Bp@physx@@UEBA?AW4Enum@PxBroadPhaseType@3@XZ 000000018003ad80 f   LowLevelAABB_static_64:BpBroadPhaseSap.obj
 0001:00039d80       ?getType@NpRigidStatic@physx@@UEBA?AW4Enum@PxActorType@2@XZ 000000018003ad80 f   NpRigidStatic.obj
 0001:00039d80       ?getUnfrozenShapes@PxsSimulationController@physx@@UEAAPEAIXZ 000000018003ad80 f   SimulationController_static_64:ScScene.obj
 0001:00039d80       PxGetBroadPhaseStaticFilterGroup 000000018003ad80 f   NpImmediateMode.obj
 0001:00039d90       ?addParticleAttachment@NpSoftBody@physx@@UEAAIPEAVPxPBDParticleSystem@2@PEBVPxParticleBuffer@2@IIAEBV?$PxVec4T@M@2@@Z 000000018003ad90 f   NpSoftBody.obj
 0001:00039ec0       ?addParticleFilter@NpSoftBody@physx@@UEAAXPEAVPxPBDParticleSystem@2@PEBVPxParticleBuffer@2@II@Z 000000018003aec0 f   NpSoftBody.obj
 0001:00039ff0       ?addRigidAttachment@NpSoftBody@physx@@UEAAIPEAVPxRigidActor@2@IAEBV?$PxVec3T@M@2@PEAUPxConeLimitedConstraint@2@@Z 000000018003aff0 f   NpSoftBody.obj
 0001:0003a330       ?addRigidFilter@NpSoftBody@physx@@UEAAXPEAVPxRigidActor@2@I@Z 000000018003b330 f   NpSoftBody.obj
 0001:0003a430       ?addSoftBodyAttachment@NpSoftBody@physx@@UEAAIPEAVPxSoftBody@2@IAEBV?$PxVec4T@M@2@I1PEAUPxConeLimitedConstraint@2@M@Z 000000018003b430 f   NpSoftBody.obj
 0001:0003a5c0       ?addSoftBodyFilter@NpSoftBody@physx@@UEAAXPEAVPxSoftBody@2@II@Z 000000018003b5c0 f   NpSoftBody.obj
 0001:0003a6e0       ?addSoftBodyFilters@NpSoftBody@physx@@UEAAXPEAVPxSoftBody@2@PEAI1I@Z 000000018003b6e0 f   NpSoftBody.obj
 0001:0003a800       ?addTetRigidAttachment@NpSoftBody@physx@@UEAAIPEAVPxRigidActor@2@IAEBV?$PxVec4T@M@2@AEBV?$PxVec3T@M@2@PEAUPxConeLimitedConstraint@2@@Z 000000018003b800 f   NpSoftBody.obj
 0001:0003ab50       ?addTetRigidFilter@NpSoftBody@physx@@UEAAXPEAVPxRigidActor@2@I@Z 000000018003bb50 f   NpSoftBody.obj
 0001:0003ac50       ?attachShape@NpSoftBody@physx@@UEAA_NAEAVPxShape@2@@Z 000000018003bc50 f   NpSoftBody.obj
 0001:0003aed0       ?attachSimulationMesh@NpSoftBody@physx@@UEAA_NAEAVPxTetrahedronMesh@2@AEAVPxSoftBodyAuxData@2@@Z 000000018003bed0 f   NpSoftBody.obj
 0001:0003afb0       ?detachShape@NpSoftBody@physx@@UEAAXXZ 000000018003bfb0 f   NpSoftBody.obj
 0001:0003b070       ?detachSimulationMesh@NpSoftBody@physx@@UEAAXXZ 000000018003c070 f   NpSoftBody.obj
 0001:0003b0f0       ?exportExtraData@?$NpActorTemplate@VPxArticulationLink@physx@@@physx@@UEAAXAEAVPxSerializationContext@2@@Z 000000018003c0f0 f i NpArticulationLink.obj
 0001:0003b0f0       ?exportExtraData@?$NpActorTemplate@VPxPBDParticleSystem@physx@@@physx@@UEAAXAEAVPxSerializationContext@2@@Z 000000018003c0f0 f i NpParticleSystem.obj
 0001:0003b0f0       ?exportExtraData@?$NpActorTemplate@VPxRigidDynamic@physx@@@physx@@UEAAXAEAVPxSerializationContext@2@@Z 000000018003c0f0 f i NpRigidDynamic.obj
 0001:0003b0f0       ?exportExtraData@?$NpActorTemplate@VPxRigidStatic@physx@@@physx@@UEAAXAEAVPxSerializationContext@2@@Z 000000018003c0f0 f i NpRigidStatic.obj
 0001:0003b0f0       ?exportExtraData@?$NpActorTemplate@VPxSoftBody@physx@@@physx@@UEAAXAEAVPxSerializationContext@2@@Z 000000018003c0f0 f i NpSoftBody.obj
 0001:0003b100       ?getActorFlags@?$NpActorTemplate@VPxSoftBody@physx@@@physx@@UEBA?AV?$PxFlags@W4Enum@PxActorFlag@physx@@E@2@XZ 000000018003c100 f i NpSoftBody.obj
 0001:0003b160       ?getAggregate@?$NpActorTemplate@VPxArticulationLink@physx@@@physx@@UEBAPEAVPxAggregate@2@XZ 000000018003c160 f i NpArticulationLink.obj
 0001:0003b160       ?getAggregate@?$NpActorTemplate@VPxPBDParticleSystem@physx@@@physx@@UEBAPEAVPxAggregate@2@XZ 000000018003c160 f i NpParticleSystem.obj
 0001:0003b160       ?getAggregate@?$NpActorTemplate@VPxRigidDynamic@physx@@@physx@@UEBAPEAVPxAggregate@2@XZ 000000018003c160 f i NpRigidDynamic.obj
 0001:0003b160       ?getAggregate@?$NpActorTemplate@VPxRigidStatic@physx@@@physx@@UEBAPEAVPxAggregate@2@XZ 000000018003c160 f i NpRigidStatic.obj
 0001:0003b160       ?getAggregate@?$NpActorTemplate@VPxSoftBody@physx@@@physx@@UEBAPEAVPxAggregate@2@XZ 000000018003c160 f i NpSoftBody.obj
 0001:0003b170       ?getCollisionMesh@NpSoftBody@physx@@UEAAPEAVPxTetrahedronMesh@2@XZ 000000018003c170 f   NpSoftBody.obj
 0001:0003b170       ?getCollisionMesh@NpSoftBody@physx@@UEBAPEBVPxTetrahedronMesh@2@XZ 000000018003c170 f   NpSoftBody.obj
 0001:0003b190       ?getConcreteTypeName@PxSoftBody@physx@@UEBAPEBDXZ 000000018003c190 f i NpSoftBody.obj
 0001:0003b1a0       ?getDominanceGroup@?$NpActorTemplate@VPxSoftBody@physx@@@physx@@UEBAEXZ 000000018003c1a0 f i NpSoftBody.obj
 0001:0003b1f0       ?getGpuSoftBodyIndex@NpSoftBody@physx@@UEAAIXZ 000000018003c1f0 f   NpSoftBody.obj
 0001:0003b280       ?getName@?$NpActorTemplate@VPxSoftBody@physx@@@physx@@UEBAPEBDXZ 000000018003c280 f i NpSoftBody.obj
 0001:0003b2c0       ?getName@NpSoftBody@physx@@UEBAPEBDXZ 000000018003c2c0 f   NpSoftBody.obj
 0001:0003b300       ?getOwnerClient@?$NpActorTemplate@VPxArticulationLink@physx@@@physx@@UEBAEXZ 000000018003c300 f i NpArticulationLink.obj
 0001:0003b300       ?getOwnerClient@?$NpActorTemplate@VPxPBDParticleSystem@physx@@@physx@@UEBAEXZ 000000018003c300 f i NpParticleSystem.obj
 0001:0003b300       ?getOwnerClient@?$NpActorTemplate@VPxRigidDynamic@physx@@@physx@@UEBAEXZ 000000018003c300 f i NpRigidDynamic.obj
 0001:0003b300       ?getOwnerClient@?$NpActorTemplate@VPxRigidStatic@physx@@@physx@@UEBAEXZ 000000018003c300 f i NpRigidStatic.obj
 0001:0003b300       ?getOwnerClient@?$NpActorTemplate@VPxSoftBody@physx@@@physx@@UEBAEXZ 000000018003c300 f i NpSoftBody.obj
 0001:0003b320       ?getParameter@NpSoftBody@physx@@UEBA?AUPxFEMParameters@2@XZ 000000018003c320 f   NpSoftBody.obj
 0001:0003b370       ?getPositionInvMassBufferD@NpSoftBody@physx@@UEAAPEAV?$PxVec4T@M@2@XZ 000000018003c370 f   NpSoftBody.obj
 0001:0003b3c0       ?getRestPositionBufferD@NpSoftBody@physx@@UEAAPEAV?$PxVec4T@M@2@XZ 000000018003c3c0 f   NpSoftBody.obj
 0001:0003b410       ?getSimPositionInvMassBufferD@NpSoftBody@physx@@UEAAPEAV?$PxVec4T@M@2@XZ 000000018003c410 f   NpSoftBody.obj
 0001:0003b460       ?getSimVelocityBufferD@NpSoftBody@physx@@UEAAPEAV?$PxVec4T@M@2@XZ 000000018003c460 f   NpSoftBody.obj
 0001:0003b4b0       ?getSoftBodyFlag@NpSoftBody@physx@@UEBA?AV?$PxFlags@W4Enum@PxSoftBodyFlag@physx@@I@2@XZ 000000018003c4b0 f   NpSoftBody.obj
 0001:0003b4c0       ?getSolverIterationCounts@NpSoftBody@physx@@UEBAXAEAI0@Z 000000018003c4c0 f   NpSoftBody.obj
 0001:0003b520       ?getType@NpSoftBody@physx@@UEBA?AW4Enum@PxActorType@2@XZ 000000018003c520 f i NpSoftBody.obj
 0001:0003b530       ?getWakeCounter@NpSoftBody@physx@@UEBAMXZ 000000018003c530 f   NpSoftBody.obj
 0001:0003b580       ?getWorldBounds@NpSoftBody@physx@@UEBA?AVPxBounds3@2@M@Z 000000018003c580 f   NpSoftBody.obj
 0001:0003b7a0       ?growAndPushBack@?$PxArray@GV?$PxReflectionAllocator@G@physx@@@physx@@IEAAAEAGAEBG@Z 000000018003c7a0 f i NpSoftBody.obj
 0001:0003b8d0       ?importExtraData@?$NpActorTemplate@VPxArticulationLink@physx@@@physx@@UEAAXAEAVPxDeserializationContext@2@@Z 000000018003c8d0 f i NpArticulationLink.obj
 0001:0003b8d0       ?importExtraData@?$NpActorTemplate@VPxPBDParticleSystem@physx@@@physx@@UEAAXAEAVPxDeserializationContext@2@@Z 000000018003c8d0 f i NpParticleSystem.obj
 0001:0003b8d0       ?importExtraData@?$NpActorTemplate@VPxRigidDynamic@physx@@@physx@@UEAAXAEAVPxDeserializationContext@2@@Z 000000018003c8d0 f i NpRigidDynamic.obj
 0001:0003b8d0       ?importExtraData@?$NpActorTemplate@VPxRigidStatic@physx@@@physx@@UEAAXAEAVPxDeserializationContext@2@@Z 000000018003c8d0 f i NpRigidStatic.obj
 0001:0003b8d0       ?importExtraData@?$NpActorTemplate@VPxSoftBody@physx@@@physx@@UEAAXAEAVPxDeserializationContext@2@@Z 000000018003c8d0 f i NpSoftBody.obj
 0001:0003b8e0       ?isKindOf@PxSoftBody@physx@@MEBA_NPEBD@Z 000000018003c8e0 f i NpSoftBody.obj
 0001:0003b970       ?isSleeping@NpSoftBody@physx@@UEBA_NXZ 000000018003c970 f   NpSoftBody.obj
 0001:0003b9b0       ?isValid@PxConeLimitedConstraint@physx@@QEBA_NXZ 000000018003c9b0 f i NpSoftBody.obj
 0001:0003bab0       ?markDirty@NpSoftBody@physx@@UEAAXV?$PxFlags@W4Enum@PxSoftBodyDataFlag@physx@@I@2@@Z 000000018003cab0 f   NpSoftBody.obj
 0001:0003bb00       ?release@NpSoftBody@physx@@UEAAXXZ 000000018003cb00 f   NpSoftBody.obj
 0001:0003bb90       ?removeParticleAttachment@NpSoftBody@physx@@UEAAXPEAVPxPBDParticleSystem@2@I@Z 000000018003cb90 f   NpSoftBody.obj
 0001:0003bc90       ?removeParticleFilter@NpSoftBody@physx@@UEAAXPEAVPxPBDParticleSystem@2@PEBVPxParticleBuffer@2@II@Z 000000018003cc90 f   NpSoftBody.obj
 0001:0003bdc0       ?removeRigidAttachment@NpSoftBody@physx@@UEAAXPEAVPxRigidActor@2@I@Z 000000018003cdc0 f   NpSoftBody.obj
 0001:0003bec0       ?removeRigidFilter@NpSoftBody@physx@@UEAAXPEAVPxRigidActor@2@I@Z 000000018003cec0 f   NpSoftBody.obj
 0001:0003bfc0       ?removeSoftBodyAttachment@NpSoftBody@physx@@UEAAXPEAVPxSoftBody@2@I@Z 000000018003cfc0 f   NpSoftBody.obj
 0001:0003c0d0       ?removeSoftBodyFilter@NpSoftBody@physx@@UEAAXPEAVPxSoftBody@2@II@Z 000000018003d0d0 f   NpSoftBody.obj
 0001:0003c1f0       ?removeSoftBodyFilters@NpSoftBody@physx@@UEAAXPEAVPxSoftBody@2@PEAI1I@Z 000000018003d1f0 f   NpSoftBody.obj
 0001:0003c310       ?removeTetRigidFilter@NpSoftBody@physx@@UEAAXPEAVPxRigidActor@2@I@Z 000000018003d310 f   NpSoftBody.obj
 0001:0003c410       ?resolveReferences@?$NpActorTemplate@VPxArticulationLink@physx@@@physx@@UEAAXAEAVPxDeserializationContext@2@@Z 000000018003d410 f i NpArticulationLink.obj
 0001:0003c410       ?resolveReferences@?$NpActorTemplate@VPxPBDParticleSystem@physx@@@physx@@UEAAXAEAVPxDeserializationContext@2@@Z 000000018003d410 f i NpParticleSystem.obj
 0001:0003c410       ?resolveReferences@?$NpActorTemplate@VPxRigidDynamic@physx@@@physx@@UEAAXAEAVPxDeserializationContext@2@@Z 000000018003d410 f i NpRigidDynamic.obj
 0001:0003c410       ?resolveReferences@?$NpActorTemplate@VPxRigidStatic@physx@@@physx@@UEAAXAEAVPxDeserializationContext@2@@Z 000000018003d410 f i NpRigidStatic.obj
 0001:0003c410       ?resolveReferences@?$NpActorTemplate@VPxSoftBody@physx@@@physx@@UEAAXAEAVPxDeserializationContext@2@@Z 000000018003d410 f i NpSoftBody.obj
 0001:0003c420       ?scSetActorFlags@NpActor@physx@@QEAAXV?$PxFlags@W4Enum@PxActorFlag@physx@@E@2@@Z 000000018003d420 f i NpSoftBody.obj
 0001:0003c4e0       ?setActorFlag@?$NpActorTemplate@VPxSoftBody@physx@@@physx@@UEAAXW4Enum@PxActorFlag@2@_N@Z 000000018003d4e0 f i NpSoftBody.obj
 0001:0003c5c0       ?setActorFlags@?$NpActorTemplate@VPxSoftBody@physx@@@physx@@UEAAXV?$PxFlags@W4Enum@PxActorFlag@physx@@E@2@@Z 000000018003d5c0 f i NpSoftBody.obj
 0001:0003c660       ?setDominanceGroup@?$NpActorTemplate@VPxSoftBody@physx@@@physx@@UEAAXE@Z 000000018003d660 f i NpSoftBody.obj
 0001:0003c700       ?setKinematicTargetBufferD@NpSoftBody@physx@@UEAAXPEBV?$PxVec4T@M@2@V?$PxFlags@W4Enum@PxSoftBodyFlag@physx@@I@2@@Z 000000018003d700 f   NpSoftBody.obj
 0001:0003c7e0       ?setName@?$NpActorTemplate@VPxSoftBody@physx@@@physx@@UEAAXPEBD@Z 000000018003d7e0 f i NpSoftBody.obj
 0001:0003c8b0       ?setName@NpSoftBody@physx@@UEAAXPEBD@Z 000000018003d8b0 f   NpSoftBody.obj
 0001:0003c900       ?setOwnerClient@?$NpActorTemplate@VPxArticulationLink@physx@@@physx@@UEAAXE@Z 000000018003d900 f i NpArticulationLink.obj
 0001:0003c900       ?setOwnerClient@?$NpActorTemplate@VPxPBDParticleSystem@physx@@@physx@@UEAAXE@Z 000000018003d900 f i NpParticleSystem.obj
 0001:0003c900       ?setOwnerClient@?$NpActorTemplate@VPxRigidDynamic@physx@@@physx@@UEAAXE@Z 000000018003d900 f i NpRigidDynamic.obj
 0001:0003c900       ?setOwnerClient@?$NpActorTemplate@VPxRigidStatic@physx@@@physx@@UEAAXE@Z 000000018003d900 f i NpRigidStatic.obj
 0001:0003c900       ?setOwnerClient@?$NpActorTemplate@VPxSoftBody@physx@@@physx@@UEAAXE@Z 000000018003d900 f i NpSoftBody.obj
 0001:0003c950       ?setParameter@NpSoftBody@physx@@UEAAXUPxFEMParameters@2@@Z 000000018003d950 f   NpSoftBody.obj
 0001:0003ca20       ?setSoftBodyFlag@NpSoftBody@physx@@UEAAXW4Enum@PxSoftBodyFlag@2@_N@Z 000000018003da20 f   NpSoftBody.obj
 0001:0003ca50       ?setSoftBodyFlags@NpSoftBody@physx@@UEAAXV?$PxFlags@W4Enum@PxSoftBodyFlag@physx@@I@2@@Z 000000018003da50 f   NpSoftBody.obj
 0001:0003ca70       ?setSolverIterationCounts@NpSoftBody@physx@@UEAAXII@Z 000000018003da70 f   NpSoftBody.obj
 0001:0003cb90       ?setWakeCounter@NpSoftBody@physx@@UEAAXM@Z 000000018003db90 f   NpSoftBody.obj
 0001:0003cc30       ?updateMaterials@NpSoftBody@physx@@QEAAXXZ 000000018003dc30 f   NpSoftBody.obj
 0001:0003cce0       ??$PxSort@UPxParticleCloth@physx@@U?$PxLess@UPxParticleCloth@physx@@@2@V?$PxReflectionAllocator@UPxParticleCloth@physx@@@2@@physx@@YAXPEAUPxParticleCloth@0@IAEBU?$PxLess@UPxParticleCloth@physx@@@0@AEBV?$PxReflectionAllocator@UPxParticleCloth@physx@@@0@I@Z 000000018003dce0 f i NpParticleSystem.obj
 0001:0003d290       ??0NpPBDParticleSystem@physx@@QEAA@IAEAVPxCudaContextManager@1@@Z 000000018003e290 f   NpParticleSystem.obj
 0001:0003d390       ??0PxPartitionedParticleCloth@physx@@QEAA@XZ 000000018003e390 f   NpParticleSystem.obj
 0001:0003d3b0       ??1PxPartitionedParticleCloth@physx@@QEAA@XZ 000000018003e3b0 f   NpParticleSystem.obj
 0001:0003d480       ??_E?$NpActorTemplate@VPxPBDParticleSystem@physx@@@physx@@UEAAPEAXI@Z 000000018003e480 f i NpParticleSystem.obj
 0001:0003d480       ??_G?$NpActorTemplate@VPxPBDParticleSystem@physx@@@physx@@UEAAPEAXI@Z 000000018003e480 f i NpParticleSystem.obj
 0001:0003d500       ??_E?$NpParticleSystem@VPxPBDParticleSystem@physx@@@physx@@UEAAPEAXI@Z 000000018003e500 f i NpParticleSystem.obj
 0001:0003d500       ??_ENpPBDParticleSystem@physx@@UEAAPEAXI@Z 000000018003e500 f i NpParticleSystem.obj
 0001:0003d500       ??_G?$NpParticleSystem@VPxPBDParticleSystem@physx@@@physx@@UEAAPEAXI@Z 000000018003e500 f i NpParticleSystem.obj
 0001:0003d500       ??_GNpPBDParticleSystem@physx@@UEAAPEAXI@Z 000000018003e500 f i NpParticleSystem.obj
 0001:0003d590       ??_ENpParticleClothPreProcessor@physx@@UEAAPEAXI@Z 000000018003e590 f i NpParticleSystem.obj
 0001:0003d590       ??_GNpParticleClothPreProcessor@physx@@UEAAPEAXI@Z 000000018003e590 f i NpParticleSystem.obj
 0001:0003d5e0       ??_EPxConstraintAllocator@physx@@UEAAPEAXI@Z 000000018003e5e0 f i LowLevelDynamics_static_64:DyFeatherstoneArticulation.obj
 0001:0003d5e0       ??_EPxParticleClothPreProcessor@physx@@MEAAPEAXI@Z 000000018003e5e0 f i NpParticleSystem.obj
 0001:0003d5e0       ??_GPxConstraintAllocator@physx@@UEAAPEAXI@Z 000000018003e5e0 f i LowLevelDynamics_static_64:DyFeatherstoneArticulation.obj
 0001:0003d5e0       ??_GPxParticleClothPreProcessor@physx@@MEAAPEAXI@Z 000000018003e5e0 f i NpParticleSystem.obj
 0001:0003d610       ?addParticleBuffer@NpPBDParticleSystem@physx@@UEAAXPEAVPxParticleBuffer@2@@Z 000000018003e610 f   NpParticleSystem.obj
 0001:0003d690       ?addRigidAttachment@NpPBDParticleSystem@physx@@UEAAXPEAVPxRigidActor@2@@Z 000000018003e690 f   NpParticleSystem.obj
 0001:0003d780       ?allocate@?$PxArray@IV?$PxReflectionAllocator@I@physx@@@physx@@IEAAPEAII@Z 000000018003e780 f i NpParticleSystem.obj
 0001:0003d830       ?allocateBuffers@PxPartitionedParticleCloth@physx@@QEAAXIPEAVPxCudaContextManager@2@@Z 000000018003e830 f   NpParticleSystem.obj
 0001:0003d970       ?classifySprings@NpParticleClothPreProcessor@physx@@AEAAXPEBUPxParticleSpring@2@PEAI1AEAV?$PxArray@IV?$PxReflectionAllocator@I@physx@@@2@@Z 000000018003e970 f   NpParticleSystem.obj
 0001:0003db50       ?combinePartitions@NpParticleClothPreProcessor@physx@@AEAAIPEBUPxParticleSpring@2@PEBI1PEAIPEAU32@22@Z 000000018003eb50 f   NpParticleSystem.obj
 0001:0003e130       ?createPhase@NpPBDParticleSystem@physx@@UEAAIPEAVPxParticleMaterial@2@V?$PxFlags@W4Enum@PxParticlePhaseFlag@physx@@I@2@@Z 000000018003f130 f   NpParticleSystem.obj
 0001:0003e210       ?enableCCD@?$NpParticleSystem@VPxPBDParticleSystem@physx@@@physx@@UEAAX_N@Z 000000018003f210 f i NpParticleSystem.obj
 0001:0003e270       ?getActorFlags@?$NpActorTemplate@VPxPBDParticleSystem@physx@@@physx@@UEBA?AV?$PxFlags@W4Enum@PxActorFlag@physx@@E@2@XZ 000000018003f270 f i NpParticleSystem.obj
 0001:0003e2d0       ?getConcreteTypeName@PxPBDParticleSystem@physx@@UEBAPEBDXZ 000000018003f2d0 f i NpParticleSystem.obj
 0001:0003e2e0       ?getContactOffset@?$NpParticleSystem@VPxPBDParticleSystem@physx@@@physx@@UEBAMXZ 000000018003f2e0 f i NpParticleSystem.obj
 0001:0003e2f0       ?getCudaContextManager@?$NpParticleSystem@VPxPBDParticleSystem@physx@@@physx@@UEBAPEAVPxCudaContextManager@2@XZ 000000018003f2f0 f i NpParticleSystem.obj
 0001:0003e2f0       ?getParentArticulationLink@NpArticulationJointReducedCoordinate@physx@@UEBAAEAVPxArticulationLink@2@XZ 000000018003f2f0 f i NpArticulationJointReducedCoordinate.obj
 0001:0003e300       ?getDominanceGroup@?$NpActorTemplate@VPxPBDParticleSystem@physx@@@physx@@UEBAEXZ 000000018003f300 f i NpParticleSystem.obj
 0001:0003e350       ?getFluidBoundaryDensityScale@NpPBDParticleSystem@physx@@UEBAMXZ 000000018003f350 f i NpParticleSystem.obj
 0001:0003e360       ?getFluidRestOffset@NpPBDParticleSystem@physx@@UEBAMXZ 000000018003f360 f i NpParticleSystem.obj
 0001:0003e370       ?getGpuParticleSystemIndex@?$NpParticleSystem@VPxPBDParticleSystem@physx@@@physx@@UEAAIXZ 000000018003f370 f i NpParticleSystem.obj
 0001:0003e420       ?getMaxDepenetrationVelocity@?$NpParticleSystem@VPxPBDParticleSystem@physx@@@physx@@UEAAMXZ 000000018003f420 f i NpParticleSystem.obj
 0001:0003e430       ?getMaxVelocity@?$NpParticleSystem@VPxPBDParticleSystem@physx@@@physx@@UEAAMXZ 000000018003f430 f i NpParticleSystem.obj
 0001:0003e440       ?getName@?$NpActorTemplate@VPxPBDParticleSystem@physx@@@physx@@UEBAPEBDXZ 000000018003f440 f i NpParticleSystem.obj
 0001:0003e480       ?getName@?$NpParticleSystem@VPxPBDParticleSystem@physx@@@physx@@UEBAPEBDXZ 000000018003f480 f i NpParticleSystem.obj
 0001:0003e4c0       ?getNbParticleMaterials@?$NpParticleSystem@VPxPBDParticleSystem@physx@@@physx@@UEBAIXZ 000000018003f4c0 f i NpParticleSystem.obj
 0001:0003e4e0       ?getParticleContactOffset@?$NpParticleSystem@VPxPBDParticleSystem@physx@@@physx@@UEBAMXZ 000000018003f4e0 f i NpParticleSystem.obj
 0001:0003e4f0       ?getParticleFlags@?$NpParticleSystem@VPxPBDParticleSystem@physx@@@physx@@UEBA?AV?$PxFlags@W4Enum@PxParticleFlag@physx@@I@2@XZ 000000018003f4f0 f i NpParticleSystem.obj
 0001:0003e500       ?getParticleSystemCallback@?$NpParticleSystem@VPxPBDParticleSystem@physx@@@physx@@UEBAPEAVPxParticleSystemCallback@2@XZ 000000018003f500 f i NpParticleSystem.obj
 0001:0003e510       ?getRestOffset@?$NpParticleSystem@VPxPBDParticleSystem@physx@@@physx@@UEBAMXZ 000000018003f510 f i NpParticleSystem.obj
 0001:0003e520       ?getSimulationFilterData@?$NpParticleSystem@VPxPBDParticleSystem@physx@@@physx@@UEBA?AUPxFilterData@2@XZ 000000018003f520 f i NpParticleSystem.obj
 0001:0003e540       ?getSolidRestOffset@?$NpParticleSystem@VPxPBDParticleSystem@physx@@@physx@@UEBAMXZ 000000018003f540 f i NpParticleSystem.obj
 0001:0003e550       ?getSolverIterationCounts@?$NpParticleSystem@VPxPBDParticleSystem@physx@@@physx@@UEBAXAEAI0@Z 000000018003f550 f i NpParticleSystem.obj
 0001:0003e5b0       ?getSolverType@?$NpParticleSystem@VPxPBDParticleSystem@physx@@@physx@@UEBA?AW4Enum@PxParticleSolverType@2@XZ 000000018003f5b0 f i NpParticleSystem.obj
 0001:0003e5c0       ?getType@NpPBDParticleSystem@physx@@UEBA?AW4Enum@PxActorType@2@XZ 000000018003f5c0 f i NpParticleSystem.obj
 0001:0003e5d0       ?getWind@NpPBDParticleSystem@physx@@UEBA?AV?$PxVec3T@M@2@XZ 000000018003f5d0 f i NpParticleSystem.obj
 0001:0003e5f0       ?getWorldBounds@?$NpParticleSystem@VPxPBDParticleSystem@physx@@@physx@@UEBA?AVPxBounds3@2@M@Z 000000018003f5f0 f i NpParticleSystem.obj
 0001:0003e810       ?isKindOf@PxPBDParticleSystem@physx@@MEBA_NPEBD@Z 000000018003f810 f i NpParticleSystem.obj
 0001:0003e8a0       ?partitionSprings@NpParticleClothPreProcessor@physx@@UEAAXAEBUPxParticleClothDesc@2@AEAUPxPartitionedParticleCloth@2@@Z 000000018003f8a0 f   NpParticleSystem.obj
 0001:0003ead0       ?partitions@NpParticleClothPreProcessor@physx@@AEAAPEAIPEBUPxParticleSpring@2@PEAI@Z 000000018003fad0 f   NpParticleSystem.obj
 0001:0003ed00       ?recreate@?$PxArray@IV?$PxReflectionAllocator@I@physx@@@physx@@IEAAXI@Z 000000018003fd00 f i NpParticleSystem.obj
 0001:0003eda0       ?release@NpPBDParticleSystem@physx@@UEAAXXZ 000000018003fda0 f   NpParticleSystem.obj
 0001:0003ee10       ?release@NpParticleClothPreProcessor@physx@@UEAAXXZ 000000018003fe10 f   NpParticleSystem.obj
 0001:0003ee30       ?removeParticleBuffer@NpPBDParticleSystem@physx@@UEAAXPEAVPxParticleBuffer@2@@Z 000000018003fe30 f   NpParticleSystem.obj
 0001:0003ee40       ?removeRigidAttachment@NpPBDParticleSystem@physx@@UEAAXPEAVPxRigidActor@2@@Z 000000018003fe40 f   NpParticleSystem.obj
 0001:0003ef30       ?resize@?$PxArray@IV?$PxReflectionAllocator@I@physx@@@physx@@QEAAXIAEBI@Z 000000018003ff30 f i NpParticleSystem.obj
 0001:0003eff0       ?setActorFlag@?$NpActorTemplate@VPxPBDParticleSystem@physx@@@physx@@UEAAXW4Enum@PxActorFlag@2@_N@Z 000000018003fff0 f i NpParticleSystem.obj
 0001:0003f0d0       ?setActorFlags@?$NpActorTemplate@VPxPBDParticleSystem@physx@@@physx@@UEAAXV?$PxFlags@W4Enum@PxActorFlag@physx@@E@2@@Z 00000001800400d0 f i NpParticleSystem.obj
 0001:0003f170       ?setContactOffset@?$NpParticleSystem@VPxPBDParticleSystem@physx@@@physx@@UEAAXM@Z 0000000180040170 f i NpParticleSystem.obj
 0001:0003f1d0       ?setDominanceGroup@?$NpActorTemplate@VPxPBDParticleSystem@physx@@@physx@@UEAAXE@Z 00000001800401d0 f i NpParticleSystem.obj
 0001:0003f270       ?setFluidBoundaryDensityScale@NpPBDParticleSystem@physx@@UEAAXM@Z 0000000180040270 f i NpParticleSystem.obj
 0001:0003f2d0       ?setFluidRestOffset@NpPBDParticleSystem@physx@@UEAAXM@Z 00000001800402d0 f i NpParticleSystem.obj
 0001:0003f330       ?setGridSizeX@?$NpParticleSystem@VPxPBDParticleSystem@physx@@@physx@@UEAAXI@Z 0000000180040330 f i NpParticleSystem.obj
 0001:0003f340       ?setGridSizeY@?$NpParticleSystem@VPxPBDParticleSystem@physx@@@physx@@UEAAXI@Z 0000000180040340 f i NpParticleSystem.obj
 0001:0003f350       ?setGridSizeZ@?$NpParticleSystem@VPxPBDParticleSystem@physx@@@physx@@UEAAXI@Z 0000000180040350 f i NpParticleSystem.obj
 0001:0003f360       ?setMaxDepenetrationVelocity@?$NpParticleSystem@VPxPBDParticleSystem@physx@@@physx@@UEAAXM@Z 0000000180040360 f i NpParticleSystem.obj
 0001:0003f400       ?setMaxVelocity@?$NpParticleSystem@VPxPBDParticleSystem@physx@@@physx@@UEAAXM@Z 0000000180040400 f i NpParticleSystem.obj
 0001:0003f4a0       ?setName@?$NpActorTemplate@VPxPBDParticleSystem@physx@@@physx@@UEAAXPEBD@Z 00000001800404a0 f i NpParticleSystem.obj
 0001:0003f570       ?setName@?$NpParticleSystem@VPxPBDParticleSystem@physx@@@physx@@UEAAXPEBD@Z 0000000180040570 f i NpParticleSystem.obj
 0001:0003f5c0       ?setParticleContactOffset@?$NpParticleSystem@VPxPBDParticleSystem@physx@@@physx@@UEAAXM@Z 00000001800405c0 f i NpParticleSystem.obj
 0001:0003f620       ?setParticleFlag@?$NpParticleSystem@VPxPBDParticleSystem@physx@@@physx@@UEAAXW4Enum@PxParticleFlag@2@_N@Z 0000000180040620 f i NpParticleSystem.obj
 0001:0003f6a0       ?setParticleFlags@?$NpParticleSystem@VPxPBDParticleSystem@physx@@@physx@@UEAAXV?$PxFlags@W4Enum@PxParticleFlag@physx@@I@2@@Z 00000001800406a0 f i NpParticleSystem.obj
 0001:0003f710       ?setParticleSystemCallback@?$NpParticleSystem@VPxPBDParticleSystem@physx@@@physx@@UEAAXPEAVPxParticleSystemCallback@2@@Z 0000000180040710 f i NpParticleSystem.obj
 0001:0003f720       ?setRestOffset@?$NpParticleSystem@VPxPBDParticleSystem@physx@@@physx@@UEAAXM@Z 0000000180040720 f i NpParticleSystem.obj
 0001:0003f780       ?setSimulationFilterData@?$NpParticleSystem@VPxPBDParticleSystem@physx@@@physx@@UEAAXAEBUPxFilterData@2@@Z 0000000180040780 f i NpParticleSystem.obj
 0001:0003f7a0       ?setSolidRestOffset@?$NpParticleSystem@VPxPBDParticleSystem@physx@@@physx@@UEAAXM@Z 00000001800407a0 f i NpParticleSystem.obj
 0001:0003f800       ?setSolverIterationCounts@?$NpParticleSystem@VPxPBDParticleSystem@physx@@@physx@@UEAAXII@Z 0000000180040800 f i NpParticleSystem.obj
 0001:0003f910       ?setWind@NpPBDParticleSystem@physx@@UEAAXAEBV?$PxVec3T@M@2@@Z 0000000180040910 f i NpParticleSystem.obj
 0001:0003f970       ?visualize@NpPBDParticleSystem@physx@@UEBAXAEAVPxRenderOutput@2@AEAVNpScene@2@@Z 0000000180040970 f   NpParticleSystem.obj
 0001:0003fa00       ?writeSprings@NpParticleClothPreProcessor@physx@@AEAAXPEBUPxParticleSpring@2@PEAI111@Z 0000000180040a00 f   NpParticleSystem.obj
 0001:0003fbb0       PxCreateParticleClothPreProcessor 0000000180040bb0 f   NpParticleSystem.obj
 0001:0003fcc0       ??0NpConstraint@physx@@QEAA@PEAVPxRigidActor@1@0AEAVPxConstraintConnector@1@AEBUPxConstraintShaderTable@1@I@Z 0000000180040cc0 f   NpConstraint.obj
 0001:0003fea0       ??_ENpConstraint@physx@@UEAAPEAXI@Z 0000000180040ea0 f i NpConstraint.obj
 0001:0003fea0       ??_GNpConstraint@physx@@UEAAPEAXI@Z 0000000180040ea0 f i NpConstraint.obj
 0001:0003ff30       ?actorDeleted@NpConstraint@physx@@QEAAXPEAVPxRigidActor@2@@Z 0000000180040f30 f   NpConstraint.obj
 0001:0003ff50       ?comShift@NpConstraint@physx@@QEAAXPEAVPxRigidActor@2@@Z 0000000180040f50 f   NpConstraint.obj
 0001:0003ffa0       ?createObject@NpConstraint@physx@@SAPEAV12@AEAPEAEAEAVPxDeserializationContext@2@@Z 0000000180040fa0 f   NpConstraint.obj
 0001:00040040       ?getActors@NpConstraint@physx@@UEBAXAEAPEAVPxRigidActor@2@0@Z 0000000180041040 f   NpConstraint.obj
 0001:000400a0       ?getBreakForce@NpConstraint@physx@@UEBAXAEAM0@Z 00000001800410a0 f   NpConstraint.obj
 0001:00040100       ?getConcreteTypeName@PxConstraint@physx@@UEBAPEBDXZ 0000000180041100 f i NpConstraint.obj
 0001:00040110       ?getExternalReference@NpConstraint@physx@@UEAAPEAXAEAI@Z 0000000180041110 f   NpConstraint.obj
 0001:00040160       ?getFlags@NpConstraint@physx@@UEBA?AV?$PxFlags@W4Enum@PxConstraintFlag@physx@@G@2@XZ 0000000180041160 f   NpConstraint.obj
 0001:000401b0       ?getForce@NpConstraint@physx@@UEBAXAEAV?$PxVec3T@M@2@0@Z 00000001800411b0 f   NpConstraint.obj
 0001:00040250       ?getMinResponseThreshold@NpConstraint@physx@@UEBAMXZ 0000000180041250 f   NpConstraint.obj
 0001:00040290       ?getSceneFromActors@NpConstraint@physx@@QEBAPEAVNpScene@2@XZ 0000000180041290 f   NpConstraint.obj
 0001:00040350       ?isKindOf@PxConstraint@physx@@MEBA_NPEBD@Z 0000000180041350 f i NpConstraint.obj
 0001:000403a0       ?isSubordinate@?$PxSerializerDefaultAdapter@VNpArticulationJointReducedCoordinate@physx@@@physx@@UEBA_NXZ 00000001800413a0 f i NpSerializerAdapter.obj
 0001:000403a0       ?isSubordinate@?$PxSerializerDefaultAdapter@VNpArticulationLink@physx@@@physx@@UEBA_NXZ 00000001800413a0 f i NpSerializerAdapter.obj
 0001:000403a0       ?isSubordinate@?$PxSerializerDefaultAdapter@VNpConstraint@physx@@@physx@@UEBA_NXZ 00000001800413a0 f i NpSerializerAdapter.obj
 0001:000403a0       ?isSubordinate@NpArticulationAttachment@physx@@UEBA_NXZ 00000001800413a0 f i NpArticulationTendon.obj
 0001:000403a0       ?isSubordinate@NpArticulationFixedTendon@physx@@UEBA_NXZ 00000001800413a0 f i NpArticulationTendon.obj
 0001:000403a0       ?isSubordinate@NpArticulationJointReducedCoordinate@physx@@UEBA_NXZ 00000001800413a0 f i NpArticulationJointReducedCoordinate.obj
 0001:000403a0       ?isSubordinate@NpArticulationLink@physx@@UEBA_NXZ 00000001800413a0 f i NpArticulationLink.obj
 0001:000403a0       ?isSubordinate@NpArticulationSensor@physx@@UEBA_NXZ 00000001800413a0 f i NpArticulationSensor.obj
 0001:000403a0       ?isSubordinate@NpArticulationSpatialTendon@physx@@UEBA_NXZ 00000001800413a0 f i NpArticulationTendon.obj
 0001:000403a0       ?isSubordinate@NpArticulationTendonJoint@physx@@UEBA_NXZ 00000001800413a0 f i NpArticulationTendon.obj
 0001:000403a0       ?isSubordinate@NpConstraint@physx@@UEBA_NXZ 00000001800413a0 f i NpConstraint.obj
 0001:000403a0       __acrt_uninitialize_command_line 00000001800413a0 f i libucrt:argv_data.obj
 0001:000403b0       ?isValid@NpConstraint@physx@@UEBA_NXZ 00000001800413b0 f   NpConstraint.obj
 0001:00040430       ?markDirty@NpConstraint@physx@@UEAAXXZ 0000000180041430 f   NpConstraint.obj
 0001:00040470       ?release@NpConstraint@physx@@UEAAXXZ 0000000180041470 f   NpConstraint.obj
 0001:00040530       ?removeConnectors@NpConstraint@physx@@AEAAXPEBD0@Z 0000000180041530 f   NpConstraint.obj
 0001:000405b0       ?setActors@NpConstraint@physx@@UEAAXPEAVPxRigidActor@2@0@Z 00000001800415b0 f   NpConstraint.obj
 0001:00040880       ?setBreakForce@NpConstraint@physx@@UEAAXMM@Z 0000000180041880 f   NpConstraint.obj
 0001:00040950       ?setConstraintFunctions@NpConstraint@physx@@UEAAXAEAVPxConstraintConnector@2@AEBUPxConstraintShaderTable@2@@Z 0000000180041950 f   NpConstraint.obj
 0001:00040ae0       ?setFlag@NpConstraint@physx@@UEAAXW4Enum@PxConstraintFlag@2@_N@Z 0000000180041ae0 f   NpConstraint.obj
 0001:00040c20       ?setFlags@NpConstraint@physx@@UEAAXV?$PxFlags@W4Enum@PxConstraintFlag@physx@@G@2@@Z 0000000180041c20 f   NpConstraint.obj
 0001:00040d30       ?setMinResponseThreshold@NpConstraint@physx@@UEAAXM@Z 0000000180041d30 f   NpConstraint.obj
 0001:00040e10       ?updateConstants@NpConstraint@physx@@QEAAXAEAVPxsSimulationController@2@@Z 0000000180041e10 f   NpConstraint.obj
 0001:00040eb0       ??$PxSort@PEAXU?$PxLess@PEAX@physx@@V?$PxReflectionAllocator@V?$PtrBlock@$03@NpPtrTableStorageManager@physx@@@2@@physx@@YAXPEAPEAXIAEBU?$PxLess@PEAX@0@AEBV?$PxReflectionAllocator@V?$PtrBlock@$03@NpPtrTableStorageManager@physx@@@0@I@Z 0000000180041eb0 f i NpFactory.obj
 0001:00041310       ??$PxSort@PEAXU?$PxLess@PEAX@physx@@V?$PxReflectionAllocator@V?$PtrBlock@$0BA@@NpPtrTableStorageManager@physx@@@2@@physx@@YAXPEAPEAXIAEBU?$PxLess@PEAX@0@AEBV?$PxReflectionAllocator@V?$PtrBlock@$0BA@@NpPtrTableStorageManager@physx@@@0@I@Z 0000000180042310 f i NpFactory.obj
 0001:00041770       ??$PxSort@PEAXU?$PxLess@PEAX@physx@@V?$PxReflectionAllocator@V?$PtrBlock@$0EA@@NpPtrTableStorageManager@physx@@@2@@physx@@YAXPEAPEAXIAEBU?$PxLess@PEAX@0@AEBV?$PxReflectionAllocator@V?$PtrBlock@$0EA@@NpPtrTableStorageManager@physx@@@0@I@Z 0000000180042770 f i NpFactory.obj
 0001:00041bd0       ??$PxSort@PEAXU?$PxLess@PEAX@physx@@V?$PxReflectionAllocator@VNpAggregate@physx@@@2@@physx@@YAXPEAPEAXIAEBU?$PxLess@PEAX@0@AEBV?$PxReflectionAllocator@VNpAggregate@physx@@@0@I@Z 0000000180042bd0 f i NpFactory.obj
 0001:00042030       ??$PxSort@PEAXU?$PxLess@PEAX@physx@@V?$PxReflectionAllocator@VNpArticulationJointReducedCoordinate@physx@@@2@@physx@@YAXPEAPEAXIAEBU?$PxLess@PEAX@0@AEBV?$PxReflectionAllocator@VNpArticulationJointReducedCoordinate@physx@@@0@I@Z 0000000180043030 f i NpFactory.obj
 0001:00042490       ??$PxSort@PEAXU?$PxLess@PEAX@physx@@V?$PxReflectionAllocator@VNpArticulationLink@physx@@@2@@physx@@YAXPEAPEAXIAEBU?$PxLess@PEAX@0@AEBV?$PxReflectionAllocator@VNpArticulationLink@physx@@@0@I@Z 0000000180043490 f i NpFactory.obj
 0001:000428f0       ??$PxSort@PEAXU?$PxLess@PEAX@physx@@V?$PxReflectionAllocator@VNpArticulationReducedCoordinate@physx@@@2@@physx@@YAXPEAPEAXIAEBU?$PxLess@PEAX@0@AEBV?$PxReflectionAllocator@VNpArticulationReducedCoordinate@physx@@@0@I@Z 00000001800438f0 f i NpFactory.obj
 0001:00042d50       ??$PxSort@PEAXU?$PxLess@PEAX@physx@@V?$PxReflectionAllocator@VNpConnectorArray@physx@@@2@@physx@@YAXPEAPEAXIAEBU?$PxLess@PEAX@0@AEBV?$PxReflectionAllocator@VNpConnectorArray@physx@@@0@I@Z 0000000180043d50 f i NpFactory.obj
 0001:000431b0       ??$PxSort@PEAXU?$PxLess@PEAX@physx@@V?$PxReflectionAllocator@VNpConstraint@physx@@@2@@physx@@YAXPEAPEAXIAEBU?$PxLess@PEAX@0@AEBV?$PxReflectionAllocator@VNpConstraint@physx@@@0@I@Z 00000001800441b0 f i NpFactory.obj
 0001:00043610       ??$PxSort@PEAXU?$PxLess@PEAX@physx@@V?$PxReflectionAllocator@VNpFEMSoftBodyMaterial@physx@@@2@@physx@@YAXPEAPEAXIAEBU?$PxLess@PEAX@0@AEBV?$PxReflectionAllocator@VNpFEMSoftBodyMaterial@physx@@@0@I@Z 0000000180044610 f i NpFactory.obj
 0001:00043a70       ??$PxSort@PEAXU?$PxLess@PEAX@physx@@V?$PxReflectionAllocator@VNpMaterial@physx@@@2@@physx@@YAXPEAPEAXIAEBU?$PxLess@PEAX@0@AEBV?$PxReflectionAllocator@VNpMaterial@physx@@@0@I@Z 0000000180044a70 f i NpFactory.obj
 0001:00043ed0       ??$PxSort@PEAXU?$PxLess@PEAX@physx@@V?$PxReflectionAllocator@VNpPBDMaterial@physx@@@2@@physx@@YAXPEAPEAXIAEBU?$PxLess@PEAX@0@AEBV?$PxReflectionAllocator@VNpPBDMaterial@physx@@@0@I@Z 0000000180044ed0 f i NpFactory.obj
 0001:00044330       ??$PxSort@PEAXU?$PxLess@PEAX@physx@@V?$PxReflectionAllocator@VNpPBDParticleSystem@physx@@@2@@physx@@YAXPEAPEAXIAEBU?$PxLess@PEAX@0@AEBV?$PxReflectionAllocator@VNpPBDParticleSystem@physx@@@0@I@Z 0000000180045330 f i NpFactory.obj
 0001:00044790       ??$PxSort@PEAXU?$PxLess@PEAX@physx@@V?$PxReflectionAllocator@VNpRigidDynamic@physx@@@2@@physx@@YAXPEAPEAXIAEBU?$PxLess@PEAX@0@AEBV?$PxReflectionAllocator@VNpRigidDynamic@physx@@@0@I@Z 0000000180045790 f i NpFactory.obj
 0001:00044bf0       ??$PxSort@PEAXU?$PxLess@PEAX@physx@@V?$PxReflectionAllocator@VNpRigidStatic@physx@@@2@@physx@@YAXPEAPEAXIAEBU?$PxLess@PEAX@0@AEBV?$PxReflectionAllocator@VNpRigidStatic@physx@@@0@I@Z 0000000180045bf0 f i NpFactory.obj
 0001:00045050       ??$PxSort@PEAXU?$PxLess@PEAX@physx@@V?$PxReflectionAllocator@VNpShape@physx@@@2@@physx@@YAXPEAPEAXIAEBU?$PxLess@PEAX@0@AEBV?$PxReflectionAllocator@VNpShape@physx@@@0@I@Z 0000000180046050 f i NpFactory.obj
 0001:000454b0       ??$PxSort@PEAXU?$PxLess@PEAX@physx@@V?$PxReflectionAllocator@VNpSoftBody@physx@@@2@@physx@@YAXPEAPEAXIAEBU?$PxLess@PEAX@0@AEBV?$PxReflectionAllocator@VNpSoftBody@physx@@@0@I@Z 00000001800464b0 f i NpFactory.obj
 0001:00045910       ??$checkMaterialSetup@VPxFEMSoftBodyMaterial@physx@@@NpShape@physx@@SA_NAEBVPxGeometry@1@PEBDPEBQEAVPxFEMSoftBodyMaterial@1@G@Z 0000000180046910 f i NpFactory.obj
 0001:00045910       ??$checkMaterialSetup@VPxMaterial@physx@@@NpShape@physx@@SA_NAEBVPxGeometry@1@PEBDPEBQEAVPxMaterial@1@G@Z 0000000180046910 f i NpFactory.obj
 0001:00045b30       ??$construct@$$CBVPxGeometry@physx@@V?$PxFlags@W4Enum@PxShapeFlag@physx@@E@2@PEAGG_NW4Enum@PxShapeCoreFlag@2@@?$PxPoolBase@VNpShape@physx@@V?$PxReflectionAllocator@VNpShape@physx@@@2@@physx@@QEAAPEAVNpShape@1@AEBVPxGeometry@1@AEAV?$PxFlags@W4Enum@PxShapeFlag@physx@@E@1@AEAPEAGAEAGAEA_NAEAW4Enum@PxShapeCoreFlag@1@@Z 0000000180046b30 f i NpFactory.obj
 0001:00045cc0       ??$createShapeInternal@VPxFEMSoftBodyMaterial@physx@@VNpFEMSoftBodyMaterial@2@@NpFactory@physx@@AEAAPEAVNpShape@1@AEBVPxGeometry@1@V?$PxFlags@W4Enum@PxShapeFlag@physx@@E@1@PEBQEAVPxFEMSoftBodyMaterial@1@G_NW4Enum@PxShapeCoreFlag@1@@Z 0000000180046cc0 f i NpFactory.obj
 0001:00045f10       ??$createShapeInternal@VPxMaterial@physx@@VNpMaterial@2@@NpFactory@physx@@AEAAPEAVNpShape@1@AEBVPxGeometry@1@V?$PxFlags@W4Enum@PxShapeFlag@physx@@E@1@PEBQEAVPxMaterial@1@G_NW4Enum@PxShapeCoreFlag@1@@Z 0000000180046f10 f i NpFactory.obj
 0001:00046840       ??0?$PxMutexT@V?$PxReflectionAllocator@VPxMutexImpl@physx@@@physx@@@physx@@QEAA@AEBV?$PxReflectionAllocator@VPxMutexImpl@physx@@@1@@Z 0000000180047840 f i NpFactory.obj
 0001:000468d0       ??0NpFactory@physx@@QEAA@XZ 00000001800478d0 f   NpFactory.obj
 0001:00047400       ??1?$PxPoolBase@V?$PtrBlock@$03@NpPtrTableStorageManager@physx@@V?$PxReflectionAllocator@V?$PtrBlock@$03@NpPtrTableStorageManager@physx@@@3@@physx@@QEAA@XZ 0000000180048400 f i NpFactory.obj
 0001:00047560       ??1?$PxPoolBase@V?$PtrBlock@$0BA@@NpPtrTableStorageManager@physx@@V?$PxReflectionAllocator@V?$PtrBlock@$0BA@@NpPtrTableStorageManager@physx@@@3@@physx@@QEAA@XZ 0000000180048560 f i NpFactory.obj
 0001:000476c0       ??1?$PxPoolBase@V?$PtrBlock@$0EA@@NpPtrTableStorageManager@physx@@V?$PxReflectionAllocator@V?$PtrBlock@$0EA@@NpPtrTableStorageManager@physx@@@3@@physx@@QEAA@XZ 00000001800486c0 f i NpFactory.obj
 0001:00047820       ??1?$PxPoolBase@VNpAggregate@physx@@V?$PxReflectionAllocator@VNpAggregate@physx@@@2@@physx@@QEAA@XZ 0000000180048820 f i NpFactory.obj
 0001:00047a30       ??1?$PxPoolBase@VNpArticulationJointReducedCoordinate@physx@@V?$PxReflectionAllocator@VNpArticulationJointReducedCoordinate@physx@@@2@@physx@@QEAA@XZ 0000000180048a30 f i NpFactory.obj
 0001:00047c40       ??1?$PxPoolBase@VNpArticulationLink@physx@@V?$PxReflectionAllocator@VNpArticulationLink@physx@@@2@@physx@@QEAA@XZ 0000000180048c40 f i NpFactory.obj
 0001:00047e50       ??1?$PxPoolBase@VNpArticulationReducedCoordinate@physx@@V?$PxReflectionAllocator@VNpArticulationReducedCoordinate@physx@@@2@@physx@@QEAA@XZ 0000000180048e50 f i NpFactory.obj
 0001:00048060       ??1?$PxPoolBase@VNpConnectorArray@physx@@V?$PxReflectionAllocator@VNpConnectorArray@physx@@@2@@physx@@QEAA@XZ 0000000180049060 f i NpFactory.obj
 0001:00048100       ??1?$PxPoolBase@VNpConstraint@physx@@V?$PxReflectionAllocator@VNpConstraint@physx@@@2@@physx@@QEAA@XZ 0000000180049100 f i NpFactory.obj
 0001:00048310       ??1?$PxPoolBase@VNpFEMSoftBodyMaterial@physx@@V?$PxReflectionAllocator@VNpFEMSoftBodyMaterial@physx@@@2@@physx@@QEAA@XZ 0000000180049310 f i NpFactory.obj
 0001:00048520       ??1?$PxPoolBase@VNpMaterial@physx@@V?$PxReflectionAllocator@VNpMaterial@physx@@@2@@physx@@QEAA@XZ 0000000180049520 f i NpFactory.obj
 0001:00048730       ??1?$PxPoolBase@VNpPBDMaterial@physx@@V?$PxReflectionAllocator@VNpPBDMaterial@physx@@@2@@physx@@QEAA@XZ 0000000180049730 f i NpFactory.obj
 0001:00048940       ??1?$PxPoolBase@VNpPBDParticleSystem@physx@@V?$PxReflectionAllocator@VNpPBDParticleSystem@physx@@@2@@physx@@QEAA@XZ 0000000180049940 f i NpFactory.obj
 0001:00048b50       ??1?$PxPoolBase@VNpRigidDynamic@physx@@V?$PxReflectionAllocator@VNpRigidDynamic@physx@@@2@@physx@@QEAA@XZ 0000000180049b50 f i NpFactory.obj
 0001:00048d60       ??1?$PxPoolBase@VNpRigidStatic@physx@@V?$PxReflectionAllocator@VNpRigidStatic@physx@@@2@@physx@@QEAA@XZ 0000000180049d60 f i NpFactory.obj
 0001:00048f70       ??1?$PxPoolBase@VNpShape@physx@@V?$PxReflectionAllocator@VNpShape@physx@@@2@@physx@@QEAA@XZ 0000000180049f70 f i NpFactory.obj
 0001:00049180       ??1?$PxPoolBase@VNpSoftBody@physx@@V?$PxReflectionAllocator@VNpSoftBody@physx@@@2@@physx@@QEAA@XZ 000000018004a180 f i NpFactory.obj
 0001:00049390       ??1NpFactory@physx@@EEAA@XZ 000000018004a390 f   NpFactory.obj
 0001:000497b0       ??_ENpFactory@physx@@EEAAPEAXI@Z 000000018004a7b0 f i NpFactory.obj
 0001:000497b0       ??_GNpFactory@physx@@EEAAPEAXI@Z 000000018004a7b0 f i NpFactory.obj
 0001:00049820       ??_ENpPtrTableStorageManager@physx@@UEAAPEAXI@Z 000000018004a820 f i NpFactory.obj
 0001:00049820       ??_GNpPtrTableStorageManager@physx@@UEAAPEAXI@Z 000000018004a820 f i NpFactory.obj
 0001:000498e0       ??_EPtrTableStorageManager@Cm@physx@@MEAAPEAXI@Z 000000018004a8e0 f i NpFactory.obj
 0001:000498e0       ??_GPtrTableStorageManager@Cm@physx@@MEAAPEAXI@Z 000000018004a8e0 f i NpFactory.obj
 0001:00049910       ?NpDestroyAggregate@physx@@YAXPEAVNpAggregate@1@@Z 000000018004a910 f   NpFactory.obj
 0001:000499a0       ?NpDestroyArticulation@physx@@YAXPEAVPxArticulationReducedCoordinate@1@@Z 000000018004a9a0 f   NpFactory.obj
 0001:00049a30       ?NpDestroyArticulationJoint@physx@@YAXPEAVPxArticulationJointReducedCoordinate@1@@Z 000000018004aa30 f   NpFactory.obj
 0001:00049ad0       ?NpDestroyArticulationLink@physx@@YAXPEAVNpArticulationLink@1@@Z 000000018004aad0 f   NpFactory.obj
 0001:00049b70       ?NpDestroyConstraint@physx@@YAXPEAVNpConstraint@1@@Z 000000018004ab70 f   NpFactory.obj
 0001:00049c00       ?NpDestroyParticleSystem@physx@@YAXPEAVNpPBDParticleSystem@1@@Z 000000018004ac00 f   NpFactory.obj
 0001:00049c90       ?NpDestroyRigidActor@physx@@YAXPEAVNpRigidStatic@1@@Z 000000018004ac90 f   NpFactory.obj
 0001:00049d20       ?NpDestroyRigidDynamic@physx@@YAXPEAVNpRigidDynamic@1@@Z 000000018004ad20 f   NpFactory.obj
 0001:00049db0       ?NpDestroyShape@physx@@YAXPEAVNpShape@1@@Z 000000018004adb0 f   NpFactory.obj
 0001:00049e40       ?NpDestroySoftBody@physx@@YAXPEAVNpSoftBody@1@@Z 000000018004ae40 f   NpFactory.obj
 0001:00049ee0       ?acquireConnectorArray@NpFactory@physx@@QEAAPEAVNpConnectorArray@2@XZ 000000018004aee0 f   NpFactory.obj
 0001:0004a060       ?addCollection@NpFactory@physx@@QEAAXAEBVCollection@Cm@2@@Z 000000018004b060 f   NpFactory.obj
 0001:0004a2e0       ?allocate@?$PxArray@GV?$PxInlineAllocator@$07V?$PxReflectionAllocator@G@physx@@@physx@@@physx@@IEAAPEAGI@Z 000000018004b2e0 f i NpFactory.obj
 0001:0004a390       ?allocate@?$PxArray@PEAVPxAggregate@physx@@V?$PxReflectionAllocator@PEAVPxAggregate@physx@@@2@@physx@@IEAAPEAPEAVPxAggregate@2@I@Z 000000018004b390 f i NpFactory.obj
 0001:0004a440       ?allocate@?$PxArray@PEAVPxArticulationReducedCoordinate@physx@@V?$PxReflectionAllocator@PEAVPxArticulationReducedCoordinate@physx@@@2@@physx@@IEAAPEAPEAVPxArticulationReducedCoordinate@2@I@Z 000000018004b440 f i NpFactory.obj
 0001:0004a4f0       ?allocate@?$PxArray@PEAVPxConstraint@physx@@V?$PxReflectionAllocator@PEAVPxConstraint@physx@@@2@@physx@@IEAAPEAPEAVPxConstraint@2@I@Z 000000018004b4f0 f i NpFactory.obj
 0001:0004a5a0       ?allocate@?$PxArray@PEAVPxParticleBuffer@physx@@V?$PxReflectionAllocator@PEAVPxParticleBuffer@physx@@@2@@physx@@IEAAPEAPEAVPxParticleBuffer@2@I@Z 000000018004b5a0 f i NpFactory.obj
 0001:0004a650       ?allocate@?$PxArray@PEAXV?$PxReflectionAllocator@V?$PtrBlock@$03@NpPtrTableStorageManager@physx@@@physx@@@physx@@IEAAPEAPEAXI@Z 000000018004b650 f i NpFactory.obj
 0001:0004a700       ?allocate@?$PxArray@PEAXV?$PxReflectionAllocator@V?$PtrBlock@$0BA@@NpPtrTableStorageManager@physx@@@physx@@@physx@@IEAAPEAPEAXI@Z 000000018004b700 f i NpFactory.obj
 0001:0004a7b0       ?allocate@?$PxArray@PEAXV?$PxReflectionAllocator@V?$PtrBlock@$0EA@@NpPtrTableStorageManager@physx@@@physx@@@physx@@IEAAPEAPEAXI@Z 000000018004b7b0 f i NpFactory.obj
 0001:0004a860       ?allocate@?$PxArray@PEAXV?$PxReflectionAllocator@VNpAggregate@physx@@@physx@@@physx@@IEAAPEAPEAXI@Z 000000018004b860 f i NpFactory.obj
 0001:0004a910       ?allocate@?$PxArray@PEAXV?$PxReflectionAllocator@VNpArticulationJointReducedCoordinate@physx@@@physx@@@physx@@IEAAPEAPEAXI@Z 000000018004b910 f i NpFactory.obj
 0001:0004a9c0       ?allocate@?$PxArray@PEAXV?$PxReflectionAllocator@VNpArticulationLink@physx@@@physx@@@physx@@IEAAPEAPEAXI@Z 000000018004b9c0 f i NpFactory.obj
 0001:0004aa70       ?allocate@?$PxArray@PEAXV?$PxReflectionAllocator@VNpArticulationReducedCoordinate@physx@@@physx@@@physx@@IEAAPEAPEAXI@Z 000000018004ba70 f i NpFactory.obj
 0001:0004ab20       ?allocate@?$PxArray@PEAXV?$PxReflectionAllocator@VNpConnectorArray@physx@@@physx@@@physx@@IEAAPEAPEAXI@Z 000000018004bb20 f i NpFactory.obj
 0001:0004abd0       ?allocate@?$PxArray@PEAXV?$PxReflectionAllocator@VNpConstraint@physx@@@physx@@@physx@@IEAAPEAPEAXI@Z 000000018004bbd0 f i NpFactory.obj
 0001:0004ac80       ?allocate@?$PxArray@PEAXV?$PxReflectionAllocator@VNpFEMSoftBodyMaterial@physx@@@physx@@@physx@@IEAAPEAPEAXI@Z 000000018004bc80 f i NpFactory.obj
 0001:0004ad30       ?allocate@?$PxArray@PEAXV?$PxReflectionAllocator@VNpMaterial@physx@@@physx@@@physx@@IEAAPEAPEAXI@Z 000000018004bd30 f i NpFactory.obj
 0001:0004ade0       ?allocate@?$PxArray@PEAXV?$PxReflectionAllocator@VNpPBDMaterial@physx@@@physx@@@physx@@IEAAPEAPEAXI@Z 000000018004bde0 f i NpFactory.obj
 0001:0004ae90       ?allocate@?$PxArray@PEAXV?$PxReflectionAllocator@VNpPBDParticleSystem@physx@@@physx@@@physx@@IEAAPEAPEAXI@Z 000000018004be90 f i NpFactory.obj
 0001:0004af40       ?allocate@?$PxArray@PEAXV?$PxReflectionAllocator@VNpRigidDynamic@physx@@@physx@@@physx@@IEAAPEAPEAXI@Z 000000018004bf40 f i NpFactory.obj
 0001:0004aff0       ?allocate@?$PxArray@PEAXV?$PxReflectionAllocator@VNpRigidStatic@physx@@@physx@@@physx@@IEAAPEAPEAXI@Z 000000018004bff0 f i NpFactory.obj
 0001:0004b0a0       ?allocate@?$PxArray@PEAXV?$PxReflectionAllocator@VNpShape@physx@@@physx@@@physx@@IEAAPEAPEAXI@Z 000000018004c0a0 f i NpFactory.obj
 0001:0004b150       ?allocate@?$PxArray@PEAXV?$PxReflectionAllocator@VNpSoftBody@physx@@@physx@@@physx@@IEAAPEAPEAXI@Z 000000018004c150 f i NpFactory.obj
 0001:0004b200       ?allocate@NpPtrTableStorageManager@physx@@UEAAPEAPEAXI@Z 000000018004c200 f i NpFactory.obj
 0001:0004b5d0       ?canReuse@NpPtrTableStorageManager@physx@@UEAA_NII@Z 000000018004c5d0 f i NpFactory.obj
 0001:0004b620       ?checkShape@@YA_NAEBVPxGeometry@physx@@PEBD@Z 000000018004c620 f   NpFactory.obj
 0001:0004b670       ?create@?$PxHashBase@PEAVPxAggregate@physx@@PEAV12@U?$PxHash@PEAVPxAggregate@physx@@@2@UGetKey@?$PxHashSetBase@PEAVPxAggregate@physx@@U?$PxHash@PEAVPxAggregate@physx@@@2@VPxAllocator@2@$00@2@VPxAllocator@2@$00@physx@@QEAAPEAPEAVPxAggregate@2@AEBQEAV32@AEA_N@Z 000000018004c670 f i NpScene.obj
 0001:0004b670       ?create@?$PxHashBase@PEAVPxArticulationReducedCoordinate@physx@@PEAV12@U?$PxHash@PEAVPxArticulationReducedCoordinate@physx@@@2@UGetKey@?$PxHashSetBase@PEAVPxArticulationReducedCoordinate@physx@@U?$PxHash@PEAVPxArticulationReducedCoordinate@physx@@@2@VPxAllocator@2@$00@2@VPxAllocator@2@$00@physx@@QEAAPEAPEAVPxArticulationReducedCoordinate@2@AEBQEAV32@AEA_N@Z 000000018004c670 f i NpScene.obj
 0001:0004b670       ?create@?$PxHashBase@PEAVPxPBDParticleSystem@physx@@PEAV12@U?$PxHash@PEAVPxPBDParticleSystem@physx@@@2@UGetKey@?$PxHashSetBase@PEAVPxPBDParticleSystem@physx@@U?$PxHash@PEAVPxPBDParticleSystem@physx@@@2@VPxAllocator@2@$00@2@VPxAllocator@2@$00@physx@@QEAAPEAPEAVPxPBDParticleSystem@2@AEBQEAV32@AEA_N@Z 000000018004c670 f i NpScene.obj
 0001:0004b670       ?create@?$PxHashBase@PEAVPxShape@physx@@PEAV12@U?$PxHash@PEAVPxShape@physx@@@2@UGetKey@?$PxHashSetBase@PEAVPxShape@physx@@U?$PxHash@PEAVPxShape@physx@@@2@VPxAllocator@2@$00@2@VPxAllocator@2@$00@physx@@QEAAPEAPEAVPxShape@2@AEBQEAV32@AEA_N@Z 000000018004c670 f i NpFactory.obj
 0001:0004b670       ?create@?$PxHashBase@PEAVPxSoftBody@physx@@PEAV12@U?$PxHash@PEAVPxSoftBody@physx@@@2@UGetKey@?$PxHashSetBase@PEAVPxSoftBody@physx@@U?$PxHash@PEAVPxSoftBody@physx@@@2@VPxAllocator@2@$00@2@VPxAllocator@2@$00@physx@@QEAAPEAPEAVPxSoftBody@2@AEBQEAV32@AEA_N@Z 000000018004c670 f i NpScene.obj
 0001:0004b800       ?createAggregate@NpFactory@physx@@QEAAPEAVPxAggregate@2@III@Z 000000018004c800 f   NpFactory.obj
 0001:0004b9d0       ?createArticulationLink@NpFactory@physx@@QEAAPEAVPxArticulationLink@2@AEAVNpArticulationReducedCoordinate@2@PEAVNpArticulationLink@2@AEBV?$PxTransformT@M@2@@Z 000000018004c9d0 f   NpFactory.obj
 0001:0004bf80       ?createArticulationRC@NpFactory@physx@@QEAAPEAVPxArticulationReducedCoordinate@2@XZ 000000018004cf80 f   NpFactory.obj
 0001:0004c170       ?createConstraint@NpFactory@physx@@QEAAPEAVPxConstraint@2@PEAVPxRigidActor@2@0AEAVPxConstraintConnector@2@AEBUPxConstraintShaderTable@2@I@Z 000000018004d170 f   NpFactory.obj
 0001:0004c3e0       ?createFEMSoftBodyMaterial@NpFactory@physx@@QEAAPEAVPxFEMSoftBodyMaterial@2@MMM@Z 000000018004d3e0 f   NpFactory.obj
 0001:0004c660       ?createInstance@NpFactory@physx@@SAXXZ 000000018004d660 f   NpFactory.obj
 0001:0004c6f0       ?createMaterial@NpFactory@physx@@QEAAPEAVPxMaterial@2@MMM@Z 000000018004d6f0 f   NpFactory.obj
 0001:0004c920       ?createNpArticulationJointRC@NpFactory@physx@@QEAAPEAVNpArticulationJointReducedCoordinate@2@AEAVNpArticulationLink@2@AEBV?$PxTransformT@M@2@01@Z 000000018004d920 f   NpFactory.obj
 0001:0004cab0       ?createPBDMaterial@NpFactory@physx@@QEAAPEAVPxPBDMaterial@2@MMMMMMMMMMM@Z 000000018004dab0 f   NpFactory.obj
 0001:0004ccd0       ?createPBDParticleSystem@NpFactory@physx@@QEAAPEAVPxPBDParticleSystem@2@IAEAVPxCudaContextManager@2@@Z 000000018004dcd0 f   NpFactory.obj
 0001:0004ce40       ?createParticleAndDiffuseBuffer@NpFactory@physx@@QEAAPEAVPxParticleAndDiffuseBuffer@2@IIIPEAVPxCudaContextManager@2@@Z 000000018004de40 f   NpFactory.obj
 0001:0004cf20       ?createParticleBuffer@NpFactory@physx@@QEAAPEAVPxParticleBuffer@2@IIPEAVPxCudaContextManager@2@@Z 000000018004df20 f   NpFactory.obj
 0001:0004cfd0       ?createParticleClothBuffer@NpFactory@physx@@QEAAPEAVPxParticleClothBuffer@2@IIIIIPEAVPxCudaContextManager@2@@Z 000000018004dfd0 f   NpFactory.obj
 0001:0004d0c0       ?createParticleRigidBuffer@NpFactory@physx@@QEAAPEAVPxParticleRigidBuffer@2@IIIPEAVPxCudaContextManager@2@@Z 000000018004e0c0 f   NpFactory.obj
 0001:0004d1a0       ?createRigidDynamic@NpFactory@physx@@QEAAPEAVPxRigidDynamic@2@AEBV?$PxTransformT@M@2@@Z 000000018004e1a0 f   NpFactory.obj
 0001:0004d3a0       ?createRigidStatic@NpFactory@physx@@QEAAPEAVPxRigidStatic@2@AEBV?$PxTransformT@M@2@@Z 000000018004e3a0 f   NpFactory.obj
 0001:0004d5b0       ?createShape@NpFactory@physx@@QEAAPEAVNpShape@2@AEBVPxGeometry@2@V?$PxFlags@W4Enum@PxShapeFlag@physx@@E@2@PEBQEAVPxFEMSoftBodyMaterial@2@G_N@Z 000000018004e5b0 f   NpFactory.obj
 0001:0004d5f0       ?createShape@NpFactory@physx@@QEAAPEAVNpShape@2@AEBVPxGeometry@2@V?$PxFlags@W4Enum@PxShapeFlag@physx@@E@2@PEBQEAVPxMaterial@2@G_N@Z 000000018004e5f0 f   NpFactory.obj
 0001:0004d630       ?createSoftBody@NpFactory@physx@@QEAAPEAVPxSoftBody@2@AEAVPxCudaContextManager@2@@Z 000000018004e630 f   NpFactory.obj
 0001:0004d7a0       ?deallocate@NpPtrTableStorageManager@physx@@UEAAXPEAPEAXI@Z 000000018004e7a0 f i NpFactory.obj
 0001:0004d840       ?destroyInstance@NpFactory@physx@@SAXXZ 000000018004e840 f   NpFactory.obj
 0001:0004d8d0       ?disposeElements@?$PxPoolBase@VNpConnectorArray@physx@@V?$PxReflectionAllocator@VNpConnectorArray@physx@@@2@@physx@@IEAAXXZ 000000018004e8d0 f i NpFactory.obj
 0001:0004dad0       ?getNbShapes@NpFactory@physx@@QEBAIXZ 000000018004ead0 f   NpFactory.obj
 0001:0004dae0       ?getShapes@NpFactory@physx@@QEBAIPEAPEAVPxShape@2@II@Z 000000018004eae0 f   NpFactory.obj
 0001:0004db40       ?growAndPushBack@?$PxArray@PEAVPxAggregate@physx@@V?$PxReflectionAllocator@PEAVPxAggregate@physx@@@2@@physx@@IEAAAEAPEAVPxAggregate@2@AEBQEAV32@@Z 000000018004eb40 f i NpFactory.obj
 0001:0004dc00       ?growAndPushBack@?$PxArray@PEAVPxArticulationReducedCoordinate@physx@@V?$PxReflectionAllocator@PEAVPxArticulationReducedCoordinate@physx@@@2@@physx@@IEAAAEAPEAVPxArticulationReducedCoordinate@2@AEBQEAV32@@Z 000000018004ec00 f i NpFactory.obj
 0001:0004dcc0       ?growAndPushBack@?$PxArray@PEAVPxConstraint@physx@@V?$PxReflectionAllocator@PEAVPxConstraint@physx@@@2@@physx@@IEAAAEAPEAVPxConstraint@2@AEBQEAV32@@Z 000000018004ecc0 f i NpFactory.obj
 0001:0004dd80       ?growAndPushBack@?$PxArray@PEAVPxParticleBuffer@physx@@V?$PxReflectionAllocator@PEAVPxParticleBuffer@physx@@@2@@physx@@IEAAAEAPEAVPxParticleBuffer@2@AEBQEAV32@@Z 000000018004ed80 f i NpFactory.obj
 0001:0004de40       ?growAndPushBack@?$PxArray@PEAXV?$PxReflectionAllocator@V?$PtrBlock@$03@NpPtrTableStorageManager@physx@@@physx@@@physx@@IEAAAEAPEAXAEBQEAX@Z 000000018004ee40 f i NpFactory.obj
 0001:0004df00       ?growAndPushBack@?$PxArray@PEAXV?$PxReflectionAllocator@V?$PtrBlock@$0BA@@NpPtrTableStorageManager@physx@@@physx@@@physx@@IEAAAEAPEAXAEBQEAX@Z 000000018004ef00 f i NpFactory.obj
 0001:0004dfc0       ?growAndPushBack@?$PxArray@PEAXV?$PxReflectionAllocator@V?$PtrBlock@$0EA@@NpPtrTableStorageManager@physx@@@physx@@@physx@@IEAAAEAPEAXAEBQEAX@Z 000000018004efc0 f i NpFactory.obj
 0001:0004e080       ?growAndPushBack@?$PxArray@PEAXV?$PxReflectionAllocator@VNpAggregate@physx@@@physx@@@physx@@IEAAAEAPEAXAEBQEAX@Z 000000018004f080 f i NpFactory.obj
 0001:0004e140       ?growAndPushBack@?$PxArray@PEAXV?$PxReflectionAllocator@VNpArticulationJointReducedCoordinate@physx@@@physx@@@physx@@IEAAAEAPEAXAEBQEAX@Z 000000018004f140 f i NpFactory.obj
 0001:0004e200       ?growAndPushBack@?$PxArray@PEAXV?$PxReflectionAllocator@VNpArticulationLink@physx@@@physx@@@physx@@IEAAAEAPEAXAEBQEAX@Z 000000018004f200 f i NpFactory.obj
 0001:0004e2c0       ?growAndPushBack@?$PxArray@PEAXV?$PxReflectionAllocator@VNpArticulationReducedCoordinate@physx@@@physx@@@physx@@IEAAAEAPEAXAEBQEAX@Z 000000018004f2c0 f i NpFactory.obj
 0001:0004e380       ?growAndPushBack@?$PxArray@PEAXV?$PxReflectionAllocator@VNpConnectorArray@physx@@@physx@@@physx@@IEAAAEAPEAXAEBQEAX@Z 000000018004f380 f i NpFactory.obj
 0001:0004e440       ?growAndPushBack@?$PxArray@PEAXV?$PxReflectionAllocator@VNpConstraint@physx@@@physx@@@physx@@IEAAAEAPEAXAEBQEAX@Z 000000018004f440 f i NpFactory.obj
 0001:0004e500       ?growAndPushBack@?$PxArray@PEAXV?$PxReflectionAllocator@VNpFEMSoftBodyMaterial@physx@@@physx@@@physx@@IEAAAEAPEAXAEBQEAX@Z 000000018004f500 f i NpFactory.obj
 0001:0004e5c0       ?growAndPushBack@?$PxArray@PEAXV?$PxReflectionAllocator@VNpMaterial@physx@@@physx@@@physx@@IEAAAEAPEAXAEBQEAX@Z 000000018004f5c0 f i NpFactory.obj
 0001:0004e680       ?growAndPushBack@?$PxArray@PEAXV?$PxReflectionAllocator@VNpPBDMaterial@physx@@@physx@@@physx@@IEAAAEAPEAXAEBQEAX@Z 000000018004f680 f i NpFactory.obj
 0001:0004e740       ?growAndPushBack@?$PxArray@PEAXV?$PxReflectionAllocator@VNpPBDParticleSystem@physx@@@physx@@@physx@@IEAAAEAPEAXAEBQEAX@Z 000000018004f740 f i NpFactory.obj
 0001:0004e800       ?growAndPushBack@?$PxArray@PEAXV?$PxReflectionAllocator@VNpRigidDynamic@physx@@@physx@@@physx@@IEAAAEAPEAXAEBQEAX@Z 000000018004f800 f i NpFactory.obj
 0001:0004e8c0       ?growAndPushBack@?$PxArray@PEAXV?$PxReflectionAllocator@VNpRigidStatic@physx@@@physx@@@physx@@IEAAAEAPEAXAEBQEAX@Z 000000018004f8c0 f i NpFactory.obj
 0001:0004e980       ?growAndPushBack@?$PxArray@PEAXV?$PxReflectionAllocator@VNpShape@physx@@@physx@@@physx@@IEAAAEAPEAXAEBQEAX@Z 000000018004f980 f i NpFactory.obj
 0001:0004ea40       ?growAndPushBack@?$PxArray@PEAXV?$PxReflectionAllocator@VNpSoftBody@physx@@@physx@@@physx@@IEAAAEAPEAXAEBQEAX@Z 000000018004fa40 f i NpFactory.obj
 0001:0004eb00       ?isValid@?$PxTransformT@M@physx@@QEBA_NXZ 000000018004fb00 f i NpFactory.obj
 0001:0004ebd0       ?onActorRelease@NpFactory@physx@@QEAAXPEAVPxActor@2@@Z 000000018004fbd0 f   NpFactory.obj
 0001:0004ed00       ?onAggregateRelease@NpFactory@physx@@QEAAXPEAVPxAggregate@2@@Z 000000018004fd00 f   NpFactory.obj
 0001:0004ee30       ?onArticulationRelease@NpFactory@physx@@QEAAXPEAVPxArticulationReducedCoordinate@2@@Z 000000018004fe30 f   NpFactory.obj
 0001:0004ef60       ?onConstraintRelease@NpFactory@physx@@QEAAXPEAVPxConstraint@2@@Z 000000018004ff60 f   NpFactory.obj
 0001:0004f080       ?onParticleBufferRelease@NpFactory@physx@@SAXPEAVPxParticleBuffer@2@@Z 0000000180050080 f   NpFactory.obj
 0001:0004f1b0       ?onShapeRelease@NpFactory@physx@@QEAAXPEAVPxShape@2@@Z 00000001800501b0 f   NpFactory.obj
 0001:0004f1f0       ?recreate@?$PxArray@GV?$PxInlineAllocator@$07V?$PxReflectionAllocator@G@physx@@@physx@@@physx@@IEAAXI@Z 00000001800501f0 f i NpFactory.obj
 0001:0004f290       ?recreate@?$PxArray@PEAVPxAggregate@physx@@V?$PxReflectionAllocator@PEAVPxAggregate@physx@@@2@@physx@@IEAAXI@Z 0000000180050290 f i NpFactory.obj
 0001:0004f330       ?recreate@?$PxArray@PEAVPxConstraint@physx@@V?$PxReflectionAllocator@PEAVPxConstraint@physx@@@2@@physx@@IEAAXI@Z 0000000180050330 f i NpFactory.obj
 0001:0004f3d0       ?recreate@?$PxArray@PEAVPxParticleBuffer@physx@@V?$PxReflectionAllocator@PEAVPxParticleBuffer@physx@@@2@@physx@@IEAAXI@Z 00000001800503d0 f i NpFactory.obj
 0001:0004f470       ?recreate@?$PxArray@PEAXV?$PxReflectionAllocator@V?$PtrBlock@$03@NpPtrTableStorageManager@physx@@@physx@@@physx@@IEAAXI@Z 0000000180050470 f i NpFactory.obj
 0001:0004f510       ?recreate@?$PxArray@PEAXV?$PxReflectionAllocator@V?$PtrBlock@$0BA@@NpPtrTableStorageManager@physx@@@physx@@@physx@@IEAAXI@Z 0000000180050510 f i NpFactory.obj
 0001:0004f5b0       ?recreate@?$PxArray@PEAXV?$PxReflectionAllocator@V?$PtrBlock@$0EA@@NpPtrTableStorageManager@physx@@@physx@@@physx@@IEAAXI@Z 00000001800505b0 f i NpFactory.obj
 0001:0004f650       ?recreate@?$PxArray@PEAXV?$PxReflectionAllocator@VNpAggregate@physx@@@physx@@@physx@@IEAAXI@Z 0000000180050650 f i NpFactory.obj
 0001:0004f6f0       ?recreate@?$PxArray@PEAXV?$PxReflectionAllocator@VNpArticulationJointReducedCoordinate@physx@@@physx@@@physx@@IEAAXI@Z 00000001800506f0 f i NpFactory.obj
 0001:0004f790       ?recreate@?$PxArray@PEAXV?$PxReflectionAllocator@VNpArticulationLink@physx@@@physx@@@physx@@IEAAXI@Z 0000000180050790 f i NpFactory.obj
 0001:0004f830       ?recreate@?$PxArray@PEAXV?$PxReflectionAllocator@VNpArticulationReducedCoordinate@physx@@@physx@@@physx@@IEAAXI@Z 0000000180050830 f i NpFactory.obj
 0001:0004f8d0       ?recreate@?$PxArray@PEAXV?$PxReflectionAllocator@VNpConnectorArray@physx@@@physx@@@physx@@IEAAXI@Z 00000001800508d0 f i NpFactory.obj
 0001:0004f970       ?recreate@?$PxArray@PEAXV?$PxReflectionAllocator@VNpConstraint@physx@@@physx@@@physx@@IEAAXI@Z 0000000180050970 f i NpFactory.obj
 0001:0004fa10       ?recreate@?$PxArray@PEAXV?$PxReflectionAllocator@VNpFEMSoftBodyMaterial@physx@@@physx@@@physx@@IEAAXI@Z 0000000180050a10 f i NpFactory.obj
 0001:0004fab0       ?recreate@?$PxArray@PEAXV?$PxReflectionAllocator@VNpMaterial@physx@@@physx@@@physx@@IEAAXI@Z 0000000180050ab0 f i NpFactory.obj
 0001:0004fb50       ?recreate@?$PxArray@PEAXV?$PxReflectionAllocator@VNpPBDMaterial@physx@@@physx@@@physx@@IEAAXI@Z 0000000180050b50 f i NpFactory.obj
 0001:0004fbf0       ?recreate@?$PxArray@PEAXV?$PxReflectionAllocator@VNpPBDParticleSystem@physx@@@physx@@@physx@@IEAAXI@Z 0000000180050bf0 f i NpFactory.obj
 0001:0004fc90       ?recreate@?$PxArray@PEAXV?$PxReflectionAllocator@VNpRigidDynamic@physx@@@physx@@@physx@@IEAAXI@Z 0000000180050c90 f i NpFactory.obj
 0001:0004fd30       ?recreate@?$PxArray@PEAXV?$PxReflectionAllocator@VNpRigidStatic@physx@@@physx@@@physx@@IEAAXI@Z 0000000180050d30 f i NpFactory.obj
 0001:0004fdd0       ?recreate@?$PxArray@PEAXV?$PxReflectionAllocator@VNpShape@physx@@@physx@@@physx@@IEAAXI@Z 0000000180050dd0 f i NpFactory.obj
 0001:0004fe70       ?recreate@?$PxArray@PEAXV?$PxReflectionAllocator@VNpSoftBody@physx@@@physx@@@physx@@IEAAXI@Z 0000000180050e70 f i NpFactory.obj
 0001:0004ff10       ?releaseConnectorArray@NpFactory@physx@@QEAAXPEAVNpConnectorArray@2@@Z 0000000180050f10 f   NpFactory.obj
 0001:0004ffa0       ?releaseFEMMaterialToPool@NpFactory@physx@@QEAAXAEAVPxFEMSoftBodyMaterial@2@@Z 0000000180050fa0 f   NpFactory.obj
 0001:00050000       ?releaseMaterialToPool@NpFactory@physx@@QEAAXAEAVNpMaterial@2@@Z 0000000180051000 f   NpFactory.obj
 0001:00050060       ?releasePBDMaterialToPool@NpFactory@physx@@QEAAXAEAVPxPBDMaterial@2@@Z 0000000180051060 f   NpFactory.obj
 0001:000500c0       ?reserveInternal@?$PxHashBase@PEAVPxAggregate@physx@@PEAV12@U?$PxHash@PEAVPxAggregate@physx@@@2@UGetKey@?$PxHashSetBase@PEAVPxAggregate@physx@@U?$PxHash@PEAVPxAggregate@physx@@@2@VPxAllocator@2@$00@2@VPxAllocator@2@$00@physx@@AEAAXI@Z 00000001800510c0 f i NpScene.obj
 0001:000500c0       ?reserveInternal@?$PxHashBase@PEAVPxArticulationReducedCoordinate@physx@@PEAV12@U?$PxHash@PEAVPxArticulationReducedCoordinate@physx@@@2@UGetKey@?$PxHashSetBase@PEAVPxArticulationReducedCoordinate@physx@@U?$PxHash@PEAVPxArticulationReducedCoordinate@physx@@@2@VPxAllocator@2@$00@2@VPxAllocator@2@$00@physx@@AEAAXI@Z 00000001800510c0 f i NpScene.obj
 0001:000500c0       ?reserveInternal@?$PxHashBase@PEAVPxFEMCloth@physx@@PEAV12@U?$PxHash@PEAVPxFEMCloth@physx@@@2@UGetKey@?$PxHashSetBase@PEAVPxFEMCloth@physx@@U?$PxHash@PEAVPxFEMCloth@physx@@@2@VPxAllocator@2@$00@2@VPxAllocator@2@$00@physx@@AEAAXI@Z 00000001800510c0 f i NpScene.obj
 0001:000500c0       ?reserveInternal@?$PxHashBase@PEAVPxFLIPParticleSystem@physx@@PEAV12@U?$PxHash@PEAVPxFLIPParticleSystem@physx@@@2@UGetKey@?$PxHashSetBase@PEAVPxFLIPParticleSystem@physx@@U?$PxHash@PEAVPxFLIPParticleSystem@physx@@@2@VPxAllocator@2@$00@2@VPxAllocator@2@$00@physx@@AEAAXI@Z 00000001800510c0 f i NpScene.obj
 0001:000500c0       ?reserveInternal@?$PxHashBase@PEAVPxHairSystem@physx@@PEAV12@U?$PxHash@PEAVPxHairSystem@physx@@@2@UGetKey@?$PxHashSetBase@PEAVPxHairSystem@physx@@U?$PxHash@PEAVPxHairSystem@physx@@@2@VPxAllocator@2@$00@2@VPxAllocator@2@$00@physx@@AEAAXI@Z 00000001800510c0 f i NpScene.obj
 0001:000500c0       ?reserveInternal@?$PxHashBase@PEAVPxMPMParticleSystem@physx@@PEAV12@U?$PxHash@PEAVPxMPMParticleSystem@physx@@@2@UGetKey@?$PxHashSetBase@PEAVPxMPMParticleSystem@physx@@U?$PxHash@PEAVPxMPMParticleSystem@physx@@@2@VPxAllocator@2@$00@2@VPxAllocator@2@$00@physx@@AEAAXI@Z 00000001800510c0 f i NpScene.obj
 0001:000500c0       ?reserveInternal@?$PxHashBase@PEAVPxPBDParticleSystem@physx@@PEAV12@U?$PxHash@PEAVPxPBDParticleSystem@physx@@@2@UGetKey@?$PxHashSetBase@PEAVPxPBDParticleSystem@physx@@U?$PxHash@PEAVPxPBDParticleSystem@physx@@@2@VPxAllocator@2@$00@2@VPxAllocator@2@$00@physx@@AEAAXI@Z 00000001800510c0 f i NpScene.obj
 0001:000500c0       ?reserveInternal@?$PxHashBase@PEAVPxShape@physx@@PEAV12@U?$PxHash@PEAVPxShape@physx@@@2@UGetKey@?$PxHashSetBase@PEAVPxShape@physx@@U?$PxHash@PEAVPxShape@physx@@@2@VPxAllocator@2@$00@2@VPxAllocator@2@$00@physx@@AEAAXI@Z 00000001800510c0 f i NpFactory.obj
 0001:000500c0       ?reserveInternal@?$PxHashBase@PEAVPxSoftBody@physx@@PEAV12@U?$PxHash@PEAVPxSoftBody@physx@@@2@UGetKey@?$PxHashSetBase@PEAVPxSoftBody@physx@@U?$PxHash@PEAVPxSoftBody@physx@@@2@VPxAllocator@2@$00@2@VPxAllocator@2@$00@physx@@AEAAXI@Z 00000001800510c0 f i NpScene.obj
 0001:00050290       ?resize@?$PxArray@GV?$PxInlineAllocator@$07V?$PxReflectionAllocator@G@physx@@@physx@@@physx@@QEAAXIAEBG@Z 0000000180051290 f i NpFactory.obj
 0001:00050350       ?setNpFactoryListener@NpFactory@physx@@QEAAXAEAVNpFactoryListener@2@@Z 0000000180051350 f   NpFactory.obj
 0001:00050360       ?getBinaryMetaData@NpAggregate@physx@@SAXAEAVPxOutputStream@2@@Z 0000000180051360 f   NpMetaData.obj
 0001:00050660       ?getBinaryMetaData@NpArticulationAttachment@physx@@SAXAEAVPxOutputStream@2@@Z 0000000180051660 f   NpMetaData.obj
 0001:00050930       ?getBinaryMetaData@NpArticulationAttachmentArray@physx@@SAXAEAVPxOutputStream@2@@Z 0000000180051930 f   NpMetaData.obj
 0001:00050b60       ?getBinaryMetaData@NpArticulationFixedTendon@physx@@SAXAEAVPxOutputStream@2@@Z 0000000180051b60 f   NpMetaData.obj
 0001:00050dc0       ?getBinaryMetaData@NpArticulationLink@physx@@SAXAEAVPxOutputStream@2@@Z 0000000180051dc0 f   NpMetaData.obj
 0001:00051150       ?getBinaryMetaData@NpArticulationLinkArray@physx@@SAXAEAVPxOutputStream@2@@Z 0000000180052150 f   NpMetaData.obj
 0001:00051380       ?getBinaryMetaData@NpArticulationReducedCoordinate@physx@@SAXAEAVPxOutputStream@2@@Z 0000000180052380 f   NpMetaData.obj
 0001:00051bf0       ?getBinaryMetaData@NpArticulationSpatialTendon@physx@@SAXAEAVPxOutputStream@2@@Z 0000000180052bf0 f   NpMetaData.obj
 0001:00051e50       ?getBinaryMetaData@NpArticulationTendonJoint@physx@@SAXAEAVPxOutputStream@2@@Z 0000000180052e50 f   NpMetaData.obj
 0001:00052100       ?getBinaryMetaData@NpArticulationTendonJointArray@physx@@SAXAEAVPxOutputStream@2@@Z 0000000180053100 f   NpMetaData.obj
 0001:00052330       ?getBinaryMetaData@NpConnectorArray@physx@@SAXAEAVPxOutputStream@2@@Z 0000000180053330 f   NpMetaData.obj
 0001:00052560       ?getBinaryMetaData@NpRigidDynamic@physx@@SAXAEAVPxOutputStream@2@@Z 0000000180053560 f   NpMetaData.obj
 0001:00052770       ?getBinaryMetaData@NpRigidStatic@physx@@SAXAEAVPxOutputStream@2@@Z 0000000180053770 f   NpMetaData.obj
 0001:000537b0       PxGetPhysicsBinaryMetaData 00000001800547b0 f   NpMetaData.obj
 0001:00054680       ??0NpPhysics@physx@@IEAA@AEBVPxTolerancesScale@1@AEBUPxvOffsetTable@1@_NPEAVPsPvd@pvdsdk@1@AEAVPxFoundation@1@PEAVPxOmniPvd@1@@Z 0000000180055680 f   NpPhysics.obj
 0001:00054b20       ??1NpPhysics@physx@@MEAA@XZ 0000000180055b20 f   NpPhysics.obj
 0001:00055110       ??_ENpPhysics@physx@@MEAAPEAXI@Z 0000000180056110 f i NpPhysics.obj
 0001:00055110       ??_GNpPhysics@physx@@MEAAPEAXI@Z 0000000180056110 f i NpPhysics.obj
 0001:00055180       ??_ECmEventNameProvider@pvdsdk@physx@@UEAAPEAXI@Z 0000000180056180 f i PhysXPvdSDK_static_64:PxPvdImpl.obj
 0001:00055180       ??_ENpPhysicsInsertionCallback@physx@@UEAAPEAXI@Z 0000000180056180 f i NpPhysics.obj
 0001:00055180       ??_EPxInsertionCallback@physx@@MEAAPEAXI@Z 0000000180056180 f i NpPhysics.obj
 0001:00055180       ??_EPxProfileNameProvider@profile@physx@@MEAAPEAXI@Z 0000000180056180 f i PhysXPvdSDK_static_64:PxPvdImpl.obj
 0001:00055180       ??_ESqBoundsSync@Sc@physx@@UEAAPEAXI@Z 0000000180056180 f i NpSceneQueries.obj
 0001:00055180       ??_ESqRefFinder@Sc@physx@@UEAAPEAXI@Z 0000000180056180 f i NpSceneQueries.obj
 0001:00055180       ??_GCmEventNameProvider@pvdsdk@physx@@UEAAPEAXI@Z 0000000180056180 f i PhysXPvdSDK_static_64:PxPvdImpl.obj
 0001:00055180       ??_GNpPhysicsInsertionCallback@physx@@UEAAPEAXI@Z 0000000180056180 f i NpPhysics.obj
 0001:00055180       ??_GPxInsertionCallback@physx@@MEAAPEAXI@Z 0000000180056180 f i NpPhysics.obj
 0001:00055180       ??_GPxProfileNameProvider@profile@physx@@MEAAPEAXI@Z 0000000180056180 f i PhysXPvdSDK_static_64:PxPvdImpl.obj
 0001:00055180       ??_GSqBoundsSync@Sc@physx@@UEAAPEAXI@Z 0000000180056180 f i NpSceneQueries.obj
 0001:00055180       ??_GSqRefFinder@Sc@physx@@UEAAPEAXI@Z 0000000180056180 f i NpSceneQueries.obj
 0001:000551b0       ??_EPxPhysics@physx@@UEAAPEAXI@Z 00000001800561b0 f i NpPhysics.obj
 0001:000551b0       ??_GPxPhysics@physx@@UEAAPEAXI@Z 00000001800561b0 f i NpPhysics.obj
 0001:000551e0       ?addMaterial@NpPhysics@physx@@QEAAPEAVNpFEMSoftBodyMaterial@2@PEAV32@@Z 00000001800561e0 f   NpPhysics.obj
 0001:000552e0       ?addMaterial@NpPhysics@physx@@QEAAPEAVNpMaterial@2@PEAV32@@Z 00000001800562e0 f   NpPhysics.obj
 0001:000553e0       ?buildObjectFromData@NpPhysicsInsertionCallback@physx@@UEAAPEAVPxBase@2@W4Enum@PxConcreteType@2@PEAX@Z 00000001800563e0 f i NpPhysics.obj
 0001:000554c0       ?createAggregate@NpPhysics@physx@@UEAAPEAVPxAggregate@2@III@Z 00000001800564c0 f   NpPhysics.obj
 0001:00055520       ?createArticulationReducedCoordinate@NpPhysics@physx@@UEAAPEAVPxArticulationReducedCoordinate@2@XZ 0000000180056520 f   NpPhysics.obj
 0001:00055530       ?createBVH@NpPhysics@physx@@UEAAPEAVPxBVH@2@AEAVPxInputStream@2@@Z 0000000180056530 f   NpPhysics.obj
 0001:00055540       ?createConstraint@NpPhysics@physx@@UEAAPEAVPxConstraint@2@PEAVPxRigidActor@2@0AEAVPxConstraintConnector@2@AEBUPxConstraintShaderTable@2@I@Z 0000000180056540 f   NpPhysics.obj
 0001:00055550       ?createConvexMesh@NpPhysics@physx@@UEAAPEAVPxConvexMesh@2@AEAVPxInputStream@2@@Z 0000000180056550 f   NpPhysics.obj
 0001:00055560       ?createFEMSoftBodyMaterial@NpPhysics@physx@@UEAAPEAVPxFEMSoftBodyMaterial@2@MMM@Z 0000000180056560 f   NpPhysics.obj
 0001:00055670       ?createHeightField@NpPhysics@physx@@UEAAPEAVPxHeightField@2@AEAVPxInputStream@2@@Z 0000000180056670 f   NpPhysics.obj
 0001:00055680       ?createInstance@NpPhysics@physx@@SAPEAV12@IAEAVPxFoundation@2@AEBVPxTolerancesScale@2@_NPEAVPsPvd@pvdsdk@2@PEAVPxOmniPvd@2@@Z 0000000180056680 f   NpPhysics.obj
 0001:00055970       ?createMaterial@NpPhysics@physx@@UEAAPEAVPxMaterial@2@MMM@Z 0000000180056970 f   NpPhysics.obj
 0001:00055a80       ?createPBDMaterial@NpPhysics@physx@@UEAAPEAVPxPBDMaterial@2@MMMMMMMMMMM@Z 0000000180056a80 f   NpPhysics.obj
 0001:00055c20       ?createPBDParticleSystem@NpPhysics@physx@@UEAAPEAVPxPBDParticleSystem@2@AEAVPxCudaContextManager@2@I@Z 0000000180056c20 f   NpPhysics.obj
 0001:00055c40       ?createParticleAndDiffuseBuffer@NpPhysics@physx@@UEAAPEAVPxParticleAndDiffuseBuffer@2@IIIPEAVPxCudaContextManager@2@@Z 0000000180056c40 f   NpPhysics.obj
 0001:00055c50       ?createParticleBuffer@NpPhysics@physx@@UEAAPEAVPxParticleBuffer@2@IIPEAVPxCudaContextManager@2@@Z 0000000180056c50 f   NpPhysics.obj
 0001:00055c60       ?createParticleClothBuffer@NpPhysics@physx@@UEAAPEAVPxParticleClothBuffer@2@IIIIIPEAVPxCudaContextManager@2@@Z 0000000180056c60 f   NpPhysics.obj
 0001:00055c70       ?createParticleRigidBuffer@NpPhysics@physx@@UEAAPEAVPxParticleRigidBuffer@2@IIIPEAVPxCudaContextManager@2@@Z 0000000180056c70 f   NpPhysics.obj
 0001:00055c80       ?createPruningStructure@NpPhysics@physx@@UEAAPEAVPxPruningStructure@2@PEBQEAVPxRigidActor@2@I@Z 0000000180056c80 f   NpPhysics.obj
 0001:00055d70       ?createRigidDynamic@NpPhysics@physx@@UEAAPEAVPxRigidDynamic@2@AEBV?$PxTransformT@M@2@@Z 0000000180056d70 f   NpPhysics.obj
 0001:00055e80       ?createRigidStatic@NpPhysics@physx@@UEAAPEAVPxRigidStatic@2@AEBV?$PxTransformT@M@2@@Z 0000000180056e80 f   NpPhysics.obj
 0001:00055f90       ?createScene@NpPhysics@physx@@UEAAPEAVPxScene@2@AEBVPxSceneDesc@2@@Z 0000000180056f90 f   NpPhysics.obj
 0001:000561f0       ?createShape@NpPhysics@physx@@UEAAPEAVPxShape@2@AEBVPxGeometry@2@PEBQEAVPxFEMSoftBodyMaterial@2@G_NV?$PxFlags@W4Enum@PxShapeFlag@physx@@E@2@@Z 00000001800571f0 f   NpPhysics.obj
 0001:000562b0       ?createShape@NpPhysics@physx@@UEAAPEAVPxShape@2@AEBVPxGeometry@2@PEBQEAVPxMaterial@2@G_NV?$PxFlags@W4Enum@PxShapeFlag@physx@@E@2@@Z 00000001800572b0 f   NpPhysics.obj
 0001:00056390       ?createSoftBody@NpPhysics@physx@@UEAAPEAVPxSoftBody@2@AEAVPxCudaContextManager@2@@Z 0000000180057390 f   NpPhysics.obj
 0001:000563a0       ?createSoftBodyMesh@NpPhysics@physx@@UEAAPEAVPxSoftBodyMesh@2@AEAVPxInputStream@2@@Z 00000001800573a0 f   NpPhysics.obj
 0001:000563b0       ?createTetrahedronMesh@NpPhysics@physx@@UEAAPEAVPxTetrahedronMesh@2@AEAVPxInputStream@2@@Z 00000001800573b0 f   NpPhysics.obj
 0001:000563c0       ?createTriangleMesh@NpPhysics@physx@@UEAAPEAVPxTriangleMesh@2@AEAVPxInputStream@2@@Z 00000001800573c0 f   NpPhysics.obj
 0001:000563d0       ?getBVHs@NpPhysics@physx@@UEBAIPEAPEAVPxBVH@2@II@Z 00000001800573d0 f   NpPhysics.obj
 0001:000563e0       ?getConvexMeshes@NpPhysics@physx@@UEBAIPEAPEAVPxConvexMesh@2@II@Z 00000001800573e0 f   NpPhysics.obj
 0001:000563f0       ?getFEMSoftBodyMaterials@NpPhysics@physx@@UEBAIPEAPEAVPxFEMSoftBodyMaterial@2@II@Z 00000001800573f0 f   NpPhysics.obj
 0001:000564b0       ?getHeightFields@NpPhysics@physx@@UEBAIPEAPEAVPxHeightField@2@II@Z 00000001800574b0 f   NpPhysics.obj
 0001:000564c0       ?getMaterials@NpPhysics@physx@@UEBAIPEAPEAVPxMaterial@2@II@Z 00000001800574c0 f   NpPhysics.obj
 0001:00056580       ?getNbBVHs@NpPhysics@physx@@UEBAIXZ 0000000180057580 f   NpPhysics.obj
 0001:00056590       ?getNbConvexMeshes@NpPhysics@physx@@UEBAIXZ 0000000180057590 f   NpPhysics.obj
 0001:000565a0       ?getNbFEMSoftBodyMaterials@NpPhysics@physx@@UEBAIXZ 00000001800575a0 f   NpPhysics.obj
 0001:000565e0       ?getNbHeightFields@NpPhysics@physx@@UEBAIXZ 00000001800575e0 f   NpPhysics.obj
 0001:000565f0       ?getNbMaterials@NpPhysics@physx@@UEBAIXZ 00000001800575f0 f   NpPhysics.obj
 0001:00056630       ?getNbPBDMaterials@NpPhysics@physx@@UEBAIXZ 0000000180057630 f   NpPhysics.obj
 0001:00056670       ?getNbScenes@NpPhysics@physx@@UEBAIXZ 0000000180057670 f   NpPhysics.obj
 0001:000566b0       ?getNbShapes@NpPhysics@physx@@UEBAIXZ 00000001800576b0 f   NpPhysics.obj
 0001:000566c0       ?getNbTetrahedronMeshes@NpPhysics@physx@@UEBAIXZ 00000001800576c0 f   NpPhysics.obj
 0001:000566d0       ?getNbTriangleMeshes@NpPhysics@physx@@UEBAIXZ 00000001800576d0 f   NpPhysics.obj
 0001:000566e0       ?getPBDMaterials@NpPhysics@physx@@UEBAIPEAPEAVPxPBDMaterial@2@II@Z 00000001800576e0 f   NpPhysics.obj
 0001:000567a0       ?getPhysicsInsertionCallback@NpPhysics@physx@@UEAAAEAVPxInsertionCallback@2@XZ 00000001800577a0 f i NpPhysics.obj
 0001:000567b0       ?getScenes@NpPhysics@physx@@UEBAIPEAPEAVPxScene@2@II@Z 00000001800577b0 f   NpPhysics.obj
 0001:00056840       ?getShapes@NpPhysics@physx@@UEBAIPEAPEAVPxShape@2@II@Z 0000000180057840 f   NpPhysics.obj
 0001:00056850       ?getTetrahedronMeshes@NpPhysics@physx@@UEBAIPEAPEAVPxTetrahedronMesh@2@II@Z 0000000180057850 f   NpPhysics.obj
 0001:00056860       ?getTolerancesScale@NpPhysics@physx@@UEBAAEBVPxTolerancesScale@2@XZ 0000000180057860 f   NpPhysics.obj
 0001:00056870       ?getTriangleMeshes@NpPhysics@physx@@UEBAIPEAPEAVPxTriangleMesh@2@II@Z 0000000180057870 f   NpPhysics.obj
 0001:00056880       ?growAndPushBack@?$PxArray@PEAVNpScene@physx@@V?$PxReflectionAllocator@PEAVNpScene@physx@@@2@@physx@@IEAAAEAPEAVNpScene@2@AEBQEAV32@@Z 0000000180057880 f i NpPhysics.obj
 0001:000569b0       ?isSane@?$PxTransformT@M@physx@@QEBA_NXZ 00000001800579b0 f i NpPhysics.obj
 0001:00056a80       ?isValid@PxSceneDesc@physx@@QEBA_NXZ 0000000180057a80 f i NpPhysics.obj
 0001:00056ce0       ?notifyDeletionListeners@NpPhysics@physx@@QEAAXPEBVPxBase@2@PEAXW4Enum@PxDeletionEventFlag@2@@Z 0000000180057ce0 f   NpPhysics.obj
 0001:00056e40       ?onMeshFactoryBufferRelease@MeshDeletionListener@NpPhysics@physx@@UEAAXPEBVPxBase@3@G@Z 0000000180057e40 f i NpPhysics.obj
 0001:00056f90       ?onObjectAdd@OmniPvdListener@NpPhysics@physx@@UEAAXPEBVPxBase@3@@Z 0000000180057f90 f   NpPhysics.obj
 0001:00056fb0       ?onObjectRemove@OmniPvdListener@NpPhysics@physx@@UEAAXPEBVPxBase@3@@Z 0000000180057fb0 f   NpPhysics.obj
 0001:00056fd0       ?registerDeletionListener@NpPhysics@physx@@UEAAXAEAVPxDeletionListener@2@AEBV?$PxFlags@W4Enum@PxDeletionEventFlag@physx@@E@2@_N@Z 0000000180057fd0 f   NpPhysics.obj
 0001:000571d0       ?registerDeletionListenerObjects@NpPhysics@physx@@UEAAXAEAVPxDeletionListener@2@PEBQEBVPxBase@2@I@Z 00000001800581d0 f   NpPhysics.obj
 0001:00057360       ?release@NpPhysics@physx@@UEAAXXZ 0000000180058360 f   NpPhysics.obj
 0001:000573d0       ?releaseSceneInternal@NpPhysics@physx@@QEAAXAEAVPxScene@2@@Z 00000001800583d0 f   NpPhysics.obj
 0001:00057470       ?removeMaterialFromTable@NpPhysics@physx@@QEAAXAEAVNpFEMSoftBodyMaterial@2@@Z 0000000180058470 f   NpPhysics.obj
 0001:00057560       ?removeMaterialFromTable@NpPhysics@physx@@QEAAXAEAVNpMaterial@2@@Z 0000000180058560 f   NpPhysics.obj
 0001:00057650       ?removeMaterialFromTable@NpPhysics@physx@@QEAAXAEAVNpPBDMaterial@2@@Z 0000000180058650 f   NpPhysics.obj
 0001:00057750       ?sendMaterialTable@NpPhysics@physx@@QEAA_NAEAVNpScene@2@@Z 0000000180058750 f   NpPhysics.obj
 0001:00057860       ?setMaterial@?$NpMaterialManager@VNpFEMSoftBodyMaterial@physx@@@physx@@QEAA_NAEAVNpFEMSoftBodyMaterial@2@@Z 0000000180058860 f i NpPhysics.obj
 0001:000579a0       ?setMaterial@?$NpMaterialManager@VNpMaterial@physx@@@physx@@QEAA_NAEAVNpMaterial@2@@Z 00000001800589a0 f i NpPhysics.obj
 0001:00057ae0       ?setMaterial@?$NpMaterialManager@VNpPBDMaterial@physx@@@physx@@QEAA_NAEAVNpPBDMaterial@2@@Z 0000000180058ae0 f i NpPhysics.obj
 0001:00057c20       ?unregisterDeletionListener@NpPhysics@physx@@UEAAXAEAVPxDeletionListener@2@@Z 0000000180058c20 f   NpPhysics.obj
 0001:00057d70       ?unregisterDeletionListenerObjects@NpPhysics@physx@@UEAAXAEAVPxDeletionListener@2@PEBQEBVPxBase@2@I@Z 0000000180058d70 f   NpPhysics.obj
 0001:00057fa0       ?updateMaterial@NpPhysics@physx@@QEAAXAEAVNpFEMSoftBodyMaterial@2@@Z 0000000180058fa0 f   NpPhysics.obj
 0001:00058030       ?updateMaterial@NpPhysics@physx@@QEAAXAEAVNpMaterial@2@@Z 0000000180059030 f   NpPhysics.obj
 0001:000580c0       ?updateMaterial@NpPhysics@physx@@QEAAXAEAVNpPBDMaterial@2@@Z 00000001800590c0 f   NpPhysics.obj
 0001:00058150       PxAddCollectionToPhysics   0000000180059150 f   NpPhysics.obj
 0001:00058160       PxCreatePhysics            0000000180059160 f   NpPhysics.obj
 0001:00058170       PxGetPhysics               0000000180059170 f   NpPhysics.obj
 0001:000585f0       ??0PruningStructure@Sq@physx@@QEAA@XZ 00000001800595f0 f   NpPruningStructure.obj
 0001:00058640       ??_EPruningStructure@Sq@physx@@UEAAPEAXI@Z 0000000180059640 f i NpPruningStructure.obj
 0001:00058640       ??_GPruningStructure@Sq@physx@@UEAAPEAXI@Z 0000000180059640 f i NpPruningStructure.obj
 0001:00058750       ?build@PruningStructure@Sq@physx@@QEAA_NPEBQEAVPxRigidActor@3@I@Z 0000000180059750 f   NpPruningStructure.obj
 0001:00058da0       ?createObject@PruningStructure@Sq@physx@@SAPEAV123@AEAPEAEAEAVPxDeserializationContext@3@@Z 0000000180059da0 f   NpPruningStructure.obj
 0001:00058ee0       ?exportExtraData@PruningStructure@Sq@physx@@QEAAXAEAVPxSerializationContext@3@@Z 0000000180059ee0 f   NpPruningStructure.obj
 0001:00058fe0       ?getConcreteTypeName@PxPruningStructure@physx@@UEBAPEBDXZ 0000000180059fe0 f i NpPruningStructure.obj
 0001:00058ff0       ?getDynamicMergeData@PruningStructure@Sq@physx@@UEBAPEBXXZ 0000000180059ff0 f   NpPruningStructure.obj
 0001:00059000       ?getRigidActors@PruningStructure@Sq@physx@@UEBAIPEAPEAVPxRigidActor@3@II@Z 000000018005a000 f   NpPruningStructure.obj
 0001:00059090       ?getStaticMergeData@PruningStructure@Sq@physx@@UEBAPEBXXZ 000000018005a090 f   NpPruningStructure.obj
 0001:000590a0       ?invalidate@PruningStructure@Sq@physx@@QEAAXPEAVPxActor@3@@Z 000000018005a0a0 f   NpPruningStructure.obj
 0001:00059130       ?isKindOf@PxPruningStructure@physx@@MEBA_NPEBD@Z 000000018005a130 f i NpPruningStructure.obj
 0001:00059180       ?release@PruningStructure@Sq@physx@@UEAAXXZ 000000018005a180 f   NpPruningStructure.obj
 0001:000591e0       ?requiresObjects@PruningStructure@Sq@physx@@UEAAXAEAVPxProcessPxBaseCallback@3@@Z 000000018005a1e0 f   NpPruningStructure.obj
 0001:00059230       ?resolveReferences@PruningStructure@Sq@physx@@UEAAXAEAVPxDeserializationContext@3@@Z 000000018005a230 f   NpPruningStructure.obj
 0001:000592a0       ??0NpReadCheck@physx@@QEAA@PEBVNpScene@1@PEBD@Z 000000018005a2a0 f   NpCheck.obj
 0001:00059360       ??0NpWriteCheck@physx@@QEAA@PEAVNpScene@1@PEBD_N@Z 000000018005a360 f   NpCheck.obj
 0001:00059450       ??1NpReadCheck@physx@@QEAA@XZ 000000018005a450 f   NpCheck.obj
 0001:000594e0       ??1NpWriteCheck@physx@@QEAA@XZ 000000018005a4e0 f   NpCheck.obj
 0001:000595f0       ??0NpRigidDynamic@physx@@QEAA@AEBV?$PxTransformT@M@1@@Z 000000018005a5f0 f   NpRigidDynamic.obj
 0001:00059680       ??_E?$NpActorTemplate@VPxRigidDynamic@physx@@@physx@@UEAAPEAXI@Z 000000018005a680 f i NpRigidDynamic.obj
 0001:00059680       ??_G?$NpActorTemplate@VPxRigidDynamic@physx@@@physx@@UEAAPEAXI@Z 000000018005a680 f i NpRigidDynamic.obj
 0001:00059700       ??_E?$NpRigidActorTemplate@VPxRigidDynamic@physx@@@physx@@UEAAPEAXI@Z 000000018005a700 f i NpRigidDynamic.obj
 0001:00059700       ??_G?$NpRigidActorTemplate@VPxRigidDynamic@physx@@@physx@@UEAAPEAXI@Z 000000018005a700 f i NpRigidDynamic.obj
 0001:00059790       ??_E?$NpRigidBodyTemplate@VPxRigidDynamic@physx@@@physx@@UEAAPEAXI@Z 000000018005a790 f i NpRigidDynamic.obj
 0001:00059790       ??_ENpRigidDynamic@physx@@UEAAPEAXI@Z 000000018005a790 f i NpRigidDynamic.obj
 0001:00059790       ??_G?$NpRigidBodyTemplate@VPxRigidDynamic@physx@@@physx@@UEAAPEAXI@Z 000000018005a790 f i NpRigidDynamic.obj
 0001:00059790       ??_GNpRigidDynamic@physx@@UEAAPEAXI@Z 000000018005a790 f i NpRigidDynamic.obj
 0001:00059830       ?NpArticulationGetShapes@physx@@YAIAEAVNpArticulationLink@1@AEAPEBQEAVNpShape@1@PEA_N@Z 000000018005a830 f   NpArticulationLink.obj
 0001:00059830       ?NpRigidDynamicGetShapes@physx@@YAIAEAVNpRigidDynamic@1@AEAPEBQEAVNpShape@1@PEA_N@Z 000000018005a830 f   NpRigidDynamic.obj
 0001:00059860       ?addForce@NpRigidDynamic@physx@@UEAAXAEBV?$PxVec3T@M@2@W4Enum@PxForceMode@2@_N@Z 000000018005a860 f   NpRigidDynamic.obj
 0001:00059a00       ?addSpatialForce@?$NpRigidBodyTemplate@VPxRigidDynamic@physx@@@physx@@IEAAXPEBV?$PxVec3T@M@2@0W4Enum@PxForceMode@2@@Z 000000018005aa00 f i NpRigidDynamic.obj
 0001:00059c60       ?addTorque@NpRigidDynamic@physx@@UEAAXAEBV?$PxVec3T@M@2@W4Enum@PxForceMode@2@_N@Z 000000018005ac60 f   NpRigidDynamic.obj
 0001:00059e00       ?attachShape@?$NpRigidActorTemplate@VPxRigidDynamic@physx@@@physx@@UEAA_NAEAVPxShape@2@@Z 000000018005ae00 f i NpRigidDynamic.obj
 0001:00059fb0       ?attachShape@?$NpRigidBodyTemplate@VPxRigidDynamic@physx@@@physx@@UEAA_NAEAVPxShape@2@@Z 000000018005afb0 f i NpRigidDynamic.obj
 0001:0005a100       ?clearForce@NpRigidDynamic@physx@@UEAAXW4Enum@PxForceMode@2@@Z 000000018005b100 f   NpRigidDynamic.obj
 0001:0005a240       ?clearTorque@NpRigidDynamic@physx@@UEAAXW4Enum@PxForceMode@2@@Z 000000018005b240 f   NpRigidDynamic.obj
 0001:0005a380       ?createObject@NpRigidDynamic@physx@@SAPEAV12@AEAPEAEAEAVPxDeserializationContext@2@@Z 000000018005b380 f   NpRigidDynamic.obj
 0001:0005a430       ?detachShape@?$NpRigidActorTemplate@VPxRigidDynamic@physx@@@physx@@UEAAXAEAVPxShape@2@_N@Z 000000018005b430 f i NpRigidDynamic.obj
 0001:0005a560       ?exportExtraData@?$NpRigidActorTemplate@VPxArticulationLink@physx@@@physx@@UEAAXAEAVPxSerializationContext@2@@Z 000000018005b560 f i NpArticulationLink.obj
 0001:0005a560       ?exportExtraData@?$NpRigidActorTemplate@VPxRigidDynamic@physx@@@physx@@UEAAXAEAVPxSerializationContext@2@@Z 000000018005b560 f i NpRigidDynamic.obj
 0001:0005a560       ?exportExtraData@?$NpRigidActorTemplate@VPxRigidStatic@physx@@@physx@@UEAAXAEAVPxSerializationContext@2@@Z 000000018005b560 f i NpRigidStatic.obj
 0001:0005a590       ?getActorFlags@?$NpActorTemplate@VPxRigidDynamic@physx@@@physx@@UEBA?AV?$PxFlags@W4Enum@PxActorFlag@physx@@E@2@XZ 000000018005b590 f i NpRigidDynamic.obj
 0001:0005a5f0       ?getAngularDamping@?$NpRigidBodyTemplate@VPxRigidDynamic@physx@@@physx@@UEBAMXZ 000000018005b5f0 f i NpRigidDynamic.obj
 0001:0005a640       ?getAngularVelocity@?$NpRigidBodyTemplate@VPxRigidDynamic@physx@@@physx@@UEBA?AV?$PxVec3T@M@2@XZ 000000018005b640 f i NpRigidDynamic.obj
 0001:0005a6f0       ?getCMassLocalPose@?$NpRigidBodyTemplate@VPxRigidDynamic@physx@@@physx@@UEBA?AV?$PxTransformT@M@2@XZ 000000018005b6f0 f i NpRigidDynamic.obj
 0001:0005a770       ?getConcreteTypeName@PxRigidDynamic@physx@@UEBAPEBDXZ 000000018005b770 f i NpRigidDynamic.obj
 0001:0005a780       ?getConstraints@?$NpRigidActorTemplate@VPxRigidDynamic@physx@@@physx@@UEBAIPEAPEAVPxConstraint@2@II@Z 000000018005b780 f i NpRigidDynamic.obj
 0001:0005a830       ?getContactReportThreshold@NpRigidDynamic@physx@@UEBAMXZ 000000018005b830 f   NpRigidDynamic.obj
 0001:0005a880       ?getContactSlopCoefficient@?$NpRigidBodyTemplate@VPxRigidDynamic@physx@@@physx@@UEBAMXZ 000000018005b880 f i NpRigidDynamic.obj
 0001:0005a8d0       ?getDominanceGroup@?$NpActorTemplate@VPxRigidDynamic@physx@@@physx@@UEBAEXZ 000000018005b8d0 f i NpRigidDynamic.obj
 0001:0005a920       ?getGlobalPose@NpRigidDynamic@physx@@UEBA?AV?$PxTransformT@M@2@XZ 000000018005b920 f i NpRigidDynamic.obj
 0001:0005ade0       ?getInternalActorIndex@?$NpRigidActorTemplate@VPxRigidDynamic@physx@@@physx@@UEBAIXZ 000000018005bde0 f i NpRigidDynamic.obj
 0001:0005ae30       ?getInternalIslandNodeIndex@?$NpRigidBodyTemplate@VPxRigidDynamic@physx@@@physx@@UEBA?AVPxNodeIndex@2@XZ 000000018005be30 f i NpRigidDynamic.obj
 0001:0005ae80       ?getInvMass@?$NpRigidBodyTemplate@VPxRigidDynamic@physx@@@physx@@UEBAMXZ 000000018005be80 f i NpRigidDynamic.obj
 0001:0005aed0       ?getKinematicTarget@NpRigidDynamic@physx@@UEBA_NAEAV?$PxTransformT@M@2@@Z 000000018005bed0 f   NpRigidDynamic.obj
 0001:0005b300       ?getLinearDamping@?$NpRigidBodyTemplate@VPxRigidDynamic@physx@@@physx@@UEBAMXZ 000000018005c300 f i NpRigidDynamic.obj
 0001:0005b350       ?getLinearVelocity@?$NpRigidBodyTemplate@VPxRigidDynamic@physx@@@physx@@UEBA?AV?$PxVec3T@M@2@XZ 000000018005c350 f i NpRigidDynamic.obj
 0001:0005b400       ?getMass@?$NpRigidBodyTemplate@VPxRigidDynamic@physx@@@physx@@UEBAMXZ 000000018005c400 f i NpRigidDynamic.obj
 0001:0005b460       ?getMassSpaceInertiaTensor@?$NpRigidBodyTemplate@VPxRigidDynamic@physx@@@physx@@UEBA?AV?$PxVec3T@M@2@XZ 000000018005c460 f i NpRigidDynamic.obj
 0001:0005b500       ?getMassSpaceInvInertiaTensor@?$NpRigidBodyTemplate@VPxRigidDynamic@physx@@@physx@@UEBA?AV?$PxVec3T@M@2@XZ 000000018005c500 f i NpRigidDynamic.obj
 0001:0005b560       ?getMaxAngularVelocity@?$NpRigidBodyTemplate@VPxRigidDynamic@physx@@@physx@@UEBAMXZ 000000018005c560 f i NpRigidDynamic.obj
 0001:0005b5b0       ?getMaxContactImpulse@?$NpRigidBodyTemplate@VPxRigidDynamic@physx@@@physx@@UEBAMXZ 000000018005c5b0 f i NpRigidDynamic.obj
 0001:0005b600       ?getMaxDepenetrationVelocity@?$NpRigidBodyTemplate@VPxRigidDynamic@physx@@@physx@@UEBAMXZ 000000018005c600 f i NpRigidDynamic.obj
 0001:0005b650       ?getMaxLinearVelocity@?$NpRigidBodyTemplate@VPxRigidDynamic@physx@@@physx@@UEBAMXZ 000000018005c650 f i NpRigidDynamic.obj
 0001:0005b6a0       ?getMinCCDAdvanceCoefficient@?$NpRigidBodyTemplate@VPxRigidDynamic@physx@@@physx@@UEBAMXZ 000000018005c6a0 f i NpRigidDynamic.obj
 0001:0005b6f0       ?getName@?$NpActorTemplate@VPxRigidDynamic@physx@@@physx@@UEBAPEBDXZ 000000018005c6f0 f i NpRigidDynamic.obj
 0001:0005b730       ?getNbConstraints@?$NpRigidActorTemplate@VPxRigidDynamic@physx@@@physx@@UEBAIXZ 000000018005c730 f i NpRigidDynamic.obj
 0001:0005b770       ?getNbShapes@?$NpRigidActorTemplate@VPxRigidDynamic@physx@@@physx@@UEBAIXZ 000000018005c770 f i NpRigidDynamic.obj
 0001:0005b7b0       ?getRigidBodyFlags@?$NpRigidBodyTemplate@VPxRigidDynamic@physx@@@physx@@UEBA?AV?$PxFlags@W4Enum@PxRigidBodyFlag@physx@@G@2@XZ 000000018005c7b0 f i NpRigidDynamic.obj
 0001:0005b800       ?getRigidDynamicLockFlags@NpRigidDynamic@physx@@UEBA?AV?$PxFlags@W4Enum@PxRigidDynamicLockFlag@physx@@E@2@XZ 000000018005c800 f   NpRigidDynamic.obj
 0001:0005b810       ?getShapes@?$NpRigidActorTemplate@VPxRigidDynamic@physx@@@physx@@UEBAIPEAPEAVPxShape@2@II@Z 000000018005c810 f i NpRigidDynamic.obj
 0001:0005b880       ?getSleepThreshold@NpRigidDynamic@physx@@UEBAMXZ 000000018005c880 f   NpRigidDynamic.obj
 0001:0005b8d0       ?getSolverIterationCounts@NpRigidDynamic@physx@@UEBAXAEAI0@Z 000000018005c8d0 f   NpRigidDynamic.obj
 0001:0005b930       ?getStabilizationThreshold@NpRigidDynamic@physx@@UEBAMXZ 000000018005c930 f   NpRigidDynamic.obj
 0001:0005b980       ?getSolverType@DynamicsTGSContext@Dy@physx@@UEBA?AW4Enum@PxSolverType@3@XZ 000000018005c980 f i LowLevelDynamics_static_64:DyTGSDynamics.obj
 0001:0005b980       ?getType@BroadPhaseMBP@Bp@physx@@UEBA?AW4Enum@PxBroadPhaseType@3@XZ 000000018005c980 f i LowLevelAABB_static_64:BpBroadPhaseMBP.obj
 0001:0005b980       ?getType@NpRigidDynamic@physx@@UEBA?AW4Enum@PxActorType@2@XZ 000000018005c980 f i NpRigidDynamic.obj
 0001:0005b980       ?length@charNode@@UEBAHXZ  000000018005c980 f i libvcruntime:undname.obj
 0001:0005b980       ?raw_length@charNode@@UEBAHXZ 000000018005c980 f i libvcruntime:undname.obj
 0001:0005b980       DllMain                    000000018005c980 f i LIBCMT:dll_dllmain_stub.obj
 0001:0005b980       _get_startup_argv_mode     000000018005c980 f i LIBCMT:argv_mode.obj
 0001:0005b990       ?getWakeCounter@NpRigidDynamic@physx@@UEBAMXZ 000000018005c990 f   NpRigidDynamic.obj
 0001:0005ba20       ?getWorldBounds@?$NpRigidActorTemplate@VPxRigidDynamic@physx@@@physx@@UEBA?AVPxBounds3@2@M@Z 000000018005ca20 f i NpRigidDynamic.obj
 0001:0005bc60       ?importExtraData@?$NpRigidActorTemplate@VPxArticulationLink@physx@@@physx@@UEAAXAEAVPxDeserializationContext@2@@Z 000000018005cc60 f i NpArticulationLink.obj
 0001:0005bc60       ?importExtraData@?$NpRigidActorTemplate@VPxRigidDynamic@physx@@@physx@@UEAAXAEAVPxDeserializationContext@2@@Z 000000018005cc60 f i NpRigidDynamic.obj
 0001:0005bc60       ?importExtraData@?$NpRigidActorTemplate@VPxRigidStatic@physx@@@physx@@UEAAXAEAVPxDeserializationContext@2@@Z 000000018005cc60 f i NpRigidStatic.obj
 0001:0005bc90       ?isKindOf@PxRigidActor@physx@@MEBA_NPEBD@Z 000000018005cc90 f i NpRigidDynamic.obj
 0001:0005bd20       ?isKindOf@PxRigidBody@physx@@MEBA_NPEBD@Z 000000018005cd20 f i NpRigidDynamic.obj
 0001:0005bdb0       ?isKindOf@PxRigidDynamic@physx@@MEBA_NPEBD@Z 000000018005cdb0 f i NpRigidDynamic.obj
 0001:0005be50       ?isSleeping@NpRigidDynamic@physx@@UEBA_NXZ 000000018005ce50 f   NpRigidDynamic.obj
 0001:0005bf00       ?preExportDataReset@NpRigidDynamic@physx@@QEAAXXZ 000000018005cf00 f   NpRigidDynamic.obj
 0001:0005bf70       ?putToSleep@NpRigidDynamic@physx@@UEAAXXZ 000000018005cf70 f   NpRigidDynamic.obj
 0001:0005c060       ?release@NpRigidDynamic@physx@@UEAAXXZ 000000018005d060 f   NpRigidDynamic.obj
 0001:0005c1d0       ?removeShapes@?$NpRigidActorTemplate@VPxArticulationLink@physx@@@physx@@QEAAXPEAVPxSceneQuerySystem@2@@Z 000000018005d1d0 f i NpArticulationLink.obj
 0001:0005c1d0       ?removeShapes@?$NpRigidActorTemplate@VPxRigidDynamic@physx@@@physx@@QEAAXPEAVPxSceneQuerySystem@2@@Z 000000018005d1d0 f i NpRigidDynamic.obj
 0001:0005c1d0       ?removeShapes@?$NpRigidActorTemplate@VPxRigidStatic@physx@@@physx@@QEAAXPEAVPxSceneQuerySystem@2@@Z 000000018005d1d0 f i NpRigidStatic.obj
 0001:0005c240       ?requiresObjects@?$NpRigidActorTemplate@VPxArticulationLink@physx@@@physx@@UEAAXAEAVPxProcessPxBaseCallback@2@@Z 000000018005d240 f i NpArticulationLink.obj
 0001:0005c240       ?requiresObjects@?$NpRigidActorTemplate@VPxRigidDynamic@physx@@@physx@@UEAAXAEAVPxProcessPxBaseCallback@2@@Z 000000018005d240 f i NpRigidDynamic.obj
 0001:0005c240       ?requiresObjects@?$NpRigidActorTemplate@VPxRigidStatic@physx@@@physx@@UEAAXAEAVPxProcessPxBaseCallback@2@@Z 000000018005d240 f i NpRigidStatic.obj
 0001:0005c240       ?requiresObjects@NpRigidDynamic@physx@@UEAAXAEAVPxProcessPxBaseCallback@2@@Z 000000018005d240 f i NpRigidDynamic.obj
 0001:0005c240       ?requiresObjects@NpRigidStatic@physx@@UEAAXAEAVPxProcessPxBaseCallback@2@@Z 000000018005d240 f i NpRigidStatic.obj
 0001:0005c2b0       ?resolveReferences@?$NpRigidActorTemplate@VPxArticulationLink@physx@@@physx@@UEAAXAEAVPxDeserializationContext@2@@Z 000000018005d2b0 f i NpArticulationLink.obj
 0001:0005c2b0       ?resolveReferences@?$NpRigidActorTemplate@VPxRigidDynamic@physx@@@physx@@UEAAXAEAVPxDeserializationContext@2@@Z 000000018005d2b0 f i NpRigidDynamic.obj
 0001:0005c2b0       ?resolveReferences@?$NpRigidActorTemplate@VPxRigidStatic@physx@@@physx@@UEAAXAEAVPxDeserializationContext@2@@Z 000000018005d2b0 f i NpRigidStatic.obj
 0001:0005c340       ?scGetGlobalInertiaTensorInverse@?$NpRigidBodyTemplate@VPxRigidDynamic@physx@@@physx@@QEBA?AV?$PxMat33T@M@2@XZ 000000018005d340 f i NpRigidDynamic.obj
 0001:0005c5d0       ?setActorFlag@?$NpActorTemplate@VPxRigidDynamic@physx@@@physx@@UEAAXW4Enum@PxActorFlag@2@_N@Z 000000018005d5d0 f i NpRigidDynamic.obj
 0001:0005c6b0       ?setActorFlag@?$NpRigidActorTemplate@VPxRigidDynamic@physx@@@physx@@UEAAXW4Enum@PxActorFlag@2@_N@Z 000000018005d6b0 f i NpRigidDynamic.obj
 0001:0005c8c0       ?setActorFlags@?$NpActorTemplate@VPxRigidDynamic@physx@@@physx@@UEAAXV?$PxFlags@W4Enum@PxActorFlag@physx@@E@2@@Z 000000018005d8c0 f i NpRigidDynamic.obj
 0001:0005c960       ?setActorFlags@?$NpRigidActorTemplate@VPxRigidDynamic@physx@@@physx@@UEAAXV?$PxFlags@W4Enum@PxActorFlag@physx@@E@2@@Z 000000018005d960 f i NpRigidDynamic.obj
 0001:0005cb50       ?setAngularDamping@?$NpRigidBodyTemplate@VPxRigidDynamic@physx@@@physx@@UEAAXM@Z 000000018005db50 f i NpRigidDynamic.obj
 0001:0005cca0       ?setAngularVelocity@NpRigidDynamic@physx@@UEAAXAEBV?$PxVec3T@M@2@_N@Z 000000018005dca0 f   NpRigidDynamic.obj
 0001:0005ce50       ?setCMassLocalPose@NpRigidDynamic@physx@@UEAAXAEBV?$PxTransformT@M@2@@Z 000000018005de50 f   NpRigidDynamic.obj
 0001:0005d6d0       ?setCMassLocalPoseInternal@?$NpRigidBodyTemplate@VPxArticulationLink@physx@@@physx@@IEAAXAEBV?$PxTransformT@M@2@@Z 000000018005e6d0 f i NpArticulationLink.obj
 0001:0005d6d0       ?setCMassLocalPoseInternal@?$NpRigidBodyTemplate@VPxRigidDynamic@physx@@@physx@@IEAAXAEBV?$PxTransformT@M@2@@Z 000000018005e6d0 f i NpRigidDynamic.obj
 0001:0005dac0       ?setContactReportThreshold@NpRigidDynamic@physx@@UEAAXM@Z 000000018005eac0 f   NpRigidDynamic.obj
 0001:0005dc40       ?setContactSlopCoefficient@?$NpRigidBodyTemplate@VPxRigidDynamic@physx@@@physx@@UEAAXM@Z 000000018005ec40 f i NpRigidDynamic.obj
 0001:0005dd60       ?setDominanceGroup@?$NpActorTemplate@VPxRigidDynamic@physx@@@physx@@UEAAXE@Z 000000018005ed60 f i NpRigidDynamic.obj
 0001:0005de00       ?setForceAndTorque@NpRigidDynamic@physx@@UEAAXAEBV?$PxVec3T@M@2@0W4Enum@PxForceMode@2@@Z 000000018005ee00 f   NpRigidDynamic.obj
 0001:0005e030       ?setGlobalPose@NpRigidDynamic@physx@@UEAAXAEBV?$PxTransformT@M@2@_N@Z 000000018005f030 f   NpRigidDynamic.obj
 0001:0005e500       ?setKinematicTarget@NpRigidDynamic@physx@@UEAAXAEBV?$PxTransformT@M@2@@Z 000000018005f500 f   NpRigidDynamic.obj
 0001:0005e9e0       ?setLinearDamping@?$NpRigidBodyTemplate@VPxRigidDynamic@physx@@@physx@@UEAAXM@Z 000000018005f9e0 f i NpRigidDynamic.obj
 0001:0005eb30       ?setLinearVelocity@NpRigidDynamic@physx@@UEAAXAEBV?$PxVec3T@M@2@_N@Z 000000018005fb30 f   NpRigidDynamic.obj
 0001:0005ece0       ?setMass@?$NpRigidBodyTemplate@VPxRigidDynamic@physx@@@physx@@UEAAXM@Z 000000018005fce0 f i NpRigidDynamic.obj
 0001:0005ee90       ?setMassSpaceInertiaTensor@?$NpRigidBodyTemplate@VPxRigidDynamic@physx@@@physx@@UEAAXAEBV?$PxVec3T@M@2@@Z 000000018005fe90 f i NpRigidDynamic.obj
 0001:0005f0a0       ?setMaxAngularVelocity@?$NpRigidBodyTemplate@VPxRigidDynamic@physx@@@physx@@UEAAXM@Z 00000001800600a0 f i NpRigidDynamic.obj
 0001:0005f210       ?setMaxContactImpulse@?$NpRigidBodyTemplate@VPxRigidDynamic@physx@@@physx@@UEAAXM@Z 0000000180060210 f i NpRigidDynamic.obj
 0001:0005f330       ?setMaxDepenetrationVelocity@?$NpRigidBodyTemplate@VPxRigidDynamic@physx@@@physx@@UEAAXM@Z 0000000180060330 f i NpRigidDynamic.obj
 0001:0005f460       ?setMaxLinearVelocity@?$NpRigidBodyTemplate@VPxRigidDynamic@physx@@@physx@@UEAAXM@Z 0000000180060460 f i NpRigidDynamic.obj
 0001:0005f5d0       ?setMinCCDAdvanceCoefficient@?$NpRigidBodyTemplate@VPxRigidDynamic@physx@@@physx@@UEAAXM@Z 00000001800605d0 f i NpRigidDynamic.obj
 0001:0005f6c0       ?setName@?$NpActorTemplate@VPxRigidDynamic@physx@@@physx@@UEAAXPEBD@Z 00000001800606c0 f i NpRigidDynamic.obj
 0001:0005f790       ?setRigidBodyFlag@?$NpRigidBodyTemplate@VPxRigidDynamic@physx@@@physx@@UEAAXW4Enum@PxRigidBodyFlag@2@_N@Z 0000000180060790 f i NpRigidDynamic.obj
 0001:0005fb20       ?setRigidBodyFlags@?$NpRigidBodyTemplate@VPxRigidDynamic@physx@@@physx@@UEAAXV?$PxFlags@W4Enum@PxRigidBodyFlag@physx@@G@2@@Z 0000000180060b20 f i NpRigidDynamic.obj
 0001:0005fe70       ?setRigidDynamicLockFlag@NpRigidDynamic@physx@@UEAAXW4Enum@PxRigidDynamicLockFlag@2@_N@Z 0000000180060e70 f   NpRigidDynamic.obj
 0001:0005ff30       ?setRigidDynamicLockFlags@NpRigidDynamic@physx@@UEAAXV?$PxFlags@W4Enum@PxRigidDynamicLockFlag@physx@@E@2@@Z 0000000180060f30 f   NpRigidDynamic.obj
 0001:0005ffe0       ?setSleepThreshold@NpRigidDynamic@physx@@UEAAXM@Z 0000000180060fe0 f   NpRigidDynamic.obj
 0001:00060130       ?setSolverIterationCounts@NpRigidDynamic@physx@@UEAAXII@Z 0000000180061130 f   NpRigidDynamic.obj
 0001:000602c0       ?setSpatialForce@?$NpRigidBodyTemplate@VPxRigidDynamic@physx@@@physx@@IEAAXPEBV?$PxVec3T@M@2@0W4Enum@PxForceMode@2@@Z 00000001800612c0 f i NpRigidDynamic.obj
 0001:00060520       ?setStabilizationThreshold@NpRigidDynamic@physx@@UEAAXM@Z 0000000180061520 f   NpRigidDynamic.obj
 0001:00060670       ?setWakeCounter@NpRigidDynamic@physx@@UEAAXM@Z 0000000180061670 f   NpRigidDynamic.obj
 0001:00060800       ?switchFromNoSim@NpRigidDynamic@physx@@UEAAXXZ 0000000180061800 f   NpRigidDynamic.obj
 0001:00060800       ?switchFromNoSim@NpRigidStatic@physx@@UEAAXXZ 0000000180061800 f   NpRigidStatic.obj
 0001:00060820       ?switchToNoSim@NpRigidDynamic@physx@@UEAAXXZ 0000000180061820 f   NpRigidDynamic.obj
 0001:00060860       ?wakeUp@NpRigidDynamic@physx@@UEAAXXZ 0000000180061860 f   NpRigidDynamic.obj
 0001:00060960       ?wakeUpInternalNoKinematicTest@NpRigidDynamic@physx@@QEAAX_N0@Z 0000000180061960 f   NpRigidDynamic.obj
 0001:000609f0       ??0NpRigidStatic@physx@@QEAA@AEBV?$PxTransformT@M@1@@Z 00000001800619f0 f   NpRigidStatic.obj
 0001:00060ab0       ??_E?$NpActorTemplate@VPxRigidStatic@physx@@@physx@@UEAAPEAXI@Z 0000000180061ab0 f i NpRigidStatic.obj
 0001:00060ab0       ??_G?$NpActorTemplate@VPxRigidStatic@physx@@@physx@@UEAAPEAXI@Z 0000000180061ab0 f i NpRigidStatic.obj
 0001:00060b30       ??_E?$NpRigidActorTemplate@VPxRigidStatic@physx@@@physx@@UEAAPEAXI@Z 0000000180061b30 f i NpRigidStatic.obj
 0001:00060b30       ??_G?$NpRigidActorTemplate@VPxRigidStatic@physx@@@physx@@UEAAPEAXI@Z 0000000180061b30 f i NpRigidStatic.obj
 0001:00060bc0       ??_ENpRigidStatic@physx@@UEAAPEAXI@Z 0000000180061bc0 f i NpRigidStatic.obj
 0001:00060bc0       ??_GNpRigidStatic@physx@@UEAAPEAXI@Z 0000000180061bc0 f i NpRigidStatic.obj
 0001:00060c60       ?NpRigidStaticGetShapes@physx@@YAIAEAVNpRigidStatic@1@AEAPEBQEAVNpShape@1@@Z 0000000180061c60 f   NpRigidStatic.obj
 0001:00060c80       ?attachShape@?$NpRigidActorTemplate@VPxRigidStatic@physx@@@physx@@UEAA_NAEAVPxShape@2@@Z 0000000180061c80 f i NpRigidStatic.obj
 0001:00060e30       ?checkConstraintValidity@NpRigidStatic@physx@@QEBA_NXZ 0000000180061e30 f   NpRigidStatic.obj
 0001:00060eb0       ?createObject@NpRigidStatic@physx@@SAPEAV12@AEAPEAEAEAVPxDeserializationContext@2@@Z 0000000180061eb0 f   NpRigidStatic.obj
 0001:00060f60       ?detachShape@?$NpRigidActorTemplate@VPxRigidStatic@physx@@@physx@@UEAAXAEAVPxShape@2@_N@Z 0000000180061f60 f i NpRigidStatic.obj
 0001:00061090       ?getActorFlags@?$NpActorTemplate@VPxRigidStatic@physx@@@physx@@UEBA?AV?$PxFlags@W4Enum@PxActorFlag@physx@@E@2@XZ 0000000180062090 f i NpRigidStatic.obj
 0001:000610f0       ?getConcreteTypeName@PxRigidStatic@physx@@UEBAPEBDXZ 00000001800620f0 f i NpRigidStatic.obj
 0001:00061100       ?getConstraints@?$NpRigidActorTemplate@VPxRigidStatic@physx@@@physx@@UEBAIPEAPEAVPxConstraint@2@II@Z 0000000180062100 f i NpRigidStatic.obj
 0001:000611b0       ?getDominanceGroup@?$NpActorTemplate@VPxRigidStatic@physx@@@physx@@UEBAEXZ 00000001800621b0 f i NpRigidStatic.obj
 0001:00061200       ?getGlobalPose@NpRigidStatic@physx@@UEBA?AV?$PxTransformT@M@2@XZ 0000000180062200 f   NpRigidStatic.obj
 0001:00061270       ?getInternalActorIndex@?$NpRigidActorTemplate@VPxRigidStatic@physx@@@physx@@UEBAIXZ 0000000180062270 f i NpRigidStatic.obj
 0001:000612c0       ?getName@?$NpActorTemplate@VPxRigidStatic@physx@@@physx@@UEBAPEBDXZ 00000001800622c0 f i NpRigidStatic.obj
 0001:00061300       ?getNbConstraints@?$NpRigidActorTemplate@VPxRigidStatic@physx@@@physx@@UEBAIXZ 0000000180062300 f i NpRigidStatic.obj
 0001:00061340       ?getNbShapes@?$NpRigidActorTemplate@VPxRigidStatic@physx@@@physx@@UEBAIXZ 0000000180062340 f i NpRigidStatic.obj
 0001:00061380       ?getShapes@?$NpRigidActorTemplate@VPxRigidStatic@physx@@@physx@@UEBAIPEAPEAVPxShape@2@II@Z 0000000180062380 f i NpRigidStatic.obj
 0001:000613f0       ?getWorldBounds@?$NpRigidActorTemplate@VPxRigidStatic@physx@@@physx@@UEBA?AVPxBounds3@2@M@Z 00000001800623f0 f i NpRigidStatic.obj
 0001:00061630       ?isKindOf@PxRigidStatic@physx@@MEBA_NPEBD@Z 0000000180062630 f i NpRigidStatic.obj
 0001:00061680       ?release@NpRigidStatic@physx@@UEAAXXZ 0000000180062680 f   NpRigidStatic.obj
 0001:000617f0       ?setActorFlag@?$NpActorTemplate@VPxRigidStatic@physx@@@physx@@UEAAXW4Enum@PxActorFlag@2@_N@Z 00000001800627f0 f i NpRigidStatic.obj
 0001:000618d0       ?setActorFlag@?$NpRigidActorTemplate@VPxRigidStatic@physx@@@physx@@UEAAXW4Enum@PxActorFlag@2@_N@Z 00000001800628d0 f i NpRigidStatic.obj
 0001:00061ae0       ?setActorFlags@?$NpActorTemplate@VPxRigidStatic@physx@@@physx@@UEAAXV?$PxFlags@W4Enum@PxActorFlag@physx@@E@2@@Z 0000000180062ae0 f i NpRigidStatic.obj
 0001:00061b80       ?setActorFlags@?$NpRigidActorTemplate@VPxRigidStatic@physx@@@physx@@UEAAXV?$PxFlags@W4Enum@PxActorFlag@physx@@E@2@@Z 0000000180062b80 f i NpRigidStatic.obj
 0001:00061d70       ?setDominanceGroup@?$NpActorTemplate@VPxRigidStatic@physx@@@physx@@UEAAXE@Z 0000000180062d70 f i NpRigidStatic.obj
 0001:00061e10       ?setGlobalPose@NpRigidStatic@physx@@UEAAXAEBV?$PxTransformT@M@2@_N@Z 0000000180062e10 f   NpRigidStatic.obj
 0001:00062110       ?setName@?$NpActorTemplate@VPxRigidStatic@physx@@@physx@@UEAAXPEBD@Z 0000000180063110 f i NpRigidStatic.obj
 0001:000621e0       ?switchToNoSim@NpRigidStatic@physx@@UEAAXXZ 00000001800631e0 f   NpRigidStatic.obj
 0001:00062200       ??$PxSort@PEAXU?$PxLess@PEAX@physx@@V?$PxReflectionAllocator@U?$Block@E$0BAA@@Scene@Sc@physx@@@2@@physx@@YAXPEAPEAXIAEBU?$PxLess@PEAX@0@AEBV?$PxReflectionAllocator@U?$Block@E$0BAA@@Scene@Sc@physx@@@0@I@Z 0000000180063200 f i NpScene.obj
 0001:00062660       ??$PxSort@PEAXU?$PxLess@PEAX@physx@@V?$PxReflectionAllocator@U?$Block@E$0BIA@@Scene@Sc@physx@@@2@@physx@@YAXPEAPEAXIAEBU?$PxLess@PEAX@0@AEBV?$PxReflectionAllocator@U?$Block@E$0BIA@@Scene@Sc@physx@@@0@I@Z 0000000180063660 f i NpScene.obj
 0001:00062ac0       ??$PxSort@PEAXU?$PxLess@PEAX@physx@@V?$PxReflectionAllocator@U?$Block@E$0IA@@Scene@Sc@physx@@@2@@physx@@YAXPEAPEAXIAEBU?$PxLess@PEAX@0@AEBV?$PxReflectionAllocator@U?$Block@E$0IA@@Scene@Sc@physx@@@0@I@Z 0000000180063ac0 f i NpScene.obj
 0001:00062f20       ??$PxSort@PEAXU?$PxLess@PEAX@physx@@V?$PxReflectionAllocator@U?$Block@PEAX$07@Scene@Sc@physx@@@2@@physx@@YAXPEAPEAXIAEBU?$PxLess@PEAX@0@AEBV?$PxReflectionAllocator@U?$Block@PEAX$07@Scene@Sc@physx@@@0@I@Z 0000000180063f20 f i NpScene.obj
 0001:00063380       ??$PxSort@PEAXU?$PxLess@PEAX@physx@@V?$PxReflectionAllocator@U?$Block@PEAX$0BA@@Scene@Sc@physx@@@2@@physx@@YAXPEAPEAXIAEBU?$PxLess@PEAX@0@AEBV?$PxReflectionAllocator@U?$Block@PEAX$0BA@@Scene@Sc@physx@@@0@I@Z 0000000180064380 f i NpScene.obj
 0001:000637e0       ??$PxSort@PEAXU?$PxLess@PEAX@physx@@V?$PxReflectionAllocator@U?$Block@PEAX$0CA@@Scene@Sc@physx@@@2@@physx@@YAXPEAPEAXIAEBU?$PxLess@PEAX@0@AEBV?$PxReflectionAllocator@U?$Block@PEAX$0CA@@Scene@Sc@physx@@@0@I@Z 00000001800647e0 f i NpScene.obj
 0001:00065590       ??0NpScene@physx@@QEAA@AEBVPxSceneDesc@1@AEAVNpPhysics@1@@Z 0000000180066590 f   NpScene.obj
 0001:00066170       ??1?$PxArray@PEAVBodyCore@Sc@physx@@V?$PxReflectionAllocator@PEAVBodyCore@Sc@physx@@@3@@physx@@QEAA@XZ 0000000180067170 f i NpScene.obj
 0001:000661c0       ??1?$PxArray@PEAVShapeSim@Sc@physx@@V?$PxInlineAllocator@$0CAA@V?$PxReflectionAllocator@PEAVShapeSim@Sc@physx@@@physx@@@3@@physx@@QEAA@XZ 00000001800671c0 f i NpScene.obj
 0001:000661c0       ??1?$PxArray@PEBVShapeCore@Sc@physx@@V?$PxInlineAllocator@$0CAA@V?$PxReflectionAllocator@PEBVShapeCore@Sc@physx@@@physx@@@3@@physx@@QEAA@XZ 00000001800671c0 f i NpScene.obj
 0001:00066230       ??1FanoutTask@Cm@physx@@UEAA@XZ 0000000180067230 f i NpScene.obj
 0001:00066300       ??1NpScene@physx@@UEAA@XZ  0000000180067300 f   NpScene.obj
 0001:00066c30       ??1RenderBuffer@Cm@physx@@UEAA@XZ 0000000180067c30 f i NpScene.obj
 0001:00066ce0       ??1Scene@Sc@physx@@QEAA@XZ 0000000180067ce0 f i NpScene.obj
 0001:00068330       ??_E?$DelegateTask@VNpScene@physx@@$H?executeAdvance@12@QEAAXPEAVPxBaseTask@2@@ZA@@Cm@physx@@UEAAPEAXI@Z 0000000180069330 f i NpScene.obj
 0001:00068330       ??_E?$DelegateTask@VNpScene@physx@@$H?executeCollide@12@QEAAXPEAVPxBaseTask@2@@ZA@@Cm@physx@@UEAAPEAXI@Z 0000000180069330 f i NpScene.obj
 0001:00068330       ??_E?$DelegateTask@VNpScene@physx@@$H?executeScene@12@QEAAXPEAVPxBaseTask@2@@ZA@@Cm@physx@@UEAAPEAXI@Z 0000000180069330 f i NpScene.obj
 0001:00068330       ??_E?$DelegateTask@VNpScene@physx@@$H?sceneQueriesDynamicPrunerUpdate@12@AEAAXPEAVPxBaseTask@2@@ZA@@Cm@physx@@UEAAPEAXI@Z 0000000180069330 f i NpScene.obj
 0001:00068330       ??_E?$DelegateTask@VNpScene@physx@@$H?sceneQueriesStaticPrunerUpdate@12@AEAAXPEAVPxBaseTask@2@@ZA@@Cm@physx@@UEAAPEAXI@Z 0000000180069330 f i NpScene.obj
 0001:00068330       ??_G?$DelegateTask@VNpScene@physx@@$H?executeAdvance@12@QEAAXPEAVPxBaseTask@2@@ZA@@Cm@physx@@UEAAPEAXI@Z 0000000180069330 f i NpScene.obj
 0001:00068330       ??_G?$DelegateTask@VNpScene@physx@@$H?executeCollide@12@QEAAXPEAVPxBaseTask@2@@ZA@@Cm@physx@@UEAAPEAXI@Z 0000000180069330 f i NpScene.obj
 0001:00068330       ??_G?$DelegateTask@VNpScene@physx@@$H?executeScene@12@QEAAXPEAVPxBaseTask@2@@ZA@@Cm@physx@@UEAAPEAXI@Z 0000000180069330 f i NpScene.obj
 0001:00068330       ??_G?$DelegateTask@VNpScene@physx@@$H?sceneQueriesDynamicPrunerUpdate@12@AEAAXPEAVPxBaseTask@2@@ZA@@Cm@physx@@UEAAPEAXI@Z 0000000180069330 f i NpScene.obj
 0001:00068330       ??_G?$DelegateTask@VNpScene@physx@@$H?sceneQueriesStaticPrunerUpdate@12@AEAAXPEAVPxBaseTask@2@@ZA@@Cm@physx@@UEAAPEAXI@Z 0000000180069330 f i NpScene.obj
 0001:00068390       ??_ENpScene@physx@@UEAAPEAXI@Z 0000000180069390 f i NpScene.obj
 0001:00068390       ??_GNpScene@physx@@UEAAPEAXI@Z 0000000180069390 f i NpScene.obj
 0001:00068400       ??_EPxBaseTask@physx@@UEAAPEAXI@Z 0000000180069400 f i NpScene.obj
 0001:00068400       ??_GPxBaseTask@physx@@UEAAPEAXI@Z 0000000180069400 f i NpScene.obj
 0001:00068430       ??_EPxLightCpuTask@physx@@UEAAPEAXI@Z 0000000180069430 f i NpScene.obj
 0001:00068430       ??_GPxLightCpuTask@physx@@UEAAPEAXI@Z 0000000180069430 f i NpScene.obj
 0001:00068470       ??_EPxRenderBuffer@physx@@UEAAPEAXI@Z 0000000180069470 f i NpScene.obj
 0001:00068470       ??_GPxRenderBuffer@physx@@UEAAPEAXI@Z 0000000180069470 f i NpScene.obj
 0001:000684a0       ??_EPvdEventSerializer@pvdsdk@physx@@MEAAPEAXI@Z 00000001800694a0 f i PhysXPvdSDK_static_64:PxPvdDataStream.obj
 0001:000684a0       ??_EPxSceneQuerySystemBase@physx@@MEAAPEAXI@Z 00000001800694a0 f i NpScene.obj
 0001:000684a0       ??_GPvdEventSerializer@pvdsdk@physx@@MEAAPEAXI@Z 00000001800694a0 f i PhysXPvdSDK_static_64:PxPvdDataStream.obj
 0001:000684a0       ??_GPxSceneQuerySystemBase@physx@@MEAAPEAXI@Z 00000001800694a0 f i NpScene.obj
 0001:000684d0       ??_ERenderBuffer@Cm@physx@@UEAAPEAXI@Z 00000001800694d0 f i NpScene.obj
 0001:000684d0       ??_GRenderBuffer@Cm@physx@@UEAAPEAXI@Z 00000001800694d0 f i NpScene.obj
 0001:00068540       ??_EABP_CompleteBoxPruningEndTask@internalABP@@UEAAPEAXI@Z 0000000180069540 f i LowLevelAABB_static_64:BpBroadPhaseABP.obj
 0001:00068540       ??_EPostThirdPassTask@IG@physx@@UEAAPEAXI@Z 0000000180069540 f i LowLevel_static_64:PxsSimpleIslandManager.obj
 0001:00068540       ??_EPxsForceThresholdTask@Dy@physx@@UEAAPEAXI@Z 0000000180069540 f i LowLevelDynamics_static_64:DyDynamics.obj
 0001:00068540       ??_ESceneCompletion@NpScene@physx@@UEAAPEAXI@Z 0000000180069540 f i NpScene.obj
 0001:00068540       ??_GABP_CompleteBoxPruningEndTask@internalABP@@UEAAPEAXI@Z 0000000180069540 f i LowLevelAABB_static_64:BpBroadPhaseABP.obj
 0001:00068540       ??_GPostThirdPassTask@IG@physx@@UEAAPEAXI@Z 0000000180069540 f i LowLevel_static_64:PxsSimpleIslandManager.obj
 0001:00068540       ??_GPxsForceThresholdTask@Dy@physx@@UEAAPEAXI@Z 0000000180069540 f i LowLevelDynamics_static_64:DyDynamics.obj
 0001:00068540       ??_GSceneCompletion@NpScene@physx@@UEAAPEAXI@Z 0000000180069540 f i NpScene.obj
 0001:000685c0       ?addActor@NpScene@physx@@UEAA_NAEAVPxActor@2@PEBVPxBVH@2@@Z 00000001800695c0 f   NpScene.obj
 0001:00068740       ?addActorInternal@NpScene@physx@@QEAA_NAEAVPxActor@2@PEBVPxBVH@2@@Z 0000000180069740 f   NpScene.obj
 0001:00068a00       ?addActors@NpScene@physx@@UEAA_NAEBVPxPruningStructure@2@@Z 0000000180069a00 f   NpScene.obj
 0001:00068a30       ?addActors@NpScene@physx@@UEAA_NPEBQEAVPxActor@2@I@Z 0000000180069a30 f   NpScene.obj
 0001:00068a40       ?addActorsInternal@NpScene@physx@@QEAA_NPEIBQEAVPxActor@2@IPEBVPruningStructure@Sq@2@@Z 0000000180069a40 f   NpScene.obj
 0001:000690d0       ?addAggregate@NpScene@physx@@UEAA_NAEAVPxAggregate@2@@Z 000000018006a0d0 f   NpScene.obj
 0001:000693e0       ?addArticulation@NpScene@physx@@UEAA_NAEAVPxArticulationReducedCoordinate@2@@Z 000000018006a3e0 f   NpScene.obj
 0001:00069690       ?addArticulationInternal@NpScene@physx@@QEAA_NAEAVPxArticulationReducedCoordinate@2@@Z 000000018006a690 f   NpScene.obj
 0001:00069f50       ?addArticulationLinkBody@NpScene@physx@@QEAAXAEAVNpArticulationLink@2@@Z 000000018006af50 f   NpScene.obj
 0001:0006a070       ?addArticulationLinkConstraint@NpScene@physx@@QEAAXAEAVNpArticulationLink@2@@Z 000000018006b070 f   NpScene.obj
 0001:0006a1a0       ?addBroadPhaseRegion@NpScene@physx@@UEAAIAEBUPxBroadPhaseRegion@2@_N@Z 000000018006b1a0 f   NpScene.obj
 0001:0006a430       ?addCollection@NpScene@physx@@UEAA_NAEBVPxCollection@2@@Z 000000018006b430 f   NpScene.obj
 0001:0006a700       ?addDirtyConstraint@NpScene@physx@@QEAAXPEAVNpConstraint@2@@Z 000000018006b700 f   NpScene.obj
 0001:0006a770       ?addFixedTendonInternal@NpScene@physx@@AEAA_NPEAVNpArticulationReducedCoordinate@2@PEAVArticulationSim@Sc@2@@Z 000000018006b770 f   NpScene.obj
 0001:0006aa60       ?addLine@RenderBuffer@Cm@physx@@UEAAXAEBUPxDebugLine@3@@Z 000000018006ba60 f i NpScene.obj
 0001:0006aac0       ?addMaterial@NpScene@physx@@QEAAXAEBVNpFEMSoftBodyMaterial@2@@Z 000000018006bac0 f   NpScene.obj
 0001:0006abf0       ?addMaterial@NpScene@physx@@QEAAXAEBVNpMaterial@2@@Z 000000018006bbf0 f   NpScene.obj
 0001:0006ad20       ?addMaterial@NpScene@physx@@QEAAXAEBVNpPBDMaterial@2@@Z 000000018006bd20 f   NpScene.obj
 0001:0006ae50       ?addPoint@RenderBuffer@Cm@physx@@UEAAXAEBUPxDebugPoint@3@@Z 000000018006be50 f i NpScene.obj
 0001:0006ae90       ?addReference@PxLightCpuTask@physx@@UEAAXXZ 000000018006be90 f i NpScene.obj
 0001:0006aea0       ?addRigidDynamic@NpScene@physx@@AEAA_NAEAVNpRigidDynamic@2@PEBVBVH@Gu@2@PEBVPruningStructure@Sq@2@@Z 000000018006bea0 f   NpScene.obj
 0001:0006b0e0       ?addRigidStatic@NpScene@physx@@AEAA_NAEAVNpRigidStatic@2@PEBVBVH@Gu@2@PEBVPruningStructure@Sq@2@@Z 000000018006c0e0 f   NpScene.obj
 0001:0006b320       ?addSoftBody@NpScene@physx@@AEAA_NAEAVPxSoftBody@2@@Z 000000018006c320 f   NpScene.obj
 0001:0006b4f0       ?addSpatialTendonInternal@NpScene@physx@@AEAA_NPEAVNpArticulationReducedCoordinate@2@PEAVArticulationSim@Sc@2@@Z 000000018006c4f0 f   NpScene.obj
 0001:0006b7f0       ?addToConstraintList@NpScene@physx@@QEAAXAEAVPxConstraint@2@@Z 000000018006c7f0 f   NpScene.obj
 0001:0006b8c0       ?addTriangle@RenderBuffer@Cm@physx@@UEAAXAEBUPxDebugTriangle@3@@Z 000000018006c8c0 f i NpScene.obj
 0001:0006b930       ?advance@NpScene@physx@@UEAA_NPEAVPxBaseTask@2@@Z 000000018006c930 f   NpScene.obj
 0001:0006bad0       ?allocate@?$PxArray@PEAVNpRigidDynamic@physx@@V?$PxReflectionAllocator@PEAVNpRigidDynamic@physx@@@2@@physx@@IEAAPEAPEAVNpRigidDynamic@2@I@Z 000000018006cad0 f i NpScene.obj
 0001:0006bb80       ?allocate@?$PxArray@PEAVNpRigidStatic@physx@@V?$PxReflectionAllocator@PEAVNpRigidStatic@physx@@@2@@physx@@IEAAPEAPEAVNpRigidStatic@2@I@Z 000000018006cb80 f i NpScene.obj
 0001:0006bc30       ?allocate@?$PxArray@UPxDebugLine@physx@@V?$PxReflectionAllocator@UPxDebugLine@physx@@@2@@physx@@IEAAPEAUPxDebugLine@2@I@Z 000000018006cc30 f i NpScene.obj
 0001:0006bce0       ?allocate@?$PxArray@UPxDebugPoint@physx@@V?$PxReflectionAllocator@UPxDebugPoint@physx@@@2@@physx@@IEAAPEAUPxDebugPoint@2@I@Z 000000018006cce0 f i NpScene.obj
 0001:0006bd90       ?allocate@?$PxArray@UPxDebugTriangle@physx@@V?$PxReflectionAllocator@UPxDebugTriangle@physx@@@2@@physx@@IEAAPEAUPxDebugTriangle@2@I@Z 000000018006cd90 f i NpScene.obj
 0001:0006be40       ?allocate@?$PxArray@VMaterialEvent@NpScene@physx@@V?$PxReflectionAllocator@VMaterialEvent@NpScene@physx@@@3@@physx@@IEAAPEAVMaterialEvent@NpScene@2@I@Z 000000018006ce40 f i NpScene.obj
 0001:0006bef0       ?allocate@?$PxArray@VPxBounds3@physx@@V?$PxInlineAllocator@$0MA@V?$PxReflectionAllocator@VPxBounds3@physx@@@physx@@@2@@physx@@IEAAPEAVPxBounds3@2@I@Z 000000018006cef0 f i NpScene.obj
 0001:0006bfb0       ?append@RenderBuffer@Cm@physx@@UEAAXAEBVPxRenderBuffer@3@@Z 000000018006cfb0 f i NpScene.obj
 0001:0006c1f0       ?applyActorData@NpScene@physx@@UEAAXPEAXPEAUPxGpuActorPair@2@W4Enum@PxActorCacheFlag@2@I00@Z 000000018006d1f0 f   NpScene.obj
 0001:0006c290       ?applyArticulationData@NpScene@physx@@UEAAXPEAX0W4Enum@PxArticulationGpuDataType@2@I00@Z 000000018006d290 f   NpScene.obj
 0001:0006c330       ?applyParticleBufferData@NpScene@physx@@UEAAXPEBIPEBUPxGpuParticleBufferIndexPair@2@PEBV?$PxFlags@W4Enum@PxParticleBufferFlag@physx@@I@2@IPEAX3@Z 000000018006d330 f   NpScene.obj
 0001:0006c3d0       ?applySoftBodyData@NpScene@physx@@UEAAXPEAPEAXPEAX1W4Enum@PxSoftBodyGpuDataFlag@2@II1@Z 000000018006d3d0 f   NpScene.obj
 0001:0006c530       ?checkCollision@NpScene@physx@@UEAA_N_N@Z 000000018006d530 f   NpScene.obj
 0001:0006c540       ?checkCollisionInternal@NpScene@physx@@AEAA_N_N@Z 000000018006d540 f   NpScene.obj
 0001:0006c5f0       ?checkPositionSanity@NpScene@physx@@QEBAXAEBVPxRigidActor@2@AEBV?$PxTransformT@M@2@PEBD@Z 000000018006d5f0 f   NpScene.obj
 0001:0006c690       ?clear@RenderBuffer@Cm@physx@@UEAAXXZ 000000018006d690 f i NpScene.obj
 0001:0006c6a0       ?collide@NpScene@physx@@UEAA_NMPEAVPxBaseTask@2@PEAXI_N@Z 000000018006d6a0 f   NpScene.obj
 0001:0006c6e0       ?computeCoriolisAndCentrifugalForces@NpScene@physx@@UEAAXPEBUPxIndexDataPair@2@IPEAX@Z 000000018006d6e0 f   NpScene.obj
 0001:0006c780       ?computeDenseJacobians@NpScene@physx@@UEAAXPEBUPxIndexDataPair@2@IPEAX@Z 000000018006d780 f   NpScene.obj
 0001:0006c820       ?computeGeneralizedGravityForces@NpScene@physx@@UEAAXPEBUPxIndexDataPair@2@IPEAX@Z 000000018006d820 f   NpScene.obj
 0001:0006c920       ?computeGeneralizedMassMatrices@NpScene@physx@@UEAAXPEBUPxIndexDataPair@2@IPEAX@Z 000000018006d920 f   NpScene.obj
 0001:0006c9c0       ?copy@?$PxArray@UPxDebugLine@physx@@V?$PxReflectionAllocator@UPxDebugLine@physx@@@2@@physx@@KAXPEAUPxDebugLine@2@0PEBU32@@Z 000000018006d9c0 f i NpScene.obj
 0001:0006c9c0       ?copy@?$PxArray@VSpatialVector@Cm@physx@@V?$PxReflectionAllocator@VSpatialVector@Cm@physx@@@3@@physx@@KAXPEAVSpatialVector@Cm@2@0PEBV342@@Z 000000018006d9c0 f i LowLevelDynamics_static_64:DyTGSDynamics.obj
 0001:0006cb70       ?copy@?$PxArray@UPxDebugPoint@physx@@V?$PxReflectionAllocator@UPxDebugPoint@physx@@@2@@physx@@KAXPEAUPxDebugPoint@2@0PEBU32@@Z 000000018006db70 f i NpScene.obj
 0001:0006cc70       ?copy@?$PxArray@UPxDebugTriangle@physx@@V?$PxReflectionAllocator@UPxDebugTriangle@physx@@@2@@physx@@KAXPEAUPxDebugTriangle@2@0PEBU32@@Z 000000018006dc70 f i NpScene.obj
 0001:0006ce70       ?copyArticulationData@NpScene@physx@@UEAAXPEAX0W4Enum@PxArticulationGpuDataType@2@I0@Z 000000018006de70 f   NpScene.obj
 0001:0006cf10       ?copyBodyData@NpScene@physx@@UEAAXPEAUPxGpuBodyData@2@PEAUPxGpuActorPair@2@IPEAX@Z 000000018006df10 f   NpScene.obj
 0001:0006cfb0       ?copyContactData@NpScene@physx@@UEAAXPEAXI00@Z 000000018006dfb0 f   NpScene.obj
 0001:0006d070       ?copySoftBodyData@NpScene@physx@@UEAAXPEAPEAXPEAX1W4Enum@PxSoftBodyGpuDataFlag@2@II1@Z 000000018006e070 f   NpScene.obj
 0001:0006d0d0       ?createClient@NpScene@physx@@UEAAEXZ 000000018006e0d0 f   NpScene.obj
 0001:0006d120       ?createInOmniPVD@NpScene@physx@@QEAAXAEBVPxSceneDesc@2@@Z 000000018006e120 f   NpScene.obj
 0001:0006d950       ?createInstance@?$PvdFns@VNpArticulationLink@physx@@@@SAXAEAVNpScene@physx@@AEAVPvdSceneClient@Vd@3@PEAVNpArticulationLink@3@@Z 000000018006e950 f i NpScene.obj
 0001:0006d950       ?createInstance@?$PvdFns@VNpRigidDynamic@physx@@@@SAXAEAVNpScene@physx@@AEAVPvdSceneClient@Vd@3@PEAVNpRigidDynamic@3@@Z 000000018006e950 f i NpScene.obj
 0001:0006d9f0       ?createInstance@?$PvdFns@VNpRigidStatic@physx@@@@SAXAEAVNpScene@physx@@AEAVPvdSceneClient@Vd@3@PEAVNpRigidStatic@3@@Z 000000018006e9f0 f i NpScene.obj
 0001:0006da90       ?empty@RenderBuffer@Cm@physx@@UEBA_NXZ 000000018006ea90 f i NpScene.obj
 0001:0006dab0       ?evaluateSDFDistances@NpScene@physx@@UEAAXPEBIIPEBV?$PxVec4T@M@2@0IPEAV32@PEAX@Z 000000018006eab0 f   NpScene.obj
 0001:0006db10       ?fetchCollision@NpScene@physx@@UEAA_N_N@Z 000000018006eb10 f   NpScene.obj
 0001:0006db90       ?flush@NpScene@physx@@UEAAX_N@Z 000000018006eb90 f i NpScene.obj
 0001:0006dba0       ?flushSimulation@NpScene@physx@@UEAAX_N@Z 000000018006eba0 f   NpScene.obj
 0001:0006dd00       ?frameEnd@NpScene@physx@@UEAAXXZ 000000018006ed00 f   NpScene.obj
 0001:0006dd10       ?getActiveActors@NpScene@physx@@UEAAPEAPEAVPxActor@2@AEAI@Z 000000018006ed10 f   NpScene.obj
 0001:0006dd80       ?getActors@NpScene@physx@@UEBAIV?$PxFlags@W4Enum@PxActorTypeFlag@physx@@G@2@PEAPEAVPxActor@2@II@Z 000000018006ed80 f   NpScene.obj
 0001:0006def0       ?getAggregates@NpScene@physx@@UEBAIPEAPEAVPxAggregate@2@II@Z 000000018006eef0 f   NpScene.obj
 0001:0006df90       ?getArticulations@NpScene@physx@@UEBAIPEAPEAVPxArticulationReducedCoordinate@2@II@Z 000000018006ef90 f   NpScene.obj
 0001:0006e030       ?getBounceThresholdVelocity@NpScene@physx@@UEBAMXZ 000000018006f030 f   NpScene.obj
 0001:0006e080       ?getBroadPhaseCallback@NpScene@physx@@UEBAPEAVPxBroadPhaseCallback@2@XZ 000000018006f080 f   NpScene.obj
 0001:0006e0c0       ?getBroadPhaseCaps@NpScene@physx@@UEBA_NAEAUPxBroadPhaseCaps@2@@Z 000000018006f0c0 f   NpScene.obj
 0001:0006e120       ?getBroadPhaseRegions@NpScene@physx@@UEBAIPEAUPxBroadPhaseRegionInfo@2@II@Z 000000018006f120 f   NpScene.obj
 0001:0006e1a0       ?getBroadPhaseType@NpScene@physx@@UEBA?AW4Enum@PxBroadPhaseType@2@XZ 000000018006f1a0 f   NpScene.obj
 0001:0006e1f0       ?getCCDContactModifyCallback@NpScene@physx@@UEBAPEAVPxCCDContactModifyCallback@2@XZ 000000018006f1f0 f   NpScene.obj
 0001:0006e230       ?getCCDMaxPasses@NpScene@physx@@UEBAIXZ 000000018006f230 f   NpScene.obj
 0001:0006e270       ?getCCDMaxSeparation@NpScene@physx@@UEBAMXZ 000000018006f270 f   NpScene.obj
 0001:0006e2c0       ?getCCDThreshold@NpScene@physx@@UEBAMXZ 000000018006f2c0 f   NpScene.obj
 0001:0006e310       ?getConstraints@NpScene@physx@@UEBAIPEAPEAVPxConstraint@2@II@Z 000000018006f310 f   NpScene.obj
 0001:0006e3b0       ?getContactModifyCallback@NpScene@physx@@UEBAPEAVPxContactModifyCallback@2@XZ 000000018006f3b0 f   NpScene.obj
 0001:0006e3f0       ?getContactReportStreamBufferSize@NpScene@physx@@UEBAIXZ 000000018006f3f0 f   NpScene.obj
 0001:0006e430       ?getCpuDispatcher@NpScene@physx@@UEBAPEAVPxCpuDispatcher@2@XZ 000000018006f430 f   NpScene.obj
 0001:0006e440       ?getCudaContextManager@NpScene@physx@@UEAAPEAVPxCudaContextManager@2@XZ 000000018006f440 f i NpScene.obj
 0001:0006e440       ?getCudaContextManager@NpScene@physx@@UEBAPEAVPxCudaContextManager@2@XZ 000000018006f440 f i NpScene.obj
 0001:0006e450       ?getDominanceGroupPair@NpScene@physx@@UEBA?AUPxDominanceGroupPair@2@EE@Z 000000018006f450 f   NpScene.obj
 0001:0006e500       ?getFilterCallback@NpScene@physx@@UEBAPEAVPxSimulationFilterCallback@2@XZ 000000018006f500 f   NpScene.obj
 0001:0006e540       ?getFilterShader@NpScene@physx@@UEBAP6A?AV?$PxFlags@W4Enum@PxFilterFlag@physx@@G@2@IUPxFilterData@2@I0AEAV?$PxFlags@W4Enum@PxPairFlag@physx@@G@2@PEBXI@ZXZ 000000018006f540 f   NpScene.obj
 0001:0006e580       ?getFilterShaderData@NpScene@physx@@UEBAPEBXXZ 000000018006f580 f   NpScene.obj
 0001:0006e5c0       ?getFilterShaderDataSize@NpScene@physx@@UEBAIXZ 000000018006f5c0 f   NpScene.obj
 0001:0006e600       ?getFlags@NpScene@physx@@UEBA?AV?$PxFlags@W4Enum@PxSceneFlag@physx@@I@2@XZ 000000018006f600 f   NpScene.obj
 0001:0006e650       ?getFrictionCorrelationDistance@NpScene@physx@@UEBAMXZ 000000018006f650 f   NpScene.obj
 0001:0006e6a0       ?getFrictionOffsetThreshold@NpScene@physx@@UEBAMXZ 000000018006f6a0 f   NpScene.obj
 0001:0006e6f0       ?getFrictionType@NpScene@physx@@UEBA?AW4Enum@PxFrictionType@2@XZ 000000018006f6f0 f   NpScene.obj
 0001:0006e730       ?getFrozenActors@NpScene@physx@@UEAAPEAPEAVPxActor@2@AEAI@Z 000000018006f730 f   NpScene.obj
 0001:0006e7a0       ?getGpuDynamicsConfig@NpScene@physx@@UEBA?AUPxgDynamicsMemoryConfig@2@XZ 000000018006f7a0 f i NpScene.obj
 0001:0006e7d0       ?getGravity@NpScene@physx@@UEBA?AV?$PxVec3T@M@2@XZ 000000018006f7d0 f   NpScene.obj
 0001:0006e830       ?getKinematicKinematicFilteringMode@NpScene@physx@@UEBA?AW4Enum@PxPairFilteringMode@2@XZ 000000018006f830 f   NpScene.obj
 0001:0006e870       ?getLimits@NpScene@physx@@UEBA?AVPxSceneLimits@2@XZ 000000018006f870 f   NpScene.obj
 0001:0006e8d0       ?getMaxBiasCoefficient@NpScene@physx@@UEBAMXZ 000000018006f8d0 f   NpScene.obj
 0001:0006e920       ?getMaxNbContactDataBlocksUsed@NpScene@physx@@UEBAIXZ 000000018006f920 f   NpScene.obj
 0001:0006e980       ?getName@NpScene@physx@@UEBAPEBDXZ 000000018006f980 f   NpScene.obj
 0001:0006e990       ?getName@SceneCompletion@NpScene@physx@@UEBAPEBDXZ 000000018006f990 f i NpScene.obj
 0001:0006e9a0       ?getNbActors@NpScene@physx@@UEBAIV?$PxFlags@W4Enum@PxActorTypeFlag@physx@@G@2@@Z 000000018006f9a0 f   NpScene.obj
 0001:0006ea00       ?getNbAggregates@NpScene@physx@@UEBAIXZ 000000018006fa00 f   NpScene.obj
 0001:0006ea40       ?getNbArticulations@NpScene@physx@@UEBAIXZ 000000018006fa40 f   NpScene.obj
 0001:0006ea80       ?getNbBroadPhaseRegions@NpScene@physx@@UEBAIXZ 000000018006fa80 f   NpScene.obj
 0001:0006ead0       ?getNbConstraints@NpScene@physx@@UEBAIXZ 000000018006fad0 f   NpScene.obj
 0001:0006eb10       ?getNbContactDataBlocksUsed@NpScene@physx@@UEBAIXZ 000000018006fb10 f   NpScene.obj
 0001:0006eb70       ?getNbParticleSystems@NpScene@physx@@UEBAIW4Enum@PxParticleSolverType@2@@Z 000000018006fb70 f   NpScene.obj
 0001:0006ebc0       ?getNbSoftBodies@NpScene@physx@@UEBAIXZ 000000018006fbc0 f   NpScene.obj
 0001:0006ec00       ?getNbTriangles@RenderBuffer@Cm@physx@@UEBAIXZ 000000018006fc00 f i NpScene.obj
 0001:0006ec10       ?getParticleSystems@NpScene@physx@@UEBAIW4Enum@PxParticleSolverType@2@PEAPEAVPxParticleSystem@2@II@Z 000000018006fc10 f   NpScene.obj
 0001:0006ecc0       ?getPhysics@NpScene@physx@@UEAAAEAVPxPhysics@2@XZ 000000018006fcc0 f   NpScene.obj
 0001:0006ecd0       ?getRenderBuffer@NpScene@physx@@UEAAAEBVPxRenderBuffer@2@XZ 000000018006fcd0 f   NpScene.obj
 0001:0006ed10       ?getScenePvdClient@NpScene@physx@@UEAAPEAVPxPvdSceneClient@2@XZ 000000018006fd10 f   NpScene.obj
 0001:0006ed20       ?getSimulationController@NpScene@physx@@UEAAPEAVPxsSimulationController@2@XZ 000000018006fd20 f   NpScene.obj
 0001:0006ed30       ?getSimulationEventCallback@NpScene@physx@@UEBAPEAVPxSimulationEventCallback@2@XZ 000000018006fd30 f   NpScene.obj
 0001:0006ed70       ?getSimulationStatistics@NpScene@physx@@UEBAXAEAVPxSimulationStatistics@2@@Z 000000018006fd70 f   NpScene.obj
 0001:0006ede0       ?getSoftBodies@NpScene@physx@@UEBAIPEAPEAVPxSoftBody@2@II@Z 000000018006fde0 f   NpScene.obj
 0001:0006ee80       ?getSolverArticulationBatchSize@NpScene@physx@@UEBAIXZ 000000018006fe80 f   NpScene.obj
 0001:0006eec0       ?getSolverBatchSize@NpScene@physx@@UEBAIXZ 000000018006fec0 f   NpScene.obj
 0001:0006ef00       ?getSolverType@NpScene@physx@@UEBA?AW4Enum@PxSolverType@2@XZ 000000018006ff00 f   NpScene.obj
 0001:0006ef40       ?getStaticKinematicFilteringMode@NpScene@physx@@UEBA?AW4Enum@PxPairFilteringMode@2@XZ 000000018006ff40 f   NpScene.obj
 0001:0006ef80       ?getTaskManager@NpScene@physx@@UEBAPEAVPxTaskManager@2@XZ 000000018006ff80 f i NpScene.obj
 0001:0006ef90       ?getTimestamp@NpScene@physx@@UEBAIXZ 000000018006ff90 f   NpScene.obj
 0001:0006efa0       ?getVisualizationCullingBox@NpScene@physx@@UEBA?AVPxBounds3@2@XZ 000000018006ffa0 f   NpScene.obj
 0001:0006f010       ?getVisualizationParameter@NpScene@physx@@UEBAMW4Enum@PxVisualizationParameter@2@@Z 0000000180070010 f   NpScene.obj
 0001:0006f050       ?getWakeCounterResetValue@NpScene@physx@@UEBAMXZ 0000000180070050 f   NpScene.obj
 0001:0006f0a0       ?growAndPushBack@?$PxArray@PEAVNpConstraint@physx@@V?$PxReflectionAllocator@PEAVNpConstraint@physx@@@2@@physx@@IEAAAEAPEAVNpConstraint@2@AEBQEAV32@@Z 00000001800700a0 f i NpScene.obj
 0001:0006f1d0       ?growAndPushBack@?$PxArray@PEAVNpRigidDynamic@physx@@V?$PxReflectionAllocator@PEAVNpRigidDynamic@physx@@@2@@physx@@IEAAAEAPEAVNpRigidDynamic@2@AEBQEAV32@@Z 00000001800701d0 f i NpScene.obj
 0001:0006f290       ?growAndPushBack@?$PxArray@PEAVNpRigidStatic@physx@@V?$PxReflectionAllocator@PEAVNpRigidStatic@physx@@@2@@physx@@IEAAAEAPEAVNpRigidStatic@2@AEBQEAV32@@Z 0000000180070290 f i NpScene.obj
 0001:0006f350       ?growAndPushBack@?$PxArray@PEAXV?$PxReflectionAllocator@U?$Block@E$0BAA@@Scene@Sc@physx@@@physx@@@physx@@IEAAAEAPEAXAEBQEAX@Z 0000000180070350 f i NpScene.obj
 0001:0006f480       ?growAndPushBack@?$PxArray@PEAXV?$PxReflectionAllocator@U?$Block@E$0BIA@@Scene@Sc@physx@@@physx@@@physx@@IEAAAEAPEAXAEBQEAX@Z 0000000180070480 f i NpScene.obj
 0001:0006f5b0       ?growAndPushBack@?$PxArray@PEAXV?$PxReflectionAllocator@U?$Block@E$0IA@@Scene@Sc@physx@@@physx@@@physx@@IEAAAEAPEAXAEBQEAX@Z 00000001800705b0 f i NpScene.obj
 0001:0006f6e0       ?growAndPushBack@?$PxArray@PEAXV?$PxReflectionAllocator@U?$Block@PEAX$07@Scene@Sc@physx@@@physx@@@physx@@IEAAAEAPEAXAEBQEAX@Z 00000001800706e0 f i NpScene.obj
 0001:0006f810       ?growAndPushBack@?$PxArray@PEAXV?$PxReflectionAllocator@U?$Block@PEAX$0BA@@Scene@Sc@physx@@@physx@@@physx@@IEAAAEAPEAXAEBQEAX@Z 0000000180070810 f i NpScene.obj
 0001:0006f940       ?growAndPushBack@?$PxArray@PEAXV?$PxReflectionAllocator@U?$Block@PEAX$0CA@@Scene@Sc@physx@@@physx@@@physx@@IEAAAEAPEAXAEBQEAX@Z 0000000180070940 f i NpScene.obj
 0001:0006fa70       ?growAndPushBack@?$PxArray@UPxDebugLine@physx@@V?$PxReflectionAllocator@UPxDebugLine@physx@@@2@@physx@@IEAAAEAUPxDebugLine@2@AEBU32@@Z 0000000180070a70 f i NpScene.obj
 0001:0006fb50       ?growAndPushBack@?$PxArray@UPxDebugPoint@physx@@V?$PxReflectionAllocator@UPxDebugPoint@physx@@@2@@physx@@IEAAAEAUPxDebugPoint@2@AEBU32@@Z 0000000180070b50 f i NpScene.obj
 0001:0006fc10       ?growAndPushBack@?$PxArray@UPxDebugTriangle@physx@@V?$PxReflectionAllocator@UPxDebugTriangle@physx@@@2@@physx@@IEAAAEAUPxDebugTriangle@2@AEBU32@@Z 0000000180070c10 f i NpScene.obj
 0001:0006fd10       ?growAndPushBack@?$PxArray@VMaterialEvent@NpScene@physx@@V?$PxReflectionAllocator@VMaterialEvent@NpScene@physx@@@3@@physx@@IEAAAEAVMaterialEvent@NpScene@2@AEBV342@@Z 0000000180070d10 f i NpScene.obj
 0001:0006fdd0       ?loadFromDesc@NpScene@physx@@QEAA_NAEBVPxSceneDesc@2@@Z 0000000180070dd0 f   NpScene.obj
 0001:0006fe70       ?lockRead@NpScene@physx@@UEAAXPEBDI@Z 0000000180070e70 f   NpScene.obj
 0001:0006ff00       ?lockWrite@NpScene@physx@@UEAAXPEBDI@Z 0000000180070f00 f   NpScene.obj
 0001:0006fff0       ?recreate@?$PxArray@PEAVNpRigidDynamic@physx@@V?$PxReflectionAllocator@PEAVNpRigidDynamic@physx@@@2@@physx@@IEAAXI@Z 0000000180070ff0 f i NpScene.obj
 0001:00070090       ?recreate@?$PxArray@PEAVNpRigidStatic@physx@@V?$PxReflectionAllocator@PEAVNpRigidStatic@physx@@@2@@physx@@IEAAXI@Z 0000000180071090 f i NpScene.obj
 0001:00070130       ?recreate@?$PxArray@UPxDebugLine@physx@@V?$PxReflectionAllocator@UPxDebugLine@physx@@@2@@physx@@IEAAXI@Z 0000000180071130 f i NpScene.obj
 0001:000701c0       ?recreate@?$PxArray@UPxDebugPoint@physx@@V?$PxReflectionAllocator@UPxDebugPoint@physx@@@2@@physx@@IEAAXI@Z 00000001800711c0 f i NpScene.obj
 0001:00070250       ?recreate@?$PxArray@UPxDebugTriangle@physx@@V?$PxReflectionAllocator@UPxDebugTriangle@physx@@@2@@physx@@IEAAXI@Z 0000000180071250 f i NpScene.obj
 0001:000702e0       ?recreate@?$PxArray@VMaterialEvent@NpScene@physx@@V?$PxReflectionAllocator@VMaterialEvent@NpScene@physx@@@3@@physx@@IEAAXI@Z 00000001800712e0 f i NpScene.obj
 0001:00070380       ?recreate@?$PxArray@VPxBounds3@physx@@V?$PxInlineAllocator@$0MA@V?$PxReflectionAllocator@VPxBounds3@physx@@@physx@@@2@@physx@@IEAAXI@Z 0000000180071380 f i NpScene.obj
 0001:00070540       ?release@NpScene@physx@@UEAAXXZ 0000000180071540 f   NpScene.obj
 0001:000705e0       ?release@PxLightCpuTask@physx@@UEAAXXZ 00000001800715e0 f i NpScene.obj
 0001:00070600       ?release@SceneCompletion@NpScene@physx@@UEAAXXZ 0000000180071600 f i NpScene.obj
 0001:00070630       ?releaseInstance@?$PvdFns@VNpRigidDynamic@physx@@@@SAXAEAVNpScene@physx@@AEAVPvdSceneClient@Vd@3@PEAVNpRigidDynamic@3@@Z 0000000180071630 f i NpScene.obj
 0001:00070630       ?releaseInstance@?$PvdFns@VNpRigidStatic@physx@@@@SAXAEAVNpScene@physx@@AEAVPvdSceneClient@Vd@3@PEAVNpRigidStatic@3@@Z 0000000180071630 f i NpScene.obj
 0001:000706d0       ?removeActor@NpScene@physx@@UEAAXAEAVPxActor@2@_N@Z 00000001800716d0 f   NpScene.obj
 0001:00070800       ?removeActorInternal@NpScene@physx@@QEAAXAEAVPxActor@2@_N1@Z 0000000180071800 f   NpScene.obj
 0001:000708c0       ?removeActors@NpScene@physx@@UEAAXPEBQEAVPxActor@2@I_N@Z 00000001800718c0 f   NpScene.obj
 0001:00070c20       ?removeAggregate@NpScene@physx@@UEAAXAEAVPxAggregate@2@_N@Z 0000000180071c20 f   NpScene.obj
 0001:00070f60       ?removeArticulation@NpScene@physx@@UEAAXAEAVPxArticulationReducedCoordinate@2@_N@Z 0000000180071f60 f   NpScene.obj
 0001:000710d0       ?removeArticulationInternal@NpScene@physx@@QEAAXAEAVPxArticulationReducedCoordinate@2@_N1@Z 00000001800720d0 f   NpScene.obj
 0001:000714a0       ?removeArticulationLink@NpScene@physx@@QEAAXAEAVNpArticulationLink@2@_N@Z 00000001800724a0 f   NpScene.obj
 0001:000716e0       ?removeArticulationSensors@NpScene@physx@@QEAAXAEAVPxArticulationReducedCoordinate@2@@Z 00000001800726e0 f   NpScene.obj
 0001:00071740       ?removeArticulationTendons@NpScene@physx@@QEAAXAEAVPxArticulationReducedCoordinate@2@@Z 0000000180072740 f   NpScene.obj
 0001:000717d0       ?removeBroadPhaseRegion@NpScene@physx@@UEAA_NI@Z 00000001800727d0 f   NpScene.obj
 0001:00071870       ?removeFromConstraintList@NpScene@physx@@QEAAXAEAVPxConstraint@2@@Z 0000000180072870 f   NpScene.obj
 0001:000719e0       ?removeFromRigidDynamicList@NpScene@physx@@QEAAXAEAVNpRigidDynamic@2@@Z 00000001800729e0 f   NpScene.obj
 0001:00071ab0       ?removeFromRigidStaticList@NpScene@physx@@QEAAXAEAVNpRigidStatic@2@@Z 0000000180072ab0 f   NpScene.obj
 0001:00071b80       ?removeMaterial@NpScene@physx@@QEAAXAEBVNpFEMSoftBodyMaterial@2@@Z 0000000180072b80 f   NpScene.obj
 0001:00071cc0       ?removeMaterial@NpScene@physx@@QEAAXAEBVNpMaterial@2@@Z 0000000180072cc0 f   NpScene.obj
 0001:00071e00       ?removeMaterial@NpScene@physx@@QEAAXAEBVNpPBDMaterial@2@@Z 0000000180072e00 f   NpScene.obj
 0001:00071f40       ?removeParticleSystem@NpScene@physx@@AEAAXAEAVPxParticleSystem@2@_N@Z 0000000180072f40 f   NpScene.obj
 0001:00072060       ?removeReference@PxLightCpuTask@physx@@UEAAXXZ 0000000180073060 f i NpScene.obj
 0001:00072080       ?removeRigidDynamic@NpScene@physx@@AEAAXAEAVNpRigidDynamic@2@_N1@Z 0000000180073080 f   NpScene.obj
 0001:000721b0       ?removeRigidStatic@NpScene@physx@@AEAAXAEAVNpRigidStatic@2@_N1@Z 00000001800731b0 f   NpScene.obj
 0001:000722e0       ?removeSoftBody@NpScene@physx@@AEAAXAEAVPxSoftBody@2@_N@Z 00000001800732e0 f   NpScene.obj
 0001:000723e0       ?reserveLines@RenderBuffer@Cm@physx@@UEAAPEAUPxDebugLine@3@I@Z 00000001800733e0 f i NpScene.obj
 0001:00072440       ?reservePoints@RenderBuffer@Cm@physx@@UEAAPEAUPxDebugPoint@3@I@Z 0000000180073440 f i NpScene.obj
 0001:000724a0       ?resetFiltering@NpScene@physx@@UEAA_NAEAVPxActor@2@@Z 00000001800734a0 f   NpScene.obj
 0001:00072620       ?resetFiltering@NpScene@physx@@UEAA_NAEAVPxRigidActor@2@PEBQEAVPxShape@2@I@Z 0000000180073620 f   NpScene.obj
 0001:00072800       ?resetFiltering_@?$NpRigidActorTemplate@VPxArticulationLink@physx@@@physx@@QEAA_NAEAVNpActor@2@AEAVRigidCore@Sc@2@PEBQEAVPxShape@2@I@Z 0000000180073800 f i NpScene.obj
 0001:00072800       ?resetFiltering_@?$NpRigidActorTemplate@VPxRigidDynamic@physx@@@physx@@QEAA_NAEAVNpActor@2@AEAVRigidCore@Sc@2@PEBQEAVPxShape@2@I@Z 0000000180073800 f i NpScene.obj
 0001:00072800       ?resetFiltering_@?$NpRigidActorTemplate@VPxRigidStatic@physx@@@physx@@QEAA_NAEAVNpActor@2@AEAVRigidCore@Sc@2@PEBQEAVPxShape@2@I@Z 0000000180073800 f i NpScene.obj
 0001:00072a50       ?resize@?$PxArray@VMaterialEvent@NpScene@physx@@V?$PxReflectionAllocator@VMaterialEvent@NpScene@physx@@@3@@physx@@QEAAXIAEBVMaterialEvent@NpScene@2@@Z 0000000180073a50 f i NpScene.obj
 0001:00072b10       ?resize@?$PxsMaterialManagerT@V?$MaterialCoreT@UPxsMaterialData@physx@@VPxMaterial@2@@physx@@@physx@@QEAAXI@Z 0000000180073b10 f i NpScene.obj
 0001:00072e20       ?resizeUninitialized@?$PxArray@VPxBounds3@physx@@V?$PxInlineAllocator@$0MA@V?$PxReflectionAllocator@VPxBounds3@physx@@@physx@@@2@@physx@@QEAAXI@Z 0000000180073e20 f i NpScene.obj
 0001:00072e70       ?run@?$DelegateTask@VNpScene@physx@@$H?executeAdvance@12@QEAAXPEAVPxBaseTask@2@@ZA@@Cm@physx@@UEAAXXZ 0000000180073e70 f i NpScene.obj
 0001:00072ed0       ?run@?$DelegateTask@VNpScene@physx@@$H?executeCollide@12@QEAAXPEAVPxBaseTask@2@@ZA@@Cm@physx@@UEAAXXZ 0000000180073ed0 f i NpScene.obj
 0001:00072f30       ?run@?$DelegateTask@VNpScene@physx@@$H?executeScene@12@QEAAXPEAVPxBaseTask@2@@ZA@@Cm@physx@@UEAAXXZ 0000000180073f30 f i NpScene.obj
 0001:00072f90       ?run@?$DelegateTask@VNpScene@physx@@$H?sceneQueriesDynamicPrunerUpdate@12@AEAAXPEAVPxBaseTask@2@@ZA@@Cm@physx@@UEAAXXZ 0000000180073f90 f i NpScene.obj
 0001:00072fe0       ?run@?$DelegateTask@VNpScene@physx@@$H?sceneQueriesStaticPrunerUpdate@12@AEAAXPEAVPxBaseTask@2@@ZA@@Cm@physx@@UEAAXXZ 0000000180073fe0 f i NpScene.obj
 0001:00073030       ?run@BaseTask@Cm@physx@@UEAAXXZ 0000000180074030 f i SimulationController_static_64:ScScene.obj
 0001:00073030       ?run@Task@Cm@physx@@UEAAXXZ 0000000180074030 f i NpScene.obj
 0001:00073070       ?runInternal@?$DelegateTask@VNpScene@physx@@$H?executeAdvance@12@QEAAXPEAVPxBaseTask@2@@ZA@@Cm@physx@@UEAAXXZ 0000000180074070 f i NpScene.obj
 0001:00073090       ?runInternal@?$DelegateTask@VNpScene@physx@@$H?executeCollide@12@QEAAXPEAVPxBaseTask@2@@ZA@@Cm@physx@@UEAAXXZ 0000000180074090 f i NpScene.obj
 0001:000730b0       ?runInternal@?$DelegateTask@VNpScene@physx@@$H?executeScene@12@QEAAXPEAVPxBaseTask@2@@ZA@@Cm@physx@@UEAAXXZ 00000001800740b0 f i NpScene.obj
 0001:000730d0       ?runInternal@?$DelegateTask@VNpScene@physx@@$H?sceneQueriesDynamicPrunerUpdate@12@AEAAXPEAVPxBaseTask@2@@ZA@@Cm@physx@@UEAAXXZ 00000001800740d0 f i NpScene.obj
 0001:000730e0       ?runInternal@?$DelegateTask@VNpScene@physx@@$H?sceneQueriesStaticPrunerUpdate@12@AEAAXPEAVPxBaseTask@2@@ZA@@Cm@physx@@UEAAXXZ 00000001800740e0 f i NpScene.obj
 0001:000730f0       ?scAddActor@NpScene@physx@@QEAAXAEAVNpRigidDynamic@2@_NPEAVPxBounds3@2@PEBVBVH@Gu@2@@Z 00000001800740f0 f   NpScene.obj
 0001:000732b0       ?scAddActor@NpScene@physx@@QEAAXAEAVNpRigidStatic@2@_NPEAVPxBounds3@2@PEBVBVH@Gu@2@@Z 00000001800742b0 f   NpScene.obj
 0001:00073470       ?scRemoveActor@NpScene@physx@@QEAAXAEAVNpArticulationLink@2@_N1@Z 0000000180074470 f   NpScene.obj
 0001:00073520       ?scRemoveActor@NpScene@physx@@QEAAXAEAVNpRigidDynamic@2@_N1@Z 0000000180074520 f   NpScene.obj
 0001:000736d0       ?scRemoveActor@NpScene@physx@@QEAAXAEAVNpRigidStatic@2@_N1@Z 00000001800746d0 f   NpScene.obj
 0001:00073880       ?scRemoveAggregate@NpScene@physx@@QEAAXAEAVNpAggregate@2@@Z 0000000180074880 f   NpScene.obj
 0001:000738c0       ?scRemoveArticulation@NpScene@physx@@QEAAXAEAVNpArticulationReducedCoordinate@2@@Z 00000001800748c0 f   NpScene.obj
 0001:000739a0       ?scRemoveArticulationFixedTendon@NpScene@physx@@QEAAXAEAVNpArticulationFixedTendon@2@@Z 00000001800749a0 f   NpScene.obj
 0001:00073a70       ?scRemoveArticulationJoint@NpScene@physx@@QEAAXAEAVNpArticulationJointReducedCoordinate@2@@Z 0000000180074a70 f   NpScene.obj
 0001:00073b40       ?scRemoveArticulationSensor@NpScene@physx@@QEAAXAEAVNpArticulationSensor@2@@Z 0000000180074b40 f   NpScene.obj
 0001:00073c10       ?scRemoveArticulationSpatialTendon@NpScene@physx@@QEAAXAEAVNpArticulationSpatialTendon@2@@Z 0000000180074c10 f   NpScene.obj
 0001:00073ce0       ?scRemoveParticleSystem@NpScene@physx@@QEAAXAEAVNpPBDParticleSystem@2@@Z 0000000180074ce0 f   NpScene.obj
 0001:00073dc0       ?scRemoveSoftBody@NpScene@physx@@QEAAXAEAVNpSoftBody@2@@Z 0000000180074dc0 f   NpScene.obj
 0001:00073ea0       ?scSwitchRigidFromNoSim@NpScene@physx@@QEAAXAEAVNpActor@2@@Z 0000000180074ea0 f   NpScene.obj
 0001:00073f90       ?scSwitchRigidToNoSim@NpScene@physx@@QEAAXAEAVNpActor@2@@Z 0000000180074f90 f   NpScene.obj
 0001:00074080       ?setActiveActors@NpScene@physx@@UEAAXPEAPEAVPxActor@2@I@Z 0000000180075080 f   NpScene.obj
 0001:000740e0       ?setBounceThresholdVelocity@NpScene@physx@@UEAAXM@Z 00000001800750e0 f   NpScene.obj
 0001:00074200       ?setBroadPhaseCallback@NpScene@physx@@UEAAXPEAVPxBroadPhaseCallback@2@@Z 0000000180075200 f   NpScene.obj
 0001:000742d0       ?setCCDContactModifyCallback@NpScene@physx@@UEAAXPEAVPxCCDContactModifyCallback@2@@Z 00000001800752d0 f   NpScene.obj
 0001:000743b0       ?setCCDMaxPasses@NpScene@physx@@UEAAXI@Z 00000001800753b0 f   NpScene.obj
 0001:000744d0       ?setCCDMaxSeparation@NpScene@physx@@UEAAXM@Z 00000001800754d0 f   NpScene.obj
 0001:000745f0       ?setCCDThreshold@NpScene@physx@@UEAAXM@Z 00000001800755f0 f   NpScene.obj
 0001:00074710       ?setContactModifyCallback@NpScene@physx@@UEAAXPEAVPxContactModifyCallback@2@@Z 0000000180075710 f   NpScene.obj
 0001:00074800       ?setDominanceGroupPair@NpScene@physx@@UEAAXEEAEBUPxDominanceGroupPair@2@@Z 0000000180075800 f   NpScene.obj
 0001:00074970       ?setFilterShaderData@NpScene@physx@@UEAAXPEBXI@Z 0000000180075970 f   NpScene.obj
 0001:00074a50       ?setFlag@NpScene@physx@@UEAAXW4Enum@PxSceneFlag@2@_N@Z 0000000180075a50 f   NpScene.obj
 0001:00074bb0       ?setFrictionCorrelationDistance@NpScene@physx@@UEAAXM@Z 0000000180075bb0 f   NpScene.obj
 0001:00074cd0       ?setFrictionOffsetThreshold@NpScene@physx@@UEAAXM@Z 0000000180075cd0 f   NpScene.obj
 0001:00074df0       ?setFrozenActorFlag@NpScene@physx@@UEAAX_N@Z 0000000180075df0 f   NpScene.obj
 0001:00074e70       ?setGravity@NpScene@physx@@UEAAXAEBV?$PxVec3T@M@2@@Z 0000000180075e70 f   NpScene.obj
 0001:00074f50       ?setLimits@NpScene@physx@@UEAAXAEBVPxSceneLimits@2@@Z 0000000180075f50 f   NpScene.obj
 0001:00075180       ?setMaxBiasCoefficient@NpScene@physx@@UEAAXM@Z 0000000180076180 f   NpScene.obj
 0001:000752a0       ?setName@NpScene@physx@@UEAAXPEBD@Z 00000001800762a0 f   NpScene.obj
 0001:000752b0       ?setNbContactDataBlocks@NpScene@physx@@UEAAXI@Z 00000001800762b0 f   NpScene.obj
 0001:00075340       ?setSimulationEventCallback@NpScene@physx@@UEAAXPEAVPxSimulationEventCallback@2@@Z 0000000180076340 f   NpScene.obj
 0001:00075420       ?setSolverArticulationBatchSize@NpScene@physx@@UEAAXI@Z 0000000180076420 f   NpScene.obj
 0001:00075500       ?setSolverBatchSize@NpScene@physx@@UEAAXI@Z 0000000180076500 f   NpScene.obj
 0001:000755e0       ?setVisualizationCullingBox@NpScene@physx@@UEAAXAEBVPxBounds3@2@@Z 00000001800765e0 f   NpScene.obj
 0001:000757e0       ?setVisualizationParameter@NpScene@physx@@UEAA_NW4Enum@PxVisualizationParameter@2@M@Z 00000001800767e0 f   NpScene.obj
 0001:000758f0       ?shift@RenderBuffer@Cm@physx@@UEAAXAEBV?$PxVec3T@M@3@@Z 00000001800768f0 f i NpScene.obj
 0001:00075aa0       ?shiftOrigin@NpScene@physx@@UEAAXAEBV?$PxVec3T@M@2@@Z 0000000180076aa0 f   NpScene.obj
 0001:00075e80       ?simulate@NpScene@physx@@UEAA_NMPEAVPxBaseTask@2@PEAXI_N@Z 0000000180076e80 f   NpScene.obj
 0001:00075ec0       ?simulateOrCollide@NpScene@physx@@AEAA_NMPEAVPxBaseTask@2@PEAXI_NPEBDW4Enum@SimulationStage@Sc@2@@Z 0000000180076ec0 f   NpScene.obj
 0001:00076570       ?startRead@NpScene@physx@@QEBA_NXZ 0000000180077570 f   NpScene.obj
 0001:00076650       ?startWrite@NpScene@physx@@QEAA?AW4Enum@StartWriteResult@12@_N@Z 0000000180077650 f   NpScene.obj
 0001:00076780       ?stopRead@NpScene@physx@@QEBAXXZ 0000000180077780 f   NpScene.obj
 0001:00076800       ?stopWrite@NpScene@physx@@QEAAX_N@Z 0000000180077800 f   NpScene.obj
 0001:00076890       ?unlockRead@NpScene@physx@@UEAAXXZ 0000000180077890 f   NpScene.obj
 0001:00076930       ?unlockWrite@NpScene@physx@@UEAAXXZ 0000000180077930 f   NpScene.obj
 0001:000769e0       ?updateConstants@NpScene@physx@@QEAAXAEBV?$PxArray@PEAVNpConstraint@physx@@V?$PxReflectionAllocator@PEAVNpConstraint@physx@@@2@@2@@Z 00000001800779e0 f   NpScene.obj
 0001:00076a30       ?updateMaterial@NpScene@physx@@QEAAXAEBVNpFEMSoftBodyMaterial@2@@Z 0000000180077a30 f   NpScene.obj
 0001:00076b60       ?updateMaterial@NpScene@physx@@QEAAXAEBVNpMaterial@2@@Z 0000000180077b60 f   NpScene.obj
 0001:00076c90       ?updateMaterial@NpScene@physx@@QEAAXAEBVNpPBDMaterial@2@@Z 0000000180077c90 f   NpScene.obj
 0001:00076e80       ??_ENpContactCallbackTask@physx@@UEAAPEAXI@Z 0000000180077e80 f i NpSceneFetchResults.obj
 0001:00076e80       ??_EPxsParallelSolverTask@Dy@physx@@UEAAPEAXI@Z 0000000180077e80 f i LowLevelDynamics_static_64:DyDynamics.obj
 0001:00076e80       ??_ESetStepperTask@Dy@physx@@UEAAPEAXI@Z 0000000180077e80 f i LowLevelDynamics_static_64:DyTGSDynamics.obj
 0001:00076e80       ??_ESetupArticulationInternalConstraintsTask@Dy@physx@@UEAAPEAXI@Z 0000000180077e80 f i LowLevelDynamics_static_64:DyTGSDynamics.obj
 0001:00076e80       ??_GNpContactCallbackTask@physx@@UEAAPEAXI@Z 0000000180077e80 f i NpSceneFetchResults.obj
 0001:00076e80       ??_GPxsParallelSolverTask@Dy@physx@@UEAAPEAXI@Z 0000000180077e80 f i LowLevelDynamics_static_64:DyDynamics.obj
 0001:00076e80       ??_GSetStepperTask@Dy@physx@@UEAAPEAXI@Z 0000000180077e80 f i LowLevelDynamics_static_64:DyTGSDynamics.obj
 0001:00076e80       ??_GSetupArticulationInternalConstraintsTask@Dy@physx@@UEAAPEAXI@Z 0000000180077e80 f i LowLevelDynamics_static_64:DyTGSDynamics.obj
 0001:00076ec0       ?allocate@?$PxArray@PEAEV?$PxReflectionAllocator@PEAE@physx@@@physx@@IEAAPEAPEAEI@Z 0000000180077ec0 f i NpSceneFetchResults.obj
 0001:00076f70       ?checkResults@NpScene@physx@@UEAA_N_N@Z 0000000180077f70 f   NpSceneFetchResults.obj
 0001:00076f80       ?checkResultsInternal@NpScene@physx@@AEAA_N_N@Z 0000000180077f80 f   NpSceneFetchResults.obj
 0001:00077030       ?fetchResults@NpScene@physx@@UEAA_N_NPEAI@Z 0000000180078030 f   NpSceneFetchResults.obj
 0001:00077ce0       ?fetchResultsFinish@NpScene@physx@@UEAAXPEAI@Z 0000000180078ce0 f   NpSceneFetchResults.obj
 0001:00077f70       ?fetchResultsParticleSystem@NpScene@physx@@EEAAXXZ 0000000180078f70 f   NpSceneFetchResults.obj
 0001:00077f90       ?fetchResultsPostContactCallbacks@NpScene@physx@@AEAAXXZ 0000000180078f90 f   NpSceneFetchResults.obj
 0001:00078180       ?fetchResultsPreContactCallbacks@NpScene@physx@@AEAAXXZ 0000000180079180 f   NpSceneFetchResults.obj
 0001:00078350       ?fetchResultsStart@NpScene@physx@@UEAA_NAEAPEBUPxContactPairHeader@2@AEAI_N@Z 0000000180079350 f   NpSceneFetchResults.obj
 0001:00078520       ?getName@NpContactCallbackTask@physx@@UEBAPEBDXZ 0000000180079520 f i NpSceneFetchResults.obj
 0001:00078530       ?growAndPushBack@?$PxArray@PEAEV?$PxReflectionAllocator@PEAE@physx@@@physx@@IEAAAEAPEAEAEBQEAE@Z 0000000180079530 f i NpSceneFetchResults.obj
 0001:000785f0       ?processCallbacks@NpScene@physx@@UEAAXPEAVPxBaseTask@2@@Z 00000001800795f0 f   NpSceneFetchResults.obj
 0001:00078920       ?run@NpContactCallbackTask@physx@@UEAAXXZ 0000000180079920 f   NpSceneFetchResults.obj
 0001:000789f0       ??0NpSceneQueries@physx@@QEAA@AEBVPxSceneDesc@1@PEAVPvdSceneClient@Vd@1@_K@Z 00000001800799f0 f   NpSceneQueries.obj
 0001:00078bc0       ??1NpSceneQueries@physx@@UEAA@XZ 0000000180079bc0 f   NpSceneQueries.obj
 0001:00078c20       ??1PvdSceneQueryCollector@Vd@physx@@QEAA@XZ 0000000180079c20 f i NpSceneQueries.obj
 0001:00078dd4       ??_ENpSceneQueries@physx@@W7EAAPEAXI@Z 0000000180079dd4 f i NpSceneQueries.obj
 0001:00078eb0       ??_ENpSceneQueries@physx@@UEAAPEAXI@Z 0000000180079eb0 f i NpSceneQueries.obj
 0001:00078eb0       ??_GNpSceneQueries@physx@@UEAAPEAXI@Z 0000000180079eb0 f i NpSceneQueries.obj
 0001:000792c0       ?checkQueries@NpScene@physx@@UEAA_N_N@Z 000000018007a2c0 f   NpSceneQueries.obj
 0001:000792d0       ?checkSceneQueriesInternal@NpScene@physx@@AEAA_N_N@Z 000000018007a2d0 f   NpSceneQueries.obj
 0001:00079420       ?fetchQueries@NpScene@physx@@UEAA_N_N@Z 000000018007a420 f   NpSceneQueries.obj
 0001:00079630       ?flushUpdates@NpScene@physx@@UEAAXXZ 000000018007a630 f   NpSceneQueries.obj
 0001:00079750       ?forceRebuildDynamicTree@NpScene@physx@@UEAAXI@Z 000000018007a750 f   NpSceneQueries.obj
 0001:00079860       ?forceSceneQueryRebuild@NpScene@physx@@UEAAXXZ 000000018007a860 f   NpSceneQueries.obj
 0001:000798c0       ?getDynamicTreeRebuildRateHint@NpScene@physx@@UEBAIXZ 000000018007a8c0 f   NpSceneQueries.obj
 0001:000799b0       ?getStaticTimestamp@NpScene@physx@@UEBAIXZ 000000018007a9b0 f   NpSceneQueries.obj
 0001:000799c0       ?getUpdateMode@NpScene@physx@@UEBA?AW4Enum@PxSceneQueryUpdateMode@2@XZ 000000018007a9c0 f   NpSceneQueries.obj
 0001:00079b50       ?overlap@NpScene@physx@@UEBA_NAEBVPxGeometry@2@AEBV?$PxTransformT@M@2@AEAU?$PxHitCallback@UPxOverlapHit@physx@@@2@AEBUPxQueryFilterData@2@PEAVPxQueryFilterCallback@2@PEBUPxQueryCache@2@V?$PxFlags@W4Enum@PxGeometryQueryFlag@physx@@I@2@@Z 000000018007ab50 f   NpSceneQueries.obj
 0001:00079c10       ?overlap@NpSceneQueries@physx@@UEAAXAEBVPxGeometry@2@AEBV?$PxTransformT@M@2@PEBUPxOverlapHit@2@IAEBUPxQueryFilterData@2@@Z 000000018007ac10 f   NpSceneQueries.obj
 0001:00079cc0       ?raycast@NpScene@physx@@UEBA_NAEBV?$PxVec3T@M@2@0MAEAU?$PxHitCallback@UPxRaycastHit@physx@@@2@V?$PxFlags@W4Enum@PxHitFlag@physx@@G@2@AEBUPxQueryFilterData@2@PEAVPxQueryFilterCallback@2@PEBUPxQueryCache@2@V?$PxFlags@W4Enum@PxGeometryQueryFlag@physx@@I@2@@Z 000000018007acc0 f   NpSceneQueries.obj
 0001:00079db0       ?raycast@NpSceneQueries@physx@@UEAAXAEBV?$PxVec3T@M@2@0MPEBUPxRaycastHit@2@IAEBUPxQueryFilterData@2@_N@Z 000000018007adb0 f   NpSceneQueries.obj
 0001:00079e80       ?sceneQueriesDynamicPrunerUpdate@NpScene@physx@@AEAAXPEAVPxBaseTask@2@@Z 000000018007ae80 f   NpSceneQueries.obj
 0001:00079f30       ?sceneQueriesStaticPrunerUpdate@NpScene@physx@@AEAAXPEAVPxBaseTask@2@@Z 000000018007af30 f   NpSceneQueries.obj
 0001:00079fe0       ?sceneQueriesUpdate@NpScene@physx@@UEAAXPEAVPxBaseTask@2@_N@Z 000000018007afe0 f   NpSceneQueries.obj
 0001:0007a390       ?setDynamicTreeRebuildRateHint@NpScene@physx@@UEAAXI@Z 000000018007b390 f   NpSceneQueries.obj
 0001:0007a430       ?setUpdateMode@NpScene@physx@@UEAAXW4Enum@PxSceneQueryUpdateMode@2@@Z 000000018007b430 f   NpSceneQueries.obj
 0001:0007a550       ?sweep@NpScene@physx@@UEBA_NAEBVPxGeometry@2@AEBV?$PxTransformT@M@2@AEBV?$PxVec3T@M@2@MAEAU?$PxHitCallback@UPxSweepHit@physx@@@2@V?$PxFlags@W4Enum@PxHitFlag@physx@@G@2@AEBUPxQueryFilterData@2@PEAVPxQueryFilterCallback@2@PEBUPxQueryCache@2@MV?$PxFlags@W4Enum@PxGeometryQueryFlag@physx@@I@2@@Z 000000018007b550 f   NpSceneQueries.obj
 0001:0007a660       ?sweep@NpSceneQueries@physx@@UEAAXAEBVPxGeometry@2@AEBV?$PxTransformT@M@2@AEBV?$PxVec3T@M@2@MPEBUPxSweepHit@2@IAEBUPxQueryFilterData@2@_N@Z 000000018007b660 f   NpSceneQueries.obj
 0001:0007a6d0       ?sync@NpSceneQueries@physx@@MEAAXIPEBI0PEBVPxBounds3@2@PEBUPxTransformPadded@2@IAEBV?$PxBitMapBase@VPxAllocator@physx@@@2@@Z 000000018007b6d0 f   NpSceneQueries.obj
 0001:0007a6e0       ?syncSQ@NpScene@physx@@AEAAXXZ 000000018007b6e0 f   NpSceneQueries.obj
 0001:0007ab80       ?transmitSceneQueries@NpSceneQueries@physx@@UEAA_NXZ 000000018007bb80 f   NpSceneQueries.obj
 0001:0007ac50       ??_E?$PxSerializerDefaultAdapter@VBV4TriangleMesh@Gu@physx@@@physx@@UEAAPEAXI@Z 000000018007bc50 f i NpSerializerAdapter.obj
 0001:0007ac50       ??_E?$PxSerializerDefaultAdapter@VConvexMesh@Gu@physx@@@physx@@UEAAPEAXI@Z 000000018007bc50 f i NpSerializerAdapter.obj
 0001:0007ac50       ??_E?$PxSerializerDefaultAdapter@VHeightField@Gu@physx@@@physx@@UEAAPEAXI@Z 000000018007bc50 f i NpSerializerAdapter.obj
 0001:0007ac50       ??_E?$PxSerializerDefaultAdapter@VNpAggregate@physx@@@physx@@UEAAPEAXI@Z 000000018007bc50 f i NpSerializerAdapter.obj
 0001:0007ac50       ??_E?$PxSerializerDefaultAdapter@VNpArticulationAttachment@physx@@@physx@@UEAAPEAXI@Z 000000018007bc50 f i NpSerializerAdapter.obj
 0001:0007ac50       ??_E?$PxSerializerDefaultAdapter@VNpArticulationFixedTendon@physx@@@physx@@UEAAPEAXI@Z 000000018007bc50 f i NpSerializerAdapter.obj
 0001:0007ac50       ??_E?$PxSerializerDefaultAdapter@VNpArticulationJointReducedCoordinate@physx@@@physx@@UEAAPEAXI@Z 000000018007bc50 f i NpSerializerAdapter.obj
 0001:0007ac50       ??_E?$PxSerializerDefaultAdapter@VNpArticulationLink@physx@@@physx@@UEAAPEAXI@Z 000000018007bc50 f i NpSerializerAdapter.obj
 0001:0007ac50       ??_E?$PxSerializerDefaultAdapter@VNpArticulationReducedCoordinate@physx@@@physx@@UEAAPEAXI@Z 000000018007bc50 f i NpSerializerAdapter.obj
 0001:0007ac50       ??_E?$PxSerializerDefaultAdapter@VNpArticulationSensor@physx@@@physx@@UEAAPEAXI@Z 000000018007bc50 f i NpSerializerAdapter.obj
 0001:0007ac50       ??_E?$PxSerializerDefaultAdapter@VNpArticulationSpatialTendon@physx@@@physx@@UEAAPEAXI@Z 000000018007bc50 f i NpSerializerAdapter.obj
 0001:0007ac50       ??_E?$PxSerializerDefaultAdapter@VNpArticulationTendonJoint@physx@@@physx@@UEAAPEAXI@Z 000000018007bc50 f i NpSerializerAdapter.obj
 0001:0007ac50       ??_E?$PxSerializerDefaultAdapter@VNpConstraint@physx@@@physx@@UEAAPEAXI@Z 000000018007bc50 f i NpSerializerAdapter.obj
 0001:0007ac50       ??_E?$PxSerializerDefaultAdapter@VNpMaterial@physx@@@physx@@UEAAPEAXI@Z 000000018007bc50 f i NpSerializerAdapter.obj
 0001:0007ac50       ??_E?$PxSerializerDefaultAdapter@VNpRigidDynamic@physx@@@physx@@UEAAPEAXI@Z 000000018007bc50 f i NpSerializerAdapter.obj
 0001:0007ac50       ??_E?$PxSerializerDefaultAdapter@VNpRigidStatic@physx@@@physx@@UEAAPEAXI@Z 000000018007bc50 f i NpSerializerAdapter.obj
 0001:0007ac50       ??_E?$PxSerializerDefaultAdapter@VNpShape@physx@@@physx@@UEAAPEAXI@Z 000000018007bc50 f i NpSerializerAdapter.obj
 0001:0007ac50       ??_E?$PxSerializerDefaultAdapter@VPruningStructure@Sq@physx@@@physx@@UEAAPEAXI@Z 000000018007bc50 f i NpSerializerAdapter.obj
 0001:0007ac50       ??_E?$PxSerializerDefaultAdapter@VRTreeTriangleMesh@Gu@physx@@@physx@@UEAAPEAXI@Z 000000018007bc50 f i NpSerializerAdapter.obj
 0001:0007ac50       ??_G?$PxSerializerDefaultAdapter@VBV4TriangleMesh@Gu@physx@@@physx@@UEAAPEAXI@Z 000000018007bc50 f i NpSerializerAdapter.obj
 0001:0007ac50       ??_G?$PxSerializerDefaultAdapter@VConvexMesh@Gu@physx@@@physx@@UEAAPEAXI@Z 000000018007bc50 f i NpSerializerAdapter.obj
 0001:0007ac50       ??_G?$PxSerializerDefaultAdapter@VHeightField@Gu@physx@@@physx@@UEAAPEAXI@Z 000000018007bc50 f i NpSerializerAdapter.obj
 0001:0007ac50       ??_G?$PxSerializerDefaultAdapter@VNpAggregate@physx@@@physx@@UEAAPEAXI@Z 000000018007bc50 f i NpSerializerAdapter.obj
 0001:0007ac50       ??_G?$PxSerializerDefaultAdapter@VNpArticulationAttachment@physx@@@physx@@UEAAPEAXI@Z 000000018007bc50 f i NpSerializerAdapter.obj
 0001:0007ac50       ??_G?$PxSerializerDefaultAdapter@VNpArticulationFixedTendon@physx@@@physx@@UEAAPEAXI@Z 000000018007bc50 f i NpSerializerAdapter.obj
 0001:0007ac50       ??_G?$PxSerializerDefaultAdapter@VNpArticulationJointReducedCoordinate@physx@@@physx@@UEAAPEAXI@Z 000000018007bc50 f i NpSerializerAdapter.obj
 0001:0007ac50       ??_G?$PxSerializerDefaultAdapter@VNpArticulationLink@physx@@@physx@@UEAAPEAXI@Z 000000018007bc50 f i NpSerializerAdapter.obj
 0001:0007ac50       ??_G?$PxSerializerDefaultAdapter@VNpArticulationReducedCoordinate@physx@@@physx@@UEAAPEAXI@Z 000000018007bc50 f i NpSerializerAdapter.obj
 0001:0007ac50       ??_G?$PxSerializerDefaultAdapter@VNpArticulationSensor@physx@@@physx@@UEAAPEAXI@Z 000000018007bc50 f i NpSerializerAdapter.obj
 0001:0007ac50       ??_G?$PxSerializerDefaultAdapter@VNpArticulationSpatialTendon@physx@@@physx@@UEAAPEAXI@Z 000000018007bc50 f i NpSerializerAdapter.obj
 0001:0007ac50       ??_G?$PxSerializerDefaultAdapter@VNpArticulationTendonJoint@physx@@@physx@@UEAAPEAXI@Z 000000018007bc50 f i NpSerializerAdapter.obj
 0001:0007ac50       ??_G?$PxSerializerDefaultAdapter@VNpConstraint@physx@@@physx@@UEAAPEAXI@Z 000000018007bc50 f i NpSerializerAdapter.obj
 0001:0007ac50       ??_G?$PxSerializerDefaultAdapter@VNpMaterial@physx@@@physx@@UEAAPEAXI@Z 000000018007bc50 f i NpSerializerAdapter.obj
 0001:0007ac50       ??_G?$PxSerializerDefaultAdapter@VNpRigidDynamic@physx@@@physx@@UEAAPEAXI@Z 000000018007bc50 f i NpSerializerAdapter.obj
 0001:0007ac50       ??_G?$PxSerializerDefaultAdapter@VNpRigidStatic@physx@@@physx@@UEAAPEAXI@Z 000000018007bc50 f i NpSerializerAdapter.obj
 0001:0007ac50       ??_G?$PxSerializerDefaultAdapter@VNpShape@physx@@@physx@@UEAAPEAXI@Z 000000018007bc50 f i NpSerializerAdapter.obj
 0001:0007ac50       ??_G?$PxSerializerDefaultAdapter@VPruningStructure@Sq@physx@@@physx@@UEAAPEAXI@Z 000000018007bc50 f i NpSerializerAdapter.obj
 0001:0007ac50       ??_G?$PxSerializerDefaultAdapter@VRTreeTriangleMesh@Gu@physx@@@physx@@UEAAPEAXI@Z 000000018007bc50 f i NpSerializerAdapter.obj
 0001:0007ac80       ??_EPxSerializer@physx@@UEAAPEAXI@Z 000000018007bc80 f i NpSerializerAdapter.obj
 0001:0007ac80       ??_GPxSerializer@physx@@UEAAPEAXI@Z 000000018007bc80 f i NpSerializerAdapter.obj
 0001:0007acb0       ??_EBeginPropertyMessageGroup@pvdsdk@physx@@UEAAPEAXI@Z 000000018007bcb0 f i PhysXPvdSDK_static_64:PxPvdDataStream.obj
 0001:0007acb0       ??_ECreateClass@pvdsdk@physx@@UEAAPEAXI@Z 000000018007bcb0 f i PhysXPvdSDK_static_64:PxPvdDataStream.obj
 0001:0007acb0       ??_EDestroyInstance@pvdsdk@physx@@UEAAPEAXI@Z 000000018007bcb0 f i PhysXPvdSDK_static_64:PxPvdDataStream.obj
 0001:0007acb0       ??_ENameHandleValue@pvdsdk@physx@@UEAAPEAXI@Z 000000018007bcb0 f i PhysXPvdSDK_static_64:PxPvdDataStream.obj
 0001:0007acb0       ??_ERequiresCallback@?1??registerReferences@?$PxSerializerDefaultAdapter@VBV4TriangleMesh@Gu@physx@@@physx@@UEBAXAEAVPxBase@3@AEAVPxSerializationContext@3@@Z@UEAAPEAXI@Z 000000018007bcb0 f i NpSerializerAdapter.obj
 0001:0007acb0       ??_ERequiresCallback@?1??registerReferences@?$PxSerializerDefaultAdapter@VConvexMesh@Gu@physx@@@physx@@UEBAXAEAVPxBase@3@AEAVPxSerializationContext@3@@Z@UEAAPEAXI@Z 000000018007bcb0 f i NpSerializerAdapter.obj
 0001:0007acb0       ??_ERequiresCallback@?1??registerReferences@?$PxSerializerDefaultAdapter@VHeightField@Gu@physx@@@physx@@UEBAXAEAVPxBase@3@AEAVPxSerializationContext@3@@Z@UEAAPEAXI@Z 000000018007bcb0 f i NpSerializerAdapter.obj
 0001:0007acb0       ??_ERequiresCallback@?1??registerReferences@?$PxSerializerDefaultAdapter@VNpAggregate@physx@@@physx@@UEBAXAEAVPxBase@3@AEAVPxSerializationContext@3@@Z@UEAAPEAXI@Z 000000018007bcb0 f i NpSerializerAdapter.obj
 0001:0007acb0       ??_ERequiresCallback@?1??registerReferences@?$PxSerializerDefaultAdapter@VNpArticulationAttachment@physx@@@physx@@UEBAXAEAVPxBase@3@AEAVPxSerializationContext@3@@Z@UEAAPEAXI@Z 000000018007bcb0 f i NpSerializerAdapter.obj
 0001:0007acb0       ??_ERequiresCallback@?1??registerReferences@?$PxSerializerDefaultAdapter@VNpArticulationFixedTendon@physx@@@physx@@UEBAXAEAVPxBase@3@AEAVPxSerializationContext@3@@Z@UEAAPEAXI@Z 000000018007bcb0 f i NpSerializerAdapter.obj
 0001:0007acb0       ??_ERequiresCallback@?1??registerReferences@?$PxSerializerDefaultAdapter@VNpArticulationJointReducedCoordinate@physx@@@physx@@UEBAXAEAVPxBase@3@AEAVPxSerializationContext@3@@Z@UEAAPEAXI@Z 000000018007bcb0 f i NpSerializerAdapter.obj
 0001:0007acb0       ??_ERequiresCallback@?1??registerReferences@?$PxSerializerDefaultAdapter@VNpArticulationLink@physx@@@physx@@UEBAXAEAVPxBase@3@AEAVPxSerializationContext@3@@Z@UEAAPEAXI@Z 000000018007bcb0 f i NpSerializerAdapter.obj
 0001:0007acb0       ??_ERequiresCallback@?1??registerReferences@?$PxSerializerDefaultAdapter@VNpArticulationReducedCoordinate@physx@@@physx@@UEBAXAEAVPxBase@3@AEAVPxSerializationContext@3@@Z@UEAAPEAXI@Z 000000018007bcb0 f i NpSerializerAdapter.obj
 0001:0007acb0       ??_ERequiresCallback@?1??registerReferences@?$PxSerializerDefaultAdapter@VNpArticulationSensor@physx@@@physx@@UEBAXAEAVPxBase@3@AEAVPxSerializationContext@3@@Z@UEAAPEAXI@Z 000000018007bcb0 f i NpSerializerAdapter.obj
 0001:0007acb0       ??_ERequiresCallback@?1??registerReferences@?$PxSerializerDefaultAdapter@VNpArticulationSpatialTendon@physx@@@physx@@UEBAXAEAVPxBase@3@AEAVPxSerializationContext@3@@Z@UEAAPEAXI@Z 000000018007bcb0 f i NpSerializerAdapter.obj
 0001:0007acb0       ??_ERequiresCallback@?1??registerReferences@?$PxSerializerDefaultAdapter@VNpArticulationTendonJoint@physx@@@physx@@UEBAXAEAVPxBase@3@AEAVPxSerializationContext@3@@Z@UEAAPEAXI@Z 000000018007bcb0 f i NpSerializerAdapter.obj
 0001:0007acb0       ??_ERequiresCallback@?1??registerReferences@?$PxSerializerDefaultAdapter@VNpConstraint@physx@@@physx@@UEBAXAEAVPxBase@3@AEAVPxSerializationContext@3@@Z@UEAAPEAXI@Z 000000018007bcb0 f i NpSerializerAdapter.obj
 0001:0007acb0       ??_ERequiresCallback@?1??registerReferences@?$PxSerializerDefaultAdapter@VNpRigidDynamic@physx@@@physx@@UEBAXAEAVPxBase@3@AEAVPxSerializationContext@3@@Z@UEAAPEAXI@Z 000000018007bcb0 f i NpSerializerAdapter.obj
 0001:0007acb0       ??_ERequiresCallback@?1??registerReferences@?$PxSerializerDefaultAdapter@VNpRigidStatic@physx@@@physx@@UEBAXAEAVPxBase@3@AEAVPxSerializationContext@3@@Z@UEAAPEAXI@Z 000000018007bcb0 f i NpSerializerAdapter.obj
 0001:0007acb0       ??_ERequiresCallback@?1??registerReferences@?$PxSerializerDefaultAdapter@VNpShape@physx@@@physx@@UEBAXAEAVPxBase@3@AEAVPxSerializationContext@3@@Z@UEAAPEAXI@Z 000000018007bcb0 f i NpSerializerAdapter.obj
 0001:0007acb0       ??_ERequiresCallback@?1??registerReferences@?$PxSerializerDefaultAdapter@VPruningStructure@Sq@physx@@@physx@@UEBAXAEAVPxBase@3@AEAVPxSerializationContext@3@@Z@UEAAPEAXI@Z 000000018007bcb0 f i NpSerializerAdapter.obj
 0001:0007acb0       ??_ERequiresCallback@?1??registerReferences@?$PxSerializerDefaultAdapter@VRTreeTriangleMesh@Gu@physx@@@physx@@UEBAXAEAVPxBase@3@AEAVPxSerializationContext@3@@Z@UEAAPEAXI@Z 000000018007bcb0 f i NpSerializerAdapter.obj
 0001:0007acb0       ??_GBeginPropertyMessageGroup@pvdsdk@physx@@UEAAPEAXI@Z 000000018007bcb0 f i PhysXPvdSDK_static_64:PxPvdDataStream.obj
 0001:0007acb0       ??_GCreateClass@pvdsdk@physx@@UEAAPEAXI@Z 000000018007bcb0 f i PhysXPvdSDK_static_64:PxPvdDataStream.obj
 0001:0007acb0       ??_GDestroyInstance@pvdsdk@physx@@UEAAPEAXI@Z 000000018007bcb0 f i PhysXPvdSDK_static_64:PxPvdDataStream.obj
 0001:0007acb0       ??_GNameHandleValue@pvdsdk@physx@@UEAAPEAXI@Z 000000018007bcb0 f i PhysXPvdSDK_static_64:PxPvdDataStream.obj
 0001:0007acb0       ??_GRequiresCallback@?1??registerReferences@?$PxSerializerDefaultAdapter@VBV4TriangleMesh@Gu@physx@@@physx@@UEBAXAEAVPxBase@3@AEAVPxSerializationContext@3@@Z@UEAAPEAXI@Z 000000018007bcb0 f i NpSerializerAdapter.obj
 0001:0007acb0       ??_GRequiresCallback@?1??registerReferences@?$PxSerializerDefaultAdapter@VConvexMesh@Gu@physx@@@physx@@UEBAXAEAVPxBase@3@AEAVPxSerializationContext@3@@Z@UEAAPEAXI@Z 000000018007bcb0 f i NpSerializerAdapter.obj
 0001:0007acb0       ??_GRequiresCallback@?1??registerReferences@?$PxSerializerDefaultAdapter@VHeightField@Gu@physx@@@physx@@UEBAXAEAVPxBase@3@AEAVPxSerializationContext@3@@Z@UEAAPEAXI@Z 000000018007bcb0 f i NpSerializerAdapter.obj
 0001:0007acb0       ??_GRequiresCallback@?1??registerReferences@?$PxSerializerDefaultAdapter@VNpAggregate@physx@@@physx@@UEBAXAEAVPxBase@3@AEAVPxSerializationContext@3@@Z@UEAAPEAXI@Z 000000018007bcb0 f i NpSerializerAdapter.obj
 0001:0007acb0       ??_GRequiresCallback@?1??registerReferences@?$PxSerializerDefaultAdapter@VNpArticulationAttachment@physx@@@physx@@UEBAXAEAVPxBase@3@AEAVPxSerializationContext@3@@Z@UEAAPEAXI@Z 000000018007bcb0 f i NpSerializerAdapter.obj
 0001:0007acb0       ??_GRequiresCallback@?1??registerReferences@?$PxSerializerDefaultAdapter@VNpArticulationFixedTendon@physx@@@physx@@UEBAXAEAVPxBase@3@AEAVPxSerializationContext@3@@Z@UEAAPEAXI@Z 000000018007bcb0 f i NpSerializerAdapter.obj
 0001:0007acb0       ??_GRequiresCallback@?1??registerReferences@?$PxSerializerDefaultAdapter@VNpArticulationJointReducedCoordinate@physx@@@physx@@UEBAXAEAVPxBase@3@AEAVPxSerializationContext@3@@Z@UEAAPEAXI@Z 000000018007bcb0 f i NpSerializerAdapter.obj
 0001:0007acb0       ??_GRequiresCallback@?1??registerReferences@?$PxSerializerDefaultAdapter@VNpArticulationLink@physx@@@physx@@UEBAXAEAVPxBase@3@AEAVPxSerializationContext@3@@Z@UEAAPEAXI@Z 000000018007bcb0 f i NpSerializerAdapter.obj
 0001:0007acb0       ??_GRequiresCallback@?1??registerReferences@?$PxSerializerDefaultAdapter@VNpArticulationReducedCoordinate@physx@@@physx@@UEBAXAEAVPxBase@3@AEAVPxSerializationContext@3@@Z@UEAAPEAXI@Z 000000018007bcb0 f i NpSerializerAdapter.obj
 0001:0007acb0       ??_GRequiresCallback@?1??registerReferences@?$PxSerializerDefaultAdapter@VNpArticulationSensor@physx@@@physx@@UEBAXAEAVPxBase@3@AEAVPxSerializationContext@3@@Z@UEAAPEAXI@Z 000000018007bcb0 f i NpSerializerAdapter.obj
 0001:0007acb0       ??_GRequiresCallback@?1??registerReferences@?$PxSerializerDefaultAdapter@VNpArticulationSpatialTendon@physx@@@physx@@UEBAXAEAVPxBase@3@AEAVPxSerializationContext@3@@Z@UEAAPEAXI@Z 000000018007bcb0 f i NpSerializerAdapter.obj
 0001:0007acb0       ??_GRequiresCallback@?1??registerReferences@?$PxSerializerDefaultAdapter@VNpArticulationTendonJoint@physx@@@physx@@UEBAXAEAVPxBase@3@AEAVPxSerializationContext@3@@Z@UEAAPEAXI@Z 000000018007bcb0 f i NpSerializerAdapter.obj
 0001:0007acb0       ??_GRequiresCallback@?1??registerReferences@?$PxSerializerDefaultAdapter@VNpConstraint@physx@@@physx@@UEBAXAEAVPxBase@3@AEAVPxSerializationContext@3@@Z@UEAAPEAXI@Z 000000018007bcb0 f i NpSerializerAdapter.obj
 0001:0007acb0       ??_GRequiresCallback@?1??registerReferences@?$PxSerializerDefaultAdapter@VNpRigidDynamic@physx@@@physx@@UEBAXAEAVPxBase@3@AEAVPxSerializationContext@3@@Z@UEAAPEAXI@Z 000000018007bcb0 f i NpSerializerAdapter.obj
 0001:0007acb0       ??_GRequiresCallback@?1??registerReferences@?$PxSerializerDefaultAdapter@VNpRigidStatic@physx@@@physx@@UEBAXAEAVPxBase@3@AEAVPxSerializationContext@3@@Z@UEAAPEAXI@Z 000000018007bcb0 f i NpSerializerAdapter.obj
 0001:0007acb0       ??_GRequiresCallback@?1??registerReferences@?$PxSerializerDefaultAdapter@VNpShape@physx@@@physx@@UEBAXAEAVPxBase@3@AEAVPxSerializationContext@3@@Z@UEAAPEAXI@Z 000000018007bcb0 f i NpSerializerAdapter.obj
 0001:0007acb0       ??_GRequiresCallback@?1??registerReferences@?$PxSerializerDefaultAdapter@VPruningStructure@Sq@physx@@@physx@@UEBAXAEAVPxBase@3@AEAVPxSerializationContext@3@@Z@UEAAPEAXI@Z 000000018007bcb0 f i NpSerializerAdapter.obj
 0001:0007acb0       ??_GRequiresCallback@?1??registerReferences@?$PxSerializerDefaultAdapter@VRTreeTriangleMesh@Gu@physx@@@physx@@UEBAXAEAVPxBase@3@AEAVPxSerializationContext@3@@Z@UEAAPEAXI@Z 000000018007bcb0 f i NpSerializerAdapter.obj
 0001:0007ace0       ?createObject@?$PxSerializerDefaultAdapter@VBV4TriangleMesh@Gu@physx@@@physx@@UEBAPEAVPxBase@2@AEAPEAEAEAVPxDeserializationContext@2@@Z 000000018007bce0 f i NpSerializerAdapter.obj
 0001:0007acf0       ?createObject@?$PxSerializerDefaultAdapter@VConvexMesh@Gu@physx@@@physx@@UEBAPEAVPxBase@2@AEAPEAEAEAVPxDeserializationContext@2@@Z 000000018007bcf0 f i NpSerializerAdapter.obj
 0001:0007ad00       ?createObject@?$PxSerializerDefaultAdapter@VHeightField@Gu@physx@@@physx@@UEBAPEAVPxBase@2@AEAPEAEAEAVPxDeserializationContext@2@@Z 000000018007bd00 f i NpSerializerAdapter.obj
 0001:0007ad10       ?createObject@?$PxSerializerDefaultAdapter@VNpAggregate@physx@@@physx@@UEBAPEAVPxBase@2@AEAPEAEAEAVPxDeserializationContext@2@@Z 000000018007bd10 f i NpSerializerAdapter.obj
 0001:0007ad20       ?createObject@?$PxSerializerDefaultAdapter@VNpArticulationAttachment@physx@@@physx@@UEBAPEAVPxBase@2@AEAPEAEAEAVPxDeserializationContext@2@@Z 000000018007bd20 f i NpSerializerAdapter.obj
 0001:0007ad30       ?createObject@?$PxSerializerDefaultAdapter@VNpArticulationFixedTendon@physx@@@physx@@UEBAPEAVPxBase@2@AEAPEAEAEAVPxDeserializationContext@2@@Z 000000018007bd30 f i NpSerializerAdapter.obj
 0001:0007ad40       ?createObject@?$PxSerializerDefaultAdapter@VNpArticulationJointReducedCoordinate@physx@@@physx@@UEBAPEAVPxBase@2@AEAPEAEAEAVPxDeserializationContext@2@@Z 000000018007bd40 f i NpSerializerAdapter.obj
 0001:0007ad50       ?createObject@?$PxSerializerDefaultAdapter@VNpArticulationLink@physx@@@physx@@UEBAPEAVPxBase@2@AEAPEAEAEAVPxDeserializationContext@2@@Z 000000018007bd50 f i NpSerializerAdapter.obj
 0001:0007ad60       ?createObject@?$PxSerializerDefaultAdapter@VNpArticulationReducedCoordinate@physx@@@physx@@UEBAPEAVPxBase@2@AEAPEAEAEAVPxDeserializationContext@2@@Z 000000018007bd60 f i NpSerializerAdapter.obj
 0001:0007ad70       ?createObject@?$PxSerializerDefaultAdapter@VNpArticulationSensor@physx@@@physx@@UEBAPEAVPxBase@2@AEAPEAEAEAVPxDeserializationContext@2@@Z 000000018007bd70 f i NpSerializerAdapter.obj
 0001:0007ad80       ?createObject@?$PxSerializerDefaultAdapter@VNpArticulationSpatialTendon@physx@@@physx@@UEBAPEAVPxBase@2@AEAPEAEAEAVPxDeserializationContext@2@@Z 000000018007bd80 f i NpSerializerAdapter.obj
 0001:0007ad90       ?createObject@?$PxSerializerDefaultAdapter@VNpArticulationTendonJoint@physx@@@physx@@UEBAPEAVPxBase@2@AEAPEAEAEAVPxDeserializationContext@2@@Z 000000018007bd90 f i NpSerializerAdapter.obj
 0001:0007ada0       ?createObject@?$PxSerializerDefaultAdapter@VNpConstraint@physx@@@physx@@UEBAPEAVPxBase@2@AEAPEAEAEAVPxDeserializationContext@2@@Z 000000018007bda0 f i NpSerializerAdapter.obj
 0001:0007adb0       ?createObject@?$PxSerializerDefaultAdapter@VNpMaterial@physx@@@physx@@UEBAPEAVPxBase@2@AEAPEAEAEAVPxDeserializationContext@2@@Z 000000018007bdb0 f i NpSerializerAdapter.obj
 0001:0007adc0       ?createObject@?$PxSerializerDefaultAdapter@VNpRigidDynamic@physx@@@physx@@UEBAPEAVPxBase@2@AEAPEAEAEAVPxDeserializationContext@2@@Z 000000018007bdc0 f i NpSerializerAdapter.obj
 0001:0007add0       ?createObject@?$PxSerializerDefaultAdapter@VNpRigidStatic@physx@@@physx@@UEBAPEAVPxBase@2@AEAPEAEAEAVPxDeserializationContext@2@@Z 000000018007bdd0 f i NpSerializerAdapter.obj
 0001:0007ade0       ?createObject@?$PxSerializerDefaultAdapter@VNpShape@physx@@@physx@@UEBAPEAVPxBase@2@AEAPEAEAEAVPxDeserializationContext@2@@Z 000000018007bde0 f i NpSerializerAdapter.obj
 0001:0007adf0       ?createObject@?$PxSerializerDefaultAdapter@VPruningStructure@Sq@physx@@@physx@@UEBAPEAVPxBase@2@AEAPEAEAEAVPxDeserializationContext@2@@Z 000000018007bdf0 f i NpSerializerAdapter.obj
 0001:0007ae00       ?createObject@?$PxSerializerDefaultAdapter@VRTreeTriangleMesh@Gu@physx@@@physx@@UEBAPEAVPxBase@2@AEAPEAEAEAVPxDeserializationContext@2@@Z 000000018007be00 f i NpSerializerAdapter.obj
 0001:0007ae10       ?exportData@?$PxSerializerDefaultAdapter@VBV4TriangleMesh@Gu@physx@@@physx@@UEBAXAEAVPxBase@2@AEAVPxSerializationContext@2@@Z 000000018007be10 f i NpSerializerAdapter.obj
 0001:0007af20       ?exportData@?$PxSerializerDefaultAdapter@VConvexMesh@Gu@physx@@@physx@@UEBAXAEAVPxBase@2@AEAVPxSerializationContext@2@@Z 000000018007bf20 f i NpSerializerAdapter.obj
 0001:0007b010       ?exportData@?$PxSerializerDefaultAdapter@VHeightField@Gu@physx@@@physx@@UEBAXAEAVPxBase@2@AEAVPxSerializationContext@2@@Z 000000018007c010 f i NpSerializerAdapter.obj
 0001:0007b0e0       ?exportData@?$PxSerializerDefaultAdapter@VNpAggregate@physx@@@physx@@UEBAXAEAVPxBase@2@AEAVPxSerializationContext@2@@Z 000000018007c0e0 f i NpSerializerAdapter.obj
 0001:0007b190       ?exportData@?$PxSerializerDefaultAdapter@VNpArticulationAttachment@physx@@@physx@@UEBAXAEAVPxBase@2@AEAVPxSerializationContext@2@@Z 000000018007c190 f i NpSerializerAdapter.obj
 0001:0007b290       ?exportData@?$PxSerializerDefaultAdapter@VNpArticulationFixedTendon@physx@@@physx@@UEBAXAEAVPxBase@2@AEAVPxSerializationContext@2@@Z 000000018007c290 f i NpSerializerAdapter.obj
 0001:0007b370       ?exportData@?$PxSerializerDefaultAdapter@VNpArticulationJointReducedCoordinate@physx@@@physx@@UEBAXAEAVPxBase@2@AEAVPxSerializationContext@2@@Z 000000018007c370 f i NpSerializerAdapter.obj
 0001:0007b470       ?exportData@?$PxSerializerDefaultAdapter@VNpArticulationLink@physx@@@physx@@UEBAXAEAVPxBase@2@AEAVPxSerializationContext@2@@Z 000000018007c470 f i NpSerializerAdapter.obj
 0001:0007b5b0       ?exportData@?$PxSerializerDefaultAdapter@VNpArticulationReducedCoordinate@physx@@@physx@@UEBAXAEAVPxBase@2@AEAVPxSerializationContext@2@@Z 000000018007c5b0 f i NpSerializerAdapter.obj
 0001:0007b6c0       ?exportData@?$PxSerializerDefaultAdapter@VNpArticulationSensor@physx@@@physx@@UEBAXAEAVPxBase@2@AEAVPxSerializationContext@2@@Z 000000018007c6c0 f i NpSerializerAdapter.obj
 0001:0007b770       ?exportData@?$PxSerializerDefaultAdapter@VNpArticulationSpatialTendon@physx@@@physx@@UEBAXAEAVPxBase@2@AEAVPxSerializationContext@2@@Z 000000018007c770 f i NpSerializerAdapter.obj
 0001:0007b840       ?exportData@?$PxSerializerDefaultAdapter@VNpArticulationTendonJoint@physx@@@physx@@UEBAXAEAVPxBase@2@AEAVPxSerializationContext@2@@Z 000000018007c840 f i NpSerializerAdapter.obj
 0001:0007b930       ?exportData@?$PxSerializerDefaultAdapter@VNpConstraint@physx@@@physx@@UEBAXAEAVPxBase@2@AEAVPxSerializationContext@2@@Z 000000018007c930 f i NpSerializerAdapter.obj
 0001:0007ba00       ?exportData@?$PxSerializerDefaultAdapter@VNpMaterial@physx@@@physx@@UEBAXAEAVPxBase@2@AEAVPxSerializationContext@2@@Z 000000018007ca00 f i NpSerializerAdapter.obj
 0001:0007bab0       ?exportData@?$PxSerializerDefaultAdapter@VNpRigidDynamic@physx@@@physx@@UEBAXAEAVPxBase@2@AEAVPxSerializationContext@2@@Z 000000018007cab0 f i NpSerializerAdapter.obj
 0001:0007bba0       ?exportData@?$PxSerializerDefaultAdapter@VNpRigidStatic@physx@@@physx@@UEBAXAEAVPxBase@2@AEAVPxSerializationContext@2@@Z 000000018007cba0 f i NpSerializerAdapter.obj
 0001:0007bc90       ?exportData@?$PxSerializerDefaultAdapter@VNpShape@physx@@@physx@@UEBAXAEAVPxBase@2@AEAVPxSerializationContext@2@@Z 000000018007cc90 f i NpSerializerAdapter.obj
 0001:0007bda0       ?exportData@?$PxSerializerDefaultAdapter@VPruningStructure@Sq@physx@@@physx@@UEBAXAEAVPxBase@2@AEAVPxSerializationContext@2@@Z 000000018007cda0 f i NpSerializerAdapter.obj
 0001:0007be60       ?exportData@?$PxSerializerDefaultAdapter@VRTreeTriangleMesh@Gu@physx@@@physx@@UEBAXAEAVPxBase@2@AEAVPxSerializationContext@2@@Z 000000018007ce60 f i NpSerializerAdapter.obj
 0001:0007bf60       ?exportExtraData@?$PxSerializerDefaultAdapter@VBV4TriangleMesh@Gu@physx@@@physx@@UEBAXAEAVPxBase@2@AEAVPxSerializationContext@2@@Z 000000018007cf60 f i NpSerializerAdapter.obj
 0001:0007bf60       ?exportExtraData@?$PxSerializerDefaultAdapter@VRTreeTriangleMesh@Gu@physx@@@physx@@UEBAXAEAVPxBase@2@AEAVPxSerializationContext@2@@Z 000000018007cf60 f i NpSerializerAdapter.obj
 0001:0007bf70       ?exportExtraData@?$PxSerializerDefaultAdapter@VConvexMesh@Gu@physx@@@physx@@UEBAXAEAVPxBase@2@AEAVPxSerializationContext@2@@Z 000000018007cf70 f i NpSerializerAdapter.obj
 0001:0007bf70       ?exportExtraData@?$PxSerializerDefaultAdapter@VNpArticulationAttachment@physx@@@physx@@UEBAXAEAVPxBase@2@AEAVPxSerializationContext@2@@Z 000000018007cf70 f i NpSerializerAdapter.obj
 0001:0007bf70       ?exportExtraData@?$PxSerializerDefaultAdapter@VNpArticulationSpatialTendon@physx@@@physx@@UEBAXAEAVPxBase@2@AEAVPxSerializationContext@2@@Z 000000018007cf70 f i NpSerializerAdapter.obj
 0001:0007bf80       ?exportExtraData@?$PxSerializerDefaultAdapter@VHeightField@Gu@physx@@@physx@@UEBAXAEAVPxBase@2@AEAVPxSerializationContext@2@@Z 000000018007cf80 f i NpSerializerAdapter.obj
 0001:0007bf80       ?exportExtraData@?$PxSerializerDefaultAdapter@VNpArticulationFixedTendon@physx@@@physx@@UEBAXAEAVPxBase@2@AEAVPxSerializationContext@2@@Z 000000018007cf80 f i NpSerializerAdapter.obj
 0001:0007bf90       ?exportExtraData@?$PxSerializerDefaultAdapter@VNpAggregate@physx@@@physx@@UEBAXAEAVPxBase@2@AEAVPxSerializationContext@2@@Z 000000018007cf90 f i NpSerializerAdapter.obj
 0001:0007bfa0       ?exportExtraData@?$PxSerializerDefaultAdapter@VNpArticulationLink@physx@@@physx@@UEBAXAEAVPxBase@2@AEAVPxSerializationContext@2@@Z 000000018007cfa0 f i NpSerializerAdapter.obj
 0001:0007bfb0       ?exportExtraData@?$PxSerializerDefaultAdapter@VNpArticulationReducedCoordinate@physx@@@physx@@UEBAXAEAVPxBase@2@AEAVPxSerializationContext@2@@Z 000000018007cfb0 f i NpSerializerAdapter.obj
 0001:0007bfb0       ?requiresObjects@?$PxSerializerDefaultAdapter@VNpArticulationLink@physx@@@physx@@UEBAXAEAVPxBase@2@AEAVPxProcessPxBaseCallback@2@@Z 000000018007cfb0 f i NpSerializerAdapter.obj
 0001:0007bfc0       ?exportExtraData@?$PxSerializerDefaultAdapter@VNpArticulationSensor@physx@@@physx@@UEBAXAEAVPxBase@2@AEAVPxSerializationContext@2@@Z 000000018007cfc0 f i NpSerializerAdapter.obj
 0001:0007bfd0       ?exportExtraData@?$PxSerializerDefaultAdapter@VNpArticulationTendonJoint@physx@@@physx@@UEBAXAEAVPxBase@2@AEAVPxSerializationContext@2@@Z 000000018007cfd0 f i NpSerializerAdapter.obj
 0001:0007bfd0       ?requiresObjects@?$PxSerializerDefaultAdapter@VPruningStructure@Sq@physx@@@physx@@UEBAXAEAVPxBase@2@AEAVPxProcessPxBaseCallback@2@@Z 000000018007cfd0 f i NpSerializerAdapter.obj
 0001:0007bfe0       ?exportExtraData@?$PxSerializerDefaultAdapter@VNpRigidDynamic@physx@@@physx@@UEBAXAEAVPxBase@2@AEAVPxSerializationContext@2@@Z 000000018007cfe0 f i NpSerializerAdapter.obj
 0001:0007bff0       ?exportExtraData@?$PxSerializerDefaultAdapter@VNpRigidStatic@physx@@@physx@@UEBAXAEAVPxBase@2@AEAVPxSerializationContext@2@@Z 000000018007cff0 f i NpSerializerAdapter.obj
 0001:0007c000       ?exportExtraData@?$PxSerializerDefaultAdapter@VNpShape@physx@@@physx@@UEBAXAEAVPxBase@2@AEAVPxSerializationContext@2@@Z 000000018007d000 f i NpSerializerAdapter.obj
 0001:0007c010       ?exportExtraData@?$PxSerializerDefaultAdapter@VPruningStructure@Sq@physx@@@physx@@UEBAXAEAVPxBase@2@AEAVPxSerializationContext@2@@Z 000000018007d010 f i NpSerializerAdapter.obj
 0001:0007c020       ?getClassSize@?$PxSerializerDefaultAdapter@VBV4TriangleMesh@Gu@physx@@@physx@@UEBA_KXZ 000000018007d020 f i NpSerializerAdapter.obj
 0001:0007c030       ?getClassSize@?$PxSerializerDefaultAdapter@VConvexMesh@Gu@physx@@@physx@@UEBA_KXZ 000000018007d030 f i NpSerializerAdapter.obj
 0001:0007c030       ?getClassSize@?$PxSerializerDefaultAdapter@VNpArticulationTendonJoint@physx@@@physx@@UEBA_KXZ 000000018007d030 f i NpSerializerAdapter.obj
 0001:0007c040       ?getClassSize@?$PxSerializerDefaultAdapter@VHeightField@Gu@physx@@@physx@@UEBA_KXZ 000000018007d040 f i NpSerializerAdapter.obj
 0001:0007c050       ?getClassSize@?$PxSerializerDefaultAdapter@VNpAggregate@physx@@@physx@@UEBA_KXZ 000000018007d050 f i NpSerializerAdapter.obj
 0001:0007c060       ?getClassSize@?$PxSerializerDefaultAdapter@VNpArticulationAttachment@physx@@@physx@@UEBA_KXZ 000000018007d060 f i NpSerializerAdapter.obj
 0001:0007c070       ?getClassSize@?$PxSerializerDefaultAdapter@VNpArticulationFixedTendon@physx@@@physx@@UEBA_KXZ 000000018007d070 f i NpSerializerAdapter.obj
 0001:0007c080       ?getClassSize@?$PxSerializerDefaultAdapter@VNpArticulationJointReducedCoordinate@physx@@@physx@@UEBA_KXZ 000000018007d080 f i NpSerializerAdapter.obj
 0001:0007c090       ?getClassSize@?$PxSerializerDefaultAdapter@VNpArticulationLink@physx@@@physx@@UEBA_KXZ 000000018007d090 f i NpSerializerAdapter.obj
 0001:0007c0a0       ?getClassSize@?$PxSerializerDefaultAdapter@VNpArticulationReducedCoordinate@physx@@@physx@@UEBA_KXZ 000000018007d0a0 f i NpSerializerAdapter.obj
 0001:0007c0b0       ?getClassSize@?$PxSerializerDefaultAdapter@VNpArticulationSensor@physx@@@physx@@UEBA_KXZ 000000018007d0b0 f i NpSerializerAdapter.obj
 0001:0007c0c0       ?getClassSize@?$PxSerializerDefaultAdapter@VNpArticulationSpatialTendon@physx@@@physx@@UEBA_KXZ 000000018007d0c0 f i NpSerializerAdapter.obj
 0001:0007c0d0       ?getClassSize@?$PxSerializerDefaultAdapter@VNpConstraint@physx@@@physx@@UEBA_KXZ 000000018007d0d0 f i NpSerializerAdapter.obj
 0001:0007c0e0       ?getClassSize@?$PxSerializerDefaultAdapter@VNpMaterial@physx@@@physx@@UEBA_KXZ 000000018007d0e0 f i NpSerializerAdapter.obj
 0001:0007c0f0       ?getClassSize@?$PxSerializerDefaultAdapter@VNpRigidDynamic@physx@@@physx@@UEBA_KXZ 000000018007d0f0 f i NpSerializerAdapter.obj
 0001:0007c100       ?getClassSize@?$PxSerializerDefaultAdapter@VNpRigidStatic@physx@@@physx@@UEBA_KXZ 000000018007d100 f i NpSerializerAdapter.obj
 0001:0007c110       ?getClassSize@?$PxSerializerDefaultAdapter@VNpShape@physx@@@physx@@UEBA_KXZ 000000018007d110 f i NpSerializerAdapter.obj
 0001:0007c120       ?getClassSize@?$PxSerializerDefaultAdapter@VPruningStructure@Sq@physx@@@physx@@UEBA_KXZ 000000018007d120 f i NpSerializerAdapter.obj
 0001:0007c130       ?getClassSize@?$PxSerializerDefaultAdapter@VRTreeTriangleMesh@Gu@physx@@@physx@@UEBA_KXZ 000000018007d130 f i NpSerializerAdapter.obj
 0001:0007c140       ?process@RequiresCallback@?1??registerReferences@?$PxSerializerDefaultAdapter@VBV4TriangleMesh@Gu@physx@@@physx@@UEBAXAEAVPxBase@4@AEAVPxSerializationContext@4@@Z@UEAAX0@Z 000000018007d140 f i NpSerializerAdapter.obj
 0001:0007c140       ?process@RequiresCallback@?1??registerReferences@?$PxSerializerDefaultAdapter@VConvexMesh@Gu@physx@@@physx@@UEBAXAEAVPxBase@4@AEAVPxSerializationContext@4@@Z@UEAAX0@Z 000000018007d140 f i NpSerializerAdapter.obj
 0001:0007c140       ?process@RequiresCallback@?1??registerReferences@?$PxSerializerDefaultAdapter@VHeightField@Gu@physx@@@physx@@UEBAXAEAVPxBase@4@AEAVPxSerializationContext@4@@Z@UEAAX0@Z 000000018007d140 f i NpSerializerAdapter.obj
 0001:0007c140       ?process@RequiresCallback@?1??registerReferences@?$PxSerializerDefaultAdapter@VNpAggregate@physx@@@physx@@UEBAXAEAVPxBase@4@AEAVPxSerializationContext@4@@Z@UEAAX0@Z 000000018007d140 f i NpSerializerAdapter.obj
 0001:0007c140       ?process@RequiresCallback@?1??registerReferences@?$PxSerializerDefaultAdapter@VNpArticulationAttachment@physx@@@physx@@UEBAXAEAVPxBase@4@AEAVPxSerializationContext@4@@Z@UEAAX0@Z 000000018007d140 f i NpSerializerAdapter.obj
 0001:0007c140       ?process@RequiresCallback@?1??registerReferences@?$PxSerializerDefaultAdapter@VNpArticulationFixedTendon@physx@@@physx@@UEBAXAEAVPxBase@4@AEAVPxSerializationContext@4@@Z@UEAAX0@Z 000000018007d140 f i NpSerializerAdapter.obj
 0001:0007c140       ?process@RequiresCallback@?1??registerReferences@?$PxSerializerDefaultAdapter@VNpArticulationJointReducedCoordinate@physx@@@physx@@UEBAXAEAVPxBase@4@AEAVPxSerializationContext@4@@Z@UEAAX0@Z 000000018007d140 f i NpSerializerAdapter.obj
 0001:0007c140       ?process@RequiresCallback@?1??registerReferences@?$PxSerializerDefaultAdapter@VNpArticulationLink@physx@@@physx@@UEBAXAEAVPxBase@4@AEAVPxSerializationContext@4@@Z@UEAAX0@Z 000000018007d140 f i NpSerializerAdapter.obj
 0001:0007c140       ?process@RequiresCallback@?1??registerReferences@?$PxSerializerDefaultAdapter@VNpArticulationReducedCoordinate@physx@@@physx@@UEBAXAEAVPxBase@4@AEAVPxSerializationContext@4@@Z@UEAAX0@Z 000000018007d140 f i NpSerializerAdapter.obj
 0001:0007c140       ?process@RequiresCallback@?1??registerReferences@?$PxSerializerDefaultAdapter@VNpArticulationSensor@physx@@@physx@@UEBAXAEAVPxBase@4@AEAVPxSerializationContext@4@@Z@UEAAX0@Z 000000018007d140 f i NpSerializerAdapter.obj
 0001:0007c140       ?process@RequiresCallback@?1??registerReferences@?$PxSerializerDefaultAdapter@VNpArticulationSpatialTendon@physx@@@physx@@UEBAXAEAVPxBase@4@AEAVPxSerializationContext@4@@Z@UEAAX0@Z 000000018007d140 f i NpSerializerAdapter.obj
 0001:0007c140       ?process@RequiresCallback@?1??registerReferences@?$PxSerializerDefaultAdapter@VNpArticulationTendonJoint@physx@@@physx@@UEBAXAEAVPxBase@4@AEAVPxSerializationContext@4@@Z@UEAAX0@Z 000000018007d140 f i NpSerializerAdapter.obj
 0001:0007c140       ?process@RequiresCallback@?1??registerReferences@?$PxSerializerDefaultAdapter@VNpConstraint@physx@@@physx@@UEBAXAEAVPxBase@4@AEAVPxSerializationContext@4@@Z@UEAAX0@Z 000000018007d140 f i NpSerializerAdapter.obj
 0001:0007c140       ?process@RequiresCallback@?1??registerReferences@?$PxSerializerDefaultAdapter@VNpRigidDynamic@physx@@@physx@@UEBAXAEAVPxBase@4@AEAVPxSerializationContext@4@@Z@UEAAX0@Z 000000018007d140 f i NpSerializerAdapter.obj
 0001:0007c140       ?process@RequiresCallback@?1??registerReferences@?$PxSerializerDefaultAdapter@VNpRigidStatic@physx@@@physx@@UEBAXAEAVPxBase@4@AEAVPxSerializationContext@4@@Z@UEAAX0@Z 000000018007d140 f i NpSerializerAdapter.obj
 0001:0007c140       ?process@RequiresCallback@?1??registerReferences@?$PxSerializerDefaultAdapter@VPruningStructure@Sq@physx@@@physx@@UEBAXAEAVPxBase@4@AEAVPxSerializationContext@4@@Z@UEAAX0@Z 000000018007d140 f i NpSerializerAdapter.obj
 0001:0007c140       ?process@RequiresCallback@?1??registerReferences@?$PxSerializerDefaultAdapter@VRTreeTriangleMesh@Gu@physx@@@physx@@UEBAXAEAVPxBase@4@AEAVPxSerializationContext@4@@Z@UEAAX0@Z 000000018007d140 f i NpSerializerAdapter.obj
 0001:0007c160       ?process@RequiresCallback@?1??registerReferences@?$PxSerializerDefaultAdapter@VNpShape@physx@@@physx@@UEBAXAEAVPxBase@4@AEAVPxSerializationContext@4@@Z@UEAAX0@Z 000000018007d160 f i NpSerializerAdapter.obj
 0001:0007c1a0       ?registerReferences@?$PxSerializerDefaultAdapter@VBV4TriangleMesh@Gu@physx@@@physx@@UEBAXAEAVPxBase@2@AEAVPxSerializationContext@2@@Z 000000018007d1a0 f i NpSerializerAdapter.obj
 0001:0007c1a0       ?registerReferences@?$PxSerializerDefaultAdapter@VRTreeTriangleMesh@Gu@physx@@@physx@@UEBAXAEAVPxBase@2@AEAVPxSerializationContext@2@@Z 000000018007d1a0 f i NpSerializerAdapter.obj
 0001:0007c1f0       ?registerReferences@?$PxSerializerDefaultAdapter@VConvexMesh@Gu@physx@@@physx@@UEBAXAEAVPxBase@2@AEAVPxSerializationContext@2@@Z 000000018007d1f0 f i NpSerializerAdapter.obj
 0001:0007c1f0       ?registerReferences@?$PxSerializerDefaultAdapter@VNpArticulationAttachment@physx@@@physx@@UEBAXAEAVPxBase@2@AEAVPxSerializationContext@2@@Z 000000018007d1f0 f i NpSerializerAdapter.obj
 0001:0007c1f0       ?registerReferences@?$PxSerializerDefaultAdapter@VNpArticulationSpatialTendon@physx@@@physx@@UEBAXAEAVPxBase@2@AEAVPxSerializationContext@2@@Z 000000018007d1f0 f i NpSerializerAdapter.obj
 0001:0007c240       ?registerReferences@?$PxSerializerDefaultAdapter@VHeightField@Gu@physx@@@physx@@UEBAXAEAVPxBase@2@AEAVPxSerializationContext@2@@Z 000000018007d240 f i NpSerializerAdapter.obj
 0001:0007c240       ?registerReferences@?$PxSerializerDefaultAdapter@VNpArticulationFixedTendon@physx@@@physx@@UEBAXAEAVPxBase@2@AEAVPxSerializationContext@2@@Z 000000018007d240 f i NpSerializerAdapter.obj
 0001:0007c290       ?registerReferences@?$PxSerializerDefaultAdapter@VNpAggregate@physx@@@physx@@UEBAXAEAVPxBase@2@AEAVPxSerializationContext@2@@Z 000000018007d290 f i NpSerializerAdapter.obj
 0001:0007c2e0       ?registerReferences@?$PxSerializerDefaultAdapter@VNpArticulationJointReducedCoordinate@physx@@@physx@@UEBAXAEAVPxBase@2@AEAVPxSerializationContext@2@@Z 000000018007d2e0 f i NpSerializerAdapter.obj
 0001:0007c330       ?registerReferences@?$PxSerializerDefaultAdapter@VNpArticulationLink@physx@@@physx@@UEBAXAEAVPxBase@2@AEAVPxSerializationContext@2@@Z 000000018007d330 f i NpSerializerAdapter.obj
 0001:0007c380       ?registerReferences@?$PxSerializerDefaultAdapter@VNpArticulationReducedCoordinate@physx@@@physx@@UEBAXAEAVPxBase@2@AEAVPxSerializationContext@2@@Z 000000018007d380 f i NpSerializerAdapter.obj
 0001:0007c3d0       ?registerReferences@?$PxSerializerDefaultAdapter@VNpArticulationSensor@physx@@@physx@@UEBAXAEAVPxBase@2@AEAVPxSerializationContext@2@@Z 000000018007d3d0 f i NpSerializerAdapter.obj
 0001:0007c420       ?registerReferences@?$PxSerializerDefaultAdapter@VNpArticulationTendonJoint@physx@@@physx@@UEBAXAEAVPxBase@2@AEAVPxSerializationContext@2@@Z 000000018007d420 f i NpSerializerAdapter.obj
 0001:0007c470       ?registerReferences@?$PxSerializerDefaultAdapter@VNpConstraint@physx@@@physx@@UEBAXAEAVPxBase@2@AEAVPxSerializationContext@2@@Z 000000018007d470 f i NpSerializerAdapter.obj
 0001:0007c4c0       ?registerReferences@?$PxSerializerDefaultAdapter@VNpMaterial@physx@@@physx@@UEBAXAEAVPxBase@2@AEAVPxSerializationContext@2@@Z 000000018007d4c0 f i NpSerializerAdapter.obj
 0001:0007c510       ?registerReferences@?$PxSerializerDefaultAdapter@VNpRigidDynamic@physx@@@physx@@UEBAXAEAVPxBase@2@AEAVPxSerializationContext@2@@Z 000000018007d510 f i NpSerializerAdapter.obj
 0001:0007c560       ?registerReferences@?$PxSerializerDefaultAdapter@VNpRigidStatic@physx@@@physx@@UEBAXAEAVPxBase@2@AEAVPxSerializationContext@2@@Z 000000018007d560 f i NpSerializerAdapter.obj
 0001:0007c5b0       ?registerReferences@?$PxSerializerDefaultAdapter@VNpShape@physx@@@physx@@UEBAXAEAVPxBase@2@AEAVPxSerializationContext@2@@Z 000000018007d5b0 f i NpSerializerAdapter.obj
 0001:0007c600       ?registerReferences@?$PxSerializerDefaultAdapter@VPruningStructure@Sq@physx@@@physx@@UEBAXAEAVPxBase@2@AEAVPxSerializationContext@2@@Z 000000018007d600 f i NpSerializerAdapter.obj
 0001:0007c650       ?requiresObjects@?$PxSerializerDefaultAdapter@VBV4TriangleMesh@Gu@physx@@@physx@@UEBAXAEAVPxBase@2@AEAVPxProcessPxBaseCallback@2@@Z 000000018007d650 f i NpSerializerAdapter.obj
 0001:0007c650       ?requiresObjects@?$PxSerializerDefaultAdapter@VNpMaterial@physx@@@physx@@UEBAXAEAVPxBase@2@AEAVPxProcessPxBaseCallback@2@@Z 000000018007d650 f i NpSerializerAdapter.obj
 0001:0007c650       ?requiresObjects@?$PxSerializerDefaultAdapter@VRTreeTriangleMesh@Gu@physx@@@physx@@UEBAXAEAVPxBase@2@AEAVPxProcessPxBaseCallback@2@@Z 000000018007d650 f i NpSerializerAdapter.obj
 0001:0007c660       ?requiresObjects@?$PxSerializerDefaultAdapter@VConvexMesh@Gu@physx@@@physx@@UEBAXAEAVPxBase@2@AEAVPxProcessPxBaseCallback@2@@Z 000000018007d660 f i NpSerializerAdapter.obj
 0001:0007c660       ?requiresObjects@?$PxSerializerDefaultAdapter@VNpArticulationAttachment@physx@@@physx@@UEBAXAEAVPxBase@2@AEAVPxProcessPxBaseCallback@2@@Z 000000018007d660 f i NpSerializerAdapter.obj
 0001:0007c660       ?requiresObjects@?$PxSerializerDefaultAdapter@VNpArticulationSpatialTendon@physx@@@physx@@UEBAXAEAVPxBase@2@AEAVPxProcessPxBaseCallback@2@@Z 000000018007d660 f i NpSerializerAdapter.obj
 0001:0007c670       ?requiresObjects@?$PxSerializerDefaultAdapter@VHeightField@Gu@physx@@@physx@@UEBAXAEAVPxBase@2@AEAVPxProcessPxBaseCallback@2@@Z 000000018007d670 f i NpSerializerAdapter.obj
 0001:0007c670       ?requiresObjects@?$PxSerializerDefaultAdapter@VNpArticulationFixedTendon@physx@@@physx@@UEBAXAEAVPxBase@2@AEAVPxProcessPxBaseCallback@2@@Z 000000018007d670 f i NpSerializerAdapter.obj
 0001:0007c680       ?requiresObjects@?$PxSerializerDefaultAdapter@VNpAggregate@physx@@@physx@@UEBAXAEAVPxBase@2@AEAVPxProcessPxBaseCallback@2@@Z 000000018007d680 f i NpSerializerAdapter.obj
 0001:0007c690       ?requiresObjects@?$PxSerializerDefaultAdapter@VNpArticulationJointReducedCoordinate@physx@@@physx@@UEBAXAEAVPxBase@2@AEAVPxProcessPxBaseCallback@2@@Z 000000018007d690 f i NpSerializerAdapter.obj
 0001:0007c6a0       ?requiresObjects@?$PxSerializerDefaultAdapter@VNpArticulationReducedCoordinate@physx@@@physx@@UEBAXAEAVPxBase@2@AEAVPxProcessPxBaseCallback@2@@Z 000000018007d6a0 f i NpSerializerAdapter.obj
 0001:0007c6b0       ?requiresObjects@?$PxSerializerDefaultAdapter@VNpArticulationSensor@physx@@@physx@@UEBAXAEAVPxBase@2@AEAVPxProcessPxBaseCallback@2@@Z 000000018007d6b0 f i NpSerializerAdapter.obj
 0001:0007c6c0       ?requiresObjects@?$PxSerializerDefaultAdapter@VNpArticulationTendonJoint@physx@@@physx@@UEBAXAEAVPxBase@2@AEAVPxProcessPxBaseCallback@2@@Z 000000018007d6c0 f i NpSerializerAdapter.obj
 0001:0007c6d0       ?requiresObjects@?$PxSerializerDefaultAdapter@VNpConstraint@physx@@@physx@@UEBAXAEAVPxBase@2@AEAVPxProcessPxBaseCallback@2@@Z 000000018007d6d0 f i NpSerializerAdapter.obj
 0001:0007c6e0       ?requiresObjects@?$PxSerializerDefaultAdapter@VNpRigidDynamic@physx@@@physx@@UEBAXAEAVPxBase@2@AEAVPxProcessPxBaseCallback@2@@Z 000000018007d6e0 f i NpSerializerAdapter.obj
 0001:0007c6f0       ?requiresObjects@?$PxSerializerDefaultAdapter@VNpRigidStatic@physx@@@physx@@UEBAXAEAVPxBase@2@AEAVPxProcessPxBaseCallback@2@@Z 000000018007d6f0 f i NpSerializerAdapter.obj
 0001:0007c700       ?requiresObjects@?$PxSerializerDefaultAdapter@VNpShape@physx@@@physx@@UEBAXAEAVPxBase@2@AEAVPxProcessPxBaseCallback@2@@Z 000000018007d700 f i NpSerializerAdapter.obj
 0001:0007c710       PxRegisterPhysicsSerializers 000000018007d710 f   NpSerializerAdapter.obj
 0001:0007cd10       PxUnregisterPhysicsSerializers 000000018007dd10 f   NpSerializerAdapter.obj
 0001:0007d210       ??$scGetMaterials@VPxFEMSoftBodyMaterial@physx@@VNpFEMSoftBodyMaterial@2@@NpShape@physx@@AEBAIPEAPEAVPxFEMSoftBodyMaterial@1@II@Z 000000018007e210 f i NpShape.obj
 0001:0007d2b0       ??$scGetMaterials@VPxMaterial@physx@@VNpMaterial@2@@NpShape@physx@@AEBAIPEAPEAVPxMaterial@1@II@Z 000000018007e2b0 f i NpShape.obj
 0001:0007d350       ??$setMaterialsHelper@VPxFEMSoftBodyMaterial@physx@@VNpFEMSoftBodyMaterial@2@@NpShape@physx@@AEAA_NPEBQEAVPxFEMSoftBodyMaterial@1@G@Z 000000018007e350 f i NpShape.obj
 0001:0007d4b0       ??$setMaterialsHelper@VPxMaterial@physx@@VNpMaterial@2@@NpShape@physx@@AEAA_NPEBQEAVPxMaterial@1@G@Z 000000018007e4b0 f i NpShape.obj
 0001:0007d610       ??$setMaterialsInternal@VPxFEMSoftBodyMaterial@physx@@VNpFEMSoftBodyMaterial@2@@NpShape@physx@@AEAAXPEBQEAVPxFEMSoftBodyMaterial@1@G@Z 000000018007e610 f i NpShape.obj
 0001:0007d830       ??$setMaterialsInternal@VPxMaterial@physx@@VNpMaterial@2@@NpShape@physx@@AEAAXPEBQEAVPxMaterial@1@G@Z 000000018007e830 f i NpShape.obj
 0001:0007da50       ??0NpShape@physx@@QEAA@AEBVPxGeometry@1@V?$PxFlags@W4Enum@PxShapeFlag@physx@@E@1@PEBGG_NW4Enum@PxShapeCoreFlag@1@@Z 000000018007ea50 f   NpShape.obj
 0001:0007db20       ??_ENpShape@physx@@UEAAPEAXI@Z 000000018007eb20 f i NpShape.obj
 0001:0007db20       ??_GNpShape@physx@@UEAAPEAXI@Z 000000018007eb20 f i NpShape.obj
 0001:0007dcb0       ?acquireReference@NpFEMSoftBodyMaterial@physx@@UEAAXXZ 000000018007ecb0 f   NpFEMSoftBodyMaterial.obj
 0001:0007dcb0       ?acquireReference@NpMaterial@physx@@UEAAXXZ 000000018007ecb0 f   NpMaterial.obj
 0001:0007dcb0       ?acquireReference@NpPBDMaterial@physx@@UEAAXXZ 000000018007ecb0 f   NpPBDMaterial.obj
 0001:0007dcb0       ?acquireReference@NpShape@physx@@UEAAXXZ 000000018007ecb0 f   NpShape.obj
 0001:0007dcc0       ?createObject@NpShape@physx@@SAPEAV12@AEAPEAEAEAVPxDeserializationContext@2@@Z 000000018007ecc0 f   NpShape.obj
 0001:0007de50       ?exportExtraData@NpShape@physx@@UEAAXAEAVPxSerializationContext@2@@Z 000000018007ee50 f   NpShape.obj
 0001:0007de90       ?getActor@NpShape@physx@@UEBAPEAVPxRigidActor@2@XZ 000000018007ee90 f   NpShape.obj
 0001:0007def0       ?getConcreteTypeName@PxShape@physx@@UEBAPEBDXZ 000000018007eef0 f i NpShape.obj
 0001:0007df00       ?getContactOffset@NpShape@physx@@UEBAMXZ 000000018007ef00 f   NpShape.obj
 0001:0007df40       ?getDensityForFluid@NpShape@physx@@UEBAMXZ 000000018007ef40 f   NpShape.obj
 0001:0007df80       ?getFlags@NpShape@physx@@UEBA?AV?$PxFlags@W4Enum@PxShapeFlag@physx@@E@2@XZ 000000018007ef80 f   NpShape.obj
 0001:0007dfd0       ?getGeometry@NpShape@physx@@UEBAAEBVPxGeometry@2@XZ 000000018007efd0 f   NpShape.obj
 0001:0007e010       ?getInternalShapeIndex@NpShape@physx@@UEBAIXZ 000000018007f010 f   NpShape.obj
 0001:0007e080       ?getLocalPose@NpShape@physx@@UEBA?AV?$PxTransformT@M@2@XZ 000000018007f080 f   NpShape.obj
 0001:0007e0f0       ?getMaterialFromInternalFaceIndex@NpShape@physx@@UEBAPEAVPxBaseMaterial@2@I@Z 000000018007f0f0 f   NpShape.obj
 0001:0007e200       ?getMaterials@NpShape@physx@@UEBAIPEAPEAVPxMaterial@2@II@Z 000000018007f200 f   NpShape.obj
 0001:0007e270       ?getMinTorsionalPatchRadius@NpShape@physx@@UEBAMXZ 000000018007f270 f   NpShape.obj
 0001:0007e2c0       ?getName@NpShape@physx@@UEBAPEBDXZ 000000018007f2c0 f   NpShape.obj
 0001:0007e300       ?getNbMaterials@NpShape@physx@@UEBAGXZ 000000018007f300 f   NpShape.obj
 0001:0007e340       ?getQueryFilterData@NpShape@physx@@UEBA?AUPxFilterData@2@XZ 000000018007f340 f   NpShape.obj
 0001:0007e3a0       ?getRestOffset@NpShape@physx@@UEBAMXZ 000000018007f3a0 f   NpShape.obj
 0001:0007e3e0       ?getSimulationFilterData@NpShape@physx@@UEBA?AUPxFilterData@2@XZ 000000018007f3e0 f   NpShape.obj
 0001:0007e440       ?getSoftBodyMaterials@NpShape@physx@@UEBAIPEAPEAVPxFEMSoftBodyMaterial@2@II@Z 000000018007f440 f   NpShape.obj
 0001:0007e4b0       ?getTorsionalPatchRadius@NpShape@physx@@UEBAMXZ 000000018007f4b0 f   NpShape.obj
 0001:0007e500       ?incMeshRefCount@NpShape@physx@@AEAAXXZ 000000018007f500 f   NpShape.obj
 0001:0007e540       ?isExclusive@NpShape@physx@@UEBA_NXZ 000000018007f540 f   NpShape.obj
 0001:0007e580       ?isKindOf@PxShape@physx@@MEBA_NPEBD@Z 000000018007f580 f i NpShape.obj
 0001:0007e610       ?notifyActorAndUpdatePVD@NpShape@physx@@AEAAXV?$PxFlags@W4Enum@ShapeChangeNotifyFlag@Sc@physx@@I@2@@Z 000000018007f610 f   NpShape.obj
 0001:0007e710       ?onActorAttach@NpShape@physx@@QEAAXAEAVPxActor@2@@Z 000000018007f710 f   NpShape.obj
 0001:0007e750       ?onActorDetach@NpShape@physx@@QEAAXXZ 000000018007f750 f   NpShape.obj
 0001:0007e7a0       ?onRefCountZero@NpShape@physx@@UEAAXXZ 000000018007f7a0 f   NpShape.obj
 0001:0007e7d0       ?preExportDataReset@NpShape@physx@@QEAAXXZ 000000018007f7d0 f   NpShape.obj
 0001:0007e7f0       ?release@NpShape@physx@@UEAAXXZ 000000018007f7f0 f   NpShape.obj
 0001:0007e880       ?release@NpFEMSoftBodyMaterial@physx@@UEAAXXZ 000000018007f880 f   NpFEMSoftBodyMaterial.obj
 0001:0007e880       ?release@NpMaterial@physx@@UEAAXXZ 000000018007f880 f   NpMaterial.obj
 0001:0007e880       ?release@NpPBDMaterial@physx@@UEAAXXZ 000000018007f880 f   NpPBDMaterial.obj
 0001:0007e880       ?releaseInternal@NpShape@physx@@QEAAXXZ 000000018007f880 f   NpShape.obj
 0001:0007e8b0       ?requiresObjects@NpShape@physx@@UEAAXAEAVPxProcessPxBaseCallback@2@@Z 000000018007f8b0 f   NpShape.obj
 0001:0007e970       ?setContactOffset@NpShape@physx@@UEAAXM@Z 000000018007f970 f   NpShape.obj
 0001:0007eac0       ?setDensityForFluid@NpShape@physx@@UEAAXM@Z 000000018007fac0 f   NpShape.obj
 0001:0007ebe0       ?setFlag@NpShape@physx@@UEAAXW4Enum@PxShapeFlag@2@_N@Z 000000018007fbe0 f   NpShape.obj
 0001:0007ed50       ?setFlags@NpShape@physx@@UEAAXV?$PxFlags@W4Enum@PxShapeFlag@physx@@E@2@@Z 000000018007fd50 f   NpShape.obj
 0001:0007ee90       ?setFlagsInternal@NpShape@physx@@AEAAXV?$PxFlags@W4Enum@PxShapeFlag@physx@@E@2@@Z 000000018007fe90 f   NpShape.obj
 0001:0007f0e0       ?setGeometry@NpShape@physx@@UEAAXAEBVPxGeometry@2@@Z 00000001800800e0 f   NpShape.obj
 0001:0007f370       ?setLocalPose@NpShape@physx@@UEAAXAEBV?$PxTransformT@M@2@@Z 0000000180080370 f   NpShape.obj
 0001:0007f690       ?setMaterials@NpShape@physx@@UEAAXPEBQEAVPxMaterial@2@G@Z 0000000180080690 f   NpShape.obj
 0001:0007f6f0       ?setMinTorsionalPatchRadius@NpShape@physx@@UEAAXM@Z 00000001800806f0 f   NpShape.obj
 0001:0007f820       ?setName@NpShape@physx@@UEAAXPEBD@Z 0000000180080820 f   NpShape.obj
 0001:0007f8c0       ?setQueryFilterData@NpShape@physx@@UEAAXAEBUPxFilterData@2@@Z 00000001800808c0 f   NpShape.obj
 0001:0007f9f0       ?setRestOffset@NpShape@physx@@UEAAXM@Z 00000001800809f0 f   NpShape.obj
 0001:0007fb40       ?setSimulationFilterData@NpShape@physx@@UEAAXAEBUPxFilterData@2@@Z 0000000180080b40 f   NpShape.obj
 0001:0007fc60       ?setSoftBodyMaterials@NpShape@physx@@UEAAXPEBQEAVPxFEMSoftBodyMaterial@2@G@Z 0000000180080c60 f   NpShape.obj
 0001:0007fcc0       ?setTorsionalPatchRadius@NpShape@physx@@UEAAXM@Z 0000000180080cc0 f   NpShape.obj
 0001:0007fdf0       ?updateSQ@NpShape@physx@@AEAAXPEBD@Z 0000000180080df0 f   NpShape.obj
 0001:0007fea0       ??0NpShapeManager@physx@@QEAA@W4PxEMPTY@1@@Z 0000000180080ea0 f   NpShapeManager.obj
 0001:0007fec0       ??0NpShapeManager@physx@@QEAA@XZ 0000000180080ec0 f   NpShapeManager.obj
 0001:0007fef0       ??1NpShapeManager@physx@@QEAA@XZ 0000000180080ef0 f   NpShapeManager.obj
 0001:0007ff20       ?addBVHShapes@NpShapeManager@physx@@AEAAXAEAVPxSceneQuerySystem@2@AEBVPxRigidActor@2@AEBVBVH@Gu@2@@Z 0000000180080f20 f   NpShapeManager.obj
 0001:00080270       ?attachShape@NpShapeManager@physx@@QEAAXAEAVNpShape@2@AEAVPxRigidActor@2@@Z 0000000180081270 f   NpShapeManager.obj
 0001:000803a0       ?clearShapesOnRelease@NpShapeManager@physx@@QEAAXAEAVNpScene@2@AEAVPxRigidActor@2@@Z 00000001800813a0 f   NpShapeManager.obj
 0001:00080410       ?detachAll@NpShapeManager@physx@@QEAAXPEAVPxSceneQuerySystem@2@AEBVPxRigidActor@2@@Z 0000000180081410 f   NpShapeManager.obj
 0001:00080500       ?detachShape@NpShapeManager@physx@@QEAA_NAEAVNpShape@2@AEAVPxRigidActor@2@_N@Z 0000000180081500 f   NpShapeManager.obj
 0001:000806c0       ?exportExtraData@NpShapeManager@physx@@QEAAXAEAVPxSerializationContext@2@@Z 00000001800816c0 f   NpShapeManager.obj
 0001:00080b20       ?getShapes@NpShapeManager@physx@@QEBAIPEAPEAVPxShape@2@II@Z 0000000180081b20 f   NpShapeManager.obj
 0001:00080b80       ?getWorldBounds_@NpShapeManager@physx@@QEBA?AVPxBounds3@2@AEBVPxRigidActor@2@@Z 0000000180081b80 f   NpShapeManager.obj
 0001:00080e70       ?importExtraData@NpShapeManager@physx@@QEAAXAEAVPxDeserializationContext@2@@Z 0000000180081e70 f   NpShapeManager.obj
 0001:00080e80       ?markActorForSQUpdate@NpShapeManager@physx@@QEAAXAEAVPxSceneQuerySystem@2@AEBVPxRigidActor@2@@Z 0000000180081e80 f   NpShapeManager.obj
 0001:00080f70       ?markShapeForSQUpdate@NpShapeManager@physx@@QEAAXAEAVPxSceneQuerySystem@2@AEBVPxShape@2@AEBVPxRigidActor@2@@Z 0000000180081f70 f   NpShapeManager.obj
 0001:00081010       ?setupAllSceneQuery@NpShapeManager@physx@@QEAAXAEAVPxSceneQuerySystem@2@AEBVNpActor@2@AEBVPxRigidActor@2@PEBVPruningStructure@Sq@2@PEBVPxBounds3@2@_N@Z 0000000180082010 f   NpShapeManager.obj
 0001:00081120       ?setupAllSceneQuery@NpShapeManager@physx@@QEAAXAEAVPxSceneQuerySystem@2@AEBVPxRigidActor@2@PEBVPruningStructure@Sq@2@PEBVPxBounds3@2@PEBVBVH@Gu@2@@Z 0000000180082120 f   NpShapeManager.obj
 0001:00081270       ?setupSQShape@NpShapeManager@physx@@QEAAXAEAVPxSceneQuerySystem@2@AEBVNpShape@2@AEBVNpActor@2@AEBVPxRigidActor@2@_NPEBVPxBounds3@2@PEBVPruningStructure@Sq@2@@Z 0000000180082270 f   NpShapeManager.obj
 0001:000813e0       ?setupSceneQuery@NpShapeManager@physx@@QEAAXAEAVPxSceneQuerySystem@2@AEBVNpActor@2@AEBVPxRigidActor@2@AEBVNpShape@2@@Z 00000001800823e0 f   NpShapeManager.obj
 0001:000813f0       ?setupSceneQuery_@NpShapeManager@physx@@AEAAXAEAVPxSceneQuerySystem@2@AEBVNpActor@2@AEBVPxRigidActor@2@AEBVNpShape@2@@Z 00000001800823f0 f   NpShapeManager.obj
 0001:00081500       ?teardownAllSceneQuery@NpShapeManager@physx@@QEAAXAEAVPxSceneQuerySystem@2@AEBVPxRigidActor@2@@Z 0000000180082500 f   NpShapeManager.obj
 0001:00081590       ?teardownSceneQuery@NpShapeManager@physx@@QEAAXAEAVPxSceneQuerySystem@2@AEBVPxRigidActor@2@AEBVNpShape@2@@Z 0000000180082590 f   NpShapeManager.obj
 0001:000815b0       ??0?$PxMat44T@M@physx@@QEAA@AEBV?$PxTransformT@M@1@@Z 00000001800825b0 f i NpDebugViz.obj
 0001:00081730       ??6PxRenderOutput@physx@@QEAAAEAV01@AEBV?$PxTransformT@M@1@@Z 0000000180082730 f i NpDebugViz.obj
 0001:000817c0       ??6PxRenderOutput@physx@@QEAAAEAV01@AEBV?$PxVec3T@M@1@@Z 00000001800827c0 f i NpDebugViz.obj
 0001:00081ab0       ??_EConstraintImmediateVisualizer@Cm@physx@@UEAAPEAXI@Z 0000000180082ab0 f i NpDebugViz.obj
 0001:00081ab0       ??_GConstraintImmediateVisualizer@Cm@physx@@UEAAPEAXI@Z 0000000180082ab0 f i NpDebugViz.obj
 0001:00081ae0       ?outputCapsule@PxRenderOutput@physx@@QEAAAEAV12@MMAEBV?$PxMat44T@M@2@@Z 0000000180082ae0 f i NpDebugViz.obj
 0001:00082920       ?visualize@NpScene@physx@@AEAAXXZ 0000000180083920 f   NpDebugViz.obj
 0001:000830b0       ?visualize@NpShapeManager@physx@@QEBAXAEAVPxRenderOutput@2@AEAVNpScene@2@AEBVPxRigidActor@2@M@Z 00000001800840b0 f   NpDebugViz.obj
 0001:00083b60       ?visualizeAngularLimit@ConstraintImmediateVisualizer@Cm@physx@@UEAAXAEBV?$PxTransformT@M@3@MM@Z 0000000180084b60 f i NpDebugViz.obj
 0001:000845e0       ?visualizeDoubleCone@ConstraintImmediateVisualizer@Cm@physx@@UEAAXAEBV?$PxTransformT@M@3@M@Z 00000001800855e0 f i NpDebugViz.obj
 0001:00085130       ?visualizeJoint@NpArticulationLink@physx@@QEBAXAEAVPxConstraintVisualizer@2@@Z 0000000180086130 f   NpDebugViz.obj
 0001:00085db0       ?visualizeJointFrames@ConstraintImmediateVisualizer@Cm@physx@@UEAAXAEBV?$PxTransformT@M@3@0@Z 0000000180086db0 f i NpDebugViz.obj
 0001:00085dd0       ?visualizeLimitCone@ConstraintImmediateVisualizer@Cm@physx@@UEAAXAEBV?$PxTransformT@M@3@MM@Z 0000000180086dd0 f i NpDebugViz.obj
 0001:00085e00       ?visualizeLine@ConstraintImmediateVisualizer@Cm@physx@@UEAAXAEBV?$PxVec3T@M@3@0I@Z 0000000180086e00 f i NpDebugViz.obj
 0001:00085e70       ?visualizeLinearLimit@ConstraintImmediateVisualizer@Cm@physx@@UEAAXAEBV?$PxTransformT@M@3@0M@Z 0000000180086e70 f i NpDebugViz.obj
 0001:00085ea0       ?visualizeRigidBody@physx@@YAXAEAVPxRenderOutput@1@AEAVNpScene@1@AEBVPxRigidActor@1@AEBVBodyCore@Sc@1@M@Z 0000000180086ea0 f   NpDebugViz.obj
 0001:0008a6a0       ??1PxcScratchAllocator@physx@@QEAA@XZ 000000018008b6a0 f i NpImmediateMode.obj
 0001:0008a860       ??4PxArticulationLinkDataRC@immediate@physx@@QEAAAEAU012@AEBU012@@Z 000000018008b860 f i NpImmediateMode.obj
 0001:0008adb0       ??_EPxAABBManager@physx@@MEAAPEAXI@Z 000000018008bdb0 f i NpImmediateMode.obj
