 PhysX_64

 Timestamp is 64bdff3c (Mon Jul 24 10:04:04 2023)

 Preferred load address is 0000000180000000

 Start         Length     Name                   Class
 0001:00000000 00003510H .text$di                CODE
 0001:00003510 001d1160H .text$mn                CODE
 0001:001d4670 00000040H .text$mn$00             CODE
 0001:001d46b0 00000680H .text$x                 CODE
 0001:001d4d30 0000002fH .text$yd                CODE
 0002:00000000 000002b8H .idata$5                DATA
 0002:000002b8 00000038H .00cfg                  DATA
 0002:000002f0 00000008H .CRT$XCA                DATA
 0002:000002f8 00001a40H .CRT$XCU                DATA
 0002:00001d38 00000008H .CRT$XCZ                DATA
 0002:00001d40 00000008H .CRT$XIA                DATA
 0002:00001d48 00000018H .CRT$XIC                DATA
 0002:00001d60 00000008H .CRT$XIZ                DATA
 0002:00001d68 00000008H .CRT$XPA                DATA
 0002:00001d70 00000010H .CRT$XPX                DATA
 0002:00001d80 00000008H .CRT$XPXA               DATA
 0002:00001d88 00000008H .CRT$XPZ                DATA
 0002:00001d90 00000008H .CRT$XTA                DATA
 0002:00001d98 00000008H .CRT$XTZ                DATA
 0002:00001da0 00000000H .gehcont$y              DATA
 0002:00001da0 00000000H .gfids$y                DATA
 0002:00001da0 00028c60H .rdata                  DATA
 0002:0002aa00 00000000H .rdata$CastGuardVftablesA DATA
 0002:0002aa00 00000000H .rdata$CastGuardVftablesC DATA
 0002:0002aa00 0000043cH .rdata$r                DATA
 0002:0002ae3c 00000c74H .rdata$voltmd           DATA
 0002:0002bab0 00000438H .rdata$zzzdbg           DATA
 0002:0002bee8 00000008H .rtc$IAA                DATA
 0002:0002bef0 00000008H .rtc$IZZ                DATA
 0002:0002bef8 00000008H .rtc$TAA                DATA
 0002:0002bf00 00000008H .rtc$TZZ                DATA
 0002:0002bf08 0001be90H .xdata                  DATA
 0002:00047d98 00000084H .xdata$x                DATA
 0002:00047e1c 00000040H .didat$2                DATA
 0002:00047e5c 00000024H .didat$3                DATA
 0002:00047e80 00000738H .didat$4                DATA
 0002:000485b8 00005068H .didat$6                DATA
 0002:0004d620 00000740H .didat$7                DATA
 0002:0004dd60 00002ce4H .edata                  DATA
 0002:00050a44 00000014H .idata$2                DATA
 0002:00050a58 00000018H .idata$3                DATA
 0002:00050a70 000002b8H .idata$4                DATA
 0002:00050d28 00000642H .idata$6                DATA
 0003:00000000 00002830H .data                   DATA
 0003:00002830 00003b20H .data$r                 DATA
 0003:00006350 000000f0H .data$rs                DATA
 0003:00006440 00000740H .didat$5                DATA
 0003:00006b80 00004c10H .bss                    DATA
 0004:00000000 000177f0H .pdata                  DATA
 0005:00000000 0000236cH _RDATA                  DATA
 0006:00000000 000000a0H .rsrc$01                DATA
 0006:000000a0 00000488H .rsrc$02                DATA

  Address         Publics by Value              Rva+Base               Lib:Object

 0000:00000000       __AbsoluteZero             0000000000000000     <absolute>
 0000:00000000       ___safe_se_handler_count   0000000000000000     <absolute>
 0000:00000000       ___safe_se_handler_table   0000000000000000     <absolute>
 0000:00000000       __arm64x_extra_rfe_table   0000000000000000     <absolute>
 0000:00000000       __arm64x_extra_rfe_table_size 0000000000000000     <absolute>
 0000:00000000       __arm64x_native_entrypoint 0000000000000000     <absolute>
 0000:00000000       __arm64x_redirection_metadata 0000000000000000     <absolute>
 0000:00000000       __arm64x_redirection_metadata_count 0000000000000000     <absolute>
 0000:00000000       __dynamic_value_reloc_table 0000000000000000     <absolute>
 0000:00000000       __enclave_config           0000000000000000     <absolute>
 0000:00000000       __guard_check_icall_a64n_fptr 0000000000000000     <absolute>
 0000:00000000       __guard_eh_cont_count      0000000000000000     <absolute>
 0000:00000000       __guard_eh_cont_table      0000000000000000     <absolute>
 0000:00000000       __guard_fids_count         0000000000000000     <absolute>
 0000:00000000       __guard_fids_table         0000000000000000     <absolute>
 0000:00000000       __guard_iat_count          0000000000000000     <absolute>
 0000:00000000       __guard_iat_table          0000000000000000     <absolute>
 0000:00000000       __guard_longjmp_count      0000000000000000     <absolute>
 0000:00000000       __guard_longjmp_table      0000000000000000     <absolute>
 0000:00000000       __hybrid_auxiliary_delayload_iat 0000000000000000     <absolute>
 0000:00000000       __hybrid_auxiliary_delayload_iat_copy 0000000000000000     <absolute>
 0000:00000000       __hybrid_auxiliary_iat     0000000000000000     <absolute>
 0000:00000000       __hybrid_auxiliary_iat_copy 0000000000000000     <absolute>
 0000:00000000       __hybrid_code_map          0000000000000000     <absolute>
 0000:00000000       __hybrid_code_map_count    0000000000000000     <absolute>
 0000:00000000       __x64_code_ranges_to_entry_points 0000000000000000     <absolute>
 0000:00000000       __x64_code_ranges_to_entry_points_count 0000000000000000     <absolute>
 0000:00000100       __guard_flags              0000000000000100     <absolute>
 0000:00000000       __ImageBase                0000000180000000     <linker-defined>
 0001:00003510       ??0PxFoundation@physx@@QEAA@AEBV01@@Z 0000000180004510 f i NpOmniPvd.obj
 0001:00003510       ??0PxFoundation@physx@@QEAA@XZ 0000000180004510 f i NpOmniPvd.obj
 0001:00003520       ??1PxFoundation@physx@@MEAA@XZ 0000000180004520 f i NpOmniPvd.obj
 0001:00003530       ??0PxGeometryGeneratedInfo@physx@@QEAA@XZ 0000000180004530 f i PxAutoGeneratedMetaDataObjects.obj
 0001:00003530       ??0PxGeometryGeneratedValues@physx@@QEAA@PEBVPxGeometry@1@@Z 0000000180004530 f i PxAutoGeneratedMetaDataObjects.obj
 0001:00003530       ??0PxPlaneGeometryGeneratedInfo@physx@@QEAA@XZ 0000000180004530 f i PxAutoGeneratedMetaDataObjects.obj
 0001:00003530       ??0PxPlaneGeometryGeneratedValues@physx@@QEAA@PEBVPxPlaneGeometry@1@@Z 0000000180004530 f i PxAutoGeneratedMetaDataObjects.obj
 0001:00003530       ??4PxFoundation@physx@@QEAAAEAV01@AEBV01@@Z 0000000180004530 f i NpOmniPvd.obj
 0001:00003530       ??4PxMutexImpl@physx@@QEAAAEAV01@AEBV01@@Z 0000000180004530 f i NpOmniPvd.obj
 0001:00003530       ??4PxSListImpl@physx@@QEAAAEAU01@AEBU01@@Z 0000000180004530 f i OmniPvdPxSampler.obj
 0001:00003530       ??4PxSyncImpl@physx@@QEAAAEAV01@AEBV01@@Z 0000000180004530 f i OmniPvdPxSampler.obj
 0001:00003530       ??4PxThreadImpl@physx@@QEAAAEAV01@AEBV01@@Z 0000000180004530 f i OmniPvdPxSampler.obj
 0001:00003540       ??_EPxFoundation@physx@@MEAAPEAXI@Z 0000000180004540 f i NpOmniPvd.obj
 0001:000035d0       ??_ENpOmniPvd@physx@@UEAAPEAXI@Z 00000001800045d0 f i NpOmniPvd.obj
 0001:000035d0       ??_GNpOmniPvd@physx@@UEAAPEAXI@Z 00000001800045d0 f i NpOmniPvd.obj
 0001:000036b0       ??_EPVDCapture@Sq@physx@@UEAAPEAXI@Z 00000001800046b0 f i NpSceneQueries.obj
 0001:000036b0       ??_EPxOmniPvd@physx@@UEAAPEAXI@Z 00000001800046b0 f i NpOmniPvd.obj
 0001:000036b0       ??_GPVDCapture@Sq@physx@@UEAAPEAXI@Z 00000001800046b0 f i NpSceneQueries.obj
 0001:000036b0       ??_GPxOmniPvd@physx@@UEAAPEAXI@Z 00000001800046b0 f i NpOmniPvd.obj
 0001:000036e0       ?decRefCount@NpOmniPvd@physx@@SAXXZ 00000001800046e0 f   NpOmniPvd.obj
 0001:00003700       ?getFileWriteStream@NpOmniPvd@physx@@UEAAPEAVOmniPvdFileWriteStream@@XZ 0000000180004700 f   NpOmniPvd.obj
 0001:00003730       ?getWriter@NpOmniPvd@physx@@UEAAPEAVOmniPvdWriter@@XZ 0000000180004730 f   NpOmniPvd.obj
 0001:00003760       ?incRefCount@NpOmniPvd@physx@@SAXXZ 0000000180004760 f   NpOmniPvd.obj
 0001:00003770       ?initOmniPvd@NpOmniPvd@physx@@QEAA_NXZ 0000000180004770 f   NpOmniPvd.obj
 0001:00003940       ?release@NpOmniPvd@physx@@UEAAXXZ 0000000180004940 f   NpOmniPvd.obj
 0001:000039a0       ?startSampling@NpOmniPvd@physx@@UEAA_NXZ 00000001800049a0 f   NpOmniPvd.obj
 0001:000039c0       PxCreateOmniPvd            00000001800049c0 f   NpOmniPvd.obj
 0001:00003aa0       ??$addToUniqueList@VPxAggregate@physx@@VPxActor@2@@OmniPvdPxSampler@@QEAAXIAEBVPxAggregate@physx@@AEBVPxActor@2@@Z 0000000180004aa0 f i OmniPvdPxSampler.obj
 0001:00003aa0       ??$addToUniqueList@VPxPhysics@physx@@VPxScene@2@@OmniPvdPxSampler@@QEAAXIAEBVPxPhysics@physx@@AEBVPxScene@2@@Z 0000000180004aa0 f i OmniPvdPxSampler.obj
 0001:00003aa0       ??$addToUniqueList@VPxRigidActor@physx@@VPxShape@2@@OmniPvdPxSampler@@QEAAXIAEBVPxRigidActor@physx@@AEBVPxShape@2@@Z 0000000180004aa0 f i OmniPvdPxSampler.obj
 0001:00003aa0       ??$addToUniqueList@VPxScene@physx@@VPxActor@2@@OmniPvdPxSampler@@QEAAXIAEBVPxScene@physx@@AEBVPxActor@2@@Z 0000000180004aa0 f i OmniPvdPxSampler.obj
 0001:00003aa0       ??$addToUniqueList@VPxScene@physx@@VPxAggregate@2@@OmniPvdPxSampler@@QEAAXIAEBVPxScene@physx@@AEBVPxAggregate@2@@Z 0000000180004aa0 f i OmniPvdPxSampler.obj
 0001:00003aa0       ??$addToUniqueList@VPxScene@physx@@VPxArticulationReducedCoordinate@2@@OmniPvdPxSampler@@QEAAXIAEBVPxScene@physx@@AEBVPxArticulationReducedCoordinate@2@@Z 0000000180004aa0 f i OmniPvdPxSampler.obj
 0001:00003af0       ??$createObject@VPxScene@physx@@@OmniPvdPxSampler@@QEAAXIAEBVPxScene@physx@@@Z 0000000180004af0 f i OmniPvdPxSampler.obj
 0001:00003b20       ??$destroyObject@VPxMaterial@physx@@@OmniPvdPxSampler@@QEAAXAEBVPxMaterial@physx@@@Z 0000000180004b20 f i OmniPvdPxSampler.obj
 0001:00003b20       ??$destroyObject@VPxPhysics@physx@@@OmniPvdPxSampler@@QEAAXAEBVPxPhysics@physx@@@Z 0000000180004b20 f i OmniPvdPxSampler.obj
 0001:00003b20       ??$destroyObject@VPxScene@physx@@@OmniPvdPxSampler@@QEAAXAEBVPxScene@physx@@@Z 0000000180004b20 f i OmniPvdPxSampler.obj
 0001:00003b40       ??$removeFromUniqueList@VPxAggregate@physx@@VPxActor@2@@OmniPvdPxSampler@@QEAAXIAEBVPxAggregate@physx@@AEBVPxActor@2@@Z 0000000180004b40 f i OmniPvdPxSampler.obj
 0001:00003b40       ??$removeFromUniqueList@VPxPhysics@physx@@VPxScene@2@@OmniPvdPxSampler@@QEAAXIAEBVPxPhysics@physx@@AEBVPxScene@2@@Z 0000000180004b40 f i OmniPvdPxSampler.obj
 0001:00003b40       ??$removeFromUniqueList@VPxRigidActor@physx@@VPxShape@2@@OmniPvdPxSampler@@QEAAXIAEBVPxRigidActor@physx@@AEBVPxShape@2@@Z 0000000180004b40 f i OmniPvdPxSampler.obj
 0001:00003b40       ??$removeFromUniqueList@VPxScene@physx@@VPxActor@2@@OmniPvdPxSampler@@QEAAXIAEBVPxScene@physx@@AEBVPxActor@2@@Z 0000000180004b40 f i OmniPvdPxSampler.obj
 0001:00003b40       ??$removeFromUniqueList@VPxScene@physx@@VPxAggregate@2@@OmniPvdPxSampler@@QEAAXIAEBVPxScene@physx@@AEBVPxAggregate@2@@Z 0000000180004b40 f i OmniPvdPxSampler.obj
 0001:00003b40       ??$removeFromUniqueList@VPxScene@physx@@VPxArticulationReducedCoordinate@2@@OmniPvdPxSampler@@QEAAXIAEBVPxScene@physx@@AEBVPxArticulationReducedCoordinate@2@@Z 0000000180004b40 f i OmniPvdPxSampler.obj
 0001:00003b90       ??$setAttribute@VPxActor@physx@@E@OmniPvdPxSampler@@QEAAXIAEBVPxActor@physx@@AEBE@Z 0000000180004b90 f i OmniPvdPxSampler.obj
 0001:00003b90       ??$setAttribute@VPxArticulationReducedCoordinate@physx@@V?$PxFlags@W4Enum@PxArticulationFlag@physx@@E@2@@OmniPvdPxSampler@@QEAAXIAEBVPxArticulationReducedCoordinate@physx@@AEBV?$PxFlags@W4Enum@PxArticulationFlag@physx@@E@2@@Z 0000000180004b90 f i OmniPvdPxSampler.obj
 0001:00003b90       ??$setAttribute@VPxRigidDynamic@physx@@V?$PxFlags@W4Enum@PxRigidDynamicLockFlag@physx@@E@2@@OmniPvdPxSampler@@QEAAXIAEBVPxRigidDynamic@physx@@AEBV?$PxFlags@W4Enum@PxRigidDynamicLockFlag@physx@@E@2@@Z 0000000180004b90 f i OmniPvdPxSampler.obj
 0001:00003b90       ??$setAttribute@VPxRigidDynamic@physx@@_N@OmniPvdPxSampler@@QEAAXIAEBVPxRigidDynamic@physx@@AEB_N@Z 0000000180004b90 f i OmniPvdPxSampler.obj
 0001:00003b90       ??$setAttribute@VPxScene@physx@@_N@OmniPvdPxSampler@@QEAAXIAEBVPxScene@physx@@AEB_N@Z 0000000180004b90 f i OmniPvdPxSampler.obj
 0001:00003b90       ??$setAttribute@VPxShape@physx@@V?$PxFlags@W4Enum@PxShapeFlag@physx@@E@2@@OmniPvdPxSampler@@QEAAXIAEBVPxShape@physx@@AEBV?$PxFlags@W4Enum@PxShapeFlag@physx@@E@2@@Z 0000000180004b90 f i OmniPvdPxSampler.obj
 0001:00003bd0       ??$setAttribute@VPxActor@physx@@VPxBounds3@2@@OmniPvdPxSampler@@QEAAXIAEBVPxActor@physx@@AEBVPxBounds3@2@@Z 0000000180004bd0 f i OmniPvdPxSampler.obj
 0001:00003bd0       ??$setAttribute@VPxArticulationReducedCoordinate@physx@@VPxBounds3@2@@OmniPvdPxSampler@@QEAAXIAEBVPxArticulationReducedCoordinate@physx@@AEBVPxBounds3@2@@Z 0000000180004bd0 f i OmniPvdPxSampler.obj
 0001:00003bd0       ??$setAttribute@VPxScene@physx@@VPxBounds3@2@@OmniPvdPxSampler@@QEAAXIAEBVPxScene@physx@@AEBVPxBounds3@2@@Z 0000000180004bd0 f i OmniPvdPxSampler.obj
 0001:00003c10       ??$setAttribute@VPxAggregate@physx@@PEBVPxScene@2@@OmniPvdPxSampler@@QEAAXIAEBVPxAggregate@physx@@AEBQEBVPxScene@2@@Z 0000000180004c10 f i OmniPvdPxSampler.obj
 0001:00003c10       ??$setAttribute@VPxScene@physx@@VPxTolerancesScale@2@@OmniPvdPxSampler@@QEAAXIAEBVPxScene@physx@@AEBVPxTolerancesScale@2@@Z 0000000180004c10 f i OmniPvdPxSampler.obj
 0001:00003c50       ??$setAttribute@VPxArticulationJointReducedCoordinate@physx@@M@OmniPvdPxSampler@@QEAAXIAEBVPxArticulationJointReducedCoordinate@physx@@AEBM@Z 0000000180004c50 f i OmniPvdPxSampler.obj
 0001:00003c50       ??$setAttribute@VPxArticulationJointReducedCoordinate@physx@@W4Enum@PxArticulationJointType@2@@OmniPvdPxSampler@@QEAAXIAEBVPxArticulationJointReducedCoordinate@physx@@AEBW4Enum@PxArticulationJointType@2@@Z 0000000180004c50 f i OmniPvdPxSampler.obj
 0001:00003c50       ??$setAttribute@VPxArticulationLink@physx@@M@OmniPvdPxSampler@@QEAAXIAEBVPxArticulationLink@physx@@AEBM@Z 0000000180004c50 f i OmniPvdPxSampler.obj
 0001:00003c50       ??$setAttribute@VPxArticulationReducedCoordinate@physx@@I@OmniPvdPxSampler@@QEAAXIAEBVPxArticulationReducedCoordinate@physx@@AEBI@Z 0000000180004c50 f i OmniPvdPxSampler.obj
 0001:00003c50       ??$setAttribute@VPxArticulationReducedCoordinate@physx@@M@OmniPvdPxSampler@@QEAAXIAEBVPxArticulationReducedCoordinate@physx@@AEBM@Z 0000000180004c50 f i OmniPvdPxSampler.obj
 0001:00003c50       ??$setAttribute@VPxMaterial@physx@@M@OmniPvdPxSampler@@QEAAXIAEBVPxMaterial@physx@@AEBM@Z 0000000180004c50 f i OmniPvdPxSampler.obj
 0001:00003c50       ??$setAttribute@VPxMaterial@physx@@W4Enum@PxCombineMode@2@@OmniPvdPxSampler@@QEAAXIAEBVPxMaterial@physx@@AEBW4Enum@PxCombineMode@2@@Z 0000000180004c50 f i OmniPvdPxSampler.obj
 0001:00003c50       ??$setAttribute@VPxRigidBody@physx@@M@OmniPvdPxSampler@@QEAAXIAEBVPxRigidBody@physx@@AEBM@Z 0000000180004c50 f i OmniPvdPxSampler.obj
 0001:00003c50       ??$setAttribute@VPxRigidDynamic@physx@@I@OmniPvdPxSampler@@QEAAXIAEBVPxRigidDynamic@physx@@AEBI@Z 0000000180004c50 f i OmniPvdPxSampler.obj
 0001:00003c50       ??$setAttribute@VPxRigidDynamic@physx@@M@OmniPvdPxSampler@@QEAAXIAEBVPxRigidDynamic@physx@@AEBM@Z 0000000180004c50 f i OmniPvdPxSampler.obj
 0001:00003c50       ??$setAttribute@VPxScene@physx@@I@OmniPvdPxSampler@@QEAAXIAEBVPxScene@physx@@AEBI@Z 0000000180004c50 f i OmniPvdPxSampler.obj
 0001:00003c50       ??$setAttribute@VPxScene@physx@@M@OmniPvdPxSampler@@QEAAXIAEBVPxScene@physx@@AEBM@Z 0000000180004c50 f i OmniPvdPxSampler.obj
 0001:00003c50       ??$setAttribute@VPxScene@physx@@V?$PxFlags@W4Enum@PxSceneFlag@physx@@I@2@@OmniPvdPxSampler@@QEAAXIAEBVPxScene@physx@@AEBV?$PxFlags@W4Enum@PxSceneFlag@physx@@I@2@@Z 0000000180004c50 f i OmniPvdPxSampler.obj
 0001:00003c50       ??$setAttribute@VPxScene@physx@@W4Enum@PxBroadPhaseType@2@@OmniPvdPxSampler@@QEAAXIAEBVPxScene@physx@@AEBW4Enum@PxBroadPhaseType@2@@Z 0000000180004c50 f i OmniPvdPxSampler.obj
 0001:00003c50       ??$setAttribute@VPxScene@physx@@W4Enum@PxFrictionType@2@@OmniPvdPxSampler@@QEAAXIAEBVPxScene@physx@@AEBW4Enum@PxFrictionType@2@@Z 0000000180004c50 f i OmniPvdPxSampler.obj
 0001:00003c50       ??$setAttribute@VPxScene@physx@@W4Enum@PxPairFilteringMode@2@@OmniPvdPxSampler@@QEAAXIAEBVPxScene@physx@@AEBW4Enum@PxPairFilteringMode@2@@Z 0000000180004c50 f i OmniPvdPxSampler.obj
 0001:00003c50       ??$setAttribute@VPxScene@physx@@W4Enum@PxSolverType@2@@OmniPvdPxSampler@@QEAAXIAEBVPxScene@physx@@AEBW4Enum@PxSolverType@2@@Z 0000000180004c50 f i OmniPvdPxSampler.obj
 0001:00003c50       ??$setAttribute@VPxShape@physx@@M@OmniPvdPxSampler@@QEAAXIAEBVPxShape@physx@@AEBM@Z 0000000180004c50 f i OmniPvdPxSampler.obj
 0001:00003c90       ??$setAttribute@VPxArticulationJointReducedCoordinate@physx@@V?$PxQuatT@M@2@@OmniPvdPxSampler@@QEAAXIAEBVPxArticulationJointReducedCoordinate@physx@@AEBV?$PxQuatT@M@2@@Z 0000000180004c90 f i OmniPvdPxSampler.obj
 0001:00003c90       ??$setAttribute@VPxRigidActor@physx@@V?$PxQuatT@M@2@@OmniPvdPxSampler@@QEAAXIAEBVPxRigidActor@physx@@AEBV?$PxQuatT@M@2@@Z 0000000180004c90 f i OmniPvdPxSampler.obj
 0001:00003c90       ??$setAttribute@VPxShape@physx@@UPxFilterData@2@@OmniPvdPxSampler@@QEAAXIAEBVPxShape@physx@@AEBUPxFilterData@2@@Z 0000000180004c90 f i OmniPvdPxSampler.obj
 0001:00003c90       ??$setAttribute@VPxShape@physx@@V?$PxQuatT@M@2@@OmniPvdPxSampler@@QEAAXIAEBVPxShape@physx@@AEBV?$PxQuatT@M@2@@Z 0000000180004c90 f i OmniPvdPxSampler.obj
 0001:00003cd0       ??$setAttribute@VPxArticulationJointReducedCoordinate@physx@@V?$PxVec3T@M@2@@OmniPvdPxSampler@@QEAAXIAEBVPxArticulationJointReducedCoordinate@physx@@AEBV?$PxVec3T@M@2@@Z 0000000180004cd0 f i OmniPvdPxSampler.obj
 0001:00003cd0       ??$setAttribute@VPxRigidActor@physx@@V?$PxVec3T@M@2@@OmniPvdPxSampler@@QEAAXIAEBVPxRigidActor@physx@@AEBV?$PxVec3T@M@2@@Z 0000000180004cd0 f i OmniPvdPxSampler.obj
 0001:00003cd0       ??$setAttribute@VPxRigidBody@physx@@V?$PxVec3T@M@2@@OmniPvdPxSampler@@QEAAXIAEBVPxRigidBody@physx@@AEBV?$PxVec3T@M@2@@Z 0000000180004cd0 f i OmniPvdPxSampler.obj
 0001:00003cd0       ??$setAttribute@VPxScene@physx@@V?$PxVec3T@M@2@@OmniPvdPxSampler@@QEAAXIAEBVPxScene@physx@@AEBV?$PxVec3T@M@2@@Z 0000000180004cd0 f i OmniPvdPxSampler.obj
 0001:00003cd0       ??$setAttribute@VPxShape@physx@@V?$PxVec3T@M@2@@OmniPvdPxSampler@@QEAAXIAEBVPxShape@physx@@AEBV?$PxVec3T@M@2@@Z 0000000180004cd0 f i OmniPvdPxSampler.obj
 0001:00003d10       ??$setAttribute@VPxMaterial@physx@@V?$PxFlags@W4Enum@PxMaterialFlag@physx@@G@2@@OmniPvdPxSampler@@QEAAXIAEBVPxMaterial@physx@@AEBV?$PxFlags@W4Enum@PxMaterialFlag@physx@@G@2@@Z 0000000180004d10 f i OmniPvdPxSampler.obj
 0001:00003d10       ??$setAttribute@VPxRigidBody@physx@@V?$PxFlags@W4Enum@PxRigidBodyFlag@physx@@G@2@@OmniPvdPxSampler@@QEAAXIAEBVPxRigidBody@physx@@AEBV?$PxFlags@W4Enum@PxRigidBodyFlag@physx@@G@2@@Z 0000000180004d10 f i OmniPvdPxSampler.obj
 0001:00003d50       ??$setAttribute@VPxRigidBody@physx@@V?$PxTransformT@M@2@@OmniPvdPxSampler@@QEAAXIAEBVPxRigidBody@physx@@AEBV?$PxTransformT@M@2@@Z 0000000180004d50 f i OmniPvdPxSampler.obj
 0001:00003d90       ??$setAttribute@VPxScene@physx@@UPxgDynamicsMemoryConfig@2@@OmniPvdPxSampler@@QEAAXIAEBVPxScene@physx@@AEBUPxgDynamicsMemoryConfig@2@@Z 0000000180004d90 f i OmniPvdPxSampler.obj
 0001:00003dd0       ??$setAttributeBytes@VPxArticulationJointReducedCoordinate@physx@@M@OmniPvdPxSampler@@QEAAXIAEBVPxArticulationJointReducedCoordinate@physx@@PEBMI@Z 0000000180004dd0 f i OmniPvdPxSampler.obj
 0001:00003dd0       ??$setAttributeBytes@VPxArticulationJointReducedCoordinate@physx@@W4Enum@PxArticulationDriveType@2@@OmniPvdPxSampler@@QEAAXIAEBVPxArticulationJointReducedCoordinate@physx@@PEBW4Enum@PxArticulationDriveType@2@I@Z 0000000180004dd0 f i OmniPvdPxSampler.obj
 0001:00003dd0       ??$setAttributeBytes@VPxArticulationJointReducedCoordinate@physx@@W4Enum@PxArticulationMotion@2@@OmniPvdPxSampler@@QEAAXIAEBVPxArticulationJointReducedCoordinate@physx@@PEBW4Enum@PxArticulationMotion@2@I@Z 0000000180004dd0 f i OmniPvdPxSampler.obj
 0001:00003e10       ??0OmniPvdPxSampler@@QEAA@XZ 0000000180004e10 f   OmniPvdPxSampler.obj
 0001:00003f40       ??0OmniPvdSamplerInternals@@QEAA@XZ 0000000180004f40 f i OmniPvdPxSampler.obj
 0001:000041a0       ??1OmniPvdPxSampler@@QEAA@XZ 00000001800051a0 f   OmniPvdPxSampler.obj
 0001:00004360       ??4PxFPUGuard@physx@@QEAAAEAV01@AEBV01@@Z 0000000180005360 f i OmniPvdPxSampler.obj
 0001:00004380       ??1ActorCore@Sc@physx@@QEAA@XZ 0000000180005380 f i SimulationController_static_64:ScActorCore.obj
 0001:00004380       ??1ArticulationCore@Sc@physx@@QEAA@XZ 0000000180005380 f i SimulationController_static_64:ScArticulationCore.obj
 0001:00004380       ??1ArticulationJointCore@Sc@physx@@QEAA@XZ 0000000180005380 f i SimulationController_static_64:ScArticulationJointCore.obj
 0001:00004380       ??1BpFilter@Bp@physx@@QEAA@XZ 0000000180005380 f i LowLevelAABB_static_64:BpFiltering.obj
 0001:00004380       ??1ConstraintInteraction@Sc@physx@@QEAA@XZ 0000000180005380 f i SimulationController_static_64:ScConstraintInteraction.obj
 0001:00004380       ??1PxsContactManager@physx@@QEAA@XZ 0000000180005380 f i LowLevel_static_64:PxsContactManager.obj
 0001:00004380       ??1SapPairManager@Bp@physx@@QEAA@XZ 0000000180005380 f i LowLevelAABB_static_64:BpBroadPhaseSapAux.obj
 0001:00004380       ?PxcClearContactCacheStats@@YAXXZ 0000000180005380 f i LowLevel_static_64:PxcContactCache.obj
 0001:00004380       ?PxcDisplayContactCacheStats@@YAXXZ 0000000180005380 f i LowLevel_static_64:PxcContactCache.obj
 0001:00004380       ?__empty_global_delete@@YAXPEAX_K@Z 0000000180005380 f i OmniPvdPxSampler.obj
 0001:00004380       ?__global_delete@@YAXPEAX_K@Z 0000000180005380 f i OmniPvdPxSampler.obj
 0001:00004380       ?acquireContext@PxsNphaseImplementationContext@physx@@UEAAXXZ 0000000180005380 f i LowLevel_static_64:PxsNphaseImplementationContext.obj
 0001:00004380       ?activateCloth@PxsSimulationController@physx@@UEAAXPEAVFEMCloth@Dy@2@@Z 0000000180005380 f i SimulationController_static_64:ScScene.obj
 0001:00004380       ?activateHairSystem@PxsSimulationController@physx@@UEAAXPEAVHairSystem@Dy@2@@Z 0000000180005380 f i SimulationController_static_64:ScScene.obj
 0001:00004380       ?activateSoftbody@PxsSimulationController@physx@@UEAAXPEAVSoftBody@Dy@2@@Z 0000000180005380 f i SimulationController_static_64:ScScene.obj
 0001:00004380       ?activateSoftbodySelfCollision@PxsSimulationController@physx@@UEAAXPEAVSoftBody@Dy@2@@Z 0000000180005380 f i SimulationController_static_64:ScScene.obj
 0001:00004380       ?addArticulation@PxsSimulationController@physx@@UEAAXPEAVFeatherstoneArticulation@Dy@2@AEBVPxNodeIndex@2@@Z 0000000180005380 f i SimulationController_static_64:ScScene.obj
 0001:00004380       ?addClothFilter@NpSoftBody@physx@@UEAAXPEAVPxFEMCloth@2@II@Z 0000000180005380 f i NpSoftBody.obj
 0001:00004380       ?addClothFilter@PxsSimulationController@physx@@UEAAXPEAVFEMCloth@Dy@2@0II@Z 0000000180005380 f i SimulationController_static_64:ScScene.obj
 0001:00004380       ?addClothFilter@PxsSimulationController@physx@@UEAAXPEAVSoftBody@Dy@2@PEAVFEMCloth@42@II@Z 0000000180005380 f i SimulationController_static_64:ScScene.obj
 0001:00004380       ?addDynamic@PxsSimulationController@physx@@UEAAXPEAVPxsRigidBody@2@AEBVPxNodeIndex@2@@Z 0000000180005380 f i SimulationController_static_64:ScScene.obj
 0001:00004380       ?addDynamics@PxsSimulationController@physx@@UEAAXPEAPEAVPxsRigidBody@2@PEBII@Z 0000000180005380 f i SimulationController_static_64:ScScene.obj
 0001:00004380       ?addFEMCloth@PxsSimulationController@physx@@UEAAXPEAVFEMCloth@Dy@2@AEBVPxNodeIndex@2@@Z 0000000180005380 f i SimulationController_static_64:ScScene.obj
 0001:00004380       ?addHairSystem@PxsSimulationController@physx@@UEAAXPEAVHairSystem@Dy@2@AEBVPxNodeIndex@2@@Z 0000000180005380 f i SimulationController_static_64:ScScene.obj
 0001:00004380       ?addJoint@PxsSimulationController@physx@@UEAAXIPEAUConstraint@Dy@2@AEAVIslandSim@IG@2@AEAV?$PxArray@IV?$PxReflectionAllocator@I@physx@@@2@AEAV?$PxArray@UPxgSolverConstraintManagerConstants@physx@@VPxVirtualAllocator@2@@2@I@Z 0000000180005380 f i SimulationController_static_64:ScScene.obj
 0001:00004380       ?addParticleFilter@PxsSimulationController@physx@@UEAAXPEAVSoftBody@Dy@2@PEAVParticleSystem@42@III@Z 0000000180005380 f i SimulationController_static_64:ScScene.obj
 0001:00004380       ?addParticleSystem@PxsSimulationController@physx@@UEAAXPEAVParticleSystem@Dy@2@AEBVPxNodeIndex@2@W4Enum@PxParticleSolverType@2@@Z 0000000180005380 f i SimulationController_static_64:ScScene.obj
 0001:00004380       ?addRigidFilter@PxsSimulationController@physx@@UEAAXPEAVFEMCloth@Dy@2@AEBVPxNodeIndex@2@I@Z 0000000180005380 f i SimulationController_static_64:ScScene.obj
 0001:00004380       ?addRigidFilter@PxsSimulationController@physx@@UEAAXPEAVSoftBody@Dy@2@AEBVPxNodeIndex@2@1I@Z 0000000180005380 f i SimulationController_static_64:ScScene.obj
 0001:00004380       ?addShape@PxsSimulationController@physx@@UEAAXPEAUPxsShapeSim@2@I@Z 0000000180005380 f i SimulationController_static_64:ScScene.obj
 0001:00004380       ?addSoftBody@PxsSimulationController@physx@@UEAAXPEAVSoftBody@Dy@2@AEBVPxNodeIndex@2@@Z 0000000180005380 f i SimulationController_static_64:ScScene.obj
 0001:00004380       ?addSoftBodyFilter@PxsSimulationController@physx@@UEAAXPEAVSoftBody@Dy@2@0II@Z 0000000180005380 f i SimulationController_static_64:ScScene.obj
 0001:00004380       ?addSoftBodyFilters@PxsSimulationController@physx@@UEAAXPEAVSoftBody@Dy@2@0PEAI1I@Z 0000000180005380 f i SimulationController_static_64:ScScene.obj
 0001:00004380       ?addTetRigidFilter@PxsSimulationController@physx@@UEAAXPEAVSoftBody@Dy@2@AEBVPxNodeIndex@2@I@Z 0000000180005380 f i SimulationController_static_64:ScScene.obj
 0001:00004380       ?addTriRigidFilter@PxsSimulationController@physx@@UEAAXPEAVFEMCloth@Dy@2@AEBVPxNodeIndex@2@I@Z 0000000180005380 f i SimulationController_static_64:ScScene.obj
 0001:00004380       ?applyActorData@PxsSimulationController@physx@@UEAAXPEAXPEAUPxGpuActorPair@2@W4Enum@PxActorCacheFlag@2@I00@Z 0000000180005380 f i SimulationController_static_64:ScScene.obj
 0001:00004380       ?applyArticulationData@PxsSimulationController@physx@@UEAAXPEAX0W4Enum@PxArticulationGpuDataType@2@I00@Z 0000000180005380 f i SimulationController_static_64:ScScene.obj
 0001:00004380       ?applyParticleBufferData@PxsSimulationController@physx@@UEAAXPEBIPEBUPxGpuParticleBufferIndexPair@2@PEBV?$PxFlags@W4Enum@PxParticleBufferFlag@physx@@I@2@IPEAX3@Z 0000000180005380 f i SimulationController_static_64:ScScene.obj
 0001:00004380       ?applySoftBodyData@PxsSimulationController@physx@@UEAAXPEAPEAXPEAX1W4Enum@PxSoftBodyGpuDataFlag@2@II1@Z 0000000180005380 f i SimulationController_static_64:ScScene.obj
 0001:00004380       ?clear@PxsSimulationController@physx@@UEAAXXZ 0000000180005380 f i SimulationController_static_64:ScScene.obj
 0001:00004380       ?clearOutOfBoundsObjects@AABBManagerBase@Bp@physx@@UEAAXXZ 0000000180005380 f i LowLevelAABB_static_64:BpAABBManagerBase.obj
 0001:00004380       ?computeCoriolisAndCentrifugalForces@PxsSimulationController@physx@@UEAAXPEBUPxIndexDataPair@2@IPEAX@Z 0000000180005380 f i SimulationController_static_64:ScScene.obj
 0001:00004380       ?computeDenseJacobians@PxsSimulationController@physx@@UEAAXPEBUPxIndexDataPair@2@IPEAX@Z 0000000180005380 f i SimulationController_static_64:ScScene.obj
 0001:00004380       ?computeGeneralizedGravityForces@PxsSimulationController@physx@@UEAAXPEBUPxIndexDataPair@2@IAEBV?$PxVec3T@M@2@PEAX@Z 0000000180005380 f i SimulationController_static_64:ScScene.obj
 0001:00004380       ?computeGeneralizedMassMatrices@PxsSimulationController@physx@@UEAAXPEBUPxIndexDataPair@2@IPEAX@Z 0000000180005380 f i SimulationController_static_64:ScScene.obj
 0001:00004380       ?concludeContact@Dy@physx@@YAXAEBUPxSolverConstraintDesc@2@@Z 0000000180005380 f i LowLevelDynamics_static_64:DyTGSContactPrep.obj
 0001:00004380       ?copyArticulationData@PxsSimulationController@physx@@UEAAXPEAX0W4Enum@PxArticulationGpuDataType@2@I0@Z 0000000180005380 f i SimulationController_static_64:ScScene.obj
 0001:00004380       ?copyBodyData@PxsSimulationController@physx@@UEAAXPEAUPxGpuBodyData@2@PEAUPxGpuActorPair@2@IPEAX@Z 0000000180005380 f i SimulationController_static_64:ScScene.obj
 0001:00004380       ?copyContactData@PxsSimulationController@physx@@UEAAXPEAVContext@Dy@2@PEAXI11@Z 0000000180005380 f i SimulationController_static_64:ScScene.obj
 0001:00004380       ?copySoftBodyData@PxsSimulationController@physx@@UEAAXPEAPEAXPEAX1W4Enum@PxSoftBodyGpuDataFlag@2@II1@Z 0000000180005380 f i SimulationController_static_64:ScScene.obj
 0001:00004380       ?createPvdInstance@PvdSceneClient@Vd@physx@@QEAAXPEBV?$MaterialCoreT@UPxsPBDMaterialData@physx@@VPxPBDMaterial@2@@3@@Z 0000000180005380 f i NpPvdSceneClient.obj
 0001:00004380       ?createPvdInstance@PvdSceneClient@Vd@physx@@QEAAXPEBVNpArticulationFixedTendon@3@@Z 0000000180005380 f i NpPvdSceneClient.obj
 0001:00004380       ?createPvdInstance@PvdSceneClient@Vd@physx@@QEAAXPEBVNpArticulationJointReducedCoordinate@3@@Z 0000000180005380 f i NpPvdSceneClient.obj
 0001:00004380       ?createPvdInstance@PvdSceneClient@Vd@physx@@QEAAXPEBVNpArticulationSensor@3@@Z 0000000180005380 f i NpPvdSceneClient.obj
 0001:00004380       ?createPvdInstance@PvdSceneClient@Vd@physx@@QEAAXPEBVNpArticulationSpatialTendon@3@@Z 0000000180005380 f i NpPvdSceneClient.obj
 0001:00004380       ?createPvdInstance@PvdSceneClient@Vd@physx@@QEAAXPEBVNpPBDParticleSystem@3@@Z 0000000180005380 f i NpPvdSceneClient.obj
 0001:00004380       ?createPvdInstance@PvdSceneClient@Vd@physx@@QEAAXPEBVNpSoftBody@3@@Z 0000000180005380 f i NpPvdSceneClient.obj
 0001:00004380       ?deactivateCloth@PxsSimulationController@physx@@UEAAXPEAVFEMCloth@Dy@2@@Z 0000000180005380 f i SimulationController_static_64:ScScene.obj
 0001:00004380       ?deactivateHairSystem@PxsSimulationController@physx@@UEAAXPEAVHairSystem@Dy@2@@Z 0000000180005380 f i SimulationController_static_64:ScScene.obj
 0001:00004380       ?deactivateSoftbody@PxsSimulationController@physx@@UEAAXPEAVSoftBody@Dy@2@@Z 0000000180005380 f i SimulationController_static_64:ScScene.obj
 0001:00004380       ?deactivateSoftbodySelfCollision@PxsSimulationController@physx@@UEAAXPEAVSoftBody@Dy@2@@Z 0000000180005380 f i SimulationController_static_64:ScScene.obj
 0001:00004380       ?destroyInstance@PvdMetaDataBinding@Vd@physx@@QEAAXAEAVPvdDataStream@pvdsdk@3@AEBVPxFEMSoftBodyMaterial@3@AEBVPxPhysics@3@@Z 0000000180005380 f i PvdMetaDataPvdBinding.obj
 0001:00004380       ?destroyInstance@PvdMetaDataBinding@Vd@physx@@QEAAXAEAVPvdDataStream@pvdsdk@3@AEBVPxPBDParticleSystem@3@AEBVPxScene@3@@Z 0000000180005380 f i PvdMetaDataPvdBinding.obj
 0001:00004380       ?destroyInstance@PvdMetaDataBinding@Vd@physx@@QEAAXAEAVPvdDataStream@pvdsdk@3@AEBVPxSoftBody@3@AEBVPxScene@3@@Z 0000000180005380 f i PvdMetaDataPvdBinding.obj
 0001:00004380       ?evaluateSDFDistances@PxsSimulationController@physx@@UEAAXPEBIIPEBV?$PxVec4T@M@2@0IPEAV32@PEAX@Z 0000000180005380 f i SimulationController_static_64:ScScene.obj
 0001:00004380       ?exportData@?$NpParticleSystem@VPxPBDParticleSystem@physx@@@physx@@UEBAXAEAVPxSerializationContext@2@@Z 0000000180005380 f i NpParticleSystem.obj
 0001:00004380       ?exportExtraData@?$PxSerializerDefaultAdapter@VNpArticulationJointReducedCoordinate@physx@@@physx@@UEBAXAEAVPxBase@2@AEAVPxSerializationContext@2@@Z 0000000180005380 f i NpSerializerAdapter.obj
 0001:00004380       ?exportExtraData@?$PxSerializerDefaultAdapter@VNpConstraint@physx@@@physx@@UEBAXAEAVPxBase@2@AEAVPxSerializationContext@2@@Z 0000000180005380 f i NpSerializerAdapter.obj
 0001:00004380       ?exportExtraData@?$PxSerializerDefaultAdapter@VNpMaterial@physx@@@physx@@UEBAXAEAVPxBase@2@AEAVPxSerializationContext@2@@Z 0000000180005380 f i NpSerializerAdapter.obj
 0001:00004380       ?exportExtraData@NpArticulationSensor@physx@@UEAAXAEAVPxSerializationContext@2@@Z 0000000180005380 f i NpArticulationSensor.obj
 0001:00004380       ?fetchBroadPhaseResults@BroadPhaseABP@Bp@physx@@UEAAXXZ 0000000180005380 f i LowLevelAABB_static_64:BpBroadPhaseABP.obj
 0001:00004380       ?fetchBroadPhaseResults@BroadPhaseMBP@Bp@physx@@UEAAXXZ 0000000180005380 f i LowLevelAABB_static_64:BpBroadPhaseMBP.obj
 0001:00004380       ?fetchBroadPhaseResults@BroadPhaseSap@Bp@physx@@UEAAXXZ 0000000180005380 f i LowLevelAABB_static_64:BpBroadPhaseSap.obj
 0001:00004380       ?fetchUpdateContactManager@PxsNphaseImplementationContext@physx@@UEAAXXZ 0000000180005380 f i LowLevel_static_64:PxsNphaseImplementationContext.obj
 0001:00004380       ?finalizeQuery@?$PxHitCallback@UPxOverlapHit@physx@@@physx@@UEAAXXZ 0000000180005380 f i SceneQuery_static_64:SqQuery.obj
 0001:00004380       ?finalizeQuery@?$PxHitCallback@UPxRaycastHit@physx@@@physx@@UEAAXXZ 0000000180005380 f i SceneQuery_static_64:SqQuery.obj
 0001:00004380       ?finalizeQuery@?$PxHitCallback@UPxSweepHit@physx@@@physx@@UEAAXXZ 0000000180005380 f i SceneQuery_static_64:SqQuery.obj
 0001:00004380       ?flush@PvdPhysicsClient@Vd@physx@@UEAAXXZ 0000000180005380 f i PvdPhysicsClient.obj
 0001:00004380       ?flush@PvdSceneClient@Vd@physx@@UEAAXXZ 0000000180005380 f i NpPvdSceneClient.obj
 0001:00004380       ?flush@PxsSimulationController@physx@@UEAAXXZ 0000000180005380 f i SimulationController_static_64:ScScene.obj
 0001:00004380       ?flushInsertions@PxsSimulationController@physx@@UEAAXXZ 0000000180005380 f i SimulationController_static_64:ScScene.obj
 0001:00004380       ?getDataStreamBase@Context@Dy@physx@@UEAAXAEAPEAX00@Z 0000000180005380 f i LowLevelDynamics_static_64:DyTGSDynamics.obj
 0001:00004380       ?gpuDmabackData@PxsSimulationController@physx@@UEAAXAEAVPxsTransformCache@2@AEAVBoundsArray@Bp@2@AEAV?$PxBitMapBase@VPxVirtualAllocator@physx@@@2@_N@Z 0000000180005380 f i SimulationController_static_64:ScScene.obj
 0001:00004380       ?internalWakeUp@ActorSim@Sc@physx@@UEAAXM@Z 0000000180005380 f i SimulationController_static_64:ScScene.obj
 0001:00004380       ?mergeChangedAABBMgHandle@PxsSimulationController@physx@@UEAAXI_N@Z 0000000180005380 f i SimulationController_static_64:ScScene.obj
 0001:00004380       ?mergeResults@DynamicsTGSContext@Dy@physx@@UEAAXXZ 0000000180005380 f i LowLevelDynamics_static_64:DyTGSDynamics.obj
 0001:00004380       ?onMeshFactoryBufferRelease@OmniPvdListener@NpPhysics@physx@@UEAAXPEBVPxBase@3@G@Z 0000000180005380 f i NpPhysics.obj
 0001:00004380       ?onObjectAdd@MeshFactoryListener@Gu@physx@@UEAAXPEBVPxBase@3@@Z 0000000180005380 f i PvdPhysicsClient.obj
 0001:00004380       ?onObjectRemove@MeshFactoryListener@Gu@physx@@UEAAXPEBVPxBase@3@@Z 0000000180005380 f i PvdPhysicsClient.obj
 0001:00004380       ?postActorFlagChange@ActorSim@Sc@physx@@UEAAXII@Z 0000000180005380 f i SimulationController_static_64:ScScene.obj
 0001:00004380       ?postBroadPhaseUpdateContactManager@PxsNphaseImplementationContext@physx@@UEAAXPEAVPxBaseTask@2@@Z 0000000180005380 f i LowLevel_static_64:PxsNphaseImplementationContext.obj
 0001:00004380       ?preBroadPhase@BroadPhaseABP@Bp@physx@@UEAAXAEBVBroadPhaseUpdateData@23@@Z 0000000180005380 f i LowLevelAABB_static_64:BpBroadPhaseABP.obj
 0001:00004380       ?preBroadPhase@BroadPhaseMBP@Bp@physx@@UEAAXAEBVBroadPhaseUpdateData@23@@Z 0000000180005380 f i LowLevelAABB_static_64:BpBroadPhaseMBP.obj
 0001:00004380       ?preBroadPhase@BroadPhaseSap@Bp@physx@@UEAAXAEBVBroadPhaseUpdateData@23@@Z 0000000180005380 f i LowLevelAABB_static_64:BpBroadPhaseSap.obj
 0001:00004380       ?preExportDataReset@NpShapeManager@physx@@QEAAXXZ 0000000180005380 f i NpShapeManager.obj
 0001:00004380       ?preIntegrateAndUpdateBound@PxsSimulationController@physx@@UEAAXPEAVPxBaseTask@2@V?$PxVec3T@M@2@M@Z 0000000180005380 f i SimulationController_static_64:ScScene.obj
 0001:00004380       ?preallocateNewBuffers@PxsNphaseImplementationContext@physx@@UEAAXII@Z 0000000180005380 f i LowLevel_static_64:PxsNphaseImplementationContext.obj
 0001:00004380       ?processFoundPatches@Context@Dy@physx@@UEAAXAEAVSimpleIslandManager@IG@3@PEAPEAVPxsContactManager@3@IPEAUPxsContactManagerOutputCounts@3@@Z 0000000180005380 f i LowLevelDynamics_static_64:DyTGSDynamics.obj
 0001:00004380       ?processLostPatches@Context@Dy@physx@@UEAAXAEAVSimpleIslandManager@IG@3@PEAPEAVPxsContactManager@3@IPEAUPxsContactManagerOutputCounts@3@@Z 0000000180005380 f i LowLevelDynamics_static_64:DyTGSDynamics.obj
 0001:00004380       ?registerAggregate@PxsNphaseImplementationContext@physx@@UEAAXI@Z 0000000180005380 f i LowLevel_static_64:PxsNphaseImplementationContext.obj
 0001:00004380       ?registerCountedInteraction@ActorSim@Sc@physx@@UEAAXXZ 0000000180005380 f i SimulationController_static_64:ScScene.obj
 0001:00004380       ?registerMaterial@PxsNphaseImplementationContext@physx@@UEAAXAEBV?$MaterialCoreT@UPxsFEMClothMaterialData@physx@@VPxFEMClothMaterial@2@@2@@Z 0000000180005380 f i LowLevel_static_64:PxsNphaseImplementationContext.obj
 0001:00004380       ?registerMaterial@PxsNphaseImplementationContext@physx@@UEAAXAEBV?$MaterialCoreT@UPxsFEMSoftBodyMaterialData@physx@@VPxFEMSoftBodyMaterial@2@@2@@Z 0000000180005380 f i LowLevel_static_64:PxsNphaseImplementationContext.obj
 0001:00004380       ?registerMaterial@PxsNphaseImplementationContext@physx@@UEAAXAEBV?$MaterialCoreT@UPxsFLIPMaterialData@physx@@VPxFLIPMaterial@2@@2@@Z 0000000180005380 f i LowLevel_static_64:PxsNphaseImplementationContext.obj
 0001:00004380       ?registerMaterial@PxsNphaseImplementationContext@physx@@UEAAXAEBV?$MaterialCoreT@UPxsMPMMaterialData@physx@@VPxMPMMaterial@2@@2@@Z 0000000180005380 f i LowLevel_static_64:PxsNphaseImplementationContext.obj
 0001:00004380       ?registerMaterial@PxsNphaseImplementationContext@physx@@UEAAXAEBV?$MaterialCoreT@UPxsMaterialData@physx@@VPxMaterial@2@@2@@Z 0000000180005380 f i LowLevel_static_64:PxsNphaseImplementationContext.obj
 0001:00004380       ?registerMaterial@PxsNphaseImplementationContext@physx@@UEAAXAEBV?$MaterialCoreT@UPxsPBDMaterialData@physx@@VPxPBDMaterial@2@@2@@Z 0000000180005380 f i LowLevel_static_64:PxsNphaseImplementationContext.obj
 0001:00004380       ?registerShape@PxsNphaseImplementationContext@physx@@UEAAXAEBVPxNodeIndex@2@AEBUPxsShapeCore@2@IPEAVPxActor@2@_N@Z 0000000180005380 f i LowLevel_static_64:PxsNphaseImplementationContext.obj
 0001:00004380       ?reinsertShape@PxsSimulationController@physx@@UEAAXPEAUPxsShapeSim@2@I@Z 0000000180005380 f i SimulationController_static_64:ScScene.obj
 0001:00004380       ?releaseArticulation@PxsSimulationController@physx@@UEAAXPEAVFeatherstoneArticulation@Dy@2@AEBVPxNodeIndex@2@@Z 0000000180005380 f i SimulationController_static_64:ScScene.obj
 0001:00004380       ?releaseContext@PxsNphaseImplementationContext@physx@@UEAAXXZ 0000000180005380 f i LowLevel_static_64:PxsNphaseImplementationContext.obj
 0001:00004380       ?releaseDeferredAggregateIds@AABBManager@Bp@physx@@UEAAXXZ 0000000180005380 f i LowLevelAABB_static_64:BpAABBManager.obj
 0001:00004380       ?releaseDeferredArticulationIds@PxsSimulationController@physx@@UEAAXXZ 0000000180005380 f i SimulationController_static_64:ScScene.obj
 0001:00004380       ?releaseDeferredFEMClothIds@PxsSimulationController@physx@@UEAAXXZ 0000000180005380 f i SimulationController_static_64:ScScene.obj
 0001:00004380       ?releaseDeferredHairSystemIds@PxsSimulationController@physx@@UEAAXXZ 0000000180005380 f i SimulationController_static_64:ScScene.obj
 0001:00004380       ?releaseDeferredParticleSystemIds@PxsSimulationController@physx@@UEAAXXZ 0000000180005380 f i SimulationController_static_64:ScScene.obj
 0001:00004380       ?releaseDeferredSoftBodyIds@PxsSimulationController@physx@@UEAAXXZ 0000000180005380 f i SimulationController_static_64:ScScene.obj
 0001:00004380       ?releaseFEMCloth@PxsSimulationController@physx@@UEAAXPEAVFEMCloth@Dy@2@@Z 0000000180005380 f i SimulationController_static_64:ScScene.obj
 0001:00004380       ?releaseHairSystem@PxsSimulationController@physx@@UEAAXPEAVHairSystem@Dy@2@@Z 0000000180005380 f i SimulationController_static_64:ScScene.obj
 0001:00004380       ?releaseParticleSystem@PxsSimulationController@physx@@UEAAXPEAVParticleSystem@Dy@2@W4Enum@PxParticleSolverType@2@@Z 0000000180005380 f i SimulationController_static_64:ScScene.obj
 0001:00004380       ?releasePvdInstance@PvdSceneClient@Vd@physx@@QEAAXPEBV?$MaterialCoreT@UPxsPBDMaterialData@physx@@VPxPBDMaterial@2@@3@@Z 0000000180005380 f i NpPvdSceneClient.obj
 0001:00004380       ?releasePvdInstance@PvdSceneClient@Vd@physx@@QEAAXPEBVNpArticulationFixedTendon@3@@Z 0000000180005380 f i NpPvdSceneClient.obj
 0001:00004380       ?releasePvdInstance@PvdSceneClient@Vd@physx@@QEAAXPEBVNpArticulationJointReducedCoordinate@3@@Z 0000000180005380 f i NpPvdSceneClient.obj
 0001:00004380       ?releasePvdInstance@PvdSceneClient@Vd@physx@@QEAAXPEBVNpArticulationSensor@3@@Z 0000000180005380 f i NpPvdSceneClient.obj
 0001:00004380       ?releasePvdInstance@PvdSceneClient@Vd@physx@@QEAAXPEBVNpArticulationSpatialTendon@3@@Z 0000000180005380 f i NpPvdSceneClient.obj
 0001:00004380       ?releasePvdInstance@PvdSceneClient@Vd@physx@@QEAAXPEBVNpPBDParticleSystem@3@@Z 0000000180005380 f i NpPvdSceneClient.obj
 0001:00004380       ?releasePvdInstance@PvdSceneClient@Vd@physx@@QEAAXPEBVNpSoftBody@3@@Z 0000000180005380 f i NpPvdSceneClient.obj
 0001:00004380       ?releaseSoftBody@PxsSimulationController@physx@@UEAAXPEAVSoftBody@Dy@2@@Z 0000000180005380 f i SimulationController_static_64:ScScene.obj
 0001:00004380       ?removeClothAttachment@NpSoftBody@physx@@UEAAXPEAVPxFEMCloth@2@I@Z 0000000180005380 f i NpSoftBody.obj
 0001:00004380       ?removeClothAttachment@PxsSimulationController@physx@@UEAAXPEAVSoftBody@Dy@2@I@Z 0000000180005380 f i SimulationController_static_64:ScScene.obj
 0001:00004380       ?removeClothFilter@NpSoftBody@physx@@UEAAXPEAVPxFEMCloth@2@II@Z 0000000180005380 f i NpSoftBody.obj
 0001:00004380       ?removeClothFilter@PxsSimulationController@physx@@UEAAXPEAVFEMCloth@Dy@2@0II@Z 0000000180005380 f i SimulationController_static_64:ScScene.obj
 0001:00004380       ?removeClothFilter@PxsSimulationController@physx@@UEAAXPEAVSoftBody@Dy@2@PEAVFEMCloth@42@II@Z 0000000180005380 f i SimulationController_static_64:ScScene.obj
 0001:00004380       ?removeJoint@PxsSimulationController@physx@@UEAAXIPEAUConstraint@Dy@2@AEAV?$PxArray@IV?$PxReflectionAllocator@I@physx@@@2@AEAVIslandSim@IG@2@@Z 0000000180005380 f i SimulationController_static_64:ScScene.obj
 0001:00004380       ?removeParticleAttachment@PxsSimulationController@physx@@UEAAXPEAVSoftBody@Dy@2@I@Z 0000000180005380 f i SimulationController_static_64:ScScene.obj
 0001:00004380       ?removeParticleFilter@PxsSimulationController@physx@@UEAAXPEAVSoftBody@Dy@2@PEBVParticleSystem@42@III@Z 0000000180005380 f i SimulationController_static_64:ScScene.obj
 0001:00004380       ?removeRigidAttachment@PxsSimulationController@physx@@UEAAXPEAVFEMCloth@Dy@2@I@Z 0000000180005380 f i SimulationController_static_64:ScScene.obj
 0001:00004380       ?removeRigidAttachment@PxsSimulationController@physx@@UEAAXPEAVSoftBody@Dy@2@I@Z 0000000180005380 f i SimulationController_static_64:ScScene.obj
 0001:00004380       ?removeRigidFilter@PxsSimulationController@physx@@UEAAXPEAVFEMCloth@Dy@2@AEBVPxNodeIndex@2@I@Z 0000000180005380 f i SimulationController_static_64:ScScene.obj
 0001:00004380       ?removeRigidFilter@PxsSimulationController@physx@@UEAAXPEAVSoftBody@Dy@2@AEBVPxNodeIndex@2@I@Z 0000000180005380 f i SimulationController_static_64:ScScene.obj
 0001:00004380       ?removeShape@PxsSimulationController@physx@@UEAAXI@Z 0000000180005380 f i SimulationController_static_64:ScScene.obj
 0001:00004380       ?removeSoftBodyAttachment@PxsSimulationController@physx@@UEAAXPEAVSoftBody@Dy@2@I@Z 0000000180005380 f i SimulationController_static_64:ScScene.obj
 0001:00004380       ?removeSoftBodyFilter@PxsSimulationController@physx@@UEAAXPEAVSoftBody@Dy@2@0II@Z 0000000180005380 f i SimulationController_static_64:ScScene.obj
 0001:00004380       ?removeSoftBodyFilters@PxsSimulationController@physx@@UEAAXPEAVSoftBody@Dy@2@0PEAI1I@Z 0000000180005380 f i SimulationController_static_64:ScScene.obj
 0001:00004380       ?removeTetRigidFilter@PxsSimulationController@physx@@UEAAXPEAVSoftBody@Dy@2@AEBVPxNodeIndex@2@I@Z 0000000180005380 f i SimulationController_static_64:ScScene.obj
 0001:00004380       ?removeTriClothAttachment@PxsSimulationController@physx@@UEAAXPEAVFEMCloth@Dy@2@I@Z 0000000180005380 f i SimulationController_static_64:ScScene.obj
 0001:00004380       ?removeTriRigidAttachment@PxsSimulationController@physx@@UEAAXPEAVFEMCloth@Dy@2@I@Z 0000000180005380 f i SimulationController_static_64:ScScene.obj
 0001:00004380       ?removeTriRigidFilter@PxsSimulationController@physx@@UEAAXPEAVFEMCloth@Dy@2@AEBVPxNodeIndex@2@I@Z 0000000180005380 f i SimulationController_static_64:ScScene.obj
 0001:00004380       ?requiresObjects@NpArticulationJointReducedCoordinate@physx@@UEAAXAEAVPxProcessPxBaseCallback@2@@Z 0000000180005380 f i NpArticulationJointReducedCoordinate.obj
 0001:00004380       ?requiresObjects@NpArticulationSensor@physx@@UEAAXAEAVPxProcessPxBaseCallback@2@@Z 0000000180005380 f i NpArticulationSensor.obj
 0001:00004380       ?requiresObjects@NpConstraint@physx@@UEAAXAEAVPxProcessPxBaseCallback@2@@Z 0000000180005380 f i NpConstraint.obj
 0001:00004380       ?requiresObjects@NpFEMSoftBodyMaterial@physx@@UEAAXAEAVPxProcessPxBaseCallback@2@@Z 0000000180005380 f i NpFEMSoftBodyMaterial.obj
 0001:00004380       ?requiresObjects@NpMaterial@physx@@UEAAXAEAVPxProcessPxBaseCallback@2@@Z 0000000180005380 f i NpMaterial.obj
 0001:00004380       ?requiresObjects@NpPBDMaterial@physx@@UEAAXAEAVPxProcessPxBaseCallback@2@@Z 0000000180005380 f i NpPBDMaterial.obj
 0001:00004380       ?reserve@PxsSimulationController@physx@@UEAAXI@Z 0000000180005380 f i SimulationController_static_64:ScScene.obj
 0001:00004380       ?run@PvdCommand@PvdInstanceDataStream@pvdsdk@physx@@UEAAXAEAV234@@Z 0000000180005380 f i PvdMetaDataPvdBinding.obj
 0001:00004380       ?runInternal@FanoutTask@Cm@physx@@UEAAXXZ 0000000180005380 f i SimulationController_static_64:ScScene.obj
 0001:00004380       ?runInternal@SceneCompletion@NpScene@physx@@UEAAXXZ 0000000180005380 f i NpScene.obj
 0001:00004380       ?sendAllProperties@PvdMetaDataBinding@Vd@physx@@QEAAXAEAVPvdDataStream@pvdsdk@3@AEBVPxFEMSoftBodyMaterial@3@@Z 0000000180005380 f i PvdMetaDataPvdBinding.obj
 0001:00004380       ?sendAllProperties@PvdMetaDataBinding@Vd@physx@@QEAAXAEAVPvdDataStream@pvdsdk@3@AEBVPxPBDParticleSystem@3@@Z 0000000180005380 f i PvdMetaDataPvdBinding.obj
 0001:00004380       ?sendAllProperties@PvdMetaDataBinding@Vd@physx@@QEAAXAEAVPvdDataStream@pvdsdk@3@AEBVPxSoftBody@3@@Z 0000000180005380 f i PvdMetaDataPvdBinding.obj
 0001:00004380       ?serialize@EndPropertyMessageGroup@pvdsdk@physx@@UEAAXAEAVPvdEventSerializer@23@@Z 0000000180005380 f i PhysXPvdSDK_static_64:PxPvdDataStream.obj
 0001:00004380       ?serialize@EndSetPropertyValue@pvdsdk@physx@@UEAAXAEAVPvdEventSerializer@23@@Z 0000000180005380 f i PhysXPvdSDK_static_64:PxPvdDataStream.obj
 0001:00004380       ?setBounds@PxsSimulationController@physx@@UEAAXPEAVBoundsArray@Bp@2@@Z 0000000180005380 f i SimulationController_static_64:ScScene.obj
 0001:00004380       ?setClothMaterials@NpShape@physx@@UEAAXPEBQEAVPxFEMClothMaterial@2@G@Z 0000000180005380 f i NpShape.obj
 0001:00004380       ?setClothWakeCounter@PxsSimulationController@physx@@UEAAXPEAVFEMCloth@Dy@2@@Z 0000000180005380 f i SimulationController_static_64:ScScene.obj
 0001:00004380       ?setGPUStateChanged@AABBManagerBase@Bp@physx@@UEAAXXZ 0000000180005380 f i LowLevelAABB_static_64:BpAABBManagerBase.obj
 0001:00004380       ?setGlobalPose@NpArticulationLink@physx@@UEAAXAEBV?$PxTransformT@M@2@_N@Z 0000000180005380 f i NpArticulationLink.obj
 0001:00004380       ?setHairSystemWakeCounter@PxsSimulationController@physx@@UEAAXPEAVHairSystem@Dy@2@@Z 0000000180005380 f i SimulationController_static_64:ScScene.obj
 0001:00004380       ?setPersistentStateChanged@AABBManagerBase@Bp@physx@@UEAAXXZ 0000000180005380 f i LowLevelAABB_static_64:BpAABBManagerBase.obj
 0001:00004380       ?setSoftBodyWakeCounter@PxsSimulationController@physx@@UEAAXPEAVSoftBody@Dy@2@@Z 0000000180005380 f i SimulationController_static_64:ScScene.obj
 0001:00004380       ?shiftOrigin@BroadPhaseABP@Bp@physx@@UEAAXAEBV?$PxVec3T@M@3@PEBVPxBounds3@3@PEBM@Z 0000000180005380 f i LowLevelAABB_static_64:BpBroadPhaseABP.obj
 0001:00004380       ?sortContacts@PxsSimulationController@physx@@UEAAXXZ 0000000180005380 f i SimulationController_static_64:ScScene.obj
 0001:00004380       ?startNarrowPhaseTasks@PxsNphaseImplementationContext@physx@@UEAAXXZ 0000000180005380 f i LowLevel_static_64:PxsNphaseImplementationContext.obj
 0001:00004380       ?stopSimulation@PxTaskMgr@physx@@UEAAXXZ 0000000180005380 f i PhysXTask_static_64:TaskManager.obj
 0001:00004380       ?streamShapeMaterials@@YAXPEAVPxShape@physx@@PEBQEAVPxFEMSoftBodyMaterial@2@I@Z 0000000180005380 f i OmniPvdPxSampler.obj
 0001:00004380       ?switchFromNoSim@?$NpRigidActorTemplate@VPxArticulationLink@physx@@@physx@@UEAAXXZ 0000000180005380 f i NpArticulationLink.obj
 0001:00004380       ?switchFromNoSim@?$NpRigidActorTemplate@VPxRigidDynamic@physx@@@physx@@UEAAXXZ 0000000180005380 f i NpRigidDynamic.obj
 0001:00004380       ?switchFromNoSim@?$NpRigidActorTemplate@VPxRigidStatic@physx@@@physx@@UEAAXXZ 0000000180005380 f i NpRigidStatic.obj
 0001:00004380       ?switchToNoSim@?$NpRigidActorTemplate@VPxArticulationLink@physx@@@physx@@UEAAXXZ 0000000180005380 f i NpArticulationLink.obj
 0001:00004380       ?switchToNoSim@?$NpRigidActorTemplate@VPxRigidDynamic@physx@@@physx@@UEAAXXZ 0000000180005380 f i NpRigidDynamic.obj
 0001:00004380       ?switchToNoSim@?$NpRigidActorTemplate@VPxRigidStatic@physx@@@physx@@UEAAXXZ 0000000180005380 f i NpRigidStatic.obj
 0001:00004380       ?syncParticleData@PxsSimulationController@physx@@UEAAXXZ 0000000180005380 f i SimulationController_static_64:ScScene.obj
 0001:00004380       ?unregisterCountedInteraction@ActorSim@Sc@physx@@UEAAXXZ 0000000180005380 f i SimulationController_static_64:ScScene.obj
 0001:00004380       ?unregisterMaterial@PxsNphaseImplementationContext@physx@@UEAAXAEBV?$MaterialCoreT@UPxsFEMClothMaterialData@physx@@VPxFEMClothMaterial@2@@2@@Z 0000000180005380 f i LowLevel_static_64:PxsNphaseImplementationContext.obj
 0001:00004380       ?unregisterMaterial@PxsNphaseImplementationContext@physx@@UEAAXAEBV?$MaterialCoreT@UPxsFEMSoftBodyMaterialData@physx@@VPxFEMSoftBodyMaterial@2@@2@@Z 0000000180005380 f i LowLevel_static_64:PxsNphaseImplementationContext.obj
 0001:00004380       ?unregisterMaterial@PxsNphaseImplementationContext@physx@@UEAAXAEBV?$MaterialCoreT@UPxsFLIPMaterialData@physx@@VPxFLIPMaterial@2@@2@@Z 0000000180005380 f i LowLevel_static_64:PxsNphaseImplementationContext.obj
 0001:00004380       ?unregisterMaterial@PxsNphaseImplementationContext@physx@@UEAAXAEBV?$MaterialCoreT@UPxsMPMMaterialData@physx@@VPxMPMMaterial@2@@2@@Z 0000000180005380 f i LowLevel_static_64:PxsNphaseImplementationContext.obj
 0001:00004380       ?unregisterMaterial@PxsNphaseImplementationContext@physx@@UEAAXAEBV?$MaterialCoreT@UPxsMaterialData@physx@@VPxMaterial@2@@2@@Z 0000000180005380 f i LowLevel_static_64:PxsNphaseImplementationContext.obj
 0001:00004380       ?unregisterMaterial@PxsNphaseImplementationContext@physx@@UEAAXAEBV?$MaterialCoreT@UPxsPBDMaterialData@physx@@VPxPBDMaterial@2@@2@@Z 0000000180005380 f i LowLevel_static_64:PxsNphaseImplementationContext.obj
 0001:00004380       ?unregisterShape@PxsNphaseImplementationContext@physx@@UEAAXAEBUPxsShapeCore@2@I_N@Z 0000000180005380 f i LowLevel_static_64:PxsNphaseImplementationContext.obj
 0001:00004380       ?update@PxsSimulationController@physx@@UEAAXAEAV?$PxBitMapBase@VPxVirtualAllocator@physx@@@2@@Z 0000000180005380 f i SimulationController_static_64:ScScene.obj
 0001:00004380       ?updateArticulation@PxsSimulationController@physx@@UEAAXPEAVFeatherstoneArticulation@Dy@2@AEBVPxNodeIndex@2@@Z 0000000180005380 f i SimulationController_static_64:ScScene.obj
 0001:00004380       ?updateArticulationAfterIntegration@PxsSimulationController@physx@@UEAAXPEAVPxsContext@2@PEAVAABBManagerBase@Bp@2@AEAV?$PxArray@PEAVBodySim@Sc@physx@@V?$PxReflectionAllocator@PEAVBodySim@Sc@physx@@@3@@2@PEAVPxBaseTask@2@AEAVIslandSim@IG@2@M@Z 0000000180005380 f i SimulationController_static_64:ScScene.obj
 0001:00004380       ?updateArticulationExtAccel@PxsSimulationController@physx@@UEAAXPEAVFeatherstoneArticulation@Dy@2@AEBVPxNodeIndex@2@@Z 0000000180005380 f i SimulationController_static_64:ScScene.obj
 0001:00004380       ?updateArticulationJoint@PxsSimulationController@physx@@UEAAXPEAVFeatherstoneArticulation@Dy@2@AEBVPxNodeIndex@2@@Z 0000000180005380 f i SimulationController_static_64:ScScene.obj
 0001:00004380       ?updateBodies@PxsSimulationController@physx@@UEAAXPEAPEAVPxsRigidBody@2@PEAII@Z 0000000180005380 f i SimulationController_static_64:ScScene.obj
 0001:00004380       ?updateBodies@PxsSimulationController@physx@@UEAAXPEAVPxBaseTask@2@@Z 0000000180005380 f i SimulationController_static_64:ScScene.obj
 0001:00004380       ?updateBodyCore@Context@Dy@physx@@UEAAXPEAVPxBaseTask@3@@Z 0000000180005380 f i LowLevelDynamics_static_64:DyTGSDynamics.obj
 0001:00004380       ?updateBoundsAndShapes@PxsSimulationController@physx@@UEAAXAEAVAABBManagerBase@Bp@2@_N1@Z 0000000180005380 f i SimulationController_static_64:ScScene.obj
 0001:00004380       ?updateDynamic@PxsSimulationController@physx@@UEAAXPEAVFeatherstoneArticulation@Dy@2@AEBVPxNodeIndex@2@@Z 0000000180005380 f i SimulationController_static_64:ScScene.obj
 0001:00004380       ?updateJoint@PxsSimulationController@physx@@UEAAXIPEAUConstraint@Dy@2@@Z 0000000180005380 f i SimulationController_static_64:ScScene.obj
 0001:00004380       ?updateMaterial@PxsNphaseImplementationContext@physx@@UEAAXAEBV?$MaterialCoreT@UPxsFEMClothMaterialData@physx@@VPxFEMClothMaterial@2@@2@@Z 0000000180005380 f i LowLevel_static_64:PxsNphaseImplementationContext.obj
 0001:00004380       ?updateMaterial@PxsNphaseImplementationContext@physx@@UEAAXAEBV?$MaterialCoreT@UPxsFEMSoftBodyMaterialData@physx@@VPxFEMSoftBodyMaterial@2@@2@@Z 0000000180005380 f i LowLevel_static_64:PxsNphaseImplementationContext.obj
 0001:00004380       ?updateMaterial@PxsNphaseImplementationContext@physx@@UEAAXAEBV?$MaterialCoreT@UPxsFLIPMaterialData@physx@@VPxFLIPMaterial@2@@2@@Z 0000000180005380 f i LowLevel_static_64:PxsNphaseImplementationContext.obj
 0001:00004380       ?updateMaterial@PxsNphaseImplementationContext@physx@@UEAAXAEBV?$MaterialCoreT@UPxsMPMMaterialData@physx@@VPxMPMMaterial@2@@2@@Z 0000000180005380 f i LowLevel_static_64:PxsNphaseImplementationContext.obj
 0001:00004380       ?updateMaterial@PxsNphaseImplementationContext@physx@@UEAAXAEBV?$MaterialCoreT@UPxsMaterialData@physx@@VPxMaterial@2@@2@@Z 0000000180005380 f i LowLevel_static_64:PxsNphaseImplementationContext.obj
 0001:00004380       ?updateMaterial@PxsNphaseImplementationContext@physx@@UEAAXAEBV?$MaterialCoreT@UPxsPBDMaterialData@physx@@VPxPBDMaterial@2@@2@@Z 0000000180005380 f i LowLevel_static_64:PxsNphaseImplementationContext.obj
 0001:00004380       ?updateParticleSystemsAndSoftBodies@PxsSimulationController@physx@@UEAAXXZ 0000000180005380 f i SimulationController_static_64:ScScene.obj
 0001:00004380       ?updatePvdProperties@PvdSceneClient@Vd@physx@@QEAAXPEBV?$MaterialCoreT@UPxsPBDMaterialData@physx@@VPxPBDMaterial@2@@3@@Z 0000000180005380 f i NpPvdSceneClient.obj
 0001:00004380       ?updatePvdProperties@PvdSceneClient@Vd@physx@@QEAAXPEBVNpArticulationFixedTendon@3@@Z 0000000180005380 f i NpPvdSceneClient.obj
 0001:00004380       ?updatePvdProperties@PvdSceneClient@Vd@physx@@QEAAXPEBVNpArticulationSpatialTendon@3@@Z 0000000180005380 f i NpPvdSceneClient.obj
 0001:00004380       ?updatePvdProperties@PvdSceneClient@Vd@physx@@QEAAXPEBVNpSoftBody@3@@Z 0000000180005380 f i NpPvdSceneClient.obj
 0001:00004380       ?updateShape@PxsSimulationController@physx@@UEAAXAEAUPxsShapeSim@2@AEBVPxNodeIndex@2@@Z 0000000180005380 f i SimulationController_static_64:ScScene.obj
 0001:00004380       ?updateShapeMaterial@PxsNphaseImplementationContext@physx@@UEAAXAEBUPxsShapeCore@2@@Z 0000000180005380 f i LowLevel_static_64:PxsNphaseImplementationContext.obj
 0001:00004380       ?updateShapes@PxsSimulationController@physx@@UEAAXPEAVPxBaseTask@2@@Z 0000000180005380 f i SimulationController_static_64:ScScene.obj
 0001:00004380       ?visualize@BasePruner@Gu@physx@@UEBAXAEAVPxRenderOutput@3@II@Z 0000000180005380 f i SceneQuery_static_64:SqCompoundPruner.obj
 0001:00004380       _guard_check_icall_nop     0000000180005380 f i LIBCMT:guard_support.obj
 0001:00004390       ?addSharedMeshIfNotSeen@OmniPvdSamplerInternals@@QEAA_NPEBXW4OmniPvdSharedMeshEnum@@@Z 0000000180005390 f   OmniPvdPxSampler.obj
 0001:000044b0       ?create@?$PxHashBase@V?$PxPair@QEAVNpScene@physx@@PEAVOmniPvdPxScene@@@physx@@PEAVNpScene@2@U?$PxHash@PEAVNpScene@physx@@@2@UGetKey@?$PxHashMapBase@PEAVNpScene@physx@@PEAVOmniPvdPxScene@@U?$PxHash@PEAVNpScene@physx@@@2@VPxAllocator@2@@2@VPxAllocator@2@$00@physx@@QEAAPEAV?$PxPair@QEAVNpScene@physx@@PEAVOmniPvdPxScene@@@2@AEBQEAVNpScene@2@AEA_N@Z 00000001800054b0 f i OmniPvdPxSampler.obj
 0001:000044b0       ?create@?$PxHashBase@V?$PxPair@QEAVPxDeletionListener@physx@@PEAUNpDelListenerEntry@NpPhysics@2@@physx@@PEAVPxDeletionListener@2@U?$PxHash@PEAVPxDeletionListener@physx@@@2@UGetKey@?$PxHashMapBase@PEAVPxDeletionListener@physx@@PEAUNpDelListenerEntry@NpPhysics@2@U?$PxHash@PEAVPxDeletionListener@physx@@@2@VPxAllocator@2@@2@VPxAllocator@2@$00@physx@@QEAAPEAV?$PxPair@QEAVPxDeletionListener@physx@@PEAUNpDelListenerEntry@NpPhysics@2@@2@AEBQEAVPxDeletionListener@2@AEA_N@Z 00000001800054b0 f i NpPhysics.obj
 0001:000044b0       ?create@?$PxHashBase@V?$PxPair@QEBVPxShape@physx@@PEAV?$PxHashSet@PEBVPxRigidActor@physx@@U?$PxHash@PEBVPxRigidActor@physx@@@2@VPxAllocator@2@@2@@physx@@PEBVPxShape@2@U?$PxHash@PEBVPxShape@physx@@@2@UGetKey@?$PxHashMapBase@PEBVPxShape@physx@@PEAV?$PxHashSet@PEBVPxRigidActor@physx@@U?$PxHash@PEBVPxRigidActor@physx@@@2@VPxAllocator@2@@2@U?$PxHash@PEBVPxShape@physx@@@2@VPxAllocator@2@@2@VPxAllocator@2@$00@physx@@QEAAPEAV?$PxPair@QEBVPxShape@physx@@PEAV?$PxHashSet@PEBVPxRigidActor@physx@@U?$PxHash@PEBVPxRigidActor@physx@@@2@VPxAllocator@2@@2@@2@AEBQEBVPxShape@2@AEA_N@Z 00000001800054b0 f i PvdMetaDataPvdBinding.obj
 0001:00004640       ?create@?$PxHashBase@V?$PxPair@QEBXW4OmniPvdSharedMeshEnum@@@physx@@PEBXU?$PxHash@PEBX@2@UGetKey@?$PxHashMapBase@PEBXW4OmniPvdSharedMeshEnum@@U?$PxHash@PEBX@physx@@VPxAllocator@3@@2@VPxAllocator@2@$00@physx@@QEAAPEAV?$PxPair@QEBXW4OmniPvdSharedMeshEnum@@@2@AEBQEBXAEA_N@Z 0000000180005640 f i OmniPvdPxSampler.obj
 0001:000047d0       ?createGeometry@@YAXAEBVPxGeometry@physx@@@Z 00000001800057d0 f   OmniPvdPxSampler.obj
 0001:00004cc0       ?getInstance@OmniPvdPxSampler@@SAPEAV1@XZ 0000000180005cc0 f   OmniPvdPxSampler.obj
 0001:00004ce0       ?getSampledScene@OmniPvdPxSampler@@AEAAPEAVOmniPvdPxScene@@PEAVNpScene@physx@@@Z 0000000180005ce0 f   OmniPvdPxSampler.obj
 0001:00004e70       ?growAndPushBack@?$PxArray@IV?$PxReflectionAllocator@I@physx@@@physx@@IEAAAEAIAEBI@Z 0000000180005e70 f i OmniPvdPxSampler.obj
 0001:00004f90       ?growAndPushBack@?$PxArray@MV?$PxReflectionAllocator@M@physx@@@physx@@IEAAAEAMAEBM@Z 0000000180005f90 f i OmniPvdPxSampler.obj
 0001:000050d0       ?growAndPushBack@?$PxArray@PEAVPxActor@physx@@V?$PxReflectionAllocator@PEAVPxActor@physx@@@2@@physx@@IEAAAEAPEAVPxActor@2@AEBQEAV32@@Z 00000001800060d0 f i OmniPvdPxSampler.obj
 0001:000051f0       ?growAndPushBack@?$PxArray@PEAVPxShape@physx@@V?$PxReflectionAllocator@PEAVPxShape@physx@@@2@@physx@@IEAAAEAPEAVPxShape@2@AEBQEAV32@@Z 00000001800061f0 f i OmniPvdPxSampler.obj
 0001:00005310       ?growAndPushBack@?$PxArray@V?$PxVec3T@M@physx@@V?$PxReflectionAllocator@V?$PxVec3T@M@physx@@@2@@physx@@IEAAAEAV?$PxVec3T@M@2@AEBV32@@Z 0000000180006310 f i OmniPvdPxSampler.obj
 0001:000054f0       ?isSampling@OmniPvdPxSampler@@QEAA_NXZ 00000001800064f0 f   OmniPvdPxSampler.obj
 0001:00005540       ?getPxgDynamicsMemoryConfig_IsValid@@YA_NPEBUPxgDynamicsMemoryConfig@physx@@@Z 0000000180006540 f i PxAutoGeneratedMetaDataObjects.obj
 0001:00005540       ?isValid@PxgDynamicsMemoryConfig@physx@@QEBA_NXZ 0000000180006540 f i OmniPvdPxSampler.obj
 0001:00005560       ?onObjectAdd@OmniPvdPxSampler@@QEAAXPEBVPxBase@physx@@@Z 0000000180006560 f   OmniPvdPxSampler.obj
 0001:00006040       ?onObjectRemove@OmniPvdPxSampler@@QEAAXPEBVPxBase@physx@@@Z 0000000180007040 f   OmniPvdPxSampler.obj
 0001:000064d0       ?registerClasses@OmniPvdStreamContainer@@QEAAXXZ 00000001800074d0 f   OmniPvdPxSampler.obj
 0001:00008f50       ?reserveInternal@?$PxHashBase@V?$PxPair@QEAVNpScene@physx@@PEAVOmniPvdPxScene@@@physx@@PEAVNpScene@2@U?$PxHash@PEAVNpScene@physx@@@2@UGetKey@?$PxHashMapBase@PEAVNpScene@physx@@PEAVOmniPvdPxScene@@U?$PxHash@PEAVNpScene@physx@@@2@VPxAllocator@2@@2@VPxAllocator@2@$00@physx@@AEAAXI@Z 0000000180009f50 f i OmniPvdPxSampler.obj
 0001:00008f50       ?reserveInternal@?$PxHashBase@V?$PxPair@QEAVPxDeletionListener@physx@@PEAUNpDelListenerEntry@NpPhysics@2@@physx@@PEAVPxDeletionListener@2@U?$PxHash@PEAVPxDeletionListener@physx@@@2@UGetKey@?$PxHashMapBase@PEAVPxDeletionListener@physx@@PEAUNpDelListenerEntry@NpPhysics@2@U?$PxHash@PEAVPxDeletionListener@physx@@@2@VPxAllocator@2@@2@VPxAllocator@2@$00@physx@@AEAAXI@Z 0000000180009f50 f i NpPhysics.obj
 0001:00008f50       ?reserveInternal@?$PxHashBase@V?$PxPair@QEBVPxShape@physx@@PEAV?$PxHashSet@PEBVPxRigidActor@physx@@U?$PxHash@PEBVPxRigidActor@physx@@@2@VPxAllocator@2@@2@@physx@@PEBVPxShape@2@U?$PxHash@PEBVPxShape@physx@@@2@UGetKey@?$PxHashMapBase@PEBVPxShape@physx@@PEAV?$PxHashSet@PEBVPxRigidActor@physx@@U?$PxHash@PEBVPxRigidActor@physx@@@2@VPxAllocator@2@@2@U?$PxHash@PEBVPxShape@physx@@@2@VPxAllocator@2@@2@VPxAllocator@2@$00@physx@@AEAAXI@Z 0000000180009f50 f i PvdMetaDataPvdBinding.obj
 0001:00009130       ?reserveInternal@?$PxHashBase@V?$PxPair@QEBXW4OmniPvdSharedMeshEnum@@@physx@@PEBXU?$PxHash@PEBX@2@UGetKey@?$PxHashMapBase@PEBXW4OmniPvdSharedMeshEnum@@U?$PxHash@PEBX@physx@@VPxAllocator@3@@2@VPxAllocator@2@$00@physx@@AEAAXI@Z 000000018000a130 f i OmniPvdPxSampler.obj
 0001:00009310       ?sampleScene@OmniPvdPxSampler@@QEAAXPEAVNpScene@physx@@@Z 000000018000a310 f   OmniPvdPxSampler.obj
 0001:000093a0       ?setOmniPvdWriter@OmniPvdPxSampler@@QEAAXPEAVOmniPvdWriter@@@Z 000000018000a3a0 f   OmniPvdPxSampler.obj
 0001:000093b0       ?startSampling@OmniPvdPxSampler@@QEAAXXZ 000000018000a3b0 f   OmniPvdPxSampler.obj
 0001:000094d0       ?streamActorName@@YAXAEAVPxActor@physx@@PEBD@Z 000000018000a4d0 f   OmniPvdPxSampler.obj
 0001:00009540       ?streamArticulation@@YAXPEBVPxArticulationReducedCoordinate@physx@@@Z 000000018000a540 f   OmniPvdPxSampler.obj
 0001:000099b0       ?streamArticulationJoint@@YAXPEBVPxArticulationJointReducedCoordinate@physx@@@Z 000000018000a9b0 f   OmniPvdPxSampler.obj
 0001:0000a2e0       ?streamConvexMesh@@YAXPEBVPxConvexMesh@physx@@@Z 000000018000b2e0 f   OmniPvdPxSampler.obj
 0001:0000a6e0       ?streamHeightField@@YAXPEBVPxHeightField@physx@@@Z 000000018000b6e0 f   OmniPvdPxSampler.obj
 0001:0000acb0       ?streamMaterial@@YAXPEBVPxMaterial@physx@@@Z 000000018000bcb0 f   OmniPvdPxSampler.obj
 0001:0000af60       ?streamRigidActorTForm@@YAXAEBVPxRigidActor@physx@@@Z 000000018000bf60 f   OmniPvdPxSampler.obj
 0001:0000b030       ?streamRigidDynamic@@YAXPEBVPxRigidDynamic@physx@@@Z 000000018000c030 f   OmniPvdPxSampler.obj
 0001:0000b380       ?streamSceneContacts@OmniPvdPxSampler@@QEAAXAEAVNpScene@physx@@@Z 000000018000c380 f   OmniPvdPxSampler.obj
 0001:0000bc00       ?streamSceneName@@YAXAEAVPxScene@physx@@PEBD@Z 000000018000cc00 f   OmniPvdPxSampler.obj
 0001:0000bc70       ?streamShape@@YAXPEBVPxShape@physx@@@Z 000000018000cc70 f   OmniPvdPxSampler.obj
 0001:0000c160       ?streamShapeMaterials@@YAXPEAVPxShape@physx@@PEBQEAVPxMaterial@2@I@Z 000000018000d160 f   OmniPvdPxSampler.obj
 0001:0000c1c0       ?streamTetMesh@@YAXPEBVPxTetrahedronMesh@physx@@@Z 000000018000d1c0 f   OmniPvdPxSampler.obj
 0001:0000c610       ?streamTriMesh@@YAXPEBVPxTriangleMesh@physx@@@Z 000000018000d610 f   OmniPvdPxSampler.obj
 0001:0000cac0       ??0PvdSceneClient@Vd@physx@@QEAA@AEAVNpScene@2@@Z 000000018000dac0 f   NpPvdSceneClient.obj
 0001:0000cb30       ??1PvdSceneClient@Vd@physx@@UEAA@XZ 000000018000db30 f   NpPvdSceneClient.obj
 0001:0000cba4       ??_EPvdSceneClient@Vd@physx@@W7EAAPEAXI@Z 000000018000dba4 f i NpPvdSceneClient.obj
 0001:0000cbb0       ??_EPvdSceneClient@Vd@physx@@WBA@EAAPEAXI@Z 000000018000dbb0 f i NpPvdSceneClient.obj
 0001:0000cbc0       ??_EPvdClient@pvdsdk@physx@@MEAAPEAXI@Z 000000018000dbc0 f i NpPvdSceneClient.obj
 0001:0000cbc0       ??_GPvdClient@pvdsdk@physx@@MEAAPEAXI@Z 000000018000dbc0 f i NpPvdSceneClient.obj
 0001:0000cc20       ??_EPvdSceneClient@Vd@physx@@UEAAPEAXI@Z 000000018000dc20 f i NpPvdSceneClient.obj
 0001:0000cc20       ??_GPvdSceneClient@Vd@physx@@UEAAPEAXI@Z 000000018000dc20 f i NpPvdSceneClient.obj
 0001:0000ccc0       ??_EAdapter@Sq@physx@@UEAAPEAXI@Z 000000018000dcc0 f i NpSceneQueries.obj
 0001:0000ccc0       ??_ECompoundPrunerOverlapCallback@Sq@physx@@UEAAPEAXI@Z 000000018000dcc0 f i SceneQuery_static_64:SqQuery.obj
 0001:0000ccc0       ??_ECompoundPrunerRaycastCallback@Sq@physx@@UEAAPEAXI@Z 000000018000dcc0 f i SceneQuery_static_64:SqQuery.obj
 0001:0000ccc0       ??_EDebugVizCallback@physx@@UEAAPEAXI@Z 000000018000dcc0 f i SceneQuery_static_64:SqCompoundPruner.obj
 0001:0000ccc0       ??_EEndPropertyMessageGroup@pvdsdk@physx@@UEAAPEAXI@Z 000000018000dcc0 f i PhysXPvdSDK_static_64:PxPvdDataStream.obj
 0001:0000ccc0       ??_EEndSetPropertyValue@pvdsdk@physx@@UEAAPEAXI@Z 000000018000dcc0 f i PhysXPvdSDK_static_64:PxPvdDataStream.obj
 0001:0000ccc0       ??_EEventSerializeable@pvdsdk@physx@@MEAAPEAXI@Z 000000018000dcc0 f i PhysXPvdSDK_static_64:PxPvdDataStream.obj
 0001:0000ccc0       ??_EPrunerOverlapCallback@Gu@physx@@UEAAPEAXI@Z 000000018000dcc0 f i SceneQuery_static_64:SqQuery.obj
 0001:0000ccc0       ??_EPrunerPayloadRemovalCallback@Gu@physx@@UEAAPEAXI@Z 000000018000dcc0 f i NpSceneQueries.obj
 0001:0000ccc0       ??_EPrunerRaycastCallback@Gu@physx@@UEAAPEAXI@Z 000000018000dcc0 f i SceneQuery_static_64:SqQuery.obj
 0001:0000ccc0       ??_EPvdVisualizer@Vd@physx@@MEAAPEAXI@Z 000000018000dcc0 f i NpPvdSceneClient.obj
 0001:0000ccc0       ??_EPxErrorCallback@physx@@UEAAPEAXI@Z 000000018000dcc0 f i PvdPhysicsClient.obj
 0001:0000ccc0       ??_EPxProcessPxBaseCallback@physx@@UEAAPEAXI@Z 000000018000dcc0 f i NpSerializerAdapter.obj
 0001:0000ccc0       ??_ERendererEventClient@pvdsdk@physx@@UEAAPEAXI@Z 000000018000dcc0 f i NpPvdSceneClient.obj
 0001:0000ccc0       ??_GAdapter@Sq@physx@@UEAAPEAXI@Z 000000018000dcc0 f i NpSceneQueries.obj
 0001:0000ccc0       ??_GCompoundPrunerOverlapCallback@Sq@physx@@UEAAPEAXI@Z 000000018000dcc0 f i SceneQuery_static_64:SqQuery.obj
 0001:0000ccc0       ??_GCompoundPrunerRaycastCallback@Sq@physx@@UEAAPEAXI@Z 000000018000dcc0 f i SceneQuery_static_64:SqQuery.obj
 0001:0000ccc0       ??_GDebugVizCallback@physx@@UEAAPEAXI@Z 000000018000dcc0 f i SceneQuery_static_64:SqCompoundPruner.obj
 0001:0000ccc0       ??_GEndPropertyMessageGroup@pvdsdk@physx@@UEAAPEAXI@Z 000000018000dcc0 f i PhysXPvdSDK_static_64:PxPvdDataStream.obj
 0001:0000ccc0       ??_GEndSetPropertyValue@pvdsdk@physx@@UEAAPEAXI@Z 000000018000dcc0 f i PhysXPvdSDK_static_64:PxPvdDataStream.obj
 0001:0000ccc0       ??_GEventSerializeable@pvdsdk@physx@@MEAAPEAXI@Z 000000018000dcc0 f i PhysXPvdSDK_static_64:PxPvdDataStream.obj
 0001:0000ccc0       ??_GPrunerOverlapCallback@Gu@physx@@UEAAPEAXI@Z 000000018000dcc0 f i SceneQuery_static_64:SqQuery.obj
 0001:0000ccc0       ??_GPrunerPayloadRemovalCallback@Gu@physx@@UEAAPEAXI@Z 000000018000dcc0 f i NpSceneQueries.obj
 0001:0000ccc0       ??_GPrunerRaycastCallback@Gu@physx@@UEAAPEAXI@Z 000000018000dcc0 f i SceneQuery_static_64:SqQuery.obj
 0001:0000ccc0       ??_GPvdVisualizer@Vd@physx@@MEAAPEAXI@Z 000000018000dcc0 f i NpPvdSceneClient.obj
 0001:0000ccc0       ??_GPxErrorCallback@physx@@UEAAPEAXI@Z 000000018000dcc0 f i PvdPhysicsClient.obj
 0001:0000ccc0       ??_GPxProcessPxBaseCallback@physx@@UEAAPEAXI@Z 000000018000dcc0 f i NpSerializerAdapter.obj
 0001:0000ccc0       ??_GRendererEventClient@pvdsdk@physx@@UEAAPEAXI@Z 000000018000dcc0 f i NpPvdSceneClient.obj
 0001:0000ccf0       ??_EPxBroadPhaseRegions@physx@@MEAAPEAXI@Z 000000018000dcf0 f i NpImmediateMode.obj
 0001:0000ccf0       ??_EPxConstraintVisualizer@physx@@MEAAPEAXI@Z 000000018000dcf0 f i NpPvdSceneClient.obj
 0001:0000ccf0       ??_GPxBroadPhaseRegions@physx@@MEAAPEAXI@Z 000000018000dcf0 f i NpImmediateMode.obj
 0001:0000ccf0       ??_GPxConstraintVisualizer@physx@@MEAAPEAXI@Z 000000018000dcf0 f i NpPvdSceneClient.obj
 0001:0000cd20       ??_EPxPvdSceneClient@physx@@MEAAPEAXI@Z 000000018000dd20 f i NpPvdSceneClient.obj
 0001:0000cd20       ??_GPxPvdSceneClient@physx@@MEAAPEAXI@Z 000000018000dd20 f i NpPvdSceneClient.obj
 0001:0000cde0       ?addBodyAndShapesToPvd@PvdSceneClient@Vd@physx@@QEAAXAEAVNpRigidDynamic@3@@Z 000000018000dde0 f   NpPvdSceneClient.obj
 0001:0000d070       ?addStaticAndShapesToPvd@PvdSceneClient@Vd@physx@@QEAAXAEAVNpRigidStatic@3@@Z 000000018000e070 f   NpPvdSceneClient.obj
 0001:0000d1e0       ?attachAggregateActor@PvdSceneClient@Vd@physx@@QEAAXPEBVNpAggregate@3@PEAVNpActor@3@@Z 000000018000e1e0 f   NpPvdSceneClient.obj
 0001:0000d240       ?createPvdInstance@PvdSceneClient@Vd@physx@@QEAAXPEBV?$MaterialCoreT@UPxsFEMSoftBodyMaterialData@physx@@VPxFEMSoftBodyMaterial@2@@3@@Z 000000018000e240 f   NpPvdSceneClient.obj
 0001:0000d2b0       ?createPvdInstance@PvdSceneClient@Vd@physx@@QEAAXPEBV?$MaterialCoreT@UPxsMaterialData@physx@@VPxMaterial@2@@3@@Z 000000018000e2b0 f   NpPvdSceneClient.obj
 0001:0000d320       ?createPvdInstance@PvdSceneClient@Vd@physx@@QEAAXPEBVNpAggregate@3@@Z 000000018000e320 f   NpPvdSceneClient.obj
 0001:0000d410       ?createPvdInstance@PvdSceneClient@Vd@physx@@QEAAXPEBVNpArticulationLink@3@@Z 000000018000e410 f   NpPvdSceneClient.obj
 0001:0000d410       ?createPvdInstance@PvdSceneClient@Vd@physx@@QEAAXPEBVNpRigidDynamic@3@@Z 000000018000e410 f   NpPvdSceneClient.obj
 0001:0000d4d0       ?createPvdInstance@PvdSceneClient@Vd@physx@@QEAAXPEBVNpArticulationReducedCoordinate@3@@Z 000000018000e4d0 f   NpPvdSceneClient.obj
 0001:0000d530       ?createPvdInstance@PvdSceneClient@Vd@physx@@QEAAXPEBVNpConstraint@3@@Z 000000018000e530 f   NpPvdSceneClient.obj
 0001:0000d580       ?createPvdInstance@PvdSceneClient@Vd@physx@@QEAAXPEBVNpRigidStatic@3@@Z 000000018000e580 f   NpPvdSceneClient.obj
 0001:0000d5e0       ?createPvdInstance@PvdSceneClient@Vd@physx@@QEAAXPEBVNpShape@3@AEAVPxActor@3@@Z 000000018000e5e0 f   NpPvdSceneClient.obj
 0001:0000d6f0       ?detachAggregateActor@PvdSceneClient@Vd@physx@@QEAAXPEBVNpAggregate@3@PEAVNpActor@3@@Z 000000018000e6f0 f   NpPvdSceneClient.obj
 0001:0000d750       ?drawLines@PvdSceneClient@Vd@physx@@UEAAXPEBUPxDebugLine@3@I@Z 000000018000e750 f   NpPvdSceneClient.obj
 0001:0000d770       ?drawPoints@PvdSceneClient@Vd@physx@@UEAAXPEBUPxDebugPoint@3@I@Z 000000018000e770 f   NpPvdSceneClient.obj
 0001:0000d790       ?drawText@PvdSceneClient@Vd@physx@@UEAAXAEBUPxDebugText@3@@Z 000000018000e790 f   NpPvdSceneClient.obj
 0001:0000d7b0       ?drawTriangles@PvdSceneClient@Vd@physx@@UEAAXPEBUPxDebugTriangle@3@I@Z 000000018000e7b0 f   NpPvdSceneClient.obj
 0001:0000d7d0       ?frameEnd@PvdSceneClient@Vd@physx@@QEAAXXZ 000000018000e7d0 f   NpPvdSceneClient.obj
 0001:0000d9e0       ?frameStart@PvdSceneClient@Vd@physx@@QEAAXM@Z 000000018000e9e0 f   NpPvdSceneClient.obj
 0001:0000dac0       ?getClientInternal@PvdSceneClient@Vd@physx@@UEAAPEAVPvdClient@pvdsdk@3@XZ 000000018000eac0 f i NpPvdSceneClient.obj
 0001:0000dad0       ?getDataStream@PvdSceneClient@Vd@physx@@UEAAPEAVPvdDataStream@pvdsdk@3@XZ 000000018000ead0 f i NpPvdSceneClient.obj
 0001:0000dad0       ?getLink@NpArticulationAttachment@physx@@UEBAPEAVPxArticulationLink@2@XZ 000000018000ead0 f i NpArticulationTendon.obj
 0001:0000dad0       ?getLink@NpArticulationSensor@physx@@UEBAPEAVPxArticulationLink@2@XZ 000000018000ead0 f i NpArticulationSensor.obj
 0001:0000dad0       ?getLink@NpArticulationTendonJoint@physx@@UEBAPEAVPxArticulationLink@2@XZ 000000018000ead0 f i NpArticulationTendon.obj
 0001:0000dad0       ?getName@?$NpActorTemplate@VPxArticulationLink@physx@@@physx@@UEBAPEBDXZ 000000018000ead0 f i NpArticulationLink.obj
 0001:0000dad0       ?getName@?$NpActorTemplate@VPxPBDParticleSystem@physx@@@physx@@UEBAPEBDXZ 000000018000ead0 f i NpParticleSystem.obj
 0001:0000dad0       ?getName@?$NpActorTemplate@VPxRigidDynamic@physx@@@physx@@UEBAPEBDXZ 000000018000ead0 f i NpRigidDynamic.obj
 0001:0000dad0       ?getName@?$NpActorTemplate@VPxRigidStatic@physx@@@physx@@UEBAPEBDXZ 000000018000ead0 f i NpRigidStatic.obj
 0001:0000dad0       ?getName@?$NpActorTemplate@VPxSoftBody@physx@@@physx@@UEBAPEBDXZ 000000018000ead0 f i NpSoftBody.obj
 0001:0000dad0       ?getName@?$NpParticleSystem@VPxPBDParticleSystem@physx@@@physx@@UEBAPEBDXZ 000000018000ead0 f i NpParticleSystem.obj
 0001:0000dad0       ?getName@NpSoftBody@physx@@UEBAPEBDXZ 000000018000ead0 f i NpSoftBody.obj
 0001:0000dad0       ?getPxConvexMeshGeometryConvexMesh@@YAPEAVPxConvexMesh@physx@@PEBVPxConvexMeshGeometry@2@@Z 000000018000ead0 f i PxAutoGeneratedMetaDataObjects.obj
 0001:0000dad0       ?getPxTriangleMeshGeometryTriangleMesh@@YAPEAVPxTriangleMesh@physx@@PEBVPxTriangleMeshGeometry@2@@Z 000000018000ead0 f i PxAutoGeneratedMetaDataObjects.obj
 0001:0000dad0       ?getTriangles@RenderBuffer@Cm@physx@@UEBAPEBUPxDebugTriangle@3@XZ 000000018000ead0 f i NpScene.obj
 0001:0000dae0       ?getScenePvdFlags@PvdSceneClient@Vd@physx@@UEBA?AV?$PxFlags@W4Enum@PxPvdSceneFlag@physx@@E@3@XZ 000000018000eae0 f i NpPvdSceneClient.obj
 0001:0000daf0       ?growAndPushBack@?$PxArray@UContact@Sc@physx@@V?$PxReflectionAllocator@UContact@Sc@physx@@@3@@physx@@IEAAAEAUContact@Sc@2@AEBU342@@Z 000000018000eaf0 f i NpPvdSceneClient.obj
 0001:0000dee0       ?isConnected@PvdSceneClient@Vd@physx@@UEBA_NXZ 000000018000eee0 f i NpPvdSceneClient.obj
 0001:0000def0       ?onPvdConnected@PvdSceneClient@Vd@physx@@UEAAXXZ 000000018000eef0 f   NpPvdSceneClient.obj
 0001:0000e010       ?onPvdDisconnected@PvdSceneClient@Vd@physx@@UEAAXXZ 000000018000f010 f   NpPvdSceneClient.obj
 0001:0000e070       ?originShift@PvdSceneClient@Vd@physx@@QEAAXV?$PxVec3T@M@3@@Z 000000018000f070 f   NpPvdSceneClient.obj
 0001:0000e0c0       ?recreate@?$PxArray@PEAVPxActor@physx@@V?$PxReflectionAllocator@PEAVPxActor@physx@@@2@@physx@@IEAAXI@Z 000000018000f0c0 f i NpPvdSceneClient.obj
 0001:0000e1b0       ?recreate@?$PxArray@PEAVPxArticulationReducedCoordinate@physx@@V?$PxReflectionAllocator@PEAVPxArticulationReducedCoordinate@physx@@@2@@physx@@IEAAXI@Z 000000018000f1b0 f i NpPvdSceneClient.obj
 0001:0000e2a0       ?releaseAndRecreateGeometry@PvdSceneClient@Vd@physx@@QEAAXPEBVNpShape@3@@Z 000000018000f2a0 f   NpPvdSceneClient.obj
 0001:0000e300       ?releasePvdInstance@PvdSceneClient@Vd@physx@@QEAAXPEBV?$MaterialCoreT@UPxsFEMSoftBodyMaterialData@physx@@VPxFEMSoftBodyMaterial@2@@3@@Z 000000018000f300 f   NpPvdSceneClient.obj
 0001:0000e360       ?releasePvdInstance@PvdSceneClient@Vd@physx@@QEAAXPEBV?$MaterialCoreT@UPxsMaterialData@physx@@VPxMaterial@2@@3@@Z 000000018000f360 f   NpPvdSceneClient.obj
 0001:0000e3c0       ?releasePvdInstance@PvdSceneClient@Vd@physx@@QEAAXPEBVNpAggregate@3@@Z 000000018000f3c0 f   NpPvdSceneClient.obj
 0001:0000e4b0       ?releasePvdInstance@PvdSceneClient@Vd@physx@@QEAAXPEBVNpArticulationLink@3@@Z 000000018000f4b0 f   NpPvdSceneClient.obj
 0001:0000e4b0       ?releasePvdInstance@PvdSceneClient@Vd@physx@@QEAAXPEBVNpRigidDynamic@3@@Z 000000018000f4b0 f   NpPvdSceneClient.obj
 0001:0000e4b0       ?releasePvdInstance@PvdSceneClient@Vd@physx@@QEAAXPEBVNpRigidStatic@3@@Z 000000018000f4b0 f   NpPvdSceneClient.obj
 0001:0000e4e0       ?releasePvdInstance@PvdSceneClient@Vd@physx@@QEAAXPEBVNpArticulationReducedCoordinate@3@@Z 000000018000f4e0 f   NpPvdSceneClient.obj
 0001:0000e530       ?releasePvdInstance@PvdSceneClient@Vd@physx@@QEAAXPEBVNpConstraint@3@@Z 000000018000f530 f   NpPvdSceneClient.obj
 0001:0000e5b0       ?releasePvdInstance@PvdSceneClient@Vd@physx@@QEAAXPEBVNpShape@3@AEAVPxActor@3@@Z 000000018000f5b0 f   NpPvdSceneClient.obj
 0001:0000e790       ?releasePvdInstance@PvdSceneClient@Vd@physx@@QEAAXPEBVPxActor@3@@Z 000000018000f790 f   NpPvdSceneClient.obj
 0001:0000e870       ?releasePvdInstance@PvdSceneClient@Vd@physx@@QEAAXXZ 000000018000f870 f   NpPvdSceneClient.obj
 0001:0000e8d0       ?resize@?$PxArray@PEAVPxActor@physx@@V?$PxReflectionAllocator@PEAVPxActor@physx@@@2@@physx@@QEAAXIAEBQEAVPxActor@2@@Z 000000018000f8d0 f i NpPvdSceneClient.obj
 0001:0000e990       ?resize@?$PxArray@PEAVPxArticulationReducedCoordinate@physx@@V?$PxReflectionAllocator@PEAVPxArticulationReducedCoordinate@physx@@@2@@physx@@QEAAXIAEBQEAVPxArticulationReducedCoordinate@2@@Z 000000018000f990 f i NpPvdSceneClient.obj
 0001:0000ea50       ?sendEntireScene@PvdSceneClient@Vd@physx@@AEAAXXZ 000000018000fa50 f   NpPvdSceneClient.obj
 0001:0000ee30       ?setScenePvdFlag@PvdSceneClient@Vd@physx@@UEAAXW4Enum@PxPvdSceneFlag@3@_N@Z 000000018000fe30 f   NpPvdSceneClient.obj
 0001:0000ee40       ?setScenePvdFlags@PvdSceneClient@Vd@physx@@UEAAXV?$PxFlags@W4Enum@PxPvdSceneFlag@physx@@E@3@@Z 000000018000fe40 f i NpPvdSceneClient.obj
 0001:0000ee50       ?updateBodyPvdProperties@PvdSceneClient@Vd@physx@@QEAAXPEBVNpActor@3@@Z 000000018000fe50 f   NpPvdSceneClient.obj
 0001:0000ef20       ?updateCamera@PvdSceneClient@Vd@physx@@UEAAXPEBDAEBV?$PxVec3T@M@3@11@Z 000000018000ff20 f   NpPvdSceneClient.obj
 0001:0000ef40       ?updateConstraint@PvdSceneClient@Vd@physx@@AEAAXAEBVConstraintCore@Sc@3@I@Z 000000018000ff40 f   NpPvdSceneClient.obj
 0001:0000efb0       ?updateContacts@PvdSceneClient@Vd@physx@@QEAAXXZ 000000018000ffb0 f   NpPvdSceneClient.obj
 0001:0000f280       ?updateJoints@PvdSceneClient@Vd@physx@@QEAAXXZ 0000000180010280 f   NpPvdSceneClient.obj
 0001:0000f6b0       ?updateKinematicTarget@PvdSceneClient@Vd@physx@@QEAAXPEBVNpActor@3@AEBV?$PxTransformT@M@3@@Z 00000001800106b0 f   NpPvdSceneClient.obj
 0001:0000f7a0       ?updateMaterials@PvdSceneClient@Vd@physx@@QEAAXPEBVNpShape@3@@Z 00000001800107a0 f   NpPvdSceneClient.obj
 0001:0000f7f0       ?updatePvdProperties@PvdSceneClient@Vd@physx@@QEAAXPEBV?$MaterialCoreT@UPxsFEMSoftBodyMaterialData@physx@@VPxFEMSoftBodyMaterial@2@@3@@Z 00000001800107f0 f   NpPvdSceneClient.obj
 0001:0000f840       ?updatePvdProperties@PvdSceneClient@Vd@physx@@QEAAXPEBV?$MaterialCoreT@UPxsMaterialData@physx@@VPxMaterial@2@@3@@Z 0000000180010840 f   NpPvdSceneClient.obj
 0001:0000f890       ?updatePvdProperties@PvdSceneClient@Vd@physx@@QEAAXPEBVNpActor@3@@Z 0000000180010890 f   NpPvdSceneClient.obj
 0001:0000f9a0       ?updatePvdProperties@PvdSceneClient@Vd@physx@@QEAAXPEBVNpAggregate@3@@Z 00000001800109a0 f   NpPvdSceneClient.obj
 0001:0000f9f0       ?updatePvdProperties@PvdSceneClient@Vd@physx@@QEAAXPEBVNpArticulationJointReducedCoordinate@3@@Z 00000001800109f0 f   NpPvdSceneClient.obj
 0001:0000fa40       ?updatePvdProperties@PvdSceneClient@Vd@physx@@QEAAXPEBVNpArticulationReducedCoordinate@3@@Z 0000000180010a40 f   NpPvdSceneClient.obj
 0001:0000fa90       ?updatePvdProperties@PvdSceneClient@Vd@physx@@QEAAXPEBVNpConstraint@3@@Z 0000000180010a90 f   NpPvdSceneClient.obj
 0001:0000fae0       ?updatePvdProperties@PvdSceneClient@Vd@physx@@QEAAXPEBVNpRigidStatic@3@@Z 0000000180010ae0 f   NpPvdSceneClient.obj
 0001:0000fb30       ?updatePvdProperties@PvdSceneClient@Vd@physx@@QEAAXPEBVNpShape@3@@Z 0000000180010b30 f   NpPvdSceneClient.obj
 0001:0000fb80       ?updatePvdProperties@PvdSceneClient@Vd@physx@@QEAAXXZ 0000000180010b80 f   NpPvdSceneClient.obj
 0001:0000fba0       ?updateSceneQueries@PvdSceneClient@Vd@physx@@QEAAXXZ 0000000180010ba0 f   NpPvdSceneClient.obj
 0001:0000fbf0       ?visualize@PvdSceneClient@Vd@physx@@QEAAXAEBVPxRenderBuffer@3@@Z 0000000180010bf0 f   NpPvdSceneClient.obj
 0001:0000fd00       ?visualize@PvdSceneClient@Vd@physx@@UEAAXAEAVPxArticulationLink@3@@Z 0000000180010d00 f   NpPvdSceneClient.obj
 0001:00010460       ??0PvdSceneQueryCollector@Vd@physx@@QEAA@PEAVPvdSceneClient@12@_N@Z 0000000180011460 f   NpPvdSceneQueryCollector.obj
 0001:00010640       ?copy@?$PxArray@UPvdOverlap@Vd@physx@@V?$PxReflectionAllocator@UPvdOverlap@Vd@physx@@@3@@physx@@KAXPEAUPvdOverlap@Vd@2@0PEBU342@@Z 0000000180011640 f i NpPvdSceneQueryCollector.obj
 0001:00010920       ?copy@?$PxArray@UPvdRaycast@Vd@physx@@V?$PxReflectionAllocator@UPvdRaycast@Vd@physx@@@3@@physx@@KAXPEAUPvdRaycast@Vd@2@0PEBU342@@Z 0000000180011920 f i NpPvdSceneQueryCollector.obj
 0001:00010ba0       ?growAndPushBack@?$PxArray@UPvdOverlap@Vd@physx@@V?$PxReflectionAllocator@UPvdOverlap@Vd@physx@@@3@@physx@@IEAAAEAUPvdOverlap@Vd@2@AEBU342@@Z 0000000180011ba0 f i NpPvdSceneQueryCollector.obj
 0001:00010d10       ?growAndPushBack@?$PxArray@UPvdRaycast@Vd@physx@@V?$PxReflectionAllocator@UPvdRaycast@Vd@physx@@@3@@physx@@IEAAAEAUPvdRaycast@Vd@2@AEBU342@@Z 0000000180011d10 f i NpPvdSceneQueryCollector.obj
 0001:00010e90       ?growAndPushBack@?$PxArray@UPvdSqHit@Vd@physx@@V?$PxReflectionAllocator@UPvdSqHit@Vd@physx@@@3@@physx@@IEAAAEAUPvdSqHit@Vd@2@AEBU342@@Z 0000000180011e90 f i NpPvdSceneQueryCollector.obj
 0001:00011210       ?growAndPushBack@?$PxArray@UPvdSweep@Vd@physx@@V?$PxReflectionAllocator@UPvdSweep@Vd@physx@@@3@@physx@@IEAAAEAUPvdSweep@Vd@2@AEBU342@@Z 0000000180012210 f i NpPvdSceneQueryCollector.obj
 0001:00011580       ?growAndPushBack@?$PxArray@UPxFilterData@physx@@V?$PxReflectionAllocator@UPxFilterData@physx@@@2@@physx@@IEAAAEAUPxFilterData@2@AEBU32@@Z 0000000180012580 f i NpPvdSceneQueryCollector.obj
 0001:000116d0       ?growAndPushBack@?$PxArray@V?$PxTransformT@M@physx@@V?$PxReflectionAllocator@V?$PxTransformT@M@physx@@@2@@physx@@IEAAAEAV?$PxTransformT@M@2@AEBV32@@Z 00000001800126d0 f i NpPvdSceneQueryCollector.obj
 0001:00011950       ?growAndPushBack@?$PxArray@VPxGeometryHolder@physx@@V?$PxReflectionAllocator@VPxGeometryHolder@physx@@@2@@physx@@IEAAAEAVPxGeometryHolder@2@AEBV32@@Z 0000000180012950 f i NpPvdSceneQueryCollector.obj
 0001:00011aa0       ?overlapMultiple@PvdSceneQueryCollector@Vd@physx@@QEAAXAEBVPxGeometry@3@AEBV?$PxTransformT@M@3@PEBUPxOverlapHit@3@IAEBUPxQueryFilterData@3@@Z 0000000180012aa0 f   NpPvdSceneQueryCollector.obj
 0001:00011db0       ?raycast@PvdSceneQueryCollector@Vd@physx@@QEAAXAEBV?$PxVec3T@M@3@0MPEBUPxRaycastHit@3@IAEBUPxQueryFilterData@3@_N@Z 0000000180012db0 f   NpPvdSceneQueryCollector.obj
 0001:00011ee0       ?release@PvdSceneQueryCollector@Vd@physx@@QEAAXXZ 0000000180012ee0 f   NpPvdSceneQueryCollector.obj
 0001:00011f90       ?sweep@PvdSceneQueryCollector@Vd@physx@@QEAAXAEBVPxGeometry@3@AEBV?$PxTransformT@M@3@AEBV?$PxVec3T@M@3@MPEBUPxSweepHit@3@IAEBUPxQueryFilterData@3@_N@Z 0000000180012f90 f   NpPvdSceneQueryCollector.obj
 0001:00012350       ??$addPropertyMessage@VPxArticulationJointReducedCoordinate@physx@@UPxArticulationJointUpdateBlock@Vd@2@@PvdPropertyDefinitionHelper@pvdsdk@physx@@QEAAXXZ 0000000180013350 f i PvdMetaDataPvdBinding.obj
 0001:000123a0       ??$addPropertyMessage@VPxArticulationLink@physx@@UPxArticulationLinkUpdateBlock@Vd@2@@PvdPropertyDefinitionHelper@pvdsdk@physx@@QEAAXXZ 00000001800133a0 f i PvdMetaDataPvdBinding.obj
 0001:000123f0       ??$addPropertyMessage@VPxRigidDynamic@physx@@UPxRigidDynamicUpdateBlock@Vd@2@@PvdPropertyDefinitionHelper@pvdsdk@physx@@QEAAXXZ 00000001800133f0 f i PvdMetaDataPvdBinding.obj
 0001:00012440       ??$addPropertyMessageArg@E@PvdPropertyDefinitionHelper@pvdsdk@physx@@QEAAXI@Z 0000000180013440 f i PvdMetaDataPvdBinding.obj
 0001:00012480       ??$addPropertyMessageArg@I@PvdPropertyDefinitionHelper@pvdsdk@physx@@QEAAXI@Z 0000000180013480 f i PvdMetaDataPvdBinding.obj
 0001:000124c0       ??$addPropertyMessageArg@M@PvdPropertyDefinitionHelper@pvdsdk@physx@@QEAAXI@Z 00000001800134c0 f i PvdMetaDataPvdBinding.obj
 0001:00012500       ??$addPropertyMessageArg@V?$PxTransformT@M@physx@@@PvdPropertyDefinitionHelper@pvdsdk@physx@@QEAAXI@Z 0000000180013500 f i PvdMetaDataPvdBinding.obj
 0001:00012540       ??$addPropertyMessageArg@V?$PxVec3T@M@physx@@@PvdPropertyDefinitionHelper@pvdsdk@physx@@QEAAXI@Z 0000000180013540 f i PvdMetaDataPvdBinding.obj
 0001:00012580       ??$addPropertyMessageArg@_N@PvdPropertyDefinitionHelper@pvdsdk@physx@@QEAAXI@Z 0000000180013580 f i PvdMetaDataPvdBinding.obj
 0001:000125c0       ??$createClass@UPvdOverlap@Vd@physx@@@PvdMetaDataStream@pvdsdk@physx@@QEAA?AW4Enum@PvdErrorType@12@XZ 00000001800135c0 f i PvdMetaDataPvdBinding.obj
 0001:00012e40       ??$createProperty@UPvdContact@Vd@physx@@I@PvdMetaDataStream@pvdsdk@physx@@QEAA?AW4Enum@PvdErrorType@12@PEBD0W43PropertyType@12@V?$DataRef@UNamedValue@pvdsdk@physx@@@12@@Z 0000000180013e40 f i PvdMetaDataPvdBinding.obj
 0001:00012eb0       ??$createProperty@UPvdContact@Vd@physx@@M@PvdMetaDataStream@pvdsdk@physx@@QEAA?AW4Enum@PvdErrorType@12@PEBD0W43PropertyType@12@V?$DataRef@UNamedValue@pvdsdk@physx@@@12@@Z 0000000180013eb0 f i PvdMetaDataPvdBinding.obj
 0001:00012f20       ??$createProperty@UPvdContact@Vd@physx@@UObjectRef@pvdsdk@3@@PvdMetaDataStream@pvdsdk@physx@@QEAA?AW4Enum@PvdErrorType@12@PEBD0W43PropertyType@12@V?$DataRef@UNamedValue@pvdsdk@physx@@@12@@Z 0000000180013f20 f i PvdMetaDataPvdBinding.obj
 0001:00012f90       ??$createProperty@UPvdContact@Vd@physx@@V?$PxVec3T@M@3@@PvdMetaDataStream@pvdsdk@physx@@QEAA?AW4Enum@PvdErrorType@12@PEBD0W43PropertyType@12@V?$DataRef@UNamedValue@pvdsdk@physx@@@12@@Z 0000000180013f90 f i PvdMetaDataPvdBinding.obj
 0001:00013000       ??$createProperty@UPvdHullPolygonData@Vd@physx@@G@PvdMetaDataStream@pvdsdk@physx@@QEAA?AW4Enum@PvdErrorType@12@PEBD0W43PropertyType@12@V?$DataRef@UNamedValue@pvdsdk@physx@@@12@@Z 0000000180014000 f i PvdMetaDataPvdBinding.obj
 0001:00013070       ??$createProperty@UPvdOverlap@Vd@physx@@I@PvdMetaDataStream@pvdsdk@physx@@QEAA?AW4Enum@PvdErrorType@12@PEBD0W43PropertyType@12@V?$DataRef@UNamedValue@pvdsdk@physx@@@12@@Z 0000000180014070 f i PvdMetaDataPvdBinding.obj
 0001:000130e0       ??$createProperty@UPvdOverlap@Vd@physx@@PEBD@PvdMetaDataStream@pvdsdk@physx@@QEAA?AW4Enum@PvdErrorType@12@PEBD0W43PropertyType@12@V?$DataRef@UNamedValue@pvdsdk@physx@@@12@@Z 00000001800140e0 f i PvdMetaDataPvdBinding.obj
 0001:00013150       ??$createProperty@UPvdOverlap@Vd@physx@@UPxFilterData@3@@PvdMetaDataStream@pvdsdk@physx@@QEAA?AW4Enum@PvdErrorType@12@PEBD0W43PropertyType@12@V?$DataRef@UNamedValue@pvdsdk@physx@@@12@@Z 0000000180014150 f i PvdMetaDataPvdBinding.obj
 0001:000131c0       ??$createProperty@UPvdOverlap@Vd@physx@@V?$PxTransformT@M@3@@PvdMetaDataStream@pvdsdk@physx@@QEAA?AW4Enum@PvdErrorType@12@PEBD0W43PropertyType@12@V?$DataRef@UNamedValue@pvdsdk@physx@@@12@@Z 00000001800141c0 f i PvdMetaDataPvdBinding.obj
 0001:00013230       ??$createProperty@UPvdRaycast@Vd@physx@@I@PvdMetaDataStream@pvdsdk@physx@@QEAA?AW4Enum@PvdErrorType@12@PEBD0W43PropertyType@12@V?$DataRef@UNamedValue@pvdsdk@physx@@@12@@Z 0000000180014230 f i PvdMetaDataPvdBinding.obj
 0001:000132a0       ??$createProperty@UPvdRaycast@Vd@physx@@M@PvdMetaDataStream@pvdsdk@physx@@QEAA?AW4Enum@PvdErrorType@12@PEBD0W43PropertyType@12@V?$DataRef@UNamedValue@pvdsdk@physx@@@12@@Z 00000001800142a0 f i PvdMetaDataPvdBinding.obj
 0001:00013310       ??$createProperty@UPvdRaycast@Vd@physx@@PEBD@PvdMetaDataStream@pvdsdk@physx@@QEAA?AW4Enum@PvdErrorType@12@PEBD0W43PropertyType@12@V?$DataRef@UNamedValue@pvdsdk@physx@@@12@@Z 0000000180014310 f i PvdMetaDataPvdBinding.obj
 0001:00013380       ??$createProperty@UPvdRaycast@Vd@physx@@UPxFilterData@3@@PvdMetaDataStream@pvdsdk@physx@@QEAA?AW4Enum@PvdErrorType@12@PEBD0W43PropertyType@12@V?$DataRef@UNamedValue@pvdsdk@physx@@@12@@Z 0000000180014380 f i PvdMetaDataPvdBinding.obj
 0001:000133f0       ??$createProperty@UPvdRaycast@Vd@physx@@V?$PxVec3T@M@3@@PvdMetaDataStream@pvdsdk@physx@@QEAA?AW4Enum@PvdErrorType@12@PEBD0W43PropertyType@12@V?$DataRef@UNamedValue@pvdsdk@physx@@@12@@Z 00000001800143f0 f i PvdMetaDataPvdBinding.obj
 0001:00013460       ??$createProperty@UPvdSqHit@Vd@physx@@I@PvdMetaDataStream@pvdsdk@physx@@QEAA?AW4Enum@PvdErrorType@12@PEBD0W43PropertyType@12@V?$DataRef@UNamedValue@pvdsdk@physx@@@12@@Z 0000000180014460 f i PvdMetaDataPvdBinding.obj
 0001:000134d0       ??$createProperty@UPvdSqHit@Vd@physx@@M@PvdMetaDataStream@pvdsdk@physx@@QEAA?AW4Enum@PvdErrorType@12@PEBD0W43PropertyType@12@V?$DataRef@UNamedValue@pvdsdk@physx@@@12@@Z 00000001800144d0 f i PvdMetaDataPvdBinding.obj
 0001:00013540       ??$createProperty@UPvdSqHit@Vd@physx@@UObjectRef@pvdsdk@3@@PvdMetaDataStream@pvdsdk@physx@@QEAA?AW4Enum@PvdErrorType@12@PEBD0W43PropertyType@12@V?$DataRef@UNamedValue@pvdsdk@physx@@@12@@Z 0000000180014540 f i PvdMetaDataPvdBinding.obj
 0001:000135b0       ??$createProperty@UPvdSqHit@Vd@physx@@V?$PxVec3T@M@3@@PvdMetaDataStream@pvdsdk@physx@@QEAA?AW4Enum@PvdErrorType@12@PEBD0W43PropertyType@12@V?$DataRef@UNamedValue@pvdsdk@physx@@@12@@Z 00000001800145b0 f i PvdMetaDataPvdBinding.obj
 0001:00013620       ??$createProperty@UPvdSweep@Vd@physx@@I@PvdMetaDataStream@pvdsdk@physx@@QEAA?AW4Enum@PvdErrorType@12@PEBD0W43PropertyType@12@V?$DataRef@UNamedValue@pvdsdk@physx@@@12@@Z 0000000180014620 f i PvdMetaDataPvdBinding.obj
 0001:00013690       ??$createProperty@UPvdSweep@Vd@physx@@M@PvdMetaDataStream@pvdsdk@physx@@QEAA?AW4Enum@PvdErrorType@12@PEBD0W43PropertyType@12@V?$DataRef@UNamedValue@pvdsdk@physx@@@12@@Z 0000000180014690 f i PvdMetaDataPvdBinding.obj
 0001:00013700       ??$createProperty@UPvdSweep@Vd@physx@@PEBD@PvdMetaDataStream@pvdsdk@physx@@QEAA?AW4Enum@PvdErrorType@12@PEBD0W43PropertyType@12@V?$DataRef@UNamedValue@pvdsdk@physx@@@12@@Z 0000000180014700 f i PvdMetaDataPvdBinding.obj
 0001:00013770       ??$createProperty@UPvdSweep@Vd@physx@@V?$PxVec3T@M@3@@PvdMetaDataStream@pvdsdk@physx@@QEAA?AW4Enum@PvdErrorType@12@PEBD0W43PropertyType@12@V?$DataRef@UNamedValue@pvdsdk@physx@@@12@@Z 0000000180014770 f i PvdMetaDataPvdBinding.obj
 0001:000137e0       ??$createProperty@UPxHeightFieldSample@physx@@E@PvdMetaDataStream@pvdsdk@physx@@QEAA?AW4Enum@PvdErrorType@12@PEBD0W43PropertyType@12@V?$DataRef@UNamedValue@pvdsdk@physx@@@12@@Z 00000001800147e0 f i PvdMetaDataPvdBinding.obj
 0001:00013850       ??$createProperty@VPxActor@physx@@UObjectRef@pvdsdk@2@@PvdMetaDataStream@pvdsdk@physx@@QEAA?AW4Enum@PvdErrorType@12@PEBD0W43PropertyType@12@V?$DataRef@UNamedValue@pvdsdk@physx@@@12@@Z 0000000180014850 f i PvdMetaDataPvdBinding.obj
 0001:000138c0       ??$createProperty@VPxAggregate@physx@@UObjectRef@pvdsdk@2@@PvdMetaDataStream@pvdsdk@physx@@QEAA?AW4Enum@PvdErrorType@12@PEBD0W43PropertyType@12@V?$DataRef@UNamedValue@pvdsdk@physx@@@12@@Z 00000001800148c0 f i PvdMetaDataPvdBinding.obj
 0001:00013930       ??$createProperty@VPxArticulationJointReducedCoordinate@physx@@UObjectRef@pvdsdk@2@@PvdMetaDataStream@pvdsdk@physx@@QEAA?AW4Enum@PvdErrorType@12@PEBD0W43PropertyType@12@V?$DataRef@UNamedValue@pvdsdk@physx@@@12@@Z 0000000180014930 f i PvdMetaDataPvdBinding.obj
 0001:000139a0       ??$createProperty@VPxArticulationLink@physx@@UObjectRef@pvdsdk@2@@PvdMetaDataStream@pvdsdk@physx@@QEAA?AW4Enum@PvdErrorType@12@PEBD0W43PropertyType@12@V?$DataRef@UNamedValue@pvdsdk@physx@@@12@@Z 00000001800149a0 f i PvdMetaDataPvdBinding.obj
 0001:00013a10       ??$createProperty@VPxArticulationReducedCoordinate@physx@@UObjectRef@pvdsdk@2@@PvdMetaDataStream@pvdsdk@physx@@QEAA?AW4Enum@PvdErrorType@12@PEBD0W43PropertyType@12@V?$DataRef@UNamedValue@pvdsdk@physx@@@12@@Z 0000000180014a10 f i PvdMetaDataPvdBinding.obj
 0001:00013a80       ??$createProperty@VPxConvexMesh@physx@@V?$PxVec3T@M@2@@PvdMetaDataStream@pvdsdk@physx@@QEAA?AW4Enum@PvdErrorType@12@PEBD0W43PropertyType@12@V?$DataRef@UNamedValue@pvdsdk@physx@@@12@@Z 0000000180014a80 f i PvdMetaDataPvdBinding.obj
 0001:00013af0       ??$createProperty@VPxRigidActor@physx@@UObjectRef@pvdsdk@2@@PvdMetaDataStream@pvdsdk@physx@@QEAA?AW4Enum@PvdErrorType@12@PEBD0W43PropertyType@12@V?$DataRef@UNamedValue@pvdsdk@physx@@@12@@Z 0000000180014af0 f i PvdMetaDataPvdBinding.obj
 0001:00013b60       ??$createProperty@VPxRigidDynamic@physx@@V?$PxTransformT@M@2@@PvdMetaDataStream@pvdsdk@physx@@QEAA?AW4Enum@PvdErrorType@12@PEBD0W43PropertyType@12@V?$DataRef@UNamedValue@pvdsdk@physx@@@12@@Z 0000000180014b60 f i PvdMetaDataPvdBinding.obj
 0001:00013bd0       ??$createProperty@VPxScene@physx@@UObjectRef@pvdsdk@2@@PvdMetaDataStream@pvdsdk@physx@@QEAA?AW4Enum@PvdErrorType@12@PEBD0W43PropertyType@12@V?$DataRef@UNamedValue@pvdsdk@physx@@@12@@Z 0000000180014bd0 f i PvdMetaDataPvdBinding.obj
 0001:00013c40       ??$createProperty@VPxScene@physx@@UPvdOverlap@Vd@2@@PvdMetaDataStream@pvdsdk@physx@@QEAA?AW4Enum@PvdErrorType@12@PEBD0W43PropertyType@12@V?$DataRef@UNamedValue@pvdsdk@physx@@@12@@Z 0000000180014c40 f i PvdMetaDataPvdBinding.obj
 0001:00013cb0       ??$createProperty@VPxScene@physx@@UPvdRaycast@Vd@2@@PvdMetaDataStream@pvdsdk@physx@@QEAA?AW4Enum@PvdErrorType@12@PEBD0W43PropertyType@12@V?$DataRef@UNamedValue@pvdsdk@physx@@@12@@Z 0000000180014cb0 f i PvdMetaDataPvdBinding.obj
 0001:00013d20       ??$createProperty@VPxScene@physx@@UPvdSqHit@Vd@2@@PvdMetaDataStream@pvdsdk@physx@@QEAA?AW4Enum@PvdErrorType@12@PEBD0W43PropertyType@12@V?$DataRef@UNamedValue@pvdsdk@physx@@@12@@Z 0000000180014d20 f i PvdMetaDataPvdBinding.obj
 0001:00013d90       ??$createProperty@VPxScene@physx@@UPvdSweep@Vd@2@@PvdMetaDataStream@pvdsdk@physx@@QEAA?AW4Enum@PvdErrorType@12@PEBD0W43PropertyType@12@V?$DataRef@UNamedValue@pvdsdk@physx@@@12@@Z 0000000180014d90 f i PvdMetaDataPvdBinding.obj
 0001:00013e00       ??$createProperty@VPxScene@physx@@UPxFilterData@2@@PvdMetaDataStream@pvdsdk@physx@@QEAA?AW4Enum@PvdErrorType@12@PEBD0W43PropertyType@12@V?$DataRef@UNamedValue@pvdsdk@physx@@@12@@Z 0000000180014e00 f i PvdMetaDataPvdBinding.obj
 0001:00013e70       ??$createProperty@VPxScene@physx@@V?$PxTransformT@M@2@@PvdMetaDataStream@pvdsdk@physx@@QEAA?AW4Enum@PvdErrorType@12@PEBD0W43PropertyType@12@V?$DataRef@UNamedValue@pvdsdk@physx@@@12@@Z 0000000180014e70 f i PvdMetaDataPvdBinding.obj
 0001:00013ee0       ??$createProperty@VPxShape@physx@@UObjectRef@pvdsdk@2@@PvdMetaDataStream@pvdsdk@physx@@QEAA?AW4Enum@PvdErrorType@12@PEBD0W43PropertyType@12@V?$DataRef@UNamedValue@pvdsdk@physx@@@12@@Z 0000000180014ee0 f i PvdMetaDataPvdBinding.obj
 0001:00013f50       ??$createProperty@VPxTetrahedronMesh@physx@@I@PvdMetaDataStream@pvdsdk@physx@@QEAA?AW4Enum@PvdErrorType@12@PEBD0W43PropertyType@12@V?$DataRef@UNamedValue@pvdsdk@physx@@@12@@Z 0000000180014f50 f i PvdMetaDataPvdBinding.obj
 0001:00013fc0       ??$createProperty@VPxTriangleMesh@physx@@I@PvdMetaDataStream@pvdsdk@physx@@QEAA?AW4Enum@PvdErrorType@12@PEBD0W43PropertyType@12@V?$DataRef@UNamedValue@pvdsdk@physx@@@12@@Z 0000000180014fc0 f i PvdMetaDataPvdBinding.obj
 0001:000154f0       ??$visitAllProperties@VPxConvexMeshGeometry@physx@@U?$PvdPropertyFilter@UPvdClassInfoValueStructDefine@Vd@physx@@@Vd@2@@physx@@YAIU?$PvdPropertyFilter@UPvdClassInfoValueStructDefine@Vd@physx@@@Vd@0@@Z 00000001800164f0 f i PvdMetaDataPvdBinding.obj
 0001:000156a0       ??$visitAllProperties@VPxFEMSoftBodyMaterial@physx@@U?$PvdPropertyFilter@UPvdClassInfoDefine@Vd@physx@@@Vd@2@@physx@@YAIU?$PvdPropertyFilter@UPvdClassInfoDefine@Vd@physx@@@Vd@0@@Z 00000001800166a0 f i PvdMetaDataPvdBinding.obj
 0001:000158b0       ??$visitAllProperties@VPxFEMSoftBodyMaterial@physx@@U?$PvdPropertyFilter@UPvdClassInfoValueStructDefine@Vd@physx@@@Vd@2@@physx@@YAIU?$PvdPropertyFilter@UPvdClassInfoValueStructDefine@Vd@physx@@@Vd@0@@Z 00000001800168b0 f i PvdMetaDataPvdBinding.obj
 0001:00015aa0       ??$visitAllProperties@VPxTolerancesScale@physx@@U?$PvdPropertyFilter@UPvdClassInfoValueStructDefine@Vd@physx@@@Vd@2@@physx@@YAIU?$PvdPropertyFilter@UPvdClassInfoValueStructDefine@Vd@physx@@@Vd@0@@Z 0000000180016aa0 f i PvdMetaDataPvdBinding.obj
 0001:00015c40       ??$visitAllProperties@VPxTriangleMeshGeometry@physx@@U?$PvdPropertyFilter@UPvdClassInfoValueStructDefine@Vd@physx@@@Vd@2@@physx@@YAIU?$PvdPropertyFilter@UPvdClassInfoValueStructDefine@Vd@physx@@@Vd@0@@Z 0000000180016c40 f i PvdMetaDataPvdBinding.obj
 0001:00015df0       ??$visitBaseProperties@U?$PvdPropertyFilter@UPvdClassInfoDefine@Vd@physx@@@Vd@physx@@@PxBaseMaterialGeneratedInfo@physx@@QEBAIU?$PvdPropertyFilter@UPvdClassInfoDefine@Vd@physx@@@Vd@1@I@Z 0000000180016df0 f i PvdMetaDataPvdBinding.obj
 0001:00015e30       ??$visitInstanceProperties@U?$PvdPropertyFilter@UPvdClassInfoDefine@Vd@physx@@@Vd@physx@@@PxActorGeneratedInfo@physx@@QEBAIU?$PvdPropertyFilter@UPvdClassInfoDefine@Vd@physx@@@Vd@1@I@Z 0000000180016e30 f i PvdMetaDataPvdBinding.obj
 0001:00016030       ??$visitInstanceProperties@U?$PvdPropertyFilter@UPvdClassInfoDefine@Vd@physx@@@Vd@physx@@@PxAggregateGeneratedInfo@physx@@QEBAIU?$PvdPropertyFilter@UPvdClassInfoDefine@Vd@physx@@@Vd@1@I@Z 0000000180017030 f i PvdMetaDataPvdBinding.obj
 0001:00016200       ??$visitInstanceProperties@U?$PvdPropertyFilter@UPvdClassInfoDefine@Vd@physx@@@Vd@physx@@@PxArticulationDriveGeneratedInfo@physx@@QEBAIU?$PvdPropertyFilter@UPvdClassInfoDefine@Vd@physx@@@Vd@1@I@Z 0000000180017200 f i PvdMetaDataPvdBinding.obj
 0001:00016400       ??$visitInstanceProperties@U?$PvdPropertyFilter@UPvdClassInfoDefine@Vd@physx@@@Vd@physx@@@PxArticulationJointReducedCoordinateGeneratedInfo@physx@@QEBAIU?$PvdPropertyFilter@UPvdClassInfoDefine@Vd@physx@@@Vd@1@I@Z 0000000180017400 f i PvdMetaDataPvdBinding.obj
 0001:00016c60       ??$visitInstanceProperties@U?$PvdPropertyFilter@UPvdClassInfoDefine@Vd@physx@@@Vd@physx@@@PxArticulationLinkGeneratedInfo@physx@@QEBAIU?$PvdPropertyFilter@UPvdClassInfoDefine@Vd@physx@@@Vd@1@I@Z 0000000180017c60 f i PvdMetaDataPvdBinding.obj
 0001:00016ef0       ??$visitInstanceProperties@U?$PvdPropertyFilter@UPvdClassInfoDefine@Vd@physx@@@Vd@physx@@@PxArticulationReducedCoordinateGeneratedInfo@physx@@QEBAIU?$PvdPropertyFilter@UPvdClassInfoDefine@Vd@physx@@@Vd@1@I@Z 0000000180017ef0 f i PvdMetaDataPvdBinding.obj
 0001:00017460       ??$visitInstanceProperties@U?$PvdPropertyFilter@UPvdClassInfoDefine@Vd@physx@@@Vd@physx@@@PxConstraintGeneratedInfo@physx@@QEBAIU?$PvdPropertyFilter@UPvdClassInfoDefine@Vd@physx@@@Vd@1@I@Z 0000000180018460 f i PvdMetaDataPvdBinding.obj
 0001:00017820       ??$visitInstanceProperties@U?$PvdPropertyFilter@UPvdClassInfoDefine@Vd@physx@@@Vd@physx@@@PxConvexMeshGeometryGeneratedInfo@physx@@QEBAIU?$PvdPropertyFilter@UPvdClassInfoDefine@Vd@physx@@@Vd@1@I@Z 0000000180018820 f i PvdMetaDataPvdBinding.obj
 0001:00017a10       ??$visitInstanceProperties@U?$PvdPropertyFilter@UPvdClassInfoDefine@Vd@physx@@@Vd@physx@@@PxFEMSoftBodyMaterialGeneratedInfo@physx@@QEBAIU?$PvdPropertyFilter@UPvdClassInfoDefine@Vd@physx@@@Vd@1@I@Z 0000000180018a10 f i PvdMetaDataPvdBinding.obj
 0001:00017c30       ??$visitInstanceProperties@U?$PvdPropertyFilter@UPvdClassInfoDefine@Vd@physx@@@Vd@physx@@@PxHeightFieldDescGeneratedInfo@physx@@QEBAIU?$PvdPropertyFilter@UPvdClassInfoDefine@Vd@physx@@@Vd@1@I@Z 0000000180018c30 f i PvdMetaDataPvdBinding.obj
 0001:00017f00       ??$visitInstanceProperties@U?$PvdPropertyFilter@UPvdClassInfoDefine@Vd@physx@@@Vd@physx@@@PxHeightFieldGeometryGeneratedInfo@physx@@QEBAIU?$PvdPropertyFilter@UPvdClassInfoDefine@Vd@physx@@@Vd@1@I@Z 0000000180018f00 f i PvdMetaDataPvdBinding.obj
 0001:00018160       ??$visitInstanceProperties@U?$PvdPropertyFilter@UPvdClassInfoDefine@Vd@physx@@@Vd@physx@@@PxMaterialGeneratedInfo@physx@@QEBAIU?$PvdPropertyFilter@UPvdClassInfoDefine@Vd@physx@@@Vd@1@I@Z 0000000180019160 f i PvdMetaDataPvdBinding.obj
 0001:00018530       ??$visitInstanceProperties@U?$PvdPropertyFilter@UPvdClassInfoDefine@Vd@physx@@@Vd@physx@@@PxMeshScaleGeneratedInfo@physx@@QEBAIU?$PvdPropertyFilter@UPvdClassInfoDefine@Vd@physx@@@Vd@1@I@Z 0000000180019530 f i PvdMetaDataPvdBinding.obj
 0001:00018640       ??$visitInstanceProperties@U?$PvdPropertyFilter@UPvdClassInfoDefine@Vd@physx@@@Vd@physx@@@PxRefCountedGeneratedInfo@physx@@QEBAIU?$PvdPropertyFilter@UPvdClassInfoDefine@Vd@physx@@@Vd@1@I@Z 0000000180019640 f i PvdMetaDataPvdBinding.obj
 0001:000186d0       ??$visitInstanceProperties@U?$PvdPropertyFilter@UPvdClassInfoDefine@Vd@physx@@@Vd@physx@@@PxRigidBodyGeneratedInfo@physx@@QEBAIU?$PvdPropertyFilter@UPvdClassInfoDefine@Vd@physx@@@Vd@1@I@Z 00000001800196d0 f i PvdMetaDataPvdBinding.obj
 0001:00018c70       ??$visitInstanceProperties@U?$PvdPropertyFilter@UPvdClassInfoDefine@Vd@physx@@@Vd@physx@@@PxRigidDynamicGeneratedInfo@physx@@QEBAIU?$PvdPropertyFilter@UPvdClassInfoDefine@Vd@physx@@@Vd@1@I@Z 0000000180019c70 f i PvdMetaDataPvdBinding.obj
 0001:00019130       ??$visitInstanceProperties@U?$PvdPropertyFilter@UPvdClassInfoDefine@Vd@physx@@@Vd@physx@@@PxSceneDescGeneratedInfo@physx@@QEBAIU?$PvdPropertyFilter@UPvdClassInfoDefine@Vd@physx@@@Vd@1@I@Z 000000018001a130 f i PvdMetaDataPvdBinding.obj
 0001:00019e00       ??$visitInstanceProperties@U?$PvdPropertyFilter@UPvdClassInfoDefine@Vd@physx@@@Vd@physx@@@PxSceneLimitsGeneratedInfo@physx@@QEBAIU?$PvdPropertyFilter@UPvdClassInfoDefine@Vd@physx@@@Vd@1@I@Z 000000018001ae00 f i PvdMetaDataPvdBinding.obj
 0001:0001a120       ??$visitInstanceProperties@U?$PvdPropertyFilter@UPvdClassInfoDefine@Vd@physx@@@Vd@physx@@@PxSceneQueryDescGeneratedInfo@physx@@QEBAIU?$PvdPropertyFilter@UPvdClassInfoDefine@Vd@physx@@@Vd@1@I@Z 000000018001b120 f i PvdMetaDataPvdBinding.obj
 0001:0001a640       ??$visitInstanceProperties@U?$PvdPropertyFilter@UPvdClassInfoDefine@Vd@physx@@@Vd@physx@@@PxShapeGeneratedInfo@physx@@QEBAIU?$PvdPropertyFilter@UPvdClassInfoDefine@Vd@physx@@@Vd@1@I@Z 000000018001b640 f i PvdMetaDataPvdBinding.obj
 0001:0001ab90       ??$visitInstanceProperties@U?$PvdPropertyFilter@UPvdClassInfoDefine@Vd@physx@@@Vd@physx@@@PxSimulationStatisticsGeneratedInfo@physx@@QEBAIU?$PvdPropertyFilter@UPvdClassInfoDefine@Vd@physx@@@Vd@1@I@Z 000000018001bb90 f i PvdMetaDataPvdBinding.obj
 0001:0001bfa0       ??$visitInstanceProperties@U?$PvdPropertyFilter@UPvdClassInfoDefine@Vd@physx@@@Vd@physx@@@PxTriangleMeshGeometryGeneratedInfo@physx@@QEBAIU?$PvdPropertyFilter@UPvdClassInfoDefine@Vd@physx@@@Vd@1@I@Z 000000018001cfa0 f i PvdMetaDataPvdBinding.obj
 0001:0001c1a0       ??$visitInstanceProperties@U?$PvdPropertyFilter@UPvdClassInfoDefine@Vd@physx@@@Vd@physx@@@PxgDynamicsMemoryConfigGeneratedInfo@physx@@QEBAIU?$PvdPropertyFilter@UPvdClassInfoDefine@Vd@physx@@@Vd@1@I@Z 000000018001d1a0 f i PvdMetaDataPvdBinding.obj
 0001:0001c690       ??$visitInstanceProperties@U?$PvdPropertyFilter@UPvdClassInfoValueStructDefine@Vd@physx@@@Vd@physx@@@PxActorGeneratedInfo@physx@@QEBAIU?$PvdPropertyFilter@UPvdClassInfoValueStructDefine@Vd@physx@@@Vd@1@I@Z 000000018001d690 f i PvdMetaDataPvdBinding.obj
 0001:0001c840       ??$visitInstanceProperties@U?$PvdPropertyFilter@UPvdClassInfoValueStructDefine@Vd@physx@@@Vd@physx@@@PxAggregateGeneratedInfo@physx@@QEBAIU?$PvdPropertyFilter@UPvdClassInfoValueStructDefine@Vd@physx@@@Vd@1@I@Z 000000018001d840 f i PvdMetaDataPvdBinding.obj
 0001:0001ca10       ??$visitInstanceProperties@U?$PvdPropertyFilter@UPvdClassInfoValueStructDefine@Vd@physx@@@Vd@physx@@@PxArticulationDriveGeneratedInfo@physx@@QEBAIU?$PvdPropertyFilter@UPvdClassInfoValueStructDefine@Vd@physx@@@Vd@1@I@Z 000000018001da10 f i PvdMetaDataPvdBinding.obj
 0001:0001cbd0       ??$visitInstanceProperties@U?$PvdPropertyFilter@UPvdClassInfoValueStructDefine@Vd@physx@@@Vd@physx@@@PxArticulationJointReducedCoordinateGeneratedInfo@physx@@QEBAIU?$PvdPropertyFilter@UPvdClassInfoValueStructDefine@Vd@physx@@@Vd@1@I@Z 000000018001dbd0 f i PvdMetaDataPvdBinding.obj
 0001:0001d3c0       ??$visitInstanceProperties@U?$PvdPropertyFilter@UPvdClassInfoValueStructDefine@Vd@physx@@@Vd@physx@@@PxArticulationLinkGeneratedInfo@physx@@QEBAIU?$PvdPropertyFilter@UPvdClassInfoValueStructDefine@Vd@physx@@@Vd@1@I@Z 000000018001e3c0 f i PvdMetaDataPvdBinding.obj
 0001:0001d650       ??$visitInstanceProperties@U?$PvdPropertyFilter@UPvdClassInfoValueStructDefine@Vd@physx@@@Vd@physx@@@PxArticulationReducedCoordinateGeneratedInfo@physx@@QEBAIU?$PvdPropertyFilter@UPvdClassInfoValueStructDefine@Vd@physx@@@Vd@1@I@Z 000000018001e650 f i PvdMetaDataPvdBinding.obj
 0001:0001db60       ??$visitInstanceProperties@U?$PvdPropertyFilter@UPvdClassInfoValueStructDefine@Vd@physx@@@Vd@physx@@@PxConstraintGeneratedInfo@physx@@QEBAIU?$PvdPropertyFilter@UPvdClassInfoValueStructDefine@Vd@physx@@@Vd@1@I@Z 000000018001eb60 f i PvdMetaDataPvdBinding.obj
 0001:0001ded0       ??$visitInstanceProperties@U?$PvdPropertyFilter@UPvdClassInfoValueStructDefine@Vd@physx@@@Vd@physx@@@PxFEMSoftBodyMaterialGeneratedInfo@physx@@QEBAIU?$PvdPropertyFilter@UPvdClassInfoValueStructDefine@Vd@physx@@@Vd@1@I@Z 000000018001eed0 f i PvdMetaDataPvdBinding.obj
 0001:0001e0b0       ??$visitInstanceProperties@U?$PvdPropertyFilter@UPvdClassInfoValueStructDefine@Vd@physx@@@Vd@physx@@@PxHeightFieldDescGeneratedInfo@physx@@QEBAIU?$PvdPropertyFilter@UPvdClassInfoValueStructDefine@Vd@physx@@@Vd@1@I@Z 000000018001f0b0 f i PvdMetaDataPvdBinding.obj
 0001:0001e300       ??$visitInstanceProperties@U?$PvdPropertyFilter@UPvdClassInfoValueStructDefine@Vd@physx@@@Vd@physx@@@PxHeightFieldGeometryGeneratedInfo@physx@@QEBAIU?$PvdPropertyFilter@UPvdClassInfoValueStructDefine@Vd@physx@@@Vd@1@I@Z 000000018001f300 f i PvdMetaDataPvdBinding.obj
 0001:0001e500       ??$visitInstanceProperties@U?$PvdPropertyFilter@UPvdClassInfoValueStructDefine@Vd@physx@@@Vd@physx@@@PxMaterialGeneratedInfo@physx@@QEBAIU?$PvdPropertyFilter@UPvdClassInfoValueStructDefine@Vd@physx@@@Vd@1@I@Z 000000018001f500 f i PvdMetaDataPvdBinding.obj
 0001:0001e840       ??$visitInstanceProperties@U?$PvdPropertyFilter@UPvdClassInfoValueStructDefine@Vd@physx@@@Vd@physx@@@PxMeshScaleGeneratedInfo@physx@@QEBAIU?$PvdPropertyFilter@UPvdClassInfoValueStructDefine@Vd@physx@@@Vd@1@I@Z 000000018001f840 f i PvdMetaDataPvdBinding.obj
 0001:0001e950       ??$visitInstanceProperties@U?$PvdPropertyFilter@UPvdClassInfoValueStructDefine@Vd@physx@@@Vd@physx@@@PxRefCountedGeneratedInfo@physx@@QEBAIU?$PvdPropertyFilter@UPvdClassInfoValueStructDefine@Vd@physx@@@Vd@1@I@Z 000000018001f950 f i PvdMetaDataPvdBinding.obj
 0001:0001e9d0       ??$visitInstanceProperties@U?$PvdPropertyFilter@UPvdClassInfoValueStructDefine@Vd@physx@@@Vd@physx@@@PxRigidBodyGeneratedInfo@physx@@QEBAIU?$PvdPropertyFilter@UPvdClassInfoValueStructDefine@Vd@physx@@@Vd@1@I@Z 000000018001f9d0 f i PvdMetaDataPvdBinding.obj
 0001:0001ef30       ??$visitInstanceProperties@U?$PvdPropertyFilter@UPvdClassInfoValueStructDefine@Vd@physx@@@Vd@physx@@@PxRigidDynamicGeneratedInfo@physx@@QEBAIU?$PvdPropertyFilter@UPvdClassInfoValueStructDefine@Vd@physx@@@Vd@1@I@Z 000000018001ff30 f i PvdMetaDataPvdBinding.obj
 0001:0001f380       ??$visitInstanceProperties@U?$PvdPropertyFilter@UPvdClassInfoValueStructDefine@Vd@physx@@@Vd@physx@@@PxSceneDescGeneratedInfo@physx@@QEBAIU?$PvdPropertyFilter@UPvdClassInfoValueStructDefine@Vd@physx@@@Vd@1@I@Z 0000000180020380 f i PvdMetaDataPvdBinding.obj
 0001:0001fe90       ??$visitInstanceProperties@U?$PvdPropertyFilter@UPvdClassInfoValueStructDefine@Vd@physx@@@Vd@physx@@@PxSceneLimitsGeneratedInfo@physx@@QEBAIU?$PvdPropertyFilter@UPvdClassInfoValueStructDefine@Vd@physx@@@Vd@1@I@Z 0000000180020e90 f i PvdMetaDataPvdBinding.obj
 0001:000201b0       ??$visitInstanceProperties@U?$PvdPropertyFilter@UPvdClassInfoValueStructDefine@Vd@physx@@@Vd@physx@@@PxSceneQueryDescGeneratedInfo@physx@@QEBAIU?$PvdPropertyFilter@UPvdClassInfoValueStructDefine@Vd@physx@@@Vd@1@I@Z 00000001800211b0 f i PvdMetaDataPvdBinding.obj
 0001:00020590       ??$visitInstanceProperties@U?$PvdPropertyFilter@UPvdClassInfoValueStructDefine@Vd@physx@@@Vd@physx@@@PxShapeGeneratedInfo@physx@@QEBAIU?$PvdPropertyFilter@UPvdClassInfoValueStructDefine@Vd@physx@@@Vd@1@I@Z 0000000180021590 f i PvdMetaDataPvdBinding.obj
 0001:00020a90       ??$visitInstanceProperties@U?$PvdPropertyFilter@UPvdClassInfoValueStructDefine@Vd@physx@@@Vd@physx@@@PxSimulationStatisticsGeneratedInfo@physx@@QEBAIU?$PvdPropertyFilter@UPvdClassInfoValueStructDefine@Vd@physx@@@Vd@1@I@Z 0000000180021a90 f i PvdMetaDataPvdBinding.obj
 0001:00021e30       ??$visitInstanceProperties@U?$PvdPropertyFilter@UPvdClassInfoValueStructDefine@Vd@physx@@@Vd@physx@@@PxgDynamicsMemoryConfigGeneratedInfo@physx@@QEBAIU?$PvdPropertyFilter@UPvdClassInfoValueStructDefine@Vd@physx@@@Vd@1@I@Z 0000000180022e30 f i PvdMetaDataPvdBinding.obj
 0001:00022320       ??0?$ScopedPropertyValueSender@UPvdOverlap@Vd@physx@@$0CA@U123@U?$NullConverter@UPvdOverlap@Vd@physx@@@23@@Vd@physx@@QEAA@AEAVPvdDataStream@pvdsdk@2@PEBXPEBD@Z 0000000180023320 f i PvdMetaDataPvdBinding.obj
 0001:00022540       ??0?$ScopedPropertyValueSender@UPvdRaycast@Vd@physx@@$0CA@U123@U?$NullConverter@UPvdRaycast@Vd@physx@@@23@@Vd@physx@@QEAA@AEAVPvdDataStream@pvdsdk@2@PEBXPEBD@Z 0000000180023540 f i PvdMetaDataPvdBinding.obj
 0001:00022760       ??0?$ScopedPropertyValueSender@UPvdSqHit@Vd@physx@@$0CA@U123@U?$NullConverter@UPvdSqHit@Vd@physx@@@23@@Vd@physx@@QEAA@AEAVPvdDataStream@pvdsdk@2@PEBXPEBD@Z 0000000180023760 f i PvdMetaDataPvdBinding.obj
 0001:00022b70       ??0?$ScopedPropertyValueSender@UPxFilterData@physx@@$0CA@U12@U?$NullConverter@UPxFilterData@physx@@@Vd@2@@Vd@physx@@QEAA@AEAVPvdDataStream@pvdsdk@2@PEBXPEBD@Z 0000000180023b70 f i PvdMetaDataPvdBinding.obj
 0001:00022d70       ??0PvdMetaDataBinding@Vd@physx@@QEAA@XZ 0000000180023d70 f   PvdMetaDataPvdBinding.obj
 0001:00022e90       ??0PxSimulationStatistics@physx@@QEAA@XZ 0000000180023e90 f i PvdMetaDataPvdBinding.obj
 0001:00023020       ??1PvdMetaDataBinding@Vd@physx@@QEAA@XZ 0000000180024020 f   PvdMetaDataPvdBinding.obj
 0001:00023170       ??_EChangeOjectRefCmd@Vd@physx@@UEAAPEAXI@Z 0000000180024170 f i PvdMetaDataPvdBinding.obj
 0001:00023170       ??_GChangeOjectRefCmd@Vd@physx@@UEAAPEAXI@Z 0000000180024170 f i PvdMetaDataPvdBinding.obj
 0001:000231a0       ??_EPvdCommand@PvdInstanceDataStream@pvdsdk@physx@@UEAAPEAXI@Z 00000001800241a0 f i PvdMetaDataPvdBinding.obj
 0001:000231a0       ??_GPvdCommand@PvdInstanceDataStream@pvdsdk@physx@@UEAAPEAXI@Z 00000001800241a0 f i PvdMetaDataPvdBinding.obj
 0001:000231d0       ??_GPvdMetaDataBindingData@Vd@physx@@QEAAPEAXI@Z 00000001800241d0 f i PvdMetaDataPvdBinding.obj
 0001:00023320       ?allocate@?$PxArray@PEAVPxShape@physx@@V?$PxInlineAllocator@$0CI@V?$PxReflectionAllocator@PEAVPxShape@physx@@@physx@@@2@@physx@@IEAAPEAPEAVPxShape@2@I@Z 0000000180024320 f i PvdMetaDataPvdBinding.obj
 0001:000233d0       ?append@?$ScopedPropertyValueSender@UPvdSqHit@Vd@physx@@$0CA@U123@U?$NullConverter@UPvdSqHit@Vd@physx@@@23@@Vd@physx@@QEAAXAEBUPvdSqHit@23@@Z 00000001800243d0 f i PvdMetaDataPvdBinding.obj
 0001:00023490       ?attachAggregateActor@PvdMetaDataBinding@Vd@physx@@QEAAXAEAVPvdDataStream@pvdsdk@3@AEBVPxAggregate@3@AEBVPxActor@3@@Z 0000000180024490 f   PvdMetaDataPvdBinding.obj
 0001:000234b0       ?canRun@ChangeOjectRefCmd@Vd@physx@@UEAA_NAEAVPvdInstanceDataStream@pvdsdk@3@@Z 00000001800244b0 f i PvdMetaDataPvdBinding.obj
 0001:000234d0       ?canRun@PvdCommand@PvdInstanceDataStream@pvdsdk@physx@@UEAA_NAEAV234@@Z 00000001800244d0 f i PvdMetaDataPvdBinding.obj
 0001:000234d0       ?getOutOfBoundsObjects@AABBManagerBase@Bp@physx@@UEAA_NAEAUOutOfBoundsData@123@@Z 00000001800244d0 f i LowLevelAABB_static_64:BpAABBManagerBase.obj
 0001:000234d0       ?hasFEMCloth@PxsSimulationController@physx@@UEBA_NXZ 00000001800244d0 f i SimulationController_static_64:ScScene.obj
 0001:000234d0       ?hasHairSystems@PxsSimulationController@physx@@UEBA_NXZ 00000001800244d0 f i SimulationController_static_64:ScScene.obj
 0001:000234d0       ?hasSoftBodies@PxsSimulationController@physx@@UEBA_NXZ 00000001800244d0 f i SimulationController_static_64:ScScene.obj
 0001:000234d0       ?isSubordinate@?$PxSerializerDefaultAdapter@VBV4TriangleMesh@Gu@physx@@@physx@@UEBA_NXZ 00000001800244d0 f i NpSerializerAdapter.obj
 0001:000234d0       ?isSubordinate@?$PxSerializerDefaultAdapter@VConvexMesh@Gu@physx@@@physx@@UEBA_NXZ 00000001800244d0 f i NpSerializerAdapter.obj
 0001:000234d0       ?isSubordinate@?$PxSerializerDefaultAdapter@VHeightField@Gu@physx@@@physx@@UEBA_NXZ 00000001800244d0 f i NpSerializerAdapter.obj
 0001:000234d0       ?isSubordinate@?$PxSerializerDefaultAdapter@VNpAggregate@physx@@@physx@@UEBA_NXZ 00000001800244d0 f i NpSerializerAdapter.obj
 0001:000234d0       ?isSubordinate@?$PxSerializerDefaultAdapter@VNpArticulationAttachment@physx@@@physx@@UEBA_NXZ 00000001800244d0 f i NpSerializerAdapter.obj
 0001:000234d0       ?isSubordinate@?$PxSerializerDefaultAdapter@VNpArticulationFixedTendon@physx@@@physx@@UEBA_NXZ 00000001800244d0 f i NpSerializerAdapter.obj
 0001:000234d0       ?isSubordinate@?$PxSerializerDefaultAdapter@VNpArticulationReducedCoordinate@physx@@@physx@@UEBA_NXZ 00000001800244d0 f i NpSerializerAdapter.obj
 0001:000234d0       ?isSubordinate@?$PxSerializerDefaultAdapter@VNpArticulationSensor@physx@@@physx@@UEBA_NXZ 00000001800244d0 f i NpSerializerAdapter.obj
 0001:000234d0       ?isSubordinate@?$PxSerializerDefaultAdapter@VNpArticulationSpatialTendon@physx@@@physx@@UEBA_NXZ 00000001800244d0 f i NpSerializerAdapter.obj
 0001:000234d0       ?isSubordinate@?$PxSerializerDefaultAdapter@VNpArticulationTendonJoint@physx@@@physx@@UEBA_NXZ 00000001800244d0 f i NpSerializerAdapter.obj
 0001:000234d0       ?isSubordinate@?$PxSerializerDefaultAdapter@VNpMaterial@physx@@@physx@@UEBA_NXZ 00000001800244d0 f i NpSerializerAdapter.obj
 0001:000234d0       ?isSubordinate@?$PxSerializerDefaultAdapter@VNpRigidDynamic@physx@@@physx@@UEBA_NXZ 00000001800244d0 f i NpSerializerAdapter.obj
 0001:000234d0       ?isSubordinate@?$PxSerializerDefaultAdapter@VNpRigidStatic@physx@@@physx@@UEBA_NXZ 00000001800244d0 f i NpSerializerAdapter.obj
 0001:000234d0       ?isSubordinate@?$PxSerializerDefaultAdapter@VNpShape@physx@@@physx@@UEBA_NXZ 00000001800244d0 f i NpSerializerAdapter.obj
 0001:000234d0       ?isSubordinate@?$PxSerializerDefaultAdapter@VPruningStructure@Sq@physx@@@physx@@UEBA_NXZ 00000001800244d0 f i NpSerializerAdapter.obj
 0001:000234d0       ?isSubordinate@?$PxSerializerDefaultAdapter@VRTreeTriangleMesh@Gu@physx@@@physx@@UEBA_NXZ 00000001800244d0 f i NpSerializerAdapter.obj
 0001:000234d0       ?processTouches@?$PxHitBuffer@UPxRaycastHit@physx@@@physx@@MEAA_NPEBUPxRaycastHit@2@I@Z 00000001800244d0 f i SceneQuery_static_64:SqQuery.obj
 0001:000234d0       ?processTouches@?$PxHitBuffer@UPxSweepHit@physx@@@physx@@MEAA_NPEBUPxSweepHit@2@I@Z 00000001800244d0 f i SceneQuery_static_64:SqQuery.obj
 0001:000234d0       ?removeRegion@BroadPhaseBase@Bp@physx@@UEAA_NI@Z 00000001800244d0 f i LowLevelAABB_static_64:BpBroadPhaseSap.obj
 0001:000234d0       ?update@PersistentPairs@Bp@physx@@UEAA_NAEAVAABBManager@23@PEAUBpCacheData@23@@Z 00000001800244d0 f i LowLevelAABB_static_64:BpAABBManager.obj
 0001:000235e0       ?create@?$PxHashBase@PEAVPxActor@physx@@PEAV12@U?$PxHash@PEAVPxActor@physx@@@2@UGetKey@?$PxHashSetBase@PEAVPxActor@physx@@U?$PxHash@PEAVPxActor@physx@@@2@VPxAllocator@2@$0A@@2@VPxAllocator@2@$0A@@physx@@QEAAPEAPEAVPxActor@2@AEBQEAV32@AEA_N@Z 00000001800245e0 f i PvdMetaDataPvdBinding.obj
 0001:000235e0       ?create@?$PxHashBase@PEAVPxAggregate@physx@@PEAV12@U?$PxHash@PEAVPxAggregate@physx@@@2@UGetKey@?$PxHashSetBase@PEAVPxAggregate@physx@@U?$PxHash@PEAVPxAggregate@physx@@@2@VPxAllocator@2@$0A@@2@VPxAllocator@2@$0A@@physx@@QEAAPEAPEAVPxAggregate@2@AEBQEAV32@AEA_N@Z 00000001800245e0 f i NpFactory.obj
 0001:000235e0       ?create@?$PxHashBase@PEAVPxArticulationReducedCoordinate@physx@@PEAV12@U?$PxHash@PEAVPxArticulationReducedCoordinate@physx@@@2@UGetKey@?$PxHashSetBase@PEAVPxArticulationReducedCoordinate@physx@@U?$PxHash@PEAVPxArticulationReducedCoordinate@physx@@@2@VPxAllocator@2@$0A@@2@VPxAllocator@2@$0A@@physx@@QEAAPEAPEAVPxArticulationReducedCoordinate@2@AEBQEAV32@AEA_N@Z 00000001800245e0 f i NpFactory.obj
 0001:000235e0       ?create@?$PxHashBase@PEAVPxConstraint@physx@@PEAV12@U?$PxHash@PEAVPxConstraint@physx@@@2@UGetKey@?$PxHashSetBase@PEAVPxConstraint@physx@@U?$PxHash@PEAVPxConstraint@physx@@@2@VPxAllocator@2@$0A@@2@VPxAllocator@2@$0A@@physx@@QEAAPEAPEAVPxConstraint@2@AEBQEAV32@AEA_N@Z 00000001800245e0 f i NpFactory.obj
 0001:000235e0       ?create@?$PxHashBase@PEAVPxParticleBuffer@physx@@PEAV12@U?$PxHash@PEAVPxParticleBuffer@physx@@@2@UGetKey@?$PxHashSetBase@PEAVPxParticleBuffer@physx@@U?$PxHash@PEAVPxParticleBuffer@physx@@@2@VPxAllocator@2@$0A@@2@VPxAllocator@2@$0A@@physx@@QEAAPEAPEAVPxParticleBuffer@2@AEBQEAV32@AEA_N@Z 00000001800245e0 f i NpFactory.obj
 0001:000235e0       ?create@?$PxHashBase@PEBVPxBase@physx@@PEBV12@U?$PxHash@PEBVPxBase@physx@@@2@UGetKey@?$PxHashSetBase@PEBVPxBase@physx@@U?$PxHash@PEBVPxBase@physx@@@2@VPxAllocator@2@$0A@@2@VPxAllocator@2@$0A@@physx@@QEAAPEAPEBVPxBase@2@AEBQEBV32@AEA_N@Z 00000001800245e0 f i NpPhysics.obj
 0001:000235e0       ?create@?$PxHashBase@PEBVPxRigidActor@physx@@PEBV12@U?$PxHash@PEBVPxRigidActor@physx@@@2@UGetKey@?$PxHashSetBase@PEBVPxRigidActor@physx@@U?$PxHash@PEBVPxRigidActor@physx@@@2@VPxAllocator@2@$0A@@2@VPxAllocator@2@$0A@@physx@@QEAAPEAPEBVPxRigidActor@2@AEBQEBV32@AEA_N@Z 00000001800245e0 f i PvdMetaDataPvdBinding.obj
 0001:00023780       ?createInstance@PvdMetaDataBinding@Vd@physx@@QEAAXAEAVPvdDataStream@pvdsdk@3@AEBVPxAggregate@3@AEBVPxScene@3@@Z 0000000180024780 f   PvdMetaDataPvdBinding.obj
 0001:00023890       ?createInstance@PvdMetaDataBinding@Vd@physx@@QEAAXAEAVPvdDataStream@pvdsdk@3@AEBVPxArticulationReducedCoordinate@3@AEBVPxScene@3@AEBVPxPhysics@3@PEAVPsPvd@53@@Z 0000000180024890 f   PvdMetaDataPvdBinding.obj
 0001:00023dd0       ?createInstance@PvdMetaDataBinding@Vd@physx@@QEAAXAEAVPvdDataStream@pvdsdk@3@AEBVPxConvexMesh@3@AEBVPxPhysics@3@@Z 0000000180024dd0 f   PvdMetaDataPvdBinding.obj
 0001:000240e0       ?createInstance@PvdMetaDataBinding@Vd@physx@@QEAAXAEAVPvdDataStream@pvdsdk@3@AEBVPxFEMSoftBodyMaterial@3@AEBVPxPhysics@3@@Z 00000001800250e0 f   PvdMetaDataPvdBinding.obj
 0001:000241a0       ?createInstance@PvdMetaDataBinding@Vd@physx@@QEAAXAEAVPvdDataStream@pvdsdk@3@AEBVPxHeightField@3@AEBVPxPhysics@3@@Z 00000001800251a0 f   PvdMetaDataPvdBinding.obj
 0001:00024270       ?createInstance@PvdMetaDataBinding@Vd@physx@@QEAAXAEAVPvdDataStream@pvdsdk@3@AEBVPxMaterial@3@AEBVPxPhysics@3@@Z 0000000180025270 f   PvdMetaDataPvdBinding.obj
 0001:00024390       ?createInstance@PvdMetaDataBinding@Vd@physx@@QEAAXAEAVPvdDataStream@pvdsdk@3@AEBVPxRigidDynamic@3@AEBVPxScene@3@AEBVPxPhysics@3@PEAVPsPvd@53@@Z 0000000180025390 f   PvdMetaDataPvdBinding.obj
 0001:00024490       ?createInstance@PvdMetaDataBinding@Vd@physx@@QEAAXAEAVPvdDataStream@pvdsdk@3@AEBVPxRigidStatic@3@AEBVPxScene@3@AEBVPxPhysics@3@PEAVPsPvd@53@@Z 0000000180025490 f   PvdMetaDataPvdBinding.obj
 0001:00024590       ?createInstance@PvdMetaDataBinding@Vd@physx@@QEAAXAEAVPvdDataStream@pvdsdk@3@AEBVPxShape@3@AEBVPxRigidActor@3@AEBVPxPhysics@3@PEAVPsPvd@53@@Z 0000000180025590 f   PvdMetaDataPvdBinding.obj
 0001:000249c0       ?createInstance@PvdMetaDataBinding@Vd@physx@@QEAAXAEAVPvdDataStream@pvdsdk@3@AEBVPxTetrahedronMesh@3@AEBVPxPhysics@3@@Z 00000001800259c0 f   PvdMetaDataPvdBinding.obj
 0001:00024b90       ?createInstance@PvdMetaDataBinding@Vd@physx@@QEAAXAEAVPvdDataStream@pvdsdk@3@AEBVPxTriangleMesh@3@AEBVPxPhysics@3@@Z 0000000180025b90 f   PvdMetaDataPvdBinding.obj
 0001:00024e30       ?destroyInstance@PvdMetaDataBinding@Vd@physx@@QEAAXAEAVPvdDataStream@pvdsdk@3@AEBVPxAggregate@3@AEBVPxScene@3@@Z 0000000180025e30 f   PvdMetaDataPvdBinding.obj
 0001:00024e70       ?destroyInstance@PvdMetaDataBinding@Vd@physx@@QEAAXAEAVPvdDataStream@pvdsdk@3@AEBVPxArticulationLink@3@@Z 0000000180025e70 f   PvdMetaDataPvdBinding.obj
 0001:00024ed0       ?destroyInstance@PvdMetaDataBinding@Vd@physx@@QEAAXAEAVPvdDataStream@pvdsdk@3@AEBVPxArticulationReducedCoordinate@3@AEBVPxScene@3@@Z 0000000180025ed0 f   PvdMetaDataPvdBinding.obj
 0001:00024f10       ?destroyInstance@PvdMetaDataBinding@Vd@physx@@QEAAXAEAVPvdDataStream@pvdsdk@3@AEBVPxConvexMesh@3@AEBVPxPhysics@3@@Z 0000000180025f10 f   PvdMetaDataPvdBinding.obj
 0001:00024f50       ?destroyInstance@PvdMetaDataBinding@Vd@physx@@QEAAXAEAVPvdDataStream@pvdsdk@3@AEBVPxHeightField@3@AEBVPxPhysics@3@@Z 0000000180025f50 f   PvdMetaDataPvdBinding.obj
 0001:00024f90       ?destroyInstance@PvdMetaDataBinding@Vd@physx@@QEAAXAEAVPvdDataStream@pvdsdk@3@AEBVPxMaterial@3@AEBVPxPhysics@3@@Z 0000000180025f90 f   PvdMetaDataPvdBinding.obj
 0001:00024fd0       ?destroyInstance@PvdMetaDataBinding@Vd@physx@@QEAAXAEAVPvdDataStream@pvdsdk@3@AEBVPxRigidDynamic@3@AEBVPxScene@3@@Z 0000000180025fd0 f   PvdMetaDataPvdBinding.obj
 0001:00025020       ?destroyInstance@PvdMetaDataBinding@Vd@physx@@QEAAXAEAVPvdDataStream@pvdsdk@3@AEBVPxRigidStatic@3@AEBVPxScene@3@@Z 0000000180026020 f   PvdMetaDataPvdBinding.obj
 0001:00025070       ?destroyInstance@PvdMetaDataBinding@Vd@physx@@QEAAXAEAVPvdDataStream@pvdsdk@3@AEBVPxShape@3@AEBVPxRigidActor@3@@Z 0000000180026070 f   PvdMetaDataPvdBinding.obj
 0001:00025420       ?destroyInstance@PvdMetaDataBinding@Vd@physx@@QEAAXAEAVPvdDataStream@pvdsdk@3@AEBVPxTetrahedronMesh@3@AEBVPxPhysics@3@@Z 0000000180026420 f   PvdMetaDataPvdBinding.obj
 0001:00025460       ?destroyInstance@PvdMetaDataBinding@Vd@physx@@QEAAXAEAVPvdDataStream@pvdsdk@3@AEBVPxTriangleMesh@3@AEBVPxPhysics@3@@Z 0000000180026460 f   PvdMetaDataPvdBinding.obj
 0001:000254a0       ?detachAggregateActor@PvdMetaDataBinding@Vd@physx@@QEAAXAEAVPvdDataStream@pvdsdk@3@AEBVPxAggregate@3@AEBVPxActor@3@@Z 00000001800264a0 f   PvdMetaDataPvdBinding.obj
 0001:000254c0       ?erase@?$PxHashBase@V?$PxPair@QEAVPxDeletionListener@physx@@PEAUNpDelListenerEntry@NpPhysics@2@@physx@@PEAVPxDeletionListener@2@U?$PxHash@PEAVPxDeletionListener@physx@@@2@UGetKey@?$PxHashMapBase@PEAVPxDeletionListener@physx@@PEAUNpDelListenerEntry@NpPhysics@2@U?$PxHash@PEAVPxDeletionListener@physx@@@2@VPxAllocator@2@@2@VPxAllocator@2@$00@physx@@QEAA_NAEBQEAVPxDeletionListener@2@@Z 00000001800264c0 f i NpPhysics.obj
 0001:000254c0       ?erase@?$PxHashBase@V?$PxPair@QEBVPxShape@physx@@PEAV?$PxHashSet@PEBVPxRigidActor@physx@@U?$PxHash@PEBVPxRigidActor@physx@@@2@VPxAllocator@2@@2@@physx@@PEBVPxShape@2@U?$PxHash@PEBVPxShape@physx@@@2@UGetKey@?$PxHashMapBase@PEBVPxShape@physx@@PEAV?$PxHashSet@PEBVPxRigidActor@physx@@U?$PxHash@PEBVPxRigidActor@physx@@@2@VPxAllocator@2@@2@U?$PxHash@PEBVPxShape@physx@@@2@VPxAllocator@2@@2@VPxAllocator@2@$00@physx@@QEAA_NAEBQEBVPxShape@2@@Z 00000001800264c0 f i PvdMetaDataPvdBinding.obj
 0001:00025670       ?erase@?$PxHashSetBase@PEAVPxActor@physx@@U?$PxHash@PEAVPxActor@physx@@@2@VPxAllocator@2@$0A@@physx@@QEAA_NAEBQEAVPxActor@2@@Z 0000000180026670 f i PvdMetaDataPvdBinding.obj
 0001:00025740       ?find@?$PxHashMapBase@PEBVPxShape@physx@@PEAV?$PxHashSet@PEBVPxRigidActor@physx@@U?$PxHash@PEBVPxRigidActor@physx@@@2@VPxAllocator@2@@2@U?$PxHash@PEBVPxShape@physx@@@2@VPxAllocator@2@@physx@@QEBAPEBV?$PxPair@QEBVPxShape@physx@@PEAV?$PxHashSet@PEBVPxRigidActor@physx@@U?$PxHash@PEBVPxRigidActor@physx@@@2@VPxAllocator@2@@2@@2@AEBQEBVPxShape@2@@Z 0000000180026740 f i PvdMetaDataPvdBinding.obj
 0001:000257e0       ?originShift@PvdMetaDataBinding@Vd@physx@@QEAAXAEAVPvdDataStream@pvdsdk@3@PEBVPxScene@3@V?$PxVec3T@M@3@@Z 00000001800267e0 f   PvdMetaDataPvdBinding.obj
 0001:00025830       ?recreate@?$PxArray@EV?$PxReflectionAllocator@E@physx@@@physx@@IEAAXI@Z 0000000180026830 f i PvdMetaDataPvdBinding.obj
 0001:00025920       ?recreate@?$PxArray@PEAVPxArticulationLink@physx@@V?$PxReflectionAllocator@PEAVPxArticulationLink@physx@@@2@@physx@@IEAAXI@Z 0000000180026920 f i PvdMetaDataPvdBinding.obj
 0001:00025a10       ?recreate@?$PxArray@PEAVPxShape@physx@@V?$PxInlineAllocator@$0CI@V?$PxReflectionAllocator@PEAVPxShape@physx@@@physx@@@2@@physx@@IEAAXI@Z 0000000180026a10 f i PvdMetaDataPvdBinding.obj
 0001:00025ab0       ?registerSDKProperties@PvdMetaDataBinding@Vd@physx@@QEAAXAEAVPvdDataStream@pvdsdk@3@@Z 0000000180026ab0 f   PvdMetaDataPvdBinding.obj
 0001:0002a0e0       ?releaseAndRecreateGeometry@PvdMetaDataBinding@Vd@physx@@QEAAXAEAVPvdDataStream@pvdsdk@3@AEBVPxShape@3@AEAVPxPhysics@3@PEAVPsPvd@53@@Z 000000018002b0e0 f   PvdMetaDataPvdBinding.obj
 0001:0002a2b0       ?reserveInternal@?$PxHashBase@PEAVPxActor@physx@@PEAV12@U?$PxHash@PEAVPxActor@physx@@@2@UGetKey@?$PxHashSetBase@PEAVPxActor@physx@@U?$PxHash@PEAVPxActor@physx@@@2@VPxAllocator@2@$0A@@2@VPxAllocator@2@$0A@@physx@@AEAAXI@Z 000000018002b2b0 f i PvdMetaDataPvdBinding.obj
 0001:0002a2b0       ?reserveInternal@?$PxHashBase@PEAVPxAggregate@physx@@PEAV12@U?$PxHash@PEAVPxAggregate@physx@@@2@UGetKey@?$PxHashSetBase@PEAVPxAggregate@physx@@U?$PxHash@PEAVPxAggregate@physx@@@2@VPxAllocator@2@$0A@@2@VPxAllocator@2@$0A@@physx@@AEAAXI@Z 000000018002b2b0 f i NpFactory.obj
 0001:0002a2b0       ?reserveInternal@?$PxHashBase@PEAVPxArticulationReducedCoordinate@physx@@PEAV12@U?$PxHash@PEAVPxArticulationReducedCoordinate@physx@@@2@UGetKey@?$PxHashSetBase@PEAVPxArticulationReducedCoordinate@physx@@U?$PxHash@PEAVPxArticulationReducedCoordinate@physx@@@2@VPxAllocator@2@$0A@@2@VPxAllocator@2@$0A@@physx@@AEAAXI@Z 000000018002b2b0 f i NpFactory.obj
 0001:0002a2b0       ?reserveInternal@?$PxHashBase@PEAVPxConstraint@physx@@PEAV12@U?$PxHash@PEAVPxConstraint@physx@@@2@UGetKey@?$PxHashSetBase@PEAVPxConstraint@physx@@U?$PxHash@PEAVPxConstraint@physx@@@2@VPxAllocator@2@$0A@@2@VPxAllocator@2@$0A@@physx@@AEAAXI@Z 000000018002b2b0 f i NpFactory.obj
 0001:0002a2b0       ?reserveInternal@?$PxHashBase@PEAVPxParticleBuffer@physx@@PEAV12@U?$PxHash@PEAVPxParticleBuffer@physx@@@2@UGetKey@?$PxHashSetBase@PEAVPxParticleBuffer@physx@@U?$PxHash@PEAVPxParticleBuffer@physx@@@2@VPxAllocator@2@$0A@@2@VPxAllocator@2@$0A@@physx@@AEAAXI@Z 000000018002b2b0 f i NpFactory.obj
 0001:0002a2b0       ?reserveInternal@?$PxHashBase@PEBVPxBase@physx@@PEBV12@U?$PxHash@PEBVPxBase@physx@@@2@UGetKey@?$PxHashSetBase@PEBVPxBase@physx@@U?$PxHash@PEBVPxBase@physx@@@2@VPxAllocator@2@$0A@@2@VPxAllocator@2@$0A@@physx@@AEAAXI@Z 000000018002b2b0 f i NpPhysics.obj
 0001:0002a2b0       ?reserveInternal@?$PxHashBase@PEBVPxRigidActor@physx@@PEBV12@U?$PxHash@PEBVPxRigidActor@physx@@@2@UGetKey@?$PxHashSetBase@PEBVPxRigidActor@physx@@U?$PxHash@PEBVPxRigidActor@physx@@@2@VPxAllocator@2@$0A@@2@VPxAllocator@2@$0A@@physx@@AEAAXI@Z 000000018002b2b0 f i PvdMetaDataPvdBinding.obj
 0001:0002a6a0       ?resize@?$PxArray@EV?$PxReflectionAllocator@E@physx@@@physx@@QEAAXIAEBE@Z 000000018002b6a0 f i PvdMetaDataPvdBinding.obj
 0001:0002a760       ?resize@?$PxArray@PEAVPxArticulationLink@physx@@V?$PxReflectionAllocator@PEAVPxArticulationLink@physx@@@2@@physx@@QEAAXIAEBQEAVPxArticulationLink@2@@Z 000000018002b760 f i PvdMetaDataPvdBinding.obj
 0001:0002a820       ?resize@?$PxArray@PEAVPxShape@physx@@V?$PxInlineAllocator@$0CI@V?$PxReflectionAllocator@PEAVPxShape@physx@@@physx@@@2@@physx@@QEAAXIAEBQEAVPxShape@2@@Z 000000018002b820 f i PvdMetaDataPvdBinding.obj
 0001:0002a8e0       ?run@ChangeOjectRefCmd@Vd@physx@@UEAAXAEAVPvdInstanceDataStream@pvdsdk@3@@Z 000000018002b8e0 f i PvdMetaDataPvdBinding.obj
 0001:0002a960       ?sendAllProperties@PvdMetaDataBinding@Vd@physx@@QEAAXAEAVPvdDataStream@pvdsdk@3@AEBVPxAggregate@3@@Z 000000018002b960 f   PvdMetaDataPvdBinding.obj
 0001:0002a9d0       ?sendAllProperties@PvdMetaDataBinding@Vd@physx@@QEAAXAEAVPvdDataStream@pvdsdk@3@AEBVPxArticulationJointReducedCoordinate@3@@Z 000000018002b9d0 f   PvdMetaDataPvdBinding.obj
 0001:0002aa50       ?sendAllProperties@PvdMetaDataBinding@Vd@physx@@QEAAXAEAVPvdDataStream@pvdsdk@3@AEBVPxArticulationLink@3@@Z 000000018002ba50 f   PvdMetaDataPvdBinding.obj
 0001:0002aad0       ?sendAllProperties@PvdMetaDataBinding@Vd@physx@@QEAAXAEAVPvdDataStream@pvdsdk@3@AEBVPxArticulationReducedCoordinate@3@@Z 000000018002bad0 f   PvdMetaDataPvdBinding.obj
 0001:0002ab50       ?sendAllProperties@PvdMetaDataBinding@Vd@physx@@QEAAXAEAVPvdDataStream@pvdsdk@3@AEBVPxHeightField@3@@Z 000000018002bb50 f   PvdMetaDataPvdBinding.obj
 0001:0002acc0       ?sendAllProperties@PvdMetaDataBinding@Vd@physx@@QEAAXAEAVPvdDataStream@pvdsdk@3@AEBVPxMaterial@3@@Z 000000018002bcc0 f   PvdMetaDataPvdBinding.obj
 0001:0002ad40       ?sendAllProperties@PvdMetaDataBinding@Vd@physx@@QEAAXAEAVPvdDataStream@pvdsdk@3@AEBVPxPhysics@3@@Z 000000018002bd40 f   PvdMetaDataPvdBinding.obj
 0001:0002aed0       ?sendAllProperties@PvdMetaDataBinding@Vd@physx@@QEAAXAEAVPvdDataStream@pvdsdk@3@AEBVPxRigidDynamic@3@@Z 000000018002bed0 f   PvdMetaDataPvdBinding.obj
 0001:0002af50       ?sendAllProperties@PvdMetaDataBinding@Vd@physx@@QEAAXAEAVPvdDataStream@pvdsdk@3@AEBVPxRigidStatic@3@@Z 000000018002bf50 f   PvdMetaDataPvdBinding.obj
 0001:0002afd0       ?sendAllProperties@PvdMetaDataBinding@Vd@physx@@QEAAXAEAVPvdDataStream@pvdsdk@3@AEBVPxScene@3@@Z 000000018002bfd0 f   PvdMetaDataPvdBinding.obj
 0001:0002b420       ?sendAllProperties@PvdMetaDataBinding@Vd@physx@@QEAAXAEAVPvdDataStream@pvdsdk@3@AEBVPxShape@3@@Z 000000018002c420 f   PvdMetaDataPvdBinding.obj
 0001:0002b4a0       ?sendBeginFrame@PvdMetaDataBinding@Vd@physx@@QEAAXAEAVPvdDataStream@pvdsdk@3@PEBVPxScene@3@M@Z 000000018002c4a0 f   PvdMetaDataPvdBinding.obj
 0001:0002b590       ?sendContacts@PvdMetaDataBinding@Vd@physx@@QEAAXAEAVPvdDataStream@pvdsdk@3@AEBVPxScene@3@@Z 000000018002c590 f   PvdMetaDataPvdBinding.obj
 0001:0002b5f0       ?sendContacts@PvdMetaDataBinding@Vd@physx@@QEAAXAEAVPvdDataStream@pvdsdk@3@AEBVPxScene@3@AEAV?$PxArray@UContact@Sc@physx@@V?$PxReflectionAllocator@UContact@Sc@physx@@@3@@3@@Z 000000018002c5f0 f   PvdMetaDataPvdBinding.obj
 0001:0002b7a0       ?sendEndFrame@PvdMetaDataBinding@Vd@physx@@QEAAXAEAVPvdDataStream@pvdsdk@3@PEBVPxScene@3@@Z 000000018002c7a0 f   PvdMetaDataPvdBinding.obj
 0001:0002ba00       ?sendSceneQueries@PvdMetaDataBinding@Vd@physx@@QEAAXAEAVPvdDataStream@pvdsdk@3@AEBVPxScene@3@PEAVPsPvd@53@@Z 000000018002ca00 f   PvdMetaDataPvdBinding.obj
 0001:0002c760       ?sendStats@PvdMetaDataBinding@Vd@physx@@QEAAXAEAVPvdDataStream@pvdsdk@3@PEBVPxScene@3@@Z 000000018002d760 f   PvdMetaDataPvdBinding.obj
 0001:0002d2c0       ?updateDynamicActorsAndArticulations@PvdMetaDataBinding@Vd@physx@@QEAAXAEAVPvdDataStream@pvdsdk@3@PEBVPxScene@3@PEAVPvdVisualizer@23@@Z 000000018002e2c0 f   PvdMetaDataPvdBinding.obj
 0001:0002d870       ?updateMaterials@PvdMetaDataBinding@Vd@physx@@QEAAXAEAVPvdDataStream@pvdsdk@3@AEBVPxShape@3@PEAVPsPvd@53@@Z 000000018002e870 f   PvdMetaDataPvdBinding.obj
 0001:0002d900       ??0PvdPhysicsClient@Vd@physx@@QEAA@PEAVPsPvd@pvdsdk@2@@Z 000000018002e900 f   PvdPhysicsClient.obj
 0001:0002d94c       ??_EPvdPhysicsClient@Vd@physx@@W7EAAPEAXI@Z 000000018002e94c f i PvdPhysicsClient.obj
 0001:0002d958       ??_EPvdPhysicsClient@Vd@physx@@WBA@EAAPEAXI@Z 000000018002e958 f i PvdPhysicsClient.obj
 0001:0002d970       ??_EMeshDeletionListener@NpPhysics@physx@@UEAAPEAXI@Z 000000018002e970 f i NpPhysics.obj
 0001:0002d970       ??_EMeshFactoryListener@Gu@physx@@MEAAPEAXI@Z 000000018002e970 f i PvdPhysicsClient.obj
 0001:0002d970       ??_EOmniPvdListener@NpPhysics@physx@@UEAAPEAXI@Z 000000018002e970 f i NpPhysics.obj
 0001:0002d970       ??_GMeshDeletionListener@NpPhysics@physx@@UEAAPEAXI@Z 000000018002e970 f i NpPhysics.obj
 0001:0002d970       ??_GMeshFactoryListener@Gu@physx@@MEAAPEAXI@Z 000000018002e970 f i PvdPhysicsClient.obj
 0001:0002d970       ??_GOmniPvdListener@NpPhysics@physx@@UEAAPEAXI@Z 000000018002e970 f i NpPhysics.obj
 0001:0002d9a0       ??_EPvdPhysicsClient@Vd@physx@@UEAAPEAXI@Z 000000018002e9a0 f i PvdPhysicsClient.obj
 0001:0002d9a0       ??_GPvdPhysicsClient@Vd@physx@@UEAAPEAXI@Z 000000018002e9a0 f i PvdPhysicsClient.obj
 0001:0002da50       ?destroyPvdInstance@PvdPhysicsClient@Vd@physx@@QEAAXPEBVPxPhysics@3@@Z 000000018002ea50 f   PvdPhysicsClient.obj
 0001:0002da70       ?getDataStream@PvdPhysicsClient@Vd@physx@@UEAAPEAVPvdDataStream@pvdsdk@3@XZ 000000018002ea70 f   PvdPhysicsClient.obj
 0001:0002da70       ?getName@FanoutTask@Cm@physx@@UEBAPEBDXZ 000000018002ea70 f   SimulationController_static_64:ScScene.obj
 0001:0002da80       ?isConnected@PvdPhysicsClient@Vd@physx@@UEBA_NXZ 000000018002ea80 f   PvdPhysicsClient.obj
 0001:0002da90       ?onMeshFactoryBufferRelease@PvdPhysicsClient@Vd@physx@@UEAAXPEBVPxBase@3@G@Z 000000018002ea90 f   PvdPhysicsClient.obj
 0001:0002db90       ?onPvdConnected@PvdPhysicsClient@Vd@physx@@UEAAXXZ 000000018002eb90 f   PvdPhysicsClient.obj
 0001:0002dbd0       ?onPvdDisconnected@PvdPhysicsClient@Vd@physx@@UEAAXXZ 000000018002ebd0 f   PvdPhysicsClient.obj
 0001:0002dc00       ?recreate@?$PxArray@PEAVPxConvexMesh@physx@@V?$PxReflectionAllocator@PEAVPxConvexMesh@physx@@@2@@physx@@IEAAXI@Z 000000018002ec00 f i PvdPhysicsClient.obj
 0001:0002dcf0       ?recreate@?$PxArray@PEAVPxHeightField@physx@@V?$PxReflectionAllocator@PEAVPxHeightField@physx@@@2@@physx@@IEAAXI@Z 000000018002ecf0 f i PvdPhysicsClient.obj
 0001:0002dde0       ?recreate@?$PxArray@PEAVPxMaterial@physx@@V?$PxReflectionAllocator@PEAVPxMaterial@physx@@@2@@physx@@IEAAXI@Z 000000018002ede0 f i PvdPhysicsClient.obj
 0001:0002ded0       ?recreate@?$PxArray@PEAVPxTetrahedronMesh@physx@@V?$PxReflectionAllocator@PEAVPxTetrahedronMesh@physx@@@2@@physx@@IEAAXI@Z 000000018002eed0 f i PvdPhysicsClient.obj
 0001:0002dfc0       ?recreate@?$PxArray@PEAVPxTriangleMesh@physx@@V?$PxReflectionAllocator@PEAVPxTriangleMesh@physx@@@2@@physx@@IEAAXI@Z 000000018002efc0 f i PvdPhysicsClient.obj
 0001:0002e0b0       ?reportError@PvdPhysicsClient@Vd@physx@@UEAAXW4Enum@PxErrorCode@3@PEBD1H@Z 000000018002f0b0 f   PvdPhysicsClient.obj
 0001:0002e0d0       ?resize@?$PxArray@PEAVPxConvexMesh@physx@@V?$PxReflectionAllocator@PEAVPxConvexMesh@physx@@@2@@physx@@QEAAXIAEBQEAVPxConvexMesh@2@@Z 000000018002f0d0 f i PvdPhysicsClient.obj
 0001:0002e190       ?resize@?$PxArray@PEAVPxHeightField@physx@@V?$PxReflectionAllocator@PEAVPxHeightField@physx@@@2@@physx@@QEAAXIAEBQEAVPxHeightField@2@@Z 000000018002f190 f i PvdPhysicsClient.obj
 0001:0002e250       ?resize@?$PxArray@PEAVPxMaterial@physx@@V?$PxReflectionAllocator@PEAVPxMaterial@physx@@@2@@physx@@QEAAXIAEBQEAVPxMaterial@2@@Z 000000018002f250 f i PvdPhysicsClient.obj
 0001:0002e310       ?resize@?$PxArray@PEAVPxTetrahedronMesh@physx@@V?$PxReflectionAllocator@PEAVPxTetrahedronMesh@physx@@@2@@physx@@QEAAXIAEBQEAVPxTetrahedronMesh@2@@Z 000000018002f310 f i PvdPhysicsClient.obj
 0001:0002e3d0       ?resize@?$PxArray@PEAVPxTriangleMesh@physx@@V?$PxReflectionAllocator@PEAVPxTriangleMesh@physx@@@2@@physx@@QEAAXIAEBQEAVPxTriangleMesh@2@@Z 000000018002f3d0 f i PvdPhysicsClient.obj
 0001:0002e490       ?sendEntireSDK@PvdPhysicsClient@Vd@physx@@QEAAXXZ 000000018002f490 f   PvdPhysicsClient.obj
 0001:0002e8a0       ??0PxActorGeneratedInfo@physx@@QEAA@XZ 000000018002f8a0 f   PxAutoGeneratedMetaDataObjects.obj
 0001:0002e9d0       ??0PxActorGeneratedValues@physx@@QEAA@PEBVPxActor@1@@Z 000000018002f9d0 f   PxAutoGeneratedMetaDataObjects.obj
 0001:0002ea50       ??0PxAggregateGeneratedInfo@physx@@QEAA@XZ 000000018002fa50 f   PxAutoGeneratedMetaDataObjects.obj
 0001:0002eb30       ??0PxAggregateGeneratedValues@physx@@QEAA@PEBVPxAggregate@1@@Z 000000018002fb30 f   PxAutoGeneratedMetaDataObjects.obj
 0001:0002eb90       ??0PxArticulationDriveGeneratedInfo@physx@@QEAA@XZ 000000018002fb90 f   PxAutoGeneratedMetaDataObjects.obj
 0001:0002ec40       ??0PxArticulationDriveGeneratedValues@physx@@QEAA@PEBUPxArticulationDrive@1@@Z 000000018002fc40 f   PxAutoGeneratedMetaDataObjects.obj
 0001:0002ec60       ??0PxArticulationJointReducedCoordinateGeneratedInfo@physx@@QEAA@XZ 000000018002fc60 f   PxAutoGeneratedMetaDataObjects.obj
 0001:0002eed0       ??0PxArticulationJointReducedCoordinateGeneratedValues@physx@@QEAA@PEBVPxArticulationJointReducedCoordinate@1@@Z 000000018002fed0 f   PxAutoGeneratedMetaDataObjects.obj
 0001:0002f090       ??0PxArticulationLimitGeneratedInfo@physx@@QEAA@XZ 0000000180030090 f   PxAutoGeneratedMetaDataObjects.obj
 0001:0002f0f0       ??0PxArticulationLimitGeneratedValues@physx@@QEAA@PEBUPxArticulationLimit@1@@Z 00000001800300f0 f   PxAutoGeneratedMetaDataObjects.obj
 0001:0002f100       ??0PxArticulationLinkGeneratedInfo@physx@@QEAA@XZ 0000000180030100 f   PxAutoGeneratedMetaDataObjects.obj
 0001:0002f270       ??0PxArticulationLinkGeneratedValues@physx@@QEAA@PEBVPxArticulationLink@1@@Z 0000000180030270 f   PxAutoGeneratedMetaDataObjects.obj
 0001:0002f320       ??0PxArticulationReducedCoordinateGeneratedInfo@physx@@QEAA@XZ 0000000180030320 f   PxAutoGeneratedMetaDataObjects.obj
 0001:0002f630       ??0PxArticulationReducedCoordinateGeneratedValues@physx@@QEAA@PEBVPxArticulationReducedCoordinate@1@@Z 0000000180030630 f   PxAutoGeneratedMetaDataObjects.obj
 0001:0002f730       ??0PxBaseMaterialGeneratedInfo@physx@@QEAA@XZ 0000000180030730 f   PxAutoGeneratedMetaDataObjects.obj
 0001:0002f780       ??0PxBaseMaterialGeneratedValues@physx@@QEAA@PEBVPxBaseMaterial@1@@Z 0000000180030780 f   PxAutoGeneratedMetaDataObjects.obj
 0001:0002f7c0       ??0PxBoxGeometryGeneratedInfo@physx@@QEAA@XZ 00000001800307c0 f   PxAutoGeneratedMetaDataObjects.obj
 0001:0002f7f0       ??0PxBoxGeometryGeneratedValues@physx@@QEAA@PEBVPxBoxGeometry@1@@Z 00000001800307f0 f   PxAutoGeneratedMetaDataObjects.obj
 0001:0002f7f0       ?getPxBoxGeometryHalfExtents@@YA?AV?$PxVec3T@M@physx@@PEBVPxBoxGeometry@2@@Z 00000001800307f0 f   PxAutoGeneratedMetaDataObjects.obj
 0001:0002f810       ??0PxBroadPhaseDescGeneratedInfo@physx@@QEAA@XZ 0000000180030810 f   PxAutoGeneratedMetaDataObjects.obj
 0001:0002f950       ??0PxBroadPhaseDescGeneratedValues@physx@@QEAA@PEBVPxBroadPhaseDesc@1@@Z 0000000180030950 f   PxAutoGeneratedMetaDataObjects.obj
 0001:0002f9a0       ??0PxCapsuleGeometryGeneratedInfo@physx@@QEAA@XZ 00000001800309a0 f   PxAutoGeneratedMetaDataObjects.obj
 0001:0002fa00       ??0PxCapsuleGeometryGeneratedValues@physx@@QEAA@PEBVPxCapsuleGeometry@1@@Z 0000000180030a00 f   PxAutoGeneratedMetaDataObjects.obj
 0001:0002fa10       ??0PxConstraintGeneratedInfo@physx@@QEAA@XZ 0000000180030a10 f   PxAutoGeneratedMetaDataObjects.obj
 0001:0002fba0       ??0PxConstraintGeneratedValues@physx@@QEAA@PEBVPxConstraint@1@@Z 0000000180030ba0 f   PxAutoGeneratedMetaDataObjects.obj
 0001:0002fc30       ??0PxConvexMeshGeometryGeneratedInfo@physx@@QEAA@XZ 0000000180030c30 f   PxAutoGeneratedMetaDataObjects.obj
 0001:0002fcb0       ??0PxConvexMeshGeometryGeneratedValues@physx@@QEAA@PEBVPxConvexMeshGeometry@1@@Z 0000000180030cb0 f   PxAutoGeneratedMetaDataObjects.obj
 0001:0002fcf0       ??0PxCustomGeometryGeneratedInfo@physx@@QEAA@XZ 0000000180030cf0 f   PxAutoGeneratedMetaDataObjects.obj
 0001:0002fd10       ??0PxCustomGeometryGeneratedValues@physx@@QEAA@PEBVPxCustomGeometry@1@@Z 0000000180030d10 f   PxAutoGeneratedMetaDataObjects.obj
 0001:0002fd40       ??0PxFEMMaterialGeneratedInfo@physx@@QEAA@XZ 0000000180030d40 f   PxAutoGeneratedMetaDataObjects.obj
 0001:0002fe10       ??0PxFEMMaterialGeneratedValues@physx@@QEAA@PEBVPxFEMMaterial@1@@Z 0000000180030e10 f   PxAutoGeneratedMetaDataObjects.obj
 0001:0002fe70       ??0PxFEMSoftBodyMaterialGeneratedInfo@physx@@QEAA@XZ 0000000180030e70 f   PxAutoGeneratedMetaDataObjects.obj
 0001:0002ff50       ??0PxFEMSoftBodyMaterialGeneratedValues@physx@@QEAA@PEBVPxFEMSoftBodyMaterial@1@@Z 0000000180030f50 f   PxAutoGeneratedMetaDataObjects.obj
 0001:0002fff0       ??0PxHeightFieldDescGeneratedInfo@physx@@QEAA@XZ 0000000180030ff0 f   PxAutoGeneratedMetaDataObjects.obj
 0001:00030100       ??0PxHeightFieldDescGeneratedValues@physx@@QEAA@PEBVPxHeightFieldDesc@1@@Z 0000000180031100 f   PxAutoGeneratedMetaDataObjects.obj
 0001:00030130       ??0PxHeightFieldGeometryGeneratedInfo@physx@@QEAA@XZ 0000000180031130 f   PxAutoGeneratedMetaDataObjects.obj
 0001:00030210       ??0PxHeightFieldGeometryGeneratedValues@physx@@QEAA@PEBVPxHeightFieldGeometry@1@@Z 0000000180031210 f   PxAutoGeneratedMetaDataObjects.obj
 0001:00030240       ??0PxMaterialGeneratedInfo@physx@@QEAA@XZ 0000000180031240 f   PxAutoGeneratedMetaDataObjects.obj
 0001:00030400       ??0PxMaterialGeneratedValues@physx@@QEAA@PEBVPxMaterial@1@@Z 0000000180031400 f   PxAutoGeneratedMetaDataObjects.obj
 0001:000304b0       ??0PxMeshScaleGeneratedInfo@physx@@QEAA@XZ 00000001800314b0 f   PxAutoGeneratedMetaDataObjects.obj
 0001:00030510       ??0PxMeshScaleGeneratedValues@physx@@QEAA@PEBVPxMeshScale@1@@Z 0000000180031510 f   PxAutoGeneratedMetaDataObjects.obj
 0001:00030540       ??0PxPBDMaterialGeneratedInfo@physx@@QEAA@XZ 0000000180031540 f   PxAutoGeneratedMetaDataObjects.obj
 0001:00030760       ??0PxPBDMaterialGeneratedValues@physx@@QEAA@PEBVPxPBDMaterial@1@@Z 0000000180031760 f   PxAutoGeneratedMetaDataObjects.obj
 0001:00030830       ??0PxParticleMaterialGeneratedInfo@physx@@QEAA@XZ 0000000180031830 f   PxAutoGeneratedMetaDataObjects.obj
 0001:00030970       ??0PxParticleMaterialGeneratedValues@physx@@QEAA@PEBVPxParticleMaterial@1@@Z 0000000180031970 f   PxAutoGeneratedMetaDataObjects.obj
 0001:000309f0       ??0PxPhysicsGeneratedInfo@physx@@QEAA@XZ 00000001800319f0 f   PxAutoGeneratedMetaDataObjects.obj
 0001:00030c80       ??0PxPhysicsGeneratedValues@physx@@QEAA@PEBVPxPhysics@1@@Z 0000000180031c80 f   PxAutoGeneratedMetaDataObjects.obj
 0001:00030c80       ?getPxPhysics_TolerancesScale@@YA?BVPxTolerancesScale@physx@@PEBVPxPhysics@2@@Z 0000000180031c80 f   PxAutoGeneratedMetaDataObjects.obj
 0001:00030cb0       ??0PxPruningStructureGeneratedInfo@physx@@QEAA@XZ 0000000180031cb0 f   PxAutoGeneratedMetaDataObjects.obj
 0001:00030d40       ??0PxPruningStructureGeneratedValues@physx@@QEAA@PEBVPxPruningStructure@1@@Z 0000000180031d40 f   PxAutoGeneratedMetaDataObjects.obj
 0001:00030d90       ??0PxRefCountedGeneratedInfo@physx@@QEAA@XZ 0000000180031d90 f   PxAutoGeneratedMetaDataObjects.obj
 0001:00030db0       ??0PxRefCountedGeneratedValues@physx@@QEAA@PEBVPxRefCounted@1@@Z 0000000180031db0 f   PxAutoGeneratedMetaDataObjects.obj
 0001:00030dd0       ??0PxRigidActorGeneratedInfo@physx@@QEAA@XZ 0000000180031dd0 f   PxAutoGeneratedMetaDataObjects.obj
 0001:00030e90       ??0PxRigidActorGeneratedValues@physx@@QEAA@PEBVPxRigidActor@1@@Z 0000000180031e90 f   PxAutoGeneratedMetaDataObjects.obj
 0001:00030ed0       ??0PxRigidBodyGeneratedInfo@physx@@QEAA@XZ 0000000180031ed0 f   PxAutoGeneratedMetaDataObjects.obj
 0001:000311b0       ??0PxRigidBodyGeneratedValues@physx@@QEAA@PEBVPxRigidBody@1@@Z 00000001800321b0 f   PxAutoGeneratedMetaDataObjects.obj
 0001:000312f0       ??0PxRigidDynamicGeneratedInfo@physx@@QEAA@XZ 00000001800322f0 f   PxAutoGeneratedMetaDataObjects.obj
 0001:00031510       ??0PxRigidDynamicGeneratedValues@physx@@QEAA@PEBVPxRigidDynamic@1@@Z 0000000180032510 f   PxAutoGeneratedMetaDataObjects.obj
 0001:00031600       ??0PxRigidStaticGeneratedInfo@physx@@QEAA@XZ 0000000180032600 f   PxAutoGeneratedMetaDataObjects.obj
 0001:00031640       ??0PxRigidStaticGeneratedValues@physx@@QEAA@PEBVPxRigidStatic@1@@Z 0000000180032640 f   PxAutoGeneratedMetaDataObjects.obj
 0001:00031680       ??0PxSceneDescGeneratedInfo@physx@@QEAA@XZ 0000000180032680 f   PxAutoGeneratedMetaDataObjects.obj
 0001:00031e80       ??0PxSceneDescGeneratedValues@physx@@QEAA@PEBVPxSceneDesc@1@@Z 0000000180032e80 f   PxAutoGeneratedMetaDataObjects.obj
 0001:000320f0       ??0PxSceneGeneratedInfo@physx@@QEAA@XZ 00000001800330f0 f   PxAutoGeneratedMetaDataObjects.obj
 0001:000328a0       ??0PxSceneGeneratedValues@physx@@QEAA@PEBVPxScene@1@@Z 00000001800338a0 f   PxAutoGeneratedMetaDataObjects.obj
 0001:00032b60       ??0PxSceneLimitsGeneratedInfo@physx@@QEAA@XZ 0000000180033b60 f   PxAutoGeneratedMetaDataObjects.obj
 0001:00032ce0       ??0PxSceneLimitsGeneratedValues@physx@@QEAA@PEBVPxSceneLimits@1@@Z 0000000180033ce0 f   PxAutoGeneratedMetaDataObjects.obj
 0001:00032d20       ??0PxSceneQueryDescGeneratedInfo@physx@@QEAA@XZ 0000000180033d20 f   PxAutoGeneratedMetaDataObjects.obj
 0001:00032ef0       ??0PxSceneQueryDescGeneratedValues@physx@@QEAA@PEBVPxSceneQueryDesc@1@@Z 0000000180033ef0 f   PxAutoGeneratedMetaDataObjects.obj
 0001:00032f50       ??0PxSceneQuerySystemBaseGeneratedInfo@physx@@QEAA@XZ 0000000180033f50 f   PxAutoGeneratedMetaDataObjects.obj
 0001:00032fc0       ??0PxSceneQuerySystemBaseGeneratedValues@physx@@QEAA@PEBVPxSceneQuerySystemBase@1@@Z 0000000180033fc0 f   PxAutoGeneratedMetaDataObjects.obj
 0001:00033010       ??0PxSceneSQSystemGeneratedInfo@physx@@QEAA@XZ 0000000180034010 f   PxAutoGeneratedMetaDataObjects.obj
 0001:00033120       ??0PxSceneSQSystemGeneratedValues@physx@@QEAA@PEBVPxSceneSQSystem@1@@Z 0000000180034120 f   PxAutoGeneratedMetaDataObjects.obj
 0001:000331a0       ??0PxShapeGeneratedInfo@physx@@QEAA@XZ 00000001800341a0 f   PxAutoGeneratedMetaDataObjects.obj
 0001:000334b0       ??0PxShapeGeneratedValues@physx@@QEAA@PEBVPxShape@1@@Z 00000001800344b0 f   PxAutoGeneratedMetaDataObjects.obj
 0001:00033770       ??0PxSimulationStatisticsGeneratedInfo@physx@@QEAA@XZ 0000000180034770 f   PxAutoGeneratedMetaDataObjects.obj
 0001:00034020       ??0PxSimulationStatisticsGeneratedValues@physx@@QEAA@PEBVPxSimulationStatistics@1@@Z 0000000180035020 f   PxAutoGeneratedMetaDataObjects.obj
 0001:00034470       ??0PxSphereGeometryGeneratedInfo@physx@@QEAA@XZ 0000000180035470 f   PxAutoGeneratedMetaDataObjects.obj
 0001:000344a0       ??0PxSphereGeometryGeneratedValues@physx@@QEAA@PEBVPxSphereGeometry@1@@Z 00000001800354a0 f   PxAutoGeneratedMetaDataObjects.obj
 0001:000344b0       ??0PxTetrahedronMeshGeometryGeneratedInfo@physx@@QEAA@XZ 00000001800354b0 f   PxAutoGeneratedMetaDataObjects.obj
 0001:000344e0       ??0PxTetrahedronMeshGeometryGeneratedValues@physx@@QEAA@PEBVPxTetrahedronMeshGeometry@1@@Z 00000001800354e0 f   PxAutoGeneratedMetaDataObjects.obj
 0001:000344f0       ??0PxTolerancesScaleGeneratedInfo@physx@@QEAA@XZ 00000001800354f0 f   PxAutoGeneratedMetaDataObjects.obj
 0001:00034560       ??0PxTolerancesScaleGeneratedValues@physx@@QEAA@PEBVPxTolerancesScale@1@@Z 0000000180035560 f   PxAutoGeneratedMetaDataObjects.obj
 0001:00034580       ??0PxTriangleMeshGeometryGeneratedInfo@physx@@QEAA@XZ 0000000180035580 f   PxAutoGeneratedMetaDataObjects.obj
 0001:00034600       ??0PxTriangleMeshGeometryGeneratedValues@physx@@QEAA@PEBVPxTriangleMeshGeometry@1@@Z 0000000180035600 f   PxAutoGeneratedMetaDataObjects.obj
 0001:00034640       ??0PxgDynamicsMemoryConfigGeneratedInfo@physx@@QEAA@XZ 0000000180035640 f   PxAutoGeneratedMetaDataObjects.obj
 0001:000348b0       ??0PxgDynamicsMemoryConfigGeneratedValues@physx@@QEAA@PEBUPxgDynamicsMemoryConfig@1@@Z 00000001800358b0 f   PxAutoGeneratedMetaDataObjects.obj
 0001:00034920       ?createPxPhysics_BVHs@@YAPEAVPxBVH@physx@@PEAVPxPhysics@2@AEAVPxInputStream@2@@Z 0000000180035920 f   PxAutoGeneratedMetaDataObjects.obj
 0001:00034920       ?getPxFEMSoftBodyMaterial_MaterialModel@@YA?AW4Enum@PxFEMSoftBodyMaterialModel@physx@@PEBVPxFEMSoftBodyMaterial@3@@Z 0000000180035920 f   PxAutoGeneratedMetaDataObjects.obj
 0001:00034920       ?getPxPBDMaterial_Viscosity@@YAMPEBVPxPBDMaterial@physx@@@Z 0000000180035920 f   PxAutoGeneratedMetaDataObjects.obj
 0001:00034920       ?setPxArticulationReducedCoordinate_MaxCOMAngularVelocity@@YAXPEAVPxArticulationReducedCoordinate@physx@@M@Z 0000000180035920 f   PxAutoGeneratedMetaDataObjects.obj
 0001:00034920       ?setPxMaterial_FrictionCombineMode@@YAXPEAVPxMaterial@physx@@W4Enum@PxCombineMode@2@@Z 0000000180035920 f   PxAutoGeneratedMetaDataObjects.obj
 0001:00034920       ?setPxScene_Limits@@YAXPEAVPxScene@physx@@AEBVPxSceneLimits@2@@Z 0000000180035920 f   PxAutoGeneratedMetaDataObjects.obj
 0001:00034930       ?createPxPhysics_ConvexMeshes@@YAPEAVPxConvexMesh@physx@@PEAVPxPhysics@2@AEAVPxInputStream@2@@Z 0000000180035930 f   PxAutoGeneratedMetaDataObjects.obj
 0001:00034930       ?getPxActor_OwnerClient@@YAEPEBVPxActor@physx@@@Z 0000000180035930 f   PxAutoGeneratedMetaDataObjects.obj
 0001:00034930       ?setPxConstraint_MinResponseThreshold@@YAXPEAVPxConstraint@physx@@M@Z 0000000180035930 f   PxAutoGeneratedMetaDataObjects.obj
 0001:00034930       ?setPxFEMSoftBodyMaterial_DampingScale@@YAXPEAVPxFEMSoftBodyMaterial@physx@@M@Z 0000000180035930 f   PxAutoGeneratedMetaDataObjects.obj
 0001:00034930       ?setPxParticleMaterial_AdhesionRadiusScale@@YAXPEAVPxParticleMaterial@physx@@M@Z 0000000180035930 f   PxAutoGeneratedMetaDataObjects.obj
 0001:00034940       ?createPxPhysics_HeightFields@@YAPEAVPxHeightField@physx@@PEAVPxPhysics@2@AEAVPxInputStream@2@@Z 0000000180035940 f   PxAutoGeneratedMetaDataObjects.obj
 0001:00034940       ?getPxConstraint_IsValid@@YA_NPEBVPxConstraint@physx@@@Z 0000000180035940 f   PxAutoGeneratedMetaDataObjects.obj
 0001:00034940       ?getPxFEMMaterial_DynamicFriction@@YAMPEBVPxFEMMaterial@physx@@@Z 0000000180035940 f   PxAutoGeneratedMetaDataObjects.obj
 0001:00034940       ?getPxMaterial_Restitution@@YAMPEBVPxMaterial@physx@@@Z 0000000180035940 f   PxAutoGeneratedMetaDataObjects.obj
 0001:00034940       ?getPxParticleMaterial_Adhesion@@YAMPEBVPxParticleMaterial@physx@@@Z 0000000180035940 f   PxAutoGeneratedMetaDataObjects.obj
 0001:00034940       ?setPxActor_DominanceGroup@@YAXPEAVPxActor@physx@@E@Z 0000000180035940 f   PxAutoGeneratedMetaDataObjects.obj
 0001:00034940       ?setPxArticulationJointReducedCoordinate_Motion@@YAXPEAVPxArticulationJointReducedCoordinate@physx@@W4Enum@PxArticulationAxis@2@W43PxArticulationMotion@2@@Z 0000000180035940 f   PxAutoGeneratedMetaDataObjects.obj
 0001:00034940       ?setPxArticulationReducedCoordinate_WakeCounter@@YAXPEAVPxArticulationReducedCoordinate@physx@@M@Z 0000000180035940 f   PxAutoGeneratedMetaDataObjects.obj
 0001:00034940       ?setPxShape_SimulationFilterData@@YAXPEAVPxShape@physx@@AEBUPxFilterData@2@@Z 0000000180035940 f   PxAutoGeneratedMetaDataObjects.obj
 0001:00034950       ?createPxPhysics_Scenes@@YAPEAVPxScene@physx@@PEAVPxPhysics@2@AEBVPxSceneDesc@2@@Z 0000000180035950 f   PxAutoGeneratedMetaDataObjects.obj
 0001:00034950       ?getNbPxArticulationReducedCoordinate_Links@@YAIPEBVPxArticulationReducedCoordinate@physx@@@Z 0000000180035950 f   PxAutoGeneratedMetaDataObjects.obj
 0001:00034950       ?getPxMaterial_RestitutionCombineMode@@YA?AW4Enum@PxCombineMode@physx@@PEBVPxMaterial@3@@Z 0000000180035950 f   PxAutoGeneratedMetaDataObjects.obj
 0001:00034950       ?getPxScene_Timestamp@@YAIPEBVPxScene@physx@@@Z 0000000180035950 f   PxAutoGeneratedMetaDataObjects.obj
 0001:00034950       ?setPxPBDMaterial_SurfaceTension@@YAXPEAVPxPBDMaterial@physx@@M@Z 0000000180035950 f   PxAutoGeneratedMetaDataObjects.obj
 0001:00034960       ?createPxPhysics_TetrahedronMeshes@@YAPEAVPxTetrahedronMesh@physx@@PEAVPxPhysics@2@AEAVPxInputStream@2@@Z 0000000180035960 f   PxAutoGeneratedMetaDataObjects.obj
 0001:00034960       ?getNbPxAggregate_Actors@@YAIPEBVPxAggregate@physx@@@Z 0000000180035960 f   PxAutoGeneratedMetaDataObjects.obj
 0001:00034960       ?getPxFEMMaterial_YoungsModulus@@YAMPEBVPxFEMMaterial@physx@@@Z 0000000180035960 f   PxAutoGeneratedMetaDataObjects.obj
 0001:00034960       ?getPxMaterial_DynamicFriction@@YAMPEBVPxMaterial@physx@@@Z 0000000180035960 f   PxAutoGeneratedMetaDataObjects.obj
 0001:00034960       ?getPxParticleMaterial_Friction@@YAMPEBVPxParticleMaterial@physx@@@Z 0000000180035960 f   PxAutoGeneratedMetaDataObjects.obj
 0001:00034960       ?setPxArticulationJointReducedCoordinate_ChildPose@@YAXPEAVPxArticulationJointReducedCoordinate@physx@@AEBV?$PxTransformT@M@2@@Z 0000000180035960 f   PxAutoGeneratedMetaDataObjects.obj
 0001:00034960       ?setPxArticulationReducedCoordinate_SleepThreshold@@YAXPEAVPxArticulationReducedCoordinate@physx@@M@Z 0000000180035960 f   PxAutoGeneratedMetaDataObjects.obj
 0001:00034970       ?createPxPhysics_TriangleMeshes@@YAPEAVPxTriangleMesh@physx@@PEAVPxPhysics@2@AEAVPxInputStream@2@@Z 0000000180035970 f   PxAutoGeneratedMetaDataObjects.obj
 0001:00034970       ?getNbPxPruningStructure_RigidActors@@YAIPEBVPxPruningStructure@physx@@@Z 0000000180035970 f   PxAutoGeneratedMetaDataObjects.obj
 0001:00034970       ?getPxActor_Scene@@YAPEAVPxScene@physx@@PEBVPxActor@2@@Z 0000000180035970 f   PxAutoGeneratedMetaDataObjects.obj
 0001:00034970       ?getPxConstraint_Actors@@YAXPEBVPxConstraint@physx@@AEAPEAVPxRigidActor@2@1@Z 0000000180035970 f   PxAutoGeneratedMetaDataObjects.obj
 0001:00034970       ?getPxSceneQuerySystemBase_StaticTimestamp@@YAIPEBVPxSceneQuerySystemBase@physx@@@Z 0000000180035970 f   PxAutoGeneratedMetaDataObjects.obj
 0001:00034970       ?getPxSceneSQSystem_SceneQueryStaticTimestamp@@YAIPEBVPxSceneSQSystem@physx@@@Z 0000000180035970 f   PxAutoGeneratedMetaDataObjects.obj
 0001:00034970       ?setPxArticulationJointReducedCoordinate_ParentPose@@YAXPEAVPxArticulationJointReducedCoordinate@physx@@AEBV?$PxTransformT@M@2@@Z 0000000180035970 f   PxAutoGeneratedMetaDataObjects.obj
 0001:00034970       ?setPxArticulationReducedCoordinate_SolverIterationCounts@@YAXPEAVPxArticulationReducedCoordinate@physx@@II@Z 0000000180035970 f   PxAutoGeneratedMetaDataObjects.obj
 0001:00034980       ?getNbPxArticulationLink_Children@@YAIPEBVPxArticulationLink@physx@@@Z 0000000180035980 f   PxAutoGeneratedMetaDataObjects.obj
 0001:00034980       ?setPxRigidDynamic_SleepThreshold@@YAXPEAVPxRigidDynamic@physx@@M@Z 0000000180035980 f   PxAutoGeneratedMetaDataObjects.obj
 0001:00034990       ?getNbPxPhysics_BVHs@@YAIPEBVPxPhysics@physx@@@Z 0000000180035990 f   PxAutoGeneratedMetaDataObjects.obj
 0001:00034990       ?getPxArticulationReducedCoordinate_MaxCOMAngularVelocity@@YAMPEBVPxArticulationReducedCoordinate@physx@@@Z 0000000180035990 f   PxAutoGeneratedMetaDataObjects.obj
 0001:00034990       ?getPxMaterial_FrictionCombineMode@@YA?AW4Enum@PxCombineMode@physx@@PEBVPxMaterial@3@@Z 0000000180035990 f   PxAutoGeneratedMetaDataObjects.obj
 0001:00034990       ?setPxPBDMaterial_VorticityConfinement@@YAXPEAVPxPBDMaterial@physx@@M@Z 0000000180035990 f   PxAutoGeneratedMetaDataObjects.obj
 0001:000349a0       ?getNbPxPhysics_ConvexMeshes@@YAIPEBVPxPhysics@physx@@@Z 00000001800359a0 f   PxAutoGeneratedMetaDataObjects.obj
 0001:000349a0       ?getPxActor_Aggregate@@YAPEAVPxAggregate@physx@@PEBVPxActor@2@@Z 00000001800359a0 f   PxAutoGeneratedMetaDataObjects.obj
 0001:000349a0       ?getPxConstraint_MinResponseThreshold@@YAMPEBVPxConstraint@physx@@@Z 00000001800359a0 f   PxAutoGeneratedMetaDataObjects.obj
 0001:000349a0       ?getPxFEMSoftBodyMaterial_DampingScale@@YAMPEBVPxFEMSoftBodyMaterial@physx@@@Z 00000001800359a0 f   PxAutoGeneratedMetaDataObjects.obj
 0001:000349a0       ?getPxParticleMaterial_AdhesionRadiusScale@@YAMPEBVPxParticleMaterial@physx@@@Z 00000001800359a0 f   PxAutoGeneratedMetaDataObjects.obj
 0001:000349a0       ?setPxArticulationReducedCoordinate_MaxCOMLinearVelocity@@YAXPEAVPxArticulationReducedCoordinate@physx@@M@Z 00000001800359a0 f   PxAutoGeneratedMetaDataObjects.obj
 0001:000349b0       ?getNbPxPhysics_FEMClothMaterials@@YAIPEBVPxPhysics@physx@@@Z 00000001800359b0 f   PxAutoGeneratedMetaDataObjects.obj
 0001:000349c0       ?getNbPxPhysics_FEMSoftBodyMaterials@@YAIPEBVPxPhysics@physx@@@Z 00000001800359c0 f   PxAutoGeneratedMetaDataObjects.obj
 0001:000349d0       ?getNbPxPhysics_HeightFields@@YAIPEBVPxPhysics@physx@@@Z 00000001800359d0 f   PxAutoGeneratedMetaDataObjects.obj
 0001:000349d0       ?getPxActor_DominanceGroup@@YAEPEBVPxActor@physx@@@Z 00000001800359d0 f   PxAutoGeneratedMetaDataObjects.obj
 0001:000349d0       ?getPxAggregate_SelfCollision@@YA_NPEBVPxAggregate@physx@@@Z 00000001800359d0 f   PxAutoGeneratedMetaDataObjects.obj
 0001:000349d0       ?getPxArticulationJointReducedCoordinate_Motion@@YA?AW4Enum@PxArticulationMotion@physx@@PEBVPxArticulationJointReducedCoordinate@3@W41PxArticulationAxis@3@@Z 00000001800359d0 f   PxAutoGeneratedMetaDataObjects.obj
 0001:000349d0       ?getPxArticulationReducedCoordinate_WakeCounter@@YAMPEBVPxArticulationReducedCoordinate@physx@@@Z 00000001800359d0 f   PxAutoGeneratedMetaDataObjects.obj
 0001:000349d0       ?setPxConstraint_BreakForce@@YAXPEAVPxConstraint@physx@@MM@Z 00000001800359d0 f   PxAutoGeneratedMetaDataObjects.obj
 0001:000349d0       ?setPxFEMSoftBodyMaterial_Damping@@YAXPEAVPxFEMSoftBodyMaterial@physx@@M@Z 00000001800359d0 f   PxAutoGeneratedMetaDataObjects.obj
 0001:000349d0       ?setPxMaterial_Damping@@YAXPEAVPxMaterial@physx@@M@Z 00000001800359d0 f   PxAutoGeneratedMetaDataObjects.obj
 0001:000349d0       ?setPxParticleMaterial_GravityScale@@YAXPEAVPxParticleMaterial@physx@@M@Z 00000001800359d0 f   PxAutoGeneratedMetaDataObjects.obj
 0001:000349e0       ?getNbPxPhysics_Materials@@YAIPEBVPxPhysics@physx@@@Z 00000001800359e0 f   PxAutoGeneratedMetaDataObjects.obj
 0001:000349e0       ?getNbPxScene_Articulations@@YAIPEBVPxScene@physx@@@Z 00000001800359e0 f   PxAutoGeneratedMetaDataObjects.obj
 0001:000349f0       ?getNbPxPhysics_PBDMaterials@@YAIPEBVPxPhysics@physx@@@Z 00000001800359f0 f   PxAutoGeneratedMetaDataObjects.obj
 0001:000349f0       ?getPxScene_CudaContextManager@@YAPEAVPxCudaContextManager@physx@@PEBVPxScene@2@@Z 00000001800359f0 f   PxAutoGeneratedMetaDataObjects.obj
 0001:000349f0       ?setPxRigidBody_MaxDepenetrationVelocity@@YAXPEAVPxRigidBody@physx@@M@Z 00000001800359f0 f   PxAutoGeneratedMetaDataObjects.obj
 0001:00034a00       ?getNbPxPhysics_Scenes@@YAIPEBVPxPhysics@physx@@@Z 0000000180035a00 f   PxAutoGeneratedMetaDataObjects.obj
 0001:00034a00       ?getNbPxRigidActor_Shapes@@YAIPEBVPxRigidActor@physx@@@Z 0000000180035a00 f   PxAutoGeneratedMetaDataObjects.obj
 0001:00034a00       ?getPxPBDMaterial_SurfaceTension@@YAMPEBVPxPBDMaterial@physx@@@Z 0000000180035a00 f   PxAutoGeneratedMetaDataObjects.obj
 0001:00034a00       ?setPxArticulationJointReducedCoordinate_Armature@@YAXPEAVPxArticulationJointReducedCoordinate@physx@@W4Enum@PxArticulationAxis@2@M@Z 0000000180035a00 f   PxAutoGeneratedMetaDataObjects.obj
 0001:00034a00       ?setPxScene_Name@@YAXPEAVPxScene@physx@@PEBD@Z 0000000180035a00 f   PxAutoGeneratedMetaDataObjects.obj
 0001:00034a10       ?getNbPxPhysics_Shapes@@YAIPEBVPxPhysics@physx@@@Z 0000000180035a10 f   PxAutoGeneratedMetaDataObjects.obj
 0001:00034a10       ?getPxPBDMaterial_CFLCoefficient@@YAMPEBVPxPBDMaterial@physx@@@Z 0000000180035a10 f   PxAutoGeneratedMetaDataObjects.obj
 0001:00034a10       ?getPxRigidBody_InvMass@@YAMPEBVPxRigidBody@physx@@@Z 0000000180035a10 f   PxAutoGeneratedMetaDataObjects.obj
 0001:00034a10       ?setPxArticulationJointReducedCoordinate_JointVelocity@@YAXPEAVPxArticulationJointReducedCoordinate@physx@@W4Enum@PxArticulationAxis@2@M@Z 0000000180035a10 f   PxAutoGeneratedMetaDataObjects.obj
 0001:00034a10       ?setPxShape_TorsionalPatchRadius@@YAXPEAVPxShape@physx@@M@Z 0000000180035a10 f   PxAutoGeneratedMetaDataObjects.obj
 0001:00034a20       ?getNbPxPhysics_TetrahedronMeshes@@YAIPEBVPxPhysics@physx@@@Z 0000000180035a20 f   PxAutoGeneratedMetaDataObjects.obj
 0001:00034a20       ?getPxAggregate_MaxNbShapes@@YAIPEBVPxAggregate@physx@@@Z 0000000180035a20 f   PxAutoGeneratedMetaDataObjects.obj
 0001:00034a20       ?getPxFEMMaterial_Poissons@@YAMPEBVPxFEMMaterial@physx@@@Z 0000000180035a20 f   PxAutoGeneratedMetaDataObjects.obj
 0001:00034a20       ?getPxMaterial_StaticFriction@@YAMPEBVPxMaterial@physx@@@Z 0000000180035a20 f   PxAutoGeneratedMetaDataObjects.obj
 0001:00034a20       ?getPxParticleMaterial_Damping@@YAMPEBVPxParticleMaterial@physx@@@Z 0000000180035a20 f   PxAutoGeneratedMetaDataObjects.obj
 0001:00034a20       ?getPxSceneSQSystem_StaticStructure@@YA?AW4Enum@PxPruningStructureType@physx@@PEBVPxSceneSQSystem@3@@Z 0000000180035a20 f   PxAutoGeneratedMetaDataObjects.obj
 0001:00034a20       ?setPxArticulationJointReducedCoordinate_JointType@@YAXPEAVPxArticulationJointReducedCoordinate@physx@@W4Enum@PxArticulationJointType@2@@Z 0000000180035a20 f   PxAutoGeneratedMetaDataObjects.obj
 0001:00034a20       ?setPxArticulationReducedCoordinate_StabilizationThreshold@@YAXPEAVPxArticulationReducedCoordinate@physx@@M@Z 0000000180035a20 f   PxAutoGeneratedMetaDataObjects.obj
 0001:00034a20       ?setPxShape_LocalPose@@YAXPEAVPxShape@physx@@AEBV?$PxTransformT@M@2@@Z 0000000180035a20 f   PxAutoGeneratedMetaDataObjects.obj
 0001:00034a30       ?getNbPxPhysics_TriangleMeshes@@YAIPEBVPxPhysics@physx@@@Z 0000000180035a30 f   PxAutoGeneratedMetaDataObjects.obj
 0001:00034a30       ?getPxArticulationReducedCoordinate_SolverIterationCounts@@YAXPEBVPxArticulationReducedCoordinate@physx@@AEAI1@Z 0000000180035a30 f   PxAutoGeneratedMetaDataObjects.obj
 0001:00034a30       ?getPxPruningStructure_StaticMergeData@@YAPEBXPEBVPxPruningStructure@physx@@@Z 0000000180035a30 f   PxAutoGeneratedMetaDataObjects.obj
 0001:00034a30       ?setPxActor_Name@@YAXPEAVPxActor@physx@@PEBD@Z 0000000180035a30 f   PxAutoGeneratedMetaDataObjects.obj
 0001:00034a30       ?setPxConstraint_Actors@@YAXPEAVPxConstraint@physx@@PEAVPxRigidActor@2@1@Z 0000000180035a30 f   PxAutoGeneratedMetaDataObjects.obj
 0001:00034a40       ?getNbPxRigidActor_Constraints@@YAIPEBVPxRigidActor@physx@@@Z 0000000180035a40 f   PxAutoGeneratedMetaDataObjects.obj
 0001:00034a40       ?getPxPBDMaterial_Cohesion@@YAMPEBVPxPBDMaterial@physx@@@Z 0000000180035a40 f   PxAutoGeneratedMetaDataObjects.obj
 0001:00034a40       ?setPxArticulationJointReducedCoordinate_FrictionCoefficient@@YAXPEAVPxArticulationJointReducedCoordinate@physx@@M@Z 0000000180035a40 f   PxAutoGeneratedMetaDataObjects.obj
 0001:00034a40       ?setPxArticulationReducedCoordinate_Name@@YAXPEAVPxArticulationReducedCoordinate@physx@@PEBD@Z 0000000180035a40 f   PxAutoGeneratedMetaDataObjects.obj
 0001:00034a40       ?setPxShape_ContactOffset@@YAXPEAVPxShape@physx@@M@Z 0000000180035a40 f   PxAutoGeneratedMetaDataObjects.obj
 0001:00034a50       ?getNbPxScene_Actors@@YAIPEBVPxScene@physx@@V?$PxFlags@W4Enum@PxActorTypeFlag@physx@@G@2@@Z 0000000180035a50 f   PxAutoGeneratedMetaDataObjects.obj
 0001:00034a70       ?getNbPxScene_Aggregates@@YAIPEBVPxScene@physx@@@Z 0000000180035a70 f   PxAutoGeneratedMetaDataObjects.obj
 0001:00034a80       ?getNbPxScene_BroadPhaseRegions@@YAIPEBVPxScene@physx@@@Z 0000000180035a80 f   PxAutoGeneratedMetaDataObjects.obj
 0001:00034a90       ?getNbPxScene_Constraints@@YAIPEBVPxScene@physx@@@Z 0000000180035a90 f   PxAutoGeneratedMetaDataObjects.obj
 0001:00034aa0       ?getNbPxScene_SoftBodies@@YAIPEBVPxScene@physx@@@Z 0000000180035aa0 f   PxAutoGeneratedMetaDataObjects.obj
 0001:00034aa0       ?getPxRigidBody_AngularDamping@@YAMPEBVPxRigidBody@physx@@@Z 0000000180035aa0 f   PxAutoGeneratedMetaDataObjects.obj
 0001:00034ab0       ?getNbPxShape_Materials@@YAIPEBVPxShape@physx@@@Z 0000000180035ab0 f   PxAutoGeneratedMetaDataObjects.obj
 0001:00034ad0       ?getCpuDispatcher@PxTaskMgr@physx@@UEBAPEAVPxCpuDispatcher@2@XZ 0000000180035ad0 f i PhysXTask_static_64:TaskManager.obj
 0001:00034ad0       ?getOmniPvd@NpPhysics@physx@@UEAAPEAVPxOmniPvd@2@XZ 0000000180035ad0 f i NpPhysics.obj
 0001:00034ad0       ?getPxActorUserData@@YAPEAXPEBVPxActor@physx@@@Z 0000000180035ad0 f i PxAutoGeneratedMetaDataObjects.obj
 0001:00034ad0       ?getPxAggregateUserData@@YAPEAXPEBVPxAggregate@physx@@@Z 0000000180035ad0 f i PxAutoGeneratedMetaDataObjects.obj
 0001:00034ad0       ?getPxArticulationJointReducedCoordinateUserData@@YAPEAXPEBVPxArticulationJointReducedCoordinate@physx@@@Z 0000000180035ad0 f i PxAutoGeneratedMetaDataObjects.obj
 0001:00034ad0       ?getPxArticulationReducedCoordinateUserData@@YAPEAXPEBVPxArticulationReducedCoordinate@physx@@@Z 0000000180035ad0 f i PxAutoGeneratedMetaDataObjects.obj
 0001:00034ad0       ?getPxBaseMaterialUserData@@YAPEAXPEBVPxBaseMaterial@physx@@@Z 0000000180035ad0 f i PxAutoGeneratedMetaDataObjects.obj
 0001:00034ad0       ?getPxBroadPhaseDescMContextManager@@YAPEAVPxCudaContextManager@physx@@PEBVPxBroadPhaseDesc@2@@Z 0000000180035ad0 f i PxAutoGeneratedMetaDataObjects.obj
 0001:00034ad0       ?getPxConstraintUserData@@YAPEAXPEBVPxConstraint@physx@@@Z 0000000180035ad0 f i PxAutoGeneratedMetaDataObjects.obj
 0001:00034ad0       ?getPxShapeUserData@@YAPEAXPEBVPxShape@physx@@@Z 0000000180035ad0 f i PxAutoGeneratedMetaDataObjects.obj
 0001:00034ae0       ?getPxActor_ActorFlags@@YA?AV?$PxFlags@W4Enum@PxActorFlag@physx@@E@physx@@PEBVPxActor@2@@Z 0000000180035ae0 f   PxAutoGeneratedMetaDataObjects.obj
 0001:00034ae0       ?getPxShape_LocalPose@@YA?AV?$PxTransformT@M@physx@@PEBVPxShape@2@@Z 0000000180035ae0 f   PxAutoGeneratedMetaDataObjects.obj
 0001:00034b10       ?getPxActor_Name@@YAPEBDPEBVPxActor@physx@@@Z 0000000180035b10 f   PxAutoGeneratedMetaDataObjects.obj
 0001:00034b10       ?getPxArticulationReducedCoordinate_IsSleeping@@YA_NPEBVPxArticulationReducedCoordinate@physx@@@Z 0000000180035b10 f   PxAutoGeneratedMetaDataObjects.obj
 0001:00034b10       ?getPxPruningStructure_DynamicMergeData@@YAPEBXPEBVPxPruningStructure@physx@@@Z 0000000180035b10 f   PxAutoGeneratedMetaDataObjects.obj
 0001:00034b10       ?setPxFEMMaterial_YoungsModulus@@YAXPEAVPxFEMMaterial@physx@@M@Z 0000000180035b10 f   PxAutoGeneratedMetaDataObjects.obj
 0001:00034b10       ?setPxMaterial_DynamicFriction@@YAXPEAVPxMaterial@physx@@M@Z 0000000180035b10 f   PxAutoGeneratedMetaDataObjects.obj
 0001:00034b10       ?setPxParticleMaterial_Friction@@YAXPEAVPxParticleMaterial@physx@@M@Z 0000000180035b10 f   PxAutoGeneratedMetaDataObjects.obj
 0001:00034b10       ?setPxShape_Geom@PxShapeGeomProperty@physx@@SAXPEAVPxShape@2@AEBVPxGeometry@2@@Z 0000000180035b10 f   PxAutoGeneratedMetaDataObjects.obj
 0001:00034b20       ?getPxAggregate_Actors@@YAIPEBVPxAggregate@physx@@PEAPEAVPxActor@2@I@Z 0000000180035b20 f   PxAutoGeneratedMetaDataObjects.obj
 0001:00034b20       ?getPxPhysics_TetrahedronMeshes@@YAIPEBVPxPhysics@physx@@PEAPEAVPxTetrahedronMesh@2@I@Z 0000000180035b20 f   PxAutoGeneratedMetaDataObjects.obj
 0001:00034b30       ?getPxAggregate_ConcreteTypeName@@YAPEBDPEBVPxAggregate@physx@@@Z 0000000180035b30 f   PxAutoGeneratedMetaDataObjects.obj
 0001:00034b30       ?getPxArticulationJointReducedCoordinate_ConcreteTypeName@@YAPEBDPEBVPxArticulationJointReducedCoordinate@physx@@@Z 0000000180035b30 f   PxAutoGeneratedMetaDataObjects.obj
 0001:00034b30       ?getPxArticulationLink_ConcreteTypeName@@YAPEBDPEBVPxArticulationLink@physx@@@Z 0000000180035b30 f   PxAutoGeneratedMetaDataObjects.obj
 0001:00034b30       ?getPxConstraint_ConcreteTypeName@@YAPEBDPEBVPxConstraint@physx@@@Z 0000000180035b30 f   PxAutoGeneratedMetaDataObjects.obj
 0001:00034b30       ?getPxFEMSoftBodyMaterial_ConcreteTypeName@@YAPEBDPEBVPxFEMSoftBodyMaterial@physx@@@Z 0000000180035b30 f   PxAutoGeneratedMetaDataObjects.obj
 0001:00034b30       ?getPxMaterial_ConcreteTypeName@@YAPEBDPEBVPxMaterial@physx@@@Z 0000000180035b30 f   PxAutoGeneratedMetaDataObjects.obj
 0001:00034b30       ?getPxPBDMaterial_ConcreteTypeName@@YAPEBDPEBVPxPBDMaterial@physx@@@Z 0000000180035b30 f   PxAutoGeneratedMetaDataObjects.obj
 0001:00034b30       ?getPxPruningStructure_ConcreteTypeName@@YAPEBDPEBVPxPruningStructure@physx@@@Z 0000000180035b30 f   PxAutoGeneratedMetaDataObjects.obj
 0001:00034b30       ?getPxRigidDynamic_ConcreteTypeName@@YAPEBDPEBVPxRigidDynamic@physx@@@Z 0000000180035b30 f   PxAutoGeneratedMetaDataObjects.obj
 0001:00034b30       ?getPxRigidStatic_ConcreteTypeName@@YAPEBDPEBVPxRigidStatic@physx@@@Z 0000000180035b30 f   PxAutoGeneratedMetaDataObjects.obj
 0001:00034b30       ?getPxShape_ConcreteTypeName@@YAPEBDPEBVPxShape@physx@@@Z 0000000180035b30 f   PxAutoGeneratedMetaDataObjects.obj
 0001:00034b30       ?setPxSceneQuerySystemBase_DynamicTreeRebuildRateHint@@YAXPEAVPxSceneQuerySystemBase@physx@@I@Z 0000000180035b30 f   PxAutoGeneratedMetaDataObjects.obj
 0001:00034b40       ?getPxAggregate_MaxNbActors@@YAIPEBVPxAggregate@physx@@@Z 0000000180035b40 f   PxAutoGeneratedMetaDataObjects.obj
 0001:00034b40       ?getPxArticulationReducedCoordinate_SleepThreshold@@YAMPEBVPxArticulationReducedCoordinate@physx@@@Z 0000000180035b40 f   PxAutoGeneratedMetaDataObjects.obj
 0001:00034b40       ?setPxFEMMaterial_Poissons@@YAXPEAVPxFEMMaterial@physx@@M@Z 0000000180035b40 f   PxAutoGeneratedMetaDataObjects.obj
 0001:00034b40       ?setPxMaterial_StaticFriction@@YAXPEAVPxMaterial@physx@@M@Z 0000000180035b40 f   PxAutoGeneratedMetaDataObjects.obj
 0001:00034b40       ?setPxParticleMaterial_Damping@@YAXPEAVPxParticleMaterial@physx@@M@Z 0000000180035b40 f   PxAutoGeneratedMetaDataObjects.obj
 0001:00034b50       ?getDamping@ArticulationFixedTendonCore@Sc@physx@@QEBAMXZ 0000000180035b50 f i SimulationController_static_64:ScArticulationTendonCore.obj
 0001:00034b50       ?getDamping@ArticulationSpatialTendonCore@Sc@physx@@QEBAMXZ 0000000180035b50 f i SimulationController_static_64:ScArticulationTendonCore.obj
 0001:00034b50       ?getPxArticulationDriveDamping@@YAMPEBUPxArticulationDrive@physx@@@Z 0000000180035b50 f i PxAutoGeneratedMetaDataObjects.obj
 0001:00034b50       ?getPxArticulationLimitHigh@@YAMPEBUPxArticulationLimit@physx@@@Z 0000000180035b50 f i PxAutoGeneratedMetaDataObjects.obj
 0001:00034b50       ?getPxTolerancesScaleSpeed@@YAMPEBVPxTolerancesScale@physx@@@Z 0000000180035b50 f i PxAutoGeneratedMetaDataObjects.obj
 0001:00034b60       ?getPxArticulationDriveDriveType@@YA?AW4Enum@PxArticulationDriveType@physx@@PEBUPxArticulationDrive@3@@Z 0000000180035b60 f i PxAutoGeneratedMetaDataObjects.obj
 0001:00034b60       ?getPxSceneLimitsMaxNbDynamicShapes@@YAIPEBVPxSceneLimits@physx@@@Z 0000000180035b60 f i PxAutoGeneratedMetaDataObjects.obj
 0001:00034b60       ?getPxSceneQueryDescDynamicTreeSecondaryPruner@@YA?AW4Enum@PxDynamicTreeSecondaryPruner@physx@@PEBVPxSceneQueryDesc@3@@Z 0000000180035b60 f i PxAutoGeneratedMetaDataObjects.obj
 0001:00034b60       ?getPxSimulationStatisticsNbStaticBodies@@YAIPEBVPxSimulationStatistics@physx@@@Z 0000000180035b60 f i PxAutoGeneratedMetaDataObjects.obj
 0001:00034b60       ?getPxgDynamicsMemoryConfigHeapCapacity@@YAIPEBUPxgDynamicsMemoryConfig@physx@@@Z 0000000180035b60 f i PxAutoGeneratedMetaDataObjects.obj
 0001:00034b60       ?getReferenceCount@NpFEMSoftBodyMaterial@physx@@UEBAIXZ 0000000180035b60 f i NpFEMSoftBodyMaterial.obj
 0001:00034b60       ?getReferenceCount@NpMaterial@physx@@UEBAIXZ 0000000180035b60 f i NpMaterial.obj
 0001:00034b60       ?getReferenceCount@NpPBDMaterial@physx@@UEBAIXZ 0000000180035b60 f i NpPBDMaterial.obj
 0001:00034b60       ?getReferenceCount@NpShape@physx@@UEBAIXZ 0000000180035b60 f i NpShape.obj
 0001:00034b60       ?length@DNameStatusNode@@UEBAHXZ 0000000180035b60 f i libvcruntime:undname.obj
 0001:00034b60       ?raw_length@DNameStatusNode@@UEBAHXZ 0000000180035b60 f i libvcruntime:undname.obj
 0001:00034b70       ?getOffset@ArticulationFixedTendonCore@Sc@physx@@QEBAMXZ 0000000180035b70 f i SimulationController_static_64:ScArticulationTendonCore.obj
 0001:00034b70       ?getOffset@ArticulationSpatialTendonCore@Sc@physx@@QEBAMXZ 0000000180035b70 f i SimulationController_static_64:ScArticulationTendonCore.obj
 0001:00034b70       ?getPxArticulationDriveMaxForce@@YAMPEBUPxArticulationDrive@physx@@@Z 0000000180035b70 f i PxAutoGeneratedMetaDataObjects.obj
 0001:00034b70       ?getPxCapsuleGeometryRadius@@YAMPEBVPxCapsuleGeometry@physx@@@Z 0000000180035b70 f i PxAutoGeneratedMetaDataObjects.obj
 0001:00034b70       ?getPxSphereGeometryRadius@@YAMPEBVPxSphereGeometry@physx@@@Z 0000000180035b70 f i PxAutoGeneratedMetaDataObjects.obj
 0001:00034b80       ?getPxArticulationDriveStiffness@@YAMPEBUPxArticulationDrive@physx@@@Z 0000000180035b80 f i PxAutoGeneratedMetaDataObjects.obj
 0001:00034b80       ?getPxArticulationLimitLow@@YAMPEBUPxArticulationLimit@physx@@@Z 0000000180035b80 f i PxAutoGeneratedMetaDataObjects.obj
 0001:00034b80       ?getPxTolerancesScaleLength@@YAMPEBVPxTolerancesScale@physx@@@Z 0000000180035b80 f i PxAutoGeneratedMetaDataObjects.obj
 0001:00034b80       ?getStiffness@ArticulationFixedTendonCore@Sc@physx@@QEBAMXZ 0000000180035b80 f i SimulationController_static_64:ScArticulationTendonCore.obj
 0001:00034b80       ?getStiffness@ArticulationSpatialTendonCore@Sc@physx@@QEBAMXZ 0000000180035b80 f i SimulationController_static_64:ScArticulationTendonCore.obj
 0001:00034b90       ?getPxArticulationJointReducedCoordinate_Armature@@YAMPEBVPxArticulationJointReducedCoordinate@physx@@W4Enum@PxArticulationAxis@2@@Z 0000000180035b90 f   PxAutoGeneratedMetaDataObjects.obj
 0001:00034b90       ?getPxScene_Name@@YAPEBDPEBVPxScene@physx@@@Z 0000000180035b90 f   PxAutoGeneratedMetaDataObjects.obj
 0001:00034b90       ?setPxPBDMaterial_Cohesion@@YAXPEAVPxPBDMaterial@physx@@M@Z 0000000180035b90 f   PxAutoGeneratedMetaDataObjects.obj
 0001:00034ba0       ?getPxArticulationJointReducedCoordinate_ChildPose@@YA?AV?$PxTransformT@M@physx@@PEBVPxArticulationJointReducedCoordinate@2@@Z 0000000180035ba0 f   PxAutoGeneratedMetaDataObjects.obj
 0001:00034bd0       ?getPxArticulationJointReducedCoordinate_DriveParams@@YA?AUPxArticulationDrive@physx@@PEBVPxArticulationJointReducedCoordinate@2@W4Enum@PxArticulationAxis@2@@Z 0000000180035bd0 f   PxAutoGeneratedMetaDataObjects.obj
 0001:00034c00       ?getPxArticulationJointReducedCoordinate_FrictionCoefficient@@YAMPEBVPxArticulationJointReducedCoordinate@physx@@@Z 0000000180035c00 f   PxAutoGeneratedMetaDataObjects.obj
 0001:00034c00       ?getPxArticulationReducedCoordinate_Name@@YAPEBDPEBVPxArticulationReducedCoordinate@physx@@@Z 0000000180035c00 f   PxAutoGeneratedMetaDataObjects.obj
 0001:00034c00       ?getPxShape_ContactOffset@@YAMPEBVPxShape@physx@@@Z 0000000180035c00 f   PxAutoGeneratedMetaDataObjects.obj
 0001:00034c00       ?setPxPBDMaterial_Lift@@YAXPEAVPxPBDMaterial@physx@@M@Z 0000000180035c00 f   PxAutoGeneratedMetaDataObjects.obj
 0001:00034c10       ?getPxArticulationJointReducedCoordinate_JointPosition@@YAMPEBVPxArticulationJointReducedCoordinate@physx@@W4Enum@PxArticulationAxis@2@@Z 0000000180035c10 f   PxAutoGeneratedMetaDataObjects.obj
 0001:00034c10       ?getPxRigidBody_Mass@@YAMPEBVPxRigidBody@physx@@@Z 0000000180035c10 f   PxAutoGeneratedMetaDataObjects.obj
 0001:00034c10       ?getPxShape_DensityForFluid@@YAMPEBVPxShape@physx@@@Z 0000000180035c10 f   PxAutoGeneratedMetaDataObjects.obj
 0001:00034c10       ?setPxPBDMaterial_CFLCoefficient@@YAXPEAVPxPBDMaterial@physx@@M@Z 0000000180035c10 f   PxAutoGeneratedMetaDataObjects.obj
 0001:00034c20       ?getPxArticulationJointReducedCoordinate_JointType@@YA?AW4Enum@PxArticulationJointType@physx@@PEBVPxArticulationJointReducedCoordinate@3@@Z 0000000180035c20 f   PxAutoGeneratedMetaDataObjects.obj
 0001:00034c20       ?getPxArticulationReducedCoordinate_StabilizationThreshold@@YAMPEBVPxArticulationReducedCoordinate@physx@@@Z 0000000180035c20 f   PxAutoGeneratedMetaDataObjects.obj
 0001:00034c20       ?getPxSceneSQSystem_DynamicStructure@@YA?AW4Enum@PxPruningStructureType@physx@@PEBVPxSceneSQSystem@3@@Z 0000000180035c20 f   PxAutoGeneratedMetaDataObjects.obj
 0001:00034c20       ?setPxFEMMaterial_DynamicFriction@@YAXPEAVPxFEMMaterial@physx@@M@Z 0000000180035c20 f   PxAutoGeneratedMetaDataObjects.obj
 0001:00034c20       ?setPxMaterial_Restitution@@YAXPEAVPxMaterial@physx@@M@Z 0000000180035c20 f   PxAutoGeneratedMetaDataObjects.obj
 0001:00034c20       ?setPxParticleMaterial_Adhesion@@YAXPEAVPxParticleMaterial@physx@@M@Z 0000000180035c20 f   PxAutoGeneratedMetaDataObjects.obj
 0001:00034c30       ?getPxArticulationJointReducedCoordinate_JointVelocity@@YAMPEBVPxArticulationJointReducedCoordinate@physx@@W4Enum@PxArticulationAxis@2@@Z 0000000180035c30 f   PxAutoGeneratedMetaDataObjects.obj
 0001:00034c30       ?getPxShape_TorsionalPatchRadius@@YAMPEBVPxShape@physx@@@Z 0000000180035c30 f   PxAutoGeneratedMetaDataObjects.obj
 0001:00034c30       ?setPxPBDMaterial_ParticleFrictionScale@@YAXPEAVPxPBDMaterial@physx@@M@Z 0000000180035c30 f   PxAutoGeneratedMetaDataObjects.obj
 0001:00034c30       ?setPxRigidBody_MassSpaceInertiaTensor@@YAXPEAVPxRigidBody@physx@@AEBV?$PxVec3T@M@2@@Z 0000000180035c30 f   PxAutoGeneratedMetaDataObjects.obj
 0001:00034c40       ?getPxArticulationJointReducedCoordinate_LimitParams@@YA?AUPxArticulationLimit@physx@@PEBVPxArticulationJointReducedCoordinate@2@W4Enum@PxArticulationAxis@2@@Z 0000000180035c40 f   PxAutoGeneratedMetaDataObjects.obj
 0001:00034c70       ?getPxArticulationJointReducedCoordinate_MaxJointVelocity@@YAMPEBVPxArticulationJointReducedCoordinate@physx@@@Z 0000000180035c70 f   PxAutoGeneratedMetaDataObjects.obj
 0001:00034c70       ?getPxArticulationReducedCoordinate_Aggregate@@YAPEAVPxAggregate@physx@@PEBVPxArticulationReducedCoordinate@2@@Z 0000000180035c70 f   PxAutoGeneratedMetaDataObjects.obj
 0001:00034c70       ?getPxShape_RestOffset@@YAMPEBVPxShape@physx@@@Z 0000000180035c70 f   PxAutoGeneratedMetaDataObjects.obj
 0001:00034c70       ?setPxPBDMaterial_Drag@@YAXPEAVPxPBDMaterial@physx@@M@Z 0000000180035c70 f   PxAutoGeneratedMetaDataObjects.obj
 0001:00034c80       ?getPxArticulationJointReducedCoordinate_ParentPose@@YA?AV?$PxTransformT@M@physx@@PEBVPxArticulationJointReducedCoordinate@2@@Z 0000000180035c80 f   PxAutoGeneratedMetaDataObjects.obj
 0001:00034cb0       ?getPxArticulationLink_AngularVelocity@@YA?AV?$PxVec3T@M@physx@@PEBVPxArticulationLink@2@@Z 0000000180035cb0 f   PxAutoGeneratedMetaDataObjects.obj
 0001:00034cb0       ?getPxRigidDynamic_AngularVelocity@@YA?AV?$PxVec3T@M@physx@@PEBVPxRigidDynamic@2@@Z 0000000180035cb0 f   PxAutoGeneratedMetaDataObjects.obj
 0001:00034ce0       ?getPxArticulationLink_CfmScale@@YAMPEBVPxArticulationLink@physx@@@Z 0000000180035ce0 f   PxAutoGeneratedMetaDataObjects.obj
 0001:00034ce0       ?getPxScene_FilterCallback@@YAPEAVPxSimulationFilterCallback@physx@@PEBVPxScene@2@@Z 0000000180035ce0 f   PxAutoGeneratedMetaDataObjects.obj
 0001:00034cf0       ?getPxArticulationLink_Children@@YAIPEBVPxArticulationLink@physx@@PEAPEAV12@I@Z 0000000180035cf0 f   PxAutoGeneratedMetaDataObjects.obj
 0001:00034d00       ?getPxArticulationLink_InboundJoint@@YAPEAVPxArticulationJointReducedCoordinate@physx@@PEBVPxArticulationLink@2@@Z 0000000180035d00 f   PxAutoGeneratedMetaDataObjects.obj
 0001:00034d00       ?setPxScene_BroadPhaseCallback@@YAXPEAVPxScene@physx@@PEAVPxBroadPhaseCallback@2@@Z 0000000180035d00 f   PxAutoGeneratedMetaDataObjects.obj
 0001:00034d10       ?getPxArticulationLink_InboundJointDof@@YAIPEBVPxArticulationLink@physx@@@Z 0000000180035d10 f   PxAutoGeneratedMetaDataObjects.obj
 0001:00034d10       ?getPxRigidDynamic_IsSleeping@@YA_NPEBVPxRigidDynamic@physx@@@Z 0000000180035d10 f   PxAutoGeneratedMetaDataObjects.obj
 0001:00034d10       ?getPxScene_BroadPhaseCallback@@YAPEAVPxBroadPhaseCallback@physx@@PEBVPxScene@2@@Z 0000000180035d10 f   PxAutoGeneratedMetaDataObjects.obj
 0001:00034d20       ?getPxArticulationLink_LinearVelocity@@YA?AV?$PxVec3T@M@physx@@PEBVPxArticulationLink@2@@Z 0000000180035d20 f   PxAutoGeneratedMetaDataObjects.obj
 0001:00034d20       ?getPxRigidDynamic_LinearVelocity@@YA?AV?$PxVec3T@M@physx@@PEBVPxRigidDynamic@2@@Z 0000000180035d20 f   PxAutoGeneratedMetaDataObjects.obj
 0001:00034d50       ?getPxArticulationLink_LinkIndex@@YAIPEBVPxArticulationLink@physx@@@Z 0000000180035d50 f   PxAutoGeneratedMetaDataObjects.obj
 0001:00034d50       ?getPxRigidDynamic_SleepThreshold@@YAMPEBVPxRigidDynamic@physx@@@Z 0000000180035d50 f   PxAutoGeneratedMetaDataObjects.obj
 0001:00034d60       ?getPxArticulationReducedCoordinate_ArticulationFlags@@YA?AV?$PxFlags@W4Enum@PxArticulationFlag@physx@@E@physx@@PEBVPxArticulationReducedCoordinate@2@@Z 0000000180035d60 f   PxAutoGeneratedMetaDataObjects.obj
 0001:00034d90       ?getPxArticulationReducedCoordinate_Links@@YAIPEBVPxArticulationReducedCoordinate@physx@@PEAPEAVPxArticulationLink@2@I@Z 0000000180035d90 f   PxAutoGeneratedMetaDataObjects.obj
 0001:00034da0       ?getPxArticulationReducedCoordinate_MaxCOMLinearVelocity@@YAMPEBVPxArticulationReducedCoordinate@physx@@@Z 0000000180035da0 f   PxAutoGeneratedMetaDataObjects.obj
 0001:00034da0       ?setPxFEMSoftBodyMaterial_MaterialModel@@YAXPEAVPxFEMSoftBodyMaterial@physx@@W4Enum@PxFEMSoftBodyMaterialModel@2@@Z 0000000180035da0 f   PxAutoGeneratedMetaDataObjects.obj
 0001:00034da0       ?setPxPBDMaterial_Viscosity@@YAXPEAVPxPBDMaterial@physx@@M@Z 0000000180035da0 f   PxAutoGeneratedMetaDataObjects.obj
 0001:00034db0       ?getPxArticulationReducedCoordinate_RootAngularVelocity@@YA?AV?$PxVec3T@M@physx@@PEBVPxArticulationReducedCoordinate@2@@Z 0000000180035db0 f   PxAutoGeneratedMetaDataObjects.obj
 0001:00034de0       ?getPxArticulationReducedCoordinate_RootGlobalPose@@YA?AV?$PxTransformT@M@physx@@PEBVPxArticulationReducedCoordinate@2@@Z 0000000180035de0 f   PxAutoGeneratedMetaDataObjects.obj
 0001:00034e10       ?getPxArticulationReducedCoordinate_RootLinearVelocity@@YA?AV?$PxVec3T@M@physx@@PEBVPxArticulationReducedCoordinate@2@@Z 0000000180035e10 f   PxAutoGeneratedMetaDataObjects.obj
 0001:00034e40       ?getPxArticulationReducedCoordinate_Scene@@YAPEAVPxScene@physx@@PEBVPxArticulationReducedCoordinate@2@@Z 0000000180035e40 f   PxAutoGeneratedMetaDataObjects.obj
 0001:00034e40       ?getPxConstraint_Scene@@YAPEAVPxScene@physx@@PEBVPxConstraint@2@@Z 0000000180035e40 f   PxAutoGeneratedMetaDataObjects.obj
 0001:00034e40       ?getPxRefCounted_ReferenceCount@@YAIPEBVPxRefCounted@physx@@@Z 0000000180035e40 f   PxAutoGeneratedMetaDataObjects.obj
 0001:00034e40       ?getPxSceneQuerySystemBase_UpdateMode@@YA?AW4Enum@PxSceneQueryUpdateMode@physx@@PEBVPxSceneQuerySystemBase@3@@Z 0000000180035e40 f   PxAutoGeneratedMetaDataObjects.obj
 0001:00034e40       ?getPxSceneSQSystem_SceneQueryUpdateMode@@YA?AW4Enum@PxSceneQueryUpdateMode@physx@@PEBVPxSceneSQSystem@3@@Z 0000000180035e40 f   PxAutoGeneratedMetaDataObjects.obj
 0001:00034e50       ?getConcreteTypeName@?$PxSerializerDefaultAdapter@VBV4TriangleMesh@Gu@physx@@@physx@@UEBAPEBDXZ 0000000180035e50 f i NpSerializerAdapter.obj
 0001:00034e50       ?getConcreteTypeName@?$PxSerializerDefaultAdapter@VConvexMesh@Gu@physx@@@physx@@UEBAPEBDXZ 0000000180035e50 f i NpSerializerAdapter.obj
 0001:00034e50       ?getConcreteTypeName@?$PxSerializerDefaultAdapter@VHeightField@Gu@physx@@@physx@@UEBAPEBDXZ 0000000180035e50 f i NpSerializerAdapter.obj
 0001:00034e50       ?getConcreteTypeName@?$PxSerializerDefaultAdapter@VNpAggregate@physx@@@physx@@UEBAPEBDXZ 0000000180035e50 f i NpSerializerAdapter.obj
 0001:00034e50       ?getConcreteTypeName@?$PxSerializerDefaultAdapter@VNpArticulationAttachment@physx@@@physx@@UEBAPEBDXZ 0000000180035e50 f i NpSerializerAdapter.obj
 0001:00034e50       ?getConcreteTypeName@?$PxSerializerDefaultAdapter@VNpArticulationFixedTendon@physx@@@physx@@UEBAPEBDXZ 0000000180035e50 f i NpSerializerAdapter.obj
 0001:00034e50       ?getConcreteTypeName@?$PxSerializerDefaultAdapter@VNpArticulationJointReducedCoordinate@physx@@@physx@@UEBAPEBDXZ 0000000180035e50 f i NpSerializerAdapter.obj
 0001:00034e50       ?getConcreteTypeName@?$PxSerializerDefaultAdapter@VNpArticulationLink@physx@@@physx@@UEBAPEBDXZ 0000000180035e50 f i NpSerializerAdapter.obj
 0001:00034e50       ?getConcreteTypeName@?$PxSerializerDefaultAdapter@VNpArticulationReducedCoordinate@physx@@@physx@@UEBAPEBDXZ 0000000180035e50 f i NpSerializerAdapter.obj
 0001:00034e50       ?getConcreteTypeName@?$PxSerializerDefaultAdapter@VNpArticulationSensor@physx@@@physx@@UEBAPEBDXZ 0000000180035e50 f i NpSerializerAdapter.obj
 0001:00034e50       ?getConcreteTypeName@?$PxSerializerDefaultAdapter@VNpArticulationSpatialTendon@physx@@@physx@@UEBAPEBDXZ 0000000180035e50 f i NpSerializerAdapter.obj
 0001:00034e50       ?getConcreteTypeName@?$PxSerializerDefaultAdapter@VNpArticulationTendonJoint@physx@@@physx@@UEBAPEBDXZ 0000000180035e50 f i NpSerializerAdapter.obj
 0001:00034e50       ?getConcreteTypeName@?$PxSerializerDefaultAdapter@VNpConstraint@physx@@@physx@@UEBAPEBDXZ 0000000180035e50 f i NpSerializerAdapter.obj
 0001:00034e50       ?getConcreteTypeName@?$PxSerializerDefaultAdapter@VNpMaterial@physx@@@physx@@UEBAPEBDXZ 0000000180035e50 f i NpSerializerAdapter.obj
 0001:00034e50       ?getConcreteTypeName@?$PxSerializerDefaultAdapter@VNpRigidDynamic@physx@@@physx@@UEBAPEBDXZ 0000000180035e50 f i NpSerializerAdapter.obj
 0001:00034e50       ?getConcreteTypeName@?$PxSerializerDefaultAdapter@VNpRigidStatic@physx@@@physx@@UEBAPEBDXZ 0000000180035e50 f i NpSerializerAdapter.obj
 0001:00034e50       ?getConcreteTypeName@?$PxSerializerDefaultAdapter@VNpShape@physx@@@physx@@UEBAPEBDXZ 0000000180035e50 f i NpSerializerAdapter.obj
 0001:00034e50       ?getConcreteTypeName@?$PxSerializerDefaultAdapter@VPruningStructure@Sq@physx@@@physx@@UEBAPEBDXZ 0000000180035e50 f i NpSerializerAdapter.obj
 0001:00034e50       ?getConcreteTypeName@?$PxSerializerDefaultAdapter@VRTreeTriangleMesh@Gu@physx@@@physx@@UEBAPEBDXZ 0000000180035e50 f i NpSerializerAdapter.obj
 0001:00034e50       ?getPoints@RenderBuffer@Cm@physx@@UEBAPEBUPxDebugPoint@3@XZ 0000000180035e50 f i NpScene.obj
 0001:00034e50       ?getPxBroadPhaseDescMContextID@@YA_KPEBVPxBroadPhaseDesc@physx@@@Z 0000000180035e50 f i PxAutoGeneratedMetaDataObjects.obj
 0001:00034e50       ?getPxHeightFieldGeometryHeightField@@YAPEAVPxHeightField@physx@@PEBVPxHeightFieldGeometry@2@@Z 0000000180035e50 f i PxAutoGeneratedMetaDataObjects.obj
 0001:00034e50       ?getPxSceneUserData@@YAPEAXPEBVPxScene@physx@@@Z 0000000180035e50 f i PxAutoGeneratedMetaDataObjects.obj
 0001:00034e50       ?getPxTetrahedronMeshGeometryTetrahedronMesh@@YAPEAVPxTetrahedronMesh@physx@@PEBVPxTetrahedronMeshGeometry@2@@Z 0000000180035e50 f i PxAutoGeneratedMetaDataObjects.obj
 0001:00034e60       ?getPxBroadPhaseDescMDiscardKinematicVsKinematic@@YA_NPEBVPxBroadPhaseDesc@physx@@@Z 0000000180035e60 f i PxAutoGeneratedMetaDataObjects.obj
 0001:00034e70       ?getPxBroadPhaseDescMDiscardStaticVsKinematic@@YA_NPEBVPxBroadPhaseDesc@physx@@@Z 0000000180035e70 f i PxAutoGeneratedMetaDataObjects.obj
 0001:00034e80       ?getPxBroadPhaseDescMFoundLostPairsCapacity@@YAIPEBVPxBroadPhaseDesc@physx@@@Z 0000000180035e80 f i PxAutoGeneratedMetaDataObjects.obj
 0001:00034e80       ?getPxSceneLimitsMaxNbRegions@@YAIPEBVPxSceneLimits@physx@@@Z 0000000180035e80 f i PxAutoGeneratedMetaDataObjects.obj
 0001:00034e80       ?getPxSceneQueryDescStaticNbObjectsPerNode@@YAIPEBVPxSceneQueryDesc@physx@@@Z 0000000180035e80 f i PxAutoGeneratedMetaDataObjects.obj
 0001:00034e80       ?getPxgDynamicsMemoryConfigTotalAggregatePairsCapacity@@YAIPEBUPxgDynamicsMemoryConfig@physx@@@Z 0000000180035e80 f i PxAutoGeneratedMetaDataObjects.obj
 0001:00034e80       ?getReference@FanoutTask@Cm@physx@@UEBAHXZ 0000000180035e80 f i SimulationController_static_64:ScScene.obj
 0001:00034e80       ?raw_length@pairNode@@UEBAHXZ 0000000180035e80 f i libvcruntime:undname.obj
 0001:00034e90       ?getPxBroadPhaseDescMType@@YA?AW4Enum@PxBroadPhaseType@physx@@PEBVPxBroadPhaseDesc@3@@Z 0000000180035e90 f i PxAutoGeneratedMetaDataObjects.obj
 0001:00034e90       ?getPxHeightFieldDescNbRows@@YAIPEBVPxHeightFieldDesc@physx@@@Z 0000000180035e90 f i PxAutoGeneratedMetaDataObjects.obj
 0001:00034e90       ?getPxSceneLimitsMaxNbActors@@YAIPEBVPxSceneLimits@physx@@@Z 0000000180035e90 f i PxAutoGeneratedMetaDataObjects.obj
 0001:00034e90       ?getPxSceneQueryDescStaticStructure@@YA?AW4Enum@PxPruningStructureType@physx@@PEBVPxSceneQueryDesc@3@@Z 0000000180035e90 f i PxAutoGeneratedMetaDataObjects.obj
 0001:00034e90       ?getPxSimulationStatisticsNbActiveConstraints@@YAIPEBVPxSimulationStatistics@physx@@@Z 0000000180035e90 f i PxAutoGeneratedMetaDataObjects.obj
 0001:00034e90       ?getPxgDynamicsMemoryConfigTempBufferCapacity@@YAIPEBUPxgDynamicsMemoryConfig@physx@@@Z 0000000180035e90 f i PxAutoGeneratedMetaDataObjects.obj
 0001:00034ea0       ?getPxBroadPhaseDesc_IsValid@@YA_NPEBVPxBroadPhaseDesc@physx@@@Z 0000000180035ea0 f   PxAutoGeneratedMetaDataObjects.obj
 0001:00034ec0       ?getLimitStiffness@ArticulationFixedTendonCore@Sc@physx@@QEBAMXZ 0000000180035ec0 f i SimulationController_static_64:ScArticulationTendonCore.obj
 0001:00034ec0       ?getLimitStiffness@ArticulationSpatialTendonCore@Sc@physx@@QEBAMXZ 0000000180035ec0 f i SimulationController_static_64:ScArticulationTendonCore.obj
 0001:00034ec0       ?getPxCapsuleGeometryHalfHeight@@YAMPEBVPxCapsuleGeometry@physx@@@Z 0000000180035ec0 f i PxAutoGeneratedMetaDataObjects.obj
 0001:00034ed0       ?getPxConstraint_BreakForce@@YAXPEBVPxConstraint@physx@@AEAM1@Z 0000000180035ed0 f   PxAutoGeneratedMetaDataObjects.obj
 0001:00034ed0       ?getPxFEMSoftBodyMaterial_Damping@@YAMPEBVPxFEMSoftBodyMaterial@physx@@@Z 0000000180035ed0 f   PxAutoGeneratedMetaDataObjects.obj
 0001:00034ed0       ?getPxMaterial_Damping@@YAMPEBVPxMaterial@physx@@@Z 0000000180035ed0 f   PxAutoGeneratedMetaDataObjects.obj
 0001:00034ed0       ?getPxParticleMaterial_GravityScale@@YAMPEBVPxParticleMaterial@physx@@@Z 0000000180035ed0 f   PxAutoGeneratedMetaDataObjects.obj
 0001:00034ed0       ?setPxActor_OwnerClient@@YAXPEAVPxActor@physx@@E@Z 0000000180035ed0 f   PxAutoGeneratedMetaDataObjects.obj
 0001:00034ed0       ?setPxShape_QueryFilterData@@YAXPEAVPxShape@physx@@AEBUPxFilterData@2@@Z 0000000180035ed0 f   PxAutoGeneratedMetaDataObjects.obj
 0001:00034ee0       ?getPxConstraint_Flags@@YA?AV?$PxFlags@W4Enum@PxConstraintFlag@physx@@G@physx@@PEBVPxConstraint@2@@Z 0000000180035ee0 f   PxAutoGeneratedMetaDataObjects.obj
 0001:00034f10       ?getPxConvexMeshGeometryMeshFlags@@YA?AV?$PxFlags@W4Enum@PxConvexMeshGeometryFlag@physx@@E@physx@@PEBVPxConvexMeshGeometry@2@@Z 0000000180035f10 f i PxAutoGeneratedMetaDataObjects.obj
 0001:00034f20       ?getPxConvexMeshGeometryScale@@YA?AVPxMeshScale@physx@@PEBVPxConvexMeshGeometry@2@@Z 0000000180035f20 f i PxAutoGeneratedMetaDataObjects.obj
 0001:00034f20       ?getPxTriangleMeshGeometryScale@@YA?AVPxMeshScale@physx@@PEBVPxTriangleMeshGeometry@2@@Z 0000000180035f20 f i PxAutoGeneratedMetaDataObjects.obj
 0001:00034f50       ?getAdhesion@NpPBDMaterial@physx@@UEBAMXZ 0000000180035f50 f i NpPBDMaterial.obj
 0001:00034f50       ?getPxHeightFieldDescConvexEdgeThreshold@@YAMPEBVPxHeightFieldDesc@physx@@@Z 0000000180035f50 f i PxAutoGeneratedMetaDataObjects.obj
 0001:00034f50       ?getRestitution@NpMaterial@physx@@UEBAMXZ 0000000180035f50 f i NpMaterial.obj
 0001:00034f50       ?getYoungsModulus@NpFEMSoftBodyMaterial@physx@@UEBAMXZ 0000000180035f50 f i NpFEMSoftBodyMaterial.obj
 0001:00034f60       ?getPxHeightFieldDescFlags@@YA?AV?$PxFlags@W4Enum@PxHeightFieldFlag@physx@@G@physx@@PEBVPxHeightFieldDesc@2@@Z 0000000180035f60 f i PxAutoGeneratedMetaDataObjects.obj
 0001:00034f70       ?getPxHeightFieldDescFormat@@YA?AW4Enum@PxHeightFieldFormat@physx@@PEBVPxHeightFieldDesc@3@@Z 0000000180035f70 f i PxAutoGeneratedMetaDataObjects.obj
 0001:00034f70       ?getPxSceneLimitsMaxNbStaticShapes@@YAIPEBVPxSceneLimits@physx@@@Z 0000000180035f70 f i PxAutoGeneratedMetaDataObjects.obj
 0001:00034f70       ?getPxSceneQueryDescDynamicTreeRebuildRateHint@@YAIPEBVPxSceneQueryDesc@physx@@@Z 0000000180035f70 f i PxAutoGeneratedMetaDataObjects.obj
 0001:00034f70       ?getPxSimulationStatisticsNbActiveKinematicBodies@@YAIPEBVPxSimulationStatistics@physx@@@Z 0000000180035f70 f i PxAutoGeneratedMetaDataObjects.obj
 0001:00034f70       ?getPxgDynamicsMemoryConfigMaxRigidPatchCount@@YAIPEBUPxgDynamicsMemoryConfig@physx@@@Z 0000000180035f70 f i PxAutoGeneratedMetaDataObjects.obj
 0001:00034f80       ?getPxHeightFieldDescNbColumns@@YAIPEBVPxHeightFieldDesc@physx@@@Z 0000000180035f80 f i PxAutoGeneratedMetaDataObjects.obj
 0001:00034f80       ?getPxSceneLimitsMaxNbBodies@@YAIPEBVPxSceneLimits@physx@@@Z 0000000180035f80 f i PxAutoGeneratedMetaDataObjects.obj
 0001:00034f80       ?getPxSceneQueryDescDynamicStructure@@YA?AW4Enum@PxPruningStructureType@physx@@PEBVPxSceneQueryDesc@3@@Z 0000000180035f80 f i PxAutoGeneratedMetaDataObjects.obj
 0001:00034f80       ?getPxSimulationStatisticsNbActiveDynamicBodies@@YAIPEBVPxSimulationStatistics@physx@@@Z 0000000180035f80 f i PxAutoGeneratedMetaDataObjects.obj
 0001:00034f80       ?getPxgDynamicsMemoryConfigMaxRigidContactCount@@YAIPEBUPxgDynamicsMemoryConfig@physx@@@Z 0000000180035f80 f i PxAutoGeneratedMetaDataObjects.obj
 0001:00034f90       ?getPxHeightFieldDescSamples@@YA?AUPxStridedData@physx@@PEBVPxHeightFieldDesc@2@@Z 0000000180035f90 f i PxAutoGeneratedMetaDataObjects.obj
 0001:00034fa0       ?getDynamicFriction@NpMaterial@physx@@UEBAMXZ 0000000180035fa0 f i NpMaterial.obj
 0001:00034fa0       ?getFriction@NpPBDMaterial@physx@@UEBAMXZ 0000000180035fa0 f i NpPBDMaterial.obj
 0001:00034fa0       ?getPxHeightFieldGeometryColumnScale@@YAMPEBVPxHeightFieldGeometry@physx@@@Z 0000000180035fa0 f i PxAutoGeneratedMetaDataObjects.obj
 0001:00034fa0       ?getSpringRestLength@ArticulationFixedTendonCore@Sc@physx@@QEBAMXZ 0000000180035fa0 f i SimulationController_static_64:ScArticulationTendonCore.obj
 0001:00034fb0       ?getPxHeightFieldGeometryHeightFieldFlags@@YA?AV?$PxFlags@W4Enum@PxMeshGeometryFlag@physx@@E@physx@@PEBVPxHeightFieldGeometry@2@@Z 0000000180035fb0 f i PxAutoGeneratedMetaDataObjects.obj
 0001:00034fc0       ?getPxHeightFieldGeometryHeightScale@@YAMPEBVPxHeightFieldGeometry@physx@@@Z 0000000180035fc0 f i PxAutoGeneratedMetaDataObjects.obj
 0001:00034fd0       ?getPxHeightFieldGeometryRowScale@@YAMPEBVPxHeightFieldGeometry@physx@@@Z 0000000180035fd0 f i PxAutoGeneratedMetaDataObjects.obj
 0001:00034fe0       ?getPxMaterial_Flags@@YA?AV?$PxFlags@W4Enum@PxMaterialFlag@physx@@G@physx@@PEBVPxMaterial@2@@Z 0000000180035fe0 f   PxAutoGeneratedMetaDataObjects.obj
 0001:00034fe0       ?getPxScene_Flags@@YA?AV?$PxFlags@W4Enum@PxSceneFlag@physx@@I@physx@@PEBVPxScene@2@@Z 0000000180035fe0 f   PxAutoGeneratedMetaDataObjects.obj
 0001:00035010       ?getPxMeshScaleRotation@@YA?AV?$PxQuatT@M@physx@@PEBVPxMeshScale@2@@Z 0000000180036010 f i PxAutoGeneratedMetaDataObjects.obj
 0001:00035030       ?getPxMeshScaleScale@@YA?AV?$PxVec3T@M@physx@@PEBVPxMeshScale@2@@Z 0000000180036030 f i PxAutoGeneratedMetaDataObjects.obj
 0001:00035050       ?getPxPBDMaterial_Drag@@YAMPEBVPxPBDMaterial@physx@@@Z 0000000180036050 f   PxAutoGeneratedMetaDataObjects.obj
 0001:00035050       ?setPxArticulationJointReducedCoordinate_JointPosition@@YAXPEAVPxArticulationJointReducedCoordinate@physx@@W4Enum@PxArticulationAxis@2@M@Z 0000000180036050 f   PxAutoGeneratedMetaDataObjects.obj
 0001:00035050       ?setPxRigidBody_Mass@@YAXPEAVPxRigidBody@physx@@M@Z 0000000180036050 f   PxAutoGeneratedMetaDataObjects.obj
 0001:00035050       ?setPxShape_DensityForFluid@@YAXPEAVPxShape@physx@@M@Z 0000000180036050 f   PxAutoGeneratedMetaDataObjects.obj
 0001:00035060       ?getPxPBDMaterial_Lift@@YAMPEBVPxPBDMaterial@physx@@@Z 0000000180036060 f   PxAutoGeneratedMetaDataObjects.obj
 0001:00035060       ?setPxArticulationJointReducedCoordinate_MaxJointVelocity@@YAXPEAVPxArticulationJointReducedCoordinate@physx@@M@Z 0000000180036060 f   PxAutoGeneratedMetaDataObjects.obj
 0001:00035060       ?setPxRigidBody_CMassLocalPose@@YAXPEAVPxRigidBody@physx@@AEBV?$PxTransformT@M@2@@Z 0000000180036060 f   PxAutoGeneratedMetaDataObjects.obj
 0001:00035060       ?setPxShape_RestOffset@@YAXPEAVPxShape@physx@@M@Z 0000000180036060 f   PxAutoGeneratedMetaDataObjects.obj
 0001:00035070       ?getPxPBDMaterial_ParticleAdhesionScale@@YAMPEBVPxPBDMaterial@physx@@@Z 0000000180036070 f   PxAutoGeneratedMetaDataObjects.obj
 0001:00035070       ?getPxShape_InternalShapeIndex@@YAIPEBVPxShape@physx@@@Z 0000000180036070 f   PxAutoGeneratedMetaDataObjects.obj
 0001:00035070       ?setPxRigidBody_LinearDamping@@YAXPEAVPxRigidBody@physx@@M@Z 0000000180036070 f   PxAutoGeneratedMetaDataObjects.obj
 0001:00035080       ?getPxPBDMaterial_ParticleFrictionScale@@YAMPEBVPxPBDMaterial@physx@@@Z 0000000180036080 f   PxAutoGeneratedMetaDataObjects.obj
 0001:00035080       ?setPxShape_MinTorsionalPatchRadius@@YAXPEAVPxShape@physx@@M@Z 0000000180036080 f   PxAutoGeneratedMetaDataObjects.obj
 0001:00035090       ?getPxPBDMaterial_VorticityConfinement@@YAMPEBVPxPBDMaterial@physx@@@Z 0000000180036090 f   PxAutoGeneratedMetaDataObjects.obj
 0001:00035090       ?setPxMaterial_RestitutionCombineMode@@YAXPEAVPxMaterial@physx@@W4Enum@PxCombineMode@2@@Z 0000000180036090 f   PxAutoGeneratedMetaDataObjects.obj
 0001:000350a0       ?getPxPhysics_BVHs@@YAIPEBVPxPhysics@physx@@PEAPEAVPxBVH@2@I@Z 00000001800360a0 f   PxAutoGeneratedMetaDataObjects.obj
 0001:000350a0       ?getPxShape_Materials@@YAIPEBVPxShape@physx@@PEAPEAVPxMaterial@2@I@Z 00000001800360a0 f   PxAutoGeneratedMetaDataObjects.obj
 0001:000350b0       ?getPxPhysics_ConvexMeshes@@YAIPEBVPxPhysics@physx@@PEAPEAVPxConvexMesh@2@I@Z 00000001800360b0 f   PxAutoGeneratedMetaDataObjects.obj
 0001:000350c0       ?getPxPhysics_FEMClothMaterials@@YAIPEBVPxPhysics@physx@@PEAPEAVPxFEMClothMaterial@2@I@Z 00000001800360c0 f   PxAutoGeneratedMetaDataObjects.obj
 0001:000350d0       ?getPxPhysics_FEMSoftBodyMaterials@@YAIPEBVPxPhysics@physx@@PEAPEAVPxFEMSoftBodyMaterial@2@I@Z 00000001800360d0 f   PxAutoGeneratedMetaDataObjects.obj
 0001:000350e0       ?getPxPhysics_HeightFields@@YAIPEBVPxPhysics@physx@@PEAPEAVPxHeightField@2@I@Z 00000001800360e0 f   PxAutoGeneratedMetaDataObjects.obj
 0001:000350f0       ?getPxPhysics_Materials@@YAIPEBVPxPhysics@physx@@PEAPEAVPxMaterial@2@I@Z 00000001800360f0 f   PxAutoGeneratedMetaDataObjects.obj
 0001:000350f0       ?getPxScene_Articulations@@YAIPEBVPxScene@physx@@PEAPEAVPxArticulationReducedCoordinate@2@I@Z 00000001800360f0 f   PxAutoGeneratedMetaDataObjects.obj
 0001:00035100       ?getPxPhysics_PBDMaterials@@YAIPEBVPxPhysics@physx@@PEAPEAVPxPBDMaterial@2@I@Z 0000000180036100 f   PxAutoGeneratedMetaDataObjects.obj
 0001:00035110       ?getPxPhysics_Scenes@@YAIPEBVPxPhysics@physx@@PEAPEAVPxScene@2@I@Z 0000000180036110 f   PxAutoGeneratedMetaDataObjects.obj
 0001:00035110       ?getPxRigidActor_Shapes@@YAIPEBVPxRigidActor@physx@@PEAPEAVPxShape@2@I@Z 0000000180036110 f   PxAutoGeneratedMetaDataObjects.obj
 0001:00035120       ?getPxPhysics_Shapes@@YAIPEBVPxPhysics@physx@@PEAPEAVPxShape@2@I@Z 0000000180036120 f   PxAutoGeneratedMetaDataObjects.obj
 0001:00035130       ?getPxPhysics_TriangleMeshes@@YAIPEBVPxPhysics@physx@@PEAPEAVPxTriangleMesh@2@I@Z 0000000180036130 f   PxAutoGeneratedMetaDataObjects.obj
 0001:00035140       ?getPxPruningStructure_RigidActors@@YAIPEBVPxPruningStructure@physx@@PEAPEAVPxRigidActor@2@I@Z 0000000180036140 f   PxAutoGeneratedMetaDataObjects.obj
 0001:00035150       ?getPxRigidActor_Constraints@@YAIPEBVPxRigidActor@physx@@PEAPEAVPxConstraint@2@I@Z 0000000180036150 f   PxAutoGeneratedMetaDataObjects.obj
 0001:00035160       ?getPxRigidActor_GlobalPose@@YA?AV?$PxTransformT@M@physx@@PEBVPxRigidActor@2@@Z 0000000180036160 f   PxAutoGeneratedMetaDataObjects.obj
 0001:00035190       ?getPxRigidBody_CMassLocalPose@@YA?AV?$PxTransformT@M@physx@@PEBVPxRigidBody@2@@Z 0000000180036190 f   PxAutoGeneratedMetaDataObjects.obj
 0001:000351c0       ?getPxRigidBody_ContactSlopCoefficient@@YAMPEBVPxRigidBody@physx@@@Z 00000001800361c0 f   PxAutoGeneratedMetaDataObjects.obj
 0001:000351c0       ?setPxScene_CCDContactModifyCallback@@YAXPEAVPxScene@physx@@PEAVPxCCDContactModifyCallback@2@@Z 00000001800361c0 f   PxAutoGeneratedMetaDataObjects.obj
 0001:000351d0       ?getPxRigidBody_LinearDamping@@YAMPEBVPxRigidBody@physx@@@Z 00000001800361d0 f   PxAutoGeneratedMetaDataObjects.obj
 0001:000351e0       ?getPxRigidBody_MassSpaceInertiaTensor@@YA?AV?$PxVec3T@M@physx@@PEBVPxRigidBody@2@@Z 00000001800361e0 f   PxAutoGeneratedMetaDataObjects.obj
 0001:00035210       ?getPxRigidBody_MassSpaceInvInertiaTensor@@YA?AV?$PxVec3T@M@physx@@PEBVPxRigidBody@2@@Z 0000000180036210 f   PxAutoGeneratedMetaDataObjects.obj
 0001:00035240       ?getPxRigidBody_MaxAngularVelocity@@YAMPEBVPxRigidBody@physx@@@Z 0000000180036240 f   PxAutoGeneratedMetaDataObjects.obj
 0001:00035250       ?getPxRigidBody_MaxContactImpulse@@YAMPEBVPxRigidBody@physx@@@Z 0000000180036250 f   PxAutoGeneratedMetaDataObjects.obj
 0001:00035250       ?getPxScene_SimulationEventCallback@@YAPEAVPxSimulationEventCallback@physx@@PEBVPxScene@2@@Z 0000000180036250 f   PxAutoGeneratedMetaDataObjects.obj
 0001:00035260       ?getPxRigidBody_MaxDepenetrationVelocity@@YAMPEBVPxRigidBody@physx@@@Z 0000000180036260 f   PxAutoGeneratedMetaDataObjects.obj
 0001:00035270       ?getPxRigidBody_MaxLinearVelocity@@YAMPEBVPxRigidBody@physx@@@Z 0000000180036270 f   PxAutoGeneratedMetaDataObjects.obj
 0001:00035280       ?getPxRigidBody_MinCCDAdvanceCoefficient@@YAMPEBVPxRigidBody@physx@@@Z 0000000180036280 f   PxAutoGeneratedMetaDataObjects.obj
 0001:00035280       ?getPxScene_CpuDispatcher@@YAPEAVPxCpuDispatcher@physx@@PEBVPxScene@2@@Z 0000000180036280 f   PxAutoGeneratedMetaDataObjects.obj
 0001:00035290       ?getPxRigidBody_RigidBodyFlags@@YA?AV?$PxFlags@W4Enum@PxRigidBodyFlag@physx@@G@physx@@PEBVPxRigidBody@2@@Z 0000000180036290 f   PxAutoGeneratedMetaDataObjects.obj
 0001:000352c0       ?getPxRigidDynamic_ContactReportThreshold@@YAMPEBVPxRigidDynamic@physx@@@Z 00000001800362c0 f   PxAutoGeneratedMetaDataObjects.obj
 0001:000352d0       ?getPxRigidDynamic_RigidDynamicLockFlags@@YA?AV?$PxFlags@W4Enum@PxRigidDynamicLockFlag@physx@@E@physx@@PEBVPxRigidDynamic@2@@Z 00000001800362d0 f   PxAutoGeneratedMetaDataObjects.obj
 0001:00035300       ?getPxRigidDynamic_SolverIterationCounts@@YAXPEBVPxRigidDynamic@physx@@AEAI1@Z 0000000180036300 f   PxAutoGeneratedMetaDataObjects.obj
 0001:00035310       ?getPxRigidDynamic_StabilizationThreshold@@YAMPEBVPxRigidDynamic@physx@@@Z 0000000180036310 f   PxAutoGeneratedMetaDataObjects.obj
 0001:00035310       ?getPxScene_FilterShader@@YAP6A?AV?$PxFlags@W4Enum@PxFilterFlag@physx@@G@physx@@IUPxFilterData@2@I0AEAV?$PxFlags@W4Enum@PxPairFlag@physx@@G@2@PEBXI@ZPEBVPxScene@2@@Z 0000000180036310 f   PxAutoGeneratedMetaDataObjects.obj
 0001:00035310       ?setPxArticulationLink_CfmScale@@YAXPEAVPxArticulationLink@physx@@M@Z 0000000180036310 f   PxAutoGeneratedMetaDataObjects.obj
 0001:00035320       ?getPxRigidDynamic_WakeCounter@@YAMPEBVPxRigidDynamic@physx@@@Z 0000000180036320 f   PxAutoGeneratedMetaDataObjects.obj
 0001:00035330       ?getPxSceneDescBounceThresholdVelocity@@YAMPEBVPxSceneDesc@physx@@@Z 0000000180036330 f i PxAutoGeneratedMetaDataObjects.obj
 0001:00035330       ?getTorsionalPatchRadius@NpShape@physx@@UEBAMXZ 0000000180036330 f i NpShape.obj
 0001:00035340       ?getPxSceneDescBroadPhaseCallback@@YAPEAVPxBroadPhaseCallback@physx@@PEBVPxSceneDesc@2@@Z 0000000180036340 f i PxAutoGeneratedMetaDataObjects.obj
 0001:00035340       ?getTendon@NpArticulationAttachment@physx@@UEBAPEAVPxArticulationSpatialTendon@2@XZ 0000000180036340 f i NpArticulationTendon.obj
 0001:00035350       ?getPxSceneDescBroadPhaseType@@YA?AW4Enum@PxBroadPhaseType@physx@@PEBVPxSceneDesc@3@@Z 0000000180036350 f i PxAutoGeneratedMetaDataObjects.obj
 0001:00035350       ?getPxSimulationStatisticsNbNewTouches@@YAIPEBVPxSimulationStatistics@physx@@@Z 0000000180036350 f i PxAutoGeneratedMetaDataObjects.obj
 0001:00035360       ?getPxSceneDescCcdContactModifyCallback@@YAPEAVPxCCDContactModifyCallback@physx@@PEBVPxSceneDesc@2@@Z 0000000180036360 f i PxAutoGeneratedMetaDataObjects.obj
 0001:00035360       ?getSimulationMesh@NpSoftBody@physx@@UEAAPEAVPxTetrahedronMesh@2@XZ 0000000180036360 f i NpSoftBody.obj
 0001:00035360       ?getSimulationMesh@NpSoftBody@physx@@UEBAPEBVPxTetrahedronMesh@2@XZ 0000000180036360 f i NpSoftBody.obj
 0001:00035370       ?getPeakConstraintBlockCount@PxcNpMemBlockPool@physx@@QEBAIXZ 0000000180036370 f i LowLevel_static_64:PxcNpMemBlockPool.obj
 0001:00035370       ?getPxSceneDescCcdMaxPasses@@YAIPEBVPxSceneDesc@physx@@@Z 0000000180036370 f i PxAutoGeneratedMetaDataObjects.obj
 0001:00035380       ?getMaxVelocity@ParticleSystemCore@Sc@physx@@QEBAMXZ 0000000180036380 f i SimulationController_static_64:ScParticleSystemCore.obj
 0001:00035380       ?getPxSceneDescCcdMaxSeparation@@YAMPEBVPxSceneDesc@physx@@@Z 0000000180036380 f i PxAutoGeneratedMetaDataObjects.obj
 0001:00035390       ?getMaxDepenetrationVelocity@ParticleSystemCore@Sc@physx@@QEBAMXZ 0000000180036390 f i SimulationController_static_64:ScParticleSystemCore.obj
 0001:00035390       ?getPxSceneDescCcdThreshold@@YAMPEBVPxSceneDesc@physx@@@Z 0000000180036390 f i PxAutoGeneratedMetaDataObjects.obj
 0001:000353a0       ?getPxSceneDescContactModifyCallback@@YAPEAVPxContactModifyCallback@physx@@PEBVPxSceneDesc@2@@Z 00000001800363a0 f i PxAutoGeneratedMetaDataObjects.obj
 0001:000353a0       ?getShape@NpSoftBody@physx@@UEAAPEAVPxShape@2@XZ 00000001800363a0 f i NpSoftBody.obj
 0001:000353b0       ?getDynamicStructure@NpScene@physx@@UEBA?AW4Enum@PxPruningStructureType@2@XZ 00000001800363b0 f i NpSceneQueries.obj
 0001:000353b0       ?getPxSceneDescContactPairSlabSize@@YAIPEBVPxSceneDesc@physx@@@Z 00000001800363b0 f i PxAutoGeneratedMetaDataObjects.obj
 0001:000353c0       ?getPxSceneDescContactReportStreamBufferSize@@YAIPEBVPxSceneDesc@physx@@@Z 00000001800363c0 f i PxAutoGeneratedMetaDataObjects.obj
 0001:000353d0       ?getName@NpShape@physx@@UEBAPEBDXZ 00000001800363d0 f i NpShape.obj
 0001:000353d0       ?getPositionInvMassBufferD@NpSoftBody@physx@@UEAAPEAV?$PxVec4T@M@2@XZ 00000001800363d0 f i NpSoftBody.obj
 0001:000353d0       ?getPxSceneDescCpuDispatcher@@YAPEAVPxCpuDispatcher@physx@@PEBVPxSceneDesc@2@@Z 00000001800363d0 f i PxAutoGeneratedMetaDataObjects.obj
 0001:000353d0       ?getPxSimulationStatisticsGpuMemHeapSolver@@YA_KPEBVPxSimulationStatistics@physx@@@Z 00000001800363d0 f i PxAutoGeneratedMetaDataObjects.obj
 0001:000353e0       ?getPxSceneDescCudaContextManager@@YAPEAVPxCudaContextManager@physx@@PEBVPxSceneDesc@2@@Z 00000001800363e0 f i PxAutoGeneratedMetaDataObjects.obj
 0001:000353e0       ?getPxSimulationStatisticsGpuMemHeapArticulation@@YA_KPEBVPxSimulationStatistics@physx@@@Z 00000001800363e0 f i PxAutoGeneratedMetaDataObjects.obj
 0001:000353e0       ?getRestPositionBufferD@NpSoftBody@physx@@UEAAPEAV?$PxVec4T@M@2@XZ 00000001800363e0 f i NpSoftBody.obj
 0001:000353f0       ?getArticulation@NpArticulationFixedTendon@physx@@UEBAPEAVPxArticulationReducedCoordinate@2@XZ 00000001800363f0 f i NpArticulationTendon.obj
 0001:000353f0       ?getArticulation@NpArticulationSpatialTendon@physx@@UEBAPEAVPxArticulationReducedCoordinate@2@XZ 00000001800363f0 f i NpArticulationTendon.obj
 0001:000353f0       ?getPxSceneDescFilterCallback@@YAPEAVPxSimulationFilterCallback@physx@@PEBVPxSceneDesc@2@@Z 00000001800363f0 f i PxAutoGeneratedMetaDataObjects.obj
 0001:000353f0       ?getShapeInteractions@PxsNphaseImplementationContext@physx@@UEAAPEAPEAVShapeInteraction@Sc@2@XZ 00000001800363f0 f i LowLevel_static_64:PxsNphaseImplementationContext.obj
 0001:00035400       ?getPxSceneDescFilterShader@@YAP6A?AV?$PxFlags@W4Enum@PxFilterFlag@physx@@G@physx@@IUPxFilterData@2@I0AEAV?$PxFlags@W4Enum@PxPairFlag@physx@@G@2@PEBXI@ZPEBVPxSceneDesc@2@@Z 0000000180036400 f i PxAutoGeneratedMetaDataObjects.obj
 0001:00035410       ?getPxSceneDescFilterShaderData@@YAPEBXPEBVPxSceneDesc@physx@@@Z 0000000180036410 f i PxAutoGeneratedMetaDataObjects.obj
 0001:00035410       ?getSoftBodyAuxData@NpSoftBody@physx@@UEAAPEAVPxSoftBodyAuxData@2@XZ 0000000180036410 f i NpSoftBody.obj
 0001:00035410       ?getSoftBodyAuxData@NpSoftBody@physx@@UEBAPEBVPxSoftBodyAuxData@2@XZ 0000000180036410 f i NpSoftBody.obj
 0001:00035420       ?getDefaultContactReportStreamBufferSize@NPhaseCore@Sc@physx@@QEBAIXZ 0000000180036420 f i SimulationController_static_64:ScNPhaseCore.obj
 0001:00035420       ?getNbRigidActors@PruningStructure@Sq@physx@@UEBAIXZ 0000000180036420 f i NpPruningStructure.obj
 0001:00035420       ?getPxSceneDescFilterShaderDataSize@@YAIPEBVPxSceneDesc@physx@@@Z 0000000180036420 f i PxAutoGeneratedMetaDataObjects.obj
 0001:00035420       ?getPxSimulationStatisticsCompressedContactSize@@YAIPEBVPxSimulationStatistics@physx@@@Z 0000000180036420 f i PxAutoGeneratedMetaDataObjects.obj
 0001:00035430       ?getPxSceneDescFlags@@YA?AV?$PxFlags@W4Enum@PxSceneFlag@physx@@I@physx@@PEBVPxSceneDesc@2@@Z 0000000180036430 f i PxAutoGeneratedMetaDataObjects.obj
 0001:00035440       ?getPxSceneDescFrictionCorrelationDistance@@YAMPEBVPxSceneDesc@physx@@@Z 0000000180036440 f i PxAutoGeneratedMetaDataObjects.obj
 0001:00035450       ?getMinTorsionalPatchRadius@NpShape@physx@@UEBAMXZ 0000000180036450 f i NpShape.obj
 0001:00035450       ?getPxSceneDescFrictionOffsetThreshold@@YAMPEBVPxSceneDesc@physx@@@Z 0000000180036450 f i PxAutoGeneratedMetaDataObjects.obj
 0001:00035460       ?getPxSceneDescFrictionType@@YA?AW4Enum@PxFrictionType@physx@@PEBVPxSceneDesc@3@@Z 0000000180036460 f i PxAutoGeneratedMetaDataObjects.obj
 0001:00035470       ?getNbChildren@NpArticulationLink@physx@@UEBAIXZ 0000000180036470 f i NpArticulationLink.obj
 0001:00035470       ?getPxSceneDescGpuComputeVersion@@YAIPEBVPxSceneDesc@physx@@@Z 0000000180036470 f i PxAutoGeneratedMetaDataObjects.obj
 0001:00035470       ?getStaticStructure@NpScene@physx@@UEBA?AW4Enum@PxPruningStructureType@2@XZ 0000000180036470 f i NpSceneQueries.obj
 0001:00035480       ?getPxSceneDescGpuDynamicsConfig@@YA?AUPxgDynamicsMemoryConfig@physx@@PEBVPxSceneDesc@2@@Z 0000000180036480 f i PxAutoGeneratedMetaDataObjects.obj
 0001:000354b0       ?getPxSceneDescGpuMaxNumPartitions@@YAIPEBVPxSceneDesc@physx@@@Z 00000001800364b0 f i PxAutoGeneratedMetaDataObjects.obj
 0001:000354c0       ?getPxSceneDescGpuMaxNumStaticPartitions@@YAIPEBVPxSceneDesc@physx@@@Z 00000001800364c0 f i PxAutoGeneratedMetaDataObjects.obj
 0001:000354d0       ?getPxSceneDescGravity@@YA?AV?$PxVec3T@M@physx@@PEBVPxSceneDesc@2@@Z 00000001800364d0 f i PxAutoGeneratedMetaDataObjects.obj
 0001:000354f0       ?getPxSceneDescKineKineFilteringMode@@YA?AW4Enum@PxPairFilteringMode@physx@@PEBVPxSceneDesc@3@@Z 00000001800364f0 f i PxAutoGeneratedMetaDataObjects.obj
 0001:000354f0       ?getPxSimulationStatisticsNbNewPairs@@YAIPEBVPxSimulationStatistics@physx@@@Z 00000001800364f0 f i PxAutoGeneratedMetaDataObjects.obj
 0001:00035500       ?getPxSceneDescLimits@@YA?AVPxSceneLimits@physx@@PEBVPxSceneDesc@2@@Z 0000000180036500 f i PxAutoGeneratedMetaDataObjects.obj
 0001:00035520       ?getFluidRestOffset@ParticleSystemCore@Sc@physx@@QEBAMXZ 0000000180036520 f i SimulationController_static_64:ScParticleSystemCore.obj
 0001:00035520       ?getMaxContactImpulse@?$NpRigidBodyTemplate@VPxArticulationLink@physx@@@physx@@UEBAMXZ 0000000180036520 f i NpArticulationLink.obj
 0001:00035520       ?getMaxContactImpulse@?$NpRigidBodyTemplate@VPxRigidDynamic@physx@@@physx@@UEBAMXZ 0000000180036520 f i NpRigidDynamic.obj
 0001:00035520       ?getPxSceneDescMaxBiasCoefficient@@YAMPEBVPxSceneDesc@physx@@@Z 0000000180036520 f i PxAutoGeneratedMetaDataObjects.obj
 0001:00035530       ?getPxSceneDescMaxNbContactDataBlocks@@YAIPEBVPxSceneDesc@physx@@@Z 0000000180036530 f i PxAutoGeneratedMetaDataObjects.obj
 0001:00035540       ?getPxSceneDescNbContactDataBlocks@@YAIPEBVPxSceneDesc@physx@@@Z 0000000180036540 f i PxAutoGeneratedMetaDataObjects.obj
 0001:00035550       ?getPxSceneDescSanityBounds@@YA?AVPxBounds3@physx@@PEBVPxSceneDesc@2@@Z 0000000180036550 f i PxAutoGeneratedMetaDataObjects.obj
 0001:00035590       ?getName@?$DelegateTask@VAABBManager@Bp@physx@@$H?postBpStage3@123@AEAAXPEAVPxBaseTask@3@@ZA@@Cm@physx@@UEBAPEBDXZ 0000000180036590 f i LowLevelAABB_static_64:BpAABBManager.obj
 0001:00035590       ?getName@?$DelegateTask@VNPhaseCore@Sc@physx@@$1?mergeProcessedTriggerInteractions@123@QEAAXPEAVPxBaseTask@3@@Z@Cm@physx@@UEBAPEBDXZ 0000000180036590 f i SimulationController_static_64:ScNPhaseCore.obj
 0001:00035590       ?getName@?$DelegateTask@VNpScene@physx@@$H?executeAdvance@12@QEAAXPEAVPxBaseTask@2@@ZA@@Cm@physx@@UEBAPEBDXZ 0000000180036590 f i NpScene.obj
 0001:00035590       ?getName@?$DelegateTask@VNpScene@physx@@$H?executeCollide@12@QEAAXPEAVPxBaseTask@2@@ZA@@Cm@physx@@UEBAPEBDXZ 0000000180036590 f i NpScene.obj
 0001:00035590       ?getName@?$DelegateTask@VNpScene@physx@@$H?executeScene@12@QEAAXPEAVPxBaseTask@2@@ZA@@Cm@physx@@UEBAPEBDXZ 0000000180036590 f i NpScene.obj
 0001:00035590       ?getName@?$DelegateTask@VNpScene@physx@@$H?sceneQueriesDynamicPrunerUpdate@12@AEAAXPEAVPxBaseTask@2@@ZA@@Cm@physx@@UEBAPEBDXZ 0000000180036590 f i NpScene.obj
 0001:00035590       ?getName@?$DelegateTask@VNpScene@physx@@$H?sceneQueriesStaticPrunerUpdate@12@AEAAXPEAVPxBaseTask@2@@ZA@@Cm@physx@@UEBAPEBDXZ 0000000180036590 f i NpScene.obj
 0001:00035590       ?getName@?$DelegateTask@VPxsCCDContext@physx@@$1?postCCDAdvance@12@AEAAXPEAVPxBaseTask@2@@Z@Cm@physx@@UEBAPEBDXZ 0000000180036590 f i LowLevel_static_64:PxsCCD.obj
 0001:00035590       ?getName@?$DelegateTask@VPxsCCDContext@physx@@$1?postCCDDepenetrate@12@AEAAXPEAVPxBaseTask@2@@Z@Cm@physx@@UEBAPEBDXZ 0000000180036590 f i LowLevel_static_64:PxsCCD.obj
 0001:00035590       ?getName@?$DelegateTask@VPxsCCDContext@physx@@$1?postCCDSweep@12@AEAAXPEAVPxBaseTask@2@@Z@Cm@physx@@UEBAPEBDXZ 0000000180036590 f i LowLevel_static_64:PxsCCD.obj
 0001:00035590       ?getName@?$DelegateTask@VScene@Sc@physx@@$1?advanceStep@123@AEAAXPEAVPxBaseTask@3@@Z@Cm@physx@@UEBAPEBDXZ 0000000180036590 f i SimulationController_static_64:ScScene.obj
 0001:00035590       ?getName@?$DelegateTask@VScene@Sc@physx@@$1?afterIntegration@123@AEAAXPEAVPxBaseTask@3@@Z@Cm@physx@@UEBAPEBDXZ 0000000180036590 f i SimulationController_static_64:ScScene.obj
 0001:00035590       ?getName@?$DelegateTask@VScene@Sc@physx@@$1?broadPhase@123@AEAAXPEAVPxBaseTask@3@@Z@Cm@physx@@UEBAPEBDXZ 0000000180036590 f i SimulationController_static_64:ScScene.obj
 0001:00035590       ?getName@?$DelegateTask@VScene@Sc@physx@@$1?broadPhaseFirstPass@123@AEAAXPEAVPxBaseTask@3@@Z@Cm@physx@@UEBAPEBDXZ 0000000180036590 f i SimulationController_static_64:ScScene.obj
 0001:00035590       ?getName@?$DelegateTask@VScene@Sc@physx@@$1?broadPhaseSecondPass@123@AEAAXPEAVPxBaseTask@3@@Z@Cm@physx@@UEBAPEBDXZ 0000000180036590 f i SimulationController_static_64:ScScene.obj
 0001:00035590       ?getName@?$DelegateTask@VScene@Sc@physx@@$1?ccdBroadPhase@123@AEAAXPEAVPxBaseTask@3@@Z@Cm@physx@@UEBAPEBDXZ 0000000180036590 f i SimulationController_static_64:ScCCD.obj
 0001:00035590       ?getName@?$DelegateTask@VScene@Sc@physx@@$1?ccdBroadPhaseAABB@123@AEAAXPEAVPxBaseTask@3@@Z@Cm@physx@@UEBAPEBDXZ 0000000180036590 f i SimulationController_static_64:ScCCD.obj
 0001:00035590       ?getName@?$DelegateTask@VScene@Sc@physx@@$1?collideStep@123@AEAAXPEAVPxBaseTask@3@@Z@Cm@physx@@UEBAPEBDXZ 0000000180036590 f i SimulationController_static_64:ScScene.obj
 0001:00035590       ?getName@?$DelegateTask@VScene@Sc@physx@@$1?destroyManagers@123@AEAAXPEAVPxBaseTask@3@@Z@Cm@physx@@UEBAPEBDXZ 0000000180036590 f i SimulationController_static_64:ScScene.obj
 0001:00035590       ?getName@?$DelegateTask@VScene@Sc@physx@@$1?islandGen@123@AEAAXPEAVPxBaseTask@3@@Z@Cm@physx@@UEBAPEBDXZ 0000000180036590 f i SimulationController_static_64:ScScene.obj
 0001:00035590       ?getName@?$DelegateTask@VScene@Sc@physx@@$1?islandInsertion@123@QEAAXPEAVPxBaseTask@3@@Z@Cm@physx@@UEBAPEBDXZ 0000000180036590 f i SimulationController_static_64:ScScene.obj
 0001:00035590       ?getName@?$DelegateTask@VScene@Sc@physx@@$1?lostTouchReports@123@AEAAXPEAVPxBaseTask@3@@Z@Cm@physx@@UEBAPEBDXZ 0000000180036590 f i SimulationController_static_64:ScScene.obj
 0001:00035590       ?getName@?$DelegateTask@VScene@Sc@physx@@$1?postBroadPhase@123@AEAAXPEAVPxBaseTask@3@@Z@Cm@physx@@UEBAPEBDXZ 0000000180036590 f i SimulationController_static_64:ScScene.obj
 0001:00035590       ?getName@?$DelegateTask@VScene@Sc@physx@@$1?postBroadPhaseContinuation@123@AEAAXPEAVPxBaseTask@3@@Z@Cm@physx@@UEBAPEBDXZ 0000000180036590 f i SimulationController_static_64:ScScene.obj
 0001:00035590       ?getName@?$DelegateTask@VScene@Sc@physx@@$1?postBroadPhaseStage2@123@AEAAXPEAVPxBaseTask@3@@Z@Cm@physx@@UEBAPEBDXZ 0000000180036590 f i SimulationController_static_64:ScScene.obj
 0001:00035590       ?getName@?$DelegateTask@VScene@Sc@physx@@$1?postCCDPass@123@AEAAXPEAVPxBaseTask@3@@Z@Cm@physx@@UEBAPEBDXZ 0000000180036590 f i SimulationController_static_64:ScCCD.obj
 0001:00035590       ?getName@?$DelegateTask@VScene@Sc@physx@@$1?postIslandGen@123@AEAAXPEAVPxBaseTask@3@@Z@Cm@physx@@UEBAPEBDXZ 0000000180036590 f i SimulationController_static_64:ScScene.obj
 0001:00035590       ?getName@?$DelegateTask@VScene@Sc@physx@@$1?postSolver@123@AEAAXPEAVPxBaseTask@3@@Z@Cm@physx@@UEBAPEBDXZ 0000000180036590 f i SimulationController_static_64:ScScene.obj
 0001:00035590       ?getName@?$DelegateTask@VScene@Sc@physx@@$1?postThirdPassIslandGen@123@AEAAXPEAVPxBaseTask@3@@Z@Cm@physx@@UEBAPEBDXZ 0000000180036590 f i SimulationController_static_64:ScScene.obj
 0001:00035590       ?getName@?$DelegateTask@VScene@Sc@physx@@$1?preIntegrate@123@AEAAXPEAVPxBaseTask@3@@Z@Cm@physx@@UEBAPEBDXZ 0000000180036590 f i SimulationController_static_64:ScScene.obj
 0001:00035590       ?getName@?$DelegateTask@VScene@Sc@physx@@$1?preRigidBodyNarrowPhase@123@AEAAXPEAVPxBaseTask@3@@Z@Cm@physx@@UEBAPEBDXZ 0000000180036590 f i SimulationController_static_64:ScScene.obj
 0001:00035590       ?getName@?$DelegateTask@VScene@Sc@physx@@$1?preallocateContactManagers@123@QEAAXPEAVPxBaseTask@3@@Z@Cm@physx@@UEBAPEBDXZ 0000000180036590 f i SimulationController_static_64:ScScene.obj
 0001:00035590       ?getName@?$DelegateTask@VScene@Sc@physx@@$1?processFoundSolverPatches@123@AEAAXPEAVPxBaseTask@3@@Z@Cm@physx@@UEBAPEBDXZ 0000000180036590 f i SimulationController_static_64:ScScene.obj
 0001:00035590       ?getName@?$DelegateTask@VScene@Sc@physx@@$1?processLostContacts2@123@AEAAXPEAVPxBaseTask@3@@Z@Cm@physx@@UEBAPEBDXZ 0000000180036590 f i SimulationController_static_64:ScScene.obj
 0001:00035590       ?getName@?$DelegateTask@VScene@Sc@physx@@$1?processLostContacts3@123@AEAAXPEAVPxBaseTask@3@@Z@Cm@physx@@UEBAPEBDXZ 0000000180036590 f i SimulationController_static_64:ScScene.obj
 0001:00035590       ?getName@?$DelegateTask@VScene@Sc@physx@@$1?processLostContacts@123@AEAAXPEAVPxBaseTask@3@@Z@Cm@physx@@UEBAPEBDXZ 0000000180036590 f i SimulationController_static_64:ScScene.obj
 0001:00035590       ?getName@?$DelegateTask@VScene@Sc@physx@@$1?processLostSolverPatches@123@AEAAXPEAVPxBaseTask@3@@Z@Cm@physx@@UEBAPEBDXZ 0000000180036590 f i SimulationController_static_64:ScScene.obj
 0001:00035590       ?getName@?$DelegateTask@VScene@Sc@physx@@$1?processNarrowPhaseLostTouchEvents@123@AEAAXPEAVPxBaseTask@3@@Z@Cm@physx@@UEBAPEBDXZ 0000000180036590 f i SimulationController_static_64:ScScene.obj
 0001:00035590       ?getName@?$DelegateTask@VScene@Sc@physx@@$1?processNarrowPhaseLostTouchEventsIslands@123@AEAAXPEAVPxBaseTask@3@@Z@Cm@physx@@UEBAPEBDXZ 0000000180036590 f i SimulationController_static_64:ScScene.obj
 0001:00035590       ?getName@?$DelegateTask@VScene@Sc@physx@@$1?registerContactManagers@123@QEAAXPEAVPxBaseTask@3@@Z@Cm@physx@@UEBAPEBDXZ 0000000180036590 f i SimulationController_static_64:ScScene.obj
 0001:00035590       ?getName@?$DelegateTask@VScene@Sc@physx@@$1?registerInteractions@123@QEAAXPEAVPxBaseTask@3@@Z@Cm@physx@@UEBAPEBDXZ 0000000180036590 f i SimulationController_static_64:ScScene.obj
 0001:00035590       ?getName@?$DelegateTask@VScene@Sc@physx@@$1?registerSceneInteractions@123@QEAAXPEAVPxBaseTask@3@@Z@Cm@physx@@UEBAPEBDXZ 0000000180036590 f i SimulationController_static_64:ScScene.obj
 0001:00035590       ?getName@?$DelegateTask@VScene@Sc@physx@@$1?rigidBodyNarrowPhase@123@AEAAXPEAVPxBaseTask@3@@Z@Cm@physx@@UEBAPEBDXZ 0000000180036590 f i SimulationController_static_64:ScScene.obj
 0001:00035590       ?getName@?$DelegateTask@VScene@Sc@physx@@$1?secondPassNarrowPhase@123@QEAAXPEAVPxBaseTask@3@@Z@Cm@physx@@UEBAPEBDXZ 0000000180036590 f i SimulationController_static_64:ScScene.obj
 0001:00035590       ?getName@?$DelegateTask@VScene@Sc@physx@@$1?setEdgesConnected@123@AEAAXPEAVPxBaseTask@3@@Z@Cm@physx@@UEBAPEBDXZ 0000000180036590 f i SimulationController_static_64:ScScene.obj
 0001:00035590       ?getName@?$DelegateTask@VScene@Sc@physx@@$1?solver@123@AEAAXPEAVPxBaseTask@3@@Z@Cm@physx@@UEBAPEBDXZ 0000000180036590 f i SimulationController_static_64:ScScene.obj
 0001:00035590       ?getName@?$DelegateTask@VScene@Sc@physx@@$1?unblockNarrowPhase@123@AEAAXPEAVPxBaseTask@3@@Z@Cm@physx@@UEBAPEBDXZ 0000000180036590 f i SimulationController_static_64:ScScene.obj
 0001:00035590       ?getName@?$DelegateTask@VScene@Sc@physx@@$1?unregisterInteractions@123@AEAAXPEAVPxBaseTask@3@@Z@Cm@physx@@UEBAPEBDXZ 0000000180036590 f i SimulationController_static_64:ScScene.obj
 0001:00035590       ?getName@?$DelegateTask@VScene@Sc@physx@@$1?updateBodies@123@AEAAXPEAVPxBaseTask@3@@Z@Cm@physx@@UEBAPEBDXZ 0000000180036590 f i SimulationController_static_64:ScScene.obj
 0001:00035590       ?getName@?$DelegateTask@VScene@Sc@physx@@$1?updateBroadPhase@123@AEAAXPEAVPxBaseTask@3@@Z@Cm@physx@@UEBAPEBDXZ 0000000180036590 f i SimulationController_static_64:ScScene.obj
 0001:00035590       ?getName@?$DelegateTask@VScene@Sc@physx@@$1?updateCCDMultiPass@123@AEAAXPEAVPxBaseTask@3@@Z@Cm@physx@@UEBAPEBDXZ 0000000180036590 f i SimulationController_static_64:ScScene.obj
 0001:00035590       ?getName@?$DelegateTask@VScene@Sc@physx@@$1?updateCCDSinglePass@123@AEAAXPEAVPxBaseTask@3@@Z@Cm@physx@@UEBAPEBDXZ 0000000180036590 f i SimulationController_static_64:ScCCD.obj
 0001:00035590       ?getName@?$DelegateTask@VScene@Sc@physx@@$1?updateCCDSinglePassStage2@123@AEAAXPEAVPxBaseTask@3@@Z@Cm@physx@@UEBAPEBDXZ 0000000180036590 f i SimulationController_static_64:ScCCD.obj
 0001:00035590       ?getName@?$DelegateTask@VScene@Sc@physx@@$1?updateCCDSinglePassStage3@123@AEAAXPEAVPxBaseTask@3@@Z@Cm@physx@@UEBAPEBDXZ 0000000180036590 f i SimulationController_static_64:ScCCD.obj
 0001:00035590       ?getName@?$DelegateTask@VScene@Sc@physx@@$1?updateDynamics@123@AEAAXPEAVPxBaseTask@3@@Z@Cm@physx@@UEBAPEBDXZ 0000000180036590 f i SimulationController_static_64:ScScene.obj
 0001:00035590       ?getName@?$DelegateTask@VScene@Sc@physx@@$1?updateShapes@123@AEAAXPEAVPxBaseTask@3@@Z@Cm@physx@@UEBAPEBDXZ 0000000180036590 f i SimulationController_static_64:ScScene.obj
 0001:00035590       ?getName@?$DelegateTask@VScene@Sc@physx@@$1?updateSimulationController@123@AEAAXPEAVPxBaseTask@3@@Z@Cm@physx@@UEBAPEBDXZ 0000000180036590 f i SimulationController_static_64:ScScene.obj
 0001:00035590       ?getParent@NpArticulationAttachment@physx@@UEBAPEAVPxArticulationAttachment@2@XZ 0000000180036590 f i NpArticulationTendon.obj
 0001:00035590       ?getParent@NpArticulationTendonJoint@physx@@UEBAPEAVPxArticulationTendonJoint@2@XZ 0000000180036590 f i NpArticulationTendon.obj
 0001:00035590       ?getPxSceneDescSimulationEventCallback@@YAPEAVPxSimulationEventCallback@physx@@PEBVPxSceneDesc@2@@Z 0000000180036590 f i PxAutoGeneratedMetaDataObjects.obj
 0001:000355a0       ?getPxSceneDescSolverArticulationBatchSize@@YAIPEBVPxSceneDesc@physx@@@Z 00000001800365a0 f i PxAutoGeneratedMetaDataObjects.obj
 0001:000355b0       ?getNbFixedTendons@NpArticulationReducedCoordinate@physx@@UEAAIXZ 00000001800365b0 f i NpArticulationReducedCoordinate.obj
 0001:000355b0       ?getPxSceneDescSolverBatchSize@@YAIPEBVPxSceneDesc@physx@@@Z 00000001800365b0 f i PxAutoGeneratedMetaDataObjects.obj
 0001:000355c0       ?getPxSceneDescSolverType@@YA?AW4Enum@PxSolverType@physx@@PEBVPxSceneDesc@3@@Z 00000001800365c0 f i PxAutoGeneratedMetaDataObjects.obj
 0001:000355d0       ?getPxSceneDescStaticKineFilteringMode@@YA?AW4Enum@PxPairFilteringMode@physx@@PEBVPxSceneDesc@3@@Z 00000001800365d0 f i PxAutoGeneratedMetaDataObjects.obj
 0001:000355d0       ?getPxSimulationStatisticsNbLostPairs@@YAIPEBVPxSimulationStatistics@physx@@@Z 00000001800365d0 f i PxAutoGeneratedMetaDataObjects.obj
 0001:000355e0       ?getPxSceneDescUserData@@YAPEAXPEBVPxSceneDesc@physx@@@Z 00000001800365e0 f i PxAutoGeneratedMetaDataObjects.obj
 0001:000355e0       ?getPxSimulationStatisticsGpuMemHeapSimulation@@YA_KPEBVPxSimulationStatistics@physx@@@Z 00000001800365e0 f i PxAutoGeneratedMetaDataObjects.obj
 0001:000355e0       ?getSimPositionInvMassBufferD@NpSoftBody@physx@@UEAAPEAV?$PxVec4T@M@2@XZ 00000001800365e0 f i NpSoftBody.obj
 0001:000355f0       ?getPxSceneDescWakeCounterResetValue@@YAMPEBVPxSceneDesc@physx@@@Z 00000001800365f0 f i PxAutoGeneratedMetaDataObjects.obj
 0001:00035600       ?getNbPoints@RenderBuffer@Cm@physx@@UEBAIXZ 0000000180036600 f i NpScene.obj
 0001:00035600       ?getPxSceneLimitsMaxNbAggregates@@YAIPEBVPxSceneLimits@physx@@@Z 0000000180036600 f i PxAutoGeneratedMetaDataObjects.obj
 0001:00035600       ?getPxSceneQueryDescStaticBVHBuildStrategy@@YA?AW4Enum@PxBVHBuildStrategy@physx@@PEBVPxSceneQueryDesc@3@@Z 0000000180036600 f i PxAutoGeneratedMetaDataObjects.obj
 0001:00035600       ?getPxSimulationStatisticsNbDynamicBodies@@YAIPEBVPxSimulationStatistics@physx@@@Z 0000000180036600 f i PxAutoGeneratedMetaDataObjects.obj
 0001:00035600       ?getPxgDynamicsMemoryConfigFoundLostPairsCapacity@@YAIPEBUPxgDynamicsMemoryConfig@physx@@@Z 0000000180036600 f i PxAutoGeneratedMetaDataObjects.obj
 0001:00035600       ?length@pcharNode@@UEBAHXZ 0000000180036600 f i libvcruntime:undname.obj
 0001:00035600       ?raw_length@pcharNode@@UEBAHXZ 0000000180036600 f i libvcruntime:undname.obj
 0001:00035610       ?getPxSceneLimitsMaxNbBroadPhaseOverlaps@@YAIPEBVPxSceneLimits@physx@@@Z 0000000180036610 f i PxAutoGeneratedMetaDataObjects.obj
 0001:00035610       ?getPxSceneQueryDescDynamicNbObjectsPerNode@@YAIPEBVPxSceneQueryDesc@physx@@@Z 0000000180036610 f i PxAutoGeneratedMetaDataObjects.obj
 0001:00035610       ?getPxgDynamicsMemoryConfigMaxSoftBodyContacts@@YAIPEBUPxgDynamicsMemoryConfig@physx@@@Z 0000000180036610 f i PxAutoGeneratedMetaDataObjects.obj
 0001:00035620       ?getPxSceneLimitsMaxNbConstraints@@YAIPEBVPxSceneLimits@physx@@@Z 0000000180036620 f i PxAutoGeneratedMetaDataObjects.obj
 0001:00035620       ?getPxSceneQueryDescDynamicBVHBuildStrategy@@YA?AW4Enum@PxBVHBuildStrategy@physx@@PEBVPxSceneQueryDesc@3@@Z 0000000180036620 f i PxAutoGeneratedMetaDataObjects.obj
 0001:00035620       ?getPxSimulationStatisticsNbKinematicBodies@@YAIPEBVPxSimulationStatistics@physx@@@Z 0000000180036620 f i PxAutoGeneratedMetaDataObjects.obj
 0001:00035620       ?getPxgDynamicsMemoryConfigFoundLostAggregatePairsCapacity@@YAIPEBUPxgDynamicsMemoryConfig@physx@@@Z 0000000180036620 f i PxAutoGeneratedMetaDataObjects.obj
 0001:00035630       ?getNbLines@RenderBuffer@Cm@physx@@UEBAIXZ 0000000180036630 f i NpScene.obj
 0001:00035630       ?getPxSceneQueryDescSceneQueryUpdateMode@@YA?AW4Enum@PxSceneQueryUpdateMode@physx@@PEBVPxSceneQueryDesc@3@@Z 0000000180036630 f i PxAutoGeneratedMetaDataObjects.obj
 0001:00035630       ?getPxgDynamicsMemoryConfigMaxFemClothContacts@@YAIPEBUPxgDynamicsMemoryConfig@physx@@@Z 0000000180036630 f i PxAutoGeneratedMetaDataObjects.obj
 0001:00035630       ?getReference@PxLightCpuTask@physx@@UEBAHXZ 0000000180036630 f i NpScene.obj
 0001:00035640       ?getPxSceneQueryDesc_IsValid@@YA_NPEBVPxSceneQueryDesc@physx@@@Z 0000000180036640 f   PxAutoGeneratedMetaDataObjects.obj
 0001:00035660       ?getPxSceneQuerySystemBase_DynamicTreeRebuildRateHint@@YAIPEBVPxSceneQuerySystemBase@physx@@@Z 0000000180036660 f   PxAutoGeneratedMetaDataObjects.obj
 0001:00035670       ?getPxScene_Actors@@YAIPEBVPxScene@physx@@V?$PxFlags@W4Enum@PxActorTypeFlag@physx@@G@2@PEAPEAVPxActor@2@I@Z 0000000180036670 f   PxAutoGeneratedMetaDataObjects.obj
 0001:000356a0       ?getPxScene_Aggregates@@YAIPEBVPxScene@physx@@PEAPEAVPxAggregate@2@I@Z 00000001800366a0 f   PxAutoGeneratedMetaDataObjects.obj
 0001:000356b0       ?getPxScene_BounceThresholdVelocity@@YAMPEBVPxScene@physx@@@Z 00000001800366b0 f   PxAutoGeneratedMetaDataObjects.obj
 0001:000356c0       ?getPxScene_BroadPhaseRegions@@YAIPEBVPxScene@physx@@PEAUPxBroadPhaseRegionInfo@2@I@Z 00000001800366c0 f   PxAutoGeneratedMetaDataObjects.obj
 0001:000356d0       ?getPxScene_BroadPhaseType@@YA?AW4Enum@PxBroadPhaseType@physx@@PEBVPxScene@3@@Z 00000001800366d0 f   PxAutoGeneratedMetaDataObjects.obj
 0001:000356e0       ?getPxScene_CCDContactModifyCallback@@YAPEAVPxCCDContactModifyCallback@physx@@PEBVPxScene@2@@Z 00000001800366e0 f   PxAutoGeneratedMetaDataObjects.obj
 0001:000356f0       ?getPxScene_CCDMaxPasses@@YAIPEBVPxScene@physx@@@Z 00000001800366f0 f   PxAutoGeneratedMetaDataObjects.obj
 0001:00035700       ?getPxScene_CCDMaxSeparation@@YAMPEBVPxScene@physx@@@Z 0000000180036700 f   PxAutoGeneratedMetaDataObjects.obj
 0001:00035710       ?getPxScene_CCDThreshold@@YAMPEBVPxScene@physx@@@Z 0000000180036710 f   PxAutoGeneratedMetaDataObjects.obj
 0001:00035720       ?getPxScene_Constraints@@YAIPEBVPxScene@physx@@PEAPEAVPxConstraint@2@I@Z 0000000180036720 f   PxAutoGeneratedMetaDataObjects.obj
 0001:00035730       ?getPxScene_ContactModifyCallback@@YAPEAVPxContactModifyCallback@physx@@PEBVPxScene@2@@Z 0000000180036730 f   PxAutoGeneratedMetaDataObjects.obj
 0001:00035740       ?getPxScene_ContactReportStreamBufferSize@@YAIPEBVPxScene@physx@@@Z 0000000180036740 f   PxAutoGeneratedMetaDataObjects.obj
 0001:00035750       ?getPxScene_FilterShaderDataSize@@YAIPEBVPxScene@physx@@@Z 0000000180036750 f   PxAutoGeneratedMetaDataObjects.obj
 0001:00035750       ?setPxRigidDynamic_StabilizationThreshold@@YAXPEAVPxRigidDynamic@physx@@M@Z 0000000180036750 f   PxAutoGeneratedMetaDataObjects.obj
 0001:00035760       ?getPxScene_FrictionCorrelationDistance@@YAMPEBVPxScene@physx@@@Z 0000000180036760 f   PxAutoGeneratedMetaDataObjects.obj
 0001:00035770       ?getPxScene_FrictionOffsetThreshold@@YAMPEBVPxScene@physx@@@Z 0000000180036770 f   PxAutoGeneratedMetaDataObjects.obj
 0001:00035780       ?getPxScene_FrictionType@@YA?AW4Enum@PxFrictionType@physx@@PEBVPxScene@3@@Z 0000000180036780 f   PxAutoGeneratedMetaDataObjects.obj
 0001:00035790       ?getPxScene_GpuDynamicsConfig@@YA?AUPxgDynamicsMemoryConfig@physx@@PEBVPxScene@2@@Z 0000000180036790 f   PxAutoGeneratedMetaDataObjects.obj
 0001:000357c0       ?getPxScene_Gravity@@YA?AV?$PxVec3T@M@physx@@PEBVPxScene@2@@Z 00000001800367c0 f   PxAutoGeneratedMetaDataObjects.obj
 0001:000357f0       ?getPxScene_KinematicKinematicFilteringMode@@YA?AW4Enum@PxPairFilteringMode@physx@@PEBVPxScene@3@@Z 00000001800367f0 f   PxAutoGeneratedMetaDataObjects.obj
 0001:00035800       ?getPxScene_Limits@@YA?AVPxSceneLimits@physx@@PEBVPxScene@2@@Z 0000000180036800 f   PxAutoGeneratedMetaDataObjects.obj
 0001:00035830       ?getPxScene_MaxBiasCoefficient@@YAMPEBVPxScene@physx@@@Z 0000000180036830 f   PxAutoGeneratedMetaDataObjects.obj
 0001:00035840       ?getPxScene_MaxNbContactDataBlocksUsed@@YAIPEBVPxScene@physx@@@Z 0000000180036840 f   PxAutoGeneratedMetaDataObjects.obj
 0001:00035850       ?getPxScene_SoftBodies@@YAIPEBVPxScene@physx@@PEAPEAVPxSoftBody@2@I@Z 0000000180036850 f   PxAutoGeneratedMetaDataObjects.obj
 0001:00035860       ?getPxScene_SolverArticulationBatchSize@@YAIPEBVPxScene@physx@@@Z 0000000180036860 f   PxAutoGeneratedMetaDataObjects.obj
 0001:00035870       ?getPxScene_SolverBatchSize@@YAIPEBVPxScene@physx@@@Z 0000000180036870 f   PxAutoGeneratedMetaDataObjects.obj
 0001:00035880       ?getPxScene_SolverType@@YA?AW4Enum@PxSolverType@physx@@PEBVPxScene@3@@Z 0000000180036880 f   PxAutoGeneratedMetaDataObjects.obj
 0001:00035890       ?getPxScene_StaticKinematicFilteringMode@@YA?AW4Enum@PxPairFilteringMode@physx@@PEBVPxScene@3@@Z 0000000180036890 f   PxAutoGeneratedMetaDataObjects.obj
 0001:000358a0       ?getPxScene_TaskManager@@YAPEAVPxTaskManager@physx@@PEBVPxScene@2@@Z 00000001800368a0 f   PxAutoGeneratedMetaDataObjects.obj
 0001:000358b0       ?getPxScene_VisualizationCullingBox@@YA?AVPxBounds3@physx@@PEBVPxScene@2@@Z 00000001800368b0 f   PxAutoGeneratedMetaDataObjects.obj
 0001:000358e0       ?getPxScene_WakeCounterResetValue@@YAMPEBVPxScene@physx@@@Z 00000001800368e0 f   PxAutoGeneratedMetaDataObjects.obj
 0001:000358f0       ?getPxShape_Flags@@YA?AV?$PxFlags@W4Enum@PxShapeFlag@physx@@E@physx@@PEBVPxShape@2@@Z 00000001800368f0 f   PxAutoGeneratedMetaDataObjects.obj
 0001:00035920       ?getPxShape_IsExclusive@@YA_NPEBVPxShape@physx@@@Z 0000000180036920 f   PxAutoGeneratedMetaDataObjects.obj
 0001:00035930       ?getPxShape_MinTorsionalPatchRadius@@YAMPEBVPxShape@physx@@@Z 0000000180036930 f   PxAutoGeneratedMetaDataObjects.obj
 0001:00035930       ?setPxPBDMaterial_ParticleAdhesionScale@@YAXPEAVPxPBDMaterial@physx@@M@Z 0000000180036930 f   PxAutoGeneratedMetaDataObjects.obj
 0001:00035940       ?getPxShape_Name@@YAPEBDPEBVPxShape@physx@@@Z 0000000180036940 f   PxAutoGeneratedMetaDataObjects.obj
 0001:00035940       ?setPxRigidBody_MaxLinearVelocity@@YAXPEAVPxRigidBody@physx@@M@Z 0000000180036940 f   PxAutoGeneratedMetaDataObjects.obj
 0001:00035950       ?getPxShape_QueryFilterData@@YA?AUPxFilterData@physx@@PEBVPxShape@2@@Z 0000000180036950 f   PxAutoGeneratedMetaDataObjects.obj
 0001:00035980       ?getPxShape_SimulationFilterData@@YA?AUPxFilterData@physx@@PEBVPxShape@2@@Z 0000000180036980 f   PxAutoGeneratedMetaDataObjects.obj
 0001:000359b0       ?getAggregate@NpArticulationReducedCoordinate@physx@@UEBAPEAVPxAggregate@2@XZ 00000001800369b0 f i NpArticulationReducedCoordinate.obj
 0001:000359b0       ?getPxSimulationStatisticsGpuMemFEMCloths@@YA_KPEBVPxSimulationStatistics@physx@@@Z 00000001800369b0 f i PxAutoGeneratedMetaDataObjects.obj
 0001:000359c0       ?getName@NpArticulationReducedCoordinate@physx@@UEBAPEBDXZ 00000001800369c0 f i NpArticulationReducedCoordinate.obj
 0001:000359c0       ?getPxSimulationStatisticsGpuMemHairSystems@@YA_KPEBVPxSimulationStatistics@physx@@@Z 00000001800369c0 f i PxAutoGeneratedMetaDataObjects.obj
 0001:000359d0       ?getPxSimulationStatisticsGpuMemHeap@@YA_KPEBVPxSimulationStatistics@physx@@@Z 00000001800369d0 f i PxAutoGeneratedMetaDataObjects.obj
 0001:000359d0       ?getTorsionalData@PxsNphaseImplementationContext@physx@@UEAAPEAUPxsTorsionalFrictionData@2@XZ 00000001800369d0 f i LowLevel_static_64:PxsNphaseImplementationContext.obj
 0001:000359e0       ?getPxSimulationStatisticsGpuMemHeapBroadPhase@@YA_KPEBVPxSimulationStatistics@physx@@@Z 00000001800369e0 f i PxAutoGeneratedMetaDataObjects.obj
 0001:000359f0       ?getFoundation@NpPhysics@physx@@UEAAAEAVPxFoundation@2@XZ 00000001800369f0 f i NpPhysics.obj
 0001:000359f0       ?getInboundJoint@NpArticulationLink@physx@@UEBAPEAVPxArticulationJointReducedCoordinate@2@XZ 00000001800369f0 f i NpArticulationLink.obj
 0001:000359f0       ?getPxSimulationStatisticsGpuMemHeapFEMCloths@@YA_KPEBVPxSimulationStatistics@physx@@@Z 00000001800369f0 f i PxAutoGeneratedMetaDataObjects.obj
 0001:00035a00       ?getPxSimulationStatisticsGpuMemHeapHairSystems@@YA_KPEBVPxSimulationStatistics@physx@@@Z 0000000180036a00 f i PxAutoGeneratedMetaDataObjects.obj
 0001:00035a10       ?getPxSimulationStatisticsGpuMemHeapNarrowPhase@@YA_KPEBVPxSimulationStatistics@physx@@@Z 0000000180036a10 f i PxAutoGeneratedMetaDataObjects.obj
 0001:00035a20       ?getPxSimulationStatisticsGpuMemHeapOther@@YA_KPEBVPxSimulationStatistics@physx@@@Z 0000000180036a20 f i PxAutoGeneratedMetaDataObjects.obj
 0001:00035a30       ?getCudaContextManager@NpSoftBody@physx@@UEBAPEAVPxCudaContextManager@2@XZ 0000000180036a30 f i NpSoftBody.obj
 0001:00035a30       ?getPxSimulationStatisticsGpuMemHeapParticles@@YA_KPEBVPxSimulationStatistics@physx@@@Z 0000000180036a30 f i PxAutoGeneratedMetaDataObjects.obj
 0001:00035a40       ?getPxSimulationStatisticsGpuMemHeapSimulationArticulation@@YA_KPEBVPxSimulationStatistics@physx@@@Z 0000000180036a40 f i PxAutoGeneratedMetaDataObjects.obj
 0001:00035a40       ?getSimVelocityBufferD@NpSoftBody@physx@@UEAAPEAV?$PxVec4T@M@2@XZ 0000000180036a40 f i NpSoftBody.obj
 0001:00035a50       ?getPxSimulationStatisticsGpuMemHeapSimulationFEMCloth@@YA_KPEBVPxSimulationStatistics@physx@@@Z 0000000180036a50 f i PxAutoGeneratedMetaDataObjects.obj
 0001:00035a60       ?getPxSimulationStatisticsGpuMemHeapSimulationHairSystem@@YA_KPEBVPxSimulationStatistics@physx@@@Z 0000000180036a60 f i PxAutoGeneratedMetaDataObjects.obj
 0001:00035a70       ?getPxSimulationStatisticsGpuMemHeapSimulationParticles@@YA_KPEBVPxSimulationStatistics@physx@@@Z 0000000180036a70 f i PxAutoGeneratedMetaDataObjects.obj
 0001:00035a80       ?getPxSimulationStatisticsGpuMemHeapSimulationSoftBody@@YA_KPEBVPxSimulationStatistics@physx@@@Z 0000000180036a80 f i PxAutoGeneratedMetaDataObjects.obj
 0001:00035a90       ?getArticulation@NpArticulationLink@physx@@UEBAAEAVPxArticulationReducedCoordinate@2@XZ 0000000180036a90 f i NpArticulationLink.obj
 0001:00035a90       ?getPxSimulationStatisticsGpuMemHeapSoftBodies@@YA_KPEBVPxSimulationStatistics@physx@@@Z 0000000180036a90 f i PxAutoGeneratedMetaDataObjects.obj
 0001:00035aa0       ?getPxSimulationStatisticsGpuMemParticles@@YA_KPEBVPxSimulationStatistics@physx@@@Z 0000000180036aa0 f i PxAutoGeneratedMetaDataObjects.obj
 0001:00035aa0       ?getRestDistances@PxsNphaseImplementationContext@physx@@UEAAPEAMXZ 0000000180036aa0 f i LowLevel_static_64:PxsNphaseImplementationContext.obj
 0001:00035ab0       ?getPxSimulationStatisticsGpuMemSoftBodies@@YA_KPEBVPxSimulationStatistics@physx@@@Z 0000000180036ab0 f i PxAutoGeneratedMetaDataObjects.obj
 0001:00035ac0       ?getPxSimulationStatisticsNbAggregates@@YAIPEBVPxSimulationStatistics@physx@@@Z 0000000180036ac0 f i PxAutoGeneratedMetaDataObjects.obj
 0001:00035ad0       ?getPxSimulationStatisticsNbArticulations@@YAIPEBVPxSimulationStatistics@physx@@@Z 0000000180036ad0 f i PxAutoGeneratedMetaDataObjects.obj
 0001:00035ae0       ?getPxSimulationStatisticsNbAxisSolverConstraints@@YAIPEBVPxSimulationStatistics@physx@@@Z 0000000180036ae0 f i PxAutoGeneratedMetaDataObjects.obj
 0001:00035af0       ?getPxSimulationStatisticsNbBroadPhaseAdds@@YAIPEBVPxSimulationStatistics@physx@@@Z 0000000180036af0 f i PxAutoGeneratedMetaDataObjects.obj
 0001:00035b00       ?getPxSimulationStatisticsNbBroadPhaseRemoves@@YAIPEBVPxSimulationStatistics@physx@@@Z 0000000180036b00 f i PxAutoGeneratedMetaDataObjects.obj
 0001:00035b10       ?getPxSimulationStatisticsNbDiscreteContactPairsTotal@@YAIPEBVPxSimulationStatistics@physx@@@Z 0000000180036b10 f i PxAutoGeneratedMetaDataObjects.obj
 0001:00035b20       ?getPxSimulationStatisticsNbDiscreteContactPairsWithCacheHits@@YAIPEBVPxSimulationStatistics@physx@@@Z 0000000180036b20 f i PxAutoGeneratedMetaDataObjects.obj
 0001:00035b30       ?getPxSimulationStatisticsNbDiscreteContactPairsWithContacts@@YAIPEBVPxSimulationStatistics@physx@@@Z 0000000180036b30 f i PxAutoGeneratedMetaDataObjects.obj
 0001:00035b40       ?getPxSimulationStatisticsNbLostTouches@@YAIPEBVPxSimulationStatistics@physx@@@Z 0000000180036b40 f i PxAutoGeneratedMetaDataObjects.obj
 0001:00035b50       ?getPxSimulationStatisticsNbPartitions@@YAIPEBVPxSimulationStatistics@physx@@@Z 0000000180036b50 f i PxAutoGeneratedMetaDataObjects.obj
 0001:00035b60       ?getNbAttachments@NpArticulationSpatialTendon@physx@@UEBAIXZ 0000000180036b60 f i NpArticulationTendon.obj
 0001:00035b60       ?getNbTendonJoints@NpArticulationFixedTendon@physx@@UEBAIXZ 0000000180036b60 f i NpArticulationTendon.obj
 0001:00035b60       ?getPxSimulationStatisticsPeakConstraintMemory@@YAIPEBVPxSimulationStatistics@physx@@@Z 0000000180036b60 f i PxAutoGeneratedMetaDataObjects.obj
 0001:00035b70       ?getPxSimulationStatisticsRequiredContactConstraintMemory@@YAIPEBVPxSimulationStatistics@physx@@@Z 0000000180036b70 f i PxAutoGeneratedMetaDataObjects.obj
 0001:00035b80       ?getPxTolerancesScale_IsValid@@YA_NPEBVPxTolerancesScale@physx@@@Z 0000000180036b80 f   PxAutoGeneratedMetaDataObjects.obj
 0001:00035b90       ?getPxTriangleMeshGeometryMeshFlags@@YA?AV?$PxFlags@W4Enum@PxMeshGeometryFlag@physx@@E@physx@@PEBVPxTriangleMeshGeometry@2@@Z 0000000180036b90 f i PxAutoGeneratedMetaDataObjects.obj
 0001:00035ba0       ?getPxgDynamicsMemoryConfigCollisionStackSize@@YAIPEBUPxgDynamicsMemoryConfig@physx@@@Z 0000000180036ba0 f i PxAutoGeneratedMetaDataObjects.obj
 0001:00035bb0       ?getMaxNbActors@NpAggregate@physx@@UEBAIXZ 0000000180036bb0 f i NpAggregate.obj
 0001:00035bb0       ?getPxgDynamicsMemoryConfigMaxHairContacts@@YAIPEBUPxgDynamicsMemoryConfig@physx@@@Z 0000000180036bb0 f i PxAutoGeneratedMetaDataObjects.obj
 0001:00035bc0       ?getPxgDynamicsMemoryConfigMaxParticleContacts@@YAIPEBUPxgDynamicsMemoryConfig@physx@@@Z 0000000180036bc0 f i PxAutoGeneratedMetaDataObjects.obj
 0001:00035bd0       ?setCpuDispatcher@PxTaskMgr@physx@@UEAAXAEAVPxCpuDispatcher@2@@Z 0000000180036bd0 f i PhysXTask_static_64:TaskManager.obj
 0001:00035bd0       ?setPxActorUserData@@YAXPEAVPxActor@physx@@PEAX@Z 0000000180036bd0 f i PxAutoGeneratedMetaDataObjects.obj
 0001:00035bd0       ?setPxAggregateUserData@@YAXPEAVPxAggregate@physx@@PEAX@Z 0000000180036bd0 f i PxAutoGeneratedMetaDataObjects.obj
 0001:00035bd0       ?setPxArticulationJointReducedCoordinateUserData@@YAXPEAVPxArticulationJointReducedCoordinate@physx@@PEAX@Z 0000000180036bd0 f i PxAutoGeneratedMetaDataObjects.obj
 0001:00035bd0       ?setPxArticulationReducedCoordinateUserData@@YAXPEAVPxArticulationReducedCoordinate@physx@@PEAX@Z 0000000180036bd0 f i PxAutoGeneratedMetaDataObjects.obj
 0001:00035bd0       ?setPxBaseMaterialUserData@@YAXPEAVPxBaseMaterial@physx@@PEAX@Z 0000000180036bd0 f i PxAutoGeneratedMetaDataObjects.obj
 0001:00035bd0       ?setPxBroadPhaseDescMContextManager@@YAXPEAVPxBroadPhaseDesc@physx@@PEAVPxCudaContextManager@2@@Z 0000000180036bd0 f i PxAutoGeneratedMetaDataObjects.obj
 0001:00035bd0       ?setPxConstraintUserData@@YAXPEAVPxConstraint@physx@@PEAX@Z 0000000180036bd0 f i PxAutoGeneratedMetaDataObjects.obj
 0001:00035bd0       ?setPxShapeUserData@@YAXPEAVPxShape@physx@@PEAX@Z 0000000180036bd0 f i PxAutoGeneratedMetaDataObjects.obj
 0001:00035be0       ?setPxActor_ActorFlags@@YAXPEAVPxActor@physx@@V?$PxFlags@W4Enum@PxActorFlag@physx@@E@2@@Z 0000000180036be0 f   PxAutoGeneratedMetaDataObjects.obj
 0001:00035c00       ?setPxArticulationDriveDamping@@YAXPEAUPxArticulationDrive@physx@@M@Z 0000000180036c00 f i PxAutoGeneratedMetaDataObjects.obj
 0001:00035c00       ?setPxArticulationLimitHigh@@YAXPEAUPxArticulationLimit@physx@@M@Z 0000000180036c00 f i PxAutoGeneratedMetaDataObjects.obj
 0001:00035c00       ?setPxTolerancesScaleSpeed@@YAXPEAVPxTolerancesScale@physx@@M@Z 0000000180036c00 f i PxAutoGeneratedMetaDataObjects.obj
 0001:00035c10       ?setPxArticulationDriveDriveType@@YAXPEAUPxArticulationDrive@physx@@W4Enum@PxArticulationDriveType@2@@Z 0000000180036c10 f i PxAutoGeneratedMetaDataObjects.obj
 0001:00035c10       ?setPxSceneLimitsMaxNbDynamicShapes@@YAXPEAVPxSceneLimits@physx@@I@Z 0000000180036c10 f i PxAutoGeneratedMetaDataObjects.obj
 0001:00035c10       ?setPxSceneQueryDescDynamicTreeSecondaryPruner@@YAXPEAVPxSceneQueryDesc@physx@@W4Enum@PxDynamicTreeSecondaryPruner@2@@Z 0000000180036c10 f i PxAutoGeneratedMetaDataObjects.obj
 0001:00035c10       ?setPxSimulationStatisticsNbStaticBodies@@YAXPEAVPxSimulationStatistics@physx@@I@Z 0000000180036c10 f i PxAutoGeneratedMetaDataObjects.obj
 0001:00035c10       ?setPxgDynamicsMemoryConfigHeapCapacity@@YAXPEAUPxgDynamicsMemoryConfig@physx@@I@Z 0000000180036c10 f i PxAutoGeneratedMetaDataObjects.obj
 0001:00035c20       ?setPxArticulationDriveMaxForce@@YAXPEAUPxArticulationDrive@physx@@M@Z 0000000180036c20 f i PxAutoGeneratedMetaDataObjects.obj
 0001:00035c20       ?setPxCapsuleGeometryRadius@@YAXPEAVPxCapsuleGeometry@physx@@M@Z 0000000180036c20 f i PxAutoGeneratedMetaDataObjects.obj
 0001:00035c20       ?setPxSphereGeometryRadius@@YAXPEAVPxSphereGeometry@physx@@M@Z 0000000180036c20 f i PxAutoGeneratedMetaDataObjects.obj
 0001:00035c30       ?setPxArticulationDriveStiffness@@YAXPEAUPxArticulationDrive@physx@@M@Z 0000000180036c30 f i PxAutoGeneratedMetaDataObjects.obj
 0001:00035c30       ?setPxArticulationLimitLow@@YAXPEAUPxArticulationLimit@physx@@M@Z 0000000180036c30 f i PxAutoGeneratedMetaDataObjects.obj
 0001:00035c30       ?setPxTolerancesScaleLength@@YAXPEAVPxTolerancesScale@physx@@M@Z 0000000180036c30 f i PxAutoGeneratedMetaDataObjects.obj
 0001:00035c40       ?setPxArticulationJointReducedCoordinate_DriveParams@@YAXPEAVPxArticulationJointReducedCoordinate@physx@@W4Enum@PxArticulationAxis@2@UPxArticulationDrive@2@@Z 0000000180036c40 f   PxAutoGeneratedMetaDataObjects.obj
 0001:00035c60       ?setPxArticulationJointReducedCoordinate_LimitParams@@YAXPEAVPxArticulationJointReducedCoordinate@physx@@W4Enum@PxArticulationAxis@2@UPxArticulationLimit@2@@Z 0000000180036c60 f   PxAutoGeneratedMetaDataObjects.obj
 0001:00035c80       ?setPxArticulationReducedCoordinate_ArticulationFlags@@YAXPEAVPxArticulationReducedCoordinate@physx@@V?$PxFlags@W4Enum@PxArticulationFlag@physx@@E@2@@Z 0000000180036c80 f   PxAutoGeneratedMetaDataObjects.obj
 0001:00035ca0       ?setPxArticulationReducedCoordinate_RootAngularVelocity@@YAXPEAVPxArticulationReducedCoordinate@physx@@AEBV?$PxVec3T@M@2@@Z 0000000180036ca0 f   PxAutoGeneratedMetaDataObjects.obj
 0001:00035cb0       ?setPxArticulationReducedCoordinate_RootGlobalPose@@YAXPEAVPxArticulationReducedCoordinate@physx@@AEBV?$PxTransformT@M@2@@Z 0000000180036cb0 f   PxAutoGeneratedMetaDataObjects.obj
 0001:00035cc0       ?setPxArticulationReducedCoordinate_RootLinearVelocity@@YAXPEAVPxArticulationReducedCoordinate@physx@@AEBV?$PxVec3T@M@2@@Z 0000000180036cc0 f   PxAutoGeneratedMetaDataObjects.obj
 0001:00035cd0       ?setPxBoxGeometryHalfExtents@@YAXPEAVPxBoxGeometry@physx@@V?$PxVec3T@M@2@@Z 0000000180036cd0 f i PxAutoGeneratedMetaDataObjects.obj
 0001:00035cf0       ?setPxBroadPhaseDescMContextID@@YAXPEAVPxBroadPhaseDesc@physx@@_K@Z 0000000180036cf0 f i PxAutoGeneratedMetaDataObjects.obj
 0001:00035cf0       ?setPxHeightFieldGeometryHeightField@@YAXPEAVPxHeightFieldGeometry@physx@@PEAVPxHeightField@2@@Z 0000000180036cf0 f i PxAutoGeneratedMetaDataObjects.obj
 0001:00035cf0       ?setPxSceneUserData@@YAXPEAVPxScene@physx@@PEAX@Z 0000000180036cf0 f i PxAutoGeneratedMetaDataObjects.obj
 0001:00035cf0       ?setPxTetrahedronMeshGeometryTetrahedronMesh@@YAXPEAVPxTetrahedronMeshGeometry@physx@@PEAVPxTetrahedronMesh@2@@Z 0000000180036cf0 f i PxAutoGeneratedMetaDataObjects.obj
 0001:00035d00       ?setPxBroadPhaseDescMDiscardKinematicVsKinematic@@YAXPEAVPxBroadPhaseDesc@physx@@_N@Z 0000000180036d00 f i PxAutoGeneratedMetaDataObjects.obj
 0001:00035d10       ?setPxBroadPhaseDescMDiscardStaticVsKinematic@@YAXPEAVPxBroadPhaseDesc@physx@@_N@Z 0000000180036d10 f i PxAutoGeneratedMetaDataObjects.obj
 0001:00035d20       ?setPxBroadPhaseDescMFoundLostPairsCapacity@@YAXPEAVPxBroadPhaseDesc@physx@@I@Z 0000000180036d20 f i PxAutoGeneratedMetaDataObjects.obj
 0001:00035d20       ?setPxSceneLimitsMaxNbRegions@@YAXPEAVPxSceneLimits@physx@@I@Z 0000000180036d20 f i PxAutoGeneratedMetaDataObjects.obj
 0001:00035d20       ?setPxSceneQueryDescStaticNbObjectsPerNode@@YAXPEAVPxSceneQueryDesc@physx@@I@Z 0000000180036d20 f i PxAutoGeneratedMetaDataObjects.obj
 0001:00035d20       ?setPxgDynamicsMemoryConfigTotalAggregatePairsCapacity@@YAXPEAUPxgDynamicsMemoryConfig@physx@@I@Z 0000000180036d20 f i PxAutoGeneratedMetaDataObjects.obj
 0001:00035d30       ?setPxBroadPhaseDescMType@@YAXPEAVPxBroadPhaseDesc@physx@@W4Enum@PxBroadPhaseType@2@@Z 0000000180036d30 f i PxAutoGeneratedMetaDataObjects.obj
 0001:00035d30       ?setPxHeightFieldDescNbRows@@YAXPEAVPxHeightFieldDesc@physx@@I@Z 0000000180036d30 f i PxAutoGeneratedMetaDataObjects.obj
 0001:00035d30       ?setPxSceneLimitsMaxNbActors@@YAXPEAVPxSceneLimits@physx@@I@Z 0000000180036d30 f i PxAutoGeneratedMetaDataObjects.obj
 0001:00035d30       ?setPxSceneQueryDescStaticStructure@@YAXPEAVPxSceneQueryDesc@physx@@W4Enum@PxPruningStructureType@2@@Z 0000000180036d30 f i PxAutoGeneratedMetaDataObjects.obj
 0001:00035d30       ?setPxSimulationStatisticsNbActiveConstraints@@YAXPEAVPxSimulationStatistics@physx@@I@Z 0000000180036d30 f i PxAutoGeneratedMetaDataObjects.obj
 0001:00035d30       ?setPxgDynamicsMemoryConfigTempBufferCapacity@@YAXPEAUPxgDynamicsMemoryConfig@physx@@I@Z 0000000180036d30 f i PxAutoGeneratedMetaDataObjects.obj
 0001:00035d40       ?setPxCapsuleGeometryHalfHeight@@YAXPEAVPxCapsuleGeometry@physx@@M@Z 0000000180036d40 f i PxAutoGeneratedMetaDataObjects.obj
 0001:00035d50       ?setPxConstraint_Flags@@YAXPEAVPxConstraint@physx@@V?$PxFlags@W4Enum@PxConstraintFlag@physx@@G@2@@Z 0000000180036d50 f   PxAutoGeneratedMetaDataObjects.obj
 0001:00035d70       ?setName@?$NpParticleSystem@VPxPBDParticleSystem@physx@@@physx@@UEAAXPEBD@Z 0000000180036d70 f i NpParticleSystem.obj
 0001:00035d70       ?setName@NpSoftBody@physx@@UEAAXPEBD@Z 0000000180036d70 f i NpSoftBody.obj
 0001:00035d70       ?setPxConvexMeshGeometryConvexMesh@@YAXPEAVPxConvexMeshGeometry@physx@@PEAVPxConvexMesh@2@@Z 0000000180036d70 f i PxAutoGeneratedMetaDataObjects.obj
 0001:00035d70       ?setPxTriangleMeshGeometryTriangleMesh@@YAXPEAVPxTriangleMeshGeometry@physx@@PEAVPxTriangleMesh@2@@Z 0000000180036d70 f i PxAutoGeneratedMetaDataObjects.obj
 0001:00035d80       ?setPxConvexMeshGeometryMeshFlags@@YAXPEAVPxConvexMeshGeometry@physx@@V?$PxFlags@W4Enum@PxConvexMeshGeometryFlag@physx@@E@2@@Z 0000000180036d80 f i PxAutoGeneratedMetaDataObjects.obj
 0001:00035d90       ?setPxConvexMeshGeometryScale@@YAXPEAVPxConvexMeshGeometry@physx@@VPxMeshScale@2@@Z 0000000180036d90 f i PxAutoGeneratedMetaDataObjects.obj
 0001:00035d90       ?setPxTriangleMeshGeometryScale@@YAXPEAVPxTriangleMeshGeometry@physx@@VPxMeshScale@2@@Z 0000000180036d90 f i PxAutoGeneratedMetaDataObjects.obj
 0001:00035dc0       ?setPxHeightFieldDescConvexEdgeThreshold@@YAXPEAVPxHeightFieldDesc@physx@@M@Z 0000000180036dc0 f i PxAutoGeneratedMetaDataObjects.obj
 0001:00035dd0       ?setPxHeightFieldDescFlags@@YAXPEAVPxHeightFieldDesc@physx@@V?$PxFlags@W4Enum@PxHeightFieldFlag@physx@@G@2@@Z 0000000180036dd0 f i PxAutoGeneratedMetaDataObjects.obj
 0001:00035de0       ?setPxHeightFieldDescFormat@@YAXPEAVPxHeightFieldDesc@physx@@W4Enum@PxHeightFieldFormat@2@@Z 0000000180036de0 f i PxAutoGeneratedMetaDataObjects.obj
 0001:00035de0       ?setPxSceneLimitsMaxNbStaticShapes@@YAXPEAVPxSceneLimits@physx@@I@Z 0000000180036de0 f i PxAutoGeneratedMetaDataObjects.obj
 0001:00035de0       ?setPxSceneQueryDescDynamicTreeRebuildRateHint@@YAXPEAVPxSceneQueryDesc@physx@@I@Z 0000000180036de0 f i PxAutoGeneratedMetaDataObjects.obj
 0001:00035de0       ?setPxSimulationStatisticsNbActiveKinematicBodies@@YAXPEAVPxSimulationStatistics@physx@@I@Z 0000000180036de0 f i PxAutoGeneratedMetaDataObjects.obj
 0001:00035de0       ?setPxgDynamicsMemoryConfigMaxRigidPatchCount@@YAXPEAUPxgDynamicsMemoryConfig@physx@@I@Z 0000000180036de0 f i PxAutoGeneratedMetaDataObjects.obj
 0001:00035df0       ?setPxHeightFieldDescNbColumns@@YAXPEAVPxHeightFieldDesc@physx@@I@Z 0000000180036df0 f i PxAutoGeneratedMetaDataObjects.obj
 0001:00035df0       ?setPxSceneLimitsMaxNbBodies@@YAXPEAVPxSceneLimits@physx@@I@Z 0000000180036df0 f i PxAutoGeneratedMetaDataObjects.obj
 0001:00035df0       ?setPxSceneQueryDescDynamicStructure@@YAXPEAVPxSceneQueryDesc@physx@@W4Enum@PxPruningStructureType@2@@Z 0000000180036df0 f i PxAutoGeneratedMetaDataObjects.obj
 0001:00035df0       ?setPxSimulationStatisticsNbActiveDynamicBodies@@YAXPEAVPxSimulationStatistics@physx@@I@Z 0000000180036df0 f i PxAutoGeneratedMetaDataObjects.obj
 0001:00035df0       ?setPxgDynamicsMemoryConfigMaxRigidContactCount@@YAXPEAUPxgDynamicsMemoryConfig@physx@@I@Z 0000000180036df0 f i PxAutoGeneratedMetaDataObjects.obj
 0001:00035e00       ?setPxHeightFieldDescSamples@@YAXPEAVPxHeightFieldDesc@physx@@UPxStridedData@2@@Z 0000000180036e00 f i PxAutoGeneratedMetaDataObjects.obj
 0001:00035e10       ?setPxHeightFieldGeometryColumnScale@@YAXPEAVPxHeightFieldGeometry@physx@@M@Z 0000000180036e10 f i PxAutoGeneratedMetaDataObjects.obj
 0001:00035e20       ?setPxHeightFieldGeometryHeightFieldFlags@@YAXPEAVPxHeightFieldGeometry@physx@@V?$PxFlags@W4Enum@PxMeshGeometryFlag@physx@@E@2@@Z 0000000180036e20 f i PxAutoGeneratedMetaDataObjects.obj
 0001:00035e30       ?setPxHeightFieldGeometryHeightScale@@YAXPEAVPxHeightFieldGeometry@physx@@M@Z 0000000180036e30 f i PxAutoGeneratedMetaDataObjects.obj
 0001:00035e40       ?setPxHeightFieldGeometryRowScale@@YAXPEAVPxHeightFieldGeometry@physx@@M@Z 0000000180036e40 f i PxAutoGeneratedMetaDataObjects.obj
 0001:00035e50       ?setPxMaterial_Flags@@YAXPEAVPxMaterial@physx@@V?$PxFlags@W4Enum@PxMaterialFlag@physx@@G@2@@Z 0000000180036e50 f   PxAutoGeneratedMetaDataObjects.obj
 0001:00035e70       ?setPxMeshScaleRotation@@YAXPEAVPxMeshScale@physx@@V?$PxQuatT@M@2@@Z 0000000180036e70 f i PxAutoGeneratedMetaDataObjects.obj
 0001:00035e90       ?setPxMeshScaleScale@@YAXPEAVPxMeshScale@physx@@V?$PxVec3T@M@2@@Z 0000000180036e90 f i PxAutoGeneratedMetaDataObjects.obj
 0001:00035eb0       ?setPxRigidActor_GlobalPose@@YAXPEAVPxRigidActor@physx@@AEBV?$PxTransformT@M@2@@Z 0000000180036eb0 f   PxAutoGeneratedMetaDataObjects.obj
 0001:00035ec0       ?setPxRigidBody_AngularDamping@@YAXPEAVPxRigidBody@physx@@M@Z 0000000180036ec0 f   PxAutoGeneratedMetaDataObjects.obj
 0001:00035ed0       ?setPxRigidBody_ContactSlopCoefficient@@YAXPEAVPxRigidBody@physx@@M@Z 0000000180036ed0 f   PxAutoGeneratedMetaDataObjects.obj
 0001:00035ed0       ?setPxScene_ContactModifyCallback@@YAXPEAVPxScene@physx@@PEAVPxContactModifyCallback@2@@Z 0000000180036ed0 f   PxAutoGeneratedMetaDataObjects.obj
 0001:00035ee0       ?setPxRigidBody_MaxAngularVelocity@@YAXPEAVPxRigidBody@physx@@M@Z 0000000180036ee0 f   PxAutoGeneratedMetaDataObjects.obj
 0001:00035ef0       ?setPxRigidBody_MaxContactImpulse@@YAXPEAVPxRigidBody@physx@@M@Z 0000000180036ef0 f   PxAutoGeneratedMetaDataObjects.obj
 0001:00035ef0       ?setPxScene_SimulationEventCallback@@YAXPEAVPxScene@physx@@PEAVPxSimulationEventCallback@2@@Z 0000000180036ef0 f   PxAutoGeneratedMetaDataObjects.obj
 0001:00035f00       ?setPxRigidBody_MinCCDAdvanceCoefficient@@YAXPEAVPxRigidBody@physx@@M@Z 0000000180036f00 f   PxAutoGeneratedMetaDataObjects.obj
 0001:00035f10       ?setPxRigidBody_RigidBodyFlags@@YAXPEAVPxRigidBody@physx@@V?$PxFlags@W4Enum@PxRigidBodyFlag@physx@@G@2@@Z 0000000180036f10 f   PxAutoGeneratedMetaDataObjects.obj
 0001:00035f30       ?setPxRigidDynamic_AngularVelocity@@YAXPEAVPxRigidDynamic@physx@@AEBV?$PxVec3T@M@2@@Z 0000000180036f30 f   PxAutoGeneratedMetaDataObjects.obj
 0001:00035f40       ?setPxRigidDynamic_ContactReportThreshold@@YAXPEAVPxRigidDynamic@physx@@M@Z 0000000180036f40 f   PxAutoGeneratedMetaDataObjects.obj
 0001:00035f50       ?setPxRigidDynamic_LinearVelocity@@YAXPEAVPxRigidDynamic@physx@@AEBV?$PxVec3T@M@2@@Z 0000000180036f50 f   PxAutoGeneratedMetaDataObjects.obj
 0001:00035f60       ?setPxRigidDynamic_RigidDynamicLockFlags@@YAXPEAVPxRigidDynamic@physx@@V?$PxFlags@W4Enum@PxRigidDynamicLockFlag@physx@@E@2@@Z 0000000180036f60 f   PxAutoGeneratedMetaDataObjects.obj
 0001:00035f80       ?setPxRigidDynamic_SolverIterationCounts@@YAXPEAVPxRigidDynamic@physx@@II@Z 0000000180036f80 f   PxAutoGeneratedMetaDataObjects.obj
 0001:00035f90       ?setPxRigidDynamic_WakeCounter@@YAXPEAVPxRigidDynamic@physx@@M@Z 0000000180036f90 f   PxAutoGeneratedMetaDataObjects.obj
 0001:00035fa0       ?setPxSceneDescBounceThresholdVelocity@@YAXPEAVPxSceneDesc@physx@@M@Z 0000000180036fa0 f i PxAutoGeneratedMetaDataObjects.obj
 0001:00035fb0       ?setPxSceneDescBroadPhaseCallback@@YAXPEAVPxSceneDesc@physx@@PEAVPxBroadPhaseCallback@2@@Z 0000000180036fb0 f i PxAutoGeneratedMetaDataObjects.obj
 0001:00035fc0       ?setPxSceneDescBroadPhaseType@@YAXPEAVPxSceneDesc@physx@@W4Enum@PxBroadPhaseType@2@@Z 0000000180036fc0 f i PxAutoGeneratedMetaDataObjects.obj
 0001:00035fc0       ?setPxSimulationStatisticsNbNewTouches@@YAXPEAVPxSimulationStatistics@physx@@I@Z 0000000180036fc0 f i PxAutoGeneratedMetaDataObjects.obj
 0001:00035fd0       ?setPxSceneDescCcdContactModifyCallback@@YAXPEAVPxSceneDesc@physx@@PEAVPxCCDContactModifyCallback@2@@Z 0000000180036fd0 f i PxAutoGeneratedMetaDataObjects.obj
 0001:00035fe0       ?setPxSceneDescCcdMaxPasses@@YAXPEAVPxSceneDesc@physx@@I@Z 0000000180036fe0 f i PxAutoGeneratedMetaDataObjects.obj
 0001:00035ff0       ?setMaxVelocity@ParticleSystemCore@Sc@physx@@QEAAXM@Z 0000000180036ff0 f i SimulationController_static_64:ScParticleSystemCore.obj
 0001:00035ff0       ?setPxSceneDescCcdMaxSeparation@@YAXPEAVPxSceneDesc@physx@@M@Z 0000000180036ff0 f i PxAutoGeneratedMetaDataObjects.obj
 0001:00036000       ?setMaxDepenetrationVelocity@ParticleSystemCore@Sc@physx@@QEAAXM@Z 0000000180037000 f i SimulationController_static_64:ScParticleSystemCore.obj
 0001:00036000       ?setPxSceneDescCcdThreshold@@YAXPEAVPxSceneDesc@physx@@M@Z 0000000180037000 f i PxAutoGeneratedMetaDataObjects.obj
 0001:00036010       ?setPxSceneDescContactModifyCallback@@YAXPEAVPxSceneDesc@physx@@PEAVPxContactModifyCallback@2@@Z 0000000180037010 f i PxAutoGeneratedMetaDataObjects.obj
 0001:00036020       ?setPxSceneDescContactPairSlabSize@@YAXPEAVPxSceneDesc@physx@@I@Z 0000000180037020 f i PxAutoGeneratedMetaDataObjects.obj
 0001:00036030       ?setPxSceneDescContactReportStreamBufferSize@@YAXPEAVPxSceneDesc@physx@@I@Z 0000000180037030 f i PxAutoGeneratedMetaDataObjects.obj
 0001:00036040       ?setPxSceneDescCpuDispatcher@@YAXPEAVPxSceneDesc@physx@@PEAVPxCpuDispatcher@2@@Z 0000000180037040 f i PxAutoGeneratedMetaDataObjects.obj
 0001:00036040       ?setPxSimulationStatisticsGpuMemHeapSolver@@YAXPEAVPxSimulationStatistics@physx@@_K@Z 0000000180037040 f i PxAutoGeneratedMetaDataObjects.obj
 0001:00036050       ?setPxSceneDescCudaContextManager@@YAXPEAVPxSceneDesc@physx@@PEAVPxCudaContextManager@2@@Z 0000000180037050 f i PxAutoGeneratedMetaDataObjects.obj
 0001:00036050       ?setPxSimulationStatisticsGpuMemHeapArticulation@@YAXPEAVPxSimulationStatistics@physx@@_K@Z 0000000180037050 f i PxAutoGeneratedMetaDataObjects.obj
 0001:00036060       ?setPxSceneDescFilterCallback@@YAXPEAVPxSceneDesc@physx@@PEAVPxSimulationFilterCallback@2@@Z 0000000180037060 f i PxAutoGeneratedMetaDataObjects.obj
 0001:00036070       ?setPxSceneDescFilterShader@@YAXPEAVPxSceneDesc@physx@@P6A?AV?$PxFlags@W4Enum@PxFilterFlag@physx@@G@2@IUPxFilterData@2@I1AEAV?$PxFlags@W4Enum@PxPairFlag@physx@@G@2@PEBXI@Z@Z 0000000180037070 f i PxAutoGeneratedMetaDataObjects.obj
 0001:00036080       ?setPxSceneDescFilterShaderData@@YAXPEAVPxSceneDesc@physx@@PEBX@Z 0000000180037080 f i PxAutoGeneratedMetaDataObjects.obj
 0001:00036090       ?setPxSceneDescFilterShaderDataSize@@YAXPEAVPxSceneDesc@physx@@I@Z 0000000180037090 f i PxAutoGeneratedMetaDataObjects.obj
 0001:00036090       ?setPxSimulationStatisticsCompressedContactSize@@YAXPEAVPxSimulationStatistics@physx@@I@Z 0000000180037090 f i PxAutoGeneratedMetaDataObjects.obj
 0001:000360a0       ?setPxSceneDescFlags@@YAXPEAVPxSceneDesc@physx@@V?$PxFlags@W4Enum@PxSceneFlag@physx@@I@2@@Z 00000001800370a0 f i PxAutoGeneratedMetaDataObjects.obj
 0001:000360b0       ?setPxSceneDescFrictionCorrelationDistance@@YAXPEAVPxSceneDesc@physx@@M@Z 00000001800370b0 f i PxAutoGeneratedMetaDataObjects.obj
 0001:000360c0       ?setPxSceneDescFrictionOffsetThreshold@@YAXPEAVPxSceneDesc@physx@@M@Z 00000001800370c0 f i PxAutoGeneratedMetaDataObjects.obj
 0001:000360d0       ?setPxSceneDescFrictionType@@YAXPEAVPxSceneDesc@physx@@W4Enum@PxFrictionType@2@@Z 00000001800370d0 f i PxAutoGeneratedMetaDataObjects.obj
 0001:000360e0       ?setPxSceneDescGpuComputeVersion@@YAXPEAVPxSceneDesc@physx@@I@Z 00000001800370e0 f i PxAutoGeneratedMetaDataObjects.obj
 0001:000360f0       ?setPxSceneDescGpuDynamicsConfig@@YAXPEAVPxSceneDesc@physx@@UPxgDynamicsMemoryConfig@2@@Z 00000001800370f0 f i PxAutoGeneratedMetaDataObjects.obj
 0001:00036120       ?setPxSceneDescGpuMaxNumPartitions@@YAXPEAVPxSceneDesc@physx@@I@Z 0000000180037120 f i PxAutoGeneratedMetaDataObjects.obj
 0001:00036130       ?setPxSceneDescGpuMaxNumStaticPartitions@@YAXPEAVPxSceneDesc@physx@@I@Z 0000000180037130 f i PxAutoGeneratedMetaDataObjects.obj
 0001:00036140       ?setPxSceneDescGravity@@YAXPEAVPxSceneDesc@physx@@V?$PxVec3T@M@2@@Z 0000000180037140 f i PxAutoGeneratedMetaDataObjects.obj
 0001:00036160       ?setPxSceneDescKineKineFilteringMode@@YAXPEAVPxSceneDesc@physx@@W4Enum@PxPairFilteringMode@2@@Z 0000000180037160 f i PxAutoGeneratedMetaDataObjects.obj
 0001:00036160       ?setPxSimulationStatisticsNbNewPairs@@YAXPEAVPxSimulationStatistics@physx@@I@Z 0000000180037160 f i PxAutoGeneratedMetaDataObjects.obj
 0001:00036170       ?setPxSceneDescLimits@@YAXPEAVPxSceneDesc@physx@@VPxSceneLimits@2@@Z 0000000180037170 f i PxAutoGeneratedMetaDataObjects.obj
 0001:00036190       ?setFluidRestOffset@ParticleSystemCore@Sc@physx@@QEAAXM@Z 0000000180037190 f i SimulationController_static_64:ScParticleSystemCore.obj
 0001:00036190       ?setPxSceneDescMaxBiasCoefficient@@YAXPEAVPxSceneDesc@physx@@M@Z 0000000180037190 f i PxAutoGeneratedMetaDataObjects.obj
 0001:000361a0       ?setPxSceneDescMaxNbContactDataBlocks@@YAXPEAVPxSceneDesc@physx@@I@Z 00000001800371a0 f i PxAutoGeneratedMetaDataObjects.obj
 0001:000361b0       ?setPxSceneDescNbContactDataBlocks@@YAXPEAVPxSceneDesc@physx@@I@Z 00000001800371b0 f i PxAutoGeneratedMetaDataObjects.obj
 0001:000361c0       ?setPxSceneDescSanityBounds@@YAXPEAVPxSceneDesc@physx@@VPxBounds3@2@@Z 00000001800371c0 f i PxAutoGeneratedMetaDataObjects.obj
 0001:00036200       ?setPxSceneDescSimulationEventCallback@@YAXPEAVPxSceneDesc@physx@@PEAVPxSimulationEventCallback@2@@Z 0000000180037200 f i PxAutoGeneratedMetaDataObjects.obj
 0001:00036210       ?setPxSceneDescSolverArticulationBatchSize@@YAXPEAVPxSceneDesc@physx@@I@Z 0000000180037210 f i PxAutoGeneratedMetaDataObjects.obj
 0001:00036220       ?setPxSceneDescSolverBatchSize@@YAXPEAVPxSceneDesc@physx@@I@Z 0000000180037220 f i PxAutoGeneratedMetaDataObjects.obj
 0001:00036230       ?setPxSceneDescSolverType@@YAXPEAVPxSceneDesc@physx@@W4Enum@PxSolverType@2@@Z 0000000180037230 f i PxAutoGeneratedMetaDataObjects.obj
 0001:00036240       ?setPxSceneDescStaticKineFilteringMode@@YAXPEAVPxSceneDesc@physx@@W4Enum@PxPairFilteringMode@2@@Z 0000000180037240 f i PxAutoGeneratedMetaDataObjects.obj
 0001:00036240       ?setPxSimulationStatisticsNbLostPairs@@YAXPEAVPxSimulationStatistics@physx@@I@Z 0000000180037240 f i PxAutoGeneratedMetaDataObjects.obj
 0001:00036250       ?setPxSceneDescUserData@@YAXPEAVPxSceneDesc@physx@@PEAX@Z 0000000180037250 f i PxAutoGeneratedMetaDataObjects.obj
 0001:00036250       ?setPxSimulationStatisticsGpuMemHeapSimulation@@YAXPEAVPxSimulationStatistics@physx@@_K@Z 0000000180037250 f i PxAutoGeneratedMetaDataObjects.obj
 0001:00036260       ?setPxSceneDescWakeCounterResetValue@@YAXPEAVPxSceneDesc@physx@@M@Z 0000000180037260 f i PxAutoGeneratedMetaDataObjects.obj
 0001:00036270       ?setPxSceneDesc_ToDefault@@YAXPEAVPxSceneDesc@physx@@AEBVPxTolerancesScale@2@@Z 0000000180037270 f   PxAutoGeneratedMetaDataObjects.obj
 0001:000364e0       ?setPxSceneLimitsMaxNbAggregates@@YAXPEAVPxSceneLimits@physx@@I@Z 00000001800374e0 f i PxAutoGeneratedMetaDataObjects.obj
 0001:000364e0       ?setPxSceneQueryDescStaticBVHBuildStrategy@@YAXPEAVPxSceneQueryDesc@physx@@W4Enum@PxBVHBuildStrategy@2@@Z 00000001800374e0 f i PxAutoGeneratedMetaDataObjects.obj
 0001:000364e0       ?setPxSimulationStatisticsNbDynamicBodies@@YAXPEAVPxSimulationStatistics@physx@@I@Z 00000001800374e0 f i PxAutoGeneratedMetaDataObjects.obj
 0001:000364e0       ?setPxgDynamicsMemoryConfigFoundLostPairsCapacity@@YAXPEAUPxgDynamicsMemoryConfig@physx@@I@Z 00000001800374e0 f i PxAutoGeneratedMetaDataObjects.obj
 0001:000364f0       ?setPxSceneLimitsMaxNbBroadPhaseOverlaps@@YAXPEAVPxSceneLimits@physx@@I@Z 00000001800374f0 f i PxAutoGeneratedMetaDataObjects.obj
 0001:000364f0       ?setPxSceneQueryDescDynamicNbObjectsPerNode@@YAXPEAVPxSceneQueryDesc@physx@@I@Z 00000001800374f0 f i PxAutoGeneratedMetaDataObjects.obj
 0001:000364f0       ?setPxgDynamicsMemoryConfigMaxSoftBodyContacts@@YAXPEAUPxgDynamicsMemoryConfig@physx@@I@Z 00000001800374f0 f i PxAutoGeneratedMetaDataObjects.obj
 0001:00036500       ?setPxSceneLimitsMaxNbConstraints@@YAXPEAVPxSceneLimits@physx@@I@Z 0000000180037500 f i PxAutoGeneratedMetaDataObjects.obj
 0001:00036500       ?setPxSceneQueryDescDynamicBVHBuildStrategy@@YAXPEAVPxSceneQueryDesc@physx@@W4Enum@PxBVHBuildStrategy@2@@Z 0000000180037500 f i PxAutoGeneratedMetaDataObjects.obj
 0001:00036500       ?setPxSimulationStatisticsNbKinematicBodies@@YAXPEAVPxSimulationStatistics@physx@@I@Z 0000000180037500 f i PxAutoGeneratedMetaDataObjects.obj
 0001:00036500       ?setPxgDynamicsMemoryConfigFoundLostAggregatePairsCapacity@@YAXPEAUPxgDynamicsMemoryConfig@physx@@I@Z 0000000180037500 f i PxAutoGeneratedMetaDataObjects.obj
 0001:00036510       ?setPxSceneQueryDescSceneQueryUpdateMode@@YAXPEAVPxSceneQueryDesc@physx@@W4Enum@PxSceneQueryUpdateMode@2@@Z 0000000180037510 f i PxAutoGeneratedMetaDataObjects.obj
 0001:00036510       ?setPxgDynamicsMemoryConfigMaxFemClothContacts@@YAXPEAUPxgDynamicsMemoryConfig@physx@@I@Z 0000000180037510 f i PxAutoGeneratedMetaDataObjects.obj
 0001:00036520       ?setPxSceneQuerySystemBase_UpdateMode@@YAXPEAVPxSceneQuerySystemBase@physx@@W4Enum@PxSceneQueryUpdateMode@2@@Z 0000000180037520 f   PxAutoGeneratedMetaDataObjects.obj
 0001:00036520       ?setPxSceneSQSystem_SceneQueryUpdateMode@@YAXPEAVPxSceneSQSystem@physx@@W4Enum@PxSceneQueryUpdateMode@2@@Z 0000000180037520 f   PxAutoGeneratedMetaDataObjects.obj
 0001:00036530       ?setPxScene_BounceThresholdVelocity@@YAXPEAVPxScene@physx@@M@Z 0000000180037530 f   PxAutoGeneratedMetaDataObjects.obj
 0001:00036540       ?setPxScene_CCDMaxPasses@@YAXPEAVPxScene@physx@@I@Z 0000000180037540 f   PxAutoGeneratedMetaDataObjects.obj
 0001:00036550       ?setPxScene_CCDMaxSeparation@@YAXPEAVPxScene@physx@@M@Z 0000000180037550 f   PxAutoGeneratedMetaDataObjects.obj
 0001:00036560       ?setPxScene_CCDThreshold@@YAXPEAVPxScene@physx@@M@Z 0000000180037560 f   PxAutoGeneratedMetaDataObjects.obj
 0001:00036570       ?setPxScene_FrictionCorrelationDistance@@YAXPEAVPxScene@physx@@M@Z 0000000180037570 f   PxAutoGeneratedMetaDataObjects.obj
 0001:00036580       ?setPxScene_FrictionOffsetThreshold@@YAXPEAVPxScene@physx@@M@Z 0000000180037580 f   PxAutoGeneratedMetaDataObjects.obj
 0001:00036590       ?setPxScene_Gravity@@YAXPEAVPxScene@physx@@AEBV?$PxVec3T@M@2@@Z 0000000180037590 f   PxAutoGeneratedMetaDataObjects.obj
 0001:000365a0       ?setPxScene_MaxBiasCoefficient@@YAXPEAVPxScene@physx@@M@Z 00000001800375a0 f   PxAutoGeneratedMetaDataObjects.obj
 0001:000365b0       ?setPxScene_NbContactDataBlocks@@YAXPEAVPxScene@physx@@I@Z 00000001800375b0 f   PxAutoGeneratedMetaDataObjects.obj
 0001:000365c0       ?setPxScene_SolverArticulationBatchSize@@YAXPEAVPxScene@physx@@I@Z 00000001800375c0 f   PxAutoGeneratedMetaDataObjects.obj
 0001:000365d0       ?setPxScene_SolverBatchSize@@YAXPEAVPxScene@physx@@I@Z 00000001800375d0 f   PxAutoGeneratedMetaDataObjects.obj
 0001:000365e0       ?setPxScene_VisualizationCullingBox@@YAXPEAVPxScene@physx@@AEBVPxBounds3@2@@Z 00000001800375e0 f   PxAutoGeneratedMetaDataObjects.obj
 0001:000365f0       ?setPxShape_Flags@@YAXPEAVPxShape@physx@@V?$PxFlags@W4Enum@PxShapeFlag@physx@@E@2@@Z 00000001800375f0 f   PxAutoGeneratedMetaDataObjects.obj
 0001:00036610       ?setPxShape_Name@@YAXPEAVPxShape@physx@@PEBD@Z 0000000180037610 f   PxAutoGeneratedMetaDataObjects.obj
 0001:00036620       ?setAggregate@NpArticulationReducedCoordinate@physx@@QEAAXPEAVPxAggregate@2@@Z 0000000180037620 f i NpArticulationReducedCoordinate.obj
 0001:00036620       ?setPxSimulationStatisticsGpuMemFEMCloths@@YAXPEAVPxSimulationStatistics@physx@@_K@Z 0000000180037620 f i PxAutoGeneratedMetaDataObjects.obj
 0001:00036630       ?setName@NpArticulationReducedCoordinate@physx@@UEAAXPEBD@Z 0000000180037630 f i NpArticulationReducedCoordinate.obj
 0001:00036630       ?setPxSimulationStatisticsGpuMemHairSystems@@YAXPEAVPxSimulationStatistics@physx@@_K@Z 0000000180037630 f i PxAutoGeneratedMetaDataObjects.obj
 0001:00036640       ?setPxSimulationStatisticsGpuMemHeap@@YAXPEAVPxSimulationStatistics@physx@@_K@Z 0000000180037640 f i PxAutoGeneratedMetaDataObjects.obj
 0001:00036650       ?setPxSimulationStatisticsGpuMemHeapBroadPhase@@YAXPEAVPxSimulationStatistics@physx@@_K@Z 0000000180037650 f i PxAutoGeneratedMetaDataObjects.obj
 0001:00036660       ?setPxSimulationStatisticsGpuMemHeapFEMCloths@@YAXPEAVPxSimulationStatistics@physx@@_K@Z 0000000180037660 f i PxAutoGeneratedMetaDataObjects.obj
 0001:00036670       ?setPxSimulationStatisticsGpuMemHeapHairSystems@@YAXPEAVPxSimulationStatistics@physx@@_K@Z 0000000180037670 f i PxAutoGeneratedMetaDataObjects.obj
 0001:00036680       ?setPxSimulationStatisticsGpuMemHeapNarrowPhase@@YAXPEAVPxSimulationStatistics@physx@@_K@Z 0000000180037680 f i PxAutoGeneratedMetaDataObjects.obj
 0001:00036690       ?setPxSimulationStatisticsGpuMemHeapOther@@YAXPEAVPxSimulationStatistics@physx@@_K@Z 0000000180037690 f i PxAutoGeneratedMetaDataObjects.obj
 0001:000366a0       ?setPxSimulationStatisticsGpuMemHeapParticles@@YAXPEAVPxSimulationStatistics@physx@@_K@Z 00000001800376a0 f i PxAutoGeneratedMetaDataObjects.obj
 0001:000366b0       ?setPxSimulationStatisticsGpuMemHeapSimulationArticulation@@YAXPEAVPxSimulationStatistics@physx@@_K@Z 00000001800376b0 f i PxAutoGeneratedMetaDataObjects.obj
 0001:000366c0       ?setPxSimulationStatisticsGpuMemHeapSimulationFEMCloth@@YAXPEAVPxSimulationStatistics@physx@@_K@Z 00000001800376c0 f i PxAutoGeneratedMetaDataObjects.obj
 0001:000366d0       ?setPxSimulationStatisticsGpuMemHeapSimulationHairSystem@@YAXPEAVPxSimulationStatistics@physx@@_K@Z 00000001800376d0 f i PxAutoGeneratedMetaDataObjects.obj
 0001:000366e0       ?setPxSimulationStatisticsGpuMemHeapSimulationParticles@@YAXPEAVPxSimulationStatistics@physx@@_K@Z 00000001800376e0 f i PxAutoGeneratedMetaDataObjects.obj
 0001:000366f0       ?setPxSimulationStatisticsGpuMemHeapSimulationSoftBody@@YAXPEAVPxSimulationStatistics@physx@@_K@Z 00000001800376f0 f i PxAutoGeneratedMetaDataObjects.obj
 0001:00036700       ?setPxSimulationStatisticsGpuMemHeapSoftBodies@@YAXPEAVPxSimulationStatistics@physx@@_K@Z 0000000180037700 f i PxAutoGeneratedMetaDataObjects.obj
 0001:00036710       ?setPxSimulationStatisticsGpuMemParticles@@YAXPEAVPxSimulationStatistics@physx@@_K@Z 0000000180037710 f i PxAutoGeneratedMetaDataObjects.obj
 0001:00036720       ?setPxSimulationStatisticsGpuMemSoftBodies@@YAXPEAVPxSimulationStatistics@physx@@_K@Z 0000000180037720 f i PxAutoGeneratedMetaDataObjects.obj
 0001:00036730       ?setPxSimulationStatisticsNbAggregates@@YAXPEAVPxSimulationStatistics@physx@@I@Z 0000000180037730 f i PxAutoGeneratedMetaDataObjects.obj
 0001:00036740       ?setPxSimulationStatisticsNbArticulations@@YAXPEAVPxSimulationStatistics@physx@@I@Z 0000000180037740 f i PxAutoGeneratedMetaDataObjects.obj
 0001:00036750       ?setPxSimulationStatisticsNbAxisSolverConstraints@@YAXPEAVPxSimulationStatistics@physx@@I@Z 0000000180037750 f i PxAutoGeneratedMetaDataObjects.obj
 0001:00036760       ?setPxSimulationStatisticsNbBroadPhaseAdds@@YAXPEAVPxSimulationStatistics@physx@@I@Z 0000000180037760 f i PxAutoGeneratedMetaDataObjects.obj
 0001:00036770       ?setPxSimulationStatisticsNbBroadPhaseRemoves@@YAXPEAVPxSimulationStatistics@physx@@I@Z 0000000180037770 f i PxAutoGeneratedMetaDataObjects.obj
 0001:00036780       ?setPxSimulationStatisticsNbDiscreteContactPairsTotal@@YAXPEAVPxSimulationStatistics@physx@@I@Z 0000000180037780 f i PxAutoGeneratedMetaDataObjects.obj
 0001:00036790       ?setPxSimulationStatisticsNbDiscreteContactPairsWithCacheHits@@YAXPEAVPxSimulationStatistics@physx@@I@Z 0000000180037790 f i PxAutoGeneratedMetaDataObjects.obj
 0001:000367a0       ?setPxSimulationStatisticsNbDiscreteContactPairsWithContacts@@YAXPEAVPxSimulationStatistics@physx@@I@Z 00000001800377a0 f i PxAutoGeneratedMetaDataObjects.obj
 0001:000367b0       ?setPxSimulationStatisticsNbLostTouches@@YAXPEAVPxSimulationStatistics@physx@@I@Z 00000001800377b0 f i PxAutoGeneratedMetaDataObjects.obj
 0001:000367c0       ?setPxSimulationStatisticsNbPartitions@@YAXPEAVPxSimulationStatistics@physx@@I@Z 00000001800377c0 f i PxAutoGeneratedMetaDataObjects.obj
 0001:000367d0       ?setPxSimulationStatisticsPeakConstraintMemory@@YAXPEAVPxSimulationStatistics@physx@@I@Z 00000001800377d0 f i PxAutoGeneratedMetaDataObjects.obj
 0001:000367e0       ?setPxSimulationStatisticsRequiredContactConstraintMemory@@YAXPEAVPxSimulationStatistics@physx@@I@Z 00000001800377e0 f i PxAutoGeneratedMetaDataObjects.obj
 0001:000367f0       ?setPxTriangleMeshGeometryMeshFlags@@YAXPEAVPxTriangleMeshGeometry@physx@@V?$PxFlags@W4Enum@PxMeshGeometryFlag@physx@@E@2@@Z 00000001800377f0 f i PxAutoGeneratedMetaDataObjects.obj
 0001:00036800       ?setPxgDynamicsMemoryConfigCollisionStackSize@@YAXPEAUPxgDynamicsMemoryConfig@physx@@I@Z 0000000180037800 f i PxAutoGeneratedMetaDataObjects.obj
 0001:00036810       ?setPxgDynamicsMemoryConfigMaxHairContacts@@YAXPEAUPxgDynamicsMemoryConfig@physx@@I@Z 0000000180037810 f i PxAutoGeneratedMetaDataObjects.obj
 0001:00036820       ?setPxgDynamicsMemoryConfigMaxParticleContacts@@YAXPEAUPxgDynamicsMemoryConfig@physx@@I@Z 0000000180037820 f i PxAutoGeneratedMetaDataObjects.obj
 0001:00036830       ??0NbCCDPairsProperty@physx@@QEAA@XZ 0000000180037830 f   PxMetaDataObjects.obj
 0001:00036860       ??0NbDiscreteContactPairsProperty@physx@@QEAA@XZ 0000000180037860 f   PxMetaDataObjects.obj
 0001:00036890       ??0NbModifiedContactPairsProperty@physx@@QEAA@XZ 0000000180037890 f   PxMetaDataObjects.obj
 0001:000368c0       ??0NbShapesProperty@physx@@QEAA@XZ 00000001800378c0 f   PxMetaDataObjects.obj
 0001:000368f0       ??0NbTriggerPairsProperty@physx@@QEAA@XZ 00000001800378f0 f   PxMetaDataObjects.obj
 0001:00036920       ??0PxCustomGeometryCustomTypeProperty@physx@@QEAA@XZ 0000000180037920 f   PxMetaDataObjects.obj
 0001:00036940       ??0SimulationStatisticsProperty@physx@@QEAA@XZ 0000000180037940 f   PxMetaDataObjects.obj
 0001:00036960       ?GetCustomType@@YAIPEBVPxCustomGeometry@physx@@@Z 0000000180037960 f i PxMetaDataObjects.obj
 0001:00036980       ?GetNbCCDPairs@@YAIPEBVPxSimulationStatistics@physx@@W4Enum@PxGeometryType@2@1@Z 0000000180037980 f i PxMetaDataObjects.obj
 0001:000369a0       ?GetNbDiscreteContactPairs@@YAIPEBVPxSimulationStatistics@physx@@W4Enum@PxGeometryType@2@1@Z 00000001800379a0 f i PxMetaDataObjects.obj
 0001:000369c0       ?GetNbModifiedContactPairs@@YAIPEBVPxSimulationStatistics@physx@@W4Enum@PxGeometryType@2@1@Z 00000001800379c0 f i PxMetaDataObjects.obj
 0001:000369e0       ?GetNbShape@@YAIPEBVPxSimulationStatistics@physx@@W4Enum@PxGeometryType@2@@Z 00000001800379e0 f i PxMetaDataObjects.obj
 0001:000369f0       ?GetNbTriggerPairs@@YAIPEBVPxSimulationStatistics@physx@@W4Enum@PxGeometryType@2@1@Z 00000001800379f0 f i PxMetaDataObjects.obj
 0001:00036a10       ?GetStats@@YA?AVPxSimulationStatistics@physx@@PEBVPxScene@2@@Z 0000000180037a10 f i PxMetaDataObjects.obj
 0001:00036a50       ?SetNbCCDPairs@@YAXPEAVPxSimulationStatistics@physx@@W4Enum@PxGeometryType@2@1I@Z 0000000180037a50 f i PxMetaDataObjects.obj
 0001:00036a70       ?SetNbDiscreteContactPairs@@YAXPEAVPxSimulationStatistics@physx@@W4Enum@PxGeometryType@2@1I@Z 0000000180037a70 f i PxMetaDataObjects.obj
 0001:00036a90       ?SetNbModifiedContactPairs@@YAXPEAVPxSimulationStatistics@physx@@W4Enum@PxGeometryType@2@1I@Z 0000000180037a90 f i PxMetaDataObjects.obj
 0001:00036ab0       ?SetNbShape@@YAXPEAVPxSimulationStatistics@physx@@W4Enum@PxGeometryType@2@I@Z 0000000180037ab0 f i PxMetaDataObjects.obj
 0001:00036ac0       ?SetNbTriggerPairs@@YAXPEAVPxSimulationStatistics@physx@@W4Enum@PxGeometryType@2@1I@Z 0000000180037ac0 f i PxMetaDataObjects.obj
 0001:00036ae0       ?createLink@PxArticulationReducedCoordinateLinkCollectionPropHelper@physx@@QEBAPEAVPxArticulationLink@2@PEAVPxArticulationReducedCoordinate@2@PEAV32@AEBV?$PxTransformT@M@2@@Z 0000000180037ae0 f   PxMetaDataObjects.obj
 0001:00036b00       ?createShape@PxRigidActorShapeCollectionHelper@physx@@QEBAPEAVPxShape@2@PEAVPxRigidActor@2@AEBVPxGeometry@2@AEAVPxMaterial@2@V?$PxFlags@W4Enum@PxShapeFlag@physx@@E@2@@Z 0000000180037b00 f   PxMetaDataObjects.obj
 0001:00036b80       ?createShape@PxRigidActorShapeCollectionHelper@physx@@QEBAPEAVPxShape@2@PEAVPxRigidActor@2@AEBVPxGeometry@2@PEBQEAVPxMaterial@2@GV?$PxFlags@W4Enum@PxShapeFlag@physx@@E@2@@Z 0000000180037b80 f   PxMetaDataObjects.obj
 0001:00036c10       ?getGeometry@PxShapeGeomPropertyHelper@physx@@QEBA_NPEBVPxShape@2@AEAVPxBoxGeometry@2@@Z 0000000180037c10 f   PxMetaDataObjects.obj
 0001:00036c50       ?getGeometry@PxShapeGeomPropertyHelper@physx@@QEBA_NPEBVPxShape@2@AEAVPxCapsuleGeometry@2@@Z 0000000180037c50 f   PxMetaDataObjects.obj
 0001:00036c90       ?getGeometry@PxShapeGeomPropertyHelper@physx@@QEBA_NPEBVPxShape@2@AEAVPxConvexMeshGeometry@2@@Z 0000000180037c90 f   PxMetaDataObjects.obj
 0001:00036d00       ?getGeometry@PxShapeGeomPropertyHelper@physx@@QEBA_NPEBVPxShape@2@AEAVPxHeightFieldGeometry@2@@Z 0000000180037d00 f   PxMetaDataObjects.obj
 0001:00036d50       ?getGeometry@PxShapeGeomPropertyHelper@physx@@QEBA_NPEBVPxShape@2@AEAVPxParticleSystemGeometry@2@@Z 0000000180037d50 f   PxMetaDataObjects.obj
 0001:00036d90       ?getGeometry@PxShapeGeomPropertyHelper@physx@@QEBA_NPEBVPxShape@2@AEAVPxPlaneGeometry@2@@Z 0000000180037d90 f   PxMetaDataObjects.obj
 0001:00036dc0       ?getGeometry@PxShapeGeomPropertyHelper@physx@@QEBA_NPEBVPxShape@2@AEAVPxSphereGeometry@2@@Z 0000000180037dc0 f   PxMetaDataObjects.obj
 0001:00036e00       ?getGeometry@PxShapeGeomPropertyHelper@physx@@QEBA_NPEBVPxShape@2@AEAVPxTetrahedronMeshGeometry@2@@Z 0000000180037e00 f   PxMetaDataObjects.obj
 0001:00036e40       ?getGeometry@PxShapeGeomPropertyHelper@physx@@QEBA_NPEBVPxShape@2@AEAVPxTriangleMeshGeometry@2@@Z 0000000180037e40 f   PxMetaDataObjects.obj
 0001:00036eb0       ?getGeometryType@PxShapeGeomPropertyHelper@physx@@QEBA?AW4Enum@PxGeometryType@2@PEBVPxShape@2@@Z 0000000180037eb0 f   PxMetaDataObjects.obj
 0001:00036ed0       ?setMaterials@PxShapeMaterialsPropertyHelper@physx@@QEBAXPEAVPxShape@2@PEBQEAVPxMaterial@2@G@Z 0000000180037ed0 f   PxMetaDataObjects.obj
 0001:00036ef0       ??0NpActor@physx@@QEAA@W4Enum@NpType@1@@Z 0000000180037ef0 f   NpActor.obj
 0001:00036f10       ??4PxPartitionedParticleCloth@physx@@QEAAAEAU01@AEBU01@@Z 0000000180037f10 f i NpActor.obj
 0001:00036f40       ?addConnector@NpActor@physx@@QEAAXW4Enum@NpConnectorType@2@PEAVPxBase@2@PEBD@Z 0000000180037f40 f   NpActor.obj
 0001:00037090       ?addConstraintsToSceneInternal@NpActor@physx@@AEAAXXZ 0000000180038090 f   NpActor.obj
 0001:00037130       ?allocate@?$PxArray@VNpConnector@physx@@V?$PxInlineAllocator@$0EA@V?$PxReflectionAllocator@VNpConnector@physx@@@physx@@@2@@physx@@IEAAPEAVNpConnector@2@I@Z 0000000180038130 f i NpActor.obj
 0001:000371e0       ?exportExtraData@NpActor@physx@@QEAAXAEAVPxSerializationContext@2@@Z 00000001800381e0 f   NpActor.obj
 0001:000373e0       ?findConnector@NpActor@physx@@QEBAIW4Enum@NpConnectorType@2@PEAVPxBase@2@@Z 00000001800383e0 f   NpActor.obj
 0001:00037430       ?getAggregate@NpActor@physx@@QEBAPEAVPxAggregate@2@XZ 0000000180038430 f   NpActor.obj
 0001:00037470       ?getBodyCore@physx@@YAPEBVBodyCore@Sc@1@PEBVPxRigidActor@1@@Z 0000000180038470 f   NpActor.obj
 0001:00037490       ?getNbConnectors@NpActor@physx@@QEBAIW4Enum@NpConnectorType@2@@Z 0000000180038490 f   NpActor.obj
 0001:000374d0       ?getNpAggregate@NpActor@physx@@QEBAPEAVNpAggregate@2@AEAI@Z 00000001800384d0 f   NpActor.obj
 0001:00037510       ?getPxActor@NpActor@physx@@QEBAPEBVPxActor@2@XZ 0000000180038510 f   NpActor.obj
 0001:00037540       ?getShapeManager_@NpActor@physx@@SAPEAVNpShapeManager@2@AEAVPxRigidActor@2@@Z 0000000180038540 f   NpActor.obj
 0001:00037560       ?growAndPushBack@?$PxArray@VNpConnector@physx@@V?$PxInlineAllocator@$0EA@V?$PxReflectionAllocator@VNpConnector@physx@@@physx@@@2@@physx@@IEAAAEAVNpConnector@2@AEBV32@@Z 0000000180038560 f i NpActor.obj
 0001:00037640       ?importExtraData@NpActor@physx@@QEAAXAEAVPxDeserializationContext@2@@Z 0000000180038640 f   NpActor.obj
 0001:000376e0       ?onActorRelease@NpActor@physx@@SAXPEAVPxActor@2@@Z 00000001800386e0 f   NpActor.obj
 0001:000376f0       ?recreate@?$PxArray@VNpConnector@physx@@V?$PxInlineAllocator@$0EA@V?$PxReflectionAllocator@VNpConnector@physx@@@physx@@@2@@physx@@IEAAXI@Z 00000001800386f0 f i NpActor.obj
 0001:00037790       ?removeConnector@NpActor@physx@@AEAAXAEAVPxActor@2@I@Z 0000000180038790 f   NpActor.obj
 0001:000377f0       ?removeConnector@NpActor@physx@@QEAAXAEAVPxActor@2@W4Enum@NpConnectorType@2@PEAVPxBase@2@PEBD@Z 00000001800387f0 f   NpActor.obj
 0001:000378a0       ?removeConstraints@NpActor@physx@@QEAAXAEAVPxRigidActor@2@@Z 00000001800388a0 f   NpActor.obj
 0001:00037990       ?removeConstraintsFromScene@NpActor@physx@@QEAAXXZ 0000000180038990 f   NpActor.obj
 0001:00037a00       ?removeFromAggregate@NpActor@physx@@QEAAXAEAVPxActor@2@@Z 0000000180038a00 f   NpActor.obj
 0001:00037a20       ?resizeUninitialized@?$PxArray@VNpConnector@physx@@V?$PxInlineAllocator@$0EA@V?$PxReflectionAllocator@VNpConnector@physx@@@physx@@@2@@physx@@QEAAXI@Z 0000000180038a20 f i NpActor.obj
 0001:00037a60       ?resolveReferences@NpActor@physx@@QEAAXAEAVPxDeserializationContext@2@@Z 0000000180038a60 f   NpActor.obj
 0001:00037af0       ?scSetDominanceGroup@NpActor@physx@@QEAAXE@Z 0000000180038af0 f   NpActor.obj
 0001:00037b90       ?scSetOwnerClient@NpActor@physx@@QEAAXE@Z 0000000180038b90 f   NpActor.obj
 0001:00037c40       ?setAggregate@NpActor@physx@@QEAAXPEAVNpAggregate@2@AEAVPxActor@2@@Z 0000000180038c40 f   NpActor.obj
 0001:00037e30       ??0NpAggregate@physx@@QEAA@III@Z 0000000180038e30 f   NpAggregate.obj
 0001:00037ee0       ??_ENpAggregate@physx@@UEAAPEAXI@Z 0000000180038ee0 f i NpAggregate.obj
 0001:00037ee0       ??_GNpAggregate@physx@@UEAAPEAXI@Z 0000000180038ee0 f i NpAggregate.obj
 0001:00037f90       ??_EPxBase@physx@@MEAAPEAXI@Z 0000000180038f90 f i NpAggregate.obj
 0001:00037f90       ??_GPxBase@physx@@MEAAPEAXI@Z 0000000180038f90 f i NpAggregate.obj
 0001:00037fc0       ?addActor@NpAggregate@physx@@UEAA_NAEAVPxActor@2@PEBVPxBVH@2@@Z 0000000180038fc0 f   NpAggregate.obj
 0001:00038250       ?addActorInternal@NpAggregate@physx@@AEAAXAEAVPxActor@2@AEAVNpScene@2@PEBVPxBVH@2@@Z 0000000180039250 f   NpAggregate.obj
 0001:00038390       ?addArticulation@NpAggregate@physx@@UEAA_NAEAVPxArticulationReducedCoordinate@2@@Z 0000000180039390 f   NpAggregate.obj
 0001:00038590       ?addToScene@NpAggregate@physx@@QEAAXAEAVNpScene@2@@Z 0000000180039590 f   NpAggregate.obj
 0001:000386c0       ?createObject@NpAggregate@physx@@SAPEAV12@AEAPEAEAEAVPxDeserializationContext@2@@Z 00000001800396c0 f   NpAggregate.obj
 0001:00038820       ?decShapeCount@NpAggregate@physx@@QEAAXXZ 0000000180039820 f   NpAggregate.obj
 0001:00038830       ?erase@?$PxHashBase@PEAVArticulationCore@Sc@physx@@PEAV123@U?$PxHash@PEAVArticulationCore@Sc@physx@@@3@UGetKey@?$PxHashSetBase@PEAVArticulationCore@Sc@physx@@U?$PxHash@PEAVArticulationCore@Sc@physx@@@3@VPxAllocator@3@$00@3@VPxAllocator@3@$00@physx@@QEAA_NAEBQEAVArticulationCore@Sc@2@@Z 0000000180039830 f i SimulationController_static_64:ScScene.obj
 0001:00038830       ?erase@?$PxHashBase@PEAVArticulationSim@Sc@physx@@PEAV123@U?$PxHash@PEAVArticulationSim@Sc@physx@@@3@UGetKey@?$PxHashSetBase@PEAVArticulationSim@Sc@physx@@U?$PxHash@PEAVArticulationSim@Sc@physx@@@3@VPxAllocator@3@$00@3@VPxAllocator@3@$00@physx@@QEAA_NAEBQEAVArticulationSim@Sc@2@@Z 0000000180039830 f i SimulationController_static_64:ScScene.obj
 0001:00038830       ?erase@?$PxHashBase@PEAVBodyCore@Sc@physx@@PEAV123@U?$PxHash@PEAVBodyCore@Sc@physx@@@3@UGetKey@?$PxHashSetBase@PEAVBodyCore@Sc@physx@@U?$PxHash@PEAVBodyCore@Sc@physx@@@3@VPxAllocator@3@$00@3@VPxAllocator@3@$00@physx@@QEAA_NAEBQEAVBodyCore@Sc@2@@Z 0000000180039830 f i SimulationController_static_64:ScScene.obj
 0001:00038830       ?erase@?$PxHashBase@PEAVConstraintCore@Sc@physx@@PEAV123@U?$PxHash@PEAVConstraintCore@Sc@physx@@@3@UGetKey@?$PxHashSetBase@PEAVConstraintCore@Sc@physx@@U?$PxHash@PEAVConstraintCore@Sc@physx@@@3@VPxAllocator@3@$00@3@VPxAllocator@3@$00@physx@@QEAA_NAEBQEAVConstraintCore@Sc@2@@Z 0000000180039830 f i SimulationController_static_64:ScScene.obj
 0001:00038830       ?erase@?$PxHashBase@PEAVConstraintSim@Sc@physx@@PEAV123@U?$PxHash@PEAVConstraintSim@Sc@physx@@@3@UGetKey@?$PxHashSetBase@PEAVConstraintSim@Sc@physx@@U?$PxHash@PEAVConstraintSim@Sc@physx@@@3@VPxAllocator@3@$00@3@VPxAllocator@3@$00@physx@@QEAA_NAEBQEAVConstraintSim@Sc@2@@Z 0000000180039830 f i SimulationController_static_64:ScConstraintBreakage.obj
 0001:00038830       ?erase@?$PxHashBase@PEAVHairSystemCore@Sc@physx@@PEAV123@U?$PxHash@PEAVHairSystemCore@Sc@physx@@@3@UGetKey@?$PxHashSetBase@PEAVHairSystemCore@Sc@physx@@U?$PxHash@PEAVHairSystemCore@Sc@physx@@@3@VPxAllocator@3@$00@3@VPxAllocator@3@$00@physx@@QEAA_NAEBQEAVHairSystemCore@Sc@2@@Z 0000000180039830 f i SimulationController_static_64:ScScene.obj
 0001:00038830       ?erase@?$PxHashBase@PEAVInteraction@Sc@physx@@PEAV123@U?$PxHash@PEAVInteraction@Sc@physx@@@3@UGetKey@?$PxHashSetBase@PEAVInteraction@Sc@physx@@U?$PxHash@PEAVInteraction@Sc@physx@@@3@VPxAllocator@3@$00@3@VPxAllocator@3@$00@physx@@QEAA_NAEBQEAVInteraction@Sc@2@@Z 0000000180039830 f i SimulationController_static_64:ScNPhaseCore.obj
 0001:00038830       ?erase@?$PxHashBase@PEAVParticleSystemCore@Sc@physx@@PEAV123@U?$PxHash@PEAVParticleSystemCore@Sc@physx@@@3@UGetKey@?$PxHashSetBase@PEAVParticleSystemCore@Sc@physx@@U?$PxHash@PEAVParticleSystemCore@Sc@physx@@@3@VPxAllocator@3@$00@3@VPxAllocator@3@$00@physx@@QEAA_NAEBQEAVParticleSystemCore@Sc@2@@Z 0000000180039830 f i SimulationController_static_64:ScScene.obj
 0001:00038830       ?erase@?$PxHashBase@PEAVPxAggregate@physx@@PEAV12@U?$PxHash@PEAVPxAggregate@physx@@@2@UGetKey@?$PxHashSetBase@PEAVPxAggregate@physx@@U?$PxHash@PEAVPxAggregate@physx@@@2@VPxAllocator@2@$00@2@VPxAllocator@2@$00@physx@@QEAA_NAEBQEAVPxAggregate@2@@Z 0000000180039830 f i NpAggregate.obj
 0001:00038830       ?erase@?$PxHashBase@PEAVPxArticulationReducedCoordinate@physx@@PEAV12@U?$PxHash@PEAVPxArticulationReducedCoordinate@physx@@@2@UGetKey@?$PxHashSetBase@PEAVPxArticulationReducedCoordinate@physx@@U?$PxHash@PEAVPxArticulationReducedCoordinate@physx@@@2@VPxAllocator@2@$00@2@VPxAllocator@2@$00@physx@@QEAA_NAEBQEAVPxArticulationReducedCoordinate@2@@Z 0000000180039830 f i NpScene.obj
 0001:00038830       ?erase@?$PxHashBase@PEAVPxPBDParticleSystem@physx@@PEAV12@U?$PxHash@PEAVPxPBDParticleSystem@physx@@@2@UGetKey@?$PxHashSetBase@PEAVPxPBDParticleSystem@physx@@U?$PxHash@PEAVPxPBDParticleSystem@physx@@@2@VPxAllocator@2@$00@2@VPxAllocator@2@$00@physx@@QEAA_NAEBQEAVPxPBDParticleSystem@2@@Z 0000000180039830 f i NpParticleSystem.obj
 0001:00038830       ?erase@?$PxHashBase@PEAVPxShape@physx@@PEAV12@U?$PxHash@PEAVPxShape@physx@@@2@UGetKey@?$PxHashSetBase@PEAVPxShape@physx@@U?$PxHash@PEAVPxShape@physx@@@2@VPxAllocator@2@$00@2@VPxAllocator@2@$00@physx@@QEAA_NAEBQEAVPxShape@2@@Z 0000000180039830 f i NpFactory.obj
 0001:00038830       ?erase@?$PxHashBase@PEAVPxSoftBody@physx@@PEAV12@U?$PxHash@PEAVPxSoftBody@physx@@@2@UGetKey@?$PxHashSetBase@PEAVPxSoftBody@physx@@U?$PxHash@PEAVPxSoftBody@physx@@@2@VPxAllocator@2@$00@2@VPxAllocator@2@$00@physx@@QEAA_NAEBQEAVPxSoftBody@2@@Z 0000000180039830 f i NpSoftBody.obj
 0001:00038830       ?erase@?$PxHashBase@PEAVSoftBodyCore@Sc@physx@@PEAV123@U?$PxHash@PEAVSoftBodyCore@Sc@physx@@@3@UGetKey@?$PxHashSetBase@PEAVSoftBodyCore@Sc@physx@@U?$PxHash@PEAVSoftBodyCore@Sc@physx@@@3@VPxAllocator@3@$00@3@VPxAllocator@3@$00@physx@@QEAA_NAEBQEAVSoftBodyCore@Sc@2@@Z 0000000180039830 f i SimulationController_static_64:ScScene.obj
 0001:00038830       ?erase@?$PxHashBase@PEBVBodySim@Sc@physx@@PEBV123@U?$PxHash@PEBVBodySim@Sc@physx@@@3@UGetKey@?$PxHashSetBase@PEBVBodySim@Sc@physx@@U?$PxHash@PEBVBodySim@Sc@physx@@@3@VPxAllocator@3@$00@3@VPxAllocator@3@$00@physx@@QEAA_NAEBQEBVBodySim@Sc@2@@Z 0000000180039830 f i SimulationController_static_64:ScScene.obj
 0001:000389b0       ?exportExtraData@NpAggregate@physx@@UEAAXAEAVPxSerializationContext@2@@Z 00000001800399b0 f   NpAggregate.obj
 0001:00038a00       ?getActors@NpAggregate@physx@@UEBAIPEAPEAVPxActor@2@II@Z 0000000180039a00 f   NpAggregate.obj
 0001:00038a50       ?getConcreteTypeName@PxAggregate@physx@@UEBAPEBDXZ 0000000180039a50 f i NpAggregate.obj
 0001:00038a60       ?getMaxNbShapes@NpAggregate@physx@@UEBAIXZ 0000000180039a60 f   NpAggregate.obj
 0001:00038a60       ?getNbTriangles@RenderBuffer@Cm@physx@@UEBAIXZ 0000000180039a60 f   NpScene.obj
 0001:00038a70       ?getNbActors@NpAggregate@physx@@UEBAIXZ 0000000180039a70 f   NpAggregate.obj
 0001:00038a80       ?getLines@RenderBuffer@Cm@physx@@UEBAPEBUPxDebugLine@3@XZ 0000000180039a80 f   NpScene.obj
 0001:00038a80       ?getScene@?$NpActorTemplate@VPxArticulationLink@physx@@@physx@@UEBAPEAVPxScene@2@XZ 0000000180039a80 f   NpArticulationLink.obj
 0001:00038a80       ?getScene@?$NpActorTemplate@VPxPBDParticleSystem@physx@@@physx@@UEBAPEAVPxScene@2@XZ 0000000180039a80 f   NpParticleSystem.obj
 0001:00038a80       ?getScene@?$NpActorTemplate@VPxRigidDynamic@physx@@@physx@@UEBAPEAVPxScene@2@XZ 0000000180039a80 f   NpRigidDynamic.obj
 0001:00038a80       ?getScene@?$NpActorTemplate@VPxRigidStatic@physx@@@physx@@UEBAPEAVPxScene@2@XZ 0000000180039a80 f   NpRigidStatic.obj
 0001:00038a80       ?getScene@?$NpActorTemplate@VPxSoftBody@physx@@@physx@@UEBAPEAVPxScene@2@XZ 0000000180039a80 f   NpSoftBody.obj
 0001:00038a80       ?getScene@NpAggregate@physx@@UEAAPEAVPxScene@2@XZ 0000000180039a80 f   NpAggregate.obj
 0001:00038a80       ?getScene@NpArticulationReducedCoordinate@physx@@UEBAPEAVPxScene@2@XZ 0000000180039a80 f   NpArticulationReducedCoordinate.obj
 0001:00038a80       ?getScene@NpConstraint@physx@@UEBAPEAVPxScene@2@XZ 0000000180039a80 f   NpConstraint.obj
 0001:00038a90       ?getSelfCollision@NpAggregate@physx@@UEBA_NXZ 0000000180039a90 f   NpAggregate.obj
 0001:00038aa0       ?incShapeCount@NpAggregate@physx@@QEAAXXZ 0000000180039aa0 f   NpAggregate.obj
 0001:00038ae0       ?isKindOf@PxAggregate@physx@@MEBA_NPEBD@Z 0000000180039ae0 f i NpAggregate.obj
 0001:00038b30       ?isKindOf@PxBase@physx@@MEBA_NPEBD@Z 0000000180039b30 f i NpAggregate.obj
 0001:00038b60       ?isReleasable@PxBase@physx@@UEBA_NXZ 0000000180039b60 f i NpAggregate.obj
 0001:00038b70       ?preExportDataReset@NpAggregate@physx@@QEAAXXZ 0000000180039b70 f   NpAggregate.obj
 0001:00038b80       ?release@NpAggregate@physx@@UEAAXXZ 0000000180039b80 f   NpAggregate.obj
 0001:00038d50       ?removeActor@NpAggregate@physx@@UEAA_NAEAVPxActor@2@@Z 0000000180039d50 f   NpAggregate.obj
 0001:00038fe0       ?removeActorAndReinsert@NpAggregate@physx@@QEAA_NAEAVPxActor@2@_N@Z 0000000180039fe0 f   NpAggregate.obj
 0001:000390c0       ?removeAndReinsert@NpAggregate@physx@@AEAAXAEAVPxActor@2@_N@Z 000000018003a0c0 f   NpAggregate.obj
 0001:00039180       ?removeArticulation@NpAggregate@physx@@UEAA_NAEAVPxArticulationReducedCoordinate@2@@Z 000000018003a180 f   NpAggregate.obj
 0001:00039360       ?removeArticulationAndReinsert@NpAggregate@physx@@QEAA_NAEAVPxArticulationReducedCoordinate@2@_N@Z 000000018003a360 f   NpAggregate.obj
 0001:00039450       ?requiresObjects@NpAggregate@physx@@UEAAXAEAVPxProcessPxBaseCallback@2@@Z 000000018003a450 f   NpAggregate.obj
 0001:000394c0       ?scAddActor@NpAggregate@physx@@AEAAXAEAVNpActor@2@@Z 000000018003a4c0 f   NpAggregate.obj
 0001:00039530       ?scRemoveActor@NpAggregate@physx@@QEAAXAEAVNpActor@2@_N@Z 000000018003a530 f   NpAggregate.obj
 0001:000395b0       ??0NpSoftBody@physx@@QEAA@AEAVPxCudaContextManager@1@@Z 000000018003a5b0 f   NpSoftBody.obj
 0001:00039620       ??_E?$NpActorTemplate@VPxSoftBody@physx@@@physx@@UEAAPEAXI@Z 000000018003a620 f i NpSoftBody.obj
 0001:00039620       ??_G?$NpActorTemplate@VPxSoftBody@physx@@@physx@@UEAAPEAXI@Z 000000018003a620 f i NpSoftBody.obj
 0001:000396a0       ??_ENpSoftBody@physx@@UEAAPEAXI@Z 000000018003a6a0 f i NpSoftBody.obj
 0001:000396a0       ??_GNpSoftBody@physx@@UEAAPEAXI@Z 000000018003a6a0 f i NpSoftBody.obj
 0001:00039730       ??_EPxArticulationLink@physx@@MEAAPEAXI@Z 000000018003a730 f i NpArticulationLink.obj
 0001:00039730       ??_EPxPBDParticleSystem@physx@@UEAAPEAXI@Z 000000018003a730 f i NpParticleSystem.obj
 0001:00039730       ??_EPxRigidDynamic@physx@@MEAAPEAXI@Z 000000018003a730 f i NpRigidDynamic.obj
 0001:00039730       ??_EPxRigidStatic@physx@@MEAAPEAXI@Z 000000018003a730 f i NpRigidStatic.obj
 0001:00039730       ??_EPxSoftBody@physx@@UEAAPEAXI@Z 000000018003a730 f i NpSoftBody.obj
 0001:00039730       ??_GPxArticulationLink@physx@@MEAAPEAXI@Z 000000018003a730 f i NpArticulationLink.obj
 0001:00039730       ??_GPxPBDParticleSystem@physx@@UEAAPEAXI@Z 000000018003a730 f i NpParticleSystem.obj
 0001:00039730       ??_GPxRigidDynamic@physx@@MEAAPEAXI@Z 000000018003a730 f i NpRigidDynamic.obj
 0001:00039730       ??_GPxRigidStatic@physx@@MEAAPEAXI@Z 000000018003a730 f i NpRigidStatic.obj
 0001:00039730       ??_GPxSoftBody@physx@@UEAAPEAXI@Z 000000018003a730 f i NpSoftBody.obj
 0001:00039760       ?addClothAttachment@NpSoftBody@physx@@UEAAIPEAVPxFEMCloth@2@IAEBV?$PxVec4T@M@2@I1PEAUPxConeLimitedConstraint@2@M@Z 000000018003a760 f   NpSoftBody.obj
 0001:00039760       ?addClothAttachment@PxsSimulationController@physx@@UEAAIPEAVSoftBody@Dy@2@PEAVFEMCloth@42@IAEBV?$PxVec4T@M@2@I2PEAUPxConeLimitedConstraint@2@M_N@Z 000000018003a760 f   SimulationController_static_64:ScScene.obj
 0001:00039760       ?addParticleAttachment@PxsSimulationController@physx@@UEAAIPEAVSoftBody@Dy@2@PEBVParticleSystem@42@IIIAEBV?$PxVec4T@M@2@_N@Z 000000018003a760 f   SimulationController_static_64:ScScene.obj
 0001:00039760       ?addRigidAttachment@PxsSimulationController@physx@@UEAAIPEAVFEMCloth@Dy@2@AEBVPxNodeIndex@2@PEAVPxsRigidBody@2@1IAEBV?$PxVec3T@M@2@PEAUPxConeLimitedConstraint@2@_N@Z 000000018003a760 f   SimulationController_static_64:ScScene.obj
 0001:00039760       ?addRigidAttachment@PxsSimulationController@physx@@UEAAIPEAVSoftBody@Dy@2@AEBVPxNodeIndex@2@PEAVPxsRigidBody@2@1IAEBV?$PxVec3T@M@2@PEAUPxConeLimitedConstraint@2@_N@Z 000000018003a760 f   SimulationController_static_64:ScScene.obj
 0001:00039760       ?addSoftBodyAttachment@PxsSimulationController@physx@@UEAAIPEAVSoftBody@Dy@2@0IIAEBV?$PxVec4T@M@2@1PEAUPxConeLimitedConstraint@2@M_N@Z 000000018003a760 f   SimulationController_static_64:ScScene.obj
 0001:00039760       ?addTetRigidAttachment@PxsSimulationController@physx@@UEAAIPEAVSoftBody@Dy@2@PEAVPxsRigidBody@2@AEBVPxNodeIndex@2@IAEBV?$PxVec4T@M@2@AEBV?$PxVec3T@M@2@PEAUPxConeLimitedConstraint@2@_N@Z 000000018003a760 f   SimulationController_static_64:ScScene.obj
 0001:00039760       ?addTriClothAttachment@PxsSimulationController@physx@@UEAAIPEAVFEMCloth@Dy@2@0IIAEBV?$PxVec4T@M@2@1_N@Z 000000018003a760 f   SimulationController_static_64:ScScene.obj
 0001:00039760       ?addTriRigidAttachment@PxsSimulationController@physx@@UEAAIPEAVFEMCloth@Dy@2@PEAVPxsRigidBody@2@AEBVPxNodeIndex@2@IAEBV?$PxVec4T@M@2@AEBV?$PxVec3T@M@2@PEAUPxConeLimitedConstraint@2@_N@Z 000000018003a760 f   SimulationController_static_64:ScScene.obj
 0001:00039760       ?createFEMCloth@NpPhysics@physx@@UEAAPEAVPxFEMCloth@2@AEAVPxCudaContextManager@2@@Z 000000018003a760 f   NpPhysics.obj
 0001:00039760       ?createFEMClothMaterial@NpPhysics@physx@@UEAAPEAVPxFEMClothMaterial@2@MMM@Z 000000018003a760 f   NpPhysics.obj
 0001:00039760       ?createFLIPMaterial@NpPhysics@physx@@UEAAPEAVPxFLIPMaterial@2@MMMMM@Z 000000018003a760 f   NpPhysics.obj
 0001:00039760       ?createFLIPParticleSystem@NpPhysics@physx@@UEAAPEAVPxFLIPParticleSystem@2@AEAVPxCudaContextManager@2@@Z 000000018003a760 f   NpPhysics.obj
 0001:00039760       ?createHairSystem@NpPhysics@physx@@UEAAPEAVPxHairSystem@2@AEAVPxCudaContextManager@2@@Z 000000018003a760 f   NpPhysics.obj
 0001:00039760       ?createMPMMaterial@NpPhysics@physx@@UEAAPEAVPxMPMMaterial@2@MMM_NMMMMMMMMM@Z 000000018003a760 f   NpPhysics.obj
 0001:00039760       ?createMPMParticleSystem@NpPhysics@physx@@UEAAPEAVPxMPMParticleSystem@2@AEAVPxCudaContextManager@2@@Z 000000018003a760 f   NpPhysics.obj
 0001:00039760       ?createShape@NpPhysics@physx@@UEAAPEAVPxShape@2@AEBVPxGeometry@2@PEBQEAVPxFEMClothMaterial@2@G_NV?$PxFlags@W4Enum@PxShapeFlag@physx@@E@2@@Z 000000018003a760 f   NpPhysics.obj
 0001:00039760       ?getActivatedFEMCloths@PxsSimulationController@physx@@UEBAPEAPEAVFEMCloth@Dy@2@XZ 000000018003a760 f   SimulationController_static_64:ScScene.obj
 0001:00039760       ?getActivatedHairSystems@PxsSimulationController@physx@@UEBAPEAPEAVHairSystem@Dy@2@XZ 000000018003a760 f   SimulationController_static_64:ScScene.obj
 0001:00039760       ?getActivatedSoftbodies@PxsSimulationController@physx@@UEBAPEAPEAVSoftBody@Dy@2@XZ 000000018003a760 f   SimulationController_static_64:ScScene.obj
 0001:00039760       ?getActiveBodies@PxsSimulationController@physx@@UEAAPEAIXZ 000000018003a760 f   SimulationController_static_64:ScScene.obj
 0001:00039760       ?getClothMaterials@NpShape@physx@@UEBAIPEAPEAVPxFEMClothMaterial@2@II@Z 000000018003a760 f   NpShape.obj
 0001:00039760       ?getDeactivatedFEMCloths@PxsSimulationController@physx@@UEBAPEAPEAVFEMCloth@Dy@2@XZ 000000018003a760 f   SimulationController_static_64:ScScene.obj
 0001:00039760       ?getDeactivatedHairSystems@PxsSimulationController@physx@@UEBAPEAPEAVHairSystem@Dy@2@XZ 000000018003a760 f   SimulationController_static_64:ScScene.obj
 0001:00039760       ?getDeactivatedSoftbodies@PxsSimulationController@physx@@UEBAPEAPEAVSoftBody@Dy@2@XZ 000000018003a760 f   SimulationController_static_64:ScScene.obj
 0001:00039760       ?getDeactiveBodies@PxsSimulationController@physx@@UEAAPEAIXZ 000000018003a760 f   SimulationController_static_64:ScScene.obj
 0001:00039760       ?getFEMClothMaterials@NpPhysics@physx@@UEBAIPEAPEAVPxFEMClothMaterial@2@II@Z 000000018003a760 f   NpPhysics.obj
 0001:00039760       ?getFEMCloths@NpScene@physx@@UEBAIPEAPEAVPxFEMCloth@2@II@Z 000000018003a760 f   NpScene.obj
 0001:00039760       ?getFLIPMaterials@NpPhysics@physx@@UEBAIPEAPEAVPxFLIPMaterial@2@II@Z 000000018003a760 f   NpPhysics.obj
 0001:00039760       ?getFrozenShapes@PxsSimulationController@physx@@UEAAPEAIXZ 000000018003a760 f   SimulationController_static_64:ScScene.obj
 0001:00039760       ?getGPUContactManagerOutputBase@PxsNphaseImplementationContext@physx@@UEAAPEAUPxsContactManagerOutput@2@XZ 000000018003a760 f   LowLevel_static_64:PxsNphaseImplementationContext.obj
 0001:00039760       ?getGPURestDistances@PxsNphaseImplementationContext@physx@@UEAAPEAMXZ 000000018003a760 f   LowLevel_static_64:PxsNphaseImplementationContext.obj
 0001:00039760       ?getGPUShapeInteractions@PxsNphaseImplementationContext@physx@@UEAAPEAPEAVShapeInteraction@Sc@2@XZ 000000018003a760 f   LowLevel_static_64:PxsNphaseImplementationContext.obj
 0001:00039760       ?getGPUTorsionalData@PxsNphaseImplementationContext@physx@@UEAAPEAUPxsTorsionalFrictionData@2@XZ 000000018003a760 f   LowLevel_static_64:PxsNphaseImplementationContext.obj
 0001:00039760       ?getHairSystemWakeCounters@PxsSimulationController@physx@@UEBAPEBMXZ 000000018003a760 f   SimulationController_static_64:ScScene.obj
 0001:00039760       ?getHairSystems@NpScene@physx@@UEBAIPEAPEAVPxHairSystem@2@II@Z 000000018003a760 f   NpScene.obj
 0001:00039760       ?getMPMDataPointer@PxsSimulationController@physx@@UEAAPEAXAEBVParticleSystem@Dy@2@W4Enum@PxMPMParticleDataFlag@@@Z 000000018003a760 f   SimulationController_static_64:ScScene.obj
 0001:00039760       ?getMPMMaterials@NpPhysics@physx@@UEBAIPEAPEAVPxMPMMaterial@2@II@Z 000000018003a760 f   NpPhysics.obj
 0001:00039760       ?getNbActivatedFEMCloth@PxsSimulationController@physx@@UEBAIXZ 000000018003a760 f   SimulationController_static_64:ScScene.obj
 0001:00039760       ?getNbActivatedHairSystems@PxsSimulationController@physx@@UEBAIXZ 000000018003a760 f   SimulationController_static_64:ScScene.obj
 0001:00039760       ?getNbActivatedSoftbodies@PxsSimulationController@physx@@UEBAIXZ 000000018003a760 f   SimulationController_static_64:ScScene.obj
 0001:00039760       ?getNbBodies@PxsSimulationController@physx@@UEAAIXZ 000000018003a760 f   SimulationController_static_64:ScScene.obj
 0001:00039760       ?getNbDeactivatedFEMCloth@PxsSimulationController@physx@@UEBAIXZ 000000018003a760 f   SimulationController_static_64:ScScene.obj
 0001:00039760       ?getNbDeactivatedHairSystems@PxsSimulationController@physx@@UEBAIXZ 000000018003a760 f   SimulationController_static_64:ScScene.obj
 0001:00039760       ?getNbDeactivatedSoftbodies@PxsSimulationController@physx@@UEBAIXZ 000000018003a760 f   SimulationController_static_64:ScScene.obj
 0001:00039760       ?getNbFEMClothMaterials@NpPhysics@physx@@UEBAIXZ 000000018003a760 f   NpPhysics.obj
 0001:00039760       ?getNbFEMCloths@NpScene@physx@@UEBAIXZ 000000018003a760 f   NpScene.obj
 0001:00039760       ?getNbFLIPMaterials@NpPhysics@physx@@UEBAIXZ 000000018003a760 f   NpPhysics.obj
 0001:00039760       ?getNbFrozenShapes@PxsSimulationController@physx@@UEAAIXZ 000000018003a760 f   SimulationController_static_64:ScScene.obj
 0001:00039760       ?getNbHairSystems@NpScene@physx@@UEBAIXZ 000000018003a760 f   NpScene.obj
 0001:00039760       ?getNbMPMMaterials@NpPhysics@physx@@UEBAIXZ 000000018003a760 f   NpPhysics.obj
 0001:00039760       ?getNbOutOfBoundsObjects@BroadPhaseBase@Bp@physx@@UEBAIXZ 000000018003a760 f   LowLevelAABB_static_64:BpBroadPhaseSap.obj
 0001:00039760       ?getNbRegions@BroadPhaseBase@Bp@physx@@UEBAIXZ 000000018003a760 f   LowLevelAABB_static_64:BpBroadPhaseSap.obj
 0001:00039760       ?getNbShapes@PxsSimulationController@physx@@UEAAIXZ 000000018003a760 f   SimulationController_static_64:ScScene.obj
 0001:00039760       ?getNbUnfrozenShapes@PxsSimulationController@physx@@UEAAIXZ 000000018003a760 f   SimulationController_static_64:ScScene.obj
 0001:00039760       ?getNumCountedInteractions@ActorSim@Sc@physx@@UEBAIXZ 000000018003a760 f   SimulationController_static_64:ScScene.obj
 0001:00039760       ?getOutOfBoundsObjects@BroadPhaseBase@Bp@physx@@UEBAPEBIXZ 000000018003a760 f   LowLevelAABB_static_64:BpBroadPhaseSap.obj
 0001:00039760       ?getRegions@BroadPhaseBase@Bp@physx@@UEBAIPEAUPxBroadPhaseRegionInfo@3@II@Z 000000018003a760 f   LowLevelAABB_static_64:BpBroadPhaseSap.obj
 0001:00039760       ?getRigidBodies@PxsSimulationController@physx@@UEAAPEAPEAXXZ 000000018003a760 f   SimulationController_static_64:ScScene.obj
 0001:00039760       ?getShapeSims@PxsSimulationController@physx@@UEAAPEAPEAUPxsShapeSim@2@XZ 000000018003a760 f   SimulationController_static_64:ScScene.obj
 0001:00039760       ?getSoftBodyWakeCounters@PxsSimulationController@physx@@UEBAPEBMXZ 000000018003a760 f   SimulationController_static_64:ScScene.obj
 0001:00039760       ?getSolverType@DynamicsContext@Dy@physx@@UEBA?AW4Enum@PxSolverType@3@XZ 000000018003a760 f   LowLevelDynamics_static_64:DyDynamics.obj
 0001:00039760       ?getSparseGridDataPointer@PxsSimulationController@physx@@UEAAPEAXAEBVParticleSystem@Dy@2@W4Enum@PxSparseGridDataFlag@@W45PxParticleSolverType@2@@Z 000000018003a760 f   SimulationController_static_64:ScScene.obj
 0001:00039760       ?getType@BroadPhaseSap@Bp@physx@@UEBA?AW4Enum@PxBroadPhaseType@3@XZ 000000018003a760 f   LowLevelAABB_static_64:BpBroadPhaseSap.obj
 0001:00039760       ?getType@NpRigidStatic@physx@@UEBA?AW4Enum@PxActorType@2@XZ 000000018003a760 f   NpRigidStatic.obj
 0001:00039760       ?getUnfrozenShapes@PxsSimulationController@physx@@UEAAPEAIXZ 000000018003a760 f   SimulationController_static_64:ScScene.obj
 0001:00039760       PxGetBroadPhaseStaticFilterGroup 000000018003a760 f   NpImmediateMode.obj
 0001:00039770       ?addParticleAttachment@NpSoftBody@physx@@UEAAIPEAVPxPBDParticleSystem@2@PEBVPxParticleBuffer@2@IIAEBV?$PxVec4T@M@2@@Z 000000018003a770 f   NpSoftBody.obj
 0001:000397f0       ?addParticleFilter@NpSoftBody@physx@@UEAAXPEAVPxPBDParticleSystem@2@PEBVPxParticleBuffer@2@II@Z 000000018003a7f0 f   NpSoftBody.obj
 0001:00039860       ?addRigidAttachment@NpSoftBody@physx@@UEAAIPEAVPxRigidActor@2@IAEBV?$PxVec3T@M@2@PEAUPxConeLimitedConstraint@2@@Z 000000018003a860 f   NpSoftBody.obj
 0001:00039b00       ?addRigidFilter@NpSoftBody@physx@@UEAAXPEAVPxRigidActor@2@I@Z 000000018003ab00 f   NpSoftBody.obj
 0001:00039b80       ?addSoftBodyAttachment@NpSoftBody@physx@@UEAAIPEAVPxSoftBody@2@IAEBV?$PxVec4T@M@2@I1PEAUPxConeLimitedConstraint@2@M@Z 000000018003ab80 f   NpSoftBody.obj
 0001:00039be0       ?addSoftBodyFilter@NpSoftBody@physx@@UEAAXPEAVPxSoftBody@2@II@Z 000000018003abe0 f   NpSoftBody.obj
 0001:00039c40       ?addSoftBodyFilters@NpSoftBody@physx@@UEAAXPEAVPxSoftBody@2@PEAI1I@Z 000000018003ac40 f   NpSoftBody.obj
 0001:00039ca0       ?addTetRigidAttachment@NpSoftBody@physx@@UEAAIPEAVPxRigidActor@2@IAEBV?$PxVec4T@M@2@AEBV?$PxVec3T@M@2@PEAUPxConeLimitedConstraint@2@@Z 000000018003aca0 f   NpSoftBody.obj
 0001:00039f50       ?addTetRigidFilter@NpSoftBody@physx@@UEAAXPEAVPxRigidActor@2@I@Z 000000018003af50 f   NpSoftBody.obj
 0001:00039fd0       ?attachShape@NpSoftBody@physx@@UEAA_NAEAVPxShape@2@@Z 000000018003afd0 f   NpSoftBody.obj
 0001:0003a180       ?attachSimulationMesh@NpSoftBody@physx@@UEAA_NAEAVPxTetrahedronMesh@2@AEAVPxSoftBodyAuxData@2@@Z 000000018003b180 f   NpSoftBody.obj
 0001:0003a200       ?detachShape@NpSoftBody@physx@@UEAAXXZ 000000018003b200 f   NpSoftBody.obj
 0001:0003a280       ?detachSimulationMesh@NpSoftBody@physx@@UEAAXXZ 000000018003b280 f   NpSoftBody.obj
 0001:0003a300       ?exportExtraData@?$NpActorTemplate@VPxArticulationLink@physx@@@physx@@UEAAXAEAVPxSerializationContext@2@@Z 000000018003b300 f i NpArticulationLink.obj
 0001:0003a300       ?exportExtraData@?$NpActorTemplate@VPxPBDParticleSystem@physx@@@physx@@UEAAXAEAVPxSerializationContext@2@@Z 000000018003b300 f i NpParticleSystem.obj
 0001:0003a300       ?exportExtraData@?$NpActorTemplate@VPxRigidDynamic@physx@@@physx@@UEAAXAEAVPxSerializationContext@2@@Z 000000018003b300 f i NpRigidDynamic.obj
 0001:0003a300       ?exportExtraData@?$NpActorTemplate@VPxRigidStatic@physx@@@physx@@UEAAXAEAVPxSerializationContext@2@@Z 000000018003b300 f i NpRigidStatic.obj
 0001:0003a300       ?exportExtraData@?$NpActorTemplate@VPxSoftBody@physx@@@physx@@UEAAXAEAVPxSerializationContext@2@@Z 000000018003b300 f i NpSoftBody.obj
 0001:0003a310       ?getActorFlags@?$NpActorTemplate@VPxArticulationLink@physx@@@physx@@UEBA?AV?$PxFlags@W4Enum@PxActorFlag@physx@@E@2@XZ 000000018003b310 f i NpArticulationLink.obj
 0001:0003a310       ?getActorFlags@?$NpActorTemplate@VPxPBDParticleSystem@physx@@@physx@@UEBA?AV?$PxFlags@W4Enum@PxActorFlag@physx@@E@2@XZ 000000018003b310 f i NpParticleSystem.obj
 0001:0003a310       ?getActorFlags@?$NpActorTemplate@VPxRigidDynamic@physx@@@physx@@UEBA?AV?$PxFlags@W4Enum@PxActorFlag@physx@@E@2@XZ 000000018003b310 f i NpRigidDynamic.obj
 0001:0003a310       ?getActorFlags@?$NpActorTemplate@VPxRigidStatic@physx@@@physx@@UEBA?AV?$PxFlags@W4Enum@PxActorFlag@physx@@E@2@XZ 000000018003b310 f i NpRigidStatic.obj
 0001:0003a310       ?getActorFlags@?$NpActorTemplate@VPxSoftBody@physx@@@physx@@UEBA?AV?$PxFlags@W4Enum@PxActorFlag@physx@@E@2@XZ 000000018003b310 f i NpSoftBody.obj
 0001:0003a330       ?getAggregate@?$NpActorTemplate@VPxArticulationLink@physx@@@physx@@UEBAPEAVPxAggregate@2@XZ 000000018003b330 f i NpArticulationLink.obj
 0001:0003a330       ?getAggregate@?$NpActorTemplate@VPxPBDParticleSystem@physx@@@physx@@UEBAPEAVPxAggregate@2@XZ 000000018003b330 f i NpParticleSystem.obj
 0001:0003a330       ?getAggregate@?$NpActorTemplate@VPxRigidDynamic@physx@@@physx@@UEBAPEAVPxAggregate@2@XZ 000000018003b330 f i NpRigidDynamic.obj
 0001:0003a330       ?getAggregate@?$NpActorTemplate@VPxRigidStatic@physx@@@physx@@UEBAPEAVPxAggregate@2@XZ 000000018003b330 f i NpRigidStatic.obj
 0001:0003a330       ?getAggregate@?$NpActorTemplate@VPxSoftBody@physx@@@physx@@UEBAPEAVPxAggregate@2@XZ 000000018003b330 f i NpSoftBody.obj
 0001:0003a340       ?getCollisionMesh@NpSoftBody@physx@@UEAAPEAVPxTetrahedronMesh@2@XZ 000000018003b340 f   NpSoftBody.obj
 0001:0003a340       ?getCollisionMesh@NpSoftBody@physx@@UEBAPEBVPxTetrahedronMesh@2@XZ 000000018003b340 f   NpSoftBody.obj
 0001:0003a360       ?getConcreteTypeName@PxSoftBody@physx@@UEBAPEBDXZ 000000018003b360 f i NpSoftBody.obj
 0001:0003a370       ?getDominanceGroup@?$NpActorTemplate@VPxArticulationLink@physx@@@physx@@UEBAEXZ 000000018003b370 f i NpArticulationLink.obj
 0001:0003a370       ?getDominanceGroup@?$NpActorTemplate@VPxPBDParticleSystem@physx@@@physx@@UEBAEXZ 000000018003b370 f i NpParticleSystem.obj
 0001:0003a370       ?getDominanceGroup@?$NpActorTemplate@VPxRigidDynamic@physx@@@physx@@UEBAEXZ 000000018003b370 f i NpRigidDynamic.obj
 0001:0003a370       ?getDominanceGroup@?$NpActorTemplate@VPxRigidStatic@physx@@@physx@@UEBAEXZ 000000018003b370 f i NpRigidStatic.obj
 0001:0003a370       ?getDominanceGroup@?$NpActorTemplate@VPxSoftBody@physx@@@physx@@UEBAEXZ 000000018003b370 f i NpSoftBody.obj
 0001:0003a390       ?getGpuSoftBodyIndex@NpSoftBody@physx@@UEAAIXZ 000000018003b390 f   NpSoftBody.obj
 0001:0003a3a0       ?getOwnerClient@?$NpActorTemplate@VPxArticulationLink@physx@@@physx@@UEBAEXZ 000000018003b3a0 f i NpArticulationLink.obj
 0001:0003a3a0       ?getOwnerClient@?$NpActorTemplate@VPxPBDParticleSystem@physx@@@physx@@UEBAEXZ 000000018003b3a0 f i NpParticleSystem.obj
 0001:0003a3a0       ?getOwnerClient@?$NpActorTemplate@VPxRigidDynamic@physx@@@physx@@UEBAEXZ 000000018003b3a0 f i NpRigidDynamic.obj
 0001:0003a3a0       ?getOwnerClient@?$NpActorTemplate@VPxRigidStatic@physx@@@physx@@UEBAEXZ 000000018003b3a0 f i NpRigidStatic.obj
 0001:0003a3a0       ?getOwnerClient@?$NpActorTemplate@VPxSoftBody@physx@@@physx@@UEBAEXZ 000000018003b3a0 f i NpSoftBody.obj
 0001:0003a3c0       ?getParameter@NpSoftBody@physx@@UEBA?AUPxFEMParameters@2@XZ 000000018003b3c0 f   NpSoftBody.obj
 0001:0003a3e0       ?getSoftBodyFlag@NpSoftBody@physx@@UEBA?AV?$PxFlags@W4Enum@PxSoftBodyFlag@physx@@I@2@XZ 000000018003b3e0 f   NpSoftBody.obj
 0001:0003a3f0       ?getSolverIterationCounts@NpSoftBody@physx@@UEBAXAEAI0@Z 000000018003b3f0 f   NpSoftBody.obj
 0001:0003a410       ?getType@NpSoftBody@physx@@UEBA?AW4Enum@PxActorType@2@XZ 000000018003b410 f i NpSoftBody.obj
 0001:0003a420       ?getWakeCounter@NpSoftBody@physx@@UEBAMXZ 000000018003b420 f   NpSoftBody.obj
 0001:0003a430       ?getWorldBounds@NpSoftBody@physx@@UEBA?AVPxBounds3@2@M@Z 000000018003b430 f   NpSoftBody.obj
 0001:0003a620       ?growAndPushBack@?$PxArray@GV?$PxReflectionAllocator@G@physx@@@physx@@IEAAAEAGAEBG@Z 000000018003b620 f i NpSoftBody.obj
 0001:0003a730       ?importExtraData@?$NpActorTemplate@VPxArticulationLink@physx@@@physx@@UEAAXAEAVPxDeserializationContext@2@@Z 000000018003b730 f i NpArticulationLink.obj
 0001:0003a730       ?importExtraData@?$NpActorTemplate@VPxPBDParticleSystem@physx@@@physx@@UEAAXAEAVPxDeserializationContext@2@@Z 000000018003b730 f i NpParticleSystem.obj
 0001:0003a730       ?importExtraData@?$NpActorTemplate@VPxRigidDynamic@physx@@@physx@@UEAAXAEAVPxDeserializationContext@2@@Z 000000018003b730 f i NpRigidDynamic.obj
 0001:0003a730       ?importExtraData@?$NpActorTemplate@VPxRigidStatic@physx@@@physx@@UEAAXAEAVPxDeserializationContext@2@@Z 000000018003b730 f i NpRigidStatic.obj
 0001:0003a730       ?importExtraData@?$NpActorTemplate@VPxSoftBody@physx@@@physx@@UEAAXAEAVPxDeserializationContext@2@@Z 000000018003b730 f i NpSoftBody.obj
 0001:0003a740       ?isKindOf@PxSoftBody@physx@@MEBA_NPEBD@Z 000000018003b740 f i NpSoftBody.obj
 0001:0003a7d0       ?isSleeping@NpSoftBody@physx@@UEBA_NXZ 000000018003b7d0 f   NpSoftBody.obj
 0001:0003a7e0       ?markDirty@NpSoftBody@physx@@UEAAXV?$PxFlags@W4Enum@PxSoftBodyDataFlag@physx@@I@2@@Z 000000018003b7e0 f   NpSoftBody.obj
 0001:0003a7f0       ?release@NpSoftBody@physx@@UEAAXXZ 000000018003b7f0 f   NpSoftBody.obj
 0001:0003a860       ?removeParticleAttachment@NpSoftBody@physx@@UEAAXPEAVPxPBDParticleSystem@2@I@Z 000000018003b860 f   NpSoftBody.obj
 0001:0003a8c0       ?removeParticleFilter@NpSoftBody@physx@@UEAAXPEAVPxPBDParticleSystem@2@PEBVPxParticleBuffer@2@II@Z 000000018003b8c0 f   NpSoftBody.obj
 0001:0003a930       ?removeRigidAttachment@NpSoftBody@physx@@UEAAXPEAVPxRigidActor@2@I@Z 000000018003b930 f   NpSoftBody.obj
 0001:0003a9b0       ?removeRigidFilter@NpSoftBody@physx@@UEAAXPEAVPxRigidActor@2@I@Z 000000018003b9b0 f   NpSoftBody.obj
 0001:0003aa30       ?removeSoftBodyAttachment@NpSoftBody@physx@@UEAAXPEAVPxSoftBody@2@I@Z 000000018003ba30 f   NpSoftBody.obj
 0001:0003aa90       ?removeSoftBodyFilter@NpSoftBody@physx@@UEAAXPEAVPxSoftBody@2@II@Z 000000018003ba90 f   NpSoftBody.obj
 0001:0003aaf0       ?removeSoftBodyFilters@NpSoftBody@physx@@UEAAXPEAVPxSoftBody@2@PEAI1I@Z 000000018003baf0 f   NpSoftBody.obj
 0001:0003ab50       ?removeTetRigidFilter@NpSoftBody@physx@@UEAAXPEAVPxRigidActor@2@I@Z 000000018003bb50 f   NpSoftBody.obj
 0001:0003abd0       ?resolveReferences@?$NpActorTemplate@VPxArticulationLink@physx@@@physx@@UEAAXAEAVPxDeserializationContext@2@@Z 000000018003bbd0 f i NpArticulationLink.obj
 0001:0003abd0       ?resolveReferences@?$NpActorTemplate@VPxPBDParticleSystem@physx@@@physx@@UEAAXAEAVPxDeserializationContext@2@@Z 000000018003bbd0 f i NpParticleSystem.obj
 0001:0003abd0       ?resolveReferences@?$NpActorTemplate@VPxRigidDynamic@physx@@@physx@@UEAAXAEAVPxDeserializationContext@2@@Z 000000018003bbd0 f i NpRigidDynamic.obj
 0001:0003abd0       ?resolveReferences@?$NpActorTemplate@VPxRigidStatic@physx@@@physx@@UEAAXAEAVPxDeserializationContext@2@@Z 000000018003bbd0 f i NpRigidStatic.obj
 0001:0003abd0       ?resolveReferences@?$NpActorTemplate@VPxSoftBody@physx@@@physx@@UEAAXAEAVPxDeserializationContext@2@@Z 000000018003bbd0 f i NpSoftBody.obj
 0001:0003abe0       ?setActorFlag@?$NpActorTemplate@VPxArticulationLink@physx@@@physx@@UEAAXW4Enum@PxActorFlag@2@_N@Z 000000018003bbe0 f i NpArticulationLink.obj
 0001:0003abe0       ?setActorFlag@?$NpActorTemplate@VPxPBDParticleSystem@physx@@@physx@@UEAAXW4Enum@PxActorFlag@2@_N@Z 000000018003bbe0 f i NpParticleSystem.obj
 0001:0003abe0       ?setActorFlag@?$NpActorTemplate@VPxRigidDynamic@physx@@@physx@@UEAAXW4Enum@PxActorFlag@2@_N@Z 000000018003bbe0 f i NpRigidDynamic.obj
 0001:0003abe0       ?setActorFlag@?$NpActorTemplate@VPxRigidStatic@physx@@@physx@@UEAAXW4Enum@PxActorFlag@2@_N@Z 000000018003bbe0 f i NpRigidStatic.obj
 0001:0003abe0       ?setActorFlag@?$NpActorTemplate@VPxSoftBody@physx@@@physx@@UEAAXW4Enum@PxActorFlag@2@_N@Z 000000018003bbe0 f i NpSoftBody.obj
 0001:0003ac90       ?setActorFlags@?$NpActorTemplate@VPxArticulationLink@physx@@@physx@@UEAAXV?$PxFlags@W4Enum@PxActorFlag@physx@@E@2@@Z 000000018003bc90 f i NpArticulationLink.obj
 0001:0003ac90       ?setActorFlags@?$NpActorTemplate@VPxPBDParticleSystem@physx@@@physx@@UEAAXV?$PxFlags@W4Enum@PxActorFlag@physx@@E@2@@Z 000000018003bc90 f i NpParticleSystem.obj
 0001:0003ac90       ?setActorFlags@?$NpActorTemplate@VPxRigidDynamic@physx@@@physx@@UEAAXV?$PxFlags@W4Enum@PxActorFlag@physx@@E@2@@Z 000000018003bc90 f i NpRigidDynamic.obj
 0001:0003ac90       ?setActorFlags@?$NpActorTemplate@VPxRigidStatic@physx@@@physx@@UEAAXV?$PxFlags@W4Enum@PxActorFlag@physx@@E@2@@Z 000000018003bc90 f i NpRigidStatic.obj
 0001:0003ac90       ?setActorFlags@?$NpActorTemplate@VPxSoftBody@physx@@@physx@@UEAAXV?$PxFlags@W4Enum@PxActorFlag@physx@@E@2@@Z 000000018003bc90 f i NpSoftBody.obj
 0001:0003ad30       ?setDominanceGroup@?$NpActorTemplate@VPxArticulationLink@physx@@@physx@@UEAAXE@Z 000000018003bd30 f i NpArticulationLink.obj
 0001:0003ad30       ?setDominanceGroup@?$NpActorTemplate@VPxPBDParticleSystem@physx@@@physx@@UEAAXE@Z 000000018003bd30 f i NpParticleSystem.obj
 0001:0003ad30       ?setDominanceGroup@?$NpActorTemplate@VPxRigidDynamic@physx@@@physx@@UEAAXE@Z 000000018003bd30 f i NpRigidDynamic.obj
 0001:0003ad30       ?setDominanceGroup@?$NpActorTemplate@VPxRigidStatic@physx@@@physx@@UEAAXE@Z 000000018003bd30 f i NpRigidStatic.obj
 0001:0003ad30       ?setDominanceGroup@?$NpActorTemplate@VPxSoftBody@physx@@@physx@@UEAAXE@Z 000000018003bd30 f i NpSoftBody.obj
 0001:0003ad90       ?setKinematicTargetBufferD@NpSoftBody@physx@@UEAAXPEBV?$PxVec4T@M@2@V?$PxFlags@W4Enum@PxSoftBodyFlag@physx@@I@2@@Z 000000018003bd90 f   NpSoftBody.obj
 0001:0003ae00       ?setName@?$NpActorTemplate@VPxArticulationLink@physx@@@physx@@UEAAXPEBD@Z 000000018003be00 f i NpArticulationLink.obj
 0001:0003ae00       ?setName@?$NpActorTemplate@VPxPBDParticleSystem@physx@@@physx@@UEAAXPEBD@Z 000000018003be00 f i NpParticleSystem.obj
 0001:0003ae00       ?setName@?$NpActorTemplate@VPxRigidDynamic@physx@@@physx@@UEAAXPEBD@Z 000000018003be00 f i NpRigidDynamic.obj
 0001:0003ae00       ?setName@?$NpActorTemplate@VPxRigidStatic@physx@@@physx@@UEAAXPEBD@Z 000000018003be00 f i NpRigidStatic.obj
 0001:0003ae00       ?setName@?$NpActorTemplate@VPxSoftBody@physx@@@physx@@UEAAXPEBD@Z 000000018003be00 f i NpSoftBody.obj
 0001:0003aea0       ?setOwnerClient@?$NpActorTemplate@VPxArticulationLink@physx@@@physx@@UEAAXE@Z 000000018003bea0 f i NpArticulationLink.obj
 0001:0003aea0       ?setOwnerClient@?$NpActorTemplate@VPxPBDParticleSystem@physx@@@physx@@UEAAXE@Z 000000018003bea0 f i NpParticleSystem.obj
 0001:0003aea0       ?setOwnerClient@?$NpActorTemplate@VPxRigidDynamic@physx@@@physx@@UEAAXE@Z 000000018003bea0 f i NpRigidDynamic.obj
 0001:0003aea0       ?setOwnerClient@?$NpActorTemplate@VPxRigidStatic@physx@@@physx@@UEAAXE@Z 000000018003bea0 f i NpRigidStatic.obj
 0001:0003aea0       ?setOwnerClient@?$NpActorTemplate@VPxSoftBody@physx@@@physx@@UEAAXE@Z 000000018003bea0 f i NpSoftBody.obj
 0001:0003aef0       ?setParameter@NpSoftBody@physx@@UEAAXUPxFEMParameters@2@@Z 000000018003bef0 f   NpSoftBody.obj
 0001:0003af90       ?setSoftBodyFlag@NpSoftBody@physx@@UEAAXW4Enum@PxSoftBodyFlag@2@_N@Z 000000018003bf90 f   NpSoftBody.obj
 0001:0003afc0       ?setSoftBodyFlags@NpSoftBody@physx@@UEAAXV?$PxFlags@W4Enum@PxSoftBodyFlag@physx@@I@2@@Z 000000018003bfc0 f   NpSoftBody.obj
 0001:0003afe0       ?setSolverIterationCounts@NpSoftBody@physx@@UEAAXII@Z 000000018003bfe0 f   NpSoftBody.obj
 0001:0003b050       ?setWakeCounter@NpSoftBody@physx@@UEAAXM@Z 000000018003c050 f   NpSoftBody.obj
 0001:0003b0b0       ?updateMaterials@NpSoftBody@physx@@QEAAXXZ 000000018003c0b0 f   NpSoftBody.obj
 0001:0003b160       ??$PxSort@UPxParticleCloth@physx@@U?$PxLess@UPxParticleCloth@physx@@@2@V?$PxReflectionAllocator@UPxParticleCloth@physx@@@2@@physx@@YAXPEAUPxParticleCloth@0@IAEBU?$PxLess@UPxParticleCloth@physx@@@0@AEBV?$PxReflectionAllocator@UPxParticleCloth@physx@@@0@I@Z 000000018003c160 f i NpParticleSystem.obj
 0001:0003b710       ??0NpPBDParticleSystem@physx@@QEAA@IAEAVPxCudaContextManager@1@@Z 000000018003c710 f   NpParticleSystem.obj
 0001:0003b7f0       ??0PxPartitionedParticleCloth@physx@@QEAA@XZ 000000018003c7f0 f   NpParticleSystem.obj
 0001:0003b810       ??1PxPartitionedParticleCloth@physx@@QEAA@XZ 000000018003c810 f   NpParticleSystem.obj
 0001:0003b8e0       ??_E?$NpActorTemplate@VPxPBDParticleSystem@physx@@@physx@@UEAAPEAXI@Z 000000018003c8e0 f i NpParticleSystem.obj
 0001:0003b8e0       ??_G?$NpActorTemplate@VPxPBDParticleSystem@physx@@@physx@@UEAAPEAXI@Z 000000018003c8e0 f i NpParticleSystem.obj
 0001:0003b960       ??_E?$NpParticleSystem@VPxPBDParticleSystem@physx@@@physx@@UEAAPEAXI@Z 000000018003c960 f i NpParticleSystem.obj
 0001:0003b960       ??_ENpPBDParticleSystem@physx@@UEAAPEAXI@Z 000000018003c960 f i NpParticleSystem.obj
 0001:0003b960       ??_G?$NpParticleSystem@VPxPBDParticleSystem@physx@@@physx@@UEAAPEAXI@Z 000000018003c960 f i NpParticleSystem.obj
 0001:0003b960       ??_GNpPBDParticleSystem@physx@@UEAAPEAXI@Z 000000018003c960 f i NpParticleSystem.obj
 0001:0003b9f0       ??_ENpParticleClothPreProcessor@physx@@UEAAPEAXI@Z 000000018003c9f0 f i NpParticleSystem.obj
 0001:0003b9f0       ??_GNpParticleClothPreProcessor@physx@@UEAAPEAXI@Z 000000018003c9f0 f i NpParticleSystem.obj
 0001:0003ba40       ??_EPxConstraintAllocator@physx@@UEAAPEAXI@Z 000000018003ca40 f i LowLevelDynamics_static_64:DyFeatherstoneArticulation.obj
 0001:0003ba40       ??_EPxParticleClothPreProcessor@physx@@MEAAPEAXI@Z 000000018003ca40 f i NpParticleSystem.obj
 0001:0003ba40       ??_GPxConstraintAllocator@physx@@UEAAPEAXI@Z 000000018003ca40 f i LowLevelDynamics_static_64:DyFeatherstoneArticulation.obj
 0001:0003ba40       ??_GPxParticleClothPreProcessor@physx@@MEAAPEAXI@Z 000000018003ca40 f i NpParticleSystem.obj
 0001:0003ba70       ?addParticleBuffer@NpPBDParticleSystem@physx@@UEAAXPEAVPxParticleBuffer@2@@Z 000000018003ca70 f   NpParticleSystem.obj
 0001:0003ba80       ?addRigidAttachment@NpPBDParticleSystem@physx@@UEAAXPEAVPxRigidActor@2@@Z 000000018003ca80 f   NpParticleSystem.obj
 0001:0003baf0       ?allocate@?$PxArray@IV?$PxReflectionAllocator@I@physx@@@physx@@IEAAPEAII@Z 000000018003caf0 f i NpParticleSystem.obj
 0001:0003bb80       ?allocateBuffers@PxPartitionedParticleCloth@physx@@QEAAXIPEAVPxCudaContextManager@2@@Z 000000018003cb80 f   NpParticleSystem.obj
 0001:0003bcc0       ?classifySprings@NpParticleClothPreProcessor@physx@@AEAAXPEBUPxParticleSpring@2@PEAI1AEAV?$PxArray@IV?$PxReflectionAllocator@I@physx@@@2@@Z 000000018003ccc0 f   NpParticleSystem.obj
 0001:0003bea0       ?combinePartitions@NpParticleClothPreProcessor@physx@@AEAAIPEBUPxParticleSpring@2@PEBI1PEAIPEAU32@22@Z 000000018003cea0 f   NpParticleSystem.obj
 0001:0003c480       ?createPhase@NpPBDParticleSystem@physx@@UEAAIPEAVPxParticleMaterial@2@V?$PxFlags@W4Enum@PxParticlePhaseFlag@physx@@I@2@@Z 000000018003d480 f   NpParticleSystem.obj
 0001:0003c560       ?enableCCD@?$NpParticleSystem@VPxPBDParticleSystem@physx@@@physx@@UEAAX_N@Z 000000018003d560 f i NpParticleSystem.obj
 0001:0003c5a0       ?getConcreteTypeName@PxPBDParticleSystem@physx@@UEBAPEBDXZ 000000018003d5a0 f i NpParticleSystem.obj
 0001:0003c5b0       ?getContactOffset@?$NpParticleSystem@VPxPBDParticleSystem@physx@@@physx@@UEBAMXZ 000000018003d5b0 f i NpParticleSystem.obj
 0001:0003c5c0       ?getCudaContextManager@?$NpParticleSystem@VPxPBDParticleSystem@physx@@@physx@@UEBAPEAVPxCudaContextManager@2@XZ 000000018003d5c0 f i NpParticleSystem.obj
 0001:0003c5c0       ?getParentArticulationLink@NpArticulationJointReducedCoordinate@physx@@UEBAAEAVPxArticulationLink@2@XZ 000000018003d5c0 f i NpArticulationJointReducedCoordinate.obj
 0001:0003c5d0       ?getFluidBoundaryDensityScale@NpPBDParticleSystem@physx@@UEBAMXZ 000000018003d5d0 f i NpParticleSystem.obj
 0001:0003c5e0       ?getFluidRestOffset@NpPBDParticleSystem@physx@@UEBAMXZ 000000018003d5e0 f i NpParticleSystem.obj
 0001:0003c5f0       ?getGpuParticleSystemIndex@?$NpParticleSystem@VPxPBDParticleSystem@physx@@@physx@@UEAAIXZ 000000018003d5f0 f i NpParticleSystem.obj
 0001:0003c640       ?getMaxDepenetrationVelocity@?$NpParticleSystem@VPxPBDParticleSystem@physx@@@physx@@UEAAMXZ 000000018003d640 f i NpParticleSystem.obj
 0001:0003c650       ?getMaxVelocity@?$NpParticleSystem@VPxPBDParticleSystem@physx@@@physx@@UEAAMXZ 000000018003d650 f i NpParticleSystem.obj
 0001:0003c660       ?getNbParticleMaterials@?$NpParticleSystem@VPxPBDParticleSystem@physx@@@physx@@UEBAIXZ 000000018003d660 f i NpParticleSystem.obj
 0001:0003c680       ?getParticleContactOffset@?$NpParticleSystem@VPxPBDParticleSystem@physx@@@physx@@UEBAMXZ 000000018003d680 f i NpParticleSystem.obj
 0001:0003c690       ?getParticleFlags@?$NpParticleSystem@VPxPBDParticleSystem@physx@@@physx@@UEBA?AV?$PxFlags@W4Enum@PxParticleFlag@physx@@I@2@XZ 000000018003d690 f i NpParticleSystem.obj
 0001:0003c6a0       ?getParticleSystemCallback@?$NpParticleSystem@VPxPBDParticleSystem@physx@@@physx@@UEBAPEAVPxParticleSystemCallback@2@XZ 000000018003d6a0 f i NpParticleSystem.obj
 0001:0003c6b0       ?getRestOffset@?$NpParticleSystem@VPxPBDParticleSystem@physx@@@physx@@UEBAMXZ 000000018003d6b0 f i NpParticleSystem.obj
 0001:0003c6c0       ?getSimulationFilterData@?$NpParticleSystem@VPxPBDParticleSystem@physx@@@physx@@UEBA?AUPxFilterData@2@XZ 000000018003d6c0 f i NpParticleSystem.obj
 0001:0003c6e0       ?getSolidRestOffset@?$NpParticleSystem@VPxPBDParticleSystem@physx@@@physx@@UEBAMXZ 000000018003d6e0 f i NpParticleSystem.obj
 0001:0003c6f0       ?getSolverIterationCounts@?$NpParticleSystem@VPxPBDParticleSystem@physx@@@physx@@UEBAXAEAI0@Z 000000018003d6f0 f i NpParticleSystem.obj
 0001:0003c710       ?getSolverType@?$NpParticleSystem@VPxPBDParticleSystem@physx@@@physx@@UEBA?AW4Enum@PxParticleSolverType@2@XZ 000000018003d710 f i NpParticleSystem.obj
 0001:0003c720       ?getType@NpPBDParticleSystem@physx@@UEBA?AW4Enum@PxActorType@2@XZ 000000018003d720 f i NpParticleSystem.obj
 0001:0003c730       ?getWind@NpPBDParticleSystem@physx@@UEBA?AV?$PxVec3T@M@2@XZ 000000018003d730 f i NpParticleSystem.obj
 0001:0003c750       ?getWorldBounds@?$NpParticleSystem@VPxPBDParticleSystem@physx@@@physx@@UEBA?AVPxBounds3@2@M@Z 000000018003d750 f i NpParticleSystem.obj
 0001:0003c940       ?isKindOf@PxPBDParticleSystem@physx@@MEBA_NPEBD@Z 000000018003d940 f i NpParticleSystem.obj
 0001:0003c9d0       ?partitionSprings@NpParticleClothPreProcessor@physx@@UEAAXAEBUPxParticleClothDesc@2@AEAUPxPartitionedParticleCloth@2@@Z 000000018003d9d0 f   NpParticleSystem.obj
 0001:0003cc00       ?partitions@NpParticleClothPreProcessor@physx@@AEAAPEAIPEBUPxParticleSpring@2@PEAI@Z 000000018003dc00 f   NpParticleSystem.obj
 0001:0003ce30       ?recreate@?$PxArray@IV?$PxReflectionAllocator@I@physx@@@physx@@IEAAXI@Z 000000018003de30 f i NpParticleSystem.obj
 0001:0003ced0       ?release@NpPBDParticleSystem@physx@@UEAAXXZ 000000018003ded0 f   NpParticleSystem.obj
 0001:0003cf20       ?release@NpParticleClothPreProcessor@physx@@UEAAXXZ 000000018003df20 f   NpParticleSystem.obj
 0001:0003cf40       ?removeParticleBuffer@NpPBDParticleSystem@physx@@UEAAXPEAVPxParticleBuffer@2@@Z 000000018003df40 f   NpParticleSystem.obj
 0001:0003cf50       ?removeRigidAttachment@NpPBDParticleSystem@physx@@UEAAXPEAVPxRigidActor@2@@Z 000000018003df50 f   NpParticleSystem.obj
 0001:0003cfc0       ?resize@?$PxArray@IV?$PxReflectionAllocator@I@physx@@@physx@@QEAAXIAEBI@Z 000000018003dfc0 f i NpParticleSystem.obj
 0001:0003d080       ?setContactOffset@?$NpParticleSystem@VPxPBDParticleSystem@physx@@@physx@@UEAAXM@Z 000000018003e080 f i NpParticleSystem.obj
 0001:0003d0c0       ?setFluidBoundaryDensityScale@NpPBDParticleSystem@physx@@UEAAXM@Z 000000018003e0c0 f i NpParticleSystem.obj
 0001:0003d100       ?setFluidRestOffset@NpPBDParticleSystem@physx@@UEAAXM@Z 000000018003e100 f i NpParticleSystem.obj
 0001:0003d140       ?setGridSizeX@?$NpParticleSystem@VPxPBDParticleSystem@physx@@@physx@@UEAAXI@Z 000000018003e140 f i NpParticleSystem.obj
 0001:0003d150       ?setGridSizeY@?$NpParticleSystem@VPxPBDParticleSystem@physx@@@physx@@UEAAXI@Z 000000018003e150 f i NpParticleSystem.obj
 0001:0003d160       ?setGridSizeZ@?$NpParticleSystem@VPxPBDParticleSystem@physx@@@physx@@UEAAXI@Z 000000018003e160 f i NpParticleSystem.obj
 0001:0003d170       ?setMaxDepenetrationVelocity@?$NpParticleSystem@VPxPBDParticleSystem@physx@@@physx@@UEAAXM@Z 000000018003e170 f i NpParticleSystem.obj
 0001:0003d1b0       ?setMaxVelocity@?$NpParticleSystem@VPxPBDParticleSystem@physx@@@physx@@UEAAXM@Z 000000018003e1b0 f i NpParticleSystem.obj
 0001:0003d1f0       ?setParticleContactOffset@?$NpParticleSystem@VPxPBDParticleSystem@physx@@@physx@@UEAAXM@Z 000000018003e1f0 f i NpParticleSystem.obj
 0001:0003d230       ?setParticleFlag@?$NpParticleSystem@VPxPBDParticleSystem@physx@@@physx@@UEAAXW4Enum@PxParticleFlag@2@_N@Z 000000018003e230 f i NpParticleSystem.obj
 0001:0003d290       ?setParticleFlags@?$NpParticleSystem@VPxPBDParticleSystem@physx@@@physx@@UEAAXV?$PxFlags@W4Enum@PxParticleFlag@physx@@I@2@@Z 000000018003e290 f i NpParticleSystem.obj
 0001:0003d2e0       ?setParticleSystemCallback@?$NpParticleSystem@VPxPBDParticleSystem@physx@@@physx@@UEAAXPEAVPxParticleSystemCallback@2@@Z 000000018003e2e0 f i NpParticleSystem.obj
 0001:0003d2f0       ?setRestOffset@?$NpParticleSystem@VPxPBDParticleSystem@physx@@@physx@@UEAAXM@Z 000000018003e2f0 f i NpParticleSystem.obj
 0001:0003d330       ?setSimulationFilterData@?$NpParticleSystem@VPxPBDParticleSystem@physx@@@physx@@UEAAXAEBUPxFilterData@2@@Z 000000018003e330 f i NpParticleSystem.obj
 0001:0003d350       ?setSolidRestOffset@?$NpParticleSystem@VPxPBDParticleSystem@physx@@@physx@@UEAAXM@Z 000000018003e350 f i NpParticleSystem.obj
 0001:0003d390       ?setSolverIterationCounts@?$NpParticleSystem@VPxPBDParticleSystem@physx@@@physx@@UEAAXII@Z 000000018003e390 f i NpParticleSystem.obj
 0001:0003d400       ?setWind@NpPBDParticleSystem@physx@@UEAAXAEBV?$PxVec3T@M@2@@Z 000000018003e400 f i NpParticleSystem.obj
 0001:0003d440       ?visualize@NpPBDParticleSystem@physx@@UEBAXAEAVPxRenderOutput@2@AEAVNpScene@2@@Z 000000018003e440 f   NpParticleSystem.obj
 0001:0003d4d0       ?writeSprings@NpParticleClothPreProcessor@physx@@AEAAXPEBUPxParticleSpring@2@PEAI111@Z 000000018003e4d0 f   NpParticleSystem.obj
 0001:0003d680       PxCreateParticleClothPreProcessor 000000018003e680 f   NpParticleSystem.obj
 0001:0003d750       ??0NpConstraint@physx@@QEAA@PEAVPxRigidActor@1@0AEAVPxConstraintConnector@1@AEBUPxConstraintShaderTable@1@I@Z 000000018003e750 f   NpConstraint.obj
 0001:0003d910       ??_ENpConstraint@physx@@UEAAPEAXI@Z 000000018003e910 f i NpConstraint.obj
 0001:0003d910       ??_GNpConstraint@physx@@UEAAPEAXI@Z 000000018003e910 f i NpConstraint.obj
 0001:0003d9a0       ?actorDeleted@NpConstraint@physx@@QEAAXPEAVPxRigidActor@2@@Z 000000018003e9a0 f   NpConstraint.obj
 0001:0003d9c0       ?comShift@NpConstraint@physx@@QEAAXPEAVPxRigidActor@2@@Z 000000018003e9c0 f   NpConstraint.obj
 0001:0003da10       ?createObject@NpConstraint@physx@@SAPEAV12@AEAPEAEAEAVPxDeserializationContext@2@@Z 000000018003ea10 f   NpConstraint.obj
 0001:0003dab0       ?getActors@NpConstraint@physx@@UEBAXAEAPEAVPxRigidActor@2@0@Z 000000018003eab0 f   NpConstraint.obj
 0001:0003dac0       ?getBreakForce@NpConstraint@physx@@UEBAXAEAM0@Z 000000018003eac0 f   NpConstraint.obj
 0001:0003dad0       ?getConcreteTypeName@PxConstraint@physx@@UEBAPEBDXZ 000000018003ead0 f i NpConstraint.obj
 0001:0003dae0       ?getExternalReference@NpConstraint@physx@@UEAAPEAXAEAI@Z 000000018003eae0 f   NpConstraint.obj
 0001:0003daf0       ?getFlags@NpConstraint@physx@@UEBA?AV?$PxFlags@W4Enum@PxConstraintFlag@physx@@G@2@XZ 000000018003eaf0 f   NpConstraint.obj
 0001:0003db10       ?getForce@NpConstraint@physx@@UEBAXAEAV?$PxVec3T@M@2@0@Z 000000018003eb10 f   NpConstraint.obj
 0001:0003db70       ?getMinResponseThreshold@NpConstraint@physx@@UEBAMXZ 000000018003eb70 f   NpConstraint.obj
 0001:0003db80       ?getSceneFromActors@NpConstraint@physx@@QEBAPEAVNpScene@2@XZ 000000018003eb80 f   NpConstraint.obj
 0001:0003dc20       ?isKindOf@PxConstraint@physx@@MEBA_NPEBD@Z 000000018003ec20 f i NpConstraint.obj
 0001:0003dc70       ?isSubordinate@?$PxSerializerDefaultAdapter@VNpArticulationJointReducedCoordinate@physx@@@physx@@UEBA_NXZ 000000018003ec70 f i NpSerializerAdapter.obj
 0001:0003dc70       ?isSubordinate@?$PxSerializerDefaultAdapter@VNpArticulationLink@physx@@@physx@@UEBA_NXZ 000000018003ec70 f i NpSerializerAdapter.obj
 0001:0003dc70       ?isSubordinate@?$PxSerializerDefaultAdapter@VNpConstraint@physx@@@physx@@UEBA_NXZ 000000018003ec70 f i NpSerializerAdapter.obj
 0001:0003dc70       ?isSubordinate@NpArticulationAttachment@physx@@UEBA_NXZ 000000018003ec70 f i NpArticulationTendon.obj
 0001:0003dc70       ?isSubordinate@NpArticulationFixedTendon@physx@@UEBA_NXZ 000000018003ec70 f i NpArticulationTendon.obj
 0001:0003dc70       ?isSubordinate@NpArticulationJointReducedCoordinate@physx@@UEBA_NXZ 000000018003ec70 f i NpArticulationJointReducedCoordinate.obj
 0001:0003dc70       ?isSubordinate@NpArticulationLink@physx@@UEBA_NXZ 000000018003ec70 f i NpArticulationLink.obj
 0001:0003dc70       ?isSubordinate@NpArticulationSensor@physx@@UEBA_NXZ 000000018003ec70 f i NpArticulationSensor.obj
 0001:0003dc70       ?isSubordinate@NpArticulationSpatialTendon@physx@@UEBA_NXZ 000000018003ec70 f i NpArticulationTendon.obj
 0001:0003dc70       ?isSubordinate@NpArticulationTendonJoint@physx@@UEBA_NXZ 000000018003ec70 f i NpArticulationTendon.obj
 0001:0003dc70       ?isSubordinate@NpConstraint@physx@@UEBA_NXZ 000000018003ec70 f i NpConstraint.obj
 0001:0003dc70       __acrt_uninitialize_command_line 000000018003ec70 f i libucrt:argv_data.obj
 0001:0003dc80       ?isValid@NpConstraint@physx@@UEBA_NXZ 000000018003ec80 f   NpConstraint.obj
 0001:0003dcc0       ?markDirty@NpConstraint@physx@@UEAAXXZ 000000018003ecc0 f   NpConstraint.obj
 0001:0003dd00       ?release@NpConstraint@physx@@UEAAXXZ 000000018003ed00 f   NpConstraint.obj
 0001:0003ddb0       ?removeConnectors@NpConstraint@physx@@AEAAXPEBD0@Z 000000018003edb0 f   NpConstraint.obj
 0001:0003de30       ?setActors@NpConstraint@physx@@UEAAXPEAVPxRigidActor@2@0@Z 000000018003ee30 f   NpConstraint.obj
 0001:0003e080       ?setBreakForce@NpConstraint@physx@@UEAAXMM@Z 000000018003f080 f   NpConstraint.obj
 0001:0003e110       ?setConstraintFunctions@NpConstraint@physx@@UEAAXAEAVPxConstraintConnector@2@AEBUPxConstraintShaderTable@2@@Z 000000018003f110 f   NpConstraint.obj
 0001:0003e280       ?setFlag@NpConstraint@physx@@UEAAXW4Enum@PxConstraintFlag@2@_N@Z 000000018003f280 f   NpConstraint.obj
 0001:0003e330       ?setFlags@NpConstraint@physx@@UEAAXV?$PxFlags@W4Enum@PxConstraintFlag@physx@@G@2@@Z 000000018003f330 f   NpConstraint.obj
 0001:0003e3c0       ?setMinResponseThreshold@NpConstraint@physx@@UEAAXM@Z 000000018003f3c0 f   NpConstraint.obj
 0001:0003e440       ?updateConstants@NpConstraint@physx@@QEAAXAEAVPxsSimulationController@2@@Z 000000018003f440 f   NpConstraint.obj
 0001:0003e4e0       ??$PxSort@PEAXU?$PxLess@PEAX@physx@@V?$PxReflectionAllocator@V?$PtrBlock@$03@NpPtrTableStorageManager@physx@@@2@@physx@@YAXPEAPEAXIAEBU?$PxLess@PEAX@0@AEBV?$PxReflectionAllocator@V?$PtrBlock@$03@NpPtrTableStorageManager@physx@@@0@I@Z 000000018003f4e0 f i NpFactory.obj
 0001:0003e940       ??$PxSort@PEAXU?$PxLess@PEAX@physx@@V?$PxReflectionAllocator@V?$PtrBlock@$0BA@@NpPtrTableStorageManager@physx@@@2@@physx@@YAXPEAPEAXIAEBU?$PxLess@PEAX@0@AEBV?$PxReflectionAllocator@V?$PtrBlock@$0BA@@NpPtrTableStorageManager@physx@@@0@I@Z 000000018003f940 f i NpFactory.obj
 0001:0003eda0       ??$PxSort@PEAXU?$PxLess@PEAX@physx@@V?$PxReflectionAllocator@V?$PtrBlock@$0EA@@NpPtrTableStorageManager@physx@@@2@@physx@@YAXPEAPEAXIAEBU?$PxLess@PEAX@0@AEBV?$PxReflectionAllocator@V?$PtrBlock@$0EA@@NpPtrTableStorageManager@physx@@@0@I@Z 000000018003fda0 f i NpFactory.obj
 0001:0003f200       ??$PxSort@PEAXU?$PxLess@PEAX@physx@@V?$PxReflectionAllocator@VNpAggregate@physx@@@2@@physx@@YAXPEAPEAXIAEBU?$PxLess@PEAX@0@AEBV?$PxReflectionAllocator@VNpAggregate@physx@@@0@I@Z 0000000180040200 f i NpFactory.obj
 0001:0003f660       ??$PxSort@PEAXU?$PxLess@PEAX@physx@@V?$PxReflectionAllocator@VNpArticulationJointReducedCoordinate@physx@@@2@@physx@@YAXPEAPEAXIAEBU?$PxLess@PEAX@0@AEBV?$PxReflectionAllocator@VNpArticulationJointReducedCoordinate@physx@@@0@I@Z 0000000180040660 f i NpFactory.obj
 0001:0003fac0       ??$PxSort@PEAXU?$PxLess@PEAX@physx@@V?$PxReflectionAllocator@VNpArticulationLink@physx@@@2@@physx@@YAXPEAPEAXIAEBU?$PxLess@PEAX@0@AEBV?$PxReflectionAllocator@VNpArticulationLink@physx@@@0@I@Z 0000000180040ac0 f i NpFactory.obj
 0001:0003ff20       ??$PxSort@PEAXU?$PxLess@PEAX@physx@@V?$PxReflectionAllocator@VNpArticulationReducedCoordinate@physx@@@2@@physx@@YAXPEAPEAXIAEBU?$PxLess@PEAX@0@AEBV?$PxReflectionAllocator@VNpArticulationReducedCoordinate@physx@@@0@I@Z 0000000180040f20 f i NpFactory.obj
 0001:00040380       ??$PxSort@PEAXU?$PxLess@PEAX@physx@@V?$PxReflectionAllocator@VNpConnectorArray@physx@@@2@@physx@@YAXPEAPEAXIAEBU?$PxLess@PEAX@0@AEBV?$PxReflectionAllocator@VNpConnectorArray@physx@@@0@I@Z 0000000180041380 f i NpFactory.obj
 0001:000407e0       ??$PxSort@PEAXU?$PxLess@PEAX@physx@@V?$PxReflectionAllocator@VNpConstraint@physx@@@2@@physx@@YAXPEAPEAXIAEBU?$PxLess@PEAX@0@AEBV?$PxReflectionAllocator@VNpConstraint@physx@@@0@I@Z 00000001800417e0 f i NpFactory.obj
 0001:00040c40       ??$PxSort@PEAXU?$PxLess@PEAX@physx@@V?$PxReflectionAllocator@VNpFEMSoftBodyMaterial@physx@@@2@@physx@@YAXPEAPEAXIAEBU?$PxLess@PEAX@0@AEBV?$PxReflectionAllocator@VNpFEMSoftBodyMaterial@physx@@@0@I@Z 0000000180041c40 f i NpFactory.obj
 0001:000410a0       ??$PxSort@PEAXU?$PxLess@PEAX@physx@@V?$PxReflectionAllocator@VNpMaterial@physx@@@2@@physx@@YAXPEAPEAXIAEBU?$PxLess@PEAX@0@AEBV?$PxReflectionAllocator@VNpMaterial@physx@@@0@I@Z 00000001800420a0 f i NpFactory.obj
 0001:00041500       ??$PxSort@PEAXU?$PxLess@PEAX@physx@@V?$PxReflectionAllocator@VNpPBDMaterial@physx@@@2@@physx@@YAXPEAPEAXIAEBU?$PxLess@PEAX@0@AEBV?$PxReflectionAllocator@VNpPBDMaterial@physx@@@0@I@Z 0000000180042500 f i NpFactory.obj
 0001:00041960       ??$PxSort@PEAXU?$PxLess@PEAX@physx@@V?$PxReflectionAllocator@VNpPBDParticleSystem@physx@@@2@@physx@@YAXPEAPEAXIAEBU?$PxLess@PEAX@0@AEBV?$PxReflectionAllocator@VNpPBDParticleSystem@physx@@@0@I@Z 0000000180042960 f i NpFactory.obj
 0001:00041dc0       ??$PxSort@PEAXU?$PxLess@PEAX@physx@@V?$PxReflectionAllocator@VNpRigidDynamic@physx@@@2@@physx@@YAXPEAPEAXIAEBU?$PxLess@PEAX@0@AEBV?$PxReflectionAllocator@VNpRigidDynamic@physx@@@0@I@Z 0000000180042dc0 f i NpFactory.obj
 0001:00042220       ??$PxSort@PEAXU?$PxLess@PEAX@physx@@V?$PxReflectionAllocator@VNpRigidStatic@physx@@@2@@physx@@YAXPEAPEAXIAEBU?$PxLess@PEAX@0@AEBV?$PxReflectionAllocator@VNpRigidStatic@physx@@@0@I@Z 0000000180043220 f i NpFactory.obj
 0001:00042680       ??$PxSort@PEAXU?$PxLess@PEAX@physx@@V?$PxReflectionAllocator@VNpShape@physx@@@2@@physx@@YAXPEAPEAXIAEBU?$PxLess@PEAX@0@AEBV?$PxReflectionAllocator@VNpShape@physx@@@0@I@Z 0000000180043680 f i NpFactory.obj
 0001:00042ae0       ??$PxSort@PEAXU?$PxLess@PEAX@physx@@V?$PxReflectionAllocator@VNpSoftBody@physx@@@2@@physx@@YAXPEAPEAXIAEBU?$PxLess@PEAX@0@AEBV?$PxReflectionAllocator@VNpSoftBody@physx@@@0@I@Z 0000000180043ae0 f i NpFactory.obj
 0001:00042f40       ??$construct@$$CBVPxGeometry@physx@@V?$PxFlags@W4Enum@PxShapeFlag@physx@@E@2@PEAGG_NW4Enum@PxShapeCoreFlag@2@@?$PxPoolBase@VNpShape@physx@@V?$PxReflectionAllocator@VNpShape@physx@@@2@@physx@@QEAAPEAVNpShape@1@AEBVPxGeometry@1@AEAV?$PxFlags@W4Enum@PxShapeFlag@physx@@E@1@AEAPEAGAEAGAEA_NAEAW4Enum@PxShapeCoreFlag@1@@Z 0000000180043f40 f i NpFactory.obj
 0001:000430c0       ??$createShapeInternal@VPxFEMSoftBodyMaterial@physx@@VNpFEMSoftBodyMaterial@2@@NpFactory@physx@@AEAAPEAVNpShape@1@AEBVPxGeometry@1@V?$PxFlags@W4Enum@PxShapeFlag@physx@@E@1@PEBQEAVPxFEMSoftBodyMaterial@1@G_NW4Enum@PxShapeCoreFlag@1@@Z 00000001800440c0 f i NpFactory.obj
 0001:00043290       ??$createShapeInternal@VPxMaterial@physx@@VNpMaterial@2@@NpFactory@physx@@AEAAPEAVNpShape@1@AEBVPxGeometry@1@V?$PxFlags@W4Enum@PxShapeFlag@physx@@E@1@PEBQEAVPxMaterial@1@G_NW4Enum@PxShapeCoreFlag@1@@Z 0000000180044290 f i NpFactory.obj
 0001:00043b40       ??0?$PxMutexT@V?$PxReflectionAllocator@VPxMutexImpl@physx@@@physx@@@physx@@QEAA@AEBV?$PxReflectionAllocator@VPxMutexImpl@physx@@@1@@Z 0000000180044b40 f i NpFactory.obj
 0001:00043bd0       ??0NpFactory@physx@@QEAA@XZ 0000000180044bd0 f   NpFactory.obj
 0001:00044700       ??1?$PxPoolBase@V?$PtrBlock@$03@NpPtrTableStorageManager@physx@@V?$PxReflectionAllocator@V?$PtrBlock@$03@NpPtrTableStorageManager@physx@@@3@@physx@@QEAA@XZ 0000000180045700 f i NpFactory.obj
 0001:00044860       ??1?$PxPoolBase@V?$PtrBlock@$0BA@@NpPtrTableStorageManager@physx@@V?$PxReflectionAllocator@V?$PtrBlock@$0BA@@NpPtrTableStorageManager@physx@@@3@@physx@@QEAA@XZ 0000000180045860 f i NpFactory.obj
 0001:000449c0       ??1?$PxPoolBase@V?$PtrBlock@$0EA@@NpPtrTableStorageManager@physx@@V?$PxReflectionAllocator@V?$PtrBlock@$0EA@@NpPtrTableStorageManager@physx@@@3@@physx@@QEAA@XZ 00000001800459c0 f i NpFactory.obj
 0001:00044b20       ??1?$PxPoolBase@VNpAggregate@physx@@V?$PxReflectionAllocator@VNpAggregate@physx@@@2@@physx@@QEAA@XZ 0000000180045b20 f i NpFactory.obj
 0001:00044d30       ??1?$PxPoolBase@VNpArticulationJointReducedCoordinate@physx@@V?$PxReflectionAllocator@VNpArticulationJointReducedCoordinate@physx@@@2@@physx@@QEAA@XZ 0000000180045d30 f i NpFactory.obj
 0001:00044f40       ??1?$PxPoolBase@VNpArticulationLink@physx@@V?$PxReflectionAllocator@VNpArticulationLink@physx@@@2@@physx@@QEAA@XZ 0000000180045f40 f i NpFactory.obj
 0001:00045150       ??1?$PxPoolBase@VNpArticulationReducedCoordinate@physx@@V?$PxReflectionAllocator@VNpArticulationReducedCoordinate@physx@@@2@@physx@@QEAA@XZ 0000000180046150 f i NpFactory.obj
 0001:00045360       ??1?$PxPoolBase@VNpConnectorArray@physx@@V?$PxReflectionAllocator@VNpConnectorArray@physx@@@2@@physx@@QEAA@XZ 0000000180046360 f i NpFactory.obj
 0001:00045400       ??1?$PxPoolBase@VNpConstraint@physx@@V?$PxReflectionAllocator@VNpConstraint@physx@@@2@@physx@@QEAA@XZ 0000000180046400 f i NpFactory.obj
 0001:00045610       ??1?$PxPoolBase@VNpFEMSoftBodyMaterial@physx@@V?$PxReflectionAllocator@VNpFEMSoftBodyMaterial@physx@@@2@@physx@@QEAA@XZ 0000000180046610 f i NpFactory.obj
 0001:00045820       ??1?$PxPoolBase@VNpMaterial@physx@@V?$PxReflectionAllocator@VNpMaterial@physx@@@2@@physx@@QEAA@XZ 0000000180046820 f i NpFactory.obj
 0001:00045a30       ??1?$PxPoolBase@VNpPBDMaterial@physx@@V?$PxReflectionAllocator@VNpPBDMaterial@physx@@@2@@physx@@QEAA@XZ 0000000180046a30 f i NpFactory.obj
 0001:00045c40       ??1?$PxPoolBase@VNpPBDParticleSystem@physx@@V?$PxReflectionAllocator@VNpPBDParticleSystem@physx@@@2@@physx@@QEAA@XZ 0000000180046c40 f i NpFactory.obj
 0001:00045e50       ??1?$PxPoolBase@VNpRigidDynamic@physx@@V?$PxReflectionAllocator@VNpRigidDynamic@physx@@@2@@physx@@QEAA@XZ 0000000180046e50 f i NpFactory.obj
 0001:00046060       ??1?$PxPoolBase@VNpRigidStatic@physx@@V?$PxReflectionAllocator@VNpRigidStatic@physx@@@2@@physx@@QEAA@XZ 0000000180047060 f i NpFactory.obj
 0001:00046270       ??1?$PxPoolBase@VNpShape@physx@@V?$PxReflectionAllocator@VNpShape@physx@@@2@@physx@@QEAA@XZ 0000000180047270 f i NpFactory.obj
 0001:00046480       ??1?$PxPoolBase@VNpSoftBody@physx@@V?$PxReflectionAllocator@VNpSoftBody@physx@@@2@@physx@@QEAA@XZ 0000000180047480 f i NpFactory.obj
 0001:00046690       ??1NpFactory@physx@@EEAA@XZ 0000000180047690 f   NpFactory.obj
 0001:00046ab0       ??_ENpFactory@physx@@EEAAPEAXI@Z 0000000180047ab0 f i NpFactory.obj
 0001:00046ab0       ??_GNpFactory@physx@@EEAAPEAXI@Z 0000000180047ab0 f i NpFactory.obj
 0001:00046b20       ??_ENpPtrTableStorageManager@physx@@UEAAPEAXI@Z 0000000180047b20 f i NpFactory.obj
 0001:00046b20       ??_GNpPtrTableStorageManager@physx@@UEAAPEAXI@Z 0000000180047b20 f i NpFactory.obj
 0001:00046be0       ??_EPtrTableStorageManager@Cm@physx@@MEAAPEAXI@Z 0000000180047be0 f i NpFactory.obj
 0001:00046be0       ??_GPtrTableStorageManager@Cm@physx@@MEAAPEAXI@Z 0000000180047be0 f i NpFactory.obj
 0001:00046c10       ?NpDestroyAggregate@physx@@YAXPEAVNpAggregate@1@@Z 0000000180047c10 f   NpFactory.obj
 0001:00046ca0       ?NpDestroyArticulation@physx@@YAXPEAVPxArticulationReducedCoordinate@1@@Z 0000000180047ca0 f   NpFactory.obj
 0001:00046d30       ?NpDestroyArticulationJoint@physx@@YAXPEAVPxArticulationJointReducedCoordinate@1@@Z 0000000180047d30 f   NpFactory.obj
 0001:00046dd0       ?NpDestroyArticulationLink@physx@@YAXPEAVNpArticulationLink@1@@Z 0000000180047dd0 f   NpFactory.obj
 0001:00046e70       ?NpDestroyConstraint@physx@@YAXPEAVNpConstraint@1@@Z 0000000180047e70 f   NpFactory.obj
 0001:00046f00       ?NpDestroyParticleSystem@physx@@YAXPEAVNpPBDParticleSystem@1@@Z 0000000180047f00 f   NpFactory.obj
 0001:00046f90       ?NpDestroyRigidActor@physx@@YAXPEAVNpRigidStatic@1@@Z 0000000180047f90 f   NpFactory.obj
 0001:00047020       ?NpDestroyRigidDynamic@physx@@YAXPEAVNpRigidDynamic@1@@Z 0000000180048020 f   NpFactory.obj
 0001:000470b0       ?NpDestroyShape@physx@@YAXPEAVNpShape@1@@Z 00000001800480b0 f   NpFactory.obj
 0001:00047140       ?NpDestroySoftBody@physx@@YAXPEAVNpSoftBody@1@@Z 0000000180048140 f   NpFactory.obj
 0001:000471e0       ?acquireConnectorArray@NpFactory@physx@@QEAAPEAVNpConnectorArray@2@XZ 00000001800481e0 f   NpFactory.obj
 0001:00047330       ?addCollection@NpFactory@physx@@QEAAXAEBVCollection@Cm@2@@Z 0000000180048330 f   NpFactory.obj
 0001:000475b0       ?allocate@?$PxArray@GV?$PxInlineAllocator@$07V?$PxReflectionAllocator@G@physx@@@physx@@@physx@@IEAAPEAGI@Z 00000001800485b0 f i NpFactory.obj
 0001:00047660       ?allocate@?$PxArray@PEAVPxAggregate@physx@@V?$PxReflectionAllocator@PEAVPxAggregate@physx@@@2@@physx@@IEAAPEAPEAVPxAggregate@2@I@Z 0000000180048660 f i NpFactory.obj
 0001:000476f0       ?allocate@?$PxArray@PEAVPxArticulationReducedCoordinate@physx@@V?$PxReflectionAllocator@PEAVPxArticulationReducedCoordinate@physx@@@2@@physx@@IEAAPEAPEAVPxArticulationReducedCoordinate@2@I@Z 00000001800486f0 f i NpFactory.obj
 0001:00047780       ?allocate@?$PxArray@PEAVPxConstraint@physx@@V?$PxReflectionAllocator@PEAVPxConstraint@physx@@@2@@physx@@IEAAPEAPEAVPxConstraint@2@I@Z 0000000180048780 f i NpFactory.obj
 0001:00047810       ?allocate@?$PxArray@PEAVPxParticleBuffer@physx@@V?$PxReflectionAllocator@PEAVPxParticleBuffer@physx@@@2@@physx@@IEAAPEAPEAVPxParticleBuffer@2@I@Z 0000000180048810 f i NpFactory.obj
 0001:000478a0       ?allocate@?$PxArray@PEAXV?$PxReflectionAllocator@V?$PtrBlock@$03@NpPtrTableStorageManager@physx@@@physx@@@physx@@IEAAPEAPEAXI@Z 00000001800488a0 f i NpFactory.obj
 0001:00047930       ?allocate@?$PxArray@PEAXV?$PxReflectionAllocator@V?$PtrBlock@$0BA@@NpPtrTableStorageManager@physx@@@physx@@@physx@@IEAAPEAPEAXI@Z 0000000180048930 f i NpFactory.obj
 0001:000479c0       ?allocate@?$PxArray@PEAXV?$PxReflectionAllocator@V?$PtrBlock@$0EA@@NpPtrTableStorageManager@physx@@@physx@@@physx@@IEAAPEAPEAXI@Z 00000001800489c0 f i NpFactory.obj
 0001:00047a50       ?allocate@?$PxArray@PEAXV?$PxReflectionAllocator@VNpAggregate@physx@@@physx@@@physx@@IEAAPEAPEAXI@Z 0000000180048a50 f i NpFactory.obj
 0001:00047ae0       ?allocate@?$PxArray@PEAXV?$PxReflectionAllocator@VNpArticulationJointReducedCoordinate@physx@@@physx@@@physx@@IEAAPEAPEAXI@Z 0000000180048ae0 f i NpFactory.obj
 0001:00047b70       ?allocate@?$PxArray@PEAXV?$PxReflectionAllocator@VNpArticulationLink@physx@@@physx@@@physx@@IEAAPEAPEAXI@Z 0000000180048b70 f i NpFactory.obj
 0001:00047c00       ?allocate@?$PxArray@PEAXV?$PxReflectionAllocator@VNpArticulationReducedCoordinate@physx@@@physx@@@physx@@IEAAPEAPEAXI@Z 0000000180048c00 f i NpFactory.obj
 0001:00047c90       ?allocate@?$PxArray@PEAXV?$PxReflectionAllocator@VNpConnectorArray@physx@@@physx@@@physx@@IEAAPEAPEAXI@Z 0000000180048c90 f i NpFactory.obj
 0001:00047d20       ?allocate@?$PxArray@PEAXV?$PxReflectionAllocator@VNpConstraint@physx@@@physx@@@physx@@IEAAPEAPEAXI@Z 0000000180048d20 f i NpFactory.obj
 0001:00047db0       ?allocate@?$PxArray@PEAXV?$PxReflectionAllocator@VNpFEMSoftBodyMaterial@physx@@@physx@@@physx@@IEAAPEAPEAXI@Z 0000000180048db0 f i NpFactory.obj
 0001:00047e40       ?allocate@?$PxArray@PEAXV?$PxReflectionAllocator@VNpMaterial@physx@@@physx@@@physx@@IEAAPEAPEAXI@Z 0000000180048e40 f i NpFactory.obj
 0001:00047ed0       ?allocate@?$PxArray@PEAXV?$PxReflectionAllocator@VNpPBDMaterial@physx@@@physx@@@physx@@IEAAPEAPEAXI@Z 0000000180048ed0 f i NpFactory.obj
 0001:00047f60       ?allocate@?$PxArray@PEAXV?$PxReflectionAllocator@VNpPBDParticleSystem@physx@@@physx@@@physx@@IEAAPEAPEAXI@Z 0000000180048f60 f i NpFactory.obj
 0001:00047ff0       ?allocate@?$PxArray@PEAXV?$PxReflectionAllocator@VNpRigidDynamic@physx@@@physx@@@physx@@IEAAPEAPEAXI@Z 0000000180048ff0 f i NpFactory.obj
 0001:00048080       ?allocate@?$PxArray@PEAXV?$PxReflectionAllocator@VNpRigidStatic@physx@@@physx@@@physx@@IEAAPEAPEAXI@Z 0000000180049080 f i NpFactory.obj
 0001:00048110       ?allocate@?$PxArray@PEAXV?$PxReflectionAllocator@VNpShape@physx@@@physx@@@physx@@IEAAPEAPEAXI@Z 0000000180049110 f i NpFactory.obj
 0001:000481a0       ?allocate@?$PxArray@PEAXV?$PxReflectionAllocator@VNpSoftBody@physx@@@physx@@@physx@@IEAAPEAPEAXI@Z 00000001800491a0 f i NpFactory.obj
 0001:00048230       ?allocate@NpPtrTableStorageManager@physx@@UEAAPEAPEAXI@Z 0000000180049230 f i NpFactory.obj
 0001:000485c0       ?canReuse@NpPtrTableStorageManager@physx@@UEAA_NII@Z 00000001800495c0 f i NpFactory.obj
 0001:00048610       ?create@?$PxHashBase@PEAVPxAggregate@physx@@PEAV12@U?$PxHash@PEAVPxAggregate@physx@@@2@UGetKey@?$PxHashSetBase@PEAVPxAggregate@physx@@U?$PxHash@PEAVPxAggregate@physx@@@2@VPxAllocator@2@$00@2@VPxAllocator@2@$00@physx@@QEAAPEAPEAVPxAggregate@2@AEBQEAV32@AEA_N@Z 0000000180049610 f i NpScene.obj
 0001:00048610       ?create@?$PxHashBase@PEAVPxArticulationReducedCoordinate@physx@@PEAV12@U?$PxHash@PEAVPxArticulationReducedCoordinate@physx@@@2@UGetKey@?$PxHashSetBase@PEAVPxArticulationReducedCoordinate@physx@@U?$PxHash@PEAVPxArticulationReducedCoordinate@physx@@@2@VPxAllocator@2@$00@2@VPxAllocator@2@$00@physx@@QEAAPEAPEAVPxArticulationReducedCoordinate@2@AEBQEAV32@AEA_N@Z 0000000180049610 f i NpScene.obj
 0001:00048610       ?create@?$PxHashBase@PEAVPxPBDParticleSystem@physx@@PEAV12@U?$PxHash@PEAVPxPBDParticleSystem@physx@@@2@UGetKey@?$PxHashSetBase@PEAVPxPBDParticleSystem@physx@@U?$PxHash@PEAVPxPBDParticleSystem@physx@@@2@VPxAllocator@2@$00@2@VPxAllocator@2@$00@physx@@QEAAPEAPEAVPxPBDParticleSystem@2@AEBQEAV32@AEA_N@Z 0000000180049610 f i NpScene.obj
 0001:00048610       ?create@?$PxHashBase@PEAVPxShape@physx@@PEAV12@U?$PxHash@PEAVPxShape@physx@@@2@UGetKey@?$PxHashSetBase@PEAVPxShape@physx@@U?$PxHash@PEAVPxShape@physx@@@2@VPxAllocator@2@$00@2@VPxAllocator@2@$00@physx@@QEAAPEAPEAVPxShape@2@AEBQEAV32@AEA_N@Z 0000000180049610 f i NpFactory.obj
 0001:00048610       ?create@?$PxHashBase@PEAVPxSoftBody@physx@@PEAV12@U?$PxHash@PEAVPxSoftBody@physx@@@2@UGetKey@?$PxHashSetBase@PEAVPxSoftBody@physx@@U?$PxHash@PEAVPxSoftBody@physx@@@2@VPxAllocator@2@$00@2@VPxAllocator@2@$00@physx@@QEAAPEAPEAVPxSoftBody@2@AEBQEAV32@AEA_N@Z 0000000180049610 f i NpScene.obj
 0001:000487a0       ?createAggregate@NpFactory@physx@@QEAAPEAVPxAggregate@2@III@Z 00000001800497a0 f   NpFactory.obj
 0001:00048950       ?createArticulationLink@NpFactory@physx@@QEAAPEAVPxArticulationLink@2@AEAVNpArticulationReducedCoordinate@2@PEAVNpArticulationLink@2@AEBV?$PxTransformT@M@2@@Z 0000000180049950 f   NpFactory.obj
 0001:00048e70       ?createArticulationRC@NpFactory@physx@@QEAAPEAVPxArticulationReducedCoordinate@2@XZ 0000000180049e70 f   NpFactory.obj
 0001:00049050       ?createConstraint@NpFactory@physx@@QEAAPEAVPxConstraint@2@PEAVPxRigidActor@2@0AEAVPxConstraintConnector@2@AEBUPxConstraintShaderTable@2@I@Z 000000018004a050 f   NpFactory.obj
 0001:00049230       ?createFEMSoftBodyMaterial@NpFactory@physx@@QEAAPEAVPxFEMSoftBodyMaterial@2@MMM@Z 000000018004a230 f   NpFactory.obj
 0001:000493f0       ?createInstance@NpFactory@physx@@SAXXZ 000000018004a3f0 f   NpFactory.obj
 0001:00049480       ?createMaterial@NpFactory@physx@@QEAAPEAVPxMaterial@2@MMM@Z 000000018004a480 f   NpFactory.obj
 0001:00049640       ?createNpArticulationJointRC@NpFactory@physx@@QEAAPEAVNpArticulationJointReducedCoordinate@2@AEAVNpArticulationLink@2@AEBV?$PxTransformT@M@2@01@Z 000000018004a640 f   NpFactory.obj
 0001:000497d0       ?createPBDMaterial@NpFactory@physx@@QEAAPEAVPxPBDMaterial@2@MMMMMMMMMMM@Z 000000018004a7d0 f   NpFactory.obj
 0001:000499d0       ?createPBDParticleSystem@NpFactory@physx@@QEAAPEAVPxPBDParticleSystem@2@IAEAVPxCudaContextManager@2@@Z 000000018004a9d0 f   NpFactory.obj
 0001:00049b30       ?createParticleAndDiffuseBuffer@NpFactory@physx@@QEAAPEAVPxParticleAndDiffuseBuffer@2@IIIPEAVPxCudaContextManager@2@@Z 000000018004ab30 f   NpFactory.obj
 0001:00049c10       ?createParticleBuffer@NpFactory@physx@@QEAAPEAVPxParticleBuffer@2@IIPEAVPxCudaContextManager@2@@Z 000000018004ac10 f   NpFactory.obj
 0001:00049cc0       ?createParticleClothBuffer@NpFactory@physx@@QEAAPEAVPxParticleClothBuffer@2@IIIIIPEAVPxCudaContextManager@2@@Z 000000018004acc0 f   NpFactory.obj
 0001:00049db0       ?createParticleRigidBuffer@NpFactory@physx@@QEAAPEAVPxParticleRigidBuffer@2@IIIPEAVPxCudaContextManager@2@@Z 000000018004adb0 f   NpFactory.obj
 0001:00049e90       ?createRigidDynamic@NpFactory@physx@@QEAAPEAVPxRigidDynamic@2@AEBV?$PxTransformT@M@2@@Z 000000018004ae90 f   NpFactory.obj
 0001:0004a040       ?createRigidStatic@NpFactory@physx@@QEAAPEAVPxRigidStatic@2@AEBV?$PxTransformT@M@2@@Z 000000018004b040 f   NpFactory.obj
 0001:0004a1e0       ?createShape@NpFactory@physx@@QEAAPEAVNpShape@2@AEBVPxGeometry@2@V?$PxFlags@W4Enum@PxShapeFlag@physx@@E@2@PEBQEAVPxFEMSoftBodyMaterial@2@G_N@Z 000000018004b1e0 f   NpFactory.obj
 0001:0004a220       ?createShape@NpFactory@physx@@QEAAPEAVNpShape@2@AEBVPxGeometry@2@V?$PxFlags@W4Enum@PxShapeFlag@physx@@E@2@PEBQEAVPxMaterial@2@G_N@Z 000000018004b220 f   NpFactory.obj
 0001:0004a260       ?createSoftBody@NpFactory@physx@@QEAAPEAVPxSoftBody@2@AEAVPxCudaContextManager@2@@Z 000000018004b260 f   NpFactory.obj
 0001:0004a3c0       ?deallocate@NpPtrTableStorageManager@physx@@UEAAXPEAPEAXI@Z 000000018004b3c0 f i NpFactory.obj
 0001:0004a460       ?destroyInstance@NpFactory@physx@@SAXXZ 000000018004b460 f   NpFactory.obj
 0001:0004a4f0       ?disposeElements@?$PxPoolBase@VNpConnectorArray@physx@@V?$PxReflectionAllocator@VNpConnectorArray@physx@@@2@@physx@@IEAAXXZ 000000018004b4f0 f i NpFactory.obj
 0001:0004a6f0       ?getNbShapes@NpFactory@physx@@QEBAIXZ 000000018004b6f0 f   NpFactory.obj
 0001:0004a700       ?getShapes@NpFactory@physx@@QEBAIPEAPEAVPxShape@2@II@Z 000000018004b700 f   NpFactory.obj
 0001:0004a760       ?growAndPushBack@?$PxArray@PEAVPxAggregate@physx@@V?$PxReflectionAllocator@PEAVPxAggregate@physx@@@2@@physx@@IEAAAEAPEAVPxAggregate@2@AEBQEAV32@@Z 000000018004b760 f i NpFactory.obj
 0001:0004a820       ?growAndPushBack@?$PxArray@PEAVPxArticulationReducedCoordinate@physx@@V?$PxReflectionAllocator@PEAVPxArticulationReducedCoordinate@physx@@@2@@physx@@IEAAAEAPEAVPxArticulationReducedCoordinate@2@AEBQEAV32@@Z 000000018004b820 f i NpFactory.obj
 0001:0004a8e0       ?growAndPushBack@?$PxArray@PEAVPxConstraint@physx@@V?$PxReflectionAllocator@PEAVPxConstraint@physx@@@2@@physx@@IEAAAEAPEAVPxConstraint@2@AEBQEAV32@@Z 000000018004b8e0 f i NpFactory.obj
 0001:0004a9a0       ?growAndPushBack@?$PxArray@PEAVPxParticleBuffer@physx@@V?$PxReflectionAllocator@PEAVPxParticleBuffer@physx@@@2@@physx@@IEAAAEAPEAVPxParticleBuffer@2@AEBQEAV32@@Z 000000018004b9a0 f i NpFactory.obj
 0001:0004aa60       ?growAndPushBack@?$PxArray@PEAXV?$PxReflectionAllocator@V?$PtrBlock@$03@NpPtrTableStorageManager@physx@@@physx@@@physx@@IEAAAEAPEAXAEBQEAX@Z 000000018004ba60 f i NpFactory.obj
 0001:0004ab20       ?growAndPushBack@?$PxArray@PEAXV?$PxReflectionAllocator@V?$PtrBlock@$0BA@@NpPtrTableStorageManager@physx@@@physx@@@physx@@IEAAAEAPEAXAEBQEAX@Z 000000018004bb20 f i NpFactory.obj
 0001:0004abe0       ?growAndPushBack@?$PxArray@PEAXV?$PxReflectionAllocator@V?$PtrBlock@$0EA@@NpPtrTableStorageManager@physx@@@physx@@@physx@@IEAAAEAPEAXAEBQEAX@Z 000000018004bbe0 f i NpFactory.obj
 0001:0004aca0       ?growAndPushBack@?$PxArray@PEAXV?$PxReflectionAllocator@VNpAggregate@physx@@@physx@@@physx@@IEAAAEAPEAXAEBQEAX@Z 000000018004bca0 f i NpFactory.obj
 0001:0004ad60       ?growAndPushBack@?$PxArray@PEAXV?$PxReflectionAllocator@VNpArticulationJointReducedCoordinate@physx@@@physx@@@physx@@IEAAAEAPEAXAEBQEAX@Z 000000018004bd60 f i NpFactory.obj
 0001:0004ae20       ?growAndPushBack@?$PxArray@PEAXV?$PxReflectionAllocator@VNpArticulationLink@physx@@@physx@@@physx@@IEAAAEAPEAXAEBQEAX@Z 000000018004be20 f i NpFactory.obj
 0001:0004aee0       ?growAndPushBack@?$PxArray@PEAXV?$PxReflectionAllocator@VNpArticulationReducedCoordinate@physx@@@physx@@@physx@@IEAAAEAPEAXAEBQEAX@Z 000000018004bee0 f i NpFactory.obj
 0001:0004afa0       ?growAndPushBack@?$PxArray@PEAXV?$PxReflectionAllocator@VNpConnectorArray@physx@@@physx@@@physx@@IEAAAEAPEAXAEBQEAX@Z 000000018004bfa0 f i NpFactory.obj
 0001:0004b060       ?growAndPushBack@?$PxArray@PEAXV?$PxReflectionAllocator@VNpConstraint@physx@@@physx@@@physx@@IEAAAEAPEAXAEBQEAX@Z 000000018004c060 f i NpFactory.obj
 0001:0004b120       ?growAndPushBack@?$PxArray@PEAXV?$PxReflectionAllocator@VNpFEMSoftBodyMaterial@physx@@@physx@@@physx@@IEAAAEAPEAXAEBQEAX@Z 000000018004c120 f i NpFactory.obj
 0001:0004b1e0       ?growAndPushBack@?$PxArray@PEAXV?$PxReflectionAllocator@VNpMaterial@physx@@@physx@@@physx@@IEAAAEAPEAXAEBQEAX@Z 000000018004c1e0 f i NpFactory.obj
 0001:0004b2a0       ?growAndPushBack@?$PxArray@PEAXV?$PxReflectionAllocator@VNpPBDMaterial@physx@@@physx@@@physx@@IEAAAEAPEAXAEBQEAX@Z 000000018004c2a0 f i NpFactory.obj
 0001:0004b360       ?growAndPushBack@?$PxArray@PEAXV?$PxReflectionAllocator@VNpPBDParticleSystem@physx@@@physx@@@physx@@IEAAAEAPEAXAEBQEAX@Z 000000018004c360 f i NpFactory.obj
 0001:0004b420       ?growAndPushBack@?$PxArray@PEAXV?$PxReflectionAllocator@VNpRigidDynamic@physx@@@physx@@@physx@@IEAAAEAPEAXAEBQEAX@Z 000000018004c420 f i NpFactory.obj
 0001:0004b4e0       ?growAndPushBack@?$PxArray@PEAXV?$PxReflectionAllocator@VNpRigidStatic@physx@@@physx@@@physx@@IEAAAEAPEAXAEBQEAX@Z 000000018004c4e0 f i NpFactory.obj
 0001:0004b5a0       ?growAndPushBack@?$PxArray@PEAXV?$PxReflectionAllocator@VNpShape@physx@@@physx@@@physx@@IEAAAEAPEAXAEBQEAX@Z 000000018004c5a0 f i NpFactory.obj
 0001:0004b660       ?growAndPushBack@?$PxArray@PEAXV?$PxReflectionAllocator@VNpSoftBody@physx@@@physx@@@physx@@IEAAAEAPEAXAEBQEAX@Z 000000018004c660 f i NpFactory.obj
 0001:0004b720       ?onActorRelease@NpFactory@physx@@QEAAXPEAVPxActor@2@@Z 000000018004c720 f   NpFactory.obj
 0001:0004b850       ?onAggregateRelease@NpFactory@physx@@QEAAXPEAVPxAggregate@2@@Z 000000018004c850 f   NpFactory.obj
 0001:0004b980       ?onArticulationRelease@NpFactory@physx@@QEAAXPEAVPxArticulationReducedCoordinate@2@@Z 000000018004c980 f   NpFactory.obj
 0001:0004bab0       ?onConstraintRelease@NpFactory@physx@@QEAAXPEAVPxConstraint@2@@Z 000000018004cab0 f   NpFactory.obj
 0001:0004bbd0       ?onParticleBufferRelease@NpFactory@physx@@SAXPEAVPxParticleBuffer@2@@Z 000000018004cbd0 f   NpFactory.obj
 0001:0004bd00       ?onShapeRelease@NpFactory@physx@@QEAAXPEAVPxShape@2@@Z 000000018004cd00 f   NpFactory.obj
 0001:0004bd40       ?recreate@?$PxArray@GV?$PxInlineAllocator@$07V?$PxReflectionAllocator@G@physx@@@physx@@@physx@@IEAAXI@Z 000000018004cd40 f i NpFactory.obj
 0001:0004bde0       ?recreate@?$PxArray@PEAVPxAggregate@physx@@V?$PxReflectionAllocator@PEAVPxAggregate@physx@@@2@@physx@@IEAAXI@Z 000000018004cde0 f i NpFactory.obj
 0001:0004be80       ?recreate@?$PxArray@PEAVPxConstraint@physx@@V?$PxReflectionAllocator@PEAVPxConstraint@physx@@@2@@physx@@IEAAXI@Z 000000018004ce80 f i NpFactory.obj
 0001:0004bf20       ?recreate@?$PxArray@PEAVPxParticleBuffer@physx@@V?$PxReflectionAllocator@PEAVPxParticleBuffer@physx@@@2@@physx@@IEAAXI@Z 000000018004cf20 f i NpFactory.obj
 0001:0004bfc0       ?recreate@?$PxArray@PEAXV?$PxReflectionAllocator@V?$PtrBlock@$03@NpPtrTableStorageManager@physx@@@physx@@@physx@@IEAAXI@Z 000000018004cfc0 f i NpFactory.obj
 0001:0004c060       ?recreate@?$PxArray@PEAXV?$PxReflectionAllocator@V?$PtrBlock@$0BA@@NpPtrTableStorageManager@physx@@@physx@@@physx@@IEAAXI@Z 000000018004d060 f i NpFactory.obj
 0001:0004c100       ?recreate@?$PxArray@PEAXV?$PxReflectionAllocator@V?$PtrBlock@$0EA@@NpPtrTableStorageManager@physx@@@physx@@@physx@@IEAAXI@Z 000000018004d100 f i NpFactory.obj
 0001:0004c1a0       ?recreate@?$PxArray@PEAXV?$PxReflectionAllocator@VNpAggregate@physx@@@physx@@@physx@@IEAAXI@Z 000000018004d1a0 f i NpFactory.obj
 0001:0004c240       ?recreate@?$PxArray@PEAXV?$PxReflectionAllocator@VNpArticulationJointReducedCoordinate@physx@@@physx@@@physx@@IEAAXI@Z 000000018004d240 f i NpFactory.obj
 0001:0004c2e0       ?recreate@?$PxArray@PEAXV?$PxReflectionAllocator@VNpArticulationLink@physx@@@physx@@@physx@@IEAAXI@Z 000000018004d2e0 f i NpFactory.obj
 0001:0004c380       ?recreate@?$PxArray@PEAXV?$PxReflectionAllocator@VNpArticulationReducedCoordinate@physx@@@physx@@@physx@@IEAAXI@Z 000000018004d380 f i NpFactory.obj
 0001:0004c420       ?recreate@?$PxArray@PEAXV?$PxReflectionAllocator@VNpConnectorArray@physx@@@physx@@@physx@@IEAAXI@Z 000000018004d420 f i NpFactory.obj
 0001:0004c4c0       ?recreate@?$PxArray@PEAXV?$PxReflectionAllocator@VNpConstraint@physx@@@physx@@@physx@@IEAAXI@Z 000000018004d4c0 f i NpFactory.obj
 0001:0004c560       ?recreate@?$PxArray@PEAXV?$PxReflectionAllocator@VNpFEMSoftBodyMaterial@physx@@@physx@@@physx@@IEAAXI@Z 000000018004d560 f i NpFactory.obj
 0001:0004c600       ?recreate@?$PxArray@PEAXV?$PxReflectionAllocator@VNpMaterial@physx@@@physx@@@physx@@IEAAXI@Z 000000018004d600 f i NpFactory.obj
 0001:0004c6a0       ?recreate@?$PxArray@PEAXV?$PxReflectionAllocator@VNpPBDMaterial@physx@@@physx@@@physx@@IEAAXI@Z 000000018004d6a0 f i NpFactory.obj
 0001:0004c740       ?recreate@?$PxArray@PEAXV?$PxReflectionAllocator@VNpPBDParticleSystem@physx@@@physx@@@physx@@IEAAXI@Z 000000018004d740 f i NpFactory.obj
 0001:0004c7e0       ?recreate@?$PxArray@PEAXV?$PxReflectionAllocator@VNpRigidDynamic@physx@@@physx@@@physx@@IEAAXI@Z 000000018004d7e0 f i NpFactory.obj
 0001:0004c880       ?recreate@?$PxArray@PEAXV?$PxReflectionAllocator@VNpRigidStatic@physx@@@physx@@@physx@@IEAAXI@Z 000000018004d880 f i NpFactory.obj
 0001:0004c920       ?recreate@?$PxArray@PEAXV?$PxReflectionAllocator@VNpShape@physx@@@physx@@@physx@@IEAAXI@Z 000000018004d920 f i NpFactory.obj
 0001:0004c9c0       ?recreate@?$PxArray@PEAXV?$PxReflectionAllocator@VNpSoftBody@physx@@@physx@@@physx@@IEAAXI@Z 000000018004d9c0 f i NpFactory.obj
 0001:0004ca60       ?releaseConnectorArray@NpFactory@physx@@QEAAXPEAVNpConnectorArray@2@@Z 000000018004da60 f   NpFactory.obj
 0001:0004caf0       ?releaseFEMMaterialToPool@NpFactory@physx@@QEAAXAEAVPxFEMSoftBodyMaterial@2@@Z 000000018004daf0 f   NpFactory.obj
 0001:0004cb50       ?releaseMaterialToPool@NpFactory@physx@@QEAAXAEAVNpMaterial@2@@Z 000000018004db50 f   NpFactory.obj
 0001:0004cbb0       ?releasePBDMaterialToPool@NpFactory@physx@@QEAAXAEAVPxPBDMaterial@2@@Z 000000018004dbb0 f   NpFactory.obj
 0001:0004cc10       ?reserveInternal@?$PxHashBase@PEAVPxAggregate@physx@@PEAV12@U?$PxHash@PEAVPxAggregate@physx@@@2@UGetKey@?$PxHashSetBase@PEAVPxAggregate@physx@@U?$PxHash@PEAVPxAggregate@physx@@@2@VPxAllocator@2@$00@2@VPxAllocator@2@$00@physx@@AEAAXI@Z 000000018004dc10 f i NpScene.obj
 0001:0004cc10       ?reserveInternal@?$PxHashBase@PEAVPxArticulationReducedCoordinate@physx@@PEAV12@U?$PxHash@PEAVPxArticulationReducedCoordinate@physx@@@2@UGetKey@?$PxHashSetBase@PEAVPxArticulationReducedCoordinate@physx@@U?$PxHash@PEAVPxArticulationReducedCoordinate@physx@@@2@VPxAllocator@2@$00@2@VPxAllocator@2@$00@physx@@AEAAXI@Z 000000018004dc10 f i NpScene.obj
 0001:0004cc10       ?reserveInternal@?$PxHashBase@PEAVPxFEMCloth@physx@@PEAV12@U?$PxHash@PEAVPxFEMCloth@physx@@@2@UGetKey@?$PxHashSetBase@PEAVPxFEMCloth@physx@@U?$PxHash@PEAVPxFEMCloth@physx@@@2@VPxAllocator@2@$00@2@VPxAllocator@2@$00@physx@@AEAAXI@Z 000000018004dc10 f i NpScene.obj
 0001:0004cc10       ?reserveInternal@?$PxHashBase@PEAVPxFLIPParticleSystem@physx@@PEAV12@U?$PxHash@PEAVPxFLIPParticleSystem@physx@@@2@UGetKey@?$PxHashSetBase@PEAVPxFLIPParticleSystem@physx@@U?$PxHash@PEAVPxFLIPParticleSystem@physx@@@2@VPxAllocator@2@$00@2@VPxAllocator@2@$00@physx@@AEAAXI@Z 000000018004dc10 f i NpScene.obj
 0001:0004cc10       ?reserveInternal@?$PxHashBase@PEAVPxHairSystem@physx@@PEAV12@U?$PxHash@PEAVPxHairSystem@physx@@@2@UGetKey@?$PxHashSetBase@PEAVPxHairSystem@physx@@U?$PxHash@PEAVPxHairSystem@physx@@@2@VPxAllocator@2@$00@2@VPxAllocator@2@$00@physx@@AEAAXI@Z 000000018004dc10 f i NpScene.obj
 0001:0004cc10       ?reserveInternal@?$PxHashBase@PEAVPxMPMParticleSystem@physx@@PEAV12@U?$PxHash@PEAVPxMPMParticleSystem@physx@@@2@UGetKey@?$PxHashSetBase@PEAVPxMPMParticleSystem@physx@@U?$PxHash@PEAVPxMPMParticleSystem@physx@@@2@VPxAllocator@2@$00@2@VPxAllocator@2@$00@physx@@AEAAXI@Z 000000018004dc10 f i NpScene.obj
 0001:0004cc10       ?reserveInternal@?$PxHashBase@PEAVPxPBDParticleSystem@physx@@PEAV12@U?$PxHash@PEAVPxPBDParticleSystem@physx@@@2@UGetKey@?$PxHashSetBase@PEAVPxPBDParticleSystem@physx@@U?$PxHash@PEAVPxPBDParticleSystem@physx@@@2@VPxAllocator@2@$00@2@VPxAllocator@2@$00@physx@@AEAAXI@Z 000000018004dc10 f i NpScene.obj
 0001:0004cc10       ?reserveInternal@?$PxHashBase@PEAVPxShape@physx@@PEAV12@U?$PxHash@PEAVPxShape@physx@@@2@UGetKey@?$PxHashSetBase@PEAVPxShape@physx@@U?$PxHash@PEAVPxShape@physx@@@2@VPxAllocator@2@$00@2@VPxAllocator@2@$00@physx@@AEAAXI@Z 000000018004dc10 f i NpFactory.obj
 0001:0004cc10       ?reserveInternal@?$PxHashBase@PEAVPxSoftBody@physx@@PEAV12@U?$PxHash@PEAVPxSoftBody@physx@@@2@UGetKey@?$PxHashSetBase@PEAVPxSoftBody@physx@@U?$PxHash@PEAVPxSoftBody@physx@@@2@VPxAllocator@2@$00@2@VPxAllocator@2@$00@physx@@AEAAXI@Z 000000018004dc10 f i NpScene.obj
 0001:0004cde0       ?resize@?$PxArray@GV?$PxInlineAllocator@$07V?$PxReflectionAllocator@G@physx@@@physx@@@physx@@QEAAXIAEBG@Z 000000018004dde0 f i NpFactory.obj
 0001:0004cea0       ?setNpFactoryListener@NpFactory@physx@@QEAAXAEAVNpFactoryListener@2@@Z 000000018004dea0 f   NpFactory.obj
 0001:0004ceb0       ?getBinaryMetaData@NpAggregate@physx@@SAXAEAVPxOutputStream@2@@Z 000000018004deb0 f   NpMetaData.obj
 0001:0004d1b0       ?getBinaryMetaData@NpArticulationAttachment@physx@@SAXAEAVPxOutputStream@2@@Z 000000018004e1b0 f   NpMetaData.obj
 0001:0004d480       ?getBinaryMetaData@NpArticulationAttachmentArray@physx@@SAXAEAVPxOutputStream@2@@Z 000000018004e480 f   NpMetaData.obj
 0001:0004d6b0       ?getBinaryMetaData@NpArticulationFixedTendon@physx@@SAXAEAVPxOutputStream@2@@Z 000000018004e6b0 f   NpMetaData.obj
 0001:0004d910       ?getBinaryMetaData@NpArticulationLink@physx@@SAXAEAVPxOutputStream@2@@Z 000000018004e910 f   NpMetaData.obj
 0001:0004dca0       ?getBinaryMetaData@NpArticulationLinkArray@physx@@SAXAEAVPxOutputStream@2@@Z 000000018004eca0 f   NpMetaData.obj
 0001:0004ded0       ?getBinaryMetaData@NpArticulationReducedCoordinate@physx@@SAXAEAVPxOutputStream@2@@Z 000000018004eed0 f   NpMetaData.obj
 0001:0004e740       ?getBinaryMetaData@NpArticulationSpatialTendon@physx@@SAXAEAVPxOutputStream@2@@Z 000000018004f740 f   NpMetaData.obj
 0001:0004e9a0       ?getBinaryMetaData@NpArticulationTendonJoint@physx@@SAXAEAVPxOutputStream@2@@Z 000000018004f9a0 f   NpMetaData.obj
 0001:0004ec50       ?getBinaryMetaData@NpArticulationTendonJointArray@physx@@SAXAEAVPxOutputStream@2@@Z 000000018004fc50 f   NpMetaData.obj
 0001:0004ee80       ?getBinaryMetaData@NpConnectorArray@physx@@SAXAEAVPxOutputStream@2@@Z 000000018004fe80 f   NpMetaData.obj
 0001:0004f0b0       ?getBinaryMetaData@NpRigidDynamic@physx@@SAXAEAVPxOutputStream@2@@Z 00000001800500b0 f   NpMetaData.obj
 0001:0004f2c0       ?getBinaryMetaData@NpRigidStatic@physx@@SAXAEAVPxOutputStream@2@@Z 00000001800502c0 f   NpMetaData.obj
 0001:00050300       PxGetPhysicsBinaryMetaData 0000000180051300 f   NpMetaData.obj
 0001:000511d0       ??0NpPhysics@physx@@IEAA@AEBVPxTolerancesScale@1@AEBUPxvOffsetTable@1@_NPEAVPsPvd@pvdsdk@1@AEAVPxFoundation@1@PEAVPxOmniPvd@1@@Z 00000001800521d0 f   NpPhysics.obj
 0001:00051670       ??1NpPhysics@physx@@MEAA@XZ 0000000180052670 f   NpPhysics.obj
 0001:00051c60       ??_ENpPhysics@physx@@MEAAPEAXI@Z 0000000180052c60 f i NpPhysics.obj
 0001:00051c60       ??_GNpPhysics@physx@@MEAAPEAXI@Z 0000000180052c60 f i NpPhysics.obj
 0001:00051cd0       ??_ECmEventNameProvider@pvdsdk@physx@@UEAAPEAXI@Z 0000000180052cd0 f i PhysXPvdSDK_static_64:PxPvdImpl.obj
 0001:00051cd0       ??_ENpPhysicsInsertionCallback@physx@@UEAAPEAXI@Z 0000000180052cd0 f i NpPhysics.obj
 0001:00051cd0       ??_EPxInsertionCallback@physx@@MEAAPEAXI@Z 0000000180052cd0 f i NpPhysics.obj
 0001:00051cd0       ??_EPxProfileNameProvider@profile@physx@@MEAAPEAXI@Z 0000000180052cd0 f i PhysXPvdSDK_static_64:PxPvdImpl.obj
 0001:00051cd0       ??_ESqBoundsSync@Sc@physx@@UEAAPEAXI@Z 0000000180052cd0 f i NpSceneQueries.obj
 0001:00051cd0       ??_ESqRefFinder@Sc@physx@@UEAAPEAXI@Z 0000000180052cd0 f i NpSceneQueries.obj
 0001:00051cd0       ??_GCmEventNameProvider@pvdsdk@physx@@UEAAPEAXI@Z 0000000180052cd0 f i PhysXPvdSDK_static_64:PxPvdImpl.obj
 0001:00051cd0       ??_GNpPhysicsInsertionCallback@physx@@UEAAPEAXI@Z 0000000180052cd0 f i NpPhysics.obj
 0001:00051cd0       ??_GPxInsertionCallback@physx@@MEAAPEAXI@Z 0000000180052cd0 f i NpPhysics.obj
 0001:00051cd0       ??_GPxProfileNameProvider@profile@physx@@MEAAPEAXI@Z 0000000180052cd0 f i PhysXPvdSDK_static_64:PxPvdImpl.obj
 0001:00051cd0       ??_GSqBoundsSync@Sc@physx@@UEAAPEAXI@Z 0000000180052cd0 f i NpSceneQueries.obj
 0001:00051cd0       ??_GSqRefFinder@Sc@physx@@UEAAPEAXI@Z 0000000180052cd0 f i NpSceneQueries.obj
 0001:00051d00       ??_EPxPhysics@physx@@UEAAPEAXI@Z 0000000180052d00 f i NpPhysics.obj
 0001:00051d00       ??_GPxPhysics@physx@@UEAAPEAXI@Z 0000000180052d00 f i NpPhysics.obj
 0001:00051d30       ?addMaterial@NpPhysics@physx@@QEAAPEAVNpFEMSoftBodyMaterial@2@PEAV32@@Z 0000000180052d30 f   NpPhysics.obj
 0001:00051e30       ?addMaterial@NpPhysics@physx@@QEAAPEAVNpMaterial@2@PEAV32@@Z 0000000180052e30 f   NpPhysics.obj
 0001:00051f30       ?buildObjectFromData@NpPhysicsInsertionCallback@physx@@UEAAPEAVPxBase@2@W4Enum@PxConcreteType@2@PEAX@Z 0000000180052f30 f i NpPhysics.obj
 0001:00052010       ?createAggregate@NpPhysics@physx@@UEAAPEAVPxAggregate@2@III@Z 0000000180053010 f   NpPhysics.obj
 0001:00052020       ?createArticulationReducedCoordinate@NpPhysics@physx@@UEAAPEAVPxArticulationReducedCoordinate@2@XZ 0000000180053020 f   NpPhysics.obj
 0001:00052030       ?createBVH@NpPhysics@physx@@UEAAPEAVPxBVH@2@AEAVPxInputStream@2@@Z 0000000180053030 f   NpPhysics.obj
 0001:00052040       ?createConstraint@NpPhysics@physx@@UEAAPEAVPxConstraint@2@PEAVPxRigidActor@2@0AEAVPxConstraintConnector@2@AEBUPxConstraintShaderTable@2@I@Z 0000000180053040 f   NpPhysics.obj
 0001:00052050       ?createConvexMesh@NpPhysics@physx@@UEAAPEAVPxConvexMesh@2@AEAVPxInputStream@2@@Z 0000000180053050 f   NpPhysics.obj
 0001:00052060       ?createFEMSoftBodyMaterial@NpPhysics@physx@@UEAAPEAVPxFEMSoftBodyMaterial@2@MMM@Z 0000000180053060 f   NpPhysics.obj
 0001:00052170       ?createHeightField@NpPhysics@physx@@UEAAPEAVPxHeightField@2@AEAVPxInputStream@2@@Z 0000000180053170 f   NpPhysics.obj
 0001:00052180       ?createInstance@NpPhysics@physx@@SAPEAV12@IAEAVPxFoundation@2@AEBVPxTolerancesScale@2@_NPEAVPsPvd@pvdsdk@2@PEAVPxOmniPvd@2@@Z 0000000180053180 f   NpPhysics.obj
 0001:00052470       ?createMaterial@NpPhysics@physx@@UEAAPEAVPxMaterial@2@MMM@Z 0000000180053470 f   NpPhysics.obj
 0001:00052580       ?createPBDMaterial@NpPhysics@physx@@UEAAPEAVPxPBDMaterial@2@MMMMMMMMMMM@Z 0000000180053580 f   NpPhysics.obj
 0001:00052720       ?createPBDParticleSystem@NpPhysics@physx@@UEAAPEAVPxPBDParticleSystem@2@AEAVPxCudaContextManager@2@I@Z 0000000180053720 f   NpPhysics.obj
 0001:00052740       ?createParticleAndDiffuseBuffer@NpPhysics@physx@@UEAAPEAVPxParticleAndDiffuseBuffer@2@IIIPEAVPxCudaContextManager@2@@Z 0000000180053740 f   NpPhysics.obj
 0001:00052750       ?createParticleBuffer@NpPhysics@physx@@UEAAPEAVPxParticleBuffer@2@IIPEAVPxCudaContextManager@2@@Z 0000000180053750 f   NpPhysics.obj
 0001:00052760       ?createParticleClothBuffer@NpPhysics@physx@@UEAAPEAVPxParticleClothBuffer@2@IIIIIPEAVPxCudaContextManager@2@@Z 0000000180053760 f   NpPhysics.obj
 0001:00052770       ?createParticleRigidBuffer@NpPhysics@physx@@UEAAPEAVPxParticleRigidBuffer@2@IIIPEAVPxCudaContextManager@2@@Z 0000000180053770 f   NpPhysics.obj
 0001:00052780       ?createPruningStructure@NpPhysics@physx@@UEAAPEAVPxPruningStructure@2@PEBQEAVPxRigidActor@2@I@Z 0000000180053780 f   NpPhysics.obj
 0001:00052870       ?createRigidDynamic@NpPhysics@physx@@UEAAPEAVPxRigidDynamic@2@AEBV?$PxTransformT@M@2@@Z 0000000180053870 f   NpPhysics.obj
 0001:00052930       ?createRigidStatic@NpPhysics@physx@@UEAAPEAVPxRigidStatic@2@AEBV?$PxTransformT@M@2@@Z 0000000180053930 f   NpPhysics.obj
 0001:000529f0       ?createScene@NpPhysics@physx@@UEAAPEAVPxScene@2@AEBVPxSceneDesc@2@@Z 00000001800539f0 f   NpPhysics.obj
 0001:00052bd0       ?createShape@NpPhysics@physx@@UEAAPEAVPxShape@2@AEBVPxGeometry@2@PEBQEAVPxFEMSoftBodyMaterial@2@G_NV?$PxFlags@W4Enum@PxShapeFlag@physx@@E@2@@Z 0000000180053bd0 f   NpPhysics.obj
 0001:00052c10       ?createShape@NpPhysics@physx@@UEAAPEAVPxShape@2@AEBVPxGeometry@2@PEBQEAVPxMaterial@2@G_NV?$PxFlags@W4Enum@PxShapeFlag@physx@@E@2@@Z 0000000180053c10 f   NpPhysics.obj
 0001:00052c50       ?createSoftBody@NpPhysics@physx@@UEAAPEAVPxSoftBody@2@AEAVPxCudaContextManager@2@@Z 0000000180053c50 f   NpPhysics.obj
 0001:00052c60       ?createSoftBodyMesh@NpPhysics@physx@@UEAAPEAVPxSoftBodyMesh@2@AEAVPxInputStream@2@@Z 0000000180053c60 f   NpPhysics.obj
 0001:00052c70       ?createTetrahedronMesh@NpPhysics@physx@@UEAAPEAVPxTetrahedronMesh@2@AEAVPxInputStream@2@@Z 0000000180053c70 f   NpPhysics.obj
 0001:00052c80       ?createTriangleMesh@NpPhysics@physx@@UEAAPEAVPxTriangleMesh@2@AEAVPxInputStream@2@@Z 0000000180053c80 f   NpPhysics.obj
 0001:00052c90       ?getBVHs@NpPhysics@physx@@UEBAIPEAPEAVPxBVH@2@II@Z 0000000180053c90 f   NpPhysics.obj
 0001:00052ca0       ?getConvexMeshes@NpPhysics@physx@@UEBAIPEAPEAVPxConvexMesh@2@II@Z 0000000180053ca0 f   NpPhysics.obj
 0001:00052cb0       ?getFEMSoftBodyMaterials@NpPhysics@physx@@UEBAIPEAPEAVPxFEMSoftBodyMaterial@2@II@Z 0000000180053cb0 f   NpPhysics.obj
 0001:00052d70       ?getHeightFields@NpPhysics@physx@@UEBAIPEAPEAVPxHeightField@2@II@Z 0000000180053d70 f   NpPhysics.obj
 0001:00052d80       ?getMaterials@NpPhysics@physx@@UEBAIPEAPEAVPxMaterial@2@II@Z 0000000180053d80 f   NpPhysics.obj
 0001:00052e40       ?getNbBVHs@NpPhysics@physx@@UEBAIXZ 0000000180053e40 f   NpPhysics.obj
 0001:00052e50       ?getNbConvexMeshes@NpPhysics@physx@@UEBAIXZ 0000000180053e50 f   NpPhysics.obj
 0001:00052e60       ?getNbFEMSoftBodyMaterials@NpPhysics@physx@@UEBAIXZ 0000000180053e60 f   NpPhysics.obj
 0001:00052ea0       ?getNbHeightFields@NpPhysics@physx@@UEBAIXZ 0000000180053ea0 f   NpPhysics.obj
 0001:00052eb0       ?getNbMaterials@NpPhysics@physx@@UEBAIXZ 0000000180053eb0 f   NpPhysics.obj
 0001:00052ef0       ?getNbPBDMaterials@NpPhysics@physx@@UEBAIXZ 0000000180053ef0 f   NpPhysics.obj
 0001:00052f30       ?getNbScenes@NpPhysics@physx@@UEBAIXZ 0000000180053f30 f   NpPhysics.obj
 0001:00052f70       ?getNbShapes@NpPhysics@physx@@UEBAIXZ 0000000180053f70 f   NpPhysics.obj
 0001:00052f80       ?getNbTetrahedronMeshes@NpPhysics@physx@@UEBAIXZ 0000000180053f80 f   NpPhysics.obj
 0001:00052f90       ?getNbTriangleMeshes@NpPhysics@physx@@UEBAIXZ 0000000180053f90 f   NpPhysics.obj
 0001:00052fa0       ?getPBDMaterials@NpPhysics@physx@@UEBAIPEAPEAVPxPBDMaterial@2@II@Z 0000000180053fa0 f   NpPhysics.obj
 0001:00053060       ?getPhysicsInsertionCallback@NpPhysics@physx@@UEAAAEAVPxInsertionCallback@2@XZ 0000000180054060 f i NpPhysics.obj
 0001:00053070       ?getScenes@NpPhysics@physx@@UEBAIPEAPEAVPxScene@2@II@Z 0000000180054070 f   NpPhysics.obj
 0001:00053100       ?getShapes@NpPhysics@physx@@UEBAIPEAPEAVPxShape@2@II@Z 0000000180054100 f   NpPhysics.obj
 0001:00053110       ?getTetrahedronMeshes@NpPhysics@physx@@UEBAIPEAPEAVPxTetrahedronMesh@2@II@Z 0000000180054110 f   NpPhysics.obj
 0001:00053120       ?getTolerancesScale@NpPhysics@physx@@UEBAAEBVPxTolerancesScale@2@XZ 0000000180054120 f   NpPhysics.obj
 0001:00053130       ?getTriangleMeshes@NpPhysics@physx@@UEBAIPEAPEAVPxTriangleMesh@2@II@Z 0000000180054130 f   NpPhysics.obj
 0001:00053140       ?growAndPushBack@?$PxArray@PEAVNpScene@physx@@V?$PxReflectionAllocator@PEAVNpScene@physx@@@2@@physx@@IEAAAEAPEAVNpScene@2@AEBQEAV32@@Z 0000000180054140 f i NpPhysics.obj
 0001:00053260       ?notifyDeletionListeners@NpPhysics@physx@@QEAAXPEBVPxBase@2@PEAXW4Enum@PxDeletionEventFlag@2@@Z 0000000180054260 f   NpPhysics.obj
 0001:000533c0       ?onMeshFactoryBufferRelease@MeshDeletionListener@NpPhysics@physx@@UEAAXPEBVPxBase@3@G@Z 00000001800543c0 f i NpPhysics.obj
 0001:00053510       ?onObjectAdd@OmniPvdListener@NpPhysics@physx@@UEAAXPEBVPxBase@3@@Z 0000000180054510 f   NpPhysics.obj
 0001:00053530       ?onObjectRemove@OmniPvdListener@NpPhysics@physx@@UEAAXPEBVPxBase@3@@Z 0000000180054530 f   NpPhysics.obj
 0001:00053550       ?registerDeletionListener@NpPhysics@physx@@UEAAXAEAVPxDeletionListener@2@AEBV?$PxFlags@W4Enum@PxDeletionEventFlag@physx@@E@2@_N@Z 0000000180054550 f   NpPhysics.obj
 0001:00053750       ?registerDeletionListenerObjects@NpPhysics@physx@@UEAAXAEAVPxDeletionListener@2@PEBQEBVPxBase@2@I@Z 0000000180054750 f   NpPhysics.obj
 0001:000538a0       ?release@NpPhysics@physx@@UEAAXXZ 00000001800548a0 f   NpPhysics.obj
 0001:00053910       ?releaseSceneInternal@NpPhysics@physx@@QEAAXAEAVPxScene@2@@Z 0000000180054910 f   NpPhysics.obj
 0001:000539b0       ?removeMaterialFromTable@NpPhysics@physx@@QEAAXAEAVNpFEMSoftBodyMaterial@2@@Z 00000001800549b0 f   NpPhysics.obj
 0001:00053aa0       ?removeMaterialFromTable@NpPhysics@physx@@QEAAXAEAVNpMaterial@2@@Z 0000000180054aa0 f   NpPhysics.obj
 0001:00053b90       ?removeMaterialFromTable@NpPhysics@physx@@QEAAXAEAVNpPBDMaterial@2@@Z 0000000180054b90 f   NpPhysics.obj
 0001:00053c90       ?sendMaterialTable@NpPhysics@physx@@QEAA_NAEAVNpScene@2@@Z 0000000180054c90 f   NpPhysics.obj
 0001:00053da0       ?setMaterial@?$NpMaterialManager@VNpFEMSoftBodyMaterial@physx@@@physx@@QEAA_NAEAVNpFEMSoftBodyMaterial@2@@Z 0000000180054da0 f i NpPhysics.obj
 0001:00053ee0       ?setMaterial@?$NpMaterialManager@VNpMaterial@physx@@@physx@@QEAA_NAEAVNpMaterial@2@@Z 0000000180054ee0 f i NpPhysics.obj
 0001:00054020       ?setMaterial@?$NpMaterialManager@VNpPBDMaterial@physx@@@physx@@QEAA_NAEAVNpPBDMaterial@2@@Z 0000000180055020 f i NpPhysics.obj
 0001:00054160       ?unregisterDeletionListener@NpPhysics@physx@@UEAAXAEAVPxDeletionListener@2@@Z 0000000180055160 f   NpPhysics.obj
 0001:000542b0       ?unregisterDeletionListenerObjects@NpPhysics@physx@@UEAAXAEAVPxDeletionListener@2@PEBQEBVPxBase@2@I@Z 00000001800552b0 f   NpPhysics.obj
 0001:000544b0       ?updateMaterial@NpPhysics@physx@@QEAAXAEAVNpFEMSoftBodyMaterial@2@@Z 00000001800554b0 f   NpPhysics.obj
 0001:00054540       ?updateMaterial@NpPhysics@physx@@QEAAXAEAVNpMaterial@2@@Z 0000000180055540 f   NpPhysics.obj
 0001:000545d0       ?updateMaterial@NpPhysics@physx@@QEAAXAEAVNpPBDMaterial@2@@Z 00000001800555d0 f   NpPhysics.obj
 0001:00054660       PxAddCollectionToPhysics   0000000180055660 f   NpPhysics.obj
 0001:00054670       PxCreatePhysics            0000000180055670 f   NpPhysics.obj
 0001:00054680       PxGetPhysics               0000000180055680 f   NpPhysics.obj
 0001:00054b00       ??0PruningStructure@Sq@physx@@QEAA@XZ 0000000180055b00 f   NpPruningStructure.obj
 0001:00054b50       ??_EPruningStructure@Sq@physx@@UEAAPEAXI@Z 0000000180055b50 f i NpPruningStructure.obj
 0001:00054b50       ??_GPruningStructure@Sq@physx@@UEAAPEAXI@Z 0000000180055b50 f i NpPruningStructure.obj
 0001:00054c60       ?build@PruningStructure@Sq@physx@@QEAA_NPEBQEAVPxRigidActor@3@I@Z 0000000180055c60 f   NpPruningStructure.obj
 0001:000552b0       ?createObject@PruningStructure@Sq@physx@@SAPEAV123@AEAPEAEAEAVPxDeserializationContext@3@@Z 00000001800562b0 f   NpPruningStructure.obj
 0001:000553f0       ?exportExtraData@PruningStructure@Sq@physx@@QEAAXAEAVPxSerializationContext@3@@Z 00000001800563f0 f   NpPruningStructure.obj
 0001:000554f0       ?getConcreteTypeName@PxPruningStructure@physx@@UEBAPEBDXZ 00000001800564f0 f i NpPruningStructure.obj
 0001:00055500       ?getDynamicMergeData@PruningStructure@Sq@physx@@UEBAPEBXXZ 0000000180056500 f   NpPruningStructure.obj
 0001:00055510       ?getRigidActors@PruningStructure@Sq@physx@@UEBAIPEAPEAVPxRigidActor@3@II@Z 0000000180056510 f   NpPruningStructure.obj
 0001:000555a0       ?getStaticMergeData@PruningStructure@Sq@physx@@UEBAPEBXXZ 00000001800565a0 f   NpPruningStructure.obj
 0001:000555b0       ?invalidate@PruningStructure@Sq@physx@@QEAAXPEAVPxActor@3@@Z 00000001800565b0 f   NpPruningStructure.obj
 0001:00055640       ?isKindOf@PxPruningStructure@physx@@MEBA_NPEBD@Z 0000000180056640 f i NpPruningStructure.obj
 0001:00055690       ?release@PruningStructure@Sq@physx@@UEAAXXZ 0000000180056690 f   NpPruningStructure.obj
 0001:000556f0       ?requiresObjects@PruningStructure@Sq@physx@@UEAAXAEAVPxProcessPxBaseCallback@3@@Z 00000001800566f0 f   NpPruningStructure.obj
 0001:00055740       ?resolveReferences@PruningStructure@Sq@physx@@UEAAXAEAVPxDeserializationContext@3@@Z 0000000180056740 f   NpPruningStructure.obj
 0001:00055830       ??0NpRigidDynamic@physx@@QEAA@AEBV?$PxTransformT@M@1@@Z 0000000180056830 f   NpRigidDynamic.obj
 0001:000558c0       ??_E?$NpActorTemplate@VPxRigidDynamic@physx@@@physx@@UEAAPEAXI@Z 00000001800568c0 f i NpRigidDynamic.obj
 0001:000558c0       ??_G?$NpActorTemplate@VPxRigidDynamic@physx@@@physx@@UEAAPEAXI@Z 00000001800568c0 f i NpRigidDynamic.obj
 0001:00055940       ??_E?$NpRigidActorTemplate@VPxRigidDynamic@physx@@@physx@@UEAAPEAXI@Z 0000000180056940 f i NpRigidDynamic.obj
 0001:00055940       ??_G?$NpRigidActorTemplate@VPxRigidDynamic@physx@@@physx@@UEAAPEAXI@Z 0000000180056940 f i NpRigidDynamic.obj
 0001:000559d0       ??_E?$NpRigidBodyTemplate@VPxRigidDynamic@physx@@@physx@@UEAAPEAXI@Z 00000001800569d0 f i NpRigidDynamic.obj
 0001:000559d0       ??_ENpRigidDynamic@physx@@UEAAPEAXI@Z 00000001800569d0 f i NpRigidDynamic.obj
 0001:000559d0       ??_G?$NpRigidBodyTemplate@VPxRigidDynamic@physx@@@physx@@UEAAPEAXI@Z 00000001800569d0 f i NpRigidDynamic.obj
 0001:000559d0       ??_GNpRigidDynamic@physx@@UEAAPEAXI@Z 00000001800569d0 f i NpRigidDynamic.obj
 0001:00055a70       ?NpArticulationGetShapes@physx@@YAIAEAVNpArticulationLink@1@AEAPEBQEAVNpShape@1@PEA_N@Z 0000000180056a70 f   NpArticulationLink.obj
 0001:00055a70       ?NpRigidDynamicGetShapes@physx@@YAIAEAVNpRigidDynamic@1@AEAPEBQEAVNpShape@1@PEA_N@Z 0000000180056a70 f   NpRigidDynamic.obj
 0001:00055aa0       ?addForce@NpRigidDynamic@physx@@UEAAXAEBV?$PxVec3T@M@2@W4Enum@PxForceMode@2@_N@Z 0000000180056aa0 f   NpRigidDynamic.obj
 0001:00055b80       ?addSpatialForce@?$NpRigidBodyTemplate@VPxRigidDynamic@physx@@@physx@@IEAAXPEBV?$PxVec3T@M@2@0W4Enum@PxForceMode@2@@Z 0000000180056b80 f i NpRigidDynamic.obj
 0001:00055de0       ?addTorque@NpRigidDynamic@physx@@UEAAXAEBV?$PxVec3T@M@2@W4Enum@PxForceMode@2@_N@Z 0000000180056de0 f   NpRigidDynamic.obj
 0001:00055ec0       ?attachShape@?$NpRigidActorTemplate@VPxArticulationLink@physx@@@physx@@UEAA_NAEAVPxShape@2@@Z 0000000180056ec0 f i NpArticulationLink.obj
 0001:00055ec0       ?attachShape@?$NpRigidActorTemplate@VPxRigidDynamic@physx@@@physx@@UEAA_NAEAVPxShape@2@@Z 0000000180056ec0 f i NpRigidDynamic.obj
 0001:00055ec0       ?attachShape@?$NpRigidActorTemplate@VPxRigidStatic@physx@@@physx@@UEAA_NAEAVPxShape@2@@Z 0000000180056ec0 f i NpRigidStatic.obj
 0001:00055ec0       ?attachShape@?$NpRigidBodyTemplate@VPxRigidDynamic@physx@@@physx@@UEAA_NAEAVPxShape@2@@Z 0000000180056ec0 f i NpRigidDynamic.obj
 0001:00055fe0       ?clearForce@NpRigidDynamic@physx@@UEAAXW4Enum@PxForceMode@2@@Z 0000000180056fe0 f   NpRigidDynamic.obj
 0001:000560d0       ?clearTorque@NpRigidDynamic@physx@@UEAAXW4Enum@PxForceMode@2@@Z 00000001800570d0 f   NpRigidDynamic.obj
 0001:000561c0       ?createObject@NpRigidDynamic@physx@@SAPEAV12@AEAPEAEAEAVPxDeserializationContext@2@@Z 00000001800571c0 f   NpRigidDynamic.obj
 0001:00056270       ?detachShape@?$NpRigidActorTemplate@VPxArticulationLink@physx@@@physx@@UEAAXAEAVPxShape@2@_N@Z 0000000180057270 f i NpArticulationLink.obj
 0001:00056270       ?detachShape@?$NpRigidActorTemplate@VPxRigidDynamic@physx@@@physx@@UEAAXAEAVPxShape@2@_N@Z 0000000180057270 f i NpRigidDynamic.obj
 0001:00056270       ?detachShape@?$NpRigidActorTemplate@VPxRigidStatic@physx@@@physx@@UEAAXAEAVPxShape@2@_N@Z 0000000180057270 f i NpRigidStatic.obj
 0001:00056370       ?exportExtraData@?$NpRigidActorTemplate@VPxArticulationLink@physx@@@physx@@UEAAXAEAVPxSerializationContext@2@@Z 0000000180057370 f i NpArticulationLink.obj
 0001:00056370       ?exportExtraData@?$NpRigidActorTemplate@VPxRigidDynamic@physx@@@physx@@UEAAXAEAVPxSerializationContext@2@@Z 0000000180057370 f i NpRigidDynamic.obj
 0001:00056370       ?exportExtraData@?$NpRigidActorTemplate@VPxRigidStatic@physx@@@physx@@UEAAXAEAVPxSerializationContext@2@@Z 0000000180057370 f i NpRigidStatic.obj
 0001:000563a0       ?getAngularDamping@?$NpRigidBodyTemplate@VPxArticulationLink@physx@@@physx@@UEBAMXZ 00000001800573a0 f i NpArticulationLink.obj
 0001:000563a0       ?getAngularDamping@?$NpRigidBodyTemplate@VPxRigidDynamic@physx@@@physx@@UEBAMXZ 00000001800573a0 f i NpRigidDynamic.obj
 0001:000563b0       ?getAngularVelocity@?$NpRigidBodyTemplate@VPxArticulationLink@physx@@@physx@@UEBA?AV?$PxVec3T@M@2@XZ 00000001800573b0 f i NpArticulationLink.obj
 0001:000563b0       ?getAngularVelocity@?$NpRigidBodyTemplate@VPxRigidDynamic@physx@@@physx@@UEBA?AV?$PxVec3T@M@2@XZ 00000001800573b0 f i NpRigidDynamic.obj
 0001:00056440       ?getCMassLocalPose@?$NpRigidBodyTemplate@VPxArticulationLink@physx@@@physx@@UEBA?AV?$PxTransformT@M@2@XZ 0000000180057440 f i NpArticulationLink.obj
 0001:00056440       ?getCMassLocalPose@?$NpRigidBodyTemplate@VPxRigidDynamic@physx@@@physx@@UEBA?AV?$PxTransformT@M@2@XZ 0000000180057440 f i NpRigidDynamic.obj
 0001:00056490       ?getConcreteTypeName@PxRigidDynamic@physx@@UEBAPEBDXZ 0000000180057490 f i NpRigidDynamic.obj
 0001:000564a0       ?getConstraints@?$NpRigidActorTemplate@VPxArticulationLink@physx@@@physx@@UEBAIPEAPEAVPxConstraint@2@II@Z 00000001800574a0 f i NpArticulationLink.obj
 0001:000564a0       ?getConstraints@?$NpRigidActorTemplate@VPxRigidDynamic@physx@@@physx@@UEBAIPEAPEAVPxConstraint@2@II@Z 00000001800574a0 f i NpRigidDynamic.obj
 0001:000564a0       ?getConstraints@?$NpRigidActorTemplate@VPxRigidStatic@physx@@@physx@@UEBAIPEAPEAVPxConstraint@2@II@Z 00000001800574a0 f i NpRigidStatic.obj
 0001:00056520       ?getContactReportThreshold@NpRigidDynamic@physx@@UEBAMXZ 0000000180057520 f   NpRigidDynamic.obj
 0001:00056530       ?getContactSlopCoefficient@?$NpRigidBodyTemplate@VPxArticulationLink@physx@@@physx@@UEBAMXZ 0000000180057530 f i NpArticulationLink.obj
 0001:00056530       ?getContactSlopCoefficient@?$NpRigidBodyTemplate@VPxRigidDynamic@physx@@@physx@@UEBAMXZ 0000000180057530 f i NpRigidDynamic.obj
 0001:00056540       ?getGlobalPose@NpRigidDynamic@physx@@UEBA?AV?$PxTransformT@M@2@XZ 0000000180057540 f i NpRigidDynamic.obj
 0001:000569c0       ?getInternalActorIndex@?$NpRigidActorTemplate@VPxArticulationLink@physx@@@physx@@UEBAIXZ 00000001800579c0 f i NpArticulationLink.obj
 0001:000569c0       ?getInternalActorIndex@?$NpRigidActorTemplate@VPxRigidDynamic@physx@@@physx@@UEBAIXZ 00000001800579c0 f i NpRigidDynamic.obj
 0001:000569c0       ?getInternalActorIndex@?$NpRigidActorTemplate@VPxRigidStatic@physx@@@physx@@UEBAIXZ 00000001800579c0 f i NpRigidStatic.obj
 0001:000569e0       ?getInternalIslandNodeIndex@?$NpRigidBodyTemplate@VPxArticulationLink@physx@@@physx@@UEBA?AVPxNodeIndex@2@XZ 00000001800579e0 f i NpArticulationLink.obj
 0001:000569e0       ?getInternalIslandNodeIndex@?$NpRigidBodyTemplate@VPxRigidDynamic@physx@@@physx@@UEBA?AVPxNodeIndex@2@XZ 00000001800579e0 f i NpRigidDynamic.obj
 0001:00056a00       ?getInvMass@?$NpRigidBodyTemplate@VPxArticulationLink@physx@@@physx@@UEBAMXZ 0000000180057a00 f i NpArticulationLink.obj
 0001:00056a00       ?getInvMass@?$NpRigidBodyTemplate@VPxRigidDynamic@physx@@@physx@@UEBAMXZ 0000000180057a00 f i NpRigidDynamic.obj
 0001:00056a10       ?getKinematicTarget@NpRigidDynamic@physx@@UEBA_NAEAV?$PxTransformT@M@2@@Z 0000000180057a10 f   NpRigidDynamic.obj
 0001:00056e20       ?getLinearDamping@?$NpRigidBodyTemplate@VPxArticulationLink@physx@@@physx@@UEBAMXZ 0000000180057e20 f i NpArticulationLink.obj
 0001:00056e20       ?getLinearDamping@?$NpRigidBodyTemplate@VPxRigidDynamic@physx@@@physx@@UEBAMXZ 0000000180057e20 f i NpRigidDynamic.obj
 0001:00056e30       ?getLinearVelocity@?$NpRigidBodyTemplate@VPxArticulationLink@physx@@@physx@@UEBA?AV?$PxVec3T@M@2@XZ 0000000180057e30 f i NpArticulationLink.obj
 0001:00056e30       ?getLinearVelocity@?$NpRigidBodyTemplate@VPxRigidDynamic@physx@@@physx@@UEBA?AV?$PxVec3T@M@2@XZ 0000000180057e30 f i NpRigidDynamic.obj
 0001:00056ec0       ?getMass@?$NpRigidBodyTemplate@VPxArticulationLink@physx@@@physx@@UEBAMXZ 0000000180057ec0 f i NpArticulationLink.obj
 0001:00056ec0       ?getMass@?$NpRigidBodyTemplate@VPxRigidDynamic@physx@@@physx@@UEBAMXZ 0000000180057ec0 f i NpRigidDynamic.obj
 0001:00056ef0       ?getMassSpaceInertiaTensor@?$NpRigidBodyTemplate@VPxArticulationLink@physx@@@physx@@UEBA?AV?$PxVec3T@M@2@XZ 0000000180057ef0 f i NpArticulationLink.obj
 0001:00056ef0       ?getMassSpaceInertiaTensor@?$NpRigidBodyTemplate@VPxRigidDynamic@physx@@@physx@@UEBA?AV?$PxVec3T@M@2@XZ 0000000180057ef0 f i NpRigidDynamic.obj
 0001:00056f60       ?getMassSpaceInvInertiaTensor@?$NpRigidBodyTemplate@VPxArticulationLink@physx@@@physx@@UEBA?AV?$PxVec3T@M@2@XZ 0000000180057f60 f i NpArticulationLink.obj
 0001:00056f60       ?getMassSpaceInvInertiaTensor@?$NpRigidBodyTemplate@VPxRigidDynamic@physx@@@physx@@UEBA?AV?$PxVec3T@M@2@XZ 0000000180057f60 f i NpRigidDynamic.obj
 0001:00056f90       ?getMaxAngularVelocity@?$NpRigidBodyTemplate@VPxArticulationLink@physx@@@physx@@UEBAMXZ 0000000180057f90 f i NpArticulationLink.obj
 0001:00056f90       ?getMaxAngularVelocity@?$NpRigidBodyTemplate@VPxRigidDynamic@physx@@@physx@@UEBAMXZ 0000000180057f90 f i NpRigidDynamic.obj
 0001:00056fb0       ?getMaxDepenetrationVelocity@?$NpRigidBodyTemplate@VPxArticulationLink@physx@@@physx@@UEBAMXZ 0000000180057fb0 f i NpArticulationLink.obj
 0001:00056fb0       ?getMaxDepenetrationVelocity@?$NpRigidBodyTemplate@VPxRigidDynamic@physx@@@physx@@UEBAMXZ 0000000180057fb0 f i NpRigidDynamic.obj
 0001:00056fc0       ?getMaxLinearVelocity@?$NpRigidBodyTemplate@VPxArticulationLink@physx@@@physx@@UEBAMXZ 0000000180057fc0 f i NpArticulationLink.obj
 0001:00056fc0       ?getMaxLinearVelocity@?$NpRigidBodyTemplate@VPxRigidDynamic@physx@@@physx@@UEBAMXZ 0000000180057fc0 f i NpRigidDynamic.obj
 0001:00056fe0       ?getMinCCDAdvanceCoefficient@?$NpRigidBodyTemplate@VPxArticulationLink@physx@@@physx@@UEBAMXZ 0000000180057fe0 f i NpArticulationLink.obj
 0001:00056fe0       ?getMinCCDAdvanceCoefficient@?$NpRigidBodyTemplate@VPxRigidDynamic@physx@@@physx@@UEBAMXZ 0000000180057fe0 f i NpRigidDynamic.obj
 0001:00056ff0       ?getNbConstraints@?$NpRigidActorTemplate@VPxArticulationLink@physx@@@physx@@UEBAIXZ 0000000180057ff0 f i NpArticulationLink.obj
 0001:00056ff0       ?getNbConstraints@?$NpRigidActorTemplate@VPxRigidDynamic@physx@@@physx@@UEBAIXZ 0000000180057ff0 f i NpRigidDynamic.obj
 0001:00056ff0       ?getNbConstraints@?$NpRigidActorTemplate@VPxRigidStatic@physx@@@physx@@UEBAIXZ 0000000180057ff0 f i NpRigidStatic.obj
 0001:00057000       ?getNbShapes@?$NpRigidActorTemplate@VPxArticulationLink@physx@@@physx@@UEBAIXZ 0000000180058000 f i NpArticulationLink.obj
 0001:00057000       ?getNbShapes@?$NpRigidActorTemplate@VPxRigidDynamic@physx@@@physx@@UEBAIXZ 0000000180058000 f i NpRigidDynamic.obj
 0001:00057000       ?getNbShapes@?$NpRigidActorTemplate@VPxRigidStatic@physx@@@physx@@UEBAIXZ 0000000180058000 f i NpRigidStatic.obj
 0001:00057010       ?getRigidBodyFlags@?$NpRigidBodyTemplate@VPxArticulationLink@physx@@@physx@@UEBA?AV?$PxFlags@W4Enum@PxRigidBodyFlag@physx@@G@2@XZ 0000000180058010 f i NpArticulationLink.obj
 0001:00057010       ?getRigidBodyFlags@?$NpRigidBodyTemplate@VPxRigidDynamic@physx@@@physx@@UEBA?AV?$PxFlags@W4Enum@PxRigidBodyFlag@physx@@G@2@XZ 0000000180058010 f i NpRigidDynamic.obj
 0001:00057030       ?getRigidDynamicLockFlags@NpRigidDynamic@physx@@UEBA?AV?$PxFlags@W4Enum@PxRigidDynamicLockFlag@physx@@E@2@XZ 0000000180058030 f   NpRigidDynamic.obj
 0001:00057040       ?getShapes@?$NpRigidActorTemplate@VPxArticulationLink@physx@@@physx@@UEBAIPEAPEAVPxShape@2@II@Z 0000000180058040 f i NpArticulationLink.obj
 0001:00057040       ?getShapes@?$NpRigidActorTemplate@VPxRigidDynamic@physx@@@physx@@UEBAIPEAPEAVPxShape@2@II@Z 0000000180058040 f i NpRigidDynamic.obj
 0001:00057040       ?getShapes@?$NpRigidActorTemplate@VPxRigidStatic@physx@@@physx@@UEBAIPEAPEAVPxShape@2@II@Z 0000000180058040 f i NpRigidStatic.obj
 0001:00057050       ?getSleepThreshold@NpRigidDynamic@physx@@UEBAMXZ 0000000180058050 f   NpRigidDynamic.obj
 0001:00057060       ?getSolverIterationCounts@NpRigidDynamic@physx@@UEBAXAEAI0@Z 0000000180058060 f   NpRigidDynamic.obj
 0001:00057080       ?getCfmScale@NpArticulationLink@physx@@UEBAMXZ 0000000180058080 f   NpArticulationLink.obj
 0001:00057080       ?getFluidBoundaryDensityScale@ParticleSystemCore@Sc@physx@@QEBAMXZ 0000000180058080 f   SimulationController_static_64:ScParticleSystemCore.obj
 0001:00057080       ?getStabilizationThreshold@NpRigidDynamic@physx@@UEBAMXZ 0000000180058080 f   NpRigidDynamic.obj
 0001:00057090       ?getSolverType@DynamicsTGSContext@Dy@physx@@UEBA?AW4Enum@PxSolverType@3@XZ 0000000180058090 f i LowLevelDynamics_static_64:DyTGSDynamics.obj
 0001:00057090       ?getType@BroadPhaseMBP@Bp@physx@@UEBA?AW4Enum@PxBroadPhaseType@3@XZ 0000000180058090 f i LowLevelAABB_static_64:BpBroadPhaseMBP.obj
 0001:00057090       ?getType@NpRigidDynamic@physx@@UEBA?AW4Enum@PxActorType@2@XZ 0000000180058090 f i NpRigidDynamic.obj
 0001:00057090       ?length@charNode@@UEBAHXZ  0000000180058090 f i libvcruntime:undname.obj
 0001:00057090       ?raw_length@charNode@@UEBAHXZ 0000000180058090 f i libvcruntime:undname.obj
 0001:00057090       DllMain                    0000000180058090 f i LIBCMT:dll_dllmain_stub.obj
 0001:00057090       _get_startup_argv_mode     0000000180058090 f i LIBCMT:argv_mode.obj
 0001:000570a0       ?getWakeCounter@NpRigidDynamic@physx@@UEBAMXZ 00000001800580a0 f   NpRigidDynamic.obj
 0001:00057100       ?getWorldBounds@?$NpRigidActorTemplate@VPxArticulationLink@physx@@@physx@@UEBA?AVPxBounds3@2@M@Z 0000000180058100 f i NpArticulationLink.obj
 0001:00057100       ?getWorldBounds@?$NpRigidActorTemplate@VPxRigidDynamic@physx@@@physx@@UEBA?AVPxBounds3@2@M@Z 0000000180058100 f i NpRigidDynamic.obj
 0001:00057100       ?getWorldBounds@?$NpRigidActorTemplate@VPxRigidStatic@physx@@@physx@@UEBA?AVPxBounds3@2@M@Z 0000000180058100 f i NpRigidStatic.obj
 0001:00057300       ?importExtraData@?$NpRigidActorTemplate@VPxArticulationLink@physx@@@physx@@UEAAXAEAVPxDeserializationContext@2@@Z 0000000180058300 f i NpArticulationLink.obj
 0001:00057300       ?importExtraData@?$NpRigidActorTemplate@VPxRigidDynamic@physx@@@physx@@UEAAXAEAVPxDeserializationContext@2@@Z 0000000180058300 f i NpRigidDynamic.obj
 0001:00057300       ?importExtraData@?$NpRigidActorTemplate@VPxRigidStatic@physx@@@physx@@UEAAXAEAVPxDeserializationContext@2@@Z 0000000180058300 f i NpRigidStatic.obj
 0001:00057330       ?isKindOf@PxRigidActor@physx@@MEBA_NPEBD@Z 0000000180058330 f i NpRigidDynamic.obj
 0001:000573c0       ?isKindOf@PxRigidBody@physx@@MEBA_NPEBD@Z 00000001800583c0 f i NpRigidDynamic.obj
 0001:00057450       ?isKindOf@PxRigidDynamic@physx@@MEBA_NPEBD@Z 0000000180058450 f i NpRigidDynamic.obj
 0001:000574f0       ?isSleeping@NpRigidDynamic@physx@@UEBA_NXZ 00000001800584f0 f   NpRigidDynamic.obj
 0001:00057550       ?preExportDataReset@NpRigidDynamic@physx@@QEAAXXZ 0000000180058550 f   NpRigidDynamic.obj
 0001:000575c0       ?putToSleep@NpRigidDynamic@physx@@UEAAXXZ 00000001800585c0 f   NpRigidDynamic.obj
 0001:00057620       ?release@NpRigidDynamic@physx@@UEAAXXZ 0000000180058620 f   NpRigidDynamic.obj
 0001:00057740       ?removeShapes@?$NpRigidActorTemplate@VPxArticulationLink@physx@@@physx@@QEAAXPEAVPxSceneQuerySystem@2@@Z 0000000180058740 f i NpArticulationLink.obj
 0001:00057740       ?removeShapes@?$NpRigidActorTemplate@VPxRigidDynamic@physx@@@physx@@QEAAXPEAVPxSceneQuerySystem@2@@Z 0000000180058740 f i NpRigidDynamic.obj
 0001:00057740       ?removeShapes@?$NpRigidActorTemplate@VPxRigidStatic@physx@@@physx@@QEAAXPEAVPxSceneQuerySystem@2@@Z 0000000180058740 f i NpRigidStatic.obj
 0001:000577b0       ?requiresObjects@?$NpRigidActorTemplate@VPxArticulationLink@physx@@@physx@@UEAAXAEAVPxProcessPxBaseCallback@2@@Z 00000001800587b0 f i NpArticulationLink.obj
 0001:000577b0       ?requiresObjects@?$NpRigidActorTemplate@VPxRigidDynamic@physx@@@physx@@UEAAXAEAVPxProcessPxBaseCallback@2@@Z 00000001800587b0 f i NpRigidDynamic.obj
 0001:000577b0       ?requiresObjects@?$NpRigidActorTemplate@VPxRigidStatic@physx@@@physx@@UEAAXAEAVPxProcessPxBaseCallback@2@@Z 00000001800587b0 f i NpRigidStatic.obj
 0001:000577b0       ?requiresObjects@NpRigidDynamic@physx@@UEAAXAEAVPxProcessPxBaseCallback@2@@Z 00000001800587b0 f i NpRigidDynamic.obj
 0001:000577b0       ?requiresObjects@NpRigidStatic@physx@@UEAAXAEAVPxProcessPxBaseCallback@2@@Z 00000001800587b0 f i NpRigidStatic.obj
 0001:00057820       ?resolveReferences@?$NpRigidActorTemplate@VPxArticulationLink@physx@@@physx@@UEAAXAEAVPxDeserializationContext@2@@Z 0000000180058820 f i NpArticulationLink.obj
 0001:00057820       ?resolveReferences@?$NpRigidActorTemplate@VPxRigidDynamic@physx@@@physx@@UEAAXAEAVPxDeserializationContext@2@@Z 0000000180058820 f i NpRigidDynamic.obj
 0001:00057820       ?resolveReferences@?$NpRigidActorTemplate@VPxRigidStatic@physx@@@physx@@UEAAXAEAVPxDeserializationContext@2@@Z 0000000180058820 f i NpRigidStatic.obj
 0001:000578b0       ?scGetGlobalInertiaTensorInverse@?$NpRigidBodyTemplate@VPxRigidDynamic@physx@@@physx@@QEBA?AV?$PxMat33T@M@2@XZ 00000001800588b0 f i NpRigidDynamic.obj
 0001:00057b40       ?setActorFlag@?$NpRigidActorTemplate@VPxRigidDynamic@physx@@@physx@@UEAAXW4Enum@PxActorFlag@2@_N@Z 0000000180058b40 f i NpRigidDynamic.obj
 0001:00057d10       ?setActorFlags@?$NpRigidActorTemplate@VPxRigidDynamic@physx@@@physx@@UEAAXV?$PxFlags@W4Enum@PxActorFlag@physx@@E@2@@Z 0000000180058d10 f i NpRigidDynamic.obj
 0001:00057eb0       ?setAngularDamping@?$NpRigidBodyTemplate@VPxArticulationLink@physx@@@physx@@UEAAXM@Z 0000000180058eb0 f i NpArticulationLink.obj
 0001:00057eb0       ?setAngularDamping@?$NpRigidBodyTemplate@VPxRigidDynamic@physx@@@physx@@UEAAXM@Z 0000000180058eb0 f i NpRigidDynamic.obj
 0001:00057f70       ?setAngularVelocity@NpRigidDynamic@physx@@UEAAXAEBV?$PxVec3T@M@2@_N@Z 0000000180058f70 f   NpRigidDynamic.obj
 0001:00058060       ?setCMassLocalPose@NpRigidDynamic@physx@@UEAAXAEBV?$PxTransformT@M@2@@Z 0000000180059060 f   NpRigidDynamic.obj
 0001:00058890       ?setCMassLocalPoseInternal@?$NpRigidBodyTemplate@VPxArticulationLink@physx@@@physx@@IEAAXAEBV?$PxTransformT@M@2@@Z 0000000180059890 f i NpArticulationLink.obj
 0001:00058890       ?setCMassLocalPoseInternal@?$NpRigidBodyTemplate@VPxRigidDynamic@physx@@@physx@@IEAAXAEBV?$PxTransformT@M@2@@Z 0000000180059890 f i NpRigidDynamic.obj
 0001:00058c80       ?setContactReportThreshold@NpRigidDynamic@physx@@UEAAXM@Z 0000000180059c80 f   NpRigidDynamic.obj
 0001:00058d50       ?setContactSlopCoefficient@?$NpRigidBodyTemplate@VPxArticulationLink@physx@@@physx@@UEAAXM@Z 0000000180059d50 f i NpArticulationLink.obj
 0001:00058d50       ?setContactSlopCoefficient@?$NpRigidBodyTemplate@VPxRigidDynamic@physx@@@physx@@UEAAXM@Z 0000000180059d50 f i NpRigidDynamic.obj
 0001:00058e10       ?setForceAndTorque@NpRigidDynamic@physx@@UEAAXAEBV?$PxVec3T@M@2@0W4Enum@PxForceMode@2@@Z 0000000180059e10 f   NpRigidDynamic.obj
 0001:00058ee0       ?setGlobalPose@NpRigidDynamic@physx@@UEAAXAEBV?$PxTransformT@M@2@_N@Z 0000000180059ee0 f   NpRigidDynamic.obj
 0001:00059340       ?setKinematicTarget@NpRigidDynamic@physx@@UEAAXAEBV?$PxTransformT@M@2@@Z 000000018005a340 f   NpRigidDynamic.obj
 0001:00059760       ?setLinearDamping@?$NpRigidBodyTemplate@VPxArticulationLink@physx@@@physx@@UEAAXM@Z 000000018005a760 f i NpArticulationLink.obj
 0001:00059760       ?setLinearDamping@?$NpRigidBodyTemplate@VPxRigidDynamic@physx@@@physx@@UEAAXM@Z 000000018005a760 f i NpRigidDynamic.obj
 0001:00059820       ?setLinearVelocity@NpRigidDynamic@physx@@UEAAXAEBV?$PxVec3T@M@2@_N@Z 000000018005a820 f   NpRigidDynamic.obj
 0001:00059910       ?setMass@?$NpRigidBodyTemplate@VPxArticulationLink@physx@@@physx@@UEAAXM@Z 000000018005a910 f i NpArticulationLink.obj
 0001:00059910       ?setMass@?$NpRigidBodyTemplate@VPxRigidDynamic@physx@@@physx@@UEAAXM@Z 000000018005a910 f i NpRigidDynamic.obj
 0001:000599f0       ?setMassSpaceInertiaTensor@?$NpRigidBodyTemplate@VPxArticulationLink@physx@@@physx@@UEAAXAEBV?$PxVec3T@M@2@@Z 000000018005a9f0 f i NpArticulationLink.obj
 0001:000599f0       ?setMassSpaceInertiaTensor@?$NpRigidBodyTemplate@VPxRigidDynamic@physx@@@physx@@UEAAXAEBV?$PxVec3T@M@2@@Z 000000018005a9f0 f i NpRigidDynamic.obj
 0001:00059b20       ?setMaxAngularVelocity@?$NpRigidBodyTemplate@VPxArticulationLink@physx@@@physx@@UEAAXM@Z 000000018005ab20 f i NpArticulationLink.obj
 0001:00059b20       ?setMaxAngularVelocity@?$NpRigidBodyTemplate@VPxRigidDynamic@physx@@@physx@@UEAAXM@Z 000000018005ab20 f i NpRigidDynamic.obj
 0001:00059be0       ?setMaxContactImpulse@?$NpRigidBodyTemplate@VPxArticulationLink@physx@@@physx@@UEAAXM@Z 000000018005abe0 f i NpArticulationLink.obj
 0001:00059be0       ?setMaxContactImpulse@?$NpRigidBodyTemplate@VPxRigidDynamic@physx@@@physx@@UEAAXM@Z 000000018005abe0 f i NpRigidDynamic.obj
 0001:00059ca0       ?setMaxDepenetrationVelocity@?$NpRigidBodyTemplate@VPxArticulationLink@physx@@@physx@@UEAAXM@Z 000000018005aca0 f i NpArticulationLink.obj
 0001:00059ca0       ?setMaxDepenetrationVelocity@?$NpRigidBodyTemplate@VPxRigidDynamic@physx@@@physx@@UEAAXM@Z 000000018005aca0 f i NpRigidDynamic.obj
 0001:00059d50       ?setMaxLinearVelocity@?$NpRigidBodyTemplate@VPxArticulationLink@physx@@@physx@@UEAAXM@Z 000000018005ad50 f i NpArticulationLink.obj
 0001:00059d50       ?setMaxLinearVelocity@?$NpRigidBodyTemplate@VPxRigidDynamic@physx@@@physx@@UEAAXM@Z 000000018005ad50 f i NpRigidDynamic.obj
 0001:00059e10       ?setMinCCDAdvanceCoefficient@?$NpRigidBodyTemplate@VPxArticulationLink@physx@@@physx@@UEAAXM@Z 000000018005ae10 f i NpArticulationLink.obj
 0001:00059e10       ?setMinCCDAdvanceCoefficient@?$NpRigidBodyTemplate@VPxRigidDynamic@physx@@@physx@@UEAAXM@Z 000000018005ae10 f i NpRigidDynamic.obj
 0001:00059ec0       ?setRigidBodyFlag@?$NpRigidBodyTemplate@VPxArticulationLink@physx@@@physx@@UEAAXW4Enum@PxRigidBodyFlag@2@_N@Z 000000018005aec0 f i NpArticulationLink.obj
 0001:00059ec0       ?setRigidBodyFlag@?$NpRigidBodyTemplate@VPxRigidDynamic@physx@@@physx@@UEAAXW4Enum@PxRigidBodyFlag@2@_N@Z 000000018005aec0 f i NpRigidDynamic.obj
 0001:0005a240       ?setRigidBodyFlags@?$NpRigidBodyTemplate@VPxArticulationLink@physx@@@physx@@UEAAXV?$PxFlags@W4Enum@PxRigidBodyFlag@physx@@G@2@@Z 000000018005b240 f i NpArticulationLink.obj
 0001:0005a240       ?setRigidBodyFlags@?$NpRigidBodyTemplate@VPxRigidDynamic@physx@@@physx@@UEAAXV?$PxFlags@W4Enum@PxRigidBodyFlag@physx@@G@2@@Z 000000018005b240 f i NpRigidDynamic.obj
 0001:0005a590       ?setRigidDynamicLockFlag@NpRigidDynamic@physx@@UEAAXW4Enum@PxRigidDynamicLockFlag@2@_N@Z 000000018005b590 f   NpRigidDynamic.obj
 0001:0005a650       ?setRigidDynamicLockFlags@NpRigidDynamic@physx@@UEAAXV?$PxFlags@W4Enum@PxRigidDynamicLockFlag@physx@@E@2@@Z 000000018005b650 f   NpRigidDynamic.obj
 0001:0005a700       ?setSleepThreshold@NpRigidDynamic@physx@@UEAAXM@Z 000000018005b700 f   NpRigidDynamic.obj
 0001:0005a7c0       ?setSolverIterationCounts@NpRigidDynamic@physx@@UEAAXII@Z 000000018005b7c0 f   NpRigidDynamic.obj
 0001:0005a8c0       ?setSpatialForce@?$NpRigidBodyTemplate@VPxRigidDynamic@physx@@@physx@@IEAAXPEBV?$PxVec3T@M@2@0W4Enum@PxForceMode@2@@Z 000000018005b8c0 f i NpRigidDynamic.obj
 0001:0005ab20       ?setStabilizationThreshold@NpRigidDynamic@physx@@UEAAXM@Z 000000018005bb20 f   NpRigidDynamic.obj
 0001:0005abe0       ?setWakeCounter@NpRigidDynamic@physx@@UEAAXM@Z 000000018005bbe0 f   NpRigidDynamic.obj
 0001:0005acb0       ?switchFromNoSim@NpRigidDynamic@physx@@UEAAXXZ 000000018005bcb0 f   NpRigidDynamic.obj
 0001:0005acb0       ?switchFromNoSim@NpRigidStatic@physx@@UEAAXXZ 000000018005bcb0 f   NpRigidStatic.obj
 0001:0005acd0       ?switchToNoSim@NpRigidDynamic@physx@@UEAAXXZ 000000018005bcd0 f   NpRigidDynamic.obj
 0001:0005ad10       ?wakeUp@NpRigidDynamic@physx@@UEAAXXZ 000000018005bd10 f   NpRigidDynamic.obj
 0001:0005ad80       ?wakeUpInternalNoKinematicTest@NpRigidDynamic@physx@@QEAAX_N0@Z 000000018005bd80 f   NpRigidDynamic.obj
 0001:0005ae10       ??0NpRigidStatic@physx@@QEAA@AEBV?$PxTransformT@M@1@@Z 000000018005be10 f   NpRigidStatic.obj
 0001:0005aed0       ??_E?$NpActorTemplate@VPxRigidStatic@physx@@@physx@@UEAAPEAXI@Z 000000018005bed0 f i NpRigidStatic.obj
 0001:0005aed0       ??_G?$NpActorTemplate@VPxRigidStatic@physx@@@physx@@UEAAPEAXI@Z 000000018005bed0 f i NpRigidStatic.obj
 0001:0005af50       ??_E?$NpRigidActorTemplate@VPxRigidStatic@physx@@@physx@@UEAAPEAXI@Z 000000018005bf50 f i NpRigidStatic.obj
 0001:0005af50       ??_G?$NpRigidActorTemplate@VPxRigidStatic@physx@@@physx@@UEAAPEAXI@Z 000000018005bf50 f i NpRigidStatic.obj
 0001:0005afe0       ??_ENpRigidStatic@physx@@UEAAPEAXI@Z 000000018005bfe0 f i NpRigidStatic.obj
 0001:0005afe0       ??_GNpRigidStatic@physx@@UEAAPEAXI@Z 000000018005bfe0 f i NpRigidStatic.obj
 0001:0005b080       ?NpRigidStaticGetShapes@physx@@YAIAEAVNpRigidStatic@1@AEAPEBQEAVNpShape@1@@Z 000000018005c080 f   NpRigidStatic.obj
 0001:0005b0a0       ?createObject@NpRigidStatic@physx@@SAPEAV12@AEAPEAEAEAVPxDeserializationContext@2@@Z 000000018005c0a0 f   NpRigidStatic.obj
 0001:0005b150       ?getConcreteTypeName@PxRigidStatic@physx@@UEBAPEBDXZ 000000018005c150 f i NpRigidStatic.obj
 0001:0005b160       ?getGlobalPose@NpRigidStatic@physx@@UEBA?AV?$PxTransformT@M@2@XZ 000000018005c160 f   NpRigidStatic.obj
 0001:0005b190       ?isKindOf@PxRigidStatic@physx@@MEBA_NPEBD@Z 000000018005c190 f i NpRigidStatic.obj
 0001:0005b1e0       ?release@NpRigidStatic@physx@@UEAAXXZ 000000018005c1e0 f   NpRigidStatic.obj
 0001:0005b300       ?setActorFlag@?$NpRigidActorTemplate@VPxRigidStatic@physx@@@physx@@UEAAXW4Enum@PxActorFlag@2@_N@Z 000000018005c300 f i NpRigidStatic.obj
 0001:0005b4d0       ?setActorFlags@?$NpRigidActorTemplate@VPxRigidStatic@physx@@@physx@@UEAAXV?$PxFlags@W4Enum@PxActorFlag@physx@@E@2@@Z 000000018005c4d0 f i NpRigidStatic.obj
 0001:0005b670       ?setGlobalPose@NpRigidStatic@physx@@UEAAXAEBV?$PxTransformT@M@2@_N@Z 000000018005c670 f   NpRigidStatic.obj
 0001:0005b870       ?switchToNoSim@NpRigidStatic@physx@@UEAAXXZ 000000018005c870 f   NpRigidStatic.obj
 0001:0005b890       ??$PxSort@PEAXU?$PxLess@PEAX@physx@@V?$PxReflectionAllocator@U?$Block@E$0BAA@@Scene@Sc@physx@@@2@@physx@@YAXPEAPEAXIAEBU?$PxLess@PEAX@0@AEBV?$PxReflectionAllocator@U?$Block@E$0BAA@@Scene@Sc@physx@@@0@I@Z 000000018005c890 f i NpScene.obj
 0001:0005bcf0       ??$PxSort@PEAXU?$PxLess@PEAX@physx@@V?$PxReflectionAllocator@U?$Block@E$0BIA@@Scene@Sc@physx@@@2@@physx@@YAXPEAPEAXIAEBU?$PxLess@PEAX@0@AEBV?$PxReflectionAllocator@U?$Block@E$0BIA@@Scene@Sc@physx@@@0@I@Z 000000018005ccf0 f i NpScene.obj
 0001:0005c150       ??$PxSort@PEAXU?$PxLess@PEAX@physx@@V?$PxReflectionAllocator@U?$Block@E$0IA@@Scene@Sc@physx@@@2@@physx@@YAXPEAPEAXIAEBU?$PxLess@PEAX@0@AEBV?$PxReflectionAllocator@U?$Block@E$0IA@@Scene@Sc@physx@@@0@I@Z 000000018005d150 f i NpScene.obj
 0001:0005c5b0       ??$PxSort@PEAXU?$PxLess@PEAX@physx@@V?$PxReflectionAllocator@U?$Block@PEAX$07@Scene@Sc@physx@@@2@@physx@@YAXPEAPEAXIAEBU?$PxLess@PEAX@0@AEBV?$PxReflectionAllocator@U?$Block@PEAX$07@Scene@Sc@physx@@@0@I@Z 000000018005d5b0 f i NpScene.obj
 0001:0005ca10       ??$PxSort@PEAXU?$PxLess@PEAX@physx@@V?$PxReflectionAllocator@U?$Block@PEAX$0BA@@Scene@Sc@physx@@@2@@physx@@YAXPEAPEAXIAEBU?$PxLess@PEAX@0@AEBV?$PxReflectionAllocator@U?$Block@PEAX$0BA@@Scene@Sc@physx@@@0@I@Z 000000018005da10 f i NpScene.obj
 0001:0005ce70       ??$PxSort@PEAXU?$PxLess@PEAX@physx@@V?$PxReflectionAllocator@U?$Block@PEAX$0CA@@Scene@Sc@physx@@@2@@physx@@YAXPEAPEAXIAEBU?$PxLess@PEAX@0@AEBV?$PxReflectionAllocator@U?$Block@PEAX$0CA@@Scene@Sc@physx@@@0@I@Z 000000018005de70 f i NpScene.obj
 0001:0005eaf0       ??0NpScene@physx@@QEAA@AEBVPxSceneDesc@1@AEAVNpPhysics@1@@Z 000000018005faf0 f   NpScene.obj
 0001:0005f6d0       ??1?$PxArray@PEAVBodyCore@Sc@physx@@V?$PxReflectionAllocator@PEAVBodyCore@Sc@physx@@@3@@physx@@QEAA@XZ 00000001800606d0 f i NpScene.obj
 0001:0005f720       ??1?$PxArray@PEAVShapeSim@Sc@physx@@V?$PxInlineAllocator@$0CAA@V?$PxReflectionAllocator@PEAVShapeSim@Sc@physx@@@physx@@@3@@physx@@QEAA@XZ 0000000180060720 f i NpScene.obj
 0001:0005f720       ??1?$PxArray@PEBVShapeCore@Sc@physx@@V?$PxInlineAllocator@$0CAA@V?$PxReflectionAllocator@PEBVShapeCore@Sc@physx@@@physx@@@3@@physx@@QEAA@XZ 0000000180060720 f i NpScene.obj
 0001:0005f790       ??1FanoutTask@Cm@physx@@UEAA@XZ 0000000180060790 f i NpScene.obj
 0001:0005f860       ??1NpScene@physx@@UEAA@XZ  0000000180060860 f   NpScene.obj
 0001:00060160       ??1RenderBuffer@Cm@physx@@UEAA@XZ 0000000180061160 f i NpScene.obj
 0001:00060210       ??1Scene@Sc@physx@@QEAA@XZ 0000000180061210 f i NpScene.obj
 0001:00061860       ??_E?$DelegateTask@VNpScene@physx@@$H?executeAdvance@12@QEAAXPEAVPxBaseTask@2@@ZA@@Cm@physx@@UEAAPEAXI@Z 0000000180062860 f i NpScene.obj
 0001:00061860       ??_E?$DelegateTask@VNpScene@physx@@$H?executeCollide@12@QEAAXPEAVPxBaseTask@2@@ZA@@Cm@physx@@UEAAPEAXI@Z 0000000180062860 f i NpScene.obj
 0001:00061860       ??_E?$DelegateTask@VNpScene@physx@@$H?executeScene@12@QEAAXPEAVPxBaseTask@2@@ZA@@Cm@physx@@UEAAPEAXI@Z 0000000180062860 f i NpScene.obj
 0001:00061860       ??_E?$DelegateTask@VNpScene@physx@@$H?sceneQueriesDynamicPrunerUpdate@12@AEAAXPEAVPxBaseTask@2@@ZA@@Cm@physx@@UEAAPEAXI@Z 0000000180062860 f i NpScene.obj
 0001:00061860       ??_E?$DelegateTask@VNpScene@physx@@$H?sceneQueriesStaticPrunerUpdate@12@AEAAXPEAVPxBaseTask@2@@ZA@@Cm@physx@@UEAAPEAXI@Z 0000000180062860 f i NpScene.obj
 0001:00061860       ??_G?$DelegateTask@VNpScene@physx@@$H?executeAdvance@12@QEAAXPEAVPxBaseTask@2@@ZA@@Cm@physx@@UEAAPEAXI@Z 0000000180062860 f i NpScene.obj
 0001:00061860       ??_G?$DelegateTask@VNpScene@physx@@$H?executeCollide@12@QEAAXPEAVPxBaseTask@2@@ZA@@Cm@physx@@UEAAPEAXI@Z 0000000180062860 f i NpScene.obj
 0001:00061860       ??_G?$DelegateTask@VNpScene@physx@@$H?executeScene@12@QEAAXPEAVPxBaseTask@2@@ZA@@Cm@physx@@UEAAPEAXI@Z 0000000180062860 f i NpScene.obj
 0001:00061860       ??_G?$DelegateTask@VNpScene@physx@@$H?sceneQueriesDynamicPrunerUpdate@12@AEAAXPEAVPxBaseTask@2@@ZA@@Cm@physx@@UEAAPEAXI@Z 0000000180062860 f i NpScene.obj
 0001:00061860       ??_G?$DelegateTask@VNpScene@physx@@$H?sceneQueriesStaticPrunerUpdate@12@AEAAXPEAVPxBaseTask@2@@ZA@@Cm@physx@@UEAAPEAXI@Z 0000000180062860 f i NpScene.obj
 0001:000618c0       ??_ENpScene@physx@@UEAAPEAXI@Z 00000001800628c0 f i NpScene.obj
 0001:000618c0       ??_GNpScene@physx@@UEAAPEAXI@Z 00000001800628c0 f i NpScene.obj
 0001:00061930       ??_EPxBaseTask@physx@@UEAAPEAXI@Z 0000000180062930 f i NpScene.obj
 0001:00061930       ??_GPxBaseTask@physx@@UEAAPEAXI@Z 0000000180062930 f i NpScene.obj
 0001:00061960       ??_EPxLightCpuTask@physx@@UEAAPEAXI@Z 0000000180062960 f i NpScene.obj
 0001:00061960       ??_GPxLightCpuTask@physx@@UEAAPEAXI@Z 0000000180062960 f i NpScene.obj
 0001:000619a0       ??_EPxRenderBuffer@physx@@UEAAPEAXI@Z 00000001800629a0 f i NpScene.obj
 0001:000619a0       ??_GPxRenderBuffer@physx@@UEAAPEAXI@Z 00000001800629a0 f i NpScene.obj
 0001:000619d0       ??_EPvdEventSerializer@pvdsdk@physx@@MEAAPEAXI@Z 00000001800629d0 f i PhysXPvdSDK_static_64:PxPvdDataStream.obj
 0001:000619d0       ??_EPxSceneQuerySystemBase@physx@@MEAAPEAXI@Z 00000001800629d0 f i NpScene.obj
 0001:000619d0       ??_GPvdEventSerializer@pvdsdk@physx@@MEAAPEAXI@Z 00000001800629d0 f i PhysXPvdSDK_static_64:PxPvdDataStream.obj
 0001:000619d0       ??_GPxSceneQuerySystemBase@physx@@MEAAPEAXI@Z 00000001800629d0 f i NpScene.obj
 0001:00061a00       ??_ERenderBuffer@Cm@physx@@UEAAPEAXI@Z 0000000180062a00 f i NpScene.obj
 0001:00061a00       ??_GRenderBuffer@Cm@physx@@UEAAPEAXI@Z 0000000180062a00 f i NpScene.obj
 0001:00061a70       ??_EABP_CompleteBoxPruningEndTask@internalABP@@UEAAPEAXI@Z 0000000180062a70 f i LowLevelAABB_static_64:BpBroadPhaseABP.obj
 0001:00061a70       ??_EPostThirdPassTask@IG@physx@@UEAAPEAXI@Z 0000000180062a70 f i LowLevel_static_64:PxsSimpleIslandManager.obj
 0001:00061a70       ??_EPxsForceThresholdTask@Dy@physx@@UEAAPEAXI@Z 0000000180062a70 f i LowLevelDynamics_static_64:DyDynamics.obj
 0001:00061a70       ??_ESceneCompletion@NpScene@physx@@UEAAPEAXI@Z 0000000180062a70 f i NpScene.obj
 0001:00061a70       ??_GABP_CompleteBoxPruningEndTask@internalABP@@UEAAPEAXI@Z 0000000180062a70 f i LowLevelAABB_static_64:BpBroadPhaseABP.obj
 0001:00061a70       ??_GPostThirdPassTask@IG@physx@@UEAAPEAXI@Z 0000000180062a70 f i LowLevel_static_64:PxsSimpleIslandManager.obj
 0001:00061a70       ??_GPxsForceThresholdTask@Dy@physx@@UEAAPEAXI@Z 0000000180062a70 f i LowLevelDynamics_static_64:DyDynamics.obj
 0001:00061a70       ??_GSceneCompletion@NpScene@physx@@UEAAPEAXI@Z 0000000180062a70 f i NpScene.obj
 0001:00061af0       ?addActor@NpScene@physx@@UEAA_NAEAVPxActor@2@PEBVPxBVH@2@@Z 0000000180062af0 f   NpScene.obj
 0001:00061c50       ?addActorInternal@NpScene@physx@@QEAA_NAEAVPxActor@2@PEBVPxBVH@2@@Z 0000000180062c50 f   NpScene.obj
 0001:00061f10       ?addActors@NpScene@physx@@UEAA_NAEBVPxPruningStructure@2@@Z 0000000180062f10 f   NpScene.obj
 0001:00061f40       ?addActors@NpScene@physx@@UEAA_NPEBQEAVPxActor@2@I@Z 0000000180062f40 f   NpScene.obj
 0001:00061f50       ?addActorsInternal@NpScene@physx@@QEAA_NPEIBQEAVPxActor@2@IPEBVPruningStructure@Sq@2@@Z 0000000180062f50 f   NpScene.obj
 0001:00062560       ?addAggregate@NpScene@physx@@UEAA_NAEAVPxAggregate@2@@Z 0000000180063560 f   NpScene.obj
 0001:000627b0       ?addArticulation@NpScene@physx@@UEAA_NAEAVPxArticulationReducedCoordinate@2@@Z 00000001800637b0 f   NpScene.obj
 0001:00062940       ?addArticulationInternal@NpScene@physx@@QEAA_NAEAVPxArticulationReducedCoordinate@2@@Z 0000000180063940 f   NpScene.obj
 0001:000631c0       ?addArticulationLinkBody@NpScene@physx@@QEAAXAEAVNpArticulationLink@2@@Z 00000001800641c0 f   NpScene.obj
 0001:000632e0       ?addArticulationLinkConstraint@NpScene@physx@@QEAAXAEAVNpArticulationLink@2@@Z 00000001800642e0 f   NpScene.obj
 0001:00063410       ?addBroadPhaseRegion@NpScene@physx@@UEAAIAEBUPxBroadPhaseRegion@2@_N@Z 0000000180064410 f   NpScene.obj
 0001:00063560       ?addCollection@NpScene@physx@@UEAA_NAEBVPxCollection@2@@Z 0000000180064560 f   NpScene.obj
 0001:000637e0       ?addDirtyConstraint@NpScene@physx@@QEAAXPEAVNpConstraint@2@@Z 00000001800647e0 f   NpScene.obj
 0001:00063850       ?addFixedTendonInternal@NpScene@physx@@AEAA_NPEAVNpArticulationReducedCoordinate@2@PEAVArticulationSim@Sc@2@@Z 0000000180064850 f   NpScene.obj
 0001:00063b40       ?addLine@RenderBuffer@Cm@physx@@UEAAXAEBUPxDebugLine@3@@Z 0000000180064b40 f i NpScene.obj
 0001:00063ba0       ?addMaterial@NpScene@physx@@QEAAXAEBVNpFEMSoftBodyMaterial@2@@Z 0000000180064ba0 f   NpScene.obj
 0001:00063cd0       ?addMaterial@NpScene@physx@@QEAAXAEBVNpMaterial@2@@Z 0000000180064cd0 f   NpScene.obj
 0001:00063e00       ?addMaterial@NpScene@physx@@QEAAXAEBVNpPBDMaterial@2@@Z 0000000180064e00 f   NpScene.obj
 0001:00063f30       ?addPoint@RenderBuffer@Cm@physx@@UEAAXAEBUPxDebugPoint@3@@Z 0000000180064f30 f i NpScene.obj
 0001:00063f70       ?addReference@PxLightCpuTask@physx@@UEAAXXZ 0000000180064f70 f i NpScene.obj
 0001:00063f80       ?addRigidDynamic@NpScene@physx@@AEAA_NAEAVNpRigidDynamic@2@PEBVBVH@Gu@2@PEBVPruningStructure@Sq@2@@Z 0000000180064f80 f   NpScene.obj
 0001:00064140       ?addRigidStatic@NpScene@physx@@AEAA_NAEAVNpRigidStatic@2@PEBVBVH@Gu@2@PEBVPruningStructure@Sq@2@@Z 0000000180065140 f   NpScene.obj
 0001:00064300       ?addSoftBody@NpScene@physx@@AEAA_NAEAVPxSoftBody@2@@Z 0000000180065300 f   NpScene.obj
 0001:000644d0       ?addSpatialTendonInternal@NpScene@physx@@AEAA_NPEAVNpArticulationReducedCoordinate@2@PEAVArticulationSim@Sc@2@@Z 00000001800654d0 f   NpScene.obj
 0001:000647d0       ?addToConstraintList@NpScene@physx@@QEAAXAEAVPxConstraint@2@@Z 00000001800657d0 f   NpScene.obj
 0001:000648a0       ?addTriangle@RenderBuffer@Cm@physx@@UEAAXAEBUPxDebugTriangle@3@@Z 00000001800658a0 f i NpScene.obj
 0001:00064910       ?advance@NpScene@physx@@UEAA_NPEAVPxBaseTask@2@@Z 0000000180065910 f   NpScene.obj
 0001:00064a60       ?allocate@?$PxArray@PEAVNpRigidDynamic@physx@@V?$PxReflectionAllocator@PEAVNpRigidDynamic@physx@@@2@@physx@@IEAAPEAPEAVNpRigidDynamic@2@I@Z 0000000180065a60 f i NpScene.obj
 0001:00064af0       ?allocate@?$PxArray@PEAVNpRigidStatic@physx@@V?$PxReflectionAllocator@PEAVNpRigidStatic@physx@@@2@@physx@@IEAAPEAPEAVNpRigidStatic@2@I@Z 0000000180065af0 f i NpScene.obj
 0001:00064b80       ?allocate@?$PxArray@UPxDebugLine@physx@@V?$PxReflectionAllocator@UPxDebugLine@physx@@@2@@physx@@IEAAPEAUPxDebugLine@2@I@Z 0000000180065b80 f i NpScene.obj
 0001:00064c10       ?allocate@?$PxArray@UPxDebugPoint@physx@@V?$PxReflectionAllocator@UPxDebugPoint@physx@@@2@@physx@@IEAAPEAUPxDebugPoint@2@I@Z 0000000180065c10 f i NpScene.obj
 0001:00064ca0       ?allocate@?$PxArray@UPxDebugTriangle@physx@@V?$PxReflectionAllocator@UPxDebugTriangle@physx@@@2@@physx@@IEAAPEAUPxDebugTriangle@2@I@Z 0000000180065ca0 f i NpScene.obj
 0001:00064d40       ?allocate@?$PxArray@VMaterialEvent@NpScene@physx@@V?$PxReflectionAllocator@VMaterialEvent@NpScene@physx@@@3@@physx@@IEAAPEAVMaterialEvent@NpScene@2@I@Z 0000000180065d40 f i NpScene.obj
 0001:00064dd0       ?allocate@?$PxArray@VPxBounds3@physx@@V?$PxInlineAllocator@$0MA@V?$PxReflectionAllocator@VPxBounds3@physx@@@physx@@@2@@physx@@IEAAPEAVPxBounds3@2@I@Z 0000000180065dd0 f i NpScene.obj
 0001:00064e90       ?append@RenderBuffer@Cm@physx@@UEAAXAEBVPxRenderBuffer@3@@Z 0000000180065e90 f i NpScene.obj
 0001:000650d0       ?applyActorData@NpScene@physx@@UEAAXPEAXPEAUPxGpuActorPair@2@W4Enum@PxActorCacheFlag@2@I00@Z 00000001800660d0 f   NpScene.obj
 0001:00065170       ?applyArticulationData@NpScene@physx@@UEAAXPEAX0W4Enum@PxArticulationGpuDataType@2@I00@Z 0000000180066170 f   NpScene.obj
 0001:00065210       ?applyParticleBufferData@NpScene@physx@@UEAAXPEBIPEBUPxGpuParticleBufferIndexPair@2@PEBV?$PxFlags@W4Enum@PxParticleBufferFlag@physx@@I@2@IPEAX3@Z 0000000180066210 f   NpScene.obj
 0001:000652b0       ?applySoftBodyData@NpScene@physx@@UEAAXPEAPEAXPEAX1W4Enum@PxSoftBodyGpuDataFlag@2@II1@Z 00000001800662b0 f   NpScene.obj
 0001:000653d0       ?checkCollision@NpScene@physx@@UEAA_N_N@Z 00000001800663d0 f   NpScene.obj
 0001:000653e0       ?checkCollisionInternal@NpScene@physx@@AEAA_N_N@Z 00000001800663e0 f   NpScene.obj
 0001:00065490       ?clear@RenderBuffer@Cm@physx@@UEAAXXZ 0000000180066490 f i NpScene.obj
 0001:000654a0       ?collide@NpScene@physx@@UEAA_NMPEAVPxBaseTask@2@PEAXI_N@Z 00000001800664a0 f   NpScene.obj
 0001:000654e0       ?computeCoriolisAndCentrifugalForces@NpScene@physx@@UEAAXPEBUPxIndexDataPair@2@IPEAX@Z 00000001800664e0 f   NpScene.obj
 0001:00065580       ?computeDenseJacobians@NpScene@physx@@UEAAXPEBUPxIndexDataPair@2@IPEAX@Z 0000000180066580 f   NpScene.obj
 0001:00065620       ?computeGeneralizedGravityForces@NpScene@physx@@UEAAXPEBUPxIndexDataPair@2@IPEAX@Z 0000000180066620 f   NpScene.obj
 0001:00065720       ?computeGeneralizedMassMatrices@NpScene@physx@@UEAAXPEBUPxIndexDataPair@2@IPEAX@Z 0000000180066720 f   NpScene.obj
 0001:000657c0       ?copy@?$PxArray@UPxDebugLine@physx@@V?$PxReflectionAllocator@UPxDebugLine@physx@@@2@@physx@@KAXPEAUPxDebugLine@2@0PEBU32@@Z 00000001800667c0 f i NpScene.obj
 0001:000657c0       ?copy@?$PxArray@VSpatialVector@Cm@physx@@V?$PxReflectionAllocator@VSpatialVector@Cm@physx@@@3@@physx@@KAXPEAVSpatialVector@Cm@2@0PEBV342@@Z 00000001800667c0 f i LowLevelDynamics_static_64:DyTGSDynamics.obj
 0001:00065970       ?copy@?$PxArray@UPxDebugPoint@physx@@V?$PxReflectionAllocator@UPxDebugPoint@physx@@@2@@physx@@KAXPEAUPxDebugPoint@2@0PEBU32@@Z 0000000180066970 f i NpScene.obj
 0001:00065a70       ?copy@?$PxArray@UPxDebugTriangle@physx@@V?$PxReflectionAllocator@UPxDebugTriangle@physx@@@2@@physx@@KAXPEAUPxDebugTriangle@2@0PEBU32@@Z 0000000180066a70 f i NpScene.obj
 0001:00065c70       ?copyArticulationData@NpScene@physx@@UEAAXPEAX0W4Enum@PxArticulationGpuDataType@2@I0@Z 0000000180066c70 f   NpScene.obj
 0001:00065d10       ?copyBodyData@NpScene@physx@@UEAAXPEAUPxGpuBodyData@2@PEAUPxGpuActorPair@2@IPEAX@Z 0000000180066d10 f   NpScene.obj
 0001:00065db0       ?copyContactData@NpScene@physx@@UEAAXPEAXI00@Z 0000000180066db0 f   NpScene.obj
 0001:00065e70       ?copySoftBodyData@NpScene@physx@@UEAAXPEAPEAXPEAX1W4Enum@PxSoftBodyGpuDataFlag@2@II1@Z 0000000180066e70 f   NpScene.obj
 0001:00065ed0       ?createClient@NpScene@physx@@UEAAEXZ 0000000180066ed0 f   NpScene.obj
 0001:00065ee0       ?createInOmniPVD@NpScene@physx@@QEAAXAEBVPxSceneDesc@2@@Z 0000000180066ee0 f   NpScene.obj
 0001:00066710       ?createInstance@?$PvdFns@VNpArticulationLink@physx@@@@SAXAEAVNpScene@physx@@AEAVPvdSceneClient@Vd@3@PEAVNpArticulationLink@3@@Z 0000000180067710 f i NpScene.obj
 0001:00066710       ?createInstance@?$PvdFns@VNpRigidDynamic@physx@@@@SAXAEAVNpScene@physx@@AEAVPvdSceneClient@Vd@3@PEAVNpRigidDynamic@3@@Z 0000000180067710 f i NpScene.obj
 0001:000667b0       ?createInstance@?$PvdFns@VNpRigidStatic@physx@@@@SAXAEAVNpScene@physx@@AEAVPvdSceneClient@Vd@3@PEAVNpRigidStatic@3@@Z 00000001800677b0 f i NpScene.obj
 0001:00066850       ?empty@RenderBuffer@Cm@physx@@UEBA_NXZ 0000000180067850 f i NpScene.obj
 0001:00066870       ?evaluateSDFDistances@NpScene@physx@@UEAAXPEBIIPEBV?$PxVec4T@M@2@0IPEAV32@PEAX@Z 0000000180067870 f   NpScene.obj
 0001:000668d0       ?fetchCollision@NpScene@physx@@UEAA_N_N@Z 00000001800678d0 f   NpScene.obj
 0001:00066920       ?flush@NpScene@physx@@UEAAX_N@Z 0000000180067920 f i NpScene.obj
 0001:00066930       ?flushSimulation@NpScene@physx@@UEAAX_N@Z 0000000180067930 f   NpScene.obj
 0001:00066a70       ?frameEnd@NpScene@physx@@UEAAXXZ 0000000180067a70 f   NpScene.obj
 0001:00066a80       ?getActiveActors@NpScene@physx@@UEAAPEAPEAVPxActor@2@AEAI@Z 0000000180067a80 f   NpScene.obj
 0001:00066ad0       ?getActors@NpScene@physx@@UEBAIV?$PxFlags@W4Enum@PxActorTypeFlag@physx@@G@2@PEAPEAVPxActor@2@II@Z 0000000180067ad0 f   NpScene.obj
 0001:00066c20       ?getAggregates@NpScene@physx@@UEBAIPEAPEAVPxAggregate@2@II@Z 0000000180067c20 f   NpScene.obj
 0001:00066c80       ?getArticulations@NpScene@physx@@UEBAIPEAPEAVPxArticulationReducedCoordinate@2@II@Z 0000000180067c80 f   NpScene.obj
 0001:00066ce0       ?getBounceThresholdVelocity@NpScene@physx@@UEBAMXZ 0000000180067ce0 f   NpScene.obj
 0001:00066d00       ?getBroadPhaseCallback@NpScene@physx@@UEBAPEAVPxBroadPhaseCallback@2@XZ 0000000180067d00 f   NpScene.obj
 0001:00066d10       ?getBroadPhaseCaps@NpScene@physx@@UEBA_NAEAUPxBroadPhaseCaps@2@@Z 0000000180067d10 f   NpScene.obj
 0001:00066d30       ?getBroadPhaseRegions@NpScene@physx@@UEBAIPEAUPxBroadPhaseRegionInfo@2@II@Z 0000000180067d30 f   NpScene.obj
 0001:00066d50       ?getBroadPhaseType@NpScene@physx@@UEBA?AW4Enum@PxBroadPhaseType@2@XZ 0000000180067d50 f   NpScene.obj
 0001:00066d70       ?getCCDContactModifyCallback@NpScene@physx@@UEBAPEAVPxCCDContactModifyCallback@2@XZ 0000000180067d70 f   NpScene.obj
 0001:00066d80       ?getCCDMaxPasses@NpScene@physx@@UEBAIXZ 0000000180067d80 f   NpScene.obj
 0001:00066d90       ?getCCDMaxSeparation@NpScene@physx@@UEBAMXZ 0000000180067d90 f   NpScene.obj
 0001:00066da0       ?getCCDThreshold@NpScene@physx@@UEBAMXZ 0000000180067da0 f   NpScene.obj
 0001:00066db0       ?getConstraints@NpScene@physx@@UEBAIPEAPEAVPxConstraint@2@II@Z 0000000180067db0 f   NpScene.obj
 0001:00066e30       ?getContactModifyCallback@NpScene@physx@@UEBAPEAVPxContactModifyCallback@2@XZ 0000000180067e30 f   NpScene.obj
 0001:00066e40       ?getContactReportStreamBufferSize@NpScene@physx@@UEBAIXZ 0000000180067e40 f   NpScene.obj
 0001:00066e50       ?getCpuDispatcher@NpScene@physx@@UEBAPEAVPxCpuDispatcher@2@XZ 0000000180067e50 f   NpScene.obj
 0001:00066e60       ?getCudaContextManager@NpScene@physx@@UEAAPEAVPxCudaContextManager@2@XZ 0000000180067e60 f i NpScene.obj
 0001:00066e60       ?getCudaContextManager@NpScene@physx@@UEBAPEAVPxCudaContextManager@2@XZ 0000000180067e60 f i NpScene.obj
 0001:00066e70       ?getDominanceGroupPair@NpScene@physx@@UEBA?AUPxDominanceGroupPair@2@EE@Z 0000000180067e70 f   NpScene.obj
 0001:00066e90       ?getFilterCallback@NpScene@physx@@UEBAPEAVPxSimulationFilterCallback@2@XZ 0000000180067e90 f   NpScene.obj
 0001:00066ea0       ?getFilterShader@NpScene@physx@@UEBAP6A?AV?$PxFlags@W4Enum@PxFilterFlag@physx@@G@2@IUPxFilterData@2@I0AEAV?$PxFlags@W4Enum@PxPairFlag@physx@@G@2@PEBXI@ZXZ 0000000180067ea0 f   NpScene.obj
 0001:00066eb0       ?getFilterShaderData@NpScene@physx@@UEBAPEBXXZ 0000000180067eb0 f   NpScene.obj
 0001:00066ec0       ?getFilterShaderDataSize@NpScene@physx@@UEBAIXZ 0000000180067ec0 f   NpScene.obj
 0001:00066ed0       ?getFlags@NpScene@physx@@UEBA?AV?$PxFlags@W4Enum@PxSceneFlag@physx@@I@2@XZ 0000000180067ed0 f   NpScene.obj
 0001:00066ee0       ?getFrictionCorrelationDistance@NpScene@physx@@UEBAMXZ 0000000180067ee0 f   NpScene.obj
 0001:00066ef0       ?getFrictionOffsetThreshold@NpScene@physx@@UEBAMXZ 0000000180067ef0 f   NpScene.obj
 0001:00066f00       ?getFrictionType@NpScene@physx@@UEBA?AW4Enum@PxFrictionType@2@XZ 0000000180067f00 f   NpScene.obj
 0001:00066f10       ?getFrozenActors@NpScene@physx@@UEAAPEAPEAVPxActor@2@AEAI@Z 0000000180067f10 f   NpScene.obj
 0001:00066f60       ?getGpuDynamicsConfig@NpScene@physx@@UEBA?AUPxgDynamicsMemoryConfig@2@XZ 0000000180067f60 f i NpScene.obj
 0001:00066f90       ?getGravity@NpScene@physx@@UEBA?AV?$PxVec3T@M@2@XZ 0000000180067f90 f   NpScene.obj
 0001:00066fb0       ?getKinematicKinematicFilteringMode@NpScene@physx@@UEBA?AW4Enum@PxPairFilteringMode@2@XZ 0000000180067fb0 f   NpScene.obj
 0001:00066fc0       ?getLimits@NpScene@physx@@UEBA?AVPxSceneLimits@2@XZ 0000000180067fc0 f   NpScene.obj
 0001:00066fe0       ?getMaxBiasCoefficient@NpScene@physx@@UEBAMXZ 0000000180067fe0 f   NpScene.obj
 0001:00066ff0       ?getMaxNbContactDataBlocksUsed@NpScene@physx@@UEBAIXZ 0000000180067ff0 f   NpScene.obj
 0001:00067000       ?getName@NpScene@physx@@UEBAPEBDXZ 0000000180068000 f   NpScene.obj
 0001:00067010       ?getName@SceneCompletion@NpScene@physx@@UEBAPEBDXZ 0000000180068010 f i NpScene.obj
 0001:00067020       ?getNbActors@NpScene@physx@@UEBAIV?$PxFlags@W4Enum@PxActorTypeFlag@physx@@G@2@@Z 0000000180068020 f   NpScene.obj
 0001:00067040       ?getNbAggregates@NpScene@physx@@UEBAIXZ 0000000180068040 f   NpScene.obj
 0001:00067050       ?getNbArticulations@NpScene@physx@@UEBAIXZ 0000000180068050 f   NpScene.obj
 0001:00067060       ?getNbBroadPhaseRegions@NpScene@physx@@UEBAIXZ 0000000180068060 f   NpScene.obj
 0001:00067080       ?getNbConstraints@NpScene@physx@@UEBAIXZ 0000000180068080 f   NpScene.obj
 0001:00067090       ?getNbContactDataBlocksUsed@NpScene@physx@@UEBAIXZ 0000000180068090 f   NpScene.obj
 0001:000670a0       ?getNbParticleSystems@NpScene@physx@@UEBAIW4Enum@PxParticleSolverType@2@@Z 00000001800680a0 f   NpScene.obj
 0001:000670c0       ?getNbSoftBodies@NpScene@physx@@UEBAIXZ 00000001800680c0 f   NpScene.obj
 0001:000670d0       ?getParticleSystems@NpScene@physx@@UEBAIW4Enum@PxParticleSolverType@2@PEAPEAVPxParticleSystem@2@II@Z 00000001800680d0 f   NpScene.obj
 0001:00067130       ?getPhysics@NpScene@physx@@UEAAAEAVPxPhysics@2@XZ 0000000180068130 f   NpScene.obj
 0001:00067140       ?getRenderBuffer@NpScene@physx@@UEAAAEBVPxRenderBuffer@2@XZ 0000000180068140 f   NpScene.obj
 0001:00067180       ?getScenePvdClient@NpScene@physx@@UEAAPEAVPxPvdSceneClient@2@XZ 0000000180068180 f   NpScene.obj
 0001:00067190       ?getSimulationController@NpScene@physx@@UEAAPEAVPxsSimulationController@2@XZ 0000000180068190 f   NpScene.obj
 0001:000671a0       ?getSimulationEventCallback@NpScene@physx@@UEBAPEAVPxSimulationEventCallback@2@XZ 00000001800681a0 f   NpScene.obj
 0001:000671b0       ?getSimulationStatistics@NpScene@physx@@UEBAXAEAVPxSimulationStatistics@2@@Z 00000001800681b0 f   NpScene.obj
 0001:000671e0       ?getSoftBodies@NpScene@physx@@UEBAIPEAPEAVPxSoftBody@2@II@Z 00000001800681e0 f   NpScene.obj
 0001:00067240       ?getSolverArticulationBatchSize@NpScene@physx@@UEBAIXZ 0000000180068240 f   NpScene.obj
 0001:00067250       ?getSolverBatchSize@NpScene@physx@@UEBAIXZ 0000000180068250 f   NpScene.obj
 0001:00067260       ?getSolverType@NpScene@physx@@UEBA?AW4Enum@PxSolverType@2@XZ 0000000180068260 f   NpScene.obj
 0001:00067270       ?getStaticKinematicFilteringMode@NpScene@physx@@UEBA?AW4Enum@PxPairFilteringMode@2@XZ 0000000180068270 f   NpScene.obj
 0001:00067280       ?getTaskManager@NpScene@physx@@UEBAPEAVPxTaskManager@2@XZ 0000000180068280 f i NpScene.obj
 0001:00067290       ?getTimestamp@NpScene@physx@@UEBAIXZ 0000000180068290 f   NpScene.obj
 0001:000672a0       ?getVisualizationCullingBox@NpScene@physx@@UEBA?AVPxBounds3@2@XZ 00000001800682a0 f   NpScene.obj
 0001:000672e0       ?getVisualizationParameter@NpScene@physx@@UEBAMW4Enum@PxVisualizationParameter@2@@Z 00000001800682e0 f   NpScene.obj
 0001:00067320       ?getWakeCounterResetValue@NpScene@physx@@UEBAMXZ 0000000180068320 f   NpScene.obj
 0001:00067330       ?growAndPushBack@?$PxArray@PEAVNpConstraint@physx@@V?$PxReflectionAllocator@PEAVNpConstraint@physx@@@2@@physx@@IEAAAEAPEAVNpConstraint@2@AEBQEAV32@@Z 0000000180068330 f i NpScene.obj
 0001:00067450       ?growAndPushBack@?$PxArray@PEAVNpRigidDynamic@physx@@V?$PxReflectionAllocator@PEAVNpRigidDynamic@physx@@@2@@physx@@IEAAAEAPEAVNpRigidDynamic@2@AEBQEAV32@@Z 0000000180068450 f i NpScene.obj
 0001:00067510       ?growAndPushBack@?$PxArray@PEAVNpRigidStatic@physx@@V?$PxReflectionAllocator@PEAVNpRigidStatic@physx@@@2@@physx@@IEAAAEAPEAVNpRigidStatic@2@AEBQEAV32@@Z 0000000180068510 f i NpScene.obj
 0001:000675d0       ?growAndPushBack@?$PxArray@PEAXV?$PxReflectionAllocator@U?$Block@E$0BAA@@Scene@Sc@physx@@@physx@@@physx@@IEAAAEAPEAXAEBQEAX@Z 00000001800685d0 f i NpScene.obj
 0001:000676f0       ?growAndPushBack@?$PxArray@PEAXV?$PxReflectionAllocator@U?$Block@E$0BIA@@Scene@Sc@physx@@@physx@@@physx@@IEAAAEAPEAXAEBQEAX@Z 00000001800686f0 f i NpScene.obj
 0001:00067810       ?growAndPushBack@?$PxArray@PEAXV?$PxReflectionAllocator@U?$Block@E$0IA@@Scene@Sc@physx@@@physx@@@physx@@IEAAAEAPEAXAEBQEAX@Z 0000000180068810 f i NpScene.obj
 0001:00067930       ?growAndPushBack@?$PxArray@PEAXV?$PxReflectionAllocator@U?$Block@PEAX$07@Scene@Sc@physx@@@physx@@@physx@@IEAAAEAPEAXAEBQEAX@Z 0000000180068930 f i NpScene.obj
 0001:00067a50       ?growAndPushBack@?$PxArray@PEAXV?$PxReflectionAllocator@U?$Block@PEAX$0BA@@Scene@Sc@physx@@@physx@@@physx@@IEAAAEAPEAXAEBQEAX@Z 0000000180068a50 f i NpScene.obj
 0001:00067b70       ?growAndPushBack@?$PxArray@PEAXV?$PxReflectionAllocator@U?$Block@PEAX$0CA@@Scene@Sc@physx@@@physx@@@physx@@IEAAAEAPEAXAEBQEAX@Z 0000000180068b70 f i NpScene.obj
 0001:00067c90       ?growAndPushBack@?$PxArray@UPxDebugLine@physx@@V?$PxReflectionAllocator@UPxDebugLine@physx@@@2@@physx@@IEAAAEAUPxDebugLine@2@AEBU32@@Z 0000000180068c90 f i NpScene.obj
 0001:00067d70       ?growAndPushBack@?$PxArray@UPxDebugPoint@physx@@V?$PxReflectionAllocator@UPxDebugPoint@physx@@@2@@physx@@IEAAAEAUPxDebugPoint@2@AEBU32@@Z 0000000180068d70 f i NpScene.obj
 0001:00067e30       ?growAndPushBack@?$PxArray@UPxDebugTriangle@physx@@V?$PxReflectionAllocator@UPxDebugTriangle@physx@@@2@@physx@@IEAAAEAUPxDebugTriangle@2@AEBU32@@Z 0000000180068e30 f i NpScene.obj
 0001:00067f30       ?growAndPushBack@?$PxArray@VMaterialEvent@NpScene@physx@@V?$PxReflectionAllocator@VMaterialEvent@NpScene@physx@@@3@@physx@@IEAAAEAVMaterialEvent@NpScene@2@AEBV342@@Z 0000000180068f30 f i NpScene.obj
 0001:00067ff0       ?loadFromDesc@NpScene@physx@@QEAA_NAEBVPxSceneDesc@2@@Z 0000000180068ff0 f   NpScene.obj
 0001:00068090       ?lockRead@NpScene@physx@@UEAAXPEBDI@Z 0000000180069090 f   NpScene.obj
 0001:00068120       ?lockWrite@NpScene@physx@@UEAAXPEBDI@Z 0000000180069120 f   NpScene.obj
 0001:00068210       ?recreate@?$PxArray@PEAVNpRigidDynamic@physx@@V?$PxReflectionAllocator@PEAVNpRigidDynamic@physx@@@2@@physx@@IEAAXI@Z 0000000180069210 f i NpScene.obj
 0001:000682b0       ?recreate@?$PxArray@PEAVNpRigidStatic@physx@@V?$PxReflectionAllocator@PEAVNpRigidStatic@physx@@@2@@physx@@IEAAXI@Z 00000001800692b0 f i NpScene.obj
 0001:00068350       ?recreate@?$PxArray@UPxDebugLine@physx@@V?$PxReflectionAllocator@UPxDebugLine@physx@@@2@@physx@@IEAAXI@Z 0000000180069350 f i NpScene.obj
 0001:000683e0       ?recreate@?$PxArray@UPxDebugPoint@physx@@V?$PxReflectionAllocator@UPxDebugPoint@physx@@@2@@physx@@IEAAXI@Z 00000001800693e0 f i NpScene.obj
 0001:00068470       ?recreate@?$PxArray@UPxDebugTriangle@physx@@V?$PxReflectionAllocator@UPxDebugTriangle@physx@@@2@@physx@@IEAAXI@Z 0000000180069470 f i NpScene.obj
 0001:00068500       ?recreate@?$PxArray@VMaterialEvent@NpScene@physx@@V?$PxReflectionAllocator@VMaterialEvent@NpScene@physx@@@3@@physx@@IEAAXI@Z 0000000180069500 f i NpScene.obj
 0001:000685a0       ?recreate@?$PxArray@VPxBounds3@physx@@V?$PxInlineAllocator@$0MA@V?$PxReflectionAllocator@VPxBounds3@physx@@@physx@@@2@@physx@@IEAAXI@Z 00000001800695a0 f i NpScene.obj
 0001:00068760       ?release@NpScene@physx@@UEAAXXZ 0000000180069760 f   NpScene.obj
 0001:00068800       ?release@PxLightCpuTask@physx@@UEAAXXZ 0000000180069800 f i NpScene.obj
 0001:00068820       ?release@SceneCompletion@NpScene@physx@@UEAAXXZ 0000000180069820 f i NpScene.obj
 0001:00068850       ?releaseInstance@?$PvdFns@VNpRigidDynamic@physx@@@@SAXAEAVNpScene@physx@@AEAVPvdSceneClient@Vd@3@PEAVNpRigidDynamic@3@@Z 0000000180069850 f i NpScene.obj
 0001:00068850       ?releaseInstance@?$PvdFns@VNpRigidStatic@physx@@@@SAXAEAVNpScene@physx@@AEAVPvdSceneClient@Vd@3@PEAVNpRigidStatic@3@@Z 0000000180069850 f i NpScene.obj
 0001:000688f0       ?removeActor@NpScene@physx@@UEAAXAEAVPxActor@2@_N@Z 00000001800698f0 f   NpScene.obj
 0001:000689f0       ?removeActorInternal@NpScene@physx@@QEAAXAEAVPxActor@2@_N1@Z 00000001800699f0 f   NpScene.obj
 0001:00068ab0       ?removeActors@NpScene@physx@@UEAAXPEBQEAVPxActor@2@I_N@Z 0000000180069ab0 f   NpScene.obj
 0001:00068dc0       ?removeAggregate@NpScene@physx@@UEAAXAEAVPxAggregate@2@_N@Z 0000000180069dc0 f   NpScene.obj
 0001:000690e0       ?removeArticulation@NpScene@physx@@UEAAXAEAVPxArticulationReducedCoordinate@2@_N@Z 000000018006a0e0 f   NpScene.obj
 0001:00069220       ?removeArticulationInternal@NpScene@physx@@QEAAXAEAVPxArticulationReducedCoordinate@2@_N1@Z 000000018006a220 f   NpScene.obj
 0001:000695f0       ?removeArticulationLink@NpScene@physx@@QEAAXAEAVNpArticulationLink@2@_N@Z 000000018006a5f0 f   NpScene.obj
 0001:00069830       ?removeArticulationSensors@NpScene@physx@@QEAAXAEAVPxArticulationReducedCoordinate@2@@Z 000000018006a830 f   NpScene.obj
 0001:00069890       ?removeArticulationTendons@NpScene@physx@@QEAAXAEAVPxArticulationReducedCoordinate@2@@Z 000000018006a890 f   NpScene.obj
 0001:00069920       ?removeBroadPhaseRegion@NpScene@physx@@UEAA_NI@Z 000000018006a920 f   NpScene.obj
 0001:00069980       ?removeFromConstraintList@NpScene@physx@@QEAAXAEAVPxConstraint@2@@Z 000000018006a980 f   NpScene.obj
 0001:00069af0       ?removeFromRigidDynamicList@NpScene@physx@@QEAAXAEAVNpRigidDynamic@2@@Z 000000018006aaf0 f   NpScene.obj
 0001:00069bc0       ?removeFromRigidStaticList@NpScene@physx@@QEAAXAEAVNpRigidStatic@2@@Z 000000018006abc0 f   NpScene.obj
 0001:00069c90       ?removeMaterial@NpScene@physx@@QEAAXAEBVNpFEMSoftBodyMaterial@2@@Z 000000018006ac90 f   NpScene.obj
 0001:00069dd0       ?removeMaterial@NpScene@physx@@QEAAXAEBVNpMaterial@2@@Z 000000018006add0 f   NpScene.obj
 0001:00069f10       ?removeMaterial@NpScene@physx@@QEAAXAEBVNpPBDMaterial@2@@Z 000000018006af10 f   NpScene.obj
 0001:0006a050       ?removeParticleSystem@NpScene@physx@@AEAAXAEAVPxParticleSystem@2@_N@Z 000000018006b050 f   NpScene.obj
 0001:0006a170       ?removeReference@PxLightCpuTask@physx@@UEAAXXZ 000000018006b170 f i NpScene.obj
 0001:0006a190       ?removeRigidDynamic@NpScene@physx@@AEAAXAEAVNpRigidDynamic@2@_N1@Z 000000018006b190 f   NpScene.obj
 0001:0006a2c0       ?removeRigidStatic@NpScene@physx@@AEAAXAEAVNpRigidStatic@2@_N1@Z 000000018006b2c0 f   NpScene.obj
 0001:0006a3f0       ?removeSoftBody@NpScene@physx@@AEAAXAEAVPxSoftBody@2@_N@Z 000000018006b3f0 f   NpScene.obj
 0001:0006a4f0       ?reserveLines@RenderBuffer@Cm@physx@@UEAAPEAUPxDebugLine@3@I@Z 000000018006b4f0 f i NpScene.obj
 0001:0006a550       ?reservePoints@RenderBuffer@Cm@physx@@UEAAPEAUPxDebugPoint@3@I@Z 000000018006b550 f i NpScene.obj
 0001:0006a5b0       ?resetFiltering@NpScene@physx@@UEAA_NAEAVPxActor@2@@Z 000000018006b5b0 f   NpScene.obj
 0001:0006a6f0       ?resetFiltering@NpScene@physx@@UEAA_NAEAVPxRigidActor@2@PEBQEAVPxShape@2@I@Z 000000018006b6f0 f   NpScene.obj
 0001:0006a830       ?resetFiltering_@?$NpRigidActorTemplate@VPxArticulationLink@physx@@@physx@@QEAA_NAEAVNpActor@2@AEAVRigidCore@Sc@2@PEBQEAVPxShape@2@I@Z 000000018006b830 f i NpScene.obj
 0001:0006a830       ?resetFiltering_@?$NpRigidActorTemplate@VPxRigidDynamic@physx@@@physx@@QEAA_NAEAVNpActor@2@AEAVRigidCore@Sc@2@PEBQEAVPxShape@2@I@Z 000000018006b830 f i NpScene.obj
 0001:0006a830       ?resetFiltering_@?$NpRigidActorTemplate@VPxRigidStatic@physx@@@physx@@QEAA_NAEAVNpActor@2@AEAVRigidCore@Sc@2@PEBQEAVPxShape@2@I@Z 000000018006b830 f i NpScene.obj
 0001:0006a980       ?resize@?$PxArray@VMaterialEvent@NpScene@physx@@V?$PxReflectionAllocator@VMaterialEvent@NpScene@physx@@@3@@physx@@QEAAXIAEBVMaterialEvent@NpScene@2@@Z 000000018006b980 f i NpScene.obj
 0001:0006aa40       ?resize@?$PxsMaterialManagerT@V?$MaterialCoreT@UPxsMaterialData@physx@@VPxMaterial@2@@physx@@@physx@@QEAAXI@Z 000000018006ba40 f i NpScene.obj
 0001:0006ad50       ?resizeUninitialized@?$PxArray@VPxBounds3@physx@@V?$PxInlineAllocator@$0MA@V?$PxReflectionAllocator@VPxBounds3@physx@@@physx@@@2@@physx@@QEAAXI@Z 000000018006bd50 f i NpScene.obj
 0001:0006ada0       ?run@?$DelegateTask@VNpScene@physx@@$H?executeAdvance@12@QEAAXPEAVPxBaseTask@2@@ZA@@Cm@physx@@UEAAXXZ 000000018006bda0 f i NpScene.obj
 0001:0006ae00       ?run@?$DelegateTask@VNpScene@physx@@$H?executeCollide@12@QEAAXPEAVPxBaseTask@2@@ZA@@Cm@physx@@UEAAXXZ 000000018006be00 f i NpScene.obj
 0001:0006ae60       ?run@?$DelegateTask@VNpScene@physx@@$H?executeScene@12@QEAAXPEAVPxBaseTask@2@@ZA@@Cm@physx@@UEAAXXZ 000000018006be60 f i NpScene.obj
 0001:0006aec0       ?run@?$DelegateTask@VNpScene@physx@@$H?sceneQueriesDynamicPrunerUpdate@12@AEAAXPEAVPxBaseTask@2@@ZA@@Cm@physx@@UEAAXXZ 000000018006bec0 f i NpScene.obj
 0001:0006af10       ?run@?$DelegateTask@VNpScene@physx@@$H?sceneQueriesStaticPrunerUpdate@12@AEAAXPEAVPxBaseTask@2@@ZA@@Cm@physx@@UEAAXXZ 000000018006bf10 f i NpScene.obj
 0001:0006af60       ?run@BaseTask@Cm@physx@@UEAAXXZ 000000018006bf60 f i SimulationController_static_64:ScScene.obj
 0001:0006af60       ?run@Task@Cm@physx@@UEAAXXZ 000000018006bf60 f i NpScene.obj
 0001:0006afa0       ?runInternal@?$DelegateTask@VNpScene@physx@@$H?executeAdvance@12@QEAAXPEAVPxBaseTask@2@@ZA@@Cm@physx@@UEAAXXZ 000000018006bfa0 f i NpScene.obj
 0001:0006afc0       ?runInternal@?$DelegateTask@VNpScene@physx@@$H?executeCollide@12@QEAAXPEAVPxBaseTask@2@@ZA@@Cm@physx@@UEAAXXZ 000000018006bfc0 f i NpScene.obj
 0001:0006afe0       ?runInternal@?$DelegateTask@VNpScene@physx@@$H?executeScene@12@QEAAXPEAVPxBaseTask@2@@ZA@@Cm@physx@@UEAAXXZ 000000018006bfe0 f i NpScene.obj
 0001:0006b000       ?runInternal@?$DelegateTask@VNpScene@physx@@$H?sceneQueriesDynamicPrunerUpdate@12@AEAAXPEAVPxBaseTask@2@@ZA@@Cm@physx@@UEAAXXZ 000000018006c000 f i NpScene.obj
 0001:0006b010       ?runInternal@?$DelegateTask@VNpScene@physx@@$H?sceneQueriesStaticPrunerUpdate@12@AEAAXPEAVPxBaseTask@2@@ZA@@Cm@physx@@UEAAXXZ 000000018006c010 f i NpScene.obj
 0001:0006b020       ?scAddActor@NpScene@physx@@QEAAXAEAVNpRigidDynamic@2@_NPEAVPxBounds3@2@PEBVBVH@Gu@2@@Z 000000018006c020 f   NpScene.obj
 0001:0006b1e0       ?scAddActor@NpScene@physx@@QEAAXAEAVNpRigidStatic@2@_NPEAVPxBounds3@2@PEBVBVH@Gu@2@@Z 000000018006c1e0 f   NpScene.obj
 0001:0006b3a0       ?scRemoveActor@NpScene@physx@@QEAAXAEAVNpArticulationLink@2@_N1@Z 000000018006c3a0 f   NpScene.obj
 0001:0006b450       ?scRemoveActor@NpScene@physx@@QEAAXAEAVNpRigidDynamic@2@_N1@Z 000000018006c450 f   NpScene.obj
 0001:0006b600       ?scRemoveActor@NpScene@physx@@QEAAXAEAVNpRigidStatic@2@_N1@Z 000000018006c600 f   NpScene.obj
 0001:0006b7b0       ?scRemoveAggregate@NpScene@physx@@QEAAXAEAVNpAggregate@2@@Z 000000018006c7b0 f   NpScene.obj
 0001:0006b7f0       ?scRemoveArticulation@NpScene@physx@@QEAAXAEAVNpArticulationReducedCoordinate@2@@Z 000000018006c7f0 f   NpScene.obj
 0001:0006b8d0       ?scRemoveArticulationFixedTendon@NpScene@physx@@QEAAXAEAVNpArticulationFixedTendon@2@@Z 000000018006c8d0 f   NpScene.obj
 0001:0006b9a0       ?scRemoveArticulationJoint@NpScene@physx@@QEAAXAEAVNpArticulationJointReducedCoordinate@2@@Z 000000018006c9a0 f   NpScene.obj
 0001:0006ba70       ?scRemoveArticulationSensor@NpScene@physx@@QEAAXAEAVNpArticulationSensor@2@@Z 000000018006ca70 f   NpScene.obj
 0001:0006bb40       ?scRemoveArticulationSpatialTendon@NpScene@physx@@QEAAXAEAVNpArticulationSpatialTendon@2@@Z 000000018006cb40 f   NpScene.obj
 0001:0006bc10       ?scRemoveParticleSystem@NpScene@physx@@QEAAXAEAVNpPBDParticleSystem@2@@Z 000000018006cc10 f   NpScene.obj
 0001:0006bcf0       ?scRemoveSoftBody@NpScene@physx@@QEAAXAEAVNpSoftBody@2@@Z 000000018006ccf0 f   NpScene.obj
 0001:0006bdd0       ?scSwitchRigidFromNoSim@NpScene@physx@@QEAAXAEAVNpActor@2@@Z 000000018006cdd0 f   NpScene.obj
 0001:0006bec0       ?scSwitchRigidToNoSim@NpScene@physx@@QEAAXAEAVNpActor@2@@Z 000000018006cec0 f   NpScene.obj
 0001:0006bfa0       ?setActiveActors@NpScene@physx@@UEAAXPEAPEAVPxActor@2@I@Z 000000018006cfa0 f   NpScene.obj
 0001:0006bfb0       ?setBounceThresholdVelocity@NpScene@physx@@UEAAXM@Z 000000018006cfb0 f   NpScene.obj
 0001:0006c060       ?setBroadPhaseCallback@NpScene@physx@@UEAAXPEAVPxBroadPhaseCallback@2@@Z 000000018006d060 f   NpScene.obj
 0001:0006c120       ?setCCDContactModifyCallback@NpScene@physx@@UEAAXPEAVPxCCDContactModifyCallback@2@@Z 000000018006d120 f   NpScene.obj
 0001:0006c1e0       ?setCCDMaxPasses@NpScene@physx@@UEAAXI@Z 000000018006d1e0 f   NpScene.obj
 0001:0006c290       ?setCCDMaxSeparation@NpScene@physx@@UEAAXM@Z 000000018006d290 f   NpScene.obj
 0001:0006c340       ?setCCDThreshold@NpScene@physx@@UEAAXM@Z 000000018006d340 f   NpScene.obj
 0001:0006c3f0       ?setContactModifyCallback@NpScene@physx@@UEAAXPEAVPxContactModifyCallback@2@@Z 000000018006d3f0 f   NpScene.obj
 0001:0006c4c0       ?setDominanceGroupPair@NpScene@physx@@UEAAXEEAEBUPxDominanceGroupPair@2@@Z 000000018006d4c0 f   NpScene.obj
 0001:0006c540       ?setFilterShaderData@NpScene@physx@@UEAAXPEBXI@Z 000000018006d540 f   NpScene.obj
 0001:0006c5c0       ?setFlag@NpScene@physx@@UEAAXW4Enum@PxSceneFlag@2@_N@Z 000000018006d5c0 f   NpScene.obj
 0001:0006c6b0       ?setFrictionCorrelationDistance@NpScene@physx@@UEAAXM@Z 000000018006d6b0 f   NpScene.obj
 0001:0006c760       ?setFrictionOffsetThreshold@NpScene@physx@@UEAAXM@Z 000000018006d760 f   NpScene.obj
 0001:0006c810       ?setFrozenActorFlag@NpScene@physx@@UEAAX_N@Z 000000018006d810 f   NpScene.obj
 0001:0006c820       ?setGravity@NpScene@physx@@UEAAXAEBV?$PxVec3T@M@2@@Z 000000018006d820 f   NpScene.obj
 0001:0006c8e0       ?setLimits@NpScene@physx@@UEAAXAEBVPxSceneLimits@2@@Z 000000018006d8e0 f   NpScene.obj
 0001:0006caf0       ?setMaxBiasCoefficient@NpScene@physx@@UEAAXM@Z 000000018006daf0 f   NpScene.obj
 0001:0006cba0       ?setName@NpScene@physx@@UEAAXPEBD@Z 000000018006dba0 f   NpScene.obj
 0001:0006cbb0       ?setNbContactDataBlocks@NpScene@physx@@UEAAXI@Z 000000018006dbb0 f   NpScene.obj
 0001:0006cc00       ?setSimulationEventCallback@NpScene@physx@@UEAAXPEAVPxSimulationEventCallback@2@@Z 000000018006dc00 f   NpScene.obj
 0001:0006ccc0       ?setSolverArticulationBatchSize@NpScene@physx@@UEAAXI@Z 000000018006dcc0 f   NpScene.obj
 0001:0006cd70       ?setSolverBatchSize@NpScene@physx@@UEAAXI@Z 000000018006dd70 f   NpScene.obj
 0001:0006ce20       ?setVisualizationCullingBox@NpScene@physx@@UEAAXAEBVPxBounds3@2@@Z 000000018006de20 f   NpScene.obj
 0001:0006cea0       ?setVisualizationParameter@NpScene@physx@@UEAA_NW4Enum@PxVisualizationParameter@2@M@Z 000000018006dea0 f   NpScene.obj
 0001:0006cf50       ?shift@RenderBuffer@Cm@physx@@UEAAXAEBV?$PxVec3T@M@3@@Z 000000018006df50 f i NpScene.obj
 0001:0006d100       ?shiftOrigin@NpScene@physx@@UEAAXAEBV?$PxVec3T@M@2@@Z 000000018006e100 f   NpScene.obj
 0001:0006d4d0       ?simulate@NpScene@physx@@UEAA_NMPEAVPxBaseTask@2@PEAXI_N@Z 000000018006e4d0 f   NpScene.obj
 0001:0006d510       ?simulateOrCollide@NpScene@physx@@AEAA_NMPEAVPxBaseTask@2@PEAXI_NPEBDW4Enum@SimulationStage@Sc@2@@Z 000000018006e510 f   NpScene.obj
 0001:0006db10       ?unlockRead@NpScene@physx@@UEAAXXZ 000000018006eb10 f   NpScene.obj
 0001:0006dbb0       ?unlockWrite@NpScene@physx@@UEAAXXZ 000000018006ebb0 f   NpScene.obj
 0001:0006dc60       ?updateConstants@NpScene@physx@@QEAAXAEBV?$PxArray@PEAVNpConstraint@physx@@V?$PxReflectionAllocator@PEAVNpConstraint@physx@@@2@@2@@Z 000000018006ec60 f   NpScene.obj
 0001:0006dcb0       ?updateMaterial@NpScene@physx@@QEAAXAEBVNpFEMSoftBodyMaterial@2@@Z 000000018006ecb0 f   NpScene.obj
 0001:0006dde0       ?updateMaterial@NpScene@physx@@QEAAXAEBVNpMaterial@2@@Z 000000018006ede0 f   NpScene.obj
 0001:0006df10       ?updateMaterial@NpScene@physx@@QEAAXAEBVNpPBDMaterial@2@@Z 000000018006ef10 f   NpScene.obj
 0001:0006e100       ??_ENpContactCallbackTask@physx@@UEAAPEAXI@Z 000000018006f100 f i NpSceneFetchResults.obj
 0001:0006e100       ??_EPxsParallelSolverTask@Dy@physx@@UEAAPEAXI@Z 000000018006f100 f i LowLevelDynamics_static_64:DyDynamics.obj
 0001:0006e100       ??_ESetStepperTask@Dy@physx@@UEAAPEAXI@Z 000000018006f100 f i LowLevelDynamics_static_64:DyTGSDynamics.obj
 0001:0006e100       ??_ESetupArticulationInternalConstraintsTask@Dy@physx@@UEAAPEAXI@Z 000000018006f100 f i LowLevelDynamics_static_64:DyTGSDynamics.obj
 0001:0006e100       ??_GNpContactCallbackTask@physx@@UEAAPEAXI@Z 000000018006f100 f i NpSceneFetchResults.obj
 0001:0006e100       ??_GPxsParallelSolverTask@Dy@physx@@UEAAPEAXI@Z 000000018006f100 f i LowLevelDynamics_static_64:DyDynamics.obj
 0001:0006e100       ??_GSetStepperTask@Dy@physx@@UEAAPEAXI@Z 000000018006f100 f i LowLevelDynamics_static_64:DyTGSDynamics.obj
 0001:0006e100       ??_GSetupArticulationInternalConstraintsTask@Dy@physx@@UEAAPEAXI@Z 000000018006f100 f i LowLevelDynamics_static_64:DyTGSDynamics.obj
 0001:0006e140       ?allocate@?$PxArray@PEAEV?$PxReflectionAllocator@PEAE@physx@@@physx@@IEAAPEAPEAEI@Z 000000018006f140 f i NpSceneFetchResults.obj
 0001:0006e1d0       ?checkResults@NpScene@physx@@UEAA_N_N@Z 000000018006f1d0 f   NpSceneFetchResults.obj
 0001:0006e1e0       ?checkResultsInternal@NpScene@physx@@AEAA_N_N@Z 000000018006f1e0 f   NpSceneFetchResults.obj
 0001:0006e290       ?fetchResults@NpScene@physx@@UEAA_N_NPEAI@Z 000000018006f290 f   NpSceneFetchResults.obj
 0001:0006ef10       ?fetchResultsFinish@NpScene@physx@@UEAAXPEAI@Z 000000018006ff10 f   NpSceneFetchResults.obj
 0001:0006f170       ?fetchResultsParticleSystem@NpScene@physx@@EEAAXXZ 0000000180070170 f   NpSceneFetchResults.obj
 0001:0006f190       ?fetchResultsPostContactCallbacks@NpScene@physx@@AEAAXXZ 0000000180070190 f   NpSceneFetchResults.obj
 0001:0006f380       ?fetchResultsPreContactCallbacks@NpScene@physx@@AEAAXXZ 0000000180070380 f   NpSceneFetchResults.obj
 0001:0006f550       ?fetchResultsStart@NpScene@physx@@UEAA_NAEAPEBUPxContactPairHeader@2@AEAI_N@Z 0000000180070550 f   NpSceneFetchResults.obj
 0001:0006f6f0       ?getName@NpContactCallbackTask@physx@@UEBAPEBDXZ 00000001800706f0 f i NpSceneFetchResults.obj
 0001:0006f700       ?growAndPushBack@?$PxArray@PEAEV?$PxReflectionAllocator@PEAE@physx@@@physx@@IEAAAEAPEAEAEBQEAE@Z 0000000180070700 f i NpSceneFetchResults.obj
 0001:0006f7c0       ?processCallbacks@NpScene@physx@@UEAAXPEAVPxBaseTask@2@@Z 00000001800707c0 f   NpSceneFetchResults.obj
 0001:0006faf0       ?run@NpContactCallbackTask@physx@@UEAAXXZ 0000000180070af0 f   NpSceneFetchResults.obj
 0001:0006fbc0       ??0NpSceneQueries@physx@@QEAA@AEBVPxSceneDesc@1@PEAVPvdSceneClient@Vd@1@_K@Z 0000000180070bc0 f   NpSceneQueries.obj
 0001:0006fd90       ??1NpSceneQueries@physx@@UEAA@XZ 0000000180070d90 f   NpSceneQueries.obj
 0001:0006fdf0       ??1PvdSceneQueryCollector@Vd@physx@@QEAA@XZ 0000000180070df0 f i NpSceneQueries.obj
 0001:0006ffa4       ??_ENpSceneQueries@physx@@W7EAAPEAXI@Z 0000000180070fa4 f i NpSceneQueries.obj
 0001:00070080       ??_ENpSceneQueries@physx@@UEAAPEAXI@Z 0000000180071080 f i NpSceneQueries.obj
 0001:00070080       ??_GNpSceneQueries@physx@@UEAAPEAXI@Z 0000000180071080 f i NpSceneQueries.obj
 0001:00070490       ?checkQueries@NpScene@physx@@UEAA_N_N@Z 0000000180071490 f   NpSceneQueries.obj
 0001:000704a0       ?checkSceneQueriesInternal@NpScene@physx@@AEAA_N_N@Z 00000001800714a0 f   NpSceneQueries.obj
 0001:000705f0       ?fetchQueries@NpScene@physx@@UEAA_N_N@Z 00000001800715f0 f   NpSceneQueries.obj
 0001:000707e0       ?flushUpdates@NpScene@physx@@UEAAXXZ 00000001800717e0 f   NpSceneQueries.obj
 0001:000708e0       ?forceRebuildDynamicTree@NpScene@physx@@UEAAXI@Z 00000001800718e0 f   NpSceneQueries.obj
 0001:000709d0       ?forceSceneQueryRebuild@NpScene@physx@@UEAAXXZ 00000001800719d0 f   NpSceneQueries.obj
 0001:00070a30       ?getDynamicTreeRebuildRateHint@NpScene@physx@@UEBAIXZ 0000000180071a30 f   NpSceneQueries.obj
 0001:00070af0       ?getStaticTimestamp@NpScene@physx@@UEBAIXZ 0000000180071af0 f   NpSceneQueries.obj
 0001:00070b00       ?getUpdateMode@NpScene@physx@@UEBA?AW4Enum@PxSceneQueryUpdateMode@2@XZ 0000000180071b00 f   NpSceneQueries.obj
 0001:00070c60       ?overlap@NpScene@physx@@UEBA_NAEBVPxGeometry@2@AEBV?$PxTransformT@M@2@AEAU?$PxHitCallback@UPxOverlapHit@physx@@@2@AEBUPxQueryFilterData@2@PEAVPxQueryFilterCallback@2@PEBUPxQueryCache@2@V?$PxFlags@W4Enum@PxGeometryQueryFlag@physx@@I@2@@Z 0000000180071c60 f   NpSceneQueries.obj
 0001:00070cb0       ?overlap@NpSceneQueries@physx@@UEAAXAEBVPxGeometry@2@AEBV?$PxTransformT@M@2@PEBUPxOverlapHit@2@IAEBUPxQueryFilterData@2@@Z 0000000180071cb0 f   NpSceneQueries.obj
 0001:00070d60       ?raycast@NpScene@physx@@UEBA_NAEBV?$PxVec3T@M@2@0MAEAU?$PxHitCallback@UPxRaycastHit@physx@@@2@V?$PxFlags@W4Enum@PxHitFlag@physx@@G@2@AEBUPxQueryFilterData@2@PEAVPxQueryFilterCallback@2@PEBUPxQueryCache@2@V?$PxFlags@W4Enum@PxGeometryQueryFlag@physx@@I@2@@Z 0000000180071d60 f   NpSceneQueries.obj
 0001:00070de0       ?raycast@NpSceneQueries@physx@@UEAAXAEBV?$PxVec3T@M@2@0MPEBUPxRaycastHit@2@IAEBUPxQueryFilterData@2@_N@Z 0000000180071de0 f   NpSceneQueries.obj
 0001:00070eb0       ?sceneQueriesDynamicPrunerUpdate@NpScene@physx@@AEAAXPEAVPxBaseTask@2@@Z 0000000180071eb0 f   NpSceneQueries.obj
 0001:00070f60       ?sceneQueriesStaticPrunerUpdate@NpScene@physx@@AEAAXPEAVPxBaseTask@2@@Z 0000000180071f60 f   NpSceneQueries.obj
 0001:00071010       ?sceneQueriesUpdate@NpScene@physx@@UEAAXPEAVPxBaseTask@2@_N@Z 0000000180072010 f   NpSceneQueries.obj
 0001:00071390       ?setDynamicTreeRebuildRateHint@NpScene@physx@@UEAAXI@Z 0000000180072390 f   NpSceneQueries.obj
 0001:000713d0       ?setUpdateMode@NpScene@physx@@UEAAXW4Enum@PxSceneQueryUpdateMode@2@@Z 00000001800723d0 f   NpSceneQueries.obj
 0001:000714c0       ?sweep@NpScene@physx@@UEBA_NAEBVPxGeometry@2@AEBV?$PxTransformT@M@2@AEBV?$PxVec3T@M@2@MAEAU?$PxHitCallback@UPxSweepHit@physx@@@2@V?$PxFlags@W4Enum@PxHitFlag@physx@@G@2@AEBUPxQueryFilterData@2@PEAVPxQueryFilterCallback@2@PEBUPxQueryCache@2@MV?$PxFlags@W4Enum@PxGeometryQueryFlag@physx@@I@2@@Z 00000001800724c0 f   NpSceneQueries.obj
 0001:00071560       ?sweep@NpSceneQueries@physx@@UEAAXAEBVPxGeometry@2@AEBV?$PxTransformT@M@2@AEBV?$PxVec3T@M@2@MPEBUPxSweepHit@2@IAEBUPxQueryFilterData@2@_N@Z 0000000180072560 f   NpSceneQueries.obj
 0001:000715d0       ?sync@NpSceneQueries@physx@@MEAAXIPEBI0PEBVPxBounds3@2@PEBUPxTransformPadded@2@IAEBV?$PxBitMapBase@VPxAllocator@physx@@@2@@Z 00000001800725d0 f   NpSceneQueries.obj
 0001:000715e0       ?syncSQ@NpScene@physx@@AEAAXXZ 00000001800725e0 f   NpSceneQueries.obj
 0001:00071a80       ?transmitSceneQueries@NpSceneQueries@physx@@UEAA_NXZ 0000000180072a80 f   NpSceneQueries.obj
 0001:00071b50       ??_E?$PxSerializerDefaultAdapter@VBV4TriangleMesh@Gu@physx@@@physx@@UEAAPEAXI@Z 0000000180072b50 f i NpSerializerAdapter.obj
 0001:00071b50       ??_E?$PxSerializerDefaultAdapter@VConvexMesh@Gu@physx@@@physx@@UEAAPEAXI@Z 0000000180072b50 f i NpSerializerAdapter.obj
 0001:00071b50       ??_E?$PxSerializerDefaultAdapter@VHeightField@Gu@physx@@@physx@@UEAAPEAXI@Z 0000000180072b50 f i NpSerializerAdapter.obj
 0001:00071b50       ??_E?$PxSerializerDefaultAdapter@VNpAggregate@physx@@@physx@@UEAAPEAXI@Z 0000000180072b50 f i NpSerializerAdapter.obj
 0001:00071b50       ??_E?$PxSerializerDefaultAdapter@VNpArticulationAttachment@physx@@@physx@@UEAAPEAXI@Z 0000000180072b50 f i NpSerializerAdapter.obj
 0001:00071b50       ??_E?$PxSerializerDefaultAdapter@VNpArticulationFixedTendon@physx@@@physx@@UEAAPEAXI@Z 0000000180072b50 f i NpSerializerAdapter.obj
 0001:00071b50       ??_E?$PxSerializerDefaultAdapter@VNpArticulationJointReducedCoordinate@physx@@@physx@@UEAAPEAXI@Z 0000000180072b50 f i NpSerializerAdapter.obj
 0001:00071b50       ??_E?$PxSerializerDefaultAdapter@VNpArticulationLink@physx@@@physx@@UEAAPEAXI@Z 0000000180072b50 f i NpSerializerAdapter.obj
 0001:00071b50       ??_E?$PxSerializerDefaultAdapter@VNpArticulationReducedCoordinate@physx@@@physx@@UEAAPEAXI@Z 0000000180072b50 f i NpSerializerAdapter.obj
 0001:00071b50       ??_E?$PxSerializerDefaultAdapter@VNpArticulationSensor@physx@@@physx@@UEAAPEAXI@Z 0000000180072b50 f i NpSerializerAdapter.obj
 0001:00071b50       ??_E?$PxSerializerDefaultAdapter@VNpArticulationSpatialTendon@physx@@@physx@@UEAAPEAXI@Z 0000000180072b50 f i NpSerializerAdapter.obj
 0001:00071b50       ??_E?$PxSerializerDefaultAdapter@VNpArticulationTendonJoint@physx@@@physx@@UEAAPEAXI@Z 0000000180072b50 f i NpSerializerAdapter.obj
 0001:00071b50       ??_E?$PxSerializerDefaultAdapter@VNpConstraint@physx@@@physx@@UEAAPEAXI@Z 0000000180072b50 f i NpSerializerAdapter.obj
 0001:00071b50       ??_E?$PxSerializerDefaultAdapter@VNpMaterial@physx@@@physx@@UEAAPEAXI@Z 0000000180072b50 f i NpSerializerAdapter.obj
 0001:00071b50       ??_E?$PxSerializerDefaultAdapter@VNpRigidDynamic@physx@@@physx@@UEAAPEAXI@Z 0000000180072b50 f i NpSerializerAdapter.obj
 0001:00071b50       ??_E?$PxSerializerDefaultAdapter@VNpRigidStatic@physx@@@physx@@UEAAPEAXI@Z 0000000180072b50 f i NpSerializerAdapter.obj
 0001:00071b50       ??_E?$PxSerializerDefaultAdapter@VNpShape@physx@@@physx@@UEAAPEAXI@Z 0000000180072b50 f i NpSerializerAdapter.obj
 0001:00071b50       ??_E?$PxSerializerDefaultAdapter@VPruningStructure@Sq@physx@@@physx@@UEAAPEAXI@Z 0000000180072b50 f i NpSerializerAdapter.obj
 0001:00071b50       ??_E?$PxSerializerDefaultAdapter@VRTreeTriangleMesh@Gu@physx@@@physx@@UEAAPEAXI@Z 0000000180072b50 f i NpSerializerAdapter.obj
 0001:00071b50       ??_G?$PxSerializerDefaultAdapter@VBV4TriangleMesh@Gu@physx@@@physx@@UEAAPEAXI@Z 0000000180072b50 f i NpSerializerAdapter.obj
 0001:00071b50       ??_G?$PxSerializerDefaultAdapter@VConvexMesh@Gu@physx@@@physx@@UEAAPEAXI@Z 0000000180072b50 f i NpSerializerAdapter.obj
 0001:00071b50       ??_G?$PxSerializerDefaultAdapter@VHeightField@Gu@physx@@@physx@@UEAAPEAXI@Z 0000000180072b50 f i NpSerializerAdapter.obj
 0001:00071b50       ??_G?$PxSerializerDefaultAdapter@VNpAggregate@physx@@@physx@@UEAAPEAXI@Z 0000000180072b50 f i NpSerializerAdapter.obj
 0001:00071b50       ??_G?$PxSerializerDefaultAdapter@VNpArticulationAttachment@physx@@@physx@@UEAAPEAXI@Z 0000000180072b50 f i NpSerializerAdapter.obj
 0001:00071b50       ??_G?$PxSerializerDefaultAdapter@VNpArticulationFixedTendon@physx@@@physx@@UEAAPEAXI@Z 0000000180072b50 f i NpSerializerAdapter.obj
 0001:00071b50       ??_G?$PxSerializerDefaultAdapter@VNpArticulationJointReducedCoordinate@physx@@@physx@@UEAAPEAXI@Z 0000000180072b50 f i NpSerializerAdapter.obj
 0001:00071b50       ??_G?$PxSerializerDefaultAdapter@VNpArticulationLink@physx@@@physx@@UEAAPEAXI@Z 0000000180072b50 f i NpSerializerAdapter.obj
 0001:00071b50       ??_G?$PxSerializerDefaultAdapter@VNpArticulationReducedCoordinate@physx@@@physx@@UEAAPEAXI@Z 0000000180072b50 f i NpSerializerAdapter.obj
 0001:00071b50       ??_G?$PxSerializerDefaultAdapter@VNpArticulationSensor@physx@@@physx@@UEAAPEAXI@Z 0000000180072b50 f i NpSerializerAdapter.obj
 0001:00071b50       ??_G?$PxSerializerDefaultAdapter@VNpArticulationSpatialTendon@physx@@@physx@@UEAAPEAXI@Z 0000000180072b50 f i NpSerializerAdapter.obj
 0001:00071b50       ??_G?$PxSerializerDefaultAdapter@VNpArticulationTendonJoint@physx@@@physx@@UEAAPEAXI@Z 0000000180072b50 f i NpSerializerAdapter.obj
 0001:00071b50       ??_G?$PxSerializerDefaultAdapter@VNpConstraint@physx@@@physx@@UEAAPEAXI@Z 0000000180072b50 f i NpSerializerAdapter.obj
 0001:00071b50       ??_G?$PxSerializerDefaultAdapter@VNpMaterial@physx@@@physx@@UEAAPEAXI@Z 0000000180072b50 f i NpSerializerAdapter.obj
 0001:00071b50       ??_G?$PxSerializerDefaultAdapter@VNpRigidDynamic@physx@@@physx@@UEAAPEAXI@Z 0000000180072b50 f i NpSerializerAdapter.obj
 0001:00071b50       ??_G?$PxSerializerDefaultAdapter@VNpRigidStatic@physx@@@physx@@UEAAPEAXI@Z 0000000180072b50 f i NpSerializerAdapter.obj
 0001:00071b50       ??_G?$PxSerializerDefaultAdapter@VNpShape@physx@@@physx@@UEAAPEAXI@Z 0000000180072b50 f i NpSerializerAdapter.obj
 0001:00071b50       ??_G?$PxSerializerDefaultAdapter@VPruningStructure@Sq@physx@@@physx@@UEAAPEAXI@Z 0000000180072b50 f i NpSerializerAdapter.obj
 0001:00071b50       ??_G?$PxSerializerDefaultAdapter@VRTreeTriangleMesh@Gu@physx@@@physx@@UEAAPEAXI@Z 0000000180072b50 f i NpSerializerAdapter.obj
 0001:00071b80       ??_EPxSerializer@physx@@UEAAPEAXI@Z 0000000180072b80 f i NpSerializerAdapter.obj
 0001:00071b80       ??_GPxSerializer@physx@@UEAAPEAXI@Z 0000000180072b80 f i NpSerializerAdapter.obj
 0001:00071bb0       ??_EBeginPropertyMessageGroup@pvdsdk@physx@@UEAAPEAXI@Z 0000000180072bb0 f i PhysXPvdSDK_static_64:PxPvdDataStream.obj
 0001:00071bb0       ??_ECreateClass@pvdsdk@physx@@UEAAPEAXI@Z 0000000180072bb0 f i PhysXPvdSDK_static_64:PxPvdDataStream.obj
 0001:00071bb0       ??_EDestroyInstance@pvdsdk@physx@@UEAAPEAXI@Z 0000000180072bb0 f i PhysXPvdSDK_static_64:PxPvdDataStream.obj
 0001:00071bb0       ??_ENameHandleValue@pvdsdk@physx@@UEAAPEAXI@Z 0000000180072bb0 f i PhysXPvdSDK_static_64:PxPvdDataStream.obj
 0001:00071bb0       ??_ERequiresCallback@?1??registerReferences@?$PxSerializerDefaultAdapter@VBV4TriangleMesh@Gu@physx@@@physx@@UEBAXAEAVPxBase@3@AEAVPxSerializationContext@3@@Z@UEAAPEAXI@Z 0000000180072bb0 f i NpSerializerAdapter.obj
 0001:00071bb0       ??_ERequiresCallback@?1??registerReferences@?$PxSerializerDefaultAdapter@VConvexMesh@Gu@physx@@@physx@@UEBAXAEAVPxBase@3@AEAVPxSerializationContext@3@@Z@UEAAPEAXI@Z 0000000180072bb0 f i NpSerializerAdapter.obj
 0001:00071bb0       ??_ERequiresCallback@?1??registerReferences@?$PxSerializerDefaultAdapter@VHeightField@Gu@physx@@@physx@@UEBAXAEAVPxBase@3@AEAVPxSerializationContext@3@@Z@UEAAPEAXI@Z 0000000180072bb0 f i NpSerializerAdapter.obj
 0001:00071bb0       ??_ERequiresCallback@?1??registerReferences@?$PxSerializerDefaultAdapter@VNpAggregate@physx@@@physx@@UEBAXAEAVPxBase@3@AEAVPxSerializationContext@3@@Z@UEAAPEAXI@Z 0000000180072bb0 f i NpSerializerAdapter.obj
 0001:00071bb0       ??_ERequiresCallback@?1??registerReferences@?$PxSerializerDefaultAdapter@VNpArticulationAttachment@physx@@@physx@@UEBAXAEAVPxBase@3@AEAVPxSerializationContext@3@@Z@UEAAPEAXI@Z 0000000180072bb0 f i NpSerializerAdapter.obj
 0001:00071bb0       ??_ERequiresCallback@?1??registerReferences@?$PxSerializerDefaultAdapter@VNpArticulationFixedTendon@physx@@@physx@@UEBAXAEAVPxBase@3@AEAVPxSerializationContext@3@@Z@UEAAPEAXI@Z 0000000180072bb0 f i NpSerializerAdapter.obj
 0001:00071bb0       ??_ERequiresCallback@?1??registerReferences@?$PxSerializerDefaultAdapter@VNpArticulationJointReducedCoordinate@physx@@@physx@@UEBAXAEAVPxBase@3@AEAVPxSerializationContext@3@@Z@UEAAPEAXI@Z 0000000180072bb0 f i NpSerializerAdapter.obj
 0001:00071bb0       ??_ERequiresCallback@?1??registerReferences@?$PxSerializerDefaultAdapter@VNpArticulationLink@physx@@@physx@@UEBAXAEAVPxBase@3@AEAVPxSerializationContext@3@@Z@UEAAPEAXI@Z 0000000180072bb0 f i NpSerializerAdapter.obj
 0001:00071bb0       ??_ERequiresCallback@?1??registerReferences@?$PxSerializerDefaultAdapter@VNpArticulationReducedCoordinate@physx@@@physx@@UEBAXAEAVPxBase@3@AEAVPxSerializationContext@3@@Z@UEAAPEAXI@Z 0000000180072bb0 f i NpSerializerAdapter.obj
 0001:00071bb0       ??_ERequiresCallback@?1??registerReferences@?$PxSerializerDefaultAdapter@VNpArticulationSensor@physx@@@physx@@UEBAXAEAVPxBase@3@AEAVPxSerializationContext@3@@Z@UEAAPEAXI@Z 0000000180072bb0 f i NpSerializerAdapter.obj
 0001:00071bb0       ??_ERequiresCallback@?1??registerReferences@?$PxSerializerDefaultAdapter@VNpArticulationSpatialTendon@physx@@@physx@@UEBAXAEAVPxBase@3@AEAVPxSerializationContext@3@@Z@UEAAPEAXI@Z 0000000180072bb0 f i NpSerializerAdapter.obj
 0001:00071bb0       ??_ERequiresCallback@?1??registerReferences@?$PxSerializerDefaultAdapter@VNpArticulationTendonJoint@physx@@@physx@@UEBAXAEAVPxBase@3@AEAVPxSerializationContext@3@@Z@UEAAPEAXI@Z 0000000180072bb0 f i NpSerializerAdapter.obj
 0001:00071bb0       ??_ERequiresCallback@?1??registerReferences@?$PxSerializerDefaultAdapter@VNpConstraint@physx@@@physx@@UEBAXAEAVPxBase@3@AEAVPxSerializationContext@3@@Z@UEAAPEAXI@Z 0000000180072bb0 f i NpSerializerAdapter.obj
 0001:00071bb0       ??_ERequiresCallback@?1??registerReferences@?$PxSerializerDefaultAdapter@VNpRigidDynamic@physx@@@physx@@UEBAXAEAVPxBase@3@AEAVPxSerializationContext@3@@Z@UEAAPEAXI@Z 0000000180072bb0 f i NpSerializerAdapter.obj
 0001:00071bb0       ??_ERequiresCallback@?1??registerReferences@?$PxSerializerDefaultAdapter@VNpRigidStatic@physx@@@physx@@UEBAXAEAVPxBase@3@AEAVPxSerializationContext@3@@Z@UEAAPEAXI@Z 0000000180072bb0 f i NpSerializerAdapter.obj
 0001:00071bb0       ??_ERequiresCallback@?1??registerReferences@?$PxSerializerDefaultAdapter@VNpShape@physx@@@physx@@UEBAXAEAVPxBase@3@AEAVPxSerializationContext@3@@Z@UEAAPEAXI@Z 0000000180072bb0 f i NpSerializerAdapter.obj
 0001:00071bb0       ??_ERequiresCallback@?1??registerReferences@?$PxSerializerDefaultAdapter@VPruningStructure@Sq@physx@@@physx@@UEBAXAEAVPxBase@3@AEAVPxSerializationContext@3@@Z@UEAAPEAXI@Z 0000000180072bb0 f i NpSerializerAdapter.obj
 0001:00071bb0       ??_ERequiresCallback@?1??registerReferences@?$PxSerializerDefaultAdapter@VRTreeTriangleMesh@Gu@physx@@@physx@@UEBAXAEAVPxBase@3@AEAVPxSerializationContext@3@@Z@UEAAPEAXI@Z 0000000180072bb0 f i NpSerializerAdapter.obj
 0001:00071bb0       ??_GBeginPropertyMessageGroup@pvdsdk@physx@@UEAAPEAXI@Z 0000000180072bb0 f i PhysXPvdSDK_static_64:PxPvdDataStream.obj
 0001:00071bb0       ??_GCreateClass@pvdsdk@physx@@UEAAPEAXI@Z 0000000180072bb0 f i PhysXPvdSDK_static_64:PxPvdDataStream.obj
 0001:00071bb0       ??_GDestroyInstance@pvdsdk@physx@@UEAAPEAXI@Z 0000000180072bb0 f i PhysXPvdSDK_static_64:PxPvdDataStream.obj
 0001:00071bb0       ??_GNameHandleValue@pvdsdk@physx@@UEAAPEAXI@Z 0000000180072bb0 f i PhysXPvdSDK_static_64:PxPvdDataStream.obj
 0001:00071bb0       ??_GRequiresCallback@?1??registerReferences@?$PxSerializerDefaultAdapter@VBV4TriangleMesh@Gu@physx@@@physx@@UEBAXAEAVPxBase@3@AEAVPxSerializationContext@3@@Z@UEAAPEAXI@Z 0000000180072bb0 f i NpSerializerAdapter.obj
 0001:00071bb0       ??_GRequiresCallback@?1??registerReferences@?$PxSerializerDefaultAdapter@VConvexMesh@Gu@physx@@@physx@@UEBAXAEAVPxBase@3@AEAVPxSerializationContext@3@@Z@UEAAPEAXI@Z 0000000180072bb0 f i NpSerializerAdapter.obj
 0001:00071bb0       ??_GRequiresCallback@?1??registerReferences@?$PxSerializerDefaultAdapter@VHeightField@Gu@physx@@@physx@@UEBAXAEAVPxBase@3@AEAVPxSerializationContext@3@@Z@UEAAPEAXI@Z 0000000180072bb0 f i NpSerializerAdapter.obj
 0001:00071bb0       ??_GRequiresCallback@?1??registerReferences@?$PxSerializerDefaultAdapter@VNpAggregate@physx@@@physx@@UEBAXAEAVPxBase@3@AEAVPxSerializationContext@3@@Z@UEAAPEAXI@Z 0000000180072bb0 f i NpSerializerAdapter.obj
 0001:00071bb0       ??_GRequiresCallback@?1??registerReferences@?$PxSerializerDefaultAdapter@VNpArticulationAttachment@physx@@@physx@@UEBAXAEAVPxBase@3@AEAVPxSerializationContext@3@@Z@UEAAPEAXI@Z 0000000180072bb0 f i NpSerializerAdapter.obj
 0001:00071bb0       ??_GRequiresCallback@?1??registerReferences@?$PxSerializerDefaultAdapter@VNpArticulationFixedTendon@physx@@@physx@@UEBAXAEAVPxBase@3@AEAVPxSerializationContext@3@@Z@UEAAPEAXI@Z 0000000180072bb0 f i NpSerializerAdapter.obj
 0001:00071bb0       ??_GRequiresCallback@?1??registerReferences@?$PxSerializerDefaultAdapter@VNpArticulationJointReducedCoordinate@physx@@@physx@@UEBAXAEAVPxBase@3@AEAVPxSerializationContext@3@@Z@UEAAPEAXI@Z 0000000180072bb0 f i NpSerializerAdapter.obj
 0001:00071bb0       ??_GRequiresCallback@?1??registerReferences@?$PxSerializerDefaultAdapter@VNpArticulationLink@physx@@@physx@@UEBAXAEAVPxBase@3@AEAVPxSerializationContext@3@@Z@UEAAPEAXI@Z 0000000180072bb0 f i NpSerializerAdapter.obj
 0001:00071bb0       ??_GRequiresCallback@?1??registerReferences@?$PxSerializerDefaultAdapter@VNpArticulationReducedCoordinate@physx@@@physx@@UEBAXAEAVPxBase@3@AEAVPxSerializationContext@3@@Z@UEAAPEAXI@Z 0000000180072bb0 f i NpSerializerAdapter.obj
 0001:00071bb0       ??_GRequiresCallback@?1??registerReferences@?$PxSerializerDefaultAdapter@VNpArticulationSensor@physx@@@physx@@UEBAXAEAVPxBase@3@AEAVPxSerializationContext@3@@Z@UEAAPEAXI@Z 0000000180072bb0 f i NpSerializerAdapter.obj
 0001:00071bb0       ??_GRequiresCallback@?1??registerReferences@?$PxSerializerDefaultAdapter@VNpArticulationSpatialTendon@physx@@@physx@@UEBAXAEAVPxBase@3@AEAVPxSerializationContext@3@@Z@UEAAPEAXI@Z 0000000180072bb0 f i NpSerializerAdapter.obj
 0001:00071bb0       ??_GRequiresCallback@?1??registerReferences@?$PxSerializerDefaultAdapter@VNpArticulationTendonJoint@physx@@@physx@@UEBAXAEAVPxBase@3@AEAVPxSerializationContext@3@@Z@UEAAPEAXI@Z 0000000180072bb0 f i NpSerializerAdapter.obj
 0001:00071bb0       ??_GRequiresCallback@?1??registerReferences@?$PxSerializerDefaultAdapter@VNpConstraint@physx@@@physx@@UEBAXAEAVPxBase@3@AEAVPxSerializationContext@3@@Z@UEAAPEAXI@Z 0000000180072bb0 f i NpSerializerAdapter.obj
 0001:00071bb0       ??_GRequiresCallback@?1??registerReferences@?$PxSerializerDefaultAdapter@VNpRigidDynamic@physx@@@physx@@UEBAXAEAVPxBase@3@AEAVPxSerializationContext@3@@Z@UEAAPEAXI@Z 0000000180072bb0 f i NpSerializerAdapter.obj
 0001:00071bb0       ??_GRequiresCallback@?1??registerReferences@?$PxSerializerDefaultAdapter@VNpRigidStatic@physx@@@physx@@UEBAXAEAVPxBase@3@AEAVPxSerializationContext@3@@Z@UEAAPEAXI@Z 0000000180072bb0 f i NpSerializerAdapter.obj
 0001:00071bb0       ??_GRequiresCallback@?1??registerReferences@?$PxSerializerDefaultAdapter@VNpShape@physx@@@physx@@UEBAXAEAVPxBase@3@AEAVPxSerializationContext@3@@Z@UEAAPEAXI@Z 0000000180072bb0 f i NpSerializerAdapter.obj
 0001:00071bb0       ??_GRequiresCallback@?1??registerReferences@?$PxSerializerDefaultAdapter@VPruningStructure@Sq@physx@@@physx@@UEBAXAEAVPxBase@3@AEAVPxSerializationContext@3@@Z@UEAAPEAXI@Z 0000000180072bb0 f i NpSerializerAdapter.obj
 0001:00071bb0       ??_GRequiresCallback@?1??registerReferences@?$PxSerializerDefaultAdapter@VRTreeTriangleMesh@Gu@physx@@@physx@@UEBAXAEAVPxBase@3@AEAVPxSerializationContext@3@@Z@UEAAPEAXI@Z 0000000180072bb0 f i NpSerializerAdapter.obj
 0001:00071be0       ?createObject@?$PxSerializerDefaultAdapter@VBV4TriangleMesh@Gu@physx@@@physx@@UEBAPEAVPxBase@2@AEAPEAEAEAVPxDeserializationContext@2@@Z 0000000180072be0 f i NpSerializerAdapter.obj
 0001:00071bf0       ?createObject@?$PxSerializerDefaultAdapter@VConvexMesh@Gu@physx@@@physx@@UEBAPEAVPxBase@2@AEAPEAEAEAVPxDeserializationContext@2@@Z 0000000180072bf0 f i NpSerializerAdapter.obj
 0001:00071c00       ?createObject@?$PxSerializerDefaultAdapter@VHeightField@Gu@physx@@@physx@@UEBAPEAVPxBase@2@AEAPEAEAEAVPxDeserializationContext@2@@Z 0000000180072c00 f i NpSerializerAdapter.obj
 0001:00071c10       ?createObject@?$PxSerializerDefaultAdapter@VNpAggregate@physx@@@physx@@UEBAPEAVPxBase@2@AEAPEAEAEAVPxDeserializationContext@2@@Z 0000000180072c10 f i NpSerializerAdapter.obj
 0001:00071c20       ?createObject@?$PxSerializerDefaultAdapter@VNpArticulationAttachment@physx@@@physx@@UEBAPEAVPxBase@2@AEAPEAEAEAVPxDeserializationContext@2@@Z 0000000180072c20 f i NpSerializerAdapter.obj
 0001:00071c30       ?createObject@?$PxSerializerDefaultAdapter@VNpArticulationFixedTendon@physx@@@physx@@UEBAPEAVPxBase@2@AEAPEAEAEAVPxDeserializationContext@2@@Z 0000000180072c30 f i NpSerializerAdapter.obj
 0001:00071c40       ?createObject@?$PxSerializerDefaultAdapter@VNpArticulationJointReducedCoordinate@physx@@@physx@@UEBAPEAVPxBase@2@AEAPEAEAEAVPxDeserializationContext@2@@Z 0000000180072c40 f i NpSerializerAdapter.obj
 0001:00071c50       ?createObject@?$PxSerializerDefaultAdapter@VNpArticulationLink@physx@@@physx@@UEBAPEAVPxBase@2@AEAPEAEAEAVPxDeserializationContext@2@@Z 0000000180072c50 f i NpSerializerAdapter.obj
 0001:00071c60       ?createObject@?$PxSerializerDefaultAdapter@VNpArticulationReducedCoordinate@physx@@@physx@@UEBAPEAVPxBase@2@AEAPEAEAEAVPxDeserializationContext@2@@Z 0000000180072c60 f i NpSerializerAdapter.obj
 0001:00071c70       ?createObject@?$PxSerializerDefaultAdapter@VNpArticulationSensor@physx@@@physx@@UEBAPEAVPxBase@2@AEAPEAEAEAVPxDeserializationContext@2@@Z 0000000180072c70 f i NpSerializerAdapter.obj
 0001:00071c80       ?createObject@?$PxSerializerDefaultAdapter@VNpArticulationSpatialTendon@physx@@@physx@@UEBAPEAVPxBase@2@AEAPEAEAEAVPxDeserializationContext@2@@Z 0000000180072c80 f i NpSerializerAdapter.obj
 0001:00071c90       ?createObject@?$PxSerializerDefaultAdapter@VNpArticulationTendonJoint@physx@@@physx@@UEBAPEAVPxBase@2@AEAPEAEAEAVPxDeserializationContext@2@@Z 0000000180072c90 f i NpSerializerAdapter.obj
 0001:00071ca0       ?createObject@?$PxSerializerDefaultAdapter@VNpConstraint@physx@@@physx@@UEBAPEAVPxBase@2@AEAPEAEAEAVPxDeserializationContext@2@@Z 0000000180072ca0 f i NpSerializerAdapter.obj
 0001:00071cb0       ?createObject@?$PxSerializerDefaultAdapter@VNpMaterial@physx@@@physx@@UEBAPEAVPxBase@2@AEAPEAEAEAVPxDeserializationContext@2@@Z 0000000180072cb0 f i NpSerializerAdapter.obj
 0001:00071cc0       ?createObject@?$PxSerializerDefaultAdapter@VNpRigidDynamic@physx@@@physx@@UEBAPEAVPxBase@2@AEAPEAEAEAVPxDeserializationContext@2@@Z 0000000180072cc0 f i NpSerializerAdapter.obj
 0001:00071cd0       ?createObject@?$PxSerializerDefaultAdapter@VNpRigidStatic@physx@@@physx@@UEBAPEAVPxBase@2@AEAPEAEAEAVPxDeserializationContext@2@@Z 0000000180072cd0 f i NpSerializerAdapter.obj
 0001:00071ce0       ?createObject@?$PxSerializerDefaultAdapter@VNpShape@physx@@@physx@@UEBAPEAVPxBase@2@AEAPEAEAEAVPxDeserializationContext@2@@Z 0000000180072ce0 f i NpSerializerAdapter.obj
 0001:00071cf0       ?createObject@?$PxSerializerDefaultAdapter@VPruningStructure@Sq@physx@@@physx@@UEBAPEAVPxBase@2@AEAPEAEAEAVPxDeserializationContext@2@@Z 0000000180072cf0 f i NpSerializerAdapter.obj
 0001:00071d00       ?createObject@?$PxSerializerDefaultAdapter@VRTreeTriangleMesh@Gu@physx@@@physx@@UEBAPEAVPxBase@2@AEAPEAEAEAVPxDeserializationContext@2@@Z 0000000180072d00 f i NpSerializerAdapter.obj
 0001:00071d10       ?exportData@?$PxSerializerDefaultAdapter@VBV4TriangleMesh@Gu@physx@@@physx@@UEBAXAEAVPxBase@2@AEAVPxSerializationContext@2@@Z 0000000180072d10 f i NpSerializerAdapter.obj
 0001:00071e20       ?exportData@?$PxSerializerDefaultAdapter@VConvexMesh@Gu@physx@@@physx@@UEBAXAEAVPxBase@2@AEAVPxSerializationContext@2@@Z 0000000180072e20 f i NpSerializerAdapter.obj
 0001:00071f10       ?exportData@?$PxSerializerDefaultAdapter@VHeightField@Gu@physx@@@physx@@UEBAXAEAVPxBase@2@AEAVPxSerializationContext@2@@Z 0000000180072f10 f i NpSerializerAdapter.obj
 0001:00071fe0       ?exportData@?$PxSerializerDefaultAdapter@VNpAggregate@physx@@@physx@@UEBAXAEAVPxBase@2@AEAVPxSerializationContext@2@@Z 0000000180072fe0 f i NpSerializerAdapter.obj
 0001:00072090       ?exportData@?$PxSerializerDefaultAdapter@VNpArticulationAttachment@physx@@@physx@@UEBAXAEAVPxBase@2@AEAVPxSerializationContext@2@@Z 0000000180073090 f i NpSerializerAdapter.obj
 0001:00072190       ?exportData@?$PxSerializerDefaultAdapter@VNpArticulationFixedTendon@physx@@@physx@@UEBAXAEAVPxBase@2@AEAVPxSerializationContext@2@@Z 0000000180073190 f i NpSerializerAdapter.obj
 0001:00072270       ?exportData@?$PxSerializerDefaultAdapter@VNpArticulationJointReducedCoordinate@physx@@@physx@@UEBAXAEAVPxBase@2@AEAVPxSerializationContext@2@@Z 0000000180073270 f i NpSerializerAdapter.obj
 0001:00072370       ?exportData@?$PxSerializerDefaultAdapter@VNpArticulationLink@physx@@@physx@@UEBAXAEAVPxBase@2@AEAVPxSerializationContext@2@@Z 0000000180073370 f i NpSerializerAdapter.obj
 0001:000724b0       ?exportData@?$PxSerializerDefaultAdapter@VNpArticulationReducedCoordinate@physx@@@physx@@UEBAXAEAVPxBase@2@AEAVPxSerializationContext@2@@Z 00000001800734b0 f i NpSerializerAdapter.obj
 0001:000725c0       ?exportData@?$PxSerializerDefaultAdapter@VNpArticulationSensor@physx@@@physx@@UEBAXAEAVPxBase@2@AEAVPxSerializationContext@2@@Z 00000001800735c0 f i NpSerializerAdapter.obj
 0001:00072670       ?exportData@?$PxSerializerDefaultAdapter@VNpArticulationSpatialTendon@physx@@@physx@@UEBAXAEAVPxBase@2@AEAVPxSerializationContext@2@@Z 0000000180073670 f i NpSerializerAdapter.obj
 0001:00072740       ?exportData@?$PxSerializerDefaultAdapter@VNpArticulationTendonJoint@physx@@@physx@@UEBAXAEAVPxBase@2@AEAVPxSerializationContext@2@@Z 0000000180073740 f i NpSerializerAdapter.obj
 0001:00072830       ?exportData@?$PxSerializerDefaultAdapter@VNpConstraint@physx@@@physx@@UEBAXAEAVPxBase@2@AEAVPxSerializationContext@2@@Z 0000000180073830 f i NpSerializerAdapter.obj
 0001:00072900       ?exportData@?$PxSerializerDefaultAdapter@VNpMaterial@physx@@@physx@@UEBAXAEAVPxBase@2@AEAVPxSerializationContext@2@@Z 0000000180073900 f i NpSerializerAdapter.obj
 0001:000729b0       ?exportData@?$PxSerializerDefaultAdapter@VNpRigidDynamic@physx@@@physx@@UEBAXAEAVPxBase@2@AEAVPxSerializationContext@2@@Z 00000001800739b0 f i NpSerializerAdapter.obj
 0001:00072aa0       ?exportData@?$PxSerializerDefaultAdapter@VNpRigidStatic@physx@@@physx@@UEBAXAEAVPxBase@2@AEAVPxSerializationContext@2@@Z 0000000180073aa0 f i NpSerializerAdapter.obj
 0001:00072b90       ?exportData@?$PxSerializerDefaultAdapter@VNpShape@physx@@@physx@@UEBAXAEAVPxBase@2@AEAVPxSerializationContext@2@@Z 0000000180073b90 f i NpSerializerAdapter.obj
 0001:00072ca0       ?exportData@?$PxSerializerDefaultAdapter@VPruningStructure@Sq@physx@@@physx@@UEBAXAEAVPxBase@2@AEAVPxSerializationContext@2@@Z 0000000180073ca0 f i NpSerializerAdapter.obj
 0001:00072d60       ?exportData@?$PxSerializerDefaultAdapter@VRTreeTriangleMesh@Gu@physx@@@physx@@UEBAXAEAVPxBase@2@AEAVPxSerializationContext@2@@Z 0000000180073d60 f i NpSerializerAdapter.obj
 0001:00072e60       ?exportExtraData@?$PxSerializerDefaultAdapter@VBV4TriangleMesh@Gu@physx@@@physx@@UEBAXAEAVPxBase@2@AEAVPxSerializationContext@2@@Z 0000000180073e60 f i NpSerializerAdapter.obj
 0001:00072e60       ?exportExtraData@?$PxSerializerDefaultAdapter@VRTreeTriangleMesh@Gu@physx@@@physx@@UEBAXAEAVPxBase@2@AEAVPxSerializationContext@2@@Z 0000000180073e60 f i NpSerializerAdapter.obj
 0001:00072e70       ?exportExtraData@?$PxSerializerDefaultAdapter@VConvexMesh@Gu@physx@@@physx@@UEBAXAEAVPxBase@2@AEAVPxSerializationContext@2@@Z 0000000180073e70 f i NpSerializerAdapter.obj
 0001:00072e70       ?exportExtraData@?$PxSerializerDefaultAdapter@VNpArticulationAttachment@physx@@@physx@@UEBAXAEAVPxBase@2@AEAVPxSerializationContext@2@@Z 0000000180073e70 f i NpSerializerAdapter.obj
 0001:00072e70       ?exportExtraData@?$PxSerializerDefaultAdapter@VNpArticulationSpatialTendon@physx@@@physx@@UEBAXAEAVPxBase@2@AEAVPxSerializationContext@2@@Z 0000000180073e70 f i NpSerializerAdapter.obj
 0001:00072e80       ?exportExtraData@?$PxSerializerDefaultAdapter@VHeightField@Gu@physx@@@physx@@UEBAXAEAVPxBase@2@AEAVPxSerializationContext@2@@Z 0000000180073e80 f i NpSerializerAdapter.obj
 0001:00072e80       ?exportExtraData@?$PxSerializerDefaultAdapter@VNpArticulationFixedTendon@physx@@@physx@@UEBAXAEAVPxBase@2@AEAVPxSerializationContext@2@@Z 0000000180073e80 f i NpSerializerAdapter.obj
 0001:00072e90       ?exportExtraData@?$PxSerializerDefaultAdapter@VNpAggregate@physx@@@physx@@UEBAXAEAVPxBase@2@AEAVPxSerializationContext@2@@Z 0000000180073e90 f i NpSerializerAdapter.obj
 0001:00072ea0       ?exportExtraData@?$PxSerializerDefaultAdapter@VNpArticulationLink@physx@@@physx@@UEBAXAEAVPxBase@2@AEAVPxSerializationContext@2@@Z 0000000180073ea0 f i NpSerializerAdapter.obj
 0001:00072eb0       ?exportExtraData@?$PxSerializerDefaultAdapter@VNpArticulationReducedCoordinate@physx@@@physx@@UEBAXAEAVPxBase@2@AEAVPxSerializationContext@2@@Z 0000000180073eb0 f i NpSerializerAdapter.obj
 0001:00072eb0       ?requiresObjects@?$PxSerializerDefaultAdapter@VNpArticulationLink@physx@@@physx@@UEBAXAEAVPxBase@2@AEAVPxProcessPxBaseCallback@2@@Z 0000000180073eb0 f i NpSerializerAdapter.obj
 0001:00072ec0       ?exportExtraData@?$PxSerializerDefaultAdapter@VNpArticulationSensor@physx@@@physx@@UEBAXAEAVPxBase@2@AEAVPxSerializationContext@2@@Z 0000000180073ec0 f i NpSerializerAdapter.obj
 0001:00072ed0       ?exportExtraData@?$PxSerializerDefaultAdapter@VNpArticulationTendonJoint@physx@@@physx@@UEBAXAEAVPxBase@2@AEAVPxSerializationContext@2@@Z 0000000180073ed0 f i NpSerializerAdapter.obj
 0001:00072ed0       ?requiresObjects@?$PxSerializerDefaultAdapter@VPruningStructure@Sq@physx@@@physx@@UEBAXAEAVPxBase@2@AEAVPxProcessPxBaseCallback@2@@Z 0000000180073ed0 f i NpSerializerAdapter.obj
 0001:00072ee0       ?exportExtraData@?$PxSerializerDefaultAdapter@VNpRigidDynamic@physx@@@physx@@UEBAXAEAVPxBase@2@AEAVPxSerializationContext@2@@Z 0000000180073ee0 f i NpSerializerAdapter.obj
 0001:00072ef0       ?exportExtraData@?$PxSerializerDefaultAdapter@VNpRigidStatic@physx@@@physx@@UEBAXAEAVPxBase@2@AEAVPxSerializationContext@2@@Z 0000000180073ef0 f i NpSerializerAdapter.obj
 0001:00072f00       ?exportExtraData@?$PxSerializerDefaultAdapter@VNpShape@physx@@@physx@@UEBAXAEAVPxBase@2@AEAVPxSerializationContext@2@@Z 0000000180073f00 f i NpSerializerAdapter.obj
 0001:00072f10       ?exportExtraData@?$PxSerializerDefaultAdapter@VPruningStructure@Sq@physx@@@physx@@UEBAXAEAVPxBase@2@AEAVPxSerializationContext@2@@Z 0000000180073f10 f i NpSerializerAdapter.obj
 0001:00072f20       ?getClassSize@?$PxSerializerDefaultAdapter@VBV4TriangleMesh@Gu@physx@@@physx@@UEBA_KXZ 0000000180073f20 f i NpSerializerAdapter.obj
 0001:00072f30       ?getClassSize@?$PxSerializerDefaultAdapter@VConvexMesh@Gu@physx@@@physx@@UEBA_KXZ 0000000180073f30 f i NpSerializerAdapter.obj
 0001:00072f30       ?getClassSize@?$PxSerializerDefaultAdapter@VNpArticulationTendonJoint@physx@@@physx@@UEBA_KXZ 0000000180073f30 f i NpSerializerAdapter.obj
 0001:00072f40       ?getClassSize@?$PxSerializerDefaultAdapter@VHeightField@Gu@physx@@@physx@@UEBA_KXZ 0000000180073f40 f i NpSerializerAdapter.obj
 0001:00072f50       ?getClassSize@?$PxSerializerDefaultAdapter@VNpAggregate@physx@@@physx@@UEBA_KXZ 0000000180073f50 f i NpSerializerAdapter.obj
 0001:00072f60       ?getClassSize@?$PxSerializerDefaultAdapter@VNpArticulationAttachment@physx@@@physx@@UEBA_KXZ 0000000180073f60 f i NpSerializerAdapter.obj
 0001:00072f70       ?getClassSize@?$PxSerializerDefaultAdapter@VNpArticulationFixedTendon@physx@@@physx@@UEBA_KXZ 0000000180073f70 f i NpSerializerAdapter.obj
 0001:00072f80       ?getClassSize@?$PxSerializerDefaultAdapter@VNpArticulationJointReducedCoordinate@physx@@@physx@@UEBA_KXZ 0000000180073f80 f i NpSerializerAdapter.obj
 0001:00072f90       ?getClassSize@?$PxSerializerDefaultAdapter@VNpArticulationLink@physx@@@physx@@UEBA_KXZ 0000000180073f90 f i NpSerializerAdapter.obj
 0001:00072fa0       ?getClassSize@?$PxSerializerDefaultAdapter@VNpArticulationReducedCoordinate@physx@@@physx@@UEBA_KXZ 0000000180073fa0 f i NpSerializerAdapter.obj
 0001:00072fb0       ?getClassSize@?$PxSerializerDefaultAdapter@VNpArticulationSensor@physx@@@physx@@UEBA_KXZ 0000000180073fb0 f i NpSerializerAdapter.obj
 0001:00072fc0       ?getClassSize@?$PxSerializerDefaultAdapter@VNpArticulationSpatialTendon@physx@@@physx@@UEBA_KXZ 0000000180073fc0 f i NpSerializerAdapter.obj
 0001:00072fd0       ?getClassSize@?$PxSerializerDefaultAdapter@VNpConstraint@physx@@@physx@@UEBA_KXZ 0000000180073fd0 f i NpSerializerAdapter.obj
 0001:00072fe0       ?getClassSize@?$PxSerializerDefaultAdapter@VNpMaterial@physx@@@physx@@UEBA_KXZ 0000000180073fe0 f i NpSerializerAdapter.obj
 0001:00072ff0       ?getClassSize@?$PxSerializerDefaultAdapter@VNpRigidDynamic@physx@@@physx@@UEBA_KXZ 0000000180073ff0 f i NpSerializerAdapter.obj
 0001:00073000       ?getClassSize@?$PxSerializerDefaultAdapter@VNpRigidStatic@physx@@@physx@@UEBA_KXZ 0000000180074000 f i NpSerializerAdapter.obj
 0001:00073010       ?getClassSize@?$PxSerializerDefaultAdapter@VNpShape@physx@@@physx@@UEBA_KXZ 0000000180074010 f i NpSerializerAdapter.obj
 0001:00073020       ?getClassSize@?$PxSerializerDefaultAdapter@VPruningStructure@Sq@physx@@@physx@@UEBA_KXZ 0000000180074020 f i NpSerializerAdapter.obj
 0001:00073030       ?getClassSize@?$PxSerializerDefaultAdapter@VRTreeTriangleMesh@Gu@physx@@@physx@@UEBA_KXZ 0000000180074030 f i NpSerializerAdapter.obj
 0001:00073040       ?process@RequiresCallback@?1??registerReferences@?$PxSerializerDefaultAdapter@VBV4TriangleMesh@Gu@physx@@@physx@@UEBAXAEAVPxBase@4@AEAVPxSerializationContext@4@@Z@UEAAX0@Z 0000000180074040 f i NpSerializerAdapter.obj
 0001:00073040       ?process@RequiresCallback@?1??registerReferences@?$PxSerializerDefaultAdapter@VConvexMesh@Gu@physx@@@physx@@UEBAXAEAVPxBase@4@AEAVPxSerializationContext@4@@Z@UEAAX0@Z 0000000180074040 f i NpSerializerAdapter.obj
 0001:00073040       ?process@RequiresCallback@?1??registerReferences@?$PxSerializerDefaultAdapter@VHeightField@Gu@physx@@@physx@@UEBAXAEAVPxBase@4@AEAVPxSerializationContext@4@@Z@UEAAX0@Z 0000000180074040 f i NpSerializerAdapter.obj
 0001:00073040       ?process@RequiresCallback@?1??registerReferences@?$PxSerializerDefaultAdapter@VNpAggregate@physx@@@physx@@UEBAXAEAVPxBase@4@AEAVPxSerializationContext@4@@Z@UEAAX0@Z 0000000180074040 f i NpSerializerAdapter.obj
 0001:00073040       ?process@RequiresCallback@?1??registerReferences@?$PxSerializerDefaultAdapter@VNpArticulationAttachment@physx@@@physx@@UEBAXAEAVPxBase@4@AEAVPxSerializationContext@4@@Z@UEAAX0@Z 0000000180074040 f i NpSerializerAdapter.obj
 0001:00073040       ?process@RequiresCallback@?1??registerReferences@?$PxSerializerDefaultAdapter@VNpArticulationFixedTendon@physx@@@physx@@UEBAXAEAVPxBase@4@AEAVPxSerializationContext@4@@Z@UEAAX0@Z 0000000180074040 f i NpSerializerAdapter.obj
 0001:00073040       ?process@RequiresCallback@?1??registerReferences@?$PxSerializerDefaultAdapter@VNpArticulationJointReducedCoordinate@physx@@@physx@@UEBAXAEAVPxBase@4@AEAVPxSerializationContext@4@@Z@UEAAX0@Z 0000000180074040 f i NpSerializerAdapter.obj
 0001:00073040       ?process@RequiresCallback@?1??registerReferences@?$PxSerializerDefaultAdapter@VNpArticulationLink@physx@@@physx@@UEBAXAEAVPxBase@4@AEAVPxSerializationContext@4@@Z@UEAAX0@Z 0000000180074040 f i NpSerializerAdapter.obj
 0001:00073040       ?process@RequiresCallback@?1??registerReferences@?$PxSerializerDefaultAdapter@VNpArticulationReducedCoordinate@physx@@@physx@@UEBAXAEAVPxBase@4@AEAVPxSerializationContext@4@@Z@UEAAX0@Z 0000000180074040 f i NpSerializerAdapter.obj
 0001:00073040       ?process@RequiresCallback@?1??registerReferences@?$PxSerializerDefaultAdapter@VNpArticulationSensor@physx@@@physx@@UEBAXAEAVPxBase@4@AEAVPxSerializationContext@4@@Z@UEAAX0@Z 0000000180074040 f i NpSerializerAdapter.obj
 0001:00073040       ?process@RequiresCallback@?1??registerReferences@?$PxSerializerDefaultAdapter@VNpArticulationSpatialTendon@physx@@@physx@@UEBAXAEAVPxBase@4@AEAVPxSerializationContext@4@@Z@UEAAX0@Z 0000000180074040 f i NpSerializerAdapter.obj
 0001:00073040       ?process@RequiresCallback@?1??registerReferences@?$PxSerializerDefaultAdapter@VNpArticulationTendonJoint@physx@@@physx@@UEBAXAEAVPxBase@4@AEAVPxSerializationContext@4@@Z@UEAAX0@Z 0000000180074040 f i NpSerializerAdapter.obj
 0001:00073040       ?process@RequiresCallback@?1??registerReferences@?$PxSerializerDefaultAdapter@VNpConstraint@physx@@@physx@@UEBAXAEAVPxBase@4@AEAVPxSerializationContext@4@@Z@UEAAX0@Z 0000000180074040 f i NpSerializerAdapter.obj
 0001:00073040       ?process@RequiresCallback@?1??registerReferences@?$PxSerializerDefaultAdapter@VNpRigidDynamic@physx@@@physx@@UEBAXAEAVPxBase@4@AEAVPxSerializationContext@4@@Z@UEAAX0@Z 0000000180074040 f i NpSerializerAdapter.obj
 0001:00073040       ?process@RequiresCallback@?1??registerReferences@?$PxSerializerDefaultAdapter@VNpRigidStatic@physx@@@physx@@UEBAXAEAVPxBase@4@AEAVPxSerializationContext@4@@Z@UEAAX0@Z 0000000180074040 f i NpSerializerAdapter.obj
 0001:00073040       ?process@RequiresCallback@?1??registerReferences@?$PxSerializerDefaultAdapter@VPruningStructure@Sq@physx@@@physx@@UEBAXAEAVPxBase@4@AEAVPxSerializationContext@4@@Z@UEAAX0@Z 0000000180074040 f i NpSerializerAdapter.obj
 0001:00073040       ?process@RequiresCallback@?1??registerReferences@?$PxSerializerDefaultAdapter@VRTreeTriangleMesh@Gu@physx@@@physx@@UEBAXAEAVPxBase@4@AEAVPxSerializationContext@4@@Z@UEAAX0@Z 0000000180074040 f i NpSerializerAdapter.obj
 0001:00073060       ?process@RequiresCallback@?1??registerReferences@?$PxSerializerDefaultAdapter@VNpShape@physx@@@physx@@UEBAXAEAVPxBase@4@AEAVPxSerializationContext@4@@Z@UEAAX0@Z 0000000180074060 f i NpSerializerAdapter.obj
 0001:000730a0       ?registerReferences@?$PxSerializerDefaultAdapter@VBV4TriangleMesh@Gu@physx@@@physx@@UEBAXAEAVPxBase@2@AEAVPxSerializationContext@2@@Z 00000001800740a0 f i NpSerializerAdapter.obj
 0001:000730a0       ?registerReferences@?$PxSerializerDefaultAdapter@VRTreeTriangleMesh@Gu@physx@@@physx@@UEBAXAEAVPxBase@2@AEAVPxSerializationContext@2@@Z 00000001800740a0 f i NpSerializerAdapter.obj
 0001:000730f0       ?registerReferences@?$PxSerializerDefaultAdapter@VConvexMesh@Gu@physx@@@physx@@UEBAXAEAVPxBase@2@AEAVPxSerializationContext@2@@Z 00000001800740f0 f i NpSerializerAdapter.obj
 0001:000730f0       ?registerReferences@?$PxSerializerDefaultAdapter@VNpArticulationAttachment@physx@@@physx@@UEBAXAEAVPxBase@2@AEAVPxSerializationContext@2@@Z 00000001800740f0 f i NpSerializerAdapter.obj
 0001:000730f0       ?registerReferences@?$PxSerializerDefaultAdapter@VNpArticulationSpatialTendon@physx@@@physx@@UEBAXAEAVPxBase@2@AEAVPxSerializationContext@2@@Z 00000001800740f0 f i NpSerializerAdapter.obj
 0001:00073140       ?registerReferences@?$PxSerializerDefaultAdapter@VHeightField@Gu@physx@@@physx@@UEBAXAEAVPxBase@2@AEAVPxSerializationContext@2@@Z 0000000180074140 f i NpSerializerAdapter.obj
 0001:00073140       ?registerReferences@?$PxSerializerDefaultAdapter@VNpArticulationFixedTendon@physx@@@physx@@UEBAXAEAVPxBase@2@AEAVPxSerializationContext@2@@Z 0000000180074140 f i NpSerializerAdapter.obj
 0001:00073190       ?registerReferences@?$PxSerializerDefaultAdapter@VNpAggregate@physx@@@physx@@UEBAXAEAVPxBase@2@AEAVPxSerializationContext@2@@Z 0000000180074190 f i NpSerializerAdapter.obj
 0001:000731e0       ?registerReferences@?$PxSerializerDefaultAdapter@VNpArticulationJointReducedCoordinate@physx@@@physx@@UEBAXAEAVPxBase@2@AEAVPxSerializationContext@2@@Z 00000001800741e0 f i NpSerializerAdapter.obj
 0001:00073230       ?registerReferences@?$PxSerializerDefaultAdapter@VNpArticulationLink@physx@@@physx@@UEBAXAEAVPxBase@2@AEAVPxSerializationContext@2@@Z 0000000180074230 f i NpSerializerAdapter.obj
 0001:00073280       ?registerReferences@?$PxSerializerDefaultAdapter@VNpArticulationReducedCoordinate@physx@@@physx@@UEBAXAEAVPxBase@2@AEAVPxSerializationContext@2@@Z 0000000180074280 f i NpSerializerAdapter.obj
 0001:000732d0       ?registerReferences@?$PxSerializerDefaultAdapter@VNpArticulationSensor@physx@@@physx@@UEBAXAEAVPxBase@2@AEAVPxSerializationContext@2@@Z 00000001800742d0 f i NpSerializerAdapter.obj
 0001:00073320       ?registerReferences@?$PxSerializerDefaultAdapter@VNpArticulationTendonJoint@physx@@@physx@@UEBAXAEAVPxBase@2@AEAVPxSerializationContext@2@@Z 0000000180074320 f i NpSerializerAdapter.obj
 0001:00073370       ?registerReferences@?$PxSerializerDefaultAdapter@VNpConstraint@physx@@@physx@@UEBAXAEAVPxBase@2@AEAVPxSerializationContext@2@@Z 0000000180074370 f i NpSerializerAdapter.obj
 0001:000733c0       ?registerReferences@?$PxSerializerDefaultAdapter@VNpMaterial@physx@@@physx@@UEBAXAEAVPxBase@2@AEAVPxSerializationContext@2@@Z 00000001800743c0 f i NpSerializerAdapter.obj
 0001:00073410       ?registerReferences@?$PxSerializerDefaultAdapter@VNpRigidDynamic@physx@@@physx@@UEBAXAEAVPxBase@2@AEAVPxSerializationContext@2@@Z 0000000180074410 f i NpSerializerAdapter.obj
 0001:00073460       ?registerReferences@?$PxSerializerDefaultAdapter@VNpRigidStatic@physx@@@physx@@UEBAXAEAVPxBase@2@AEAVPxSerializationContext@2@@Z 0000000180074460 f i NpSerializerAdapter.obj
 0001:000734b0       ?registerReferences@?$PxSerializerDefaultAdapter@VNpShape@physx@@@physx@@UEBAXAEAVPxBase@2@AEAVPxSerializationContext@2@@Z 00000001800744b0 f i NpSerializerAdapter.obj
 0001:00073500       ?registerReferences@?$PxSerializerDefaultAdapter@VPruningStructure@Sq@physx@@@physx@@UEBAXAEAVPxBase@2@AEAVPxSerializationContext@2@@Z 0000000180074500 f i NpSerializerAdapter.obj
 0001:00073550       ?requiresObjects@?$PxSerializerDefaultAdapter@VBV4TriangleMesh@Gu@physx@@@physx@@UEBAXAEAVPxBase@2@AEAVPxProcessPxBaseCallback@2@@Z 0000000180074550 f i NpSerializerAdapter.obj
 0001:00073550       ?requiresObjects@?$PxSerializerDefaultAdapter@VNpMaterial@physx@@@physx@@UEBAXAEAVPxBase@2@AEAVPxProcessPxBaseCallback@2@@Z 0000000180074550 f i NpSerializerAdapter.obj
 0001:00073550       ?requiresObjects@?$PxSerializerDefaultAdapter@VRTreeTriangleMesh@Gu@physx@@@physx@@UEBAXAEAVPxBase@2@AEAVPxProcessPxBaseCallback@2@@Z 0000000180074550 f i NpSerializerAdapter.obj
 0001:00073560       ?requiresObjects@?$PxSerializerDefaultAdapter@VConvexMesh@Gu@physx@@@physx@@UEBAXAEAVPxBase@2@AEAVPxProcessPxBaseCallback@2@@Z 0000000180074560 f i NpSerializerAdapter.obj
 0001:00073560       ?requiresObjects@?$PxSerializerDefaultAdapter@VNpArticulationAttachment@physx@@@physx@@UEBAXAEAVPxBase@2@AEAVPxProcessPxBaseCallback@2@@Z 0000000180074560 f i NpSerializerAdapter.obj
 0001:00073560       ?requiresObjects@?$PxSerializerDefaultAdapter@VNpArticulationSpatialTendon@physx@@@physx@@UEBAXAEAVPxBase@2@AEAVPxProcessPxBaseCallback@2@@Z 0000000180074560 f i NpSerializerAdapter.obj
 0001:00073570       ?requiresObjects@?$PxSerializerDefaultAdapter@VHeightField@Gu@physx@@@physx@@UEBAXAEAVPxBase@2@AEAVPxProcessPxBaseCallback@2@@Z 0000000180074570 f i NpSerializerAdapter.obj
 0001:00073570       ?requiresObjects@?$PxSerializerDefaultAdapter@VNpArticulationFixedTendon@physx@@@physx@@UEBAXAEAVPxBase@2@AEAVPxProcessPxBaseCallback@2@@Z 0000000180074570 f i NpSerializerAdapter.obj
 0001:00073580       ?requiresObjects@?$PxSerializerDefaultAdapter@VNpAggregate@physx@@@physx@@UEBAXAEAVPxBase@2@AEAVPxProcessPxBaseCallback@2@@Z 0000000180074580 f i NpSerializerAdapter.obj
 0001:00073590       ?requiresObjects@?$PxSerializerDefaultAdapter@VNpArticulationJointReducedCoordinate@physx@@@physx@@UEBAXAEAVPxBase@2@AEAVPxProcessPxBaseCallback@2@@Z 0000000180074590 f i NpSerializerAdapter.obj
 0001:000735a0       ?requiresObjects@?$PxSerializerDefaultAdapter@VNpArticulationReducedCoordinate@physx@@@physx@@UEBAXAEAVPxBase@2@AEAVPxProcessPxBaseCallback@2@@Z 00000001800745a0 f i NpSerializerAdapter.obj
 0001:000735b0       ?requiresObjects@?$PxSerializerDefaultAdapter@VNpArticulationSensor@physx@@@physx@@UEBAXAEAVPxBase@2@AEAVPxProcessPxBaseCallback@2@@Z 00000001800745b0 f i NpSerializerAdapter.obj
 0001:000735c0       ?requiresObjects@?$PxSerializerDefaultAdapter@VNpArticulationTendonJoint@physx@@@physx@@UEBAXAEAVPxBase@2@AEAVPxProcessPxBaseCallback@2@@Z 00000001800745c0 f i NpSerializerAdapter.obj
 0001:000735d0       ?requiresObjects@?$PxSerializerDefaultAdapter@VNpConstraint@physx@@@physx@@UEBAXAEAVPxBase@2@AEAVPxProcessPxBaseCallback@2@@Z 00000001800745d0 f i NpSerializerAdapter.obj
 0001:000735e0       ?requiresObjects@?$PxSerializerDefaultAdapter@VNpRigidDynamic@physx@@@physx@@UEBAXAEAVPxBase@2@AEAVPxProcessPxBaseCallback@2@@Z 00000001800745e0 f i NpSerializerAdapter.obj
 0001:000735f0       ?requiresObjects@?$PxSerializerDefaultAdapter@VNpRigidStatic@physx@@@physx@@UEBAXAEAVPxBase@2@AEAVPxProcessPxBaseCallback@2@@Z 00000001800745f0 f i NpSerializerAdapter.obj
 0001:00073600       ?requiresObjects@?$PxSerializerDefaultAdapter@VNpShape@physx@@@physx@@UEBAXAEAVPxBase@2@AEAVPxProcessPxBaseCallback@2@@Z 0000000180074600 f i NpSerializerAdapter.obj
 0001:00073610       PxRegisterPhysicsSerializers 0000000180074610 f   NpSerializerAdapter.obj
 0001:00073c10       PxUnregisterPhysicsSerializers 0000000180074c10 f   NpSerializerAdapter.obj
 0001:00074110       ??$scGetMaterials@VPxFEMSoftBodyMaterial@physx@@VNpFEMSoftBodyMaterial@2@@NpShape@physx@@AEBAIPEAPEAVPxFEMSoftBodyMaterial@1@II@Z 0000000180075110 f i NpShape.obj
 0001:000741b0       ??$scGetMaterials@VPxMaterial@physx@@VNpMaterial@2@@NpShape@physx@@AEBAIPEAPEAVPxMaterial@1@II@Z 00000001800751b0 f i NpShape.obj
 0001:00074250       ??$setMaterialsHelper@VPxFEMSoftBodyMaterial@physx@@VNpFEMSoftBodyMaterial@2@@NpShape@physx@@AEAA_NPEBQEAVPxFEMSoftBodyMaterial@1@G@Z 0000000180075250 f i NpShape.obj
 0001:000743b0       ??$setMaterialsHelper@VPxMaterial@physx@@VNpMaterial@2@@NpShape@physx@@AEAA_NPEBQEAVPxMaterial@1@G@Z 00000001800753b0 f i NpShape.obj
 0001:00074510       ??$setMaterialsInternal@VPxFEMSoftBodyMaterial@physx@@VNpFEMSoftBodyMaterial@2@@NpShape@physx@@AEAAXPEBQEAVPxFEMSoftBodyMaterial@1@G@Z 0000000180075510 f i NpShape.obj
 0001:000746a0       ??$setMaterialsInternal@VPxMaterial@physx@@VNpMaterial@2@@NpShape@physx@@AEAAXPEBQEAVPxMaterial@1@G@Z 00000001800756a0 f i NpShape.obj
 0001:00074830       ??0NpShape@physx@@QEAA@AEBVPxGeometry@1@V?$PxFlags@W4Enum@PxShapeFlag@physx@@E@1@PEBGG_NW4Enum@PxShapeCoreFlag@1@@Z 0000000180075830 f   NpShape.obj
 0001:00074900       ??_ENpShape@physx@@UEAAPEAXI@Z 0000000180075900 f i NpShape.obj
 0001:00074900       ??_GNpShape@physx@@UEAAPEAXI@Z 0000000180075900 f i NpShape.obj
 0001:00074a90       ?acquireReference@NpFEMSoftBodyMaterial@physx@@UEAAXXZ 0000000180075a90 f   NpFEMSoftBodyMaterial.obj
 0001:00074a90       ?acquireReference@NpMaterial@physx@@UEAAXXZ 0000000180075a90 f   NpMaterial.obj
 0001:00074a90       ?acquireReference@NpPBDMaterial@physx@@UEAAXXZ 0000000180075a90 f   NpPBDMaterial.obj
 0001:00074a90       ?acquireReference@NpShape@physx@@UEAAXXZ 0000000180075a90 f   NpShape.obj
 0001:00074aa0       ?createObject@NpShape@physx@@SAPEAV12@AEAPEAEAEAVPxDeserializationContext@2@@Z 0000000180075aa0 f   NpShape.obj
 0001:00074c30       ?exportExtraData@NpShape@physx@@UEAAXAEAVPxSerializationContext@2@@Z 0000000180075c30 f   NpShape.obj
 0001:00074c70       ?getActor@NpShape@physx@@UEBAPEAVPxRigidActor@2@XZ 0000000180075c70 f   NpShape.obj
 0001:00074cb0       ?getConcreteTypeName@PxShape@physx@@UEBAPEBDXZ 0000000180075cb0 f i NpShape.obj
 0001:00074cc0       ?getContactOffset@NpShape@physx@@UEBAMXZ 0000000180075cc0 f   NpShape.obj
 0001:00074cd0       ?getDensityForFluid@NpShape@physx@@UEBAMXZ 0000000180075cd0 f   NpShape.obj
 0001:00074ce0       ?getFlags@NpShape@physx@@UEBA?AV?$PxFlags@W4Enum@PxShapeFlag@physx@@E@2@XZ 0000000180075ce0 f   NpShape.obj
 0001:00074cf0       ?getGeometry@NpShape@physx@@UEBAAEBVPxGeometry@2@XZ 0000000180075cf0 f   NpShape.obj
 0001:00074d00       ?getInternalShapeIndex@NpShape@physx@@UEBAIXZ 0000000180075d00 f   NpShape.obj
 0001:00074d40       ?getLocalPose@NpShape@physx@@UEBA?AV?$PxTransformT@M@2@XZ 0000000180075d40 f   NpShape.obj
 0001:00074d70       ?getMaterialFromInternalFaceIndex@NpShape@physx@@UEBAPEAVPxBaseMaterial@2@I@Z 0000000180075d70 f   NpShape.obj
 0001:00074e70       ?getMaterials@NpShape@physx@@UEBAIPEAPEAVPxMaterial@2@II@Z 0000000180075e70 f   NpShape.obj
 0001:00074e80       ?getNbMaterials@NpShape@physx@@UEBAGXZ 0000000180075e80 f   NpShape.obj
 0001:00074e90       ?getQueryFilterData@NpShape@physx@@UEBA?AUPxFilterData@2@XZ 0000000180075e90 f   NpShape.obj
 0001:00074ec0       ?getRestOffset@NpShape@physx@@UEBAMXZ 0000000180075ec0 f   NpShape.obj
 0001:00074ed0       ?getSimulationFilterData@NpShape@physx@@UEBA?AUPxFilterData@2@XZ 0000000180075ed0 f   NpShape.obj
 0001:00074ef0       ?getSoftBodyMaterials@NpShape@physx@@UEBAIPEAPEAVPxFEMSoftBodyMaterial@2@II@Z 0000000180075ef0 f   NpShape.obj
 0001:00074f00       ?isExclusive@NpShape@physx@@UEBA_NXZ 0000000180075f00 f   NpShape.obj
 0001:00074f10       ?isKindOf@PxShape@physx@@MEBA_NPEBD@Z 0000000180075f10 f i NpShape.obj
 0001:00074fa0       ?notifyActorAndUpdatePVD@NpShape@physx@@AEAAXV?$PxFlags@W4Enum@ShapeChangeNotifyFlag@Sc@physx@@I@2@@Z 0000000180075fa0 f   NpShape.obj
 0001:00075050       ?onActorAttach@NpShape@physx@@QEAAXAEAVPxActor@2@@Z 0000000180076050 f   NpShape.obj
 0001:00075090       ?onActorDetach@NpShape@physx@@QEAAXXZ 0000000180076090 f   NpShape.obj
 0001:000750e0       ?onRefCountZero@NpShape@physx@@UEAAXXZ 00000001800760e0 f   NpShape.obj
 0001:00075110       ?preExportDataReset@NpShape@physx@@QEAAXXZ 0000000180076110 f   NpShape.obj
 0001:00075130       ?release@NpFEMSoftBodyMaterial@physx@@UEAAXXZ 0000000180076130 f   NpFEMSoftBodyMaterial.obj
 0001:00075130       ?release@NpMaterial@physx@@UEAAXXZ 0000000180076130 f   NpMaterial.obj
 0001:00075130       ?release@NpPBDMaterial@physx@@UEAAXXZ 0000000180076130 f   NpPBDMaterial.obj
 0001:00075130       ?release@NpShape@physx@@UEAAXXZ 0000000180076130 f   NpShape.obj
 0001:00075130       ?releaseInternal@NpShape@physx@@QEAAXXZ 0000000180076130 f   NpShape.obj
 0001:00075160       ?requiresObjects@NpShape@physx@@UEAAXAEAVPxProcessPxBaseCallback@2@@Z 0000000180076160 f   NpShape.obj
 0001:00075220       ?setContactOffset@NpShape@physx@@UEAAXM@Z 0000000180076220 f   NpShape.obj
 0001:000752c0       ?setDensityForFluid@NpShape@physx@@UEAAXM@Z 00000001800762c0 f   NpShape.obj
 0001:00075350       ?setFlag@NpShape@physx@@UEAAXW4Enum@PxShapeFlag@2@_N@Z 0000000180076350 f   NpShape.obj
 0001:00075440       ?setFlags@NpShape@physx@@UEAAXV?$PxFlags@W4Enum@PxShapeFlag@physx@@E@2@@Z 0000000180076440 f   NpShape.obj
 0001:00075510       ?setFlagsInternal@NpShape@physx@@AEAAXV?$PxFlags@W4Enum@PxShapeFlag@physx@@E@2@@Z 0000000180076510 f   NpShape.obj
 0001:00075720       ?setGeometry@NpShape@physx@@UEAAXAEBVPxGeometry@2@@Z 0000000180076720 f   NpShape.obj
 0001:00075910       ?setLocalPose@NpShape@physx@@UEAAXAEBV?$PxTransformT@M@2@@Z 0000000180076910 f   NpShape.obj
 0001:00075ae0       ?setMaterials@NpShape@physx@@UEAAXPEBQEAVPxMaterial@2@G@Z 0000000180076ae0 f   NpShape.obj
 0001:00075af0       ?setMinTorsionalPatchRadius@NpShape@physx@@UEAAXM@Z 0000000180076af0 f   NpShape.obj
 0001:00075b90       ?setName@NpShape@physx@@UEAAXPEBD@Z 0000000180076b90 f   NpShape.obj
 0001:00075bc0       ?setQueryFilterData@NpShape@physx@@UEAAXAEBUPxFilterData@2@@Z 0000000180076bc0 f   NpShape.obj
 0001:00075c90       ?setRestOffset@NpShape@physx@@UEAAXM@Z 0000000180076c90 f   NpShape.obj
 0001:00075d30       ?setSimulationFilterData@NpShape@physx@@UEAAXAEBUPxFilterData@2@@Z 0000000180076d30 f   NpShape.obj
