 PhysX_64

 Timestamp is 6505415b (Sat Sep 16 11:17:07 2023)

 Preferred load address is 0000000180000000

 Start         Length     Name                   Class
 0001:00000000 00003310H .text$di                CODE
 0001:00003310 00192050H .text$mn                CODE
 0001:00195360 00000040H .text$mn$00             CODE
 0001:001953a0 00000680H .text$x                 CODE
 0001:00195a20 0000000fH .text$yd                CODE
 0002:00000000 000002b0H .idata$5                DATA
 0002:000002b0 00000038H .00cfg                  DATA
 0002:000002e8 00000008H .CRT$XCA                DATA
 0002:000002f0 00001940H .CRT$XCU                DATA
 0002:00001c30 00000008H .CRT$XCZ                DATA
 0002:00001c38 00000008H .CRT$XIA                DATA
 0002:00001c40 00000018H .CRT$XIC                DATA
 0002:00001c58 00000008H .CRT$XIZ                DATA
 0002:00001c60 00000008H .CRT$XPA                DATA
 0002:00001c68 00000010H .CRT$XPX                DATA
 0002:00001c78 00000008H .CRT$XPXA               DATA
 0002:00001c80 00000008H .CRT$XPZ                DATA
 0002:00001c88 00000008H .CRT$XTA                DATA
 0002:00001c90 00000010H .CRT$XTZ                DATA
 0002:00001c98 00000000H .gehcont$y              DATA
 0002:00001c98 00000000H .gfids$y                DATA
 0002:00001ca0 00023960H .rdata                  DATA
 0002:00025600 00000000H .rdata$CastGuardVftablesA DATA
 0002:00025600 00000000H .rdata$CastGuardVftablesC DATA
 0002:00025600 0000043cH .rdata$r                DATA
 0002:00025a3c 00000c6cH .rdata$voltmd           DATA
 0002:000266a8 00000428H .rdata$zzzdbg           DATA
 0002:00026ad0 00000008H .rtc$IAA                DATA
 0002:00026ad8 00000008H .rtc$IZZ                DATA
 0002:00026ae0 00000008H .rtc$TAA                DATA
 0002:00026ae8 00000008H .rtc$TZZ                DATA
 0002:00026af0 00017850H .xdata                  DATA
 0002:0003e340 00000084H .xdata$x                DATA
 0002:0003e3c4 00000040H .didat$2                DATA
 0002:0003e404 00000024H .didat$3                DATA
 0002:0003e428 00000710H .didat$4                DATA
 0002:0003eb38 00004f48H .didat$6                DATA
 0002:00043a80 00000710H .didat$7                DATA
 0002:00044190 00002ce4H .edata                  DATA
 0002:00046e74 00000014H .idata$2                DATA
 0002:00046e88 00000018H .idata$3                DATA
 0002:00046ea0 000002b0H .idata$4                DATA
 0002:00047150 00000636H .idata$6                DATA
 0003:00000000 00001c40H .data                   DATA
 0003:00001c40 00003630H .data$r                 DATA
 0003:00005270 000000f0H .data$rs                DATA
 0003:00005360 00000710H .didat$5                DATA
 0003:00005a70 000045e0H .bss                    DATA
 0004:00000000 00013e30H .pdata                  DATA
 0005:00000000 0000236cH _RDATA                  DATA
 0006:00000000 000000a0H .rsrc$01                DATA
 0006:000000a0 00000488H .rsrc$02                DATA

  Address         Publics by Value              Rva+Base               Lib:Object

 0000:00000000       __AbsoluteZero             0000000000000000     <absolute>
 0000:00000000       ___safe_se_handler_count   0000000000000000     <absolute>
 0000:00000000       ___safe_se_handler_table   0000000000000000     <absolute>
 0000:00000000       __arm64x_extra_rfe_table   0000000000000000     <absolute>
 0000:00000000       __arm64x_extra_rfe_table_size 0000000000000000     <absolute>
 0000:00000000       __arm64x_native_entrypoint 0000000000000000     <absolute>
 0000:00000000       __arm64x_redirection_metadata 0000000000000000     <absolute>
 0000:00000000       __arm64x_redirection_metadata_count 0000000000000000     <absolute>
 0000:00000000       __dynamic_value_reloc_table 0000000000000000     <absolute>
 0000:00000000       __enclave_config           0000000000000000     <absolute>
 0000:00000000       __guard_check_icall_a64n_fptr 0000000000000000     <absolute>
 0000:00000000       __guard_eh_cont_count      0000000000000000     <absolute>
 0000:00000000       __guard_eh_cont_table      0000000000000000     <absolute>
 0000:00000000       __guard_fids_count         0000000000000000     <absolute>
 0000:00000000       __guard_fids_table         0000000000000000     <absolute>
 0000:00000000       __guard_iat_count          0000000000000000     <absolute>
 0000:00000000       __guard_iat_table          0000000000000000     <absolute>
 0000:00000000       __guard_longjmp_count      0000000000000000     <absolute>
 0000:00000000       __guard_longjmp_table      0000000000000000     <absolute>
 0000:00000000       __hybrid_auxiliary_delayload_iat 0000000000000000     <absolute>
 0000:00000000       __hybrid_auxiliary_delayload_iat_copy 0000000000000000     <absolute>
 0000:00000000       __hybrid_auxiliary_iat     0000000000000000     <absolute>
 0000:00000000       __hybrid_auxiliary_iat_copy 0000000000000000     <absolute>
 0000:00000000       __hybrid_code_map          0000000000000000     <absolute>
 0000:00000000       __hybrid_code_map_count    0000000000000000     <absolute>
 0000:00000000       __hybrid_image_info_bitfield 0000000000000000     <absolute>
 0000:00000000       __x64_code_ranges_to_entry_points 0000000000000000     <absolute>
 0000:00000000       __x64_code_ranges_to_entry_points_count 0000000000000000     <absolute>
 0000:00000100       __guard_flags              0000000000000100     <absolute>
 0000:00000000       __ImageBase                0000000180000000     <linker-defined>
 0001:00003310       ??0PxFoundation@physx@@QEAA@AEBV01@@Z 0000000180004310 f i NpOmniPvd.obj
 0001:00003310       ??0PxFoundation@physx@@QEAA@XZ 0000000180004310 f i NpOmniPvd.obj
 0001:00003320       ??1PxFoundation@physx@@MEAA@XZ 0000000180004320 f i NpOmniPvd.obj
 0001:00003330       ??0PxGeometryGeneratedInfo@physx@@QEAA@XZ 0000000180004330 f i PxAutoGeneratedMetaDataObjects.obj
 0001:00003330       ??0PxGeometryGeneratedValues@physx@@QEAA@PEBVPxGeometry@1@@Z 0000000180004330 f i PxAutoGeneratedMetaDataObjects.obj
 0001:00003330       ??0PxPlaneGeometryGeneratedInfo@physx@@QEAA@XZ 0000000180004330 f i PxAutoGeneratedMetaDataObjects.obj
 0001:00003330       ??0PxPlaneGeometryGeneratedValues@physx@@QEAA@PEBVPxPlaneGeometry@1@@Z 0000000180004330 f i PxAutoGeneratedMetaDataObjects.obj
 0001:00003330       ??4PxFoundation@physx@@QEAAAEAV01@AEBV01@@Z 0000000180004330 f i NpOmniPvd.obj
 0001:00003330       ??4PxMutexImpl@physx@@QEAAAEAV01@AEBV01@@Z 0000000180004330 f i NpPvdSceneQueryCollector.obj
 0001:00003330       ??4PxSListImpl@physx@@QEAAAEAU01@AEBU01@@Z 0000000180004330 f i NpActor.obj
 0001:00003330       ??4PxSyncImpl@physx@@QEAAAEAV01@AEBV01@@Z 0000000180004330 f i NpActor.obj
 0001:00003330       ??4PxThreadImpl@physx@@QEAAAEAV01@AEBV01@@Z 0000000180004330 f i NpActor.obj
 0001:00003340       ??_EPxFoundation@physx@@MEAAPEAXI@Z 0000000180004340 f i NpOmniPvd.obj
 0001:000033d0       ?addClothAttachment@NpSoftBody@physx@@UEAAIPEAVPxFEMCloth@2@IAEBV?$PxVec4T@M@2@I1PEAUPxConeLimitedConstraint@2@M@Z 00000001800043d0 f   NpSoftBody.obj
 0001:000033d0       ?addClothAttachment@PxsSimulationController@physx@@UEAAIPEAVSoftBody@Dy@2@PEAVFEMCloth@42@IAEBV?$PxVec4T@M@2@I2PEAUPxConeLimitedConstraint@2@M_N@Z 00000001800043d0 f   SimulationController_static_64:ScScene.obj
 0001:000033d0       ?addParticleAttachment@PxsSimulationController@physx@@UEAAIPEAVSoftBody@Dy@2@PEBVParticleSystem@42@IIIAEBV?$PxVec4T@M@2@_N@Z 00000001800043d0 f   SimulationController_static_64:ScScene.obj
 0001:000033d0       ?addRigidAttachment@PxsSimulationController@physx@@UEAAIPEAVFEMCloth@Dy@2@AEBVPxNodeIndex@2@PEAVPxsRigidBody@2@1IAEBV?$PxVec3T@M@2@PEAUPxConeLimitedConstraint@2@_N@Z 00000001800043d0 f   SimulationController_static_64:ScScene.obj
 0001:000033d0       ?addRigidAttachment@PxsSimulationController@physx@@UEAAIPEAVSoftBody@Dy@2@AEBVPxNodeIndex@2@PEAVPxsRigidBody@2@1IAEBV?$PxVec3T@M@2@PEAUPxConeLimitedConstraint@2@_N@Z 00000001800043d0 f   SimulationController_static_64:ScScene.obj
 0001:000033d0       ?addSoftBodyAttachment@PxsSimulationController@physx@@UEAAIPEAVSoftBody@Dy@2@0IIAEBV?$PxVec4T@M@2@1PEAUPxConeLimitedConstraint@2@M_N@Z 00000001800043d0 f   SimulationController_static_64:ScScene.obj
 0001:000033d0       ?addTetRigidAttachment@PxsSimulationController@physx@@UEAAIPEAVSoftBody@Dy@2@PEAVPxsRigidBody@2@AEBVPxNodeIndex@2@IAEBV?$PxVec4T@M@2@AEBV?$PxVec3T@M@2@PEAUPxConeLimitedConstraint@2@_N@Z 00000001800043d0 f   SimulationController_static_64:ScScene.obj
 0001:000033d0       ?addTriClothAttachment@PxsSimulationController@physx@@UEAAIPEAVFEMCloth@Dy@2@0IIAEBV?$PxVec4T@M@2@1_N@Z 00000001800043d0 f   SimulationController_static_64:ScScene.obj
 0001:000033d0       ?addTriRigidAttachment@PxsSimulationController@physx@@UEAAIPEAVFEMCloth@Dy@2@PEAVPxsRigidBody@2@AEBVPxNodeIndex@2@IAEBV?$PxVec4T@M@2@AEBV?$PxVec3T@M@2@PEAUPxConeLimitedConstraint@2@_N@Z 00000001800043d0 f   SimulationController_static_64:ScScene.obj
 0001:000033d0       ?createFEMCloth@NpPhysics@physx@@UEAAPEAVPxFEMCloth@2@AEAVPxCudaContextManager@2@@Z 00000001800043d0 f   NpPhysics.obj
 0001:000033d0       ?createFEMClothMaterial@NpPhysics@physx@@UEAAPEAVPxFEMClothMaterial@2@MMM@Z 00000001800043d0 f   NpPhysics.obj
 0001:000033d0       ?createFLIPMaterial@NpPhysics@physx@@UEAAPEAVPxFLIPMaterial@2@MMMMM@Z 00000001800043d0 f   NpPhysics.obj
 0001:000033d0       ?createFLIPParticleSystem@NpPhysics@physx@@UEAAPEAVPxFLIPParticleSystem@2@AEAVPxCudaContextManager@2@@Z 00000001800043d0 f   NpPhysics.obj
 0001:000033d0       ?createHairSystem@NpPhysics@physx@@UEAAPEAVPxHairSystem@2@AEAVPxCudaContextManager@2@@Z 00000001800043d0 f   NpPhysics.obj
 0001:000033d0       ?createMPMMaterial@NpPhysics@physx@@UEAAPEAVPxMPMMaterial@2@MMM_NMMMMMMMMM@Z 00000001800043d0 f   NpPhysics.obj
 0001:000033d0       ?createMPMParticleSystem@NpPhysics@physx@@UEAAPEAVPxMPMParticleSystem@2@AEAVPxCudaContextManager@2@@Z 00000001800043d0 f   NpPhysics.obj
 0001:000033d0       ?createShape@NpPhysics@physx@@UEAAPEAVPxShape@2@AEBVPxGeometry@2@PEBQEAVPxFEMClothMaterial@2@G_NV?$PxFlags@W4Enum@PxShapeFlag@physx@@E@2@@Z 00000001800043d0 f   NpPhysics.obj
 0001:000033d0       ?getActivatedFEMCloths@PxsSimulationController@physx@@UEBAPEAPEAVFEMCloth@Dy@2@XZ 00000001800043d0 f   SimulationController_static_64:ScScene.obj
 0001:000033d0       ?getActivatedHairSystems@PxsSimulationController@physx@@UEBAPEAPEAVHairSystem@Dy@2@XZ 00000001800043d0 f   SimulationController_static_64:ScScene.obj
 0001:000033d0       ?getActivatedSoftbodies@PxsSimulationController@physx@@UEBAPEAPEAVSoftBody@Dy@2@XZ 00000001800043d0 f   SimulationController_static_64:ScScene.obj
 0001:000033d0       ?getActiveBodies@PxsSimulationController@physx@@UEAAPEAIXZ 00000001800043d0 f   SimulationController_static_64:ScScene.obj
 0001:000033d0       ?getClothMaterials@NpShape@physx@@UEBAIPEAPEAVPxFEMClothMaterial@2@II@Z 00000001800043d0 f   NpShape.obj
 0001:000033d0       ?getDeactivatedFEMCloths@PxsSimulationController@physx@@UEBAPEAPEAVFEMCloth@Dy@2@XZ 00000001800043d0 f   SimulationController_static_64:ScScene.obj
 0001:000033d0       ?getDeactivatedHairSystems@PxsSimulationController@physx@@UEBAPEAPEAVHairSystem@Dy@2@XZ 00000001800043d0 f   SimulationController_static_64:ScScene.obj
 0001:000033d0       ?getDeactivatedSoftbodies@PxsSimulationController@physx@@UEBAPEAPEAVSoftBody@Dy@2@XZ 00000001800043d0 f   SimulationController_static_64:ScScene.obj
 0001:000033d0       ?getDeactiveBodies@PxsSimulationController@physx@@UEAAPEAIXZ 00000001800043d0 f   SimulationController_static_64:ScScene.obj
 0001:000033d0       ?getFEMClothMaterials@NpPhysics@physx@@UEBAIPEAPEAVPxFEMClothMaterial@2@II@Z 00000001800043d0 f   NpPhysics.obj
 0001:000033d0       ?getFEMCloths@NpScene@physx@@UEBAIPEAPEAVPxFEMCloth@2@II@Z 00000001800043d0 f   NpScene.obj
 0001:000033d0       ?getFLIPMaterials@NpPhysics@physx@@UEBAIPEAPEAVPxFLIPMaterial@2@II@Z 00000001800043d0 f   NpPhysics.obj
 0001:000033d0       ?getFrozenShapes@PxsSimulationController@physx@@UEAAPEAIXZ 00000001800043d0 f   SimulationController_static_64:ScScene.obj
 0001:000033d0       ?getGPUContactManagerOutputBase@PxsNphaseImplementationContext@physx@@UEAAPEAUPxsContactManagerOutput@2@XZ 00000001800043d0 f   LowLevel_static_64:PxsNphaseImplementationContext.obj
 0001:000033d0       ?getGPURestDistances@PxsNphaseImplementationContext@physx@@UEAAPEAMXZ 00000001800043d0 f   LowLevel_static_64:PxsNphaseImplementationContext.obj
 0001:000033d0       ?getGPUShapeInteractions@PxsNphaseImplementationContext@physx@@UEAAPEAPEAVShapeInteraction@Sc@2@XZ 00000001800043d0 f   LowLevel_static_64:PxsNphaseImplementationContext.obj
 0001:000033d0       ?getGPUTorsionalData@PxsNphaseImplementationContext@physx@@UEAAPEAUPxsTorsionalFrictionData@2@XZ 00000001800043d0 f   LowLevel_static_64:PxsNphaseImplementationContext.obj
 0001:000033d0       ?getHairSystemWakeCounters@PxsSimulationController@physx@@UEBAPEBMXZ 00000001800043d0 f   SimulationController_static_64:ScScene.obj
 0001:000033d0       ?getHairSystems@NpScene@physx@@UEBAIPEAPEAVPxHairSystem@2@II@Z 00000001800043d0 f   NpScene.obj
 0001:000033d0       ?getMPMDataPointer@PxsSimulationController@physx@@UEAAPEAXAEBVParticleSystem@Dy@2@W4Enum@PxMPMParticleDataFlag@@@Z 00000001800043d0 f   SimulationController_static_64:ScScene.obj
 0001:000033d0       ?getMPMMaterials@NpPhysics@physx@@UEBAIPEAPEAVPxMPMMaterial@2@II@Z 00000001800043d0 f   NpPhysics.obj
 0001:000033d0       ?getNbActivatedFEMCloth@PxsSimulationController@physx@@UEBAIXZ 00000001800043d0 f   SimulationController_static_64:ScScene.obj
 0001:000033d0       ?getNbActivatedHairSystems@PxsSimulationController@physx@@UEBAIXZ 00000001800043d0 f   SimulationController_static_64:ScScene.obj
 0001:000033d0       ?getNbActivatedSoftbodies@PxsSimulationController@physx@@UEBAIXZ 00000001800043d0 f   SimulationController_static_64:ScScene.obj
 0001:000033d0       ?getNbBodies@PxsSimulationController@physx@@UEAAIXZ 00000001800043d0 f   SimulationController_static_64:ScScene.obj
 0001:000033d0       ?getNbDeactivatedFEMCloth@PxsSimulationController@physx@@UEBAIXZ 00000001800043d0 f   SimulationController_static_64:ScScene.obj
 0001:000033d0       ?getNbDeactivatedHairSystems@PxsSimulationController@physx@@UEBAIXZ 00000001800043d0 f   SimulationController_static_64:ScScene.obj
 0001:000033d0       ?getNbDeactivatedSoftbodies@PxsSimulationController@physx@@UEBAIXZ 00000001800043d0 f   SimulationController_static_64:ScScene.obj
 0001:000033d0       ?getNbFEMClothMaterials@NpPhysics@physx@@UEBAIXZ 00000001800043d0 f   NpPhysics.obj
 0001:000033d0       ?getNbFEMCloths@NpScene@physx@@UEBAIXZ 00000001800043d0 f   NpScene.obj
 0001:000033d0       ?getNbFLIPMaterials@NpPhysics@physx@@UEBAIXZ 00000001800043d0 f   NpPhysics.obj
 0001:000033d0       ?getNbFrozenShapes@PxsSimulationController@physx@@UEAAIXZ 00000001800043d0 f   SimulationController_static_64:ScScene.obj
 0001:000033d0       ?getNbHairSystems@NpScene@physx@@UEBAIXZ 00000001800043d0 f   NpScene.obj
 0001:000033d0       ?getNbMPMMaterials@NpPhysics@physx@@UEBAIXZ 00000001800043d0 f   NpPhysics.obj
 0001:000033d0       ?getNbOutOfBoundsObjects@BroadPhaseBase@Bp@physx@@UEBAIXZ 00000001800043d0 f   LowLevelAABB_static_64:BpBroadPhaseSap.obj
 0001:000033d0       ?getNbRegions@BroadPhaseBase@Bp@physx@@UEBAIXZ 00000001800043d0 f   LowLevelAABB_static_64:BpBroadPhaseSap.obj
 0001:000033d0       ?getNbShapes@PxsSimulationController@physx@@UEAAIXZ 00000001800043d0 f   SimulationController_static_64:ScScene.obj
 0001:000033d0       ?getNbUnfrozenShapes@PxsSimulationController@physx@@UEAAIXZ 00000001800043d0 f   SimulationController_static_64:ScScene.obj
 0001:000033d0       ?getNumCountedInteractions@ActorSim@Sc@physx@@UEBAIXZ 00000001800043d0 f   SimulationController_static_64:ScSoftBodySim.obj
 0001:000033d0       ?getOmniPvd@NpPhysics@physx@@UEAAPEAVPxOmniPvd@2@XZ 00000001800043d0 f   NpPhysics.obj
 0001:000033d0       ?getOutOfBoundsObjects@BroadPhaseBase@Bp@physx@@UEBAPEBIXZ 00000001800043d0 f   LowLevelAABB_static_64:BpBroadPhaseSap.obj
 0001:000033d0       ?getRegions@BroadPhaseBase@Bp@physx@@UEBAIPEAUPxBroadPhaseRegionInfo@3@II@Z 00000001800043d0 f   LowLevelAABB_static_64:BpBroadPhaseSap.obj
 0001:000033d0       ?getRigidBodies@PxsSimulationController@physx@@UEAAPEAPEAXXZ 00000001800043d0 f   SimulationController_static_64:ScScene.obj
 0001:000033d0       ?getScenePvdClient@NpScene@physx@@UEAAPEAVPxPvdSceneClient@2@XZ 00000001800043d0 f   NpScene.obj
 0001:000033d0       ?getShapeSims@PxsSimulationController@physx@@UEAAPEAPEAUPxsShapeSim@2@XZ 00000001800043d0 f   SimulationController_static_64:ScScene.obj
 0001:000033d0       ?getSoftBodyWakeCounters@PxsSimulationController@physx@@UEBAPEBMXZ 00000001800043d0 f   SimulationController_static_64:ScScene.obj
 0001:000033d0       ?getSolverType@DynamicsContext@Dy@physx@@UEBA?AW4Enum@PxSolverType@3@XZ 00000001800043d0 f   LowLevelDynamics_static_64:DyDynamics.obj
 0001:000033d0       ?getSparseGridDataPointer@PxsSimulationController@physx@@UEAAPEAXAEBVParticleSystem@Dy@2@W4Enum@PxSparseGridDataFlag@@W45PxParticleSolverType@2@@Z 00000001800043d0 f   SimulationController_static_64:ScScene.obj
 0001:000033d0       ?getType@BroadPhaseSap@Bp@physx@@UEBA?AW4Enum@PxBroadPhaseType@3@XZ 00000001800043d0 f   LowLevelAABB_static_64:BpBroadPhaseSap.obj
 0001:000033d0       ?getType@NpRigidStatic@physx@@UEBA?AW4Enum@PxActorType@2@XZ 00000001800043d0 f   NpRigidStatic.obj
 0001:000033d0       ?getUnfrozenShapes@PxsSimulationController@physx@@UEAAPEAIXZ 00000001800043d0 f   SimulationController_static_64:ScScene.obj
 0001:000033d0       PxCreateOmniPvd            00000001800043d0 f   NpOmniPvd.obj
 0001:000033d0       PxGetBroadPhaseStaticFilterGroup 00000001800043d0 f   NpImmediateMode.obj
 0001:000033e0       ??1ActorCore@Sc@physx@@QEAA@XZ 00000001800043e0 f i SimulationController_static_64:ScActorCore.obj
 0001:000033e0       ??1ArticulationCore@Sc@physx@@QEAA@XZ 00000001800043e0 f i SimulationController_static_64:ScArticulationCore.obj
 0001:000033e0       ??1ArticulationJointCore@Sc@physx@@QEAA@XZ 00000001800043e0 f i SimulationController_static_64:ScArticulationJointCore.obj
 0001:000033e0       ??1BpFilter@Bp@physx@@QEAA@XZ 00000001800043e0 f i LowLevelAABB_static_64:BpFiltering.obj
 0001:000033e0       ??1ConstraintInteraction@Sc@physx@@QEAA@XZ 00000001800043e0 f i SimulationController_static_64:ScConstraintInteraction.obj
 0001:000033e0       ??1PxsContactManager@physx@@QEAA@XZ 00000001800043e0 f i LowLevel_static_64:PxsContactManager.obj
 0001:000033e0       ??1SapPairManager@Bp@physx@@QEAA@XZ 00000001800043e0 f i LowLevelAABB_static_64:BpBroadPhaseSapAux.obj
 0001:000033e0       ?PxcClearContactCacheStats@@YAXXZ 00000001800043e0 f i LowLevel_static_64:PxcContactCache.obj
 0001:000033e0       ?PxcDisplayContactCacheStats@@YAXXZ 00000001800043e0 f i LowLevel_static_64:PxcContactCache.obj
 0001:000033e0       ?__empty_global_delete@@YAXPEAX_K@Z 00000001800043e0 f i OmniPvdChunkAlloc.obj
 0001:000033e0       ?__global_delete@@YAXPEAX_K@Z 00000001800043e0 f i OmniPvdChunkAlloc.obj
 0001:000033e0       ?acquireContext@PxsNphaseImplementationContext@physx@@UEAAXXZ 00000001800043e0 f i LowLevel_static_64:PxsNphaseImplementationContext.obj
 0001:000033e0       ?activateCloth@PxsSimulationController@physx@@UEAAXPEAVFEMCloth@Dy@2@@Z 00000001800043e0 f i SimulationController_static_64:ScScene.obj
 0001:000033e0       ?activateHairSystem@PxsSimulationController@physx@@UEAAXPEAVHairSystem@Dy@2@@Z 00000001800043e0 f i SimulationController_static_64:ScScene.obj
 0001:000033e0       ?activateSoftbody@PxsSimulationController@physx@@UEAAXPEAVSoftBody@Dy@2@@Z 00000001800043e0 f i SimulationController_static_64:ScScene.obj
 0001:000033e0       ?activateSoftbodySelfCollision@PxsSimulationController@physx@@UEAAXPEAVSoftBody@Dy@2@@Z 00000001800043e0 f i SimulationController_static_64:ScScene.obj
 0001:000033e0       ?addArticulation@PxsSimulationController@physx@@UEAAXPEAVFeatherstoneArticulation@Dy@2@AEBVPxNodeIndex@2@@Z 00000001800043e0 f i SimulationController_static_64:ScScene.obj
 0001:000033e0       ?addClothFilter@NpSoftBody@physx@@UEAAXPEAVPxFEMCloth@2@II@Z 00000001800043e0 f i NpSoftBody.obj
 0001:000033e0       ?addClothFilter@PxsSimulationController@physx@@UEAAXPEAVFEMCloth@Dy@2@0II@Z 00000001800043e0 f i SimulationController_static_64:ScScene.obj
 0001:000033e0       ?addClothFilter@PxsSimulationController@physx@@UEAAXPEAVSoftBody@Dy@2@PEAVFEMCloth@42@II@Z 00000001800043e0 f i SimulationController_static_64:ScScene.obj
 0001:000033e0       ?addDynamic@PxsSimulationController@physx@@UEAAXPEAVPxsRigidBody@2@AEBVPxNodeIndex@2@@Z 00000001800043e0 f i SimulationController_static_64:ScScene.obj
 0001:000033e0       ?addDynamics@PxsSimulationController@physx@@UEAAXPEAPEAVPxsRigidBody@2@PEBII@Z 00000001800043e0 f i SimulationController_static_64:ScScene.obj
 0001:000033e0       ?addFEMCloth@PxsSimulationController@physx@@UEAAXPEAVFEMCloth@Dy@2@AEBVPxNodeIndex@2@@Z 00000001800043e0 f i SimulationController_static_64:ScScene.obj
 0001:000033e0       ?addHairSystem@PxsSimulationController@physx@@UEAAXPEAVHairSystem@Dy@2@AEBVPxNodeIndex@2@@Z 00000001800043e0 f i SimulationController_static_64:ScScene.obj
 0001:000033e0       ?addJoint@PxsSimulationController@physx@@UEAAXIPEAUConstraint@Dy@2@AEAVIslandSim@IG@2@AEAV?$PxArray@IV?$PxReflectionAllocator@I@physx@@@2@AEAV?$PxArray@UPxgSolverConstraintManagerConstants@physx@@VPxVirtualAllocator@2@@2@I@Z 00000001800043e0 f i SimulationController_static_64:ScScene.obj
 0001:000033e0       ?addParticleFilter@PxsSimulationController@physx@@UEAAXPEAVSoftBody@Dy@2@PEAVParticleSystem@42@III@Z 00000001800043e0 f i SimulationController_static_64:ScScene.obj
 0001:000033e0       ?addParticleSystem@PxsSimulationController@physx@@UEAAXPEAVParticleSystem@Dy@2@AEBVPxNodeIndex@2@W4Enum@PxParticleSolverType@2@@Z 00000001800043e0 f i SimulationController_static_64:ScScene.obj
 0001:000033e0       ?addRigidFilter@PxsSimulationController@physx@@UEAAXPEAVFEMCloth@Dy@2@AEBVPxNodeIndex@2@I@Z 00000001800043e0 f i SimulationController_static_64:ScScene.obj
 0001:000033e0       ?addRigidFilter@PxsSimulationController@physx@@UEAAXPEAVSoftBody@Dy@2@AEBVPxNodeIndex@2@1I@Z 00000001800043e0 f i SimulationController_static_64:ScScene.obj
 0001:000033e0       ?addShape@PxsSimulationController@physx@@UEAAXPEAUPxsShapeSim@2@I@Z 00000001800043e0 f i SimulationController_static_64:ScScene.obj
 0001:000033e0       ?addSoftBody@PxsSimulationController@physx@@UEAAXPEAVSoftBody@Dy@2@AEBVPxNodeIndex@2@@Z 00000001800043e0 f i SimulationController_static_64:ScScene.obj
 0001:000033e0       ?addSoftBodyFilter@PxsSimulationController@physx@@UEAAXPEAVSoftBody@Dy@2@0II@Z 00000001800043e0 f i SimulationController_static_64:ScScene.obj
 0001:000033e0       ?addSoftBodyFilters@PxsSimulationController@physx@@UEAAXPEAVSoftBody@Dy@2@0PEAI1I@Z 00000001800043e0 f i SimulationController_static_64:ScScene.obj
 0001:000033e0       ?addTetRigidFilter@PxsSimulationController@physx@@UEAAXPEAVSoftBody@Dy@2@AEBVPxNodeIndex@2@I@Z 00000001800043e0 f i SimulationController_static_64:ScScene.obj
 0001:000033e0       ?addTriRigidFilter@PxsSimulationController@physx@@UEAAXPEAVFEMCloth@Dy@2@AEBVPxNodeIndex@2@I@Z 00000001800043e0 f i SimulationController_static_64:ScScene.obj
 0001:000033e0       ?applyActorData@PxsSimulationController@physx@@UEAAXPEAXPEAUPxGpuActorPair@2@W4Enum@PxActorCacheFlag@2@I00@Z 00000001800043e0 f i SimulationController_static_64:ScScene.obj
 0001:000033e0       ?applyArticulationData@PxsSimulationController@physx@@UEAAXPEAX0W4Enum@PxArticulationGpuDataType@2@I00@Z 00000001800043e0 f i SimulationController_static_64:ScScene.obj
 0001:000033e0       ?applyParticleBufferData@PxsSimulationController@physx@@UEAAXPEBIPEBUPxGpuParticleBufferIndexPair@2@PEBV?$PxFlags@W4Enum@PxParticleBufferFlag@physx@@I@2@IPEAX3@Z 00000001800043e0 f i SimulationController_static_64:ScScene.obj
 0001:000033e0       ?applySoftBodyData@PxsSimulationController@physx@@UEAAXPEAPEAXPEAX1W4Enum@PxSoftBodyGpuDataFlag@2@II1@Z 00000001800043e0 f i SimulationController_static_64:ScScene.obj
 0001:000033e0       ?clear@PxsSimulationController@physx@@UEAAXXZ 00000001800043e0 f i SimulationController_static_64:ScScene.obj
 0001:000033e0       ?clearOutOfBoundsObjects@AABBManagerBase@Bp@physx@@UEAAXXZ 00000001800043e0 f i LowLevelAABB_static_64:BpAABBManagerBase.obj
 0001:000033e0       ?clearShapesOnRelease@NpShapeManager@physx@@QEAAXAEAVNpScene@2@AEAVPxRigidActor@2@@Z 00000001800043e0 f i NpShapeManager.obj
 0001:000033e0       ?computeCoriolisAndCentrifugalForces@PxsSimulationController@physx@@UEAAXPEBUPxIndexDataPair@2@IPEAX@Z 00000001800043e0 f i SimulationController_static_64:ScScene.obj
 0001:000033e0       ?computeDenseJacobians@PxsSimulationController@physx@@UEAAXPEBUPxIndexDataPair@2@IPEAX@Z 00000001800043e0 f i SimulationController_static_64:ScScene.obj
 0001:000033e0       ?computeGeneralizedGravityForces@PxsSimulationController@physx@@UEAAXPEBUPxIndexDataPair@2@IAEBV?$PxVec3T@M@2@PEAX@Z 00000001800043e0 f i SimulationController_static_64:ScScene.obj
 0001:000033e0       ?computeGeneralizedMassMatrices@PxsSimulationController@physx@@UEAAXPEBUPxIndexDataPair@2@IPEAX@Z 00000001800043e0 f i SimulationController_static_64:ScScene.obj
 0001:000033e0       ?concludeContact@Dy@physx@@YAXAEBUPxSolverConstraintDesc@2@@Z 00000001800043e0 f i LowLevelDynamics_static_64:DyTGSContactPrep.obj
 0001:000033e0       ?copyArticulationData@PxsSimulationController@physx@@UEAAXPEAX0W4Enum@PxArticulationGpuDataType@2@I0@Z 00000001800043e0 f i SimulationController_static_64:ScScene.obj
 0001:000033e0       ?copyBodyData@PxsSimulationController@physx@@UEAAXPEAUPxGpuBodyData@2@PEAUPxGpuActorPair@2@IPEAX@Z 00000001800043e0 f i SimulationController_static_64:ScScene.obj
 0001:000033e0       ?copyContactData@PxsSimulationController@physx@@UEAAXPEAVContext@Dy@2@PEAXI11@Z 00000001800043e0 f i SimulationController_static_64:ScScene.obj
 0001:000033e0       ?copySoftBodyData@PxsSimulationController@physx@@UEAAXPEAPEAXPEAX1W4Enum@PxSoftBodyGpuDataFlag@2@II1@Z 00000001800043e0 f i SimulationController_static_64:ScScene.obj
 0001:000033e0       ?deactivateCloth@PxsSimulationController@physx@@UEAAXPEAVFEMCloth@Dy@2@@Z 00000001800043e0 f i SimulationController_static_64:ScScene.obj
 0001:000033e0       ?deactivateHairSystem@PxsSimulationController@physx@@UEAAXPEAVHairSystem@Dy@2@@Z 00000001800043e0 f i SimulationController_static_64:ScScene.obj
 0001:000033e0       ?deactivateSoftbody@PxsSimulationController@physx@@UEAAXPEAVSoftBody@Dy@2@@Z 00000001800043e0 f i SimulationController_static_64:ScScene.obj
 0001:000033e0       ?deactivateSoftbodySelfCollision@PxsSimulationController@physx@@UEAAXPEAVSoftBody@Dy@2@@Z 00000001800043e0 f i SimulationController_static_64:ScScene.obj
 0001:000033e0       ?evaluateSDFDistances@PxsSimulationController@physx@@UEAAXPEBIIPEBV?$PxVec4T@M@2@0IPEAV32@PEAX@Z 00000001800043e0 f i SimulationController_static_64:ScScene.obj
 0001:000033e0       ?exportData@?$NpParticleSystem@VPxPBDParticleSystem@physx@@@physx@@UEBAXAEAVPxSerializationContext@2@@Z 00000001800043e0 f i NpParticleSystem.obj
 0001:000033e0       ?exportExtraData@?$PxSerializerDefaultAdapter@VNpArticulationJointReducedCoordinate@physx@@@physx@@UEBAXAEAVPxBase@2@AEAVPxSerializationContext@2@@Z 00000001800043e0 f i NpSerializerAdapter.obj
 0001:000033e0       ?exportExtraData@?$PxSerializerDefaultAdapter@VNpConstraint@physx@@@physx@@UEBAXAEAVPxBase@2@AEAVPxSerializationContext@2@@Z 00000001800043e0 f i NpSerializerAdapter.obj
 0001:000033e0       ?exportExtraData@?$PxSerializerDefaultAdapter@VNpMaterial@physx@@@physx@@UEBAXAEAVPxBase@2@AEAVPxSerializationContext@2@@Z 00000001800043e0 f i NpSerializerAdapter.obj
 0001:000033e0       ?exportExtraData@NpArticulationSensor@physx@@UEAAXAEAVPxSerializationContext@2@@Z 00000001800043e0 f i NpArticulationSensor.obj
 0001:000033e0       ?fetchBroadPhaseResults@BroadPhaseABP@Bp@physx@@UEAAXXZ 00000001800043e0 f i LowLevelAABB_static_64:BpBroadPhaseABP.obj
 0001:000033e0       ?fetchBroadPhaseResults@BroadPhaseMBP@Bp@physx@@UEAAXXZ 00000001800043e0 f i LowLevelAABB_static_64:BpBroadPhaseMBP.obj
 0001:000033e0       ?fetchBroadPhaseResults@BroadPhaseSap@Bp@physx@@UEAAXXZ 00000001800043e0 f i LowLevelAABB_static_64:BpBroadPhaseSap.obj
 0001:000033e0       ?fetchUpdateContactManager@PxsNphaseImplementationContext@physx@@UEAAXXZ 00000001800043e0 f i LowLevel_static_64:PxsNphaseImplementationContext.obj
 0001:000033e0       ?finalizeQuery@?$PxHitCallback@UPxRaycastHit@physx@@@physx@@UEAAXXZ 00000001800043e0 f i SceneQuery_static_64:SqQuery.obj
 0001:000033e0       ?finalizeQuery@?$PxHitCallback@UPxSweepHit@physx@@@physx@@UEAAXXZ 00000001800043e0 f i SceneQuery_static_64:SqQuery.obj
 0001:000033e0       ?flush@PxsSimulationController@physx@@UEAAXXZ 00000001800043e0 f i SimulationController_static_64:ScScene.obj
 0001:000033e0       ?flushInsertions@PxsSimulationController@physx@@UEAAXXZ 00000001800043e0 f i SimulationController_static_64:ScScene.obj
 0001:000033e0       ?frameEnd@NpScene@physx@@UEAAXXZ 00000001800043e0 f i NpScene.obj
 0001:000033e0       ?getDataStreamBase@Context@Dy@physx@@UEAAXAEAPEAX00@Z 00000001800043e0 f i LowLevelDynamics_static_64:DyTGSDynamics.obj
 0001:000033e0       ?gpuDmabackData@PxsSimulationController@physx@@UEAAXAEAVPxsTransformCache@2@AEAVBoundsArray@Bp@2@AEAV?$PxBitMapBase@VPxVirtualAllocator@physx@@@2@_N@Z 00000001800043e0 f i SimulationController_static_64:ScScene.obj
 0001:000033e0       ?internalWakeUp@ActorSim@Sc@physx@@UEAAXM@Z 00000001800043e0 f i SimulationController_static_64:ScSoftBodySim.obj
 0001:000033e0       ?mergeChangedAABBMgHandle@PxsSimulationController@physx@@UEAAXI_N@Z 00000001800043e0 f i SimulationController_static_64:ScScene.obj
 0001:000033e0       ?mergeResults@DynamicsTGSContext@Dy@physx@@UEAAXXZ 00000001800043e0 f i LowLevelDynamics_static_64:DyTGSDynamics.obj
 0001:000033e0       ?postActorFlagChange@ActorSim@Sc@physx@@UEAAXII@Z 00000001800043e0 f i SimulationController_static_64:ScSoftBodySim.obj
 0001:000033e0       ?postBroadPhaseUpdateContactManager@PxsNphaseImplementationContext@physx@@UEAAXPEAVPxBaseTask@2@@Z 00000001800043e0 f i LowLevel_static_64:PxsNphaseImplementationContext.obj
 0001:000033e0       ?preBroadPhase@BroadPhaseABP@Bp@physx@@UEAAXAEBVBroadPhaseUpdateData@23@@Z 00000001800043e0 f i LowLevelAABB_static_64:BpBroadPhaseABP.obj
 0001:000033e0       ?preBroadPhase@BroadPhaseMBP@Bp@physx@@UEAAXAEBVBroadPhaseUpdateData@23@@Z 00000001800043e0 f i LowLevelAABB_static_64:BpBroadPhaseMBP.obj
 0001:000033e0       ?preBroadPhase@BroadPhaseSap@Bp@physx@@UEAAXAEBVBroadPhaseUpdateData@23@@Z 00000001800043e0 f i LowLevelAABB_static_64:BpBroadPhaseSap.obj
 0001:000033e0       ?preExportDataReset@NpShapeManager@physx@@QEAAXXZ 00000001800043e0 f i NpShapeManager.obj
 0001:000033e0       ?preIntegrateAndUpdateBound@PxsSimulationController@physx@@UEAAXPEAVPxBaseTask@2@V?$PxVec3T@M@2@M@Z 00000001800043e0 f i SimulationController_static_64:ScScene.obj
 0001:000033e0       ?preallocateNewBuffers@PxsNphaseImplementationContext@physx@@UEAAXII@Z 00000001800043e0 f i LowLevel_static_64:PxsNphaseImplementationContext.obj
 0001:000033e0       ?processFoundPatches@Context@Dy@physx@@UEAAXAEAVSimpleIslandManager@IG@3@PEAPEAVPxsContactManager@3@IPEAUPxsContactManagerOutputCounts@3@@Z 00000001800043e0 f i LowLevelDynamics_static_64:DyTGSDynamics.obj
 0001:000033e0       ?processLostPatches@Context@Dy@physx@@UEAAXAEAVSimpleIslandManager@IG@3@PEAPEAVPxsContactManager@3@IPEAUPxsContactManagerOutputCounts@3@@Z 00000001800043e0 f i LowLevelDynamics_static_64:DyTGSDynamics.obj
 0001:000033e0       ?registerAggregate@PxsNphaseImplementationContext@physx@@UEAAXI@Z 00000001800043e0 f i LowLevel_static_64:PxsNphaseImplementationContext.obj
 0001:000033e0       ?registerCountedInteraction@ActorSim@Sc@physx@@UEAAXXZ 00000001800043e0 f i SimulationController_static_64:ScSoftBodySim.obj
 0001:000033e0       ?registerMaterial@PxsNphaseImplementationContext@physx@@UEAAXAEBV?$MaterialCoreT@UPxsFEMClothMaterialData@physx@@VPxFEMClothMaterial@2@@2@@Z 00000001800043e0 f i LowLevel_static_64:PxsNphaseImplementationContext.obj
 0001:000033e0       ?registerMaterial@PxsNphaseImplementationContext@physx@@UEAAXAEBV?$MaterialCoreT@UPxsFEMSoftBodyMaterialData@physx@@VPxFEMSoftBodyMaterial@2@@2@@Z 00000001800043e0 f i LowLevel_static_64:PxsNphaseImplementationContext.obj
 0001:000033e0       ?registerMaterial@PxsNphaseImplementationContext@physx@@UEAAXAEBV?$MaterialCoreT@UPxsFLIPMaterialData@physx@@VPxFLIPMaterial@2@@2@@Z 00000001800043e0 f i LowLevel_static_64:PxsNphaseImplementationContext.obj
 0001:000033e0       ?registerMaterial@PxsNphaseImplementationContext@physx@@UEAAXAEBV?$MaterialCoreT@UPxsMPMMaterialData@physx@@VPxMPMMaterial@2@@2@@Z 00000001800043e0 f i LowLevel_static_64:PxsNphaseImplementationContext.obj
 0001:000033e0       ?registerMaterial@PxsNphaseImplementationContext@physx@@UEAAXAEBV?$MaterialCoreT@UPxsMaterialData@physx@@VPxMaterial@2@@2@@Z 00000001800043e0 f i LowLevel_static_64:PxsNphaseImplementationContext.obj
 0001:000033e0       ?registerMaterial@PxsNphaseImplementationContext@physx@@UEAAXAEBV?$MaterialCoreT@UPxsPBDMaterialData@physx@@VPxPBDMaterial@2@@2@@Z 00000001800043e0 f i LowLevel_static_64:PxsNphaseImplementationContext.obj
 0001:000033e0       ?registerShape@PxsNphaseImplementationContext@physx@@UEAAXAEBVPxNodeIndex@2@AEBUPxsShapeCore@2@IPEAVPxActor@2@_N@Z 00000001800043e0 f i LowLevel_static_64:PxsNphaseImplementationContext.obj
 0001:000033e0       ?reinsertShape@PxsSimulationController@physx@@UEAAXPEAUPxsShapeSim@2@I@Z 00000001800043e0 f i SimulationController_static_64:ScScene.obj
 0001:000033e0       ?releaseArticulation@PxsSimulationController@physx@@UEAAXPEAVFeatherstoneArticulation@Dy@2@AEBVPxNodeIndex@2@@Z 00000001800043e0 f i SimulationController_static_64:ScScene.obj
 0001:000033e0       ?releaseContext@PxsNphaseImplementationContext@physx@@UEAAXXZ 00000001800043e0 f i LowLevel_static_64:PxsNphaseImplementationContext.obj
 0001:000033e0       ?releaseDeferredAggregateIds@AABBManager@Bp@physx@@UEAAXXZ 00000001800043e0 f i LowLevelAABB_static_64:BpAABBManager.obj
 0001:000033e0       ?releaseDeferredArticulationIds@PxsSimulationController@physx@@UEAAXXZ 00000001800043e0 f i SimulationController_static_64:ScScene.obj
 0001:000033e0       ?releaseDeferredFEMClothIds@PxsSimulationController@physx@@UEAAXXZ 00000001800043e0 f i SimulationController_static_64:ScScene.obj
 0001:000033e0       ?releaseDeferredHairSystemIds@PxsSimulationController@physx@@UEAAXXZ 00000001800043e0 f i SimulationController_static_64:ScScene.obj
 0001:000033e0       ?releaseDeferredParticleSystemIds@PxsSimulationController@physx@@UEAAXXZ 00000001800043e0 f i SimulationController_static_64:ScScene.obj
 0001:000033e0       ?releaseDeferredSoftBodyIds@PxsSimulationController@physx@@UEAAXXZ 00000001800043e0 f i SimulationController_static_64:ScScene.obj
 0001:000033e0       ?releaseFEMCloth@PxsSimulationController@physx@@UEAAXPEAVFEMCloth@Dy@2@@Z 00000001800043e0 f i SimulationController_static_64:ScScene.obj
 0001:000033e0       ?releaseHairSystem@PxsSimulationController@physx@@UEAAXPEAVHairSystem@Dy@2@@Z 00000001800043e0 f i SimulationController_static_64:ScScene.obj
 0001:000033e0       ?releaseParticleSystem@PxsSimulationController@physx@@UEAAXPEAVParticleSystem@Dy@2@W4Enum@PxParticleSolverType@2@@Z 00000001800043e0 f i SimulationController_static_64:ScScene.obj
 0001:000033e0       ?releaseSoftBody@PxsSimulationController@physx@@UEAAXPEAVSoftBody@Dy@2@@Z 00000001800043e0 f i SimulationController_static_64:ScScene.obj
 0001:000033e0       ?removeClothAttachment@NpSoftBody@physx@@UEAAXPEAVPxFEMCloth@2@I@Z 00000001800043e0 f i NpSoftBody.obj
 0001:000033e0       ?removeClothAttachment@PxsSimulationController@physx@@UEAAXPEAVSoftBody@Dy@2@I@Z 00000001800043e0 f i SimulationController_static_64:ScScene.obj
 0001:000033e0       ?removeClothFilter@NpSoftBody@physx@@UEAAXPEAVPxFEMCloth@2@II@Z 00000001800043e0 f i NpSoftBody.obj
 0001:000033e0       ?removeClothFilter@PxsSimulationController@physx@@UEAAXPEAVFEMCloth@Dy@2@0II@Z 00000001800043e0 f i SimulationController_static_64:ScScene.obj
 0001:000033e0       ?removeClothFilter@PxsSimulationController@physx@@UEAAXPEAVSoftBody@Dy@2@PEAVFEMCloth@42@II@Z 00000001800043e0 f i SimulationController_static_64:ScScene.obj
 0001:000033e0       ?removeJoint@PxsSimulationController@physx@@UEAAXIPEAUConstraint@Dy@2@AEAV?$PxArray@IV?$PxReflectionAllocator@I@physx@@@2@AEAVIslandSim@IG@2@@Z 00000001800043e0 f i SimulationController_static_64:ScScene.obj
 0001:000033e0       ?removeParticleAttachment@PxsSimulationController@physx@@UEAAXPEAVSoftBody@Dy@2@I@Z 00000001800043e0 f i SimulationController_static_64:ScScene.obj
 0001:000033e0       ?removeParticleFilter@PxsSimulationController@physx@@UEAAXPEAVSoftBody@Dy@2@PEBVParticleSystem@42@III@Z 00000001800043e0 f i SimulationController_static_64:ScScene.obj
 0001:000033e0       ?removeRigidAttachment@PxsSimulationController@physx@@UEAAXPEAVFEMCloth@Dy@2@I@Z 00000001800043e0 f i SimulationController_static_64:ScScene.obj
 0001:000033e0       ?removeRigidAttachment@PxsSimulationController@physx@@UEAAXPEAVSoftBody@Dy@2@I@Z 00000001800043e0 f i SimulationController_static_64:ScScene.obj
 0001:000033e0       ?removeRigidFilter@PxsSimulationController@physx@@UEAAXPEAVFEMCloth@Dy@2@AEBVPxNodeIndex@2@I@Z 00000001800043e0 f i SimulationController_static_64:ScScene.obj
 0001:000033e0       ?removeRigidFilter@PxsSimulationController@physx@@UEAAXPEAVSoftBody@Dy@2@AEBVPxNodeIndex@2@I@Z 00000001800043e0 f i SimulationController_static_64:ScScene.obj
 0001:000033e0       ?removeShape@PxsSimulationController@physx@@UEAAXI@Z 00000001800043e0 f i SimulationController_static_64:ScScene.obj
 0001:000033e0       ?removeSoftBodyAttachment@PxsSimulationController@physx@@UEAAXPEAVSoftBody@Dy@2@I@Z 00000001800043e0 f i SimulationController_static_64:ScScene.obj
 0001:000033e0       ?removeSoftBodyFilter@PxsSimulationController@physx@@UEAAXPEAVSoftBody@Dy@2@0II@Z 00000001800043e0 f i SimulationController_static_64:ScScene.obj
 0001:000033e0       ?removeSoftBodyFilters@PxsSimulationController@physx@@UEAAXPEAVSoftBody@Dy@2@0PEAI1I@Z 00000001800043e0 f i SimulationController_static_64:ScScene.obj
 0001:000033e0       ?removeTetRigidFilter@PxsSimulationController@physx@@UEAAXPEAVSoftBody@Dy@2@AEBVPxNodeIndex@2@I@Z 00000001800043e0 f i SimulationController_static_64:ScScene.obj
 0001:000033e0       ?removeTriClothAttachment@PxsSimulationController@physx@@UEAAXPEAVFEMCloth@Dy@2@I@Z 00000001800043e0 f i SimulationController_static_64:ScScene.obj
 0001:000033e0       ?removeTriRigidAttachment@PxsSimulationController@physx@@UEAAXPEAVFEMCloth@Dy@2@I@Z 00000001800043e0 f i SimulationController_static_64:ScScene.obj
 0001:000033e0       ?removeTriRigidFilter@PxsSimulationController@physx@@UEAAXPEAVFEMCloth@Dy@2@AEBVPxNodeIndex@2@I@Z 00000001800043e0 f i SimulationController_static_64:ScScene.obj
 0001:000033e0       ?requiresObjects@NpArticulationJointReducedCoordinate@physx@@UEAAXAEAVPxProcessPxBaseCallback@2@@Z 00000001800043e0 f i NpArticulationJointReducedCoordinate.obj
 0001:000033e0       ?requiresObjects@NpArticulationSensor@physx@@UEAAXAEAVPxProcessPxBaseCallback@2@@Z 00000001800043e0 f i NpArticulationSensor.obj
 0001:000033e0       ?requiresObjects@NpConstraint@physx@@UEAAXAEAVPxProcessPxBaseCallback@2@@Z 00000001800043e0 f i NpConstraint.obj
 0001:000033e0       ?requiresObjects@NpFEMSoftBodyMaterial@physx@@UEAAXAEAVPxProcessPxBaseCallback@2@@Z 00000001800043e0 f i NpFEMSoftBodyMaterial.obj
 0001:000033e0       ?requiresObjects@NpMaterial@physx@@UEAAXAEAVPxProcessPxBaseCallback@2@@Z 00000001800043e0 f i NpMaterial.obj
 0001:000033e0       ?requiresObjects@NpPBDMaterial@physx@@UEAAXAEAVPxProcessPxBaseCallback@2@@Z 00000001800043e0 f i NpPBDMaterial.obj
 0001:000033e0       ?reserve@PxsSimulationController@physx@@UEAAXI@Z 00000001800043e0 f i SimulationController_static_64:ScScene.obj
 0001:000033e0       ?runInternal@FanoutTask@Cm@physx@@UEAAXXZ 00000001800043e0 f i SimulationController_static_64:ScScene.obj
 0001:000033e0       ?runInternal@SceneCompletion@NpScene@physx@@UEAAXXZ 00000001800043e0 f i NpScene.obj
 0001:000033e0       ?setBounds@PxsSimulationController@physx@@UEAAXPEAVBoundsArray@Bp@2@@Z 00000001800043e0 f i SimulationController_static_64:ScScene.obj
 0001:000033e0       ?setClothMaterials@NpShape@physx@@UEAAXPEBQEAVPxFEMClothMaterial@2@G@Z 00000001800043e0 f i NpShape.obj
 0001:000033e0       ?setClothWakeCounter@PxsSimulationController@physx@@UEAAXPEAVFEMCloth@Dy@2@@Z 00000001800043e0 f i SimulationController_static_64:ScScene.obj
 0001:000033e0       ?setGPUStateChanged@AABBManagerBase@Bp@physx@@UEAAXXZ 00000001800043e0 f i LowLevelAABB_static_64:BpAABBManagerBase.obj
 0001:000033e0       ?setGlobalPose@NpArticulationLink@physx@@UEAAXAEBV?$PxTransformT@M@2@_N@Z 00000001800043e0 f i NpArticulationLink.obj
 0001:000033e0       ?setHairSystemWakeCounter@PxsSimulationController@physx@@UEAAXPEAVHairSystem@Dy@2@@Z 00000001800043e0 f i SimulationController_static_64:ScScene.obj
 0001:000033e0       ?setPersistentStateChanged@AABBManagerBase@Bp@physx@@UEAAXXZ 00000001800043e0 f i LowLevelAABB_static_64:BpAABBManagerBase.obj
 0001:000033e0       ?setSoftBodyWakeCounter@PxsSimulationController@physx@@UEAAXPEAVSoftBody@Dy@2@@Z 00000001800043e0 f i SimulationController_static_64:ScScene.obj
 0001:000033e0       ?shiftOrigin@BroadPhaseABP@Bp@physx@@UEAAXAEBV?$PxVec3T@M@3@PEBVPxBounds3@3@PEBM@Z 00000001800043e0 f i LowLevelAABB_static_64:BpBroadPhaseABP.obj
 0001:000033e0       ?sortContacts@PxsSimulationController@physx@@UEAAXXZ 00000001800043e0 f i SimulationController_static_64:ScScene.obj
 0001:000033e0       ?startNarrowPhaseTasks@PxsNphaseImplementationContext@physx@@UEAAXXZ 00000001800043e0 f i LowLevel_static_64:PxsNphaseImplementationContext.obj
 0001:000033e0       ?stopSimulation@PxTaskMgr@physx@@UEAAXXZ 00000001800043e0 f i PhysXTask_static_64:TaskManager.obj
 0001:000033e0       ?switchFromNoSim@?$NpRigidActorTemplate@VPxArticulationLink@physx@@@physx@@UEAAXXZ 00000001800043e0 f i NpArticulationLink.obj
 0001:000033e0       ?switchFromNoSim@?$NpRigidActorTemplate@VPxRigidDynamic@physx@@@physx@@UEAAXXZ 00000001800043e0 f i NpRigidDynamic.obj
 0001:000033e0       ?switchFromNoSim@?$NpRigidActorTemplate@VPxRigidStatic@physx@@@physx@@UEAAXXZ 00000001800043e0 f i NpRigidStatic.obj
 0001:000033e0       ?switchToNoSim@?$NpRigidActorTemplate@VPxArticulationLink@physx@@@physx@@UEAAXXZ 00000001800043e0 f i NpArticulationLink.obj
 0001:000033e0       ?switchToNoSim@?$NpRigidActorTemplate@VPxRigidDynamic@physx@@@physx@@UEAAXXZ 00000001800043e0 f i NpRigidDynamic.obj
 0001:000033e0       ?switchToNoSim@?$NpRigidActorTemplate@VPxRigidStatic@physx@@@physx@@UEAAXXZ 00000001800043e0 f i NpRigidStatic.obj
 0001:000033e0       ?syncParticleData@PxsSimulationController@physx@@UEAAXXZ 00000001800043e0 f i SimulationController_static_64:ScScene.obj
 0001:000033e0       ?unregisterCountedInteraction@ActorSim@Sc@physx@@UEAAXXZ 00000001800043e0 f i SimulationController_static_64:ScSoftBodySim.obj
 0001:000033e0       ?unregisterMaterial@PxsNphaseImplementationContext@physx@@UEAAXAEBV?$MaterialCoreT@UPxsFEMClothMaterialData@physx@@VPxFEMClothMaterial@2@@2@@Z 00000001800043e0 f i LowLevel_static_64:PxsNphaseImplementationContext.obj
 0001:000033e0       ?unregisterMaterial@PxsNphaseImplementationContext@physx@@UEAAXAEBV?$MaterialCoreT@UPxsFEMSoftBodyMaterialData@physx@@VPxFEMSoftBodyMaterial@2@@2@@Z 00000001800043e0 f i LowLevel_static_64:PxsNphaseImplementationContext.obj
 0001:000033e0       ?unregisterMaterial@PxsNphaseImplementationContext@physx@@UEAAXAEBV?$MaterialCoreT@UPxsFLIPMaterialData@physx@@VPxFLIPMaterial@2@@2@@Z 00000001800043e0 f i LowLevel_static_64:PxsNphaseImplementationContext.obj
 0001:000033e0       ?unregisterMaterial@PxsNphaseImplementationContext@physx@@UEAAXAEBV?$MaterialCoreT@UPxsMPMMaterialData@physx@@VPxMPMMaterial@2@@2@@Z 00000001800043e0 f i LowLevel_static_64:PxsNphaseImplementationContext.obj
 0001:000033e0       ?unregisterMaterial@PxsNphaseImplementationContext@physx@@UEAAXAEBV?$MaterialCoreT@UPxsMaterialData@physx@@VPxMaterial@2@@2@@Z 00000001800043e0 f i LowLevel_static_64:PxsNphaseImplementationContext.obj
 0001:000033e0       ?unregisterMaterial@PxsNphaseImplementationContext@physx@@UEAAXAEBV?$MaterialCoreT@UPxsPBDMaterialData@physx@@VPxPBDMaterial@2@@2@@Z 00000001800043e0 f i LowLevel_static_64:PxsNphaseImplementationContext.obj
 0001:000033e0       ?unregisterShape@PxsNphaseImplementationContext@physx@@UEAAXAEBUPxsShapeCore@2@I_N@Z 00000001800043e0 f i LowLevel_static_64:PxsNphaseImplementationContext.obj
 0001:000033e0       ?update@PxsSimulationController@physx@@UEAAXAEAV?$PxBitMapBase@VPxVirtualAllocator@physx@@@2@@Z 00000001800043e0 f i SimulationController_static_64:ScScene.obj
 0001:000033e0       ?updateArticulation@PxsSimulationController@physx@@UEAAXPEAVFeatherstoneArticulation@Dy@2@AEBVPxNodeIndex@2@@Z 00000001800043e0 f i SimulationController_static_64:ScScene.obj
 0001:000033e0       ?updateArticulationAfterIntegration@PxsSimulationController@physx@@UEAAXPEAVPxsContext@2@PEAVAABBManagerBase@Bp@2@AEAV?$PxArray@PEAVBodySim@Sc@physx@@V?$PxReflectionAllocator@PEAVBodySim@Sc@physx@@@3@@2@PEAVPxBaseTask@2@AEAVIslandSim@IG@2@M@Z 00000001800043e0 f i SimulationController_static_64:ScScene.obj
 0001:000033e0       ?updateArticulationExtAccel@PxsSimulationController@physx@@UEAAXPEAVFeatherstoneArticulation@Dy@2@AEBVPxNodeIndex@2@@Z 00000001800043e0 f i SimulationController_static_64:ScScene.obj
 0001:000033e0       ?updateArticulationJoint@PxsSimulationController@physx@@UEAAXPEAVFeatherstoneArticulation@Dy@2@AEBVPxNodeIndex@2@@Z 00000001800043e0 f i SimulationController_static_64:ScScene.obj
 0001:000033e0       ?updateBodies@PxsSimulationController@physx@@UEAAXPEAPEAVPxsRigidBody@2@PEAII@Z 00000001800043e0 f i SimulationController_static_64:ScScene.obj
 0001:000033e0       ?updateBodies@PxsSimulationController@physx@@UEAAXPEAVPxBaseTask@2@@Z 00000001800043e0 f i SimulationController_static_64:ScScene.obj
 0001:000033e0       ?updateBodyCore@Context@Dy@physx@@UEAAXPEAVPxBaseTask@3@@Z 00000001800043e0 f i LowLevelDynamics_static_64:DyTGSDynamics.obj
 0001:000033e0       ?updateBoundsAndShapes@PxsSimulationController@physx@@UEAAXAEAVAABBManagerBase@Bp@2@_N1@Z 00000001800043e0 f i SimulationController_static_64:ScScene.obj
 0001:000033e0       ?updateDynamic@PxsSimulationController@physx@@UEAAXPEAVFeatherstoneArticulation@Dy@2@AEBVPxNodeIndex@2@@Z 00000001800043e0 f i SimulationController_static_64:ScScene.obj
 0001:000033e0       ?updateJoint@PxsSimulationController@physx@@UEAAXIPEAUConstraint@Dy@2@@Z 00000001800043e0 f i SimulationController_static_64:ScScene.obj
 0001:000033e0       ?updateMaterial@PxsNphaseImplementationContext@physx@@UEAAXAEBV?$MaterialCoreT@UPxsFEMClothMaterialData@physx@@VPxFEMClothMaterial@2@@2@@Z 00000001800043e0 f i LowLevel_static_64:PxsNphaseImplementationContext.obj
 0001:000033e0       ?updateMaterial@PxsNphaseImplementationContext@physx@@UEAAXAEBV?$MaterialCoreT@UPxsFEMSoftBodyMaterialData@physx@@VPxFEMSoftBodyMaterial@2@@2@@Z 00000001800043e0 f i LowLevel_static_64:PxsNphaseImplementationContext.obj
 0001:000033e0       ?updateMaterial@PxsNphaseImplementationContext@physx@@UEAAXAEBV?$MaterialCoreT@UPxsFLIPMaterialData@physx@@VPxFLIPMaterial@2@@2@@Z 00000001800043e0 f i LowLevel_static_64:PxsNphaseImplementationContext.obj
 0001:000033e0       ?updateMaterial@PxsNphaseImplementationContext@physx@@UEAAXAEBV?$MaterialCoreT@UPxsMPMMaterialData@physx@@VPxMPMMaterial@2@@2@@Z 00000001800043e0 f i LowLevel_static_64:PxsNphaseImplementationContext.obj
 0001:000033e0       ?updateMaterial@PxsNphaseImplementationContext@physx@@UEAAXAEBV?$MaterialCoreT@UPxsMaterialData@physx@@VPxMaterial@2@@2@@Z 00000001800043e0 f i LowLevel_static_64:PxsNphaseImplementationContext.obj
 0001:000033e0       ?updateMaterial@PxsNphaseImplementationContext@physx@@UEAAXAEBV?$MaterialCoreT@UPxsPBDMaterialData@physx@@VPxPBDMaterial@2@@2@@Z 00000001800043e0 f i LowLevel_static_64:PxsNphaseImplementationContext.obj
 0001:000033e0       ?updateParticleSystemsAndSoftBodies@PxsSimulationController@physx@@UEAAXXZ 00000001800043e0 f i SimulationController_static_64:ScScene.obj
 0001:000033e0       ?updateShape@PxsSimulationController@physx@@UEAAXAEAUPxsShapeSim@2@AEBVPxNodeIndex@2@@Z 00000001800043e0 f i SimulationController_static_64:ScScene.obj
 0001:000033e0       ?updateShapeMaterial@PxsNphaseImplementationContext@physx@@UEAAXAEBUPxsShapeCore@2@@Z 00000001800043e0 f i LowLevel_static_64:PxsNphaseImplementationContext.obj
 0001:000033e0       ?updateShapes@PxsSimulationController@physx@@UEAAXPEAVPxBaseTask@2@@Z 00000001800043e0 f i SimulationController_static_64:ScScene.obj
 0001:000033e0       ?visualize@BasePruner@Gu@physx@@UEBAXAEAVPxRenderOutput@3@II@Z 00000001800043e0 f i SceneQuery_static_64:SqCompoundPruner.obj
 0001:000033e0       _guard_check_icall_nop     00000001800043e0 f i LIBCMT:guard_support.obj
 0001:000033f0       ??0PxActorGeneratedInfo@physx@@QEAA@XZ 00000001800043f0 f   PxAutoGeneratedMetaDataObjects.obj
 0001:00003520       ??0PxActorGeneratedValues@physx@@QEAA@PEBVPxActor@1@@Z 0000000180004520 f   PxAutoGeneratedMetaDataObjects.obj
 0001:000035a0       ??0PxAggregateGeneratedInfo@physx@@QEAA@XZ 00000001800045a0 f   PxAutoGeneratedMetaDataObjects.obj
 0001:00003680       ??0PxAggregateGeneratedValues@physx@@QEAA@PEBVPxAggregate@1@@Z 0000000180004680 f   PxAutoGeneratedMetaDataObjects.obj
 0001:000036e0       ??0PxArticulationDriveGeneratedInfo@physx@@QEAA@XZ 00000001800046e0 f   PxAutoGeneratedMetaDataObjects.obj
 0001:00003790       ??0PxArticulationDriveGeneratedValues@physx@@QEAA@PEBUPxArticulationDrive@1@@Z 0000000180004790 f   PxAutoGeneratedMetaDataObjects.obj
 0001:000037b0       ??0PxArticulationJointReducedCoordinateGeneratedInfo@physx@@QEAA@XZ 00000001800047b0 f   PxAutoGeneratedMetaDataObjects.obj
 0001:00003a20       ??0PxArticulationJointReducedCoordinateGeneratedValues@physx@@QEAA@PEBVPxArticulationJointReducedCoordinate@1@@Z 0000000180004a20 f   PxAutoGeneratedMetaDataObjects.obj
 0001:00003e50       ??0PxArticulationLimitGeneratedInfo@physx@@QEAA@XZ 0000000180004e50 f   PxAutoGeneratedMetaDataObjects.obj
 0001:00003eb0       ??0PxArticulationLimitGeneratedValues@physx@@QEAA@PEBUPxArticulationLimit@1@@Z 0000000180004eb0 f   PxAutoGeneratedMetaDataObjects.obj
 0001:00003ec0       ??0PxArticulationLinkGeneratedInfo@physx@@QEAA@XZ 0000000180004ec0 f   PxAutoGeneratedMetaDataObjects.obj
 0001:00004030       ??0PxArticulationLinkGeneratedValues@physx@@QEAA@PEBVPxArticulationLink@1@@Z 0000000180005030 f   PxAutoGeneratedMetaDataObjects.obj
 0001:000040e0       ??0PxArticulationReducedCoordinateGeneratedInfo@physx@@QEAA@XZ 00000001800050e0 f   PxAutoGeneratedMetaDataObjects.obj
 0001:000043f0       ??0PxArticulationReducedCoordinateGeneratedValues@physx@@QEAA@PEBVPxArticulationReducedCoordinate@1@@Z 00000001800053f0 f   PxAutoGeneratedMetaDataObjects.obj
 0001:000044f0       ??0PxBaseMaterialGeneratedInfo@physx@@QEAA@XZ 00000001800054f0 f   PxAutoGeneratedMetaDataObjects.obj
 0001:00004540       ??0PxBaseMaterialGeneratedValues@physx@@QEAA@PEBVPxBaseMaterial@1@@Z 0000000180005540 f   PxAutoGeneratedMetaDataObjects.obj
 0001:00004580       ??0PxBoxGeometryGeneratedInfo@physx@@QEAA@XZ 0000000180005580 f   PxAutoGeneratedMetaDataObjects.obj
 0001:000045b0       ??0PxBoxGeometryGeneratedValues@physx@@QEAA@PEBVPxBoxGeometry@1@@Z 00000001800055b0 f   PxAutoGeneratedMetaDataObjects.obj
 0001:000045b0       ?getPxBoxGeometryHalfExtents@@YA?AV?$PxVec3T@M@physx@@PEBVPxBoxGeometry@2@@Z 00000001800055b0 f   PxAutoGeneratedMetaDataObjects.obj
 0001:000045d0       ??0PxBroadPhaseDescGeneratedInfo@physx@@QEAA@XZ 00000001800055d0 f   PxAutoGeneratedMetaDataObjects.obj
 0001:00004710       ??0PxBroadPhaseDescGeneratedValues@physx@@QEAA@PEBVPxBroadPhaseDesc@1@@Z 0000000180005710 f   PxAutoGeneratedMetaDataObjects.obj
 0001:00004760       ??0PxCapsuleGeometryGeneratedInfo@physx@@QEAA@XZ 0000000180005760 f   PxAutoGeneratedMetaDataObjects.obj
 0001:000047c0       ??0PxCapsuleGeometryGeneratedValues@physx@@QEAA@PEBVPxCapsuleGeometry@1@@Z 00000001800057c0 f   PxAutoGeneratedMetaDataObjects.obj
 0001:000047d0       ??0PxConstraintGeneratedInfo@physx@@QEAA@XZ 00000001800057d0 f   PxAutoGeneratedMetaDataObjects.obj
 0001:00004960       ??0PxConstraintGeneratedValues@physx@@QEAA@PEBVPxConstraint@1@@Z 0000000180005960 f   PxAutoGeneratedMetaDataObjects.obj
 0001:000049f0       ??0PxConvexMeshGeometryGeneratedInfo@physx@@QEAA@XZ 00000001800059f0 f   PxAutoGeneratedMetaDataObjects.obj
 0001:00004a70       ??0PxConvexMeshGeometryGeneratedValues@physx@@QEAA@PEBVPxConvexMeshGeometry@1@@Z 0000000180005a70 f   PxAutoGeneratedMetaDataObjects.obj
 0001:00004ab0       ??0PxCustomGeometryGeneratedInfo@physx@@QEAA@XZ 0000000180005ab0 f   PxAutoGeneratedMetaDataObjects.obj
 0001:00004ad0       ??0PxCustomGeometryGeneratedValues@physx@@QEAA@PEBVPxCustomGeometry@1@@Z 0000000180005ad0 f   PxAutoGeneratedMetaDataObjects.obj
 0001:00004b00       ??0PxFEMMaterialGeneratedInfo@physx@@QEAA@XZ 0000000180005b00 f   PxAutoGeneratedMetaDataObjects.obj
 0001:00004bd0       ??0PxFEMMaterialGeneratedValues@physx@@QEAA@PEBVPxFEMMaterial@1@@Z 0000000180005bd0 f   PxAutoGeneratedMetaDataObjects.obj
 0001:00004c30       ??0PxFEMSoftBodyMaterialGeneratedInfo@physx@@QEAA@XZ 0000000180005c30 f   PxAutoGeneratedMetaDataObjects.obj
 0001:00004d10       ??0PxFEMSoftBodyMaterialGeneratedValues@physx@@QEAA@PEBVPxFEMSoftBodyMaterial@1@@Z 0000000180005d10 f   PxAutoGeneratedMetaDataObjects.obj
 0001:00004db0       ??0PxHeightFieldDescGeneratedInfo@physx@@QEAA@XZ 0000000180005db0 f   PxAutoGeneratedMetaDataObjects.obj
 0001:00004ec0       ??0PxHeightFieldDescGeneratedValues@physx@@QEAA@PEBVPxHeightFieldDesc@1@@Z 0000000180005ec0 f   PxAutoGeneratedMetaDataObjects.obj
 0001:00004ef0       ??0PxHeightFieldGeometryGeneratedInfo@physx@@QEAA@XZ 0000000180005ef0 f   PxAutoGeneratedMetaDataObjects.obj
 0001:00004fd0       ??0PxHeightFieldGeometryGeneratedValues@physx@@QEAA@PEBVPxHeightFieldGeometry@1@@Z 0000000180005fd0 f   PxAutoGeneratedMetaDataObjects.obj
 0001:00005000       ??0PxMaterialGeneratedInfo@physx@@QEAA@XZ 0000000180006000 f   PxAutoGeneratedMetaDataObjects.obj
 0001:000051c0       ??0PxMaterialGeneratedValues@physx@@QEAA@PEBVPxMaterial@1@@Z 00000001800061c0 f   PxAutoGeneratedMetaDataObjects.obj
 0001:00005270       ??0PxMeshScaleGeneratedInfo@physx@@QEAA@XZ 0000000180006270 f   PxAutoGeneratedMetaDataObjects.obj
 0001:000052d0       ??0PxMeshScaleGeneratedValues@physx@@QEAA@PEBVPxMeshScale@1@@Z 00000001800062d0 f   PxAutoGeneratedMetaDataObjects.obj
 0001:00005300       ??0PxPBDMaterialGeneratedInfo@physx@@QEAA@XZ 0000000180006300 f   PxAutoGeneratedMetaDataObjects.obj
 0001:00005520       ??0PxPBDMaterialGeneratedValues@physx@@QEAA@PEBVPxPBDMaterial@1@@Z 0000000180006520 f   PxAutoGeneratedMetaDataObjects.obj
 0001:000055f0       ??0PxParticleMaterialGeneratedInfo@physx@@QEAA@XZ 00000001800065f0 f   PxAutoGeneratedMetaDataObjects.obj
 0001:00005730       ??0PxParticleMaterialGeneratedValues@physx@@QEAA@PEBVPxParticleMaterial@1@@Z 0000000180006730 f   PxAutoGeneratedMetaDataObjects.obj
 0001:000057b0       ??0PxPhysicsGeneratedInfo@physx@@QEAA@XZ 00000001800067b0 f   PxAutoGeneratedMetaDataObjects.obj
 0001:00005a40       ??0PxPhysicsGeneratedValues@physx@@QEAA@PEBVPxPhysics@1@@Z 0000000180006a40 f   PxAutoGeneratedMetaDataObjects.obj
 0001:00005a40       ?getPxPhysics_TolerancesScale@@YA?BVPxTolerancesScale@physx@@PEBVPxPhysics@2@@Z 0000000180006a40 f   PxAutoGeneratedMetaDataObjects.obj
 0001:00005a70       ??0PxPruningStructureGeneratedInfo@physx@@QEAA@XZ 0000000180006a70 f   PxAutoGeneratedMetaDataObjects.obj
 0001:00005b00       ??0PxPruningStructureGeneratedValues@physx@@QEAA@PEBVPxPruningStructure@1@@Z 0000000180006b00 f   PxAutoGeneratedMetaDataObjects.obj
 0001:00005b50       ??0PxRefCountedGeneratedInfo@physx@@QEAA@XZ 0000000180006b50 f   PxAutoGeneratedMetaDataObjects.obj
 0001:00005b70       ??0PxRefCountedGeneratedValues@physx@@QEAA@PEBVPxRefCounted@1@@Z 0000000180006b70 f   PxAutoGeneratedMetaDataObjects.obj
 0001:00005b90       ??0PxRigidActorGeneratedInfo@physx@@QEAA@XZ 0000000180006b90 f   PxAutoGeneratedMetaDataObjects.obj
 0001:00005c50       ??0PxRigidActorGeneratedValues@physx@@QEAA@PEBVPxRigidActor@1@@Z 0000000180006c50 f   PxAutoGeneratedMetaDataObjects.obj
 0001:00005c90       ??0PxRigidBodyGeneratedInfo@physx@@QEAA@XZ 0000000180006c90 f   PxAutoGeneratedMetaDataObjects.obj
 0001:00005f70       ??0PxRigidBodyGeneratedValues@physx@@QEAA@PEBVPxRigidBody@1@@Z 0000000180006f70 f   PxAutoGeneratedMetaDataObjects.obj
 0001:000060b0       ??0PxRigidDynamicGeneratedInfo@physx@@QEAA@XZ 00000001800070b0 f   PxAutoGeneratedMetaDataObjects.obj
 0001:000062d0       ??0PxRigidDynamicGeneratedValues@physx@@QEAA@PEBVPxRigidDynamic@1@@Z 00000001800072d0 f   PxAutoGeneratedMetaDataObjects.obj
 0001:000063c0       ??0PxRigidStaticGeneratedInfo@physx@@QEAA@XZ 00000001800073c0 f   PxAutoGeneratedMetaDataObjects.obj
 0001:00006400       ??0PxRigidStaticGeneratedValues@physx@@QEAA@PEBVPxRigidStatic@1@@Z 0000000180007400 f   PxAutoGeneratedMetaDataObjects.obj
 0001:00006440       ??0PxSceneDescGeneratedInfo@physx@@QEAA@XZ 0000000180007440 f   PxAutoGeneratedMetaDataObjects.obj
 0001:00006c40       ??0PxSceneDescGeneratedValues@physx@@QEAA@PEBVPxSceneDesc@1@@Z 0000000180007c40 f   PxAutoGeneratedMetaDataObjects.obj
 0001:00006eb0       ??0PxSceneGeneratedInfo@physx@@QEAA@XZ 0000000180007eb0 f   PxAutoGeneratedMetaDataObjects.obj
 0001:00007660       ??0PxSceneGeneratedValues@physx@@QEAA@PEBVPxScene@1@@Z 0000000180008660 f   PxAutoGeneratedMetaDataObjects.obj
 0001:00007920       ??0PxSceneLimitsGeneratedInfo@physx@@QEAA@XZ 0000000180008920 f   PxAutoGeneratedMetaDataObjects.obj
 0001:00007aa0       ??0PxSceneLimitsGeneratedValues@physx@@QEAA@PEBVPxSceneLimits@1@@Z 0000000180008aa0 f   PxAutoGeneratedMetaDataObjects.obj
 0001:00007ae0       ??0PxSceneQueryDescGeneratedInfo@physx@@QEAA@XZ 0000000180008ae0 f   PxAutoGeneratedMetaDataObjects.obj
 0001:00007cb0       ??0PxSceneQueryDescGeneratedValues@physx@@QEAA@PEBVPxSceneQueryDesc@1@@Z 0000000180008cb0 f   PxAutoGeneratedMetaDataObjects.obj
 0001:00007d10       ??0PxSceneQuerySystemBaseGeneratedInfo@physx@@QEAA@XZ 0000000180008d10 f   PxAutoGeneratedMetaDataObjects.obj
 0001:00007d80       ??0PxSceneQuerySystemBaseGeneratedValues@physx@@QEAA@PEBVPxSceneQuerySystemBase@1@@Z 0000000180008d80 f   PxAutoGeneratedMetaDataObjects.obj
 0001:00007dd0       ??0PxSceneSQSystemGeneratedInfo@physx@@QEAA@XZ 0000000180008dd0 f   PxAutoGeneratedMetaDataObjects.obj
 0001:00007ee0       ??0PxSceneSQSystemGeneratedValues@physx@@QEAA@PEBVPxSceneSQSystem@1@@Z 0000000180008ee0 f   PxAutoGeneratedMetaDataObjects.obj
 0001:00007f60       ??0PxShapeGeneratedInfo@physx@@QEAA@XZ 0000000180008f60 f   PxAutoGeneratedMetaDataObjects.obj
 0001:00008270       ??0PxShapeGeneratedValues@physx@@QEAA@PEBVPxShape@1@@Z 0000000180009270 f   PxAutoGeneratedMetaDataObjects.obj
 0001:00008530       ??0PxSimulationStatistics@physx@@QEAA@XZ 0000000180009530 f i PxAutoGeneratedMetaDataObjects.obj
 0001:000086c0       ??0PxSimulationStatisticsGeneratedInfo@physx@@QEAA@XZ 00000001800096c0 f   PxAutoGeneratedMetaDataObjects.obj
 0001:00008f70       ??0PxSimulationStatisticsGeneratedValues@physx@@QEAA@PEBVPxSimulationStatistics@1@@Z 0000000180009f70 f   PxAutoGeneratedMetaDataObjects.obj
 0001:000093c0       ??0PxSphereGeometryGeneratedInfo@physx@@QEAA@XZ 000000018000a3c0 f   PxAutoGeneratedMetaDataObjects.obj
 0001:000093f0       ??0PxSphereGeometryGeneratedValues@physx@@QEAA@PEBVPxSphereGeometry@1@@Z 000000018000a3f0 f   PxAutoGeneratedMetaDataObjects.obj
 0001:00009400       ??0PxTetrahedronMeshGeometryGeneratedInfo@physx@@QEAA@XZ 000000018000a400 f   PxAutoGeneratedMetaDataObjects.obj
 0001:00009430       ??0PxTetrahedronMeshGeometryGeneratedValues@physx@@QEAA@PEBVPxTetrahedronMeshGeometry@1@@Z 000000018000a430 f   PxAutoGeneratedMetaDataObjects.obj
 0001:00009440       ??0PxTolerancesScaleGeneratedInfo@physx@@QEAA@XZ 000000018000a440 f   PxAutoGeneratedMetaDataObjects.obj
 0001:000094b0       ??0PxTolerancesScaleGeneratedValues@physx@@QEAA@PEBVPxTolerancesScale@1@@Z 000000018000a4b0 f   PxAutoGeneratedMetaDataObjects.obj
 0001:000094d0       ??0PxTriangleMeshGeometryGeneratedInfo@physx@@QEAA@XZ 000000018000a4d0 f   PxAutoGeneratedMetaDataObjects.obj
 0001:00009550       ??0PxTriangleMeshGeometryGeneratedValues@physx@@QEAA@PEBVPxTriangleMeshGeometry@1@@Z 000000018000a550 f   PxAutoGeneratedMetaDataObjects.obj
 0001:00009590       ??0PxgDynamicsMemoryConfigGeneratedInfo@physx@@QEAA@XZ 000000018000a590 f   PxAutoGeneratedMetaDataObjects.obj
 0001:00009800       ??0PxgDynamicsMemoryConfigGeneratedValues@physx@@QEAA@PEBUPxgDynamicsMemoryConfig@1@@Z 000000018000a800 f   PxAutoGeneratedMetaDataObjects.obj
 0001:00009870       ?createPxPhysics_BVHs@@YAPEAVPxBVH@physx@@PEAVPxPhysics@2@AEAVPxInputStream@2@@Z 000000018000a870 f   PxAutoGeneratedMetaDataObjects.obj
 0001:00009870       ?getPxFEMSoftBodyMaterial_MaterialModel@@YA?AW4Enum@PxFEMSoftBodyMaterialModel@physx@@PEBVPxFEMSoftBodyMaterial@3@@Z 000000018000a870 f   PxAutoGeneratedMetaDataObjects.obj
 0001:00009870       ?getPxPBDMaterial_Viscosity@@YAMPEBVPxPBDMaterial@physx@@@Z 000000018000a870 f   PxAutoGeneratedMetaDataObjects.obj
 0001:00009870       ?setPxArticulationReducedCoordinate_MaxCOMAngularVelocity@@YAXPEAVPxArticulationReducedCoordinate@physx@@M@Z 000000018000a870 f   PxAutoGeneratedMetaDataObjects.obj
 0001:00009870       ?setPxMaterial_FrictionCombineMode@@YAXPEAVPxMaterial@physx@@W4Enum@PxCombineMode@2@@Z 000000018000a870 f   PxAutoGeneratedMetaDataObjects.obj
 0001:00009870       ?setPxScene_Limits@@YAXPEAVPxScene@physx@@AEBVPxSceneLimits@2@@Z 000000018000a870 f   PxAutoGeneratedMetaDataObjects.obj
 0001:00009880       ?createPxPhysics_ConvexMeshes@@YAPEAVPxConvexMesh@physx@@PEAVPxPhysics@2@AEAVPxInputStream@2@@Z 000000018000a880 f   PxAutoGeneratedMetaDataObjects.obj
 0001:00009880       ?getPxActor_OwnerClient@@YAEPEBVPxActor@physx@@@Z 000000018000a880 f   PxAutoGeneratedMetaDataObjects.obj
 0001:00009880       ?setPxConstraint_MinResponseThreshold@@YAXPEAVPxConstraint@physx@@M@Z 000000018000a880 f   PxAutoGeneratedMetaDataObjects.obj
 0001:00009880       ?setPxFEMSoftBodyMaterial_DampingScale@@YAXPEAVPxFEMSoftBodyMaterial@physx@@M@Z 000000018000a880 f   PxAutoGeneratedMetaDataObjects.obj
 0001:00009880       ?setPxParticleMaterial_AdhesionRadiusScale@@YAXPEAVPxParticleMaterial@physx@@M@Z 000000018000a880 f   PxAutoGeneratedMetaDataObjects.obj
 0001:00009890       ?createPxPhysics_HeightFields@@YAPEAVPxHeightField@physx@@PEAVPxPhysics@2@AEAVPxInputStream@2@@Z 000000018000a890 f   PxAutoGeneratedMetaDataObjects.obj
 0001:00009890       ?getPxConstraint_IsValid@@YA_NPEBVPxConstraint@physx@@@Z 000000018000a890 f   PxAutoGeneratedMetaDataObjects.obj
 0001:00009890       ?getPxFEMMaterial_DynamicFriction@@YAMPEBVPxFEMMaterial@physx@@@Z 000000018000a890 f   PxAutoGeneratedMetaDataObjects.obj
 0001:00009890       ?getPxMaterial_Restitution@@YAMPEBVPxMaterial@physx@@@Z 000000018000a890 f   PxAutoGeneratedMetaDataObjects.obj
 0001:00009890       ?getPxParticleMaterial_Adhesion@@YAMPEBVPxParticleMaterial@physx@@@Z 000000018000a890 f   PxAutoGeneratedMetaDataObjects.obj
 0001:00009890       ?setPxActor_DominanceGroup@@YAXPEAVPxActor@physx@@E@Z 000000018000a890 f   PxAutoGeneratedMetaDataObjects.obj
 0001:00009890       ?setPxArticulationJointReducedCoordinate_Motion@@YAXPEAVPxArticulationJointReducedCoordinate@physx@@W4Enum@PxArticulationAxis@2@W43PxArticulationMotion@2@@Z 000000018000a890 f   PxAutoGeneratedMetaDataObjects.obj
 0001:00009890       ?setPxArticulationReducedCoordinate_WakeCounter@@YAXPEAVPxArticulationReducedCoordinate@physx@@M@Z 000000018000a890 f   PxAutoGeneratedMetaDataObjects.obj
 0001:00009890       ?setPxShape_SimulationFilterData@@YAXPEAVPxShape@physx@@AEBUPxFilterData@2@@Z 000000018000a890 f   PxAutoGeneratedMetaDataObjects.obj
 0001:000098a0       ?createPxPhysics_Scenes@@YAPEAVPxScene@physx@@PEAVPxPhysics@2@AEBVPxSceneDesc@2@@Z 000000018000a8a0 f   PxAutoGeneratedMetaDataObjects.obj
 0001:000098a0       ?getNbPxArticulationReducedCoordinate_Links@@YAIPEBVPxArticulationReducedCoordinate@physx@@@Z 000000018000a8a0 f   PxAutoGeneratedMetaDataObjects.obj
 0001:000098a0       ?getPxMaterial_RestitutionCombineMode@@YA?AW4Enum@PxCombineMode@physx@@PEBVPxMaterial@3@@Z 000000018000a8a0 f   PxAutoGeneratedMetaDataObjects.obj
 0001:000098a0       ?getPxScene_Timestamp@@YAIPEBVPxScene@physx@@@Z 000000018000a8a0 f   PxAutoGeneratedMetaDataObjects.obj
 0001:000098a0       ?setPxPBDMaterial_SurfaceTension@@YAXPEAVPxPBDMaterial@physx@@M@Z 000000018000a8a0 f   PxAutoGeneratedMetaDataObjects.obj
 0001:000098b0       ?createPxPhysics_TetrahedronMeshes@@YAPEAVPxTetrahedronMesh@physx@@PEAVPxPhysics@2@AEAVPxInputStream@2@@Z 000000018000a8b0 f   PxAutoGeneratedMetaDataObjects.obj
 0001:000098b0       ?getNbPxAggregate_Actors@@YAIPEBVPxAggregate@physx@@@Z 000000018000a8b0 f   PxAutoGeneratedMetaDataObjects.obj
 0001:000098b0       ?getPxFEMMaterial_YoungsModulus@@YAMPEBVPxFEMMaterial@physx@@@Z 000000018000a8b0 f   PxAutoGeneratedMetaDataObjects.obj
 0001:000098b0       ?getPxMaterial_DynamicFriction@@YAMPEBVPxMaterial@physx@@@Z 000000018000a8b0 f   PxAutoGeneratedMetaDataObjects.obj
 0001:000098b0       ?getPxParticleMaterial_Friction@@YAMPEBVPxParticleMaterial@physx@@@Z 000000018000a8b0 f   PxAutoGeneratedMetaDataObjects.obj
 0001:000098b0       ?setPxArticulationJointReducedCoordinate_ChildPose@@YAXPEAVPxArticulationJointReducedCoordinate@physx@@AEBV?$PxTransformT@M@2@@Z 000000018000a8b0 f   PxAutoGeneratedMetaDataObjects.obj
 0001:000098b0       ?setPxArticulationReducedCoordinate_SleepThreshold@@YAXPEAVPxArticulationReducedCoordinate@physx@@M@Z 000000018000a8b0 f   PxAutoGeneratedMetaDataObjects.obj
 0001:000098c0       ?createPxPhysics_TriangleMeshes@@YAPEAVPxTriangleMesh@physx@@PEAVPxPhysics@2@AEAVPxInputStream@2@@Z 000000018000a8c0 f   PxAutoGeneratedMetaDataObjects.obj
 0001:000098c0       ?getNbPxPruningStructure_RigidActors@@YAIPEBVPxPruningStructure@physx@@@Z 000000018000a8c0 f   PxAutoGeneratedMetaDataObjects.obj
 0001:000098c0       ?getPxActor_Scene@@YAPEAVPxScene@physx@@PEBVPxActor@2@@Z 000000018000a8c0 f   PxAutoGeneratedMetaDataObjects.obj
 0001:000098c0       ?getPxConstraint_Actors@@YAXPEBVPxConstraint@physx@@AEAPEAVPxRigidActor@2@1@Z 000000018000a8c0 f   PxAutoGeneratedMetaDataObjects.obj
 0001:000098c0       ?getPxSceneQuerySystemBase_StaticTimestamp@@YAIPEBVPxSceneQuerySystemBase@physx@@@Z 000000018000a8c0 f   PxAutoGeneratedMetaDataObjects.obj
 0001:000098c0       ?getPxSceneSQSystem_SceneQueryStaticTimestamp@@YAIPEBVPxSceneSQSystem@physx@@@Z 000000018000a8c0 f   PxAutoGeneratedMetaDataObjects.obj
 0001:000098c0       ?setPxArticulationJointReducedCoordinate_ParentPose@@YAXPEAVPxArticulationJointReducedCoordinate@physx@@AEBV?$PxTransformT@M@2@@Z 000000018000a8c0 f   PxAutoGeneratedMetaDataObjects.obj
 0001:000098c0       ?setPxArticulationReducedCoordinate_SolverIterationCounts@@YAXPEAVPxArticulationReducedCoordinate@physx@@II@Z 000000018000a8c0 f   PxAutoGeneratedMetaDataObjects.obj
 0001:000098d0       ?getNbPxArticulationLink_Children@@YAIPEBVPxArticulationLink@physx@@@Z 000000018000a8d0 f   PxAutoGeneratedMetaDataObjects.obj
 0001:000098d0       ?setPxRigidDynamic_SleepThreshold@@YAXPEAVPxRigidDynamic@physx@@M@Z 000000018000a8d0 f   PxAutoGeneratedMetaDataObjects.obj
 0001:000098e0       ?getNbPxPhysics_BVHs@@YAIPEBVPxPhysics@physx@@@Z 000000018000a8e0 f   PxAutoGeneratedMetaDataObjects.obj
 0001:000098e0       ?getPxArticulationReducedCoordinate_MaxCOMAngularVelocity@@YAMPEBVPxArticulationReducedCoordinate@physx@@@Z 000000018000a8e0 f   PxAutoGeneratedMetaDataObjects.obj
 0001:000098e0       ?getPxMaterial_FrictionCombineMode@@YA?AW4Enum@PxCombineMode@physx@@PEBVPxMaterial@3@@Z 000000018000a8e0 f   PxAutoGeneratedMetaDataObjects.obj
 0001:000098e0       ?setPxPBDMaterial_VorticityConfinement@@YAXPEAVPxPBDMaterial@physx@@M@Z 000000018000a8e0 f   PxAutoGeneratedMetaDataObjects.obj
 0001:000098f0       ?getNbPxPhysics_ConvexMeshes@@YAIPEBVPxPhysics@physx@@@Z 000000018000a8f0 f   PxAutoGeneratedMetaDataObjects.obj
 0001:000098f0       ?getPxActor_Aggregate@@YAPEAVPxAggregate@physx@@PEBVPxActor@2@@Z 000000018000a8f0 f   PxAutoGeneratedMetaDataObjects.obj
 0001:000098f0       ?getPxConstraint_MinResponseThreshold@@YAMPEBVPxConstraint@physx@@@Z 000000018000a8f0 f   PxAutoGeneratedMetaDataObjects.obj
 0001:000098f0       ?getPxFEMSoftBodyMaterial_DampingScale@@YAMPEBVPxFEMSoftBodyMaterial@physx@@@Z 000000018000a8f0 f   PxAutoGeneratedMetaDataObjects.obj
 0001:000098f0       ?getPxParticleMaterial_AdhesionRadiusScale@@YAMPEBVPxParticleMaterial@physx@@@Z 000000018000a8f0 f   PxAutoGeneratedMetaDataObjects.obj
 0001:000098f0       ?setPxArticulationReducedCoordinate_MaxCOMLinearVelocity@@YAXPEAVPxArticulationReducedCoordinate@physx@@M@Z 000000018000a8f0 f   PxAutoGeneratedMetaDataObjects.obj
 0001:00009900       ?getNbPxPhysics_FEMClothMaterials@@YAIPEBVPxPhysics@physx@@@Z 000000018000a900 f   PxAutoGeneratedMetaDataObjects.obj
 0001:00009910       ?getNbPxPhysics_FEMSoftBodyMaterials@@YAIPEBVPxPhysics@physx@@@Z 000000018000a910 f   PxAutoGeneratedMetaDataObjects.obj
 0001:00009920       ?getNbPxPhysics_HeightFields@@YAIPEBVPxPhysics@physx@@@Z 000000018000a920 f   PxAutoGeneratedMetaDataObjects.obj
 0001:00009920       ?getPxActor_DominanceGroup@@YAEPEBVPxActor@physx@@@Z 000000018000a920 f   PxAutoGeneratedMetaDataObjects.obj
 0001:00009920       ?getPxAggregate_SelfCollision@@YA_NPEBVPxAggregate@physx@@@Z 000000018000a920 f   PxAutoGeneratedMetaDataObjects.obj
 0001:00009920       ?getPxArticulationJointReducedCoordinate_Motion@@YA?AW4Enum@PxArticulationMotion@physx@@PEBVPxArticulationJointReducedCoordinate@3@W41PxArticulationAxis@3@@Z 000000018000a920 f   PxAutoGeneratedMetaDataObjects.obj
 0001:00009920       ?getPxArticulationReducedCoordinate_WakeCounter@@YAMPEBVPxArticulationReducedCoordinate@physx@@@Z 000000018000a920 f   PxAutoGeneratedMetaDataObjects.obj
 0001:00009920       ?setPxConstraint_BreakForce@@YAXPEAVPxConstraint@physx@@MM@Z 000000018000a920 f   PxAutoGeneratedMetaDataObjects.obj
 0001:00009920       ?setPxFEMSoftBodyMaterial_Damping@@YAXPEAVPxFEMSoftBodyMaterial@physx@@M@Z 000000018000a920 f   PxAutoGeneratedMetaDataObjects.obj
 0001:00009920       ?setPxMaterial_Damping@@YAXPEAVPxMaterial@physx@@M@Z 000000018000a920 f   PxAutoGeneratedMetaDataObjects.obj
 0001:00009920       ?setPxParticleMaterial_GravityScale@@YAXPEAVPxParticleMaterial@physx@@M@Z 000000018000a920 f   PxAutoGeneratedMetaDataObjects.obj
 0001:00009930       ?getNbPxPhysics_Materials@@YAIPEBVPxPhysics@physx@@@Z 000000018000a930 f   PxAutoGeneratedMetaDataObjects.obj
 0001:00009930       ?getNbPxScene_Articulations@@YAIPEBVPxScene@physx@@@Z 000000018000a930 f   PxAutoGeneratedMetaDataObjects.obj
 0001:00009940       ?getNbPxPhysics_PBDMaterials@@YAIPEBVPxPhysics@physx@@@Z 000000018000a940 f   PxAutoGeneratedMetaDataObjects.obj
 0001:00009940       ?getPxScene_CudaContextManager@@YAPEAVPxCudaContextManager@physx@@PEBVPxScene@2@@Z 000000018000a940 f   PxAutoGeneratedMetaDataObjects.obj
 0001:00009940       ?setPxRigidBody_MaxDepenetrationVelocity@@YAXPEAVPxRigidBody@physx@@M@Z 000000018000a940 f   PxAutoGeneratedMetaDataObjects.obj
 0001:00009950       ?getNbPxPhysics_Scenes@@YAIPEBVPxPhysics@physx@@@Z 000000018000a950 f   PxAutoGeneratedMetaDataObjects.obj
 0001:00009950       ?getNbPxRigidActor_Shapes@@YAIPEBVPxRigidActor@physx@@@Z 000000018000a950 f   PxAutoGeneratedMetaDataObjects.obj
 0001:00009950       ?getPxPBDMaterial_SurfaceTension@@YAMPEBVPxPBDMaterial@physx@@@Z 000000018000a950 f   PxAutoGeneratedMetaDataObjects.obj
 0001:00009950       ?setPxArticulationJointReducedCoordinate_Armature@@YAXPEAVPxArticulationJointReducedCoordinate@physx@@W4Enum@PxArticulationAxis@2@M@Z 000000018000a950 f   PxAutoGeneratedMetaDataObjects.obj
 0001:00009950       ?setPxScene_Name@@YAXPEAVPxScene@physx@@PEBD@Z 000000018000a950 f   PxAutoGeneratedMetaDataObjects.obj
 0001:00009960       ?getNbPxPhysics_Shapes@@YAIPEBVPxPhysics@physx@@@Z 000000018000a960 f   PxAutoGeneratedMetaDataObjects.obj
 0001:00009960       ?getPxPBDMaterial_CFLCoefficient@@YAMPEBVPxPBDMaterial@physx@@@Z 000000018000a960 f   PxAutoGeneratedMetaDataObjects.obj
 0001:00009960       ?getPxRigidBody_InvMass@@YAMPEBVPxRigidBody@physx@@@Z 000000018000a960 f   PxAutoGeneratedMetaDataObjects.obj
 0001:00009960       ?setPxArticulationJointReducedCoordinate_JointVelocity@@YAXPEAVPxArticulationJointReducedCoordinate@physx@@W4Enum@PxArticulationAxis@2@M@Z 000000018000a960 f   PxAutoGeneratedMetaDataObjects.obj
 0001:00009960       ?setPxShape_TorsionalPatchRadius@@YAXPEAVPxShape@physx@@M@Z 000000018000a960 f   PxAutoGeneratedMetaDataObjects.obj
 0001:00009970       ?getNbPxPhysics_TetrahedronMeshes@@YAIPEBVPxPhysics@physx@@@Z 000000018000a970 f   PxAutoGeneratedMetaDataObjects.obj
 0001:00009970       ?getPxAggregate_MaxNbShapes@@YAIPEBVPxAggregate@physx@@@Z 000000018000a970 f   PxAutoGeneratedMetaDataObjects.obj
 0001:00009970       ?getPxFEMMaterial_Poissons@@YAMPEBVPxFEMMaterial@physx@@@Z 000000018000a970 f   PxAutoGeneratedMetaDataObjects.obj
 0001:00009970       ?getPxMaterial_StaticFriction@@YAMPEBVPxMaterial@physx@@@Z 000000018000a970 f   PxAutoGeneratedMetaDataObjects.obj
 0001:00009970       ?getPxParticleMaterial_Damping@@YAMPEBVPxParticleMaterial@physx@@@Z 000000018000a970 f   PxAutoGeneratedMetaDataObjects.obj
 0001:00009970       ?getPxSceneSQSystem_StaticStructure@@YA?AW4Enum@PxPruningStructureType@physx@@PEBVPxSceneSQSystem@3@@Z 000000018000a970 f   PxAutoGeneratedMetaDataObjects.obj
 0001:00009970       ?setPxArticulationJointReducedCoordinate_JointType@@YAXPEAVPxArticulationJointReducedCoordinate@physx@@W4Enum@PxArticulationJointType@2@@Z 000000018000a970 f   PxAutoGeneratedMetaDataObjects.obj
 0001:00009970       ?setPxArticulationReducedCoordinate_StabilizationThreshold@@YAXPEAVPxArticulationReducedCoordinate@physx@@M@Z 000000018000a970 f   PxAutoGeneratedMetaDataObjects.obj
 0001:00009970       ?setPxShape_LocalPose@@YAXPEAVPxShape@physx@@AEBV?$PxTransformT@M@2@@Z 000000018000a970 f   PxAutoGeneratedMetaDataObjects.obj
 0001:00009980       ?getNbPxPhysics_TriangleMeshes@@YAIPEBVPxPhysics@physx@@@Z 000000018000a980 f   PxAutoGeneratedMetaDataObjects.obj
 0001:00009980       ?getPxArticulationReducedCoordinate_SolverIterationCounts@@YAXPEBVPxArticulationReducedCoordinate@physx@@AEAI1@Z 000000018000a980 f   PxAutoGeneratedMetaDataObjects.obj
 0001:00009980       ?getPxPruningStructure_StaticMergeData@@YAPEBXPEBVPxPruningStructure@physx@@@Z 000000018000a980 f   PxAutoGeneratedMetaDataObjects.obj
 0001:00009980       ?setPxActor_Name@@YAXPEAVPxActor@physx@@PEBD@Z 000000018000a980 f   PxAutoGeneratedMetaDataObjects.obj
 0001:00009980       ?setPxConstraint_Actors@@YAXPEAVPxConstraint@physx@@PEAVPxRigidActor@2@1@Z 000000018000a980 f   PxAutoGeneratedMetaDataObjects.obj
 0001:00009990       ?getNbPxRigidActor_Constraints@@YAIPEBVPxRigidActor@physx@@@Z 000000018000a990 f   PxAutoGeneratedMetaDataObjects.obj
 0001:00009990       ?getPxPBDMaterial_Cohesion@@YAMPEBVPxPBDMaterial@physx@@@Z 000000018000a990 f   PxAutoGeneratedMetaDataObjects.obj
 0001:00009990       ?setPxArticulationJointReducedCoordinate_FrictionCoefficient@@YAXPEAVPxArticulationJointReducedCoordinate@physx@@M@Z 000000018000a990 f   PxAutoGeneratedMetaDataObjects.obj
 0001:00009990       ?setPxArticulationReducedCoordinate_Name@@YAXPEAVPxArticulationReducedCoordinate@physx@@PEBD@Z 000000018000a990 f   PxAutoGeneratedMetaDataObjects.obj
 0001:00009990       ?setPxShape_ContactOffset@@YAXPEAVPxShape@physx@@M@Z 000000018000a990 f   PxAutoGeneratedMetaDataObjects.obj
 0001:000099a0       ?getNbPxScene_Actors@@YAIPEBVPxScene@physx@@V?$PxFlags@W4Enum@PxActorTypeFlag@physx@@G@2@@Z 000000018000a9a0 f   PxAutoGeneratedMetaDataObjects.obj
 0001:000099c0       ?getNbPxScene_Aggregates@@YAIPEBVPxScene@physx@@@Z 000000018000a9c0 f   PxAutoGeneratedMetaDataObjects.obj
 0001:000099d0       ?getNbPxScene_BroadPhaseRegions@@YAIPEBVPxScene@physx@@@Z 000000018000a9d0 f   PxAutoGeneratedMetaDataObjects.obj
 0001:000099e0       ?getNbPxScene_Constraints@@YAIPEBVPxScene@physx@@@Z 000000018000a9e0 f   PxAutoGeneratedMetaDataObjects.obj
 0001:000099f0       ?getNbPxScene_SoftBodies@@YAIPEBVPxScene@physx@@@Z 000000018000a9f0 f   PxAutoGeneratedMetaDataObjects.obj
 0001:000099f0       ?getPxRigidBody_AngularDamping@@YAMPEBVPxRigidBody@physx@@@Z 000000018000a9f0 f   PxAutoGeneratedMetaDataObjects.obj
 0001:00009a00       ?getNbPxShape_Materials@@YAIPEBVPxShape@physx@@@Z 000000018000aa00 f   PxAutoGeneratedMetaDataObjects.obj
 0001:00009a20       ?getCpuDispatcher@PxTaskMgr@physx@@UEBAPEAVPxCpuDispatcher@2@XZ 000000018000aa20 f i PhysXTask_static_64:TaskManager.obj
 0001:00009a20       ?getPxActorUserData@@YAPEAXPEBVPxActor@physx@@@Z 000000018000aa20 f i PxAutoGeneratedMetaDataObjects.obj
 0001:00009a20       ?getPxAggregateUserData@@YAPEAXPEBVPxAggregate@physx@@@Z 000000018000aa20 f i PxAutoGeneratedMetaDataObjects.obj
 0001:00009a20       ?getPxArticulationJointReducedCoordinateUserData@@YAPEAXPEBVPxArticulationJointReducedCoordinate@physx@@@Z 000000018000aa20 f i PxAutoGeneratedMetaDataObjects.obj
 0001:00009a20       ?getPxArticulationReducedCoordinateUserData@@YAPEAXPEBVPxArticulationReducedCoordinate@physx@@@Z 000000018000aa20 f i PxAutoGeneratedMetaDataObjects.obj
 0001:00009a20       ?getPxBaseMaterialUserData@@YAPEAXPEBVPxBaseMaterial@physx@@@Z 000000018000aa20 f i PxAutoGeneratedMetaDataObjects.obj
 0001:00009a20       ?getPxBroadPhaseDescMContextManager@@YAPEAVPxCudaContextManager@physx@@PEBVPxBroadPhaseDesc@2@@Z 000000018000aa20 f i PxAutoGeneratedMetaDataObjects.obj
 0001:00009a20       ?getPxConstraintUserData@@YAPEAXPEBVPxConstraint@physx@@@Z 000000018000aa20 f i PxAutoGeneratedMetaDataObjects.obj
 0001:00009a20       ?getPxShapeUserData@@YAPEAXPEBVPxShape@physx@@@Z 000000018000aa20 f i PxAutoGeneratedMetaDataObjects.obj
 0001:00009a30       ?getPxActor_ActorFlags@@YA?AV?$PxFlags@W4Enum@PxActorFlag@physx@@E@physx@@PEBVPxActor@2@@Z 000000018000aa30 f   PxAutoGeneratedMetaDataObjects.obj
 0001:00009a30       ?getPxShape_LocalPose@@YA?AV?$PxTransformT@M@physx@@PEBVPxShape@2@@Z 000000018000aa30 f   PxAutoGeneratedMetaDataObjects.obj
 0001:00009a60       ?getPxActor_Name@@YAPEBDPEBVPxActor@physx@@@Z 000000018000aa60 f   PxAutoGeneratedMetaDataObjects.obj
 0001:00009a60       ?getPxArticulationReducedCoordinate_IsSleeping@@YA_NPEBVPxArticulationReducedCoordinate@physx@@@Z 000000018000aa60 f   PxAutoGeneratedMetaDataObjects.obj
 0001:00009a60       ?getPxPruningStructure_DynamicMergeData@@YAPEBXPEBVPxPruningStructure@physx@@@Z 000000018000aa60 f   PxAutoGeneratedMetaDataObjects.obj
 0001:00009a60       ?setPxFEMMaterial_YoungsModulus@@YAXPEAVPxFEMMaterial@physx@@M@Z 000000018000aa60 f   PxAutoGeneratedMetaDataObjects.obj
 0001:00009a60       ?setPxMaterial_DynamicFriction@@YAXPEAVPxMaterial@physx@@M@Z 000000018000aa60 f   PxAutoGeneratedMetaDataObjects.obj
 0001:00009a60       ?setPxParticleMaterial_Friction@@YAXPEAVPxParticleMaterial@physx@@M@Z 000000018000aa60 f   PxAutoGeneratedMetaDataObjects.obj
 0001:00009a60       ?setPxShape_Geom@PxShapeGeomProperty@physx@@SAXPEAVPxShape@2@AEBVPxGeometry@2@@Z 000000018000aa60 f   PxAutoGeneratedMetaDataObjects.obj
 0001:00009a70       ?getPxAggregate_Actors@@YAIPEBVPxAggregate@physx@@PEAPEAVPxActor@2@I@Z 000000018000aa70 f   PxAutoGeneratedMetaDataObjects.obj
 0001:00009a70       ?getPxPhysics_TetrahedronMeshes@@YAIPEBVPxPhysics@physx@@PEAPEAVPxTetrahedronMesh@2@I@Z 000000018000aa70 f   PxAutoGeneratedMetaDataObjects.obj
 0001:00009a80       ?getPxAggregate_ConcreteTypeName@@YAPEBDPEBVPxAggregate@physx@@@Z 000000018000aa80 f   PxAutoGeneratedMetaDataObjects.obj
 0001:00009a80       ?getPxArticulationJointReducedCoordinate_ConcreteTypeName@@YAPEBDPEBVPxArticulationJointReducedCoordinate@physx@@@Z 000000018000aa80 f   PxAutoGeneratedMetaDataObjects.obj
 0001:00009a80       ?getPxArticulationLink_ConcreteTypeName@@YAPEBDPEBVPxArticulationLink@physx@@@Z 000000018000aa80 f   PxAutoGeneratedMetaDataObjects.obj
 0001:00009a80       ?getPxConstraint_ConcreteTypeName@@YAPEBDPEBVPxConstraint@physx@@@Z 000000018000aa80 f   PxAutoGeneratedMetaDataObjects.obj
 0001:00009a80       ?getPxFEMSoftBodyMaterial_ConcreteTypeName@@YAPEBDPEBVPxFEMSoftBodyMaterial@physx@@@Z 000000018000aa80 f   PxAutoGeneratedMetaDataObjects.obj
 0001:00009a80       ?getPxMaterial_ConcreteTypeName@@YAPEBDPEBVPxMaterial@physx@@@Z 000000018000aa80 f   PxAutoGeneratedMetaDataObjects.obj
 0001:00009a80       ?getPxPBDMaterial_ConcreteTypeName@@YAPEBDPEBVPxPBDMaterial@physx@@@Z 000000018000aa80 f   PxAutoGeneratedMetaDataObjects.obj
 0001:00009a80       ?getPxPruningStructure_ConcreteTypeName@@YAPEBDPEBVPxPruningStructure@physx@@@Z 000000018000aa80 f   PxAutoGeneratedMetaDataObjects.obj
 0001:00009a80       ?getPxRigidDynamic_ConcreteTypeName@@YAPEBDPEBVPxRigidDynamic@physx@@@Z 000000018000aa80 f   PxAutoGeneratedMetaDataObjects.obj
 0001:00009a80       ?getPxRigidStatic_ConcreteTypeName@@YAPEBDPEBVPxRigidStatic@physx@@@Z 000000018000aa80 f   PxAutoGeneratedMetaDataObjects.obj
 0001:00009a80       ?getPxShape_ConcreteTypeName@@YAPEBDPEBVPxShape@physx@@@Z 000000018000aa80 f   PxAutoGeneratedMetaDataObjects.obj
 0001:00009a80       ?setPxSceneQuerySystemBase_DynamicTreeRebuildRateHint@@YAXPEAVPxSceneQuerySystemBase@physx@@I@Z 000000018000aa80 f   PxAutoGeneratedMetaDataObjects.obj
 0001:00009a90       ?getPxAggregate_MaxNbActors@@YAIPEBVPxAggregate@physx@@@Z 000000018000aa90 f   PxAutoGeneratedMetaDataObjects.obj
 0001:00009a90       ?getPxArticulationReducedCoordinate_SleepThreshold@@YAMPEBVPxArticulationReducedCoordinate@physx@@@Z 000000018000aa90 f   PxAutoGeneratedMetaDataObjects.obj
 0001:00009a90       ?setPxFEMMaterial_Poissons@@YAXPEAVPxFEMMaterial@physx@@M@Z 000000018000aa90 f   PxAutoGeneratedMetaDataObjects.obj
 0001:00009a90       ?setPxMaterial_StaticFriction@@YAXPEAVPxMaterial@physx@@M@Z 000000018000aa90 f   PxAutoGeneratedMetaDataObjects.obj
 0001:00009a90       ?setPxParticleMaterial_Damping@@YAXPEAVPxParticleMaterial@physx@@M@Z 000000018000aa90 f   PxAutoGeneratedMetaDataObjects.obj
 0001:00009aa0       ?getDamping@ArticulationFixedTendonCore@Sc@physx@@QEBAMXZ 000000018000aaa0 f i SimulationController_static_64:ScArticulationTendonCore.obj
 0001:00009aa0       ?getDamping@ArticulationSpatialTendonCore@Sc@physx@@QEBAMXZ 000000018000aaa0 f i SimulationController_static_64:ScArticulationTendonCore.obj
 0001:00009aa0       ?getPxArticulationDriveDamping@@YAMPEBUPxArticulationDrive@physx@@@Z 000000018000aaa0 f i PxAutoGeneratedMetaDataObjects.obj
 0001:00009aa0       ?getPxArticulationLimitHigh@@YAMPEBUPxArticulationLimit@physx@@@Z 000000018000aaa0 f i PxAutoGeneratedMetaDataObjects.obj
 0001:00009aa0       ?getPxTolerancesScaleSpeed@@YAMPEBVPxTolerancesScale@physx@@@Z 000000018000aaa0 f i PxAutoGeneratedMetaDataObjects.obj
 0001:00009ab0       ?getPxArticulationDriveDriveType@@YA?AW4Enum@PxArticulationDriveType@physx@@PEBUPxArticulationDrive@3@@Z 000000018000aab0 f i PxAutoGeneratedMetaDataObjects.obj
 0001:00009ab0       ?getPxSceneLimitsMaxNbDynamicShapes@@YAIPEBVPxSceneLimits@physx@@@Z 000000018000aab0 f i PxAutoGeneratedMetaDataObjects.obj
 0001:00009ab0       ?getPxSceneQueryDescDynamicTreeSecondaryPruner@@YA?AW4Enum@PxDynamicTreeSecondaryPruner@physx@@PEBVPxSceneQueryDesc@3@@Z 000000018000aab0 f i PxAutoGeneratedMetaDataObjects.obj
 0001:00009ab0       ?getPxSimulationStatisticsNbStaticBodies@@YAIPEBVPxSimulationStatistics@physx@@@Z 000000018000aab0 f i PxAutoGeneratedMetaDataObjects.obj
 0001:00009ab0       ?getPxgDynamicsMemoryConfigHeapCapacity@@YAIPEBUPxgDynamicsMemoryConfig@physx@@@Z 000000018000aab0 f i PxAutoGeneratedMetaDataObjects.obj
 0001:00009ab0       ?getReferenceCount@NpFEMSoftBodyMaterial@physx@@UEBAIXZ 000000018000aab0 f i NpFEMSoftBodyMaterial.obj
 0001:00009ab0       ?getReferenceCount@NpMaterial@physx@@UEBAIXZ 000000018000aab0 f i NpMaterial.obj
 0001:00009ab0       ?getReferenceCount@NpPBDMaterial@physx@@UEBAIXZ 000000018000aab0 f i NpPBDMaterial.obj
 0001:00009ab0       ?getReferenceCount@NpShape@physx@@UEBAIXZ 000000018000aab0 f i NpShape.obj
 0001:00009ab0       ?length@DNameStatusNode@@UEBAHXZ 000000018000aab0 f i libvcruntime:undname.obj
 0001:00009ab0       ?raw_length@DNameStatusNode@@UEBAHXZ 000000018000aab0 f i libvcruntime:undname.obj
 0001:00009ac0       ?getOffset@ArticulationFixedTendonCore@Sc@physx@@QEBAMXZ 000000018000aac0 f i SimulationController_static_64:ScArticulationTendonCore.obj
 0001:00009ac0       ?getOffset@ArticulationSpatialTendonCore@Sc@physx@@QEBAMXZ 000000018000aac0 f i SimulationController_static_64:ScArticulationTendonCore.obj
 0001:00009ac0       ?getPxArticulationDriveMaxForce@@YAMPEBUPxArticulationDrive@physx@@@Z 000000018000aac0 f i PxAutoGeneratedMetaDataObjects.obj
 0001:00009ac0       ?getPxCapsuleGeometryRadius@@YAMPEBVPxCapsuleGeometry@physx@@@Z 000000018000aac0 f i PxAutoGeneratedMetaDataObjects.obj
 0001:00009ac0       ?getPxSphereGeometryRadius@@YAMPEBVPxSphereGeometry@physx@@@Z 000000018000aac0 f i PxAutoGeneratedMetaDataObjects.obj
 0001:00009ad0       ?getPxArticulationDriveStiffness@@YAMPEBUPxArticulationDrive@physx@@@Z 000000018000aad0 f i PxAutoGeneratedMetaDataObjects.obj
 0001:00009ad0       ?getPxArticulationLimitLow@@YAMPEBUPxArticulationLimit@physx@@@Z 000000018000aad0 f i PxAutoGeneratedMetaDataObjects.obj
 0001:00009ad0       ?getPxTolerancesScaleLength@@YAMPEBVPxTolerancesScale@physx@@@Z 000000018000aad0 f i PxAutoGeneratedMetaDataObjects.obj
 0001:00009ad0       ?getStiffness@ArticulationFixedTendonCore@Sc@physx@@QEBAMXZ 000000018000aad0 f i SimulationController_static_64:ScArticulationTendonCore.obj
 0001:00009ad0       ?getStiffness@ArticulationSpatialTendonCore@Sc@physx@@QEBAMXZ 000000018000aad0 f i SimulationController_static_64:ScArticulationTendonCore.obj
 0001:00009ae0       ?getPxArticulationJointReducedCoordinate_Armature@@YAMPEBVPxArticulationJointReducedCoordinate@physx@@W4Enum@PxArticulationAxis@2@@Z 000000018000aae0 f   PxAutoGeneratedMetaDataObjects.obj
 0001:00009ae0       ?getPxScene_Name@@YAPEBDPEBVPxScene@physx@@@Z 000000018000aae0 f   PxAutoGeneratedMetaDataObjects.obj
 0001:00009ae0       ?setPxPBDMaterial_Cohesion@@YAXPEAVPxPBDMaterial@physx@@M@Z 000000018000aae0 f   PxAutoGeneratedMetaDataObjects.obj
 0001:00009af0       ?getPxArticulationJointReducedCoordinate_ChildPose@@YA?AV?$PxTransformT@M@physx@@PEBVPxArticulationJointReducedCoordinate@2@@Z 000000018000aaf0 f   PxAutoGeneratedMetaDataObjects.obj
 0001:00009b20       ?getPxArticulationJointReducedCoordinate_DriveParams@@YA?AUPxArticulationDrive@physx@@PEBVPxArticulationJointReducedCoordinate@2@W4Enum@PxArticulationAxis@2@@Z 000000018000ab20 f   PxAutoGeneratedMetaDataObjects.obj
 0001:00009b50       ?getPxArticulationJointReducedCoordinate_FrictionCoefficient@@YAMPEBVPxArticulationJointReducedCoordinate@physx@@@Z 000000018000ab50 f   PxAutoGeneratedMetaDataObjects.obj
 0001:00009b50       ?getPxArticulationReducedCoordinate_Name@@YAPEBDPEBVPxArticulationReducedCoordinate@physx@@@Z 000000018000ab50 f   PxAutoGeneratedMetaDataObjects.obj
 0001:00009b50       ?getPxShape_ContactOffset@@YAMPEBVPxShape@physx@@@Z 000000018000ab50 f   PxAutoGeneratedMetaDataObjects.obj
 0001:00009b50       ?setPxPBDMaterial_Lift@@YAXPEAVPxPBDMaterial@physx@@M@Z 000000018000ab50 f   PxAutoGeneratedMetaDataObjects.obj
 0001:00009b60       ?getPxArticulationJointReducedCoordinate_JointPosition@@YAMPEBVPxArticulationJointReducedCoordinate@physx@@W4Enum@PxArticulationAxis@2@@Z 000000018000ab60 f   PxAutoGeneratedMetaDataObjects.obj
 0001:00009b60       ?getPxRigidBody_Mass@@YAMPEBVPxRigidBody@physx@@@Z 000000018000ab60 f   PxAutoGeneratedMetaDataObjects.obj
 0001:00009b60       ?getPxShape_DensityForFluid@@YAMPEBVPxShape@physx@@@Z 000000018000ab60 f   PxAutoGeneratedMetaDataObjects.obj
 0001:00009b60       ?setPxPBDMaterial_CFLCoefficient@@YAXPEAVPxPBDMaterial@physx@@M@Z 000000018000ab60 f   PxAutoGeneratedMetaDataObjects.obj
 0001:00009b70       ?getPxArticulationJointReducedCoordinate_JointType@@YA?AW4Enum@PxArticulationJointType@physx@@PEBVPxArticulationJointReducedCoordinate@3@@Z 000000018000ab70 f   PxAutoGeneratedMetaDataObjects.obj
 0001:00009b70       ?getPxArticulationReducedCoordinate_StabilizationThreshold@@YAMPEBVPxArticulationReducedCoordinate@physx@@@Z 000000018000ab70 f   PxAutoGeneratedMetaDataObjects.obj
 0001:00009b70       ?getPxSceneSQSystem_DynamicStructure@@YA?AW4Enum@PxPruningStructureType@physx@@PEBVPxSceneSQSystem@3@@Z 000000018000ab70 f   PxAutoGeneratedMetaDataObjects.obj
 0001:00009b70       ?setPxFEMMaterial_DynamicFriction@@YAXPEAVPxFEMMaterial@physx@@M@Z 000000018000ab70 f   PxAutoGeneratedMetaDataObjects.obj
 0001:00009b70       ?setPxMaterial_Restitution@@YAXPEAVPxMaterial@physx@@M@Z 000000018000ab70 f   PxAutoGeneratedMetaDataObjects.obj
 0001:00009b70       ?setPxParticleMaterial_Adhesion@@YAXPEAVPxParticleMaterial@physx@@M@Z 000000018000ab70 f   PxAutoGeneratedMetaDataObjects.obj
 0001:00009b80       ?getPxArticulationJointReducedCoordinate_JointVelocity@@YAMPEBVPxArticulationJointReducedCoordinate@physx@@W4Enum@PxArticulationAxis@2@@Z 000000018000ab80 f   PxAutoGeneratedMetaDataObjects.obj
 0001:00009b80       ?getPxShape_TorsionalPatchRadius@@YAMPEBVPxShape@physx@@@Z 000000018000ab80 f   PxAutoGeneratedMetaDataObjects.obj
 0001:00009b80       ?setPxPBDMaterial_ParticleFrictionScale@@YAXPEAVPxPBDMaterial@physx@@M@Z 000000018000ab80 f   PxAutoGeneratedMetaDataObjects.obj
 0001:00009b80       ?setPxRigidBody_MassSpaceInertiaTensor@@YAXPEAVPxRigidBody@physx@@AEBV?$PxVec3T@M@2@@Z 000000018000ab80 f   PxAutoGeneratedMetaDataObjects.obj
 0001:00009b90       ?getPxArticulationJointReducedCoordinate_LimitParams@@YA?AUPxArticulationLimit@physx@@PEBVPxArticulationJointReducedCoordinate@2@W4Enum@PxArticulationAxis@2@@Z 000000018000ab90 f   PxAutoGeneratedMetaDataObjects.obj
 0001:00009bc0       ?getPxArticulationJointReducedCoordinate_MaxJointVelocity@@YAMPEBVPxArticulationJointReducedCoordinate@physx@@@Z 000000018000abc0 f   PxAutoGeneratedMetaDataObjects.obj
 0001:00009bc0       ?getPxArticulationReducedCoordinate_Aggregate@@YAPEAVPxAggregate@physx@@PEBVPxArticulationReducedCoordinate@2@@Z 000000018000abc0 f   PxAutoGeneratedMetaDataObjects.obj
 0001:00009bc0       ?getPxShape_RestOffset@@YAMPEBVPxShape@physx@@@Z 000000018000abc0 f   PxAutoGeneratedMetaDataObjects.obj
 0001:00009bc0       ?setPxPBDMaterial_Drag@@YAXPEAVPxPBDMaterial@physx@@M@Z 000000018000abc0 f   PxAutoGeneratedMetaDataObjects.obj
 0001:00009bd0       ?getPxArticulationJointReducedCoordinate_ParentPose@@YA?AV?$PxTransformT@M@physx@@PEBVPxArticulationJointReducedCoordinate@2@@Z 000000018000abd0 f   PxAutoGeneratedMetaDataObjects.obj
 0001:00009c00       ?getPxArticulationLink_AngularVelocity@@YA?AV?$PxVec3T@M@physx@@PEBVPxArticulationLink@2@@Z 000000018000ac00 f   PxAutoGeneratedMetaDataObjects.obj
 0001:00009c00       ?getPxRigidDynamic_AngularVelocity@@YA?AV?$PxVec3T@M@physx@@PEBVPxRigidDynamic@2@@Z 000000018000ac00 f   PxAutoGeneratedMetaDataObjects.obj
 0001:00009c30       ?getPxArticulationLink_CfmScale@@YAMPEBVPxArticulationLink@physx@@@Z 000000018000ac30 f   PxAutoGeneratedMetaDataObjects.obj
 0001:00009c30       ?getPxScene_FilterCallback@@YAPEAVPxSimulationFilterCallback@physx@@PEBVPxScene@2@@Z 000000018000ac30 f   PxAutoGeneratedMetaDataObjects.obj
 0001:00009c40       ?getPxArticulationLink_Children@@YAIPEBVPxArticulationLink@physx@@PEAPEAV12@I@Z 000000018000ac40 f   PxAutoGeneratedMetaDataObjects.obj
 0001:00009c50       ?getPxArticulationLink_InboundJoint@@YAPEAVPxArticulationJointReducedCoordinate@physx@@PEBVPxArticulationLink@2@@Z 000000018000ac50 f   PxAutoGeneratedMetaDataObjects.obj
 0001:00009c50       ?setPxScene_BroadPhaseCallback@@YAXPEAVPxScene@physx@@PEAVPxBroadPhaseCallback@2@@Z 000000018000ac50 f   PxAutoGeneratedMetaDataObjects.obj
 0001:00009c60       ?getPxArticulationLink_InboundJointDof@@YAIPEBVPxArticulationLink@physx@@@Z 000000018000ac60 f   PxAutoGeneratedMetaDataObjects.obj
 0001:00009c60       ?getPxRigidDynamic_IsSleeping@@YA_NPEBVPxRigidDynamic@physx@@@Z 000000018000ac60 f   PxAutoGeneratedMetaDataObjects.obj
 0001:00009c60       ?getPxScene_BroadPhaseCallback@@YAPEAVPxBroadPhaseCallback@physx@@PEBVPxScene@2@@Z 000000018000ac60 f   PxAutoGeneratedMetaDataObjects.obj
 0001:00009c70       ?getPxArticulationLink_LinearVelocity@@YA?AV?$PxVec3T@M@physx@@PEBVPxArticulationLink@2@@Z 000000018000ac70 f   PxAutoGeneratedMetaDataObjects.obj
 0001:00009c70       ?getPxRigidDynamic_LinearVelocity@@YA?AV?$PxVec3T@M@physx@@PEBVPxRigidDynamic@2@@Z 000000018000ac70 f   PxAutoGeneratedMetaDataObjects.obj
 0001:00009ca0       ?getPxArticulationLink_LinkIndex@@YAIPEBVPxArticulationLink@physx@@@Z 000000018000aca0 f   PxAutoGeneratedMetaDataObjects.obj
 0001:00009ca0       ?getPxRigidDynamic_SleepThreshold@@YAMPEBVPxRigidDynamic@physx@@@Z 000000018000aca0 f   PxAutoGeneratedMetaDataObjects.obj
 0001:00009cb0       ?getPxArticulationReducedCoordinate_ArticulationFlags@@YA?AV?$PxFlags@W4Enum@PxArticulationFlag@physx@@E@physx@@PEBVPxArticulationReducedCoordinate@2@@Z 000000018000acb0 f   PxAutoGeneratedMetaDataObjects.obj
 0001:00009ce0       ?getPxArticulationReducedCoordinate_Links@@YAIPEBVPxArticulationReducedCoordinate@physx@@PEAPEAVPxArticulationLink@2@I@Z 000000018000ace0 f   PxAutoGeneratedMetaDataObjects.obj
 0001:00009cf0       ?getPxArticulationReducedCoordinate_MaxCOMLinearVelocity@@YAMPEBVPxArticulationReducedCoordinate@physx@@@Z 000000018000acf0 f   PxAutoGeneratedMetaDataObjects.obj
 0001:00009cf0       ?setPxFEMSoftBodyMaterial_MaterialModel@@YAXPEAVPxFEMSoftBodyMaterial@physx@@W4Enum@PxFEMSoftBodyMaterialModel@2@@Z 000000018000acf0 f   PxAutoGeneratedMetaDataObjects.obj
 0001:00009cf0       ?setPxPBDMaterial_Viscosity@@YAXPEAVPxPBDMaterial@physx@@M@Z 000000018000acf0 f   PxAutoGeneratedMetaDataObjects.obj
 0001:00009d00       ?getPxArticulationReducedCoordinate_RootAngularVelocity@@YA?AV?$PxVec3T@M@physx@@PEBVPxArticulationReducedCoordinate@2@@Z 000000018000ad00 f   PxAutoGeneratedMetaDataObjects.obj
 0001:00009d30       ?getPxArticulationReducedCoordinate_RootGlobalPose@@YA?AV?$PxTransformT@M@physx@@PEBVPxArticulationReducedCoordinate@2@@Z 000000018000ad30 f   PxAutoGeneratedMetaDataObjects.obj
 0001:00009d60       ?getPxArticulationReducedCoordinate_RootLinearVelocity@@YA?AV?$PxVec3T@M@physx@@PEBVPxArticulationReducedCoordinate@2@@Z 000000018000ad60 f   PxAutoGeneratedMetaDataObjects.obj
 0001:00009d90       ?getPxArticulationReducedCoordinate_Scene@@YAPEAVPxScene@physx@@PEBVPxArticulationReducedCoordinate@2@@Z 000000018000ad90 f   PxAutoGeneratedMetaDataObjects.obj
 0001:00009d90       ?getPxConstraint_Scene@@YAPEAVPxScene@physx@@PEBVPxConstraint@2@@Z 000000018000ad90 f   PxAutoGeneratedMetaDataObjects.obj
 0001:00009d90       ?getPxRefCounted_ReferenceCount@@YAIPEBVPxRefCounted@physx@@@Z 000000018000ad90 f   PxAutoGeneratedMetaDataObjects.obj
 0001:00009d90       ?getPxSceneQuerySystemBase_UpdateMode@@YA?AW4Enum@PxSceneQueryUpdateMode@physx@@PEBVPxSceneQuerySystemBase@3@@Z 000000018000ad90 f   PxAutoGeneratedMetaDataObjects.obj
 0001:00009d90       ?getPxSceneSQSystem_SceneQueryUpdateMode@@YA?AW4Enum@PxSceneQueryUpdateMode@physx@@PEBVPxSceneSQSystem@3@@Z 000000018000ad90 f   PxAutoGeneratedMetaDataObjects.obj
 0001:00009da0       ?getConcreteTypeName@?$PxSerializerDefaultAdapter@VBV4TriangleMesh@Gu@physx@@@physx@@UEBAPEBDXZ 000000018000ada0 f i NpSerializerAdapter.obj
 0001:00009da0       ?getConcreteTypeName@?$PxSerializerDefaultAdapter@VConvexMesh@Gu@physx@@@physx@@UEBAPEBDXZ 000000018000ada0 f i NpSerializerAdapter.obj
 0001:00009da0       ?getConcreteTypeName@?$PxSerializerDefaultAdapter@VHeightField@Gu@physx@@@physx@@UEBAPEBDXZ 000000018000ada0 f i NpSerializerAdapter.obj
 0001:00009da0       ?getConcreteTypeName@?$PxSerializerDefaultAdapter@VNpAggregate@physx@@@physx@@UEBAPEBDXZ 000000018000ada0 f i NpSerializerAdapter.obj
 0001:00009da0       ?getConcreteTypeName@?$PxSerializerDefaultAdapter@VNpArticulationAttachment@physx@@@physx@@UEBAPEBDXZ 000000018000ada0 f i NpSerializerAdapter.obj
 0001:00009da0       ?getConcreteTypeName@?$PxSerializerDefaultAdapter@VNpArticulationFixedTendon@physx@@@physx@@UEBAPEBDXZ 000000018000ada0 f i NpSerializerAdapter.obj
 0001:00009da0       ?getConcreteTypeName@?$PxSerializerDefaultAdapter@VNpArticulationJointReducedCoordinate@physx@@@physx@@UEBAPEBDXZ 000000018000ada0 f i NpSerializerAdapter.obj
 0001:00009da0       ?getConcreteTypeName@?$PxSerializerDefaultAdapter@VNpArticulationLink@physx@@@physx@@UEBAPEBDXZ 000000018000ada0 f i NpSerializerAdapter.obj
 0001:00009da0       ?getConcreteTypeName@?$PxSerializerDefaultAdapter@VNpArticulationReducedCoordinate@physx@@@physx@@UEBAPEBDXZ 000000018000ada0 f i NpSerializerAdapter.obj
 0001:00009da0       ?getConcreteTypeName@?$PxSerializerDefaultAdapter@VNpArticulationSensor@physx@@@physx@@UEBAPEBDXZ 000000018000ada0 f i NpSerializerAdapter.obj
 0001:00009da0       ?getConcreteTypeName@?$PxSerializerDefaultAdapter@VNpArticulationSpatialTendon@physx@@@physx@@UEBAPEBDXZ 000000018000ada0 f i NpSerializerAdapter.obj
 0001:00009da0       ?getConcreteTypeName@?$PxSerializerDefaultAdapter@VNpArticulationTendonJoint@physx@@@physx@@UEBAPEBDXZ 000000018000ada0 f i NpSerializerAdapter.obj
 0001:00009da0       ?getConcreteTypeName@?$PxSerializerDefaultAdapter@VNpConstraint@physx@@@physx@@UEBAPEBDXZ 000000018000ada0 f i NpSerializerAdapter.obj
 0001:00009da0       ?getConcreteTypeName@?$PxSerializerDefaultAdapter@VNpMaterial@physx@@@physx@@UEBAPEBDXZ 000000018000ada0 f i NpSerializerAdapter.obj
 0001:00009da0       ?getConcreteTypeName@?$PxSerializerDefaultAdapter@VNpRigidDynamic@physx@@@physx@@UEBAPEBDXZ 000000018000ada0 f i NpSerializerAdapter.obj
 0001:00009da0       ?getConcreteTypeName@?$PxSerializerDefaultAdapter@VNpRigidStatic@physx@@@physx@@UEBAPEBDXZ 000000018000ada0 f i NpSerializerAdapter.obj
 0001:00009da0       ?getConcreteTypeName@?$PxSerializerDefaultAdapter@VNpShape@physx@@@physx@@UEBAPEBDXZ 000000018000ada0 f i NpSerializerAdapter.obj
 0001:00009da0       ?getConcreteTypeName@?$PxSerializerDefaultAdapter@VPruningStructure@Sq@physx@@@physx@@UEBAPEBDXZ 000000018000ada0 f i NpSerializerAdapter.obj
 0001:00009da0       ?getConcreteTypeName@?$PxSerializerDefaultAdapter@VRTreeTriangleMesh@Gu@physx@@@physx@@UEBAPEBDXZ 000000018000ada0 f i NpSerializerAdapter.obj
 0001:00009da0       ?getPoints@RenderBuffer@Cm@physx@@UEBAPEBUPxDebugPoint@3@XZ 000000018000ada0 f i NpScene.obj
 0001:00009da0       ?getPxBroadPhaseDescMContextID@@YA_KPEBVPxBroadPhaseDesc@physx@@@Z 000000018000ada0 f i PxAutoGeneratedMetaDataObjects.obj
 0001:00009da0       ?getPxHeightFieldGeometryHeightField@@YAPEAVPxHeightField@physx@@PEBVPxHeightFieldGeometry@2@@Z 000000018000ada0 f i PxAutoGeneratedMetaDataObjects.obj
 0001:00009da0       ?getPxSceneUserData@@YAPEAXPEBVPxScene@physx@@@Z 000000018000ada0 f i PxAutoGeneratedMetaDataObjects.obj
 0001:00009da0       ?getPxTetrahedronMeshGeometryTetrahedronMesh@@YAPEAVPxTetrahedronMesh@physx@@PEBVPxTetrahedronMeshGeometry@2@@Z 000000018000ada0 f i PxAutoGeneratedMetaDataObjects.obj
 0001:00009db0       ?getPxBroadPhaseDescMDiscardKinematicVsKinematic@@YA_NPEBVPxBroadPhaseDesc@physx@@@Z 000000018000adb0 f i PxAutoGeneratedMetaDataObjects.obj
 0001:00009dc0       ?getPxBroadPhaseDescMDiscardStaticVsKinematic@@YA_NPEBVPxBroadPhaseDesc@physx@@@Z 000000018000adc0 f i PxAutoGeneratedMetaDataObjects.obj
 0001:00009dd0       ?getPxBroadPhaseDescMFoundLostPairsCapacity@@YAIPEBVPxBroadPhaseDesc@physx@@@Z 000000018000add0 f i PxAutoGeneratedMetaDataObjects.obj
 0001:00009dd0       ?getPxSceneLimitsMaxNbRegions@@YAIPEBVPxSceneLimits@physx@@@Z 000000018000add0 f i PxAutoGeneratedMetaDataObjects.obj
 0001:00009dd0       ?getPxSceneQueryDescStaticNbObjectsPerNode@@YAIPEBVPxSceneQueryDesc@physx@@@Z 000000018000add0 f i PxAutoGeneratedMetaDataObjects.obj
 0001:00009dd0       ?getPxgDynamicsMemoryConfigTotalAggregatePairsCapacity@@YAIPEBUPxgDynamicsMemoryConfig@physx@@@Z 000000018000add0 f i PxAutoGeneratedMetaDataObjects.obj
 0001:00009dd0       ?getReference@FanoutTask@Cm@physx@@UEBAHXZ 000000018000add0 f i SimulationController_static_64:ScScene.obj
 0001:00009dd0       ?raw_length@pairNode@@UEBAHXZ 000000018000add0 f i libvcruntime:undname.obj
 0001:00009de0       ?getPxBroadPhaseDescMType@@YA?AW4Enum@PxBroadPhaseType@physx@@PEBVPxBroadPhaseDesc@3@@Z 000000018000ade0 f i PxAutoGeneratedMetaDataObjects.obj
 0001:00009de0       ?getPxHeightFieldDescNbRows@@YAIPEBVPxHeightFieldDesc@physx@@@Z 000000018000ade0 f i PxAutoGeneratedMetaDataObjects.obj
 0001:00009de0       ?getPxSceneLimitsMaxNbActors@@YAIPEBVPxSceneLimits@physx@@@Z 000000018000ade0 f i PxAutoGeneratedMetaDataObjects.obj
 0001:00009de0       ?getPxSceneQueryDescStaticStructure@@YA?AW4Enum@PxPruningStructureType@physx@@PEBVPxSceneQueryDesc@3@@Z 000000018000ade0 f i PxAutoGeneratedMetaDataObjects.obj
 0001:00009de0       ?getPxSimulationStatisticsNbActiveConstraints@@YAIPEBVPxSimulationStatistics@physx@@@Z 000000018000ade0 f i PxAutoGeneratedMetaDataObjects.obj
 0001:00009de0       ?getPxgDynamicsMemoryConfigTempBufferCapacity@@YAIPEBUPxgDynamicsMemoryConfig@physx@@@Z 000000018000ade0 f i PxAutoGeneratedMetaDataObjects.obj
 0001:00009df0       ?getPxBroadPhaseDesc_IsValid@@YA_NPEBVPxBroadPhaseDesc@physx@@@Z 000000018000adf0 f   PxAutoGeneratedMetaDataObjects.obj
 0001:00009e10       ?getLimitStiffness@ArticulationFixedTendonCore@Sc@physx@@QEBAMXZ 000000018000ae10 f i SimulationController_static_64:ScArticulationTendonCore.obj
 0001:00009e10       ?getLimitStiffness@ArticulationSpatialTendonCore@Sc@physx@@QEBAMXZ 000000018000ae10 f i SimulationController_static_64:ScArticulationTendonCore.obj
 0001:00009e10       ?getPxCapsuleGeometryHalfHeight@@YAMPEBVPxCapsuleGeometry@physx@@@Z 000000018000ae10 f i PxAutoGeneratedMetaDataObjects.obj
 0001:00009e20       ?getPxConstraint_BreakForce@@YAXPEBVPxConstraint@physx@@AEAM1@Z 000000018000ae20 f   PxAutoGeneratedMetaDataObjects.obj
 0001:00009e20       ?getPxFEMSoftBodyMaterial_Damping@@YAMPEBVPxFEMSoftBodyMaterial@physx@@@Z 000000018000ae20 f   PxAutoGeneratedMetaDataObjects.obj
 0001:00009e20       ?getPxMaterial_Damping@@YAMPEBVPxMaterial@physx@@@Z 000000018000ae20 f   PxAutoGeneratedMetaDataObjects.obj
 0001:00009e20       ?getPxParticleMaterial_GravityScale@@YAMPEBVPxParticleMaterial@physx@@@Z 000000018000ae20 f   PxAutoGeneratedMetaDataObjects.obj
 0001:00009e20       ?setPxActor_OwnerClient@@YAXPEAVPxActor@physx@@E@Z 000000018000ae20 f   PxAutoGeneratedMetaDataObjects.obj
 0001:00009e20       ?setPxShape_QueryFilterData@@YAXPEAVPxShape@physx@@AEBUPxFilterData@2@@Z 000000018000ae20 f   PxAutoGeneratedMetaDataObjects.obj
 0001:00009e30       ?getPxConstraint_Flags@@YA?AV?$PxFlags@W4Enum@PxConstraintFlag@physx@@G@physx@@PEBVPxConstraint@2@@Z 000000018000ae30 f   PxAutoGeneratedMetaDataObjects.obj
 0001:00009e60       ?getLink@NpArticulationAttachment@physx@@UEBAPEAVPxArticulationLink@2@XZ 000000018000ae60 f i NpArticulationTendon.obj
 0001:00009e60       ?getLink@NpArticulationSensor@physx@@UEBAPEAVPxArticulationLink@2@XZ 000000018000ae60 f i NpArticulationSensor.obj
 0001:00009e60       ?getLink@NpArticulationTendonJoint@physx@@UEBAPEAVPxArticulationLink@2@XZ 000000018000ae60 f i NpArticulationTendon.obj
 0001:00009e60       ?getName@?$NpActorTemplate@VPxArticulationLink@physx@@@physx@@UEBAPEBDXZ 000000018000ae60 f i NpArticulationLink.obj
 0001:00009e60       ?getName@?$NpActorTemplate@VPxPBDParticleSystem@physx@@@physx@@UEBAPEBDXZ 000000018000ae60 f i NpParticleSystem.obj
 0001:00009e60       ?getName@?$NpActorTemplate@VPxRigidDynamic@physx@@@physx@@UEBAPEBDXZ 000000018000ae60 f i NpRigidDynamic.obj
 0001:00009e60       ?getName@?$NpActorTemplate@VPxRigidStatic@physx@@@physx@@UEBAPEBDXZ 000000018000ae60 f i NpRigidStatic.obj
 0001:00009e60       ?getName@?$NpActorTemplate@VPxSoftBody@physx@@@physx@@UEBAPEBDXZ 000000018000ae60 f i NpSoftBody.obj
 0001:00009e60       ?getName@?$NpParticleSystem@VPxPBDParticleSystem@physx@@@physx@@UEBAPEBDXZ 000000018000ae60 f i NpParticleSystem.obj
 0001:00009e60       ?getName@NpSoftBody@physx@@UEBAPEBDXZ 000000018000ae60 f i NpSoftBody.obj
 0001:00009e60       ?getPxConvexMeshGeometryConvexMesh@@YAPEAVPxConvexMesh@physx@@PEBVPxConvexMeshGeometry@2@@Z 000000018000ae60 f i PxAutoGeneratedMetaDataObjects.obj
 0001:00009e60       ?getPxTriangleMeshGeometryTriangleMesh@@YAPEAVPxTriangleMesh@physx@@PEBVPxTriangleMeshGeometry@2@@Z 000000018000ae60 f i PxAutoGeneratedMetaDataObjects.obj
 0001:00009e60       ?getTriangles@RenderBuffer@Cm@physx@@UEBAPEBUPxDebugTriangle@3@XZ 000000018000ae60 f i NpScene.obj
 0001:00009e70       ?getPxConvexMeshGeometryMeshFlags@@YA?AV?$PxFlags@W4Enum@PxConvexMeshGeometryFlag@physx@@E@physx@@PEBVPxConvexMeshGeometry@2@@Z 000000018000ae70 f i PxAutoGeneratedMetaDataObjects.obj
 0001:00009e80       ?getPxConvexMeshGeometryScale@@YA?AVPxMeshScale@physx@@PEBVPxConvexMeshGeometry@2@@Z 000000018000ae80 f i PxAutoGeneratedMetaDataObjects.obj
 0001:00009e80       ?getPxTriangleMeshGeometryScale@@YA?AVPxMeshScale@physx@@PEBVPxTriangleMeshGeometry@2@@Z 000000018000ae80 f i PxAutoGeneratedMetaDataObjects.obj
 0001:00009eb0       ?getAdhesion@NpPBDMaterial@physx@@UEBAMXZ 000000018000aeb0 f i NpPBDMaterial.obj
 0001:00009eb0       ?getPxHeightFieldDescConvexEdgeThreshold@@YAMPEBVPxHeightFieldDesc@physx@@@Z 000000018000aeb0 f i PxAutoGeneratedMetaDataObjects.obj
 0001:00009eb0       ?getRestitution@NpMaterial@physx@@UEBAMXZ 000000018000aeb0 f i NpMaterial.obj
 0001:00009eb0       ?getYoungsModulus@NpFEMSoftBodyMaterial@physx@@UEBAMXZ 000000018000aeb0 f i NpFEMSoftBodyMaterial.obj
 0001:00009ec0       ?getPxHeightFieldDescFlags@@YA?AV?$PxFlags@W4Enum@PxHeightFieldFlag@physx@@G@physx@@PEBVPxHeightFieldDesc@2@@Z 000000018000aec0 f i PxAutoGeneratedMetaDataObjects.obj
 0001:00009ed0       ?getPxHeightFieldDescFormat@@YA?AW4Enum@PxHeightFieldFormat@physx@@PEBVPxHeightFieldDesc@3@@Z 000000018000aed0 f i PxAutoGeneratedMetaDataObjects.obj
 0001:00009ed0       ?getPxSceneLimitsMaxNbStaticShapes@@YAIPEBVPxSceneLimits@physx@@@Z 000000018000aed0 f i PxAutoGeneratedMetaDataObjects.obj
 0001:00009ed0       ?getPxSceneQueryDescDynamicTreeRebuildRateHint@@YAIPEBVPxSceneQueryDesc@physx@@@Z 000000018000aed0 f i PxAutoGeneratedMetaDataObjects.obj
 0001:00009ed0       ?getPxSimulationStatisticsNbActiveKinematicBodies@@YAIPEBVPxSimulationStatistics@physx@@@Z 000000018000aed0 f i PxAutoGeneratedMetaDataObjects.obj
 0001:00009ed0       ?getPxgDynamicsMemoryConfigMaxRigidPatchCount@@YAIPEBUPxgDynamicsMemoryConfig@physx@@@Z 000000018000aed0 f i PxAutoGeneratedMetaDataObjects.obj
 0001:00009ee0       ?getPxHeightFieldDescNbColumns@@YAIPEBVPxHeightFieldDesc@physx@@@Z 000000018000aee0 f i PxAutoGeneratedMetaDataObjects.obj
 0001:00009ee0       ?getPxSceneLimitsMaxNbBodies@@YAIPEBVPxSceneLimits@physx@@@Z 000000018000aee0 f i PxAutoGeneratedMetaDataObjects.obj
 0001:00009ee0       ?getPxSceneQueryDescDynamicStructure@@YA?AW4Enum@PxPruningStructureType@physx@@PEBVPxSceneQueryDesc@3@@Z 000000018000aee0 f i PxAutoGeneratedMetaDataObjects.obj
 0001:00009ee0       ?getPxSimulationStatisticsNbActiveDynamicBodies@@YAIPEBVPxSimulationStatistics@physx@@@Z 000000018000aee0 f i PxAutoGeneratedMetaDataObjects.obj
 0001:00009ee0       ?getPxgDynamicsMemoryConfigMaxRigidContactCount@@YAIPEBUPxgDynamicsMemoryConfig@physx@@@Z 000000018000aee0 f i PxAutoGeneratedMetaDataObjects.obj
 0001:00009ef0       ?getPxHeightFieldDescSamples@@YA?AUPxStridedData@physx@@PEBVPxHeightFieldDesc@2@@Z 000000018000aef0 f i PxAutoGeneratedMetaDataObjects.obj
 0001:00009f00       ?getDynamicFriction@NpMaterial@physx@@UEBAMXZ 000000018000af00 f i NpMaterial.obj
 0001:00009f00       ?getFriction@NpPBDMaterial@physx@@UEBAMXZ 000000018000af00 f i NpPBDMaterial.obj
 0001:00009f00       ?getPxHeightFieldGeometryColumnScale@@YAMPEBVPxHeightFieldGeometry@physx@@@Z 000000018000af00 f i PxAutoGeneratedMetaDataObjects.obj
 0001:00009f00       ?getSpringRestLength@ArticulationFixedTendonCore@Sc@physx@@QEBAMXZ 000000018000af00 f i SimulationController_static_64:ScArticulationTendonCore.obj
 0001:00009f10       ?getPxHeightFieldGeometryHeightFieldFlags@@YA?AV?$PxFlags@W4Enum@PxMeshGeometryFlag@physx@@E@physx@@PEBVPxHeightFieldGeometry@2@@Z 000000018000af10 f i PxAutoGeneratedMetaDataObjects.obj
 0001:00009f20       ?getPxHeightFieldGeometryHeightScale@@YAMPEBVPxHeightFieldGeometry@physx@@@Z 000000018000af20 f i PxAutoGeneratedMetaDataObjects.obj
 0001:00009f30       ?getPxHeightFieldGeometryRowScale@@YAMPEBVPxHeightFieldGeometry@physx@@@Z 000000018000af30 f i PxAutoGeneratedMetaDataObjects.obj
 0001:00009f40       ?getPxMaterial_Flags@@YA?AV?$PxFlags@W4Enum@PxMaterialFlag@physx@@G@physx@@PEBVPxMaterial@2@@Z 000000018000af40 f   PxAutoGeneratedMetaDataObjects.obj
 0001:00009f40       ?getPxScene_Flags@@YA?AV?$PxFlags@W4Enum@PxSceneFlag@physx@@I@physx@@PEBVPxScene@2@@Z 000000018000af40 f   PxAutoGeneratedMetaDataObjects.obj
 0001:00009f70       ?getPxMeshScaleRotation@@YA?AV?$PxQuatT@M@physx@@PEBVPxMeshScale@2@@Z 000000018000af70 f i PxAutoGeneratedMetaDataObjects.obj
 0001:00009f90       ?getPxMeshScaleScale@@YA?AV?$PxVec3T@M@physx@@PEBVPxMeshScale@2@@Z 000000018000af90 f i PxAutoGeneratedMetaDataObjects.obj
 0001:00009fb0       ?getPxPBDMaterial_Drag@@YAMPEBVPxPBDMaterial@physx@@@Z 000000018000afb0 f   PxAutoGeneratedMetaDataObjects.obj
 0001:00009fb0       ?setPxArticulationJointReducedCoordinate_JointPosition@@YAXPEAVPxArticulationJointReducedCoordinate@physx@@W4Enum@PxArticulationAxis@2@M@Z 000000018000afb0 f   PxAutoGeneratedMetaDataObjects.obj
 0001:00009fb0       ?setPxRigidBody_Mass@@YAXPEAVPxRigidBody@physx@@M@Z 000000018000afb0 f   PxAutoGeneratedMetaDataObjects.obj
 0001:00009fb0       ?setPxShape_DensityForFluid@@YAXPEAVPxShape@physx@@M@Z 000000018000afb0 f   PxAutoGeneratedMetaDataObjects.obj
 0001:00009fc0       ?getPxPBDMaterial_Lift@@YAMPEBVPxPBDMaterial@physx@@@Z 000000018000afc0 f   PxAutoGeneratedMetaDataObjects.obj
 0001:00009fc0       ?setPxArticulationJointReducedCoordinate_MaxJointVelocity@@YAXPEAVPxArticulationJointReducedCoordinate@physx@@M@Z 000000018000afc0 f   PxAutoGeneratedMetaDataObjects.obj
 0001:00009fc0       ?setPxRigidBody_CMassLocalPose@@YAXPEAVPxRigidBody@physx@@AEBV?$PxTransformT@M@2@@Z 000000018000afc0 f   PxAutoGeneratedMetaDataObjects.obj
 0001:00009fc0       ?setPxShape_RestOffset@@YAXPEAVPxShape@physx@@M@Z 000000018000afc0 f   PxAutoGeneratedMetaDataObjects.obj
 0001:00009fd0       ?getPxPBDMaterial_ParticleAdhesionScale@@YAMPEBVPxPBDMaterial@physx@@@Z 000000018000afd0 f   PxAutoGeneratedMetaDataObjects.obj
 0001:00009fd0       ?getPxShape_InternalShapeIndex@@YAIPEBVPxShape@physx@@@Z 000000018000afd0 f   PxAutoGeneratedMetaDataObjects.obj
 0001:00009fd0       ?setPxRigidBody_LinearDamping@@YAXPEAVPxRigidBody@physx@@M@Z 000000018000afd0 f   PxAutoGeneratedMetaDataObjects.obj
 0001:00009fe0       ?getPxPBDMaterial_ParticleFrictionScale@@YAMPEBVPxPBDMaterial@physx@@@Z 000000018000afe0 f   PxAutoGeneratedMetaDataObjects.obj
 0001:00009fe0       ?setPxShape_MinTorsionalPatchRadius@@YAXPEAVPxShape@physx@@M@Z 000000018000afe0 f   PxAutoGeneratedMetaDataObjects.obj
 0001:00009ff0       ?getPxPBDMaterial_VorticityConfinement@@YAMPEBVPxPBDMaterial@physx@@@Z 000000018000aff0 f   PxAutoGeneratedMetaDataObjects.obj
 0001:00009ff0       ?setPxMaterial_RestitutionCombineMode@@YAXPEAVPxMaterial@physx@@W4Enum@PxCombineMode@2@@Z 000000018000aff0 f   PxAutoGeneratedMetaDataObjects.obj
 0001:0000a000       ?getPxPhysics_BVHs@@YAIPEBVPxPhysics@physx@@PEAPEAVPxBVH@2@I@Z 000000018000b000 f   PxAutoGeneratedMetaDataObjects.obj
 0001:0000a000       ?getPxShape_Materials@@YAIPEBVPxShape@physx@@PEAPEAVPxMaterial@2@I@Z 000000018000b000 f   PxAutoGeneratedMetaDataObjects.obj
 0001:0000a010       ?getPxPhysics_ConvexMeshes@@YAIPEBVPxPhysics@physx@@PEAPEAVPxConvexMesh@2@I@Z 000000018000b010 f   PxAutoGeneratedMetaDataObjects.obj
 0001:0000a020       ?getPxPhysics_FEMClothMaterials@@YAIPEBVPxPhysics@physx@@PEAPEAVPxFEMClothMaterial@2@I@Z 000000018000b020 f   PxAutoGeneratedMetaDataObjects.obj
 0001:0000a030       ?getPxPhysics_FEMSoftBodyMaterials@@YAIPEBVPxPhysics@physx@@PEAPEAVPxFEMSoftBodyMaterial@2@I@Z 000000018000b030 f   PxAutoGeneratedMetaDataObjects.obj
 0001:0000a040       ?getPxPhysics_HeightFields@@YAIPEBVPxPhysics@physx@@PEAPEAVPxHeightField@2@I@Z 000000018000b040 f   PxAutoGeneratedMetaDataObjects.obj
 0001:0000a050       ?getPxPhysics_Materials@@YAIPEBVPxPhysics@physx@@PEAPEAVPxMaterial@2@I@Z 000000018000b050 f   PxAutoGeneratedMetaDataObjects.obj
 0001:0000a050       ?getPxScene_Articulations@@YAIPEBVPxScene@physx@@PEAPEAVPxArticulationReducedCoordinate@2@I@Z 000000018000b050 f   PxAutoGeneratedMetaDataObjects.obj
 0001:0000a060       ?getPxPhysics_PBDMaterials@@YAIPEBVPxPhysics@physx@@PEAPEAVPxPBDMaterial@2@I@Z 000000018000b060 f   PxAutoGeneratedMetaDataObjects.obj
 0001:0000a070       ?getPxPhysics_Scenes@@YAIPEBVPxPhysics@physx@@PEAPEAVPxScene@2@I@Z 000000018000b070 f   PxAutoGeneratedMetaDataObjects.obj
 0001:0000a070       ?getPxRigidActor_Shapes@@YAIPEBVPxRigidActor@physx@@PEAPEAVPxShape@2@I@Z 000000018000b070 f   PxAutoGeneratedMetaDataObjects.obj
 0001:0000a080       ?getPxPhysics_Shapes@@YAIPEBVPxPhysics@physx@@PEAPEAVPxShape@2@I@Z 000000018000b080 f   PxAutoGeneratedMetaDataObjects.obj
 0001:0000a090       ?getPxPhysics_TriangleMeshes@@YAIPEBVPxPhysics@physx@@PEAPEAVPxTriangleMesh@2@I@Z 000000018000b090 f   PxAutoGeneratedMetaDataObjects.obj
 0001:0000a0a0       ?getPxPruningStructure_RigidActors@@YAIPEBVPxPruningStructure@physx@@PEAPEAVPxRigidActor@2@I@Z 000000018000b0a0 f   PxAutoGeneratedMetaDataObjects.obj
 0001:0000a0b0       ?getPxRigidActor_Constraints@@YAIPEBVPxRigidActor@physx@@PEAPEAVPxConstraint@2@I@Z 000000018000b0b0 f   PxAutoGeneratedMetaDataObjects.obj
 0001:0000a0c0       ?getPxRigidActor_GlobalPose@@YA?AV?$PxTransformT@M@physx@@PEBVPxRigidActor@2@@Z 000000018000b0c0 f   PxAutoGeneratedMetaDataObjects.obj
 0001:0000a0f0       ?getPxRigidBody_CMassLocalPose@@YA?AV?$PxTransformT@M@physx@@PEBVPxRigidBody@2@@Z 000000018000b0f0 f   PxAutoGeneratedMetaDataObjects.obj
 0001:0000a120       ?getPxRigidBody_ContactSlopCoefficient@@YAMPEBVPxRigidBody@physx@@@Z 000000018000b120 f   PxAutoGeneratedMetaDataObjects.obj
 0001:0000a120       ?setPxScene_CCDContactModifyCallback@@YAXPEAVPxScene@physx@@PEAVPxCCDContactModifyCallback@2@@Z 000000018000b120 f   PxAutoGeneratedMetaDataObjects.obj
 0001:0000a130       ?getPxRigidBody_LinearDamping@@YAMPEBVPxRigidBody@physx@@@Z 000000018000b130 f   PxAutoGeneratedMetaDataObjects.obj
 0001:0000a140       ?getPxRigidBody_MassSpaceInertiaTensor@@YA?AV?$PxVec3T@M@physx@@PEBVPxRigidBody@2@@Z 000000018000b140 f   PxAutoGeneratedMetaDataObjects.obj
 0001:0000a170       ?getPxRigidBody_MassSpaceInvInertiaTensor@@YA?AV?$PxVec3T@M@physx@@PEBVPxRigidBody@2@@Z 000000018000b170 f   PxAutoGeneratedMetaDataObjects.obj
 0001:0000a1a0       ?getPxRigidBody_MaxAngularVelocity@@YAMPEBVPxRigidBody@physx@@@Z 000000018000b1a0 f   PxAutoGeneratedMetaDataObjects.obj
 0001:0000a1b0       ?getPxRigidBody_MaxContactImpulse@@YAMPEBVPxRigidBody@physx@@@Z 000000018000b1b0 f   PxAutoGeneratedMetaDataObjects.obj
 0001:0000a1b0       ?getPxScene_SimulationEventCallback@@YAPEAVPxSimulationEventCallback@physx@@PEBVPxScene@2@@Z 000000018000b1b0 f   PxAutoGeneratedMetaDataObjects.obj
 0001:0000a1c0       ?getPxRigidBody_MaxDepenetrationVelocity@@YAMPEBVPxRigidBody@physx@@@Z 000000018000b1c0 f   PxAutoGeneratedMetaDataObjects.obj
 0001:0000a1d0       ?getPxRigidBody_MaxLinearVelocity@@YAMPEBVPxRigidBody@physx@@@Z 000000018000b1d0 f   PxAutoGeneratedMetaDataObjects.obj
 0001:0000a1e0       ?getPxRigidBody_MinCCDAdvanceCoefficient@@YAMPEBVPxRigidBody@physx@@@Z 000000018000b1e0 f   PxAutoGeneratedMetaDataObjects.obj
 0001:0000a1e0       ?getPxScene_CpuDispatcher@@YAPEAVPxCpuDispatcher@physx@@PEBVPxScene@2@@Z 000000018000b1e0 f   PxAutoGeneratedMetaDataObjects.obj
 0001:0000a1f0       ?getPxRigidBody_RigidBodyFlags@@YA?AV?$PxFlags@W4Enum@PxRigidBodyFlag@physx@@G@physx@@PEBVPxRigidBody@2@@Z 000000018000b1f0 f   PxAutoGeneratedMetaDataObjects.obj
 0001:0000a220       ?getPxRigidDynamic_ContactReportThreshold@@YAMPEBVPxRigidDynamic@physx@@@Z 000000018000b220 f   PxAutoGeneratedMetaDataObjects.obj
 0001:0000a230       ?getPxRigidDynamic_RigidDynamicLockFlags@@YA?AV?$PxFlags@W4Enum@PxRigidDynamicLockFlag@physx@@E@physx@@PEBVPxRigidDynamic@2@@Z 000000018000b230 f   PxAutoGeneratedMetaDataObjects.obj
 0001:0000a260       ?getPxRigidDynamic_SolverIterationCounts@@YAXPEBVPxRigidDynamic@physx@@AEAI1@Z 000000018000b260 f   PxAutoGeneratedMetaDataObjects.obj
 0001:0000a270       ?getPxRigidDynamic_StabilizationThreshold@@YAMPEBVPxRigidDynamic@physx@@@Z 000000018000b270 f   PxAutoGeneratedMetaDataObjects.obj
 0001:0000a270       ?getPxScene_FilterShader@@YAP6A?AV?$PxFlags@W4Enum@PxFilterFlag@physx@@G@physx@@IUPxFilterData@2@I0AEAV?$PxFlags@W4Enum@PxPairFlag@physx@@G@2@PEBXI@ZPEBVPxScene@2@@Z 000000018000b270 f   PxAutoGeneratedMetaDataObjects.obj
 0001:0000a270       ?setPxArticulationLink_CfmScale@@YAXPEAVPxArticulationLink@physx@@M@Z 000000018000b270 f   PxAutoGeneratedMetaDataObjects.obj
 0001:0000a280       ?getPxRigidDynamic_WakeCounter@@YAMPEBVPxRigidDynamic@physx@@@Z 000000018000b280 f   PxAutoGeneratedMetaDataObjects.obj
 0001:0000a290       ?getPxSceneDescBounceThresholdVelocity@@YAMPEBVPxSceneDesc@physx@@@Z 000000018000b290 f i PxAutoGeneratedMetaDataObjects.obj
 0001:0000a290       ?getTorsionalPatchRadius@NpShape@physx@@UEBAMXZ 000000018000b290 f i NpShape.obj
 0001:0000a2a0       ?getPxSceneDescBroadPhaseCallback@@YAPEAVPxBroadPhaseCallback@physx@@PEBVPxSceneDesc@2@@Z 000000018000b2a0 f i PxAutoGeneratedMetaDataObjects.obj
 0001:0000a2a0       ?getTendon@NpArticulationAttachment@physx@@UEBAPEAVPxArticulationSpatialTendon@2@XZ 000000018000b2a0 f i NpArticulationTendon.obj
 0001:0000a2b0       ?getPxSceneDescBroadPhaseType@@YA?AW4Enum@PxBroadPhaseType@physx@@PEBVPxSceneDesc@3@@Z 000000018000b2b0 f i PxAutoGeneratedMetaDataObjects.obj
 0001:0000a2b0       ?getPxSimulationStatisticsNbNewTouches@@YAIPEBVPxSimulationStatistics@physx@@@Z 000000018000b2b0 f i PxAutoGeneratedMetaDataObjects.obj
 0001:0000a2c0       ?getPxSceneDescCcdContactModifyCallback@@YAPEAVPxCCDContactModifyCallback@physx@@PEBVPxSceneDesc@2@@Z 000000018000b2c0 f i PxAutoGeneratedMetaDataObjects.obj
 0001:0000a2c0       ?getSimulationMesh@NpSoftBody@physx@@UEAAPEAVPxTetrahedronMesh@2@XZ 000000018000b2c0 f i NpSoftBody.obj
 0001:0000a2c0       ?getSimulationMesh@NpSoftBody@physx@@UEBAPEBVPxTetrahedronMesh@2@XZ 000000018000b2c0 f i NpSoftBody.obj
 0001:0000a2d0       ?getPeakConstraintBlockCount@PxcNpMemBlockPool@physx@@QEBAIXZ 000000018000b2d0 f i LowLevel_static_64:PxcNpMemBlockPool.obj
 0001:0000a2d0       ?getPxSceneDescCcdMaxPasses@@YAIPEBVPxSceneDesc@physx@@@Z 000000018000b2d0 f i PxAutoGeneratedMetaDataObjects.obj
 0001:0000a2e0       ?getMaxVelocity@ParticleSystemCore@Sc@physx@@QEBAMXZ 000000018000b2e0 f i SimulationController_static_64:ScParticleSystemCore.obj
 0001:0000a2e0       ?getPxSceneDescCcdMaxSeparation@@YAMPEBVPxSceneDesc@physx@@@Z 000000018000b2e0 f i PxAutoGeneratedMetaDataObjects.obj
 0001:0000a2f0       ?getMaxDepenetrationVelocity@ParticleSystemCore@Sc@physx@@QEBAMXZ 000000018000b2f0 f i SimulationController_static_64:ScParticleSystemCore.obj
 0001:0000a2f0       ?getPxSceneDescCcdThreshold@@YAMPEBVPxSceneDesc@physx@@@Z 000000018000b2f0 f i PxAutoGeneratedMetaDataObjects.obj
 0001:0000a300       ?getPxSceneDescContactModifyCallback@@YAPEAVPxContactModifyCallback@physx@@PEBVPxSceneDesc@2@@Z 000000018000b300 f i PxAutoGeneratedMetaDataObjects.obj
 0001:0000a300       ?getShape@NpSoftBody@physx@@UEAAPEAVPxShape@2@XZ 000000018000b300 f i NpSoftBody.obj
 0001:0000a310       ?getPxSceneDescContactPairSlabSize@@YAIPEBVPxSceneDesc@physx@@@Z 000000018000b310 f i PxAutoGeneratedMetaDataObjects.obj
 0001:0000a320       ?getPxSceneDescContactReportStreamBufferSize@@YAIPEBVPxSceneDesc@physx@@@Z 000000018000b320 f i PxAutoGeneratedMetaDataObjects.obj
 0001:0000a330       ?getName@NpShape@physx@@UEBAPEBDXZ 000000018000b330 f i NpShape.obj
 0001:0000a330       ?getPositionInvMassBufferD@NpSoftBody@physx@@UEAAPEAV?$PxVec4T@M@2@XZ 000000018000b330 f i NpSoftBody.obj
 0001:0000a330       ?getPxSceneDescCpuDispatcher@@YAPEAVPxCpuDispatcher@physx@@PEBVPxSceneDesc@2@@Z 000000018000b330 f i PxAutoGeneratedMetaDataObjects.obj
 0001:0000a330       ?getPxSimulationStatisticsGpuMemHeapSolver@@YA_KPEBVPxSimulationStatistics@physx@@@Z 000000018000b330 f i PxAutoGeneratedMetaDataObjects.obj
 0001:0000a340       ?getPxSceneDescCudaContextManager@@YAPEAVPxCudaContextManager@physx@@PEBVPxSceneDesc@2@@Z 000000018000b340 f i PxAutoGeneratedMetaDataObjects.obj
 0001:0000a340       ?getPxSimulationStatisticsGpuMemHeapArticulation@@YA_KPEBVPxSimulationStatistics@physx@@@Z 000000018000b340 f i PxAutoGeneratedMetaDataObjects.obj
 0001:0000a340       ?getRestPositionBufferD@NpSoftBody@physx@@UEAAPEAV?$PxVec4T@M@2@XZ 000000018000b340 f i NpSoftBody.obj
 0001:0000a350       ?getArticulation@NpArticulationFixedTendon@physx@@UEBAPEAVPxArticulationReducedCoordinate@2@XZ 000000018000b350 f i NpArticulationTendon.obj
 0001:0000a350       ?getArticulation@NpArticulationSpatialTendon@physx@@UEBAPEAVPxArticulationReducedCoordinate@2@XZ 000000018000b350 f i NpArticulationTendon.obj
 0001:0000a350       ?getPxSceneDescFilterCallback@@YAPEAVPxSimulationFilterCallback@physx@@PEBVPxSceneDesc@2@@Z 000000018000b350 f i PxAutoGeneratedMetaDataObjects.obj
 0001:0000a350       ?getShapeInteractions@PxsNphaseImplementationContext@physx@@UEAAPEAPEAVShapeInteraction@Sc@2@XZ 000000018000b350 f i LowLevel_static_64:PxsNphaseImplementationContext.obj
 0001:0000a360       ?getPxSceneDescFilterShader@@YAP6A?AV?$PxFlags@W4Enum@PxFilterFlag@physx@@G@physx@@IUPxFilterData@2@I0AEAV?$PxFlags@W4Enum@PxPairFlag@physx@@G@2@PEBXI@ZPEBVPxSceneDesc@2@@Z 000000018000b360 f i PxAutoGeneratedMetaDataObjects.obj
 0001:0000a370       ?getPxSceneDescFilterShaderData@@YAPEBXPEBVPxSceneDesc@physx@@@Z 000000018000b370 f i PxAutoGeneratedMetaDataObjects.obj
 0001:0000a370       ?getSoftBodyAuxData@NpSoftBody@physx@@UEAAPEAVPxSoftBodyAuxData@2@XZ 000000018000b370 f i NpSoftBody.obj
 0001:0000a370       ?getSoftBodyAuxData@NpSoftBody@physx@@UEBAPEBVPxSoftBodyAuxData@2@XZ 000000018000b370 f i NpSoftBody.obj
 0001:0000a380       ?getDefaultContactReportStreamBufferSize@NPhaseCore@Sc@physx@@QEBAIXZ 000000018000b380 f i SimulationController_static_64:ScNPhaseCore.obj
 0001:0000a380       ?getNbRigidActors@PruningStructure@Sq@physx@@UEBAIXZ 000000018000b380 f i NpPruningStructure.obj
 0001:0000a380       ?getPxSceneDescFilterShaderDataSize@@YAIPEBVPxSceneDesc@physx@@@Z 000000018000b380 f i PxAutoGeneratedMetaDataObjects.obj
 0001:0000a380       ?getPxSimulationStatisticsCompressedContactSize@@YAIPEBVPxSimulationStatistics@physx@@@Z 000000018000b380 f i PxAutoGeneratedMetaDataObjects.obj
 0001:0000a390       ?getPxSceneDescFlags@@YA?AV?$PxFlags@W4Enum@PxSceneFlag@physx@@I@physx@@PEBVPxSceneDesc@2@@Z 000000018000b390 f i PxAutoGeneratedMetaDataObjects.obj
 0001:0000a3a0       ?getPxSceneDescFrictionCorrelationDistance@@YAMPEBVPxSceneDesc@physx@@@Z 000000018000b3a0 f i PxAutoGeneratedMetaDataObjects.obj
 0001:0000a3b0       ?getMinTorsionalPatchRadius@NpShape@physx@@UEBAMXZ 000000018000b3b0 f i NpShape.obj
 0001:0000a3b0       ?getPxSceneDescFrictionOffsetThreshold@@YAMPEBVPxSceneDesc@physx@@@Z 000000018000b3b0 f i PxAutoGeneratedMetaDataObjects.obj
 0001:0000a3c0       ?getPxSceneDescFrictionType@@YA?AW4Enum@PxFrictionType@physx@@PEBVPxSceneDesc@3@@Z 000000018000b3c0 f i PxAutoGeneratedMetaDataObjects.obj
 0001:0000a3d0       ?getNbChildren@NpArticulationLink@physx@@UEBAIXZ 000000018000b3d0 f i NpArticulationLink.obj
 0001:0000a3d0       ?getPxSceneDescGpuComputeVersion@@YAIPEBVPxSceneDesc@physx@@@Z 000000018000b3d0 f i PxAutoGeneratedMetaDataObjects.obj
 0001:0000a3e0       ?getPxSceneDescGpuDynamicsConfig@@YA?AUPxgDynamicsMemoryConfig@physx@@PEBVPxSceneDesc@2@@Z 000000018000b3e0 f i PxAutoGeneratedMetaDataObjects.obj
 0001:0000a410       ?getPxSceneDescGpuMaxNumPartitions@@YAIPEBVPxSceneDesc@physx@@@Z 000000018000b410 f i PxAutoGeneratedMetaDataObjects.obj
 0001:0000a420       ?getPxSceneDescGpuMaxNumStaticPartitions@@YAIPEBVPxSceneDesc@physx@@@Z 000000018000b420 f i PxAutoGeneratedMetaDataObjects.obj
 0001:0000a430       ?getPxSceneDescGravity@@YA?AV?$PxVec3T@M@physx@@PEBVPxSceneDesc@2@@Z 000000018000b430 f i PxAutoGeneratedMetaDataObjects.obj
 0001:0000a450       ?getPxSceneDescKineKineFilteringMode@@YA?AW4Enum@PxPairFilteringMode@physx@@PEBVPxSceneDesc@3@@Z 000000018000b450 f i PxAutoGeneratedMetaDataObjects.obj
 0001:0000a450       ?getPxSimulationStatisticsNbNewPairs@@YAIPEBVPxSimulationStatistics@physx@@@Z 000000018000b450 f i PxAutoGeneratedMetaDataObjects.obj
 0001:0000a460       ?getPxSceneDescLimits@@YA?AVPxSceneLimits@physx@@PEBVPxSceneDesc@2@@Z 000000018000b460 f i PxAutoGeneratedMetaDataObjects.obj
 0001:0000a480       ?getFluidRestOffset@ParticleSystemCore@Sc@physx@@QEBAMXZ 000000018000b480 f i SimulationController_static_64:ScParticleSystemCore.obj
 0001:0000a480       ?getMaxContactImpulse@?$NpRigidBodyTemplate@VPxArticulationLink@physx@@@physx@@UEBAMXZ 000000018000b480 f i NpArticulationLink.obj
 0001:0000a480       ?getMaxContactImpulse@?$NpRigidBodyTemplate@VPxRigidDynamic@physx@@@physx@@UEBAMXZ 000000018000b480 f i NpRigidDynamic.obj
 0001:0000a480       ?getPxSceneDescMaxBiasCoefficient@@YAMPEBVPxSceneDesc@physx@@@Z 000000018000b480 f i PxAutoGeneratedMetaDataObjects.obj
 0001:0000a490       ?getPxSceneDescMaxNbContactDataBlocks@@YAIPEBVPxSceneDesc@physx@@@Z 000000018000b490 f i PxAutoGeneratedMetaDataObjects.obj
 0001:0000a4a0       ?getPxSceneDescNbContactDataBlocks@@YAIPEBVPxSceneDesc@physx@@@Z 000000018000b4a0 f i PxAutoGeneratedMetaDataObjects.obj
 0001:0000a4b0       ?getPxSceneDescSanityBounds@@YA?AVPxBounds3@physx@@PEBVPxSceneDesc@2@@Z 000000018000b4b0 f i PxAutoGeneratedMetaDataObjects.obj
 0001:0000a4f0       ?getName@?$DelegateTask@VAABBManager@Bp@physx@@$H?postBpStage3@123@AEAAXPEAVPxBaseTask@3@@ZA@@Cm@physx@@UEBAPEBDXZ 000000018000b4f0 f i LowLevelAABB_static_64:BpAABBManager.obj
 0001:0000a4f0       ?getName@?$DelegateTask@VNPhaseCore@Sc@physx@@$1?mergeProcessedTriggerInteractions@123@QEAAXPEAVPxBaseTask@3@@Z@Cm@physx@@UEBAPEBDXZ 000000018000b4f0 f i SimulationController_static_64:ScNPhaseCore.obj
 0001:0000a4f0       ?getName@?$DelegateTask@VNpScene@physx@@$H?executeAdvance@12@QEAAXPEAVPxBaseTask@2@@ZA@@Cm@physx@@UEBAPEBDXZ 000000018000b4f0 f i NpScene.obj
 0001:0000a4f0       ?getName@?$DelegateTask@VNpScene@physx@@$H?executeCollide@12@QEAAXPEAVPxBaseTask@2@@ZA@@Cm@physx@@UEBAPEBDXZ 000000018000b4f0 f i NpScene.obj
 0001:0000a4f0       ?getName@?$DelegateTask@VNpScene@physx@@$H?executeScene@12@QEAAXPEAVPxBaseTask@2@@ZA@@Cm@physx@@UEBAPEBDXZ 000000018000b4f0 f i NpScene.obj
 0001:0000a4f0       ?getName@?$DelegateTask@VNpScene@physx@@$H?sceneQueriesDynamicPrunerUpdate@12@AEAAXPEAVPxBaseTask@2@@ZA@@Cm@physx@@UEBAPEBDXZ 000000018000b4f0 f i NpScene.obj
 0001:0000a4f0       ?getName@?$DelegateTask@VNpScene@physx@@$H?sceneQueriesStaticPrunerUpdate@12@AEAAXPEAVPxBaseTask@2@@ZA@@Cm@physx@@UEBAPEBDXZ 000000018000b4f0 f i NpScene.obj
 0001:0000a4f0       ?getName@?$DelegateTask@VPxsCCDContext@physx@@$1?postCCDAdvance@12@AEAAXPEAVPxBaseTask@2@@Z@Cm@physx@@UEBAPEBDXZ 000000018000b4f0 f i LowLevel_static_64:PxsCCD.obj
 0001:0000a4f0       ?getName@?$DelegateTask@VPxsCCDContext@physx@@$1?postCCDDepenetrate@12@AEAAXPEAVPxBaseTask@2@@Z@Cm@physx@@UEBAPEBDXZ 000000018000b4f0 f i LowLevel_static_64:PxsCCD.obj
 0001:0000a4f0       ?getName@?$DelegateTask@VPxsCCDContext@physx@@$1?postCCDSweep@12@AEAAXPEAVPxBaseTask@2@@Z@Cm@physx@@UEBAPEBDXZ 000000018000b4f0 f i LowLevel_static_64:PxsCCD.obj
 0001:0000a4f0       ?getName@?$DelegateTask@VScene@Sc@physx@@$1?advanceStep@123@AEAAXPEAVPxBaseTask@3@@Z@Cm@physx@@UEBAPEBDXZ 000000018000b4f0 f i SimulationController_static_64:ScScene.obj
 0001:0000a4f0       ?getName@?$DelegateTask@VScene@Sc@physx@@$1?afterIntegration@123@AEAAXPEAVPxBaseTask@3@@Z@Cm@physx@@UEBAPEBDXZ 000000018000b4f0 f i SimulationController_static_64:ScScene.obj
 0001:0000a4f0       ?getName@?$DelegateTask@VScene@Sc@physx@@$1?broadPhase@123@AEAAXPEAVPxBaseTask@3@@Z@Cm@physx@@UEBAPEBDXZ 000000018000b4f0 f i SimulationController_static_64:ScScene.obj
 0001:0000a4f0       ?getName@?$DelegateTask@VScene@Sc@physx@@$1?broadPhaseFirstPass@123@AEAAXPEAVPxBaseTask@3@@Z@Cm@physx@@UEBAPEBDXZ 000000018000b4f0 f i SimulationController_static_64:ScScene.obj
 0001:0000a4f0       ?getName@?$DelegateTask@VScene@Sc@physx@@$1?broadPhaseSecondPass@123@AEAAXPEAVPxBaseTask@3@@Z@Cm@physx@@UEBAPEBDXZ 000000018000b4f0 f i SimulationController_static_64:ScScene.obj
 0001:0000a4f0       ?getName@?$DelegateTask@VScene@Sc@physx@@$1?ccdBroadPhase@123@AEAAXPEAVPxBaseTask@3@@Z@Cm@physx@@UEBAPEBDXZ 000000018000b4f0 f i SimulationController_static_64:ScCCD.obj
 0001:0000a4f0       ?getName@?$DelegateTask@VScene@Sc@physx@@$1?ccdBroadPhaseAABB@123@AEAAXPEAVPxBaseTask@3@@Z@Cm@physx@@UEBAPEBDXZ 000000018000b4f0 f i SimulationController_static_64:ScCCD.obj
 0001:0000a4f0       ?getName@?$DelegateTask@VScene@Sc@physx@@$1?collideStep@123@AEAAXPEAVPxBaseTask@3@@Z@Cm@physx@@UEBAPEBDXZ 000000018000b4f0 f i SimulationController_static_64:ScScene.obj
 0001:0000a4f0       ?getName@?$DelegateTask@VScene@Sc@physx@@$1?destroyManagers@123@AEAAXPEAVPxBaseTask@3@@Z@Cm@physx@@UEBAPEBDXZ 000000018000b4f0 f i SimulationController_static_64:ScScene.obj
 0001:0000a4f0       ?getName@?$DelegateTask@VScene@Sc@physx@@$1?islandGen@123@AEAAXPEAVPxBaseTask@3@@Z@Cm@physx@@UEBAPEBDXZ 000000018000b4f0 f i SimulationController_static_64:ScScene.obj
 0001:0000a4f0       ?getName@?$DelegateTask@VScene@Sc@physx@@$1?islandInsertion@123@QEAAXPEAVPxBaseTask@3@@Z@Cm@physx@@UEBAPEBDXZ 000000018000b4f0 f i SimulationController_static_64:ScScene.obj
 0001:0000a4f0       ?getName@?$DelegateTask@VScene@Sc@physx@@$1?lostTouchReports@123@AEAAXPEAVPxBaseTask@3@@Z@Cm@physx@@UEBAPEBDXZ 000000018000b4f0 f i SimulationController_static_64:ScScene.obj
 0001:0000a4f0       ?getName@?$DelegateTask@VScene@Sc@physx@@$1?postBroadPhase@123@AEAAXPEAVPxBaseTask@3@@Z@Cm@physx@@UEBAPEBDXZ 000000018000b4f0 f i SimulationController_static_64:ScScene.obj
 0001:0000a4f0       ?getName@?$DelegateTask@VScene@Sc@physx@@$1?postBroadPhaseContinuation@123@AEAAXPEAVPxBaseTask@3@@Z@Cm@physx@@UEBAPEBDXZ 000000018000b4f0 f i SimulationController_static_64:ScScene.obj
 0001:0000a4f0       ?getName@?$DelegateTask@VScene@Sc@physx@@$1?postBroadPhaseStage2@123@AEAAXPEAVPxBaseTask@3@@Z@Cm@physx@@UEBAPEBDXZ 000000018000b4f0 f i SimulationController_static_64:ScScene.obj
 0001:0000a4f0       ?getName@?$DelegateTask@VScene@Sc@physx@@$1?postCCDPass@123@AEAAXPEAVPxBaseTask@3@@Z@Cm@physx@@UEBAPEBDXZ 000000018000b4f0 f i SimulationController_static_64:ScCCD.obj
 0001:0000a4f0       ?getName@?$DelegateTask@VScene@Sc@physx@@$1?postIslandGen@123@AEAAXPEAVPxBaseTask@3@@Z@Cm@physx@@UEBAPEBDXZ 000000018000b4f0 f i SimulationController_static_64:ScScene.obj
 0001:0000a4f0       ?getName@?$DelegateTask@VScene@Sc@physx@@$1?postSolver@123@AEAAXPEAVPxBaseTask@3@@Z@Cm@physx@@UEBAPEBDXZ 000000018000b4f0 f i SimulationController_static_64:ScScene.obj
 0001:0000a4f0       ?getName@?$DelegateTask@VScene@Sc@physx@@$1?postThirdPassIslandGen@123@AEAAXPEAVPxBaseTask@3@@Z@Cm@physx@@UEBAPEBDXZ 000000018000b4f0 f i SimulationController_static_64:ScScene.obj
 0001:0000a4f0       ?getName@?$DelegateTask@VScene@Sc@physx@@$1?preIntegrate@123@AEAAXPEAVPxBaseTask@3@@Z@Cm@physx@@UEBAPEBDXZ 000000018000b4f0 f i SimulationController_static_64:ScScene.obj
 0001:0000a4f0       ?getName@?$DelegateTask@VScene@Sc@physx@@$1?preRigidBodyNarrowPhase@123@AEAAXPEAVPxBaseTask@3@@Z@Cm@physx@@UEBAPEBDXZ 000000018000b4f0 f i SimulationController_static_64:ScScene.obj
 0001:0000a4f0       ?getName@?$DelegateTask@VScene@Sc@physx@@$1?preallocateContactManagers@123@QEAAXPEAVPxBaseTask@3@@Z@Cm@physx@@UEBAPEBDXZ 000000018000b4f0 f i SimulationController_static_64:ScScene.obj
 0001:0000a4f0       ?getName@?$DelegateTask@VScene@Sc@physx@@$1?processFoundSolverPatches@123@AEAAXPEAVPxBaseTask@3@@Z@Cm@physx@@UEBAPEBDXZ 000000018000b4f0 f i SimulationController_static_64:ScScene.obj
 0001:0000a4f0       ?getName@?$DelegateTask@VScene@Sc@physx@@$1?processLostContacts2@123@AEAAXPEAVPxBaseTask@3@@Z@Cm@physx@@UEBAPEBDXZ 000000018000b4f0 f i SimulationController_static_64:ScScene.obj
 0001:0000a4f0       ?getName@?$DelegateTask@VScene@Sc@physx@@$1?processLostContacts3@123@AEAAXPEAVPxBaseTask@3@@Z@Cm@physx@@UEBAPEBDXZ 000000018000b4f0 f i SimulationController_static_64:ScScene.obj
 0001:0000a4f0       ?getName@?$DelegateTask@VScene@Sc@physx@@$1?processLostContacts@123@AEAAXPEAVPxBaseTask@3@@Z@Cm@physx@@UEBAPEBDXZ 000000018000b4f0 f i SimulationController_static_64:ScScene.obj
 0001:0000a4f0       ?getName@?$DelegateTask@VScene@Sc@physx@@$1?processLostSolverPatches@123@AEAAXPEAVPxBaseTask@3@@Z@Cm@physx@@UEBAPEBDXZ 000000018000b4f0 f i SimulationController_static_64:ScScene.obj
 0001:0000a4f0       ?getName@?$DelegateTask@VScene@Sc@physx@@$1?processNarrowPhaseLostTouchEvents@123@AEAAXPEAVPxBaseTask@3@@Z@Cm@physx@@UEBAPEBDXZ 000000018000b4f0 f i SimulationController_static_64:ScScene.obj
 0001:0000a4f0       ?getName@?$DelegateTask@VScene@Sc@physx@@$1?processNarrowPhaseLostTouchEventsIslands@123@AEAAXPEAVPxBaseTask@3@@Z@Cm@physx@@UEBAPEBDXZ 000000018000b4f0 f i SimulationController_static_64:ScScene.obj
 0001:0000a4f0       ?getName@?$DelegateTask@VScene@Sc@physx@@$1?registerContactManagers@123@QEAAXPEAVPxBaseTask@3@@Z@Cm@physx@@UEBAPEBDXZ 000000018000b4f0 f i SimulationController_static_64:ScScene.obj
 0001:0000a4f0       ?getName@?$DelegateTask@VScene@Sc@physx@@$1?registerInteractions@123@QEAAXPEAVPxBaseTask@3@@Z@Cm@physx@@UEBAPEBDXZ 000000018000b4f0 f i SimulationController_static_64:ScScene.obj
 0001:0000a4f0       ?getName@?$DelegateTask@VScene@Sc@physx@@$1?registerSceneInteractions@123@QEAAXPEAVPxBaseTask@3@@Z@Cm@physx@@UEBAPEBDXZ 000000018000b4f0 f i SimulationController_static_64:ScScene.obj
 0001:0000a4f0       ?getName@?$DelegateTask@VScene@Sc@physx@@$1?rigidBodyNarrowPhase@123@AEAAXPEAVPxBaseTask@3@@Z@Cm@physx@@UEBAPEBDXZ 000000018000b4f0 f i SimulationController_static_64:ScScene.obj
 0001:0000a4f0       ?getName@?$DelegateTask@VScene@Sc@physx@@$1?secondPassNarrowPhase@123@QEAAXPEAVPxBaseTask@3@@Z@Cm@physx@@UEBAPEBDXZ 000000018000b4f0 f i SimulationController_static_64:ScScene.obj
 0001:0000a4f0       ?getName@?$DelegateTask@VScene@Sc@physx@@$1?setEdgesConnected@123@AEAAXPEAVPxBaseTask@3@@Z@Cm@physx@@UEBAPEBDXZ 000000018000b4f0 f i SimulationController_static_64:ScScene.obj
 0001:0000a4f0       ?getName@?$DelegateTask@VScene@Sc@physx@@$1?solver@123@AEAAXPEAVPxBaseTask@3@@Z@Cm@physx@@UEBAPEBDXZ 000000018000b4f0 f i SimulationController_static_64:ScScene.obj
 0001:0000a4f0       ?getName@?$DelegateTask@VScene@Sc@physx@@$1?unblockNarrowPhase@123@AEAAXPEAVPxBaseTask@3@@Z@Cm@physx@@UEBAPEBDXZ 000000018000b4f0 f i SimulationController_static_64:ScScene.obj
 0001:0000a4f0       ?getName@?$DelegateTask@VScene@Sc@physx@@$1?unregisterInteractions@123@AEAAXPEAVPxBaseTask@3@@Z@Cm@physx@@UEBAPEBDXZ 000000018000b4f0 f i SimulationController_static_64:ScScene.obj
 0001:0000a4f0       ?getName@?$DelegateTask@VScene@Sc@physx@@$1?updateBodies@123@AEAAXPEAVPxBaseTask@3@@Z@Cm@physx@@UEBAPEBDXZ 000000018000b4f0 f i SimulationController_static_64:ScScene.obj
 0001:0000a4f0       ?getName@?$DelegateTask@VScene@Sc@physx@@$1?updateBroadPhase@123@AEAAXPEAVPxBaseTask@3@@Z@Cm@physx@@UEBAPEBDXZ 000000018000b4f0 f i SimulationController_static_64:ScScene.obj
 0001:0000a4f0       ?getName@?$DelegateTask@VScene@Sc@physx@@$1?updateCCDMultiPass@123@AEAAXPEAVPxBaseTask@3@@Z@Cm@physx@@UEBAPEBDXZ 000000018000b4f0 f i SimulationController_static_64:ScScene.obj
 0001:0000a4f0       ?getName@?$DelegateTask@VScene@Sc@physx@@$1?updateCCDSinglePass@123@AEAAXPEAVPxBaseTask@3@@Z@Cm@physx@@UEBAPEBDXZ 000000018000b4f0 f i SimulationController_static_64:ScCCD.obj
 0001:0000a4f0       ?getName@?$DelegateTask@VScene@Sc@physx@@$1?updateCCDSinglePassStage2@123@AEAAXPEAVPxBaseTask@3@@Z@Cm@physx@@UEBAPEBDXZ 000000018000b4f0 f i SimulationController_static_64:ScCCD.obj
 0001:0000a4f0       ?getName@?$DelegateTask@VScene@Sc@physx@@$1?updateCCDSinglePassStage3@123@AEAAXPEAVPxBaseTask@3@@Z@Cm@physx@@UEBAPEBDXZ 000000018000b4f0 f i SimulationController_static_64:ScCCD.obj
 0001:0000a4f0       ?getName@?$DelegateTask@VScene@Sc@physx@@$1?updateDynamics@123@AEAAXPEAVPxBaseTask@3@@Z@Cm@physx@@UEBAPEBDXZ 000000018000b4f0 f i SimulationController_static_64:ScScene.obj
 0001:0000a4f0       ?getName@?$DelegateTask@VScene@Sc@physx@@$1?updateShapes@123@AEAAXPEAVPxBaseTask@3@@Z@Cm@physx@@UEBAPEBDXZ 000000018000b4f0 f i SimulationController_static_64:ScScene.obj
 0001:0000a4f0       ?getName@?$DelegateTask@VScene@Sc@physx@@$1?updateSimulationController@123@AEAAXPEAVPxBaseTask@3@@Z@Cm@physx@@UEBAPEBDXZ 000000018000b4f0 f i SimulationController_static_64:ScScene.obj
 0001:0000a4f0       ?getParent@NpArticulationAttachment@physx@@UEBAPEAVPxArticulationAttachment@2@XZ 000000018000b4f0 f i NpArticulationTendon.obj
 0001:0000a4f0       ?getParent@NpArticulationTendonJoint@physx@@UEBAPEAVPxArticulationTendonJoint@2@XZ 000000018000b4f0 f i NpArticulationTendon.obj
 0001:0000a4f0       ?getPxSceneDescSimulationEventCallback@@YAPEAVPxSimulationEventCallback@physx@@PEBVPxSceneDesc@2@@Z 000000018000b4f0 f i PxAutoGeneratedMetaDataObjects.obj
 0001:0000a500       ?getPxSceneDescSolverArticulationBatchSize@@YAIPEBVPxSceneDesc@physx@@@Z 000000018000b500 f i PxAutoGeneratedMetaDataObjects.obj
 0001:0000a510       ?getNbFixedTendons@NpArticulationReducedCoordinate@physx@@UEAAIXZ 000000018000b510 f i NpArticulationReducedCoordinate.obj
 0001:0000a510       ?getPxSceneDescSolverBatchSize@@YAIPEBVPxSceneDesc@physx@@@Z 000000018000b510 f i PxAutoGeneratedMetaDataObjects.obj
 0001:0000a520       ?getPxSceneDescSolverType@@YA?AW4Enum@PxSolverType@physx@@PEBVPxSceneDesc@3@@Z 000000018000b520 f i PxAutoGeneratedMetaDataObjects.obj
 0001:0000a530       ?getPxSceneDescStaticKineFilteringMode@@YA?AW4Enum@PxPairFilteringMode@physx@@PEBVPxSceneDesc@3@@Z 000000018000b530 f i PxAutoGeneratedMetaDataObjects.obj
 0001:0000a530       ?getPxSimulationStatisticsNbLostPairs@@YAIPEBVPxSimulationStatistics@physx@@@Z 000000018000b530 f i PxAutoGeneratedMetaDataObjects.obj
 0001:0000a540       ?getPxSceneDescUserData@@YAPEAXPEBVPxSceneDesc@physx@@@Z 000000018000b540 f i PxAutoGeneratedMetaDataObjects.obj
 0001:0000a540       ?getPxSimulationStatisticsGpuMemHeapSimulation@@YA_KPEBVPxSimulationStatistics@physx@@@Z 000000018000b540 f i PxAutoGeneratedMetaDataObjects.obj
 0001:0000a540       ?getSimPositionInvMassBufferD@NpSoftBody@physx@@UEAAPEAV?$PxVec4T@M@2@XZ 000000018000b540 f i NpSoftBody.obj
 0001:0000a550       ?getPxSceneDescWakeCounterResetValue@@YAMPEBVPxSceneDesc@physx@@@Z 000000018000b550 f i PxAutoGeneratedMetaDataObjects.obj
 0001:0000a560       ?getNbPoints@RenderBuffer@Cm@physx@@UEBAIXZ 000000018000b560 f i NpScene.obj
 0001:0000a560       ?getPxSceneLimitsMaxNbAggregates@@YAIPEBVPxSceneLimits@physx@@@Z 000000018000b560 f i PxAutoGeneratedMetaDataObjects.obj
 0001:0000a560       ?getPxSceneQueryDescStaticBVHBuildStrategy@@YA?AW4Enum@PxBVHBuildStrategy@physx@@PEBVPxSceneQueryDesc@3@@Z 000000018000b560 f i PxAutoGeneratedMetaDataObjects.obj
 0001:0000a560       ?getPxSimulationStatisticsNbDynamicBodies@@YAIPEBVPxSimulationStatistics@physx@@@Z 000000018000b560 f i PxAutoGeneratedMetaDataObjects.obj
 0001:0000a560       ?getPxgDynamicsMemoryConfigFoundLostPairsCapacity@@YAIPEBUPxgDynamicsMemoryConfig@physx@@@Z 000000018000b560 f i PxAutoGeneratedMetaDataObjects.obj
 0001:0000a560       ?length@pcharNode@@UEBAHXZ 000000018000b560 f i libvcruntime:undname.obj
 0001:0000a560       ?raw_length@pcharNode@@UEBAHXZ 000000018000b560 f i libvcruntime:undname.obj
 0001:0000a570       ?getPxSceneLimitsMaxNbBroadPhaseOverlaps@@YAIPEBVPxSceneLimits@physx@@@Z 000000018000b570 f i PxAutoGeneratedMetaDataObjects.obj
 0001:0000a570       ?getPxSceneQueryDescDynamicNbObjectsPerNode@@YAIPEBVPxSceneQueryDesc@physx@@@Z 000000018000b570 f i PxAutoGeneratedMetaDataObjects.obj
 0001:0000a570       ?getPxgDynamicsMemoryConfigMaxSoftBodyContacts@@YAIPEBUPxgDynamicsMemoryConfig@physx@@@Z 000000018000b570 f i PxAutoGeneratedMetaDataObjects.obj
 0001:0000a580       ?getPxSceneLimitsMaxNbConstraints@@YAIPEBVPxSceneLimits@physx@@@Z 000000018000b580 f i PxAutoGeneratedMetaDataObjects.obj
 0001:0000a580       ?getPxSceneQueryDescDynamicBVHBuildStrategy@@YA?AW4Enum@PxBVHBuildStrategy@physx@@PEBVPxSceneQueryDesc@3@@Z 000000018000b580 f i PxAutoGeneratedMetaDataObjects.obj
 0001:0000a580       ?getPxSimulationStatisticsNbKinematicBodies@@YAIPEBVPxSimulationStatistics@physx@@@Z 000000018000b580 f i PxAutoGeneratedMetaDataObjects.obj
 0001:0000a580       ?getPxgDynamicsMemoryConfigFoundLostAggregatePairsCapacity@@YAIPEBUPxgDynamicsMemoryConfig@physx@@@Z 000000018000b580 f i PxAutoGeneratedMetaDataObjects.obj
 0001:0000a590       ?getNbLines@RenderBuffer@Cm@physx@@UEBAIXZ 000000018000b590 f i NpScene.obj
 0001:0000a590       ?getPxSceneQueryDescSceneQueryUpdateMode@@YA?AW4Enum@PxSceneQueryUpdateMode@physx@@PEBVPxSceneQueryDesc@3@@Z 000000018000b590 f i PxAutoGeneratedMetaDataObjects.obj
 0001:0000a590       ?getPxgDynamicsMemoryConfigMaxFemClothContacts@@YAIPEBUPxgDynamicsMemoryConfig@physx@@@Z 000000018000b590 f i PxAutoGeneratedMetaDataObjects.obj
 0001:0000a590       ?getReference@PxLightCpuTask@physx@@UEBAHXZ 000000018000b590 f i NpScene.obj
 0001:0000a590       ?getStaticStructure@NpScene@physx@@UEBA?AW4Enum@PxPruningStructureType@2@XZ 000000018000b590 f i NpSceneQueries.obj
 0001:0000a5a0       ?getPxSceneQueryDesc_IsValid@@YA_NPEBVPxSceneQueryDesc@physx@@@Z 000000018000b5a0 f   PxAutoGeneratedMetaDataObjects.obj
 0001:0000a5c0       ?getPxSceneQuerySystemBase_DynamicTreeRebuildRateHint@@YAIPEBVPxSceneQuerySystemBase@physx@@@Z 000000018000b5c0 f   PxAutoGeneratedMetaDataObjects.obj
 0001:0000a5d0       ?getPxScene_Actors@@YAIPEBVPxScene@physx@@V?$PxFlags@W4Enum@PxActorTypeFlag@physx@@G@2@PEAPEAVPxActor@2@I@Z 000000018000b5d0 f   PxAutoGeneratedMetaDataObjects.obj
 0001:0000a600       ?getPxScene_Aggregates@@YAIPEBVPxScene@physx@@PEAPEAVPxAggregate@2@I@Z 000000018000b600 f   PxAutoGeneratedMetaDataObjects.obj
 0001:0000a610       ?getPxScene_BounceThresholdVelocity@@YAMPEBVPxScene@physx@@@Z 000000018000b610 f   PxAutoGeneratedMetaDataObjects.obj
 0001:0000a620       ?getPxScene_BroadPhaseRegions@@YAIPEBVPxScene@physx@@PEAUPxBroadPhaseRegionInfo@2@I@Z 000000018000b620 f   PxAutoGeneratedMetaDataObjects.obj
 0001:0000a630       ?getPxScene_BroadPhaseType@@YA?AW4Enum@PxBroadPhaseType@physx@@PEBVPxScene@3@@Z 000000018000b630 f   PxAutoGeneratedMetaDataObjects.obj
 0001:0000a640       ?getPxScene_CCDContactModifyCallback@@YAPEAVPxCCDContactModifyCallback@physx@@PEBVPxScene@2@@Z 000000018000b640 f   PxAutoGeneratedMetaDataObjects.obj
 0001:0000a650       ?getPxScene_CCDMaxPasses@@YAIPEBVPxScene@physx@@@Z 000000018000b650 f   PxAutoGeneratedMetaDataObjects.obj
 0001:0000a660       ?getPxScene_CCDMaxSeparation@@YAMPEBVPxScene@physx@@@Z 000000018000b660 f   PxAutoGeneratedMetaDataObjects.obj
 0001:0000a670       ?getPxScene_CCDThreshold@@YAMPEBVPxScene@physx@@@Z 000000018000b670 f   PxAutoGeneratedMetaDataObjects.obj
 0001:0000a680       ?getPxScene_Constraints@@YAIPEBVPxScene@physx@@PEAPEAVPxConstraint@2@I@Z 000000018000b680 f   PxAutoGeneratedMetaDataObjects.obj
 0001:0000a690       ?getPxScene_ContactModifyCallback@@YAPEAVPxContactModifyCallback@physx@@PEBVPxScene@2@@Z 000000018000b690 f   PxAutoGeneratedMetaDataObjects.obj
 0001:0000a6a0       ?getPxScene_ContactReportStreamBufferSize@@YAIPEBVPxScene@physx@@@Z 000000018000b6a0 f   PxAutoGeneratedMetaDataObjects.obj
 0001:0000a6b0       ?getPxScene_FilterShaderDataSize@@YAIPEBVPxScene@physx@@@Z 000000018000b6b0 f   PxAutoGeneratedMetaDataObjects.obj
 0001:0000a6b0       ?setPxRigidDynamic_StabilizationThreshold@@YAXPEAVPxRigidDynamic@physx@@M@Z 000000018000b6b0 f   PxAutoGeneratedMetaDataObjects.obj
 0001:0000a6c0       ?getPxScene_FrictionCorrelationDistance@@YAMPEBVPxScene@physx@@@Z 000000018000b6c0 f   PxAutoGeneratedMetaDataObjects.obj
 0001:0000a6d0       ?getPxScene_FrictionOffsetThreshold@@YAMPEBVPxScene@physx@@@Z 000000018000b6d0 f   PxAutoGeneratedMetaDataObjects.obj
 0001:0000a6e0       ?getPxScene_FrictionType@@YA?AW4Enum@PxFrictionType@physx@@PEBVPxScene@3@@Z 000000018000b6e0 f   PxAutoGeneratedMetaDataObjects.obj
 0001:0000a6f0       ?getPxScene_GpuDynamicsConfig@@YA?AUPxgDynamicsMemoryConfig@physx@@PEBVPxScene@2@@Z 000000018000b6f0 f   PxAutoGeneratedMetaDataObjects.obj
 0001:0000a720       ?getPxScene_Gravity@@YA?AV?$PxVec3T@M@physx@@PEBVPxScene@2@@Z 000000018000b720 f   PxAutoGeneratedMetaDataObjects.obj
 0001:0000a750       ?getPxScene_KinematicKinematicFilteringMode@@YA?AW4Enum@PxPairFilteringMode@physx@@PEBVPxScene@3@@Z 000000018000b750 f   PxAutoGeneratedMetaDataObjects.obj
 0001:0000a760       ?getPxScene_Limits@@YA?AVPxSceneLimits@physx@@PEBVPxScene@2@@Z 000000018000b760 f   PxAutoGeneratedMetaDataObjects.obj
 0001:0000a790       ?getPxScene_MaxBiasCoefficient@@YAMPEBVPxScene@physx@@@Z 000000018000b790 f   PxAutoGeneratedMetaDataObjects.obj
 0001:0000a7a0       ?getPxScene_MaxNbContactDataBlocksUsed@@YAIPEBVPxScene@physx@@@Z 000000018000b7a0 f   PxAutoGeneratedMetaDataObjects.obj
 0001:0000a7b0       ?getPxScene_SoftBodies@@YAIPEBVPxScene@physx@@PEAPEAVPxSoftBody@2@I@Z 000000018000b7b0 f   PxAutoGeneratedMetaDataObjects.obj
 0001:0000a7c0       ?getPxScene_SolverArticulationBatchSize@@YAIPEBVPxScene@physx@@@Z 000000018000b7c0 f   PxAutoGeneratedMetaDataObjects.obj
 0001:0000a7d0       ?getPxScene_SolverBatchSize@@YAIPEBVPxScene@physx@@@Z 000000018000b7d0 f   PxAutoGeneratedMetaDataObjects.obj
 0001:0000a7e0       ?getPxScene_SolverType@@YA?AW4Enum@PxSolverType@physx@@PEBVPxScene@3@@Z 000000018000b7e0 f   PxAutoGeneratedMetaDataObjects.obj
 0001:0000a7f0       ?getPxScene_StaticKinematicFilteringMode@@YA?AW4Enum@PxPairFilteringMode@physx@@PEBVPxScene@3@@Z 000000018000b7f0 f   PxAutoGeneratedMetaDataObjects.obj
 0001:0000a800       ?getPxScene_TaskManager@@YAPEAVPxTaskManager@physx@@PEBVPxScene@2@@Z 000000018000b800 f   PxAutoGeneratedMetaDataObjects.obj
 0001:0000a810       ?getPxScene_VisualizationCullingBox@@YA?AVPxBounds3@physx@@PEBVPxScene@2@@Z 000000018000b810 f   PxAutoGeneratedMetaDataObjects.obj
 0001:0000a840       ?getPxScene_WakeCounterResetValue@@YAMPEBVPxScene@physx@@@Z 000000018000b840 f   PxAutoGeneratedMetaDataObjects.obj
 0001:0000a850       ?getPxShape_Flags@@YA?AV?$PxFlags@W4Enum@PxShapeFlag@physx@@E@physx@@PEBVPxShape@2@@Z 000000018000b850 f   PxAutoGeneratedMetaDataObjects.obj
 0001:0000a880       ?getPxShape_IsExclusive@@YA_NPEBVPxShape@physx@@@Z 000000018000b880 f   PxAutoGeneratedMetaDataObjects.obj
 0001:0000a890       ?getPxShape_MinTorsionalPatchRadius@@YAMPEBVPxShape@physx@@@Z 000000018000b890 f   PxAutoGeneratedMetaDataObjects.obj
 0001:0000a890       ?setPxPBDMaterial_ParticleAdhesionScale@@YAXPEAVPxPBDMaterial@physx@@M@Z 000000018000b890 f   PxAutoGeneratedMetaDataObjects.obj
 0001:0000a8a0       ?getPxShape_Name@@YAPEBDPEBVPxShape@physx@@@Z 000000018000b8a0 f   PxAutoGeneratedMetaDataObjects.obj
 0001:0000a8a0       ?setPxRigidBody_MaxLinearVelocity@@YAXPEAVPxRigidBody@physx@@M@Z 000000018000b8a0 f   PxAutoGeneratedMetaDataObjects.obj
 0001:0000a8b0       ?getPxShape_QueryFilterData@@YA?AUPxFilterData@physx@@PEBVPxShape@2@@Z 000000018000b8b0 f   PxAutoGeneratedMetaDataObjects.obj
 0001:0000a8e0       ?getPxShape_SimulationFilterData@@YA?AUPxFilterData@physx@@PEBVPxShape@2@@Z 000000018000b8e0 f   PxAutoGeneratedMetaDataObjects.obj
 0001:0000a910       ?getAggregate@NpArticulationReducedCoordinate@physx@@UEBAPEAVPxAggregate@2@XZ 000000018000b910 f i NpArticulationReducedCoordinate.obj
 0001:0000a910       ?getPxSimulationStatisticsGpuMemFEMCloths@@YA_KPEBVPxSimulationStatistics@physx@@@Z 000000018000b910 f i PxAutoGeneratedMetaDataObjects.obj
 0001:0000a920       ?getName@NpArticulationReducedCoordinate@physx@@UEBAPEBDXZ 000000018000b920 f i NpArticulationReducedCoordinate.obj
 0001:0000a920       ?getPxSimulationStatisticsGpuMemHairSystems@@YA_KPEBVPxSimulationStatistics@physx@@@Z 000000018000b920 f i PxAutoGeneratedMetaDataObjects.obj
 0001:0000a930       ?getPxSimulationStatisticsGpuMemHeap@@YA_KPEBVPxSimulationStatistics@physx@@@Z 000000018000b930 f i PxAutoGeneratedMetaDataObjects.obj
 0001:0000a930       ?getTorsionalData@PxsNphaseImplementationContext@physx@@UEAAPEAUPxsTorsionalFrictionData@2@XZ 000000018000b930 f i LowLevel_static_64:PxsNphaseImplementationContext.obj
 0001:0000a940       ?getPxSimulationStatisticsGpuMemHeapBroadPhase@@YA_KPEBVPxSimulationStatistics@physx@@@Z 000000018000b940 f i PxAutoGeneratedMetaDataObjects.obj
 0001:0000a950       ?getInboundJoint@NpArticulationLink@physx@@UEBAPEAVPxArticulationJointReducedCoordinate@2@XZ 000000018000b950 f i NpArticulationLink.obj
 0001:0000a950       ?getPxSimulationStatisticsGpuMemHeapFEMCloths@@YA_KPEBVPxSimulationStatistics@physx@@@Z 000000018000b950 f i PxAutoGeneratedMetaDataObjects.obj
 0001:0000a960       ?getPxSimulationStatisticsGpuMemHeapHairSystems@@YA_KPEBVPxSimulationStatistics@physx@@@Z 000000018000b960 f i PxAutoGeneratedMetaDataObjects.obj
 0001:0000a970       ?getPxSimulationStatisticsGpuMemHeapNarrowPhase@@YA_KPEBVPxSimulationStatistics@physx@@@Z 000000018000b970 f i PxAutoGeneratedMetaDataObjects.obj
 0001:0000a980       ?getPxSimulationStatisticsGpuMemHeapOther@@YA_KPEBVPxSimulationStatistics@physx@@@Z 000000018000b980 f i PxAutoGeneratedMetaDataObjects.obj
 0001:0000a990       ?getCudaContextManager@NpSoftBody@physx@@UEBAPEAVPxCudaContextManager@2@XZ 000000018000b990 f i NpSoftBody.obj
 0001:0000a990       ?getFoundation@NpPhysics@physx@@UEAAAEAVPxFoundation@2@XZ 000000018000b990 f i NpPhysics.obj
 0001:0000a990       ?getPxSimulationStatisticsGpuMemHeapParticles@@YA_KPEBVPxSimulationStatistics@physx@@@Z 000000018000b990 f i PxAutoGeneratedMetaDataObjects.obj
 0001:0000a9a0       ?getPxSimulationStatisticsGpuMemHeapSimulationArticulation@@YA_KPEBVPxSimulationStatistics@physx@@@Z 000000018000b9a0 f i PxAutoGeneratedMetaDataObjects.obj
 0001:0000a9a0       ?getSimVelocityBufferD@NpSoftBody@physx@@UEAAPEAV?$PxVec4T@M@2@XZ 000000018000b9a0 f i NpSoftBody.obj
 0001:0000a9b0       ?getPxSimulationStatisticsGpuMemHeapSimulationFEMCloth@@YA_KPEBVPxSimulationStatistics@physx@@@Z 000000018000b9b0 f i PxAutoGeneratedMetaDataObjects.obj
 0001:0000a9c0       ?getPxSimulationStatisticsGpuMemHeapSimulationHairSystem@@YA_KPEBVPxSimulationStatistics@physx@@@Z 000000018000b9c0 f i PxAutoGeneratedMetaDataObjects.obj
 0001:0000a9d0       ?getPxSimulationStatisticsGpuMemHeapSimulationParticles@@YA_KPEBVPxSimulationStatistics@physx@@@Z 000000018000b9d0 f i PxAutoGeneratedMetaDataObjects.obj
 0001:0000a9e0       ?getPxSimulationStatisticsGpuMemHeapSimulationSoftBody@@YA_KPEBVPxSimulationStatistics@physx@@@Z 000000018000b9e0 f i PxAutoGeneratedMetaDataObjects.obj
 0001:0000a9f0       ?getArticulation@NpArticulationLink@physx@@UEBAAEAVPxArticulationReducedCoordinate@2@XZ 000000018000b9f0 f i NpArticulationLink.obj
 0001:0000a9f0       ?getPxSimulationStatisticsGpuMemHeapSoftBodies@@YA_KPEBVPxSimulationStatistics@physx@@@Z 000000018000b9f0 f i PxAutoGeneratedMetaDataObjects.obj
 0001:0000aa00       ?getPxSimulationStatisticsGpuMemParticles@@YA_KPEBVPxSimulationStatistics@physx@@@Z 000000018000ba00 f i PxAutoGeneratedMetaDataObjects.obj
 0001:0000aa00       ?getRestDistances@PxsNphaseImplementationContext@physx@@UEAAPEAMXZ 000000018000ba00 f i LowLevel_static_64:PxsNphaseImplementationContext.obj
 0001:0000aa10       ?getPxSimulationStatisticsGpuMemSoftBodies@@YA_KPEBVPxSimulationStatistics@physx@@@Z 000000018000ba10 f i PxAutoGeneratedMetaDataObjects.obj
 0001:0000aa20       ?getPxSimulationStatisticsNbAggregates@@YAIPEBVPxSimulationStatistics@physx@@@Z 000000018000ba20 f i PxAutoGeneratedMetaDataObjects.obj
 0001:0000aa30       ?getPxSimulationStatisticsNbArticulations@@YAIPEBVPxSimulationStatistics@physx@@@Z 000000018000ba30 f i PxAutoGeneratedMetaDataObjects.obj
 0001:0000aa40       ?getPxSimulationStatisticsNbAxisSolverConstraints@@YAIPEBVPxSimulationStatistics@physx@@@Z 000000018000ba40 f i PxAutoGeneratedMetaDataObjects.obj
 0001:0000aa50       ?getPxSimulationStatisticsNbBroadPhaseAdds@@YAIPEBVPxSimulationStatistics@physx@@@Z 000000018000ba50 f i PxAutoGeneratedMetaDataObjects.obj
 0001:0000aa60       ?getPxSimulationStatisticsNbBroadPhaseRemoves@@YAIPEBVPxSimulationStatistics@physx@@@Z 000000018000ba60 f i PxAutoGeneratedMetaDataObjects.obj
 0001:0000aa70       ?getPxSimulationStatisticsNbDiscreteContactPairsTotal@@YAIPEBVPxSimulationStatistics@physx@@@Z 000000018000ba70 f i PxAutoGeneratedMetaDataObjects.obj
 0001:0000aa80       ?getPxSimulationStatisticsNbDiscreteContactPairsWithCacheHits@@YAIPEBVPxSimulationStatistics@physx@@@Z 000000018000ba80 f i PxAutoGeneratedMetaDataObjects.obj
 0001:0000aa90       ?getPxSimulationStatisticsNbDiscreteContactPairsWithContacts@@YAIPEBVPxSimulationStatistics@physx@@@Z 000000018000ba90 f i PxAutoGeneratedMetaDataObjects.obj
 0001:0000aaa0       ?getPxSimulationStatisticsNbLostTouches@@YAIPEBVPxSimulationStatistics@physx@@@Z 000000018000baa0 f i PxAutoGeneratedMetaDataObjects.obj
 0001:0000aab0       ?getPxSimulationStatisticsNbPartitions@@YAIPEBVPxSimulationStatistics@physx@@@Z 000000018000bab0 f i PxAutoGeneratedMetaDataObjects.obj
 0001:0000aac0       ?getNbAttachments@NpArticulationSpatialTendon@physx@@UEBAIXZ 000000018000bac0 f i NpArticulationTendon.obj
 0001:0000aac0       ?getNbTendonJoints@NpArticulationFixedTendon@physx@@UEBAIXZ 000000018000bac0 f i NpArticulationTendon.obj
 0001:0000aac0       ?getPxSimulationStatisticsPeakConstraintMemory@@YAIPEBVPxSimulationStatistics@physx@@@Z 000000018000bac0 f i PxAutoGeneratedMetaDataObjects.obj
 0001:0000aad0       ?getPxSimulationStatisticsRequiredContactConstraintMemory@@YAIPEBVPxSimulationStatistics@physx@@@Z 000000018000bad0 f i PxAutoGeneratedMetaDataObjects.obj
 0001:0000aae0       ?getPxTolerancesScale_IsValid@@YA_NPEBVPxTolerancesScale@physx@@@Z 000000018000bae0 f   PxAutoGeneratedMetaDataObjects.obj
 0001:0000aaf0       ?getPxTriangleMeshGeometryMeshFlags@@YA?AV?$PxFlags@W4Enum@PxMeshGeometryFlag@physx@@E@physx@@PEBVPxTriangleMeshGeometry@2@@Z 000000018000baf0 f i PxAutoGeneratedMetaDataObjects.obj
 0001:0000ab00       ?getPxgDynamicsMemoryConfigCollisionStackSize@@YAIPEBUPxgDynamicsMemoryConfig@physx@@@Z 000000018000bb00 f i PxAutoGeneratedMetaDataObjects.obj
 0001:0000ab10       ?getMaxNbActors@NpAggregate@physx@@UEBAIXZ 000000018000bb10 f i NpAggregate.obj
 0001:0000ab10       ?getPxgDynamicsMemoryConfigMaxHairContacts@@YAIPEBUPxgDynamicsMemoryConfig@physx@@@Z 000000018000bb10 f i PxAutoGeneratedMetaDataObjects.obj
 0001:0000ab20       ?getDynamicStructure@NpScene@physx@@UEBA?AW4Enum@PxPruningStructureType@2@XZ 000000018000bb20 f i NpSceneQueries.obj
 0001:0000ab20       ?getPxgDynamicsMemoryConfigMaxParticleContacts@@YAIPEBUPxgDynamicsMemoryConfig@physx@@@Z 000000018000bb20 f i PxAutoGeneratedMetaDataObjects.obj
 0001:0000ab30       ?getPxgDynamicsMemoryConfig_IsValid@@YA_NPEBUPxgDynamicsMemoryConfig@physx@@@Z 000000018000bb30 f   PxAutoGeneratedMetaDataObjects.obj
 0001:0000ab30       ?isValid@PxgDynamicsMemoryConfig@physx@@QEBA_NXZ 000000018000bb30 f   PxAutoGeneratedMetaDataObjects.obj
 0001:0000ab50       ?setCpuDispatcher@PxTaskMgr@physx@@UEAAXAEAVPxCpuDispatcher@2@@Z 000000018000bb50 f i PhysXTask_static_64:TaskManager.obj
 0001:0000ab50       ?setPxActorUserData@@YAXPEAVPxActor@physx@@PEAX@Z 000000018000bb50 f i PxAutoGeneratedMetaDataObjects.obj
 0001:0000ab50       ?setPxAggregateUserData@@YAXPEAVPxAggregate@physx@@PEAX@Z 000000018000bb50 f i PxAutoGeneratedMetaDataObjects.obj
 0001:0000ab50       ?setPxArticulationJointReducedCoordinateUserData@@YAXPEAVPxArticulationJointReducedCoordinate@physx@@PEAX@Z 000000018000bb50 f i PxAutoGeneratedMetaDataObjects.obj
 0001:0000ab50       ?setPxArticulationReducedCoordinateUserData@@YAXPEAVPxArticulationReducedCoordinate@physx@@PEAX@Z 000000018000bb50 f i PxAutoGeneratedMetaDataObjects.obj
 0001:0000ab50       ?setPxBaseMaterialUserData@@YAXPEAVPxBaseMaterial@physx@@PEAX@Z 000000018000bb50 f i PxAutoGeneratedMetaDataObjects.obj
 0001:0000ab50       ?setPxBroadPhaseDescMContextManager@@YAXPEAVPxBroadPhaseDesc@physx@@PEAVPxCudaContextManager@2@@Z 000000018000bb50 f i PxAutoGeneratedMetaDataObjects.obj
 0001:0000ab50       ?setPxConstraintUserData@@YAXPEAVPxConstraint@physx@@PEAX@Z 000000018000bb50 f i PxAutoGeneratedMetaDataObjects.obj
 0001:0000ab50       ?setPxShapeUserData@@YAXPEAVPxShape@physx@@PEAX@Z 000000018000bb50 f i PxAutoGeneratedMetaDataObjects.obj
 0001:0000ab60       ?setPxActor_ActorFlags@@YAXPEAVPxActor@physx@@V?$PxFlags@W4Enum@PxActorFlag@physx@@E@2@@Z 000000018000bb60 f   PxAutoGeneratedMetaDataObjects.obj
 0001:0000ab80       ?setPxArticulationDriveDamping@@YAXPEAUPxArticulationDrive@physx@@M@Z 000000018000bb80 f i PxAutoGeneratedMetaDataObjects.obj
 0001:0000ab80       ?setPxArticulationLimitHigh@@YAXPEAUPxArticulationLimit@physx@@M@Z 000000018000bb80 f i PxAutoGeneratedMetaDataObjects.obj
 0001:0000ab80       ?setPxTolerancesScaleSpeed@@YAXPEAVPxTolerancesScale@physx@@M@Z 000000018000bb80 f i PxAutoGeneratedMetaDataObjects.obj
 0001:0000ab90       ?setPxArticulationDriveDriveType@@YAXPEAUPxArticulationDrive@physx@@W4Enum@PxArticulationDriveType@2@@Z 000000018000bb90 f i PxAutoGeneratedMetaDataObjects.obj
 0001:0000ab90       ?setPxSceneLimitsMaxNbDynamicShapes@@YAXPEAVPxSceneLimits@physx@@I@Z 000000018000bb90 f i PxAutoGeneratedMetaDataObjects.obj
 0001:0000ab90       ?setPxSceneQueryDescDynamicTreeSecondaryPruner@@YAXPEAVPxSceneQueryDesc@physx@@W4Enum@PxDynamicTreeSecondaryPruner@2@@Z 000000018000bb90 f i PxAutoGeneratedMetaDataObjects.obj
 0001:0000ab90       ?setPxSimulationStatisticsNbStaticBodies@@YAXPEAVPxSimulationStatistics@physx@@I@Z 000000018000bb90 f i PxAutoGeneratedMetaDataObjects.obj
 0001:0000ab90       ?setPxgDynamicsMemoryConfigHeapCapacity@@YAXPEAUPxgDynamicsMemoryConfig@physx@@I@Z 000000018000bb90 f i PxAutoGeneratedMetaDataObjects.obj
 0001:0000aba0       ?setPxArticulationDriveMaxForce@@YAXPEAUPxArticulationDrive@physx@@M@Z 000000018000bba0 f i PxAutoGeneratedMetaDataObjects.obj
 0001:0000aba0       ?setPxCapsuleGeometryRadius@@YAXPEAVPxCapsuleGeometry@physx@@M@Z 000000018000bba0 f i PxAutoGeneratedMetaDataObjects.obj
 0001:0000aba0       ?setPxSphereGeometryRadius@@YAXPEAVPxSphereGeometry@physx@@M@Z 000000018000bba0 f i PxAutoGeneratedMetaDataObjects.obj
 0001:0000abb0       ?setPxArticulationDriveStiffness@@YAXPEAUPxArticulationDrive@physx@@M@Z 000000018000bbb0 f i PxAutoGeneratedMetaDataObjects.obj
 0001:0000abb0       ?setPxArticulationLimitLow@@YAXPEAUPxArticulationLimit@physx@@M@Z 000000018000bbb0 f i PxAutoGeneratedMetaDataObjects.obj
 0001:0000abb0       ?setPxTolerancesScaleLength@@YAXPEAVPxTolerancesScale@physx@@M@Z 000000018000bbb0 f i PxAutoGeneratedMetaDataObjects.obj
 0001:0000abc0       ?setPxArticulationJointReducedCoordinate_DriveParams@@YAXPEAVPxArticulationJointReducedCoordinate@physx@@W4Enum@PxArticulationAxis@2@UPxArticulationDrive@2@@Z 000000018000bbc0 f   PxAutoGeneratedMetaDataObjects.obj
 0001:0000abe0       ?setPxArticulationJointReducedCoordinate_LimitParams@@YAXPEAVPxArticulationJointReducedCoordinate@physx@@W4Enum@PxArticulationAxis@2@UPxArticulationLimit@2@@Z 000000018000bbe0 f   PxAutoGeneratedMetaDataObjects.obj
 0001:0000ac00       ?setPxArticulationReducedCoordinate_ArticulationFlags@@YAXPEAVPxArticulationReducedCoordinate@physx@@V?$PxFlags@W4Enum@PxArticulationFlag@physx@@E@2@@Z 000000018000bc00 f   PxAutoGeneratedMetaDataObjects.obj
 0001:0000ac20       ?setPxArticulationReducedCoordinate_RootAngularVelocity@@YAXPEAVPxArticulationReducedCoordinate@physx@@AEBV?$PxVec3T@M@2@@Z 000000018000bc20 f   PxAutoGeneratedMetaDataObjects.obj
 0001:0000ac30       ?setPxArticulationReducedCoordinate_RootGlobalPose@@YAXPEAVPxArticulationReducedCoordinate@physx@@AEBV?$PxTransformT@M@2@@Z 000000018000bc30 f   PxAutoGeneratedMetaDataObjects.obj
 0001:0000ac40       ?setPxArticulationReducedCoordinate_RootLinearVelocity@@YAXPEAVPxArticulationReducedCoordinate@physx@@AEBV?$PxVec3T@M@2@@Z 000000018000bc40 f   PxAutoGeneratedMetaDataObjects.obj
 0001:0000ac50       ?setPxBoxGeometryHalfExtents@@YAXPEAVPxBoxGeometry@physx@@V?$PxVec3T@M@2@@Z 000000018000bc50 f i PxAutoGeneratedMetaDataObjects.obj
 0001:0000ac70       ?setPxBroadPhaseDescMContextID@@YAXPEAVPxBroadPhaseDesc@physx@@_K@Z 000000018000bc70 f i PxAutoGeneratedMetaDataObjects.obj
 0001:0000ac70       ?setPxHeightFieldGeometryHeightField@@YAXPEAVPxHeightFieldGeometry@physx@@PEAVPxHeightField@2@@Z 000000018000bc70 f i PxAutoGeneratedMetaDataObjects.obj
 0001:0000ac70       ?setPxSceneUserData@@YAXPEAVPxScene@physx@@PEAX@Z 000000018000bc70 f i PxAutoGeneratedMetaDataObjects.obj
 0001:0000ac70       ?setPxTetrahedronMeshGeometryTetrahedronMesh@@YAXPEAVPxTetrahedronMeshGeometry@physx@@PEAVPxTetrahedronMesh@2@@Z 000000018000bc70 f i PxAutoGeneratedMetaDataObjects.obj
 0001:0000ac80       ?setPxBroadPhaseDescMDiscardKinematicVsKinematic@@YAXPEAVPxBroadPhaseDesc@physx@@_N@Z 000000018000bc80 f i PxAutoGeneratedMetaDataObjects.obj
 0001:0000ac90       ?setPxBroadPhaseDescMDiscardStaticVsKinematic@@YAXPEAVPxBroadPhaseDesc@physx@@_N@Z 000000018000bc90 f i PxAutoGeneratedMetaDataObjects.obj
 0001:0000aca0       ?setPxBroadPhaseDescMFoundLostPairsCapacity@@YAXPEAVPxBroadPhaseDesc@physx@@I@Z 000000018000bca0 f i PxAutoGeneratedMetaDataObjects.obj
 0001:0000aca0       ?setPxSceneLimitsMaxNbRegions@@YAXPEAVPxSceneLimits@physx@@I@Z 000000018000bca0 f i PxAutoGeneratedMetaDataObjects.obj
 0001:0000aca0       ?setPxSceneQueryDescStaticNbObjectsPerNode@@YAXPEAVPxSceneQueryDesc@physx@@I@Z 000000018000bca0 f i PxAutoGeneratedMetaDataObjects.obj
 0001:0000aca0       ?setPxgDynamicsMemoryConfigTotalAggregatePairsCapacity@@YAXPEAUPxgDynamicsMemoryConfig@physx@@I@Z 000000018000bca0 f i PxAutoGeneratedMetaDataObjects.obj
 0001:0000acb0       ?setPxBroadPhaseDescMType@@YAXPEAVPxBroadPhaseDesc@physx@@W4Enum@PxBroadPhaseType@2@@Z 000000018000bcb0 f i PxAutoGeneratedMetaDataObjects.obj
 0001:0000acb0       ?setPxHeightFieldDescNbRows@@YAXPEAVPxHeightFieldDesc@physx@@I@Z 000000018000bcb0 f i PxAutoGeneratedMetaDataObjects.obj
 0001:0000acb0       ?setPxSceneLimitsMaxNbActors@@YAXPEAVPxSceneLimits@physx@@I@Z 000000018000bcb0 f i PxAutoGeneratedMetaDataObjects.obj
 0001:0000acb0       ?setPxSceneQueryDescStaticStructure@@YAXPEAVPxSceneQueryDesc@physx@@W4Enum@PxPruningStructureType@2@@Z 000000018000bcb0 f i PxAutoGeneratedMetaDataObjects.obj
 0001:0000acb0       ?setPxSimulationStatisticsNbActiveConstraints@@YAXPEAVPxSimulationStatistics@physx@@I@Z 000000018000bcb0 f i PxAutoGeneratedMetaDataObjects.obj
 0001:0000acb0       ?setPxgDynamicsMemoryConfigTempBufferCapacity@@YAXPEAUPxgDynamicsMemoryConfig@physx@@I@Z 000000018000bcb0 f i PxAutoGeneratedMetaDataObjects.obj
 0001:0000acc0       ?setPxCapsuleGeometryHalfHeight@@YAXPEAVPxCapsuleGeometry@physx@@M@Z 000000018000bcc0 f i PxAutoGeneratedMetaDataObjects.obj
 0001:0000acd0       ?setPxConstraint_Flags@@YAXPEAVPxConstraint@physx@@V?$PxFlags@W4Enum@PxConstraintFlag@physx@@G@2@@Z 000000018000bcd0 f   PxAutoGeneratedMetaDataObjects.obj
 0001:0000acf0       ?setName@?$NpParticleSystem@VPxPBDParticleSystem@physx@@@physx@@UEAAXPEBD@Z 000000018000bcf0 f i NpParticleSystem.obj
 0001:0000acf0       ?setName@NpSoftBody@physx@@UEAAXPEBD@Z 000000018000bcf0 f i NpSoftBody.obj
 0001:0000acf0       ?setPxConvexMeshGeometryConvexMesh@@YAXPEAVPxConvexMeshGeometry@physx@@PEAVPxConvexMesh@2@@Z 000000018000bcf0 f i PxAutoGeneratedMetaDataObjects.obj
 0001:0000acf0       ?setPxTriangleMeshGeometryTriangleMesh@@YAXPEAVPxTriangleMeshGeometry@physx@@PEAVPxTriangleMesh@2@@Z 000000018000bcf0 f i PxAutoGeneratedMetaDataObjects.obj
 0001:0000ad00       ?setPxConvexMeshGeometryMeshFlags@@YAXPEAVPxConvexMeshGeometry@physx@@V?$PxFlags@W4Enum@PxConvexMeshGeometryFlag@physx@@E@2@@Z 000000018000bd00 f i PxAutoGeneratedMetaDataObjects.obj
 0001:0000ad10       ?setPxConvexMeshGeometryScale@@YAXPEAVPxConvexMeshGeometry@physx@@VPxMeshScale@2@@Z 000000018000bd10 f i PxAutoGeneratedMetaDataObjects.obj
 0001:0000ad10       ?setPxTriangleMeshGeometryScale@@YAXPEAVPxTriangleMeshGeometry@physx@@VPxMeshScale@2@@Z 000000018000bd10 f i PxAutoGeneratedMetaDataObjects.obj
 0001:0000ad40       ?setPxHeightFieldDescConvexEdgeThreshold@@YAXPEAVPxHeightFieldDesc@physx@@M@Z 000000018000bd40 f i PxAutoGeneratedMetaDataObjects.obj
 0001:0000ad50       ?setPxHeightFieldDescFlags@@YAXPEAVPxHeightFieldDesc@physx@@V?$PxFlags@W4Enum@PxHeightFieldFlag@physx@@G@2@@Z 000000018000bd50 f i PxAutoGeneratedMetaDataObjects.obj
 0001:0000ad60       ?setPxHeightFieldDescFormat@@YAXPEAVPxHeightFieldDesc@physx@@W4Enum@PxHeightFieldFormat@2@@Z 000000018000bd60 f i PxAutoGeneratedMetaDataObjects.obj
 0001:0000ad60       ?setPxSceneLimitsMaxNbStaticShapes@@YAXPEAVPxSceneLimits@physx@@I@Z 000000018000bd60 f i PxAutoGeneratedMetaDataObjects.obj
 0001:0000ad60       ?setPxSceneQueryDescDynamicTreeRebuildRateHint@@YAXPEAVPxSceneQueryDesc@physx@@I@Z 000000018000bd60 f i PxAutoGeneratedMetaDataObjects.obj
 0001:0000ad60       ?setPxSimulationStatisticsNbActiveKinematicBodies@@YAXPEAVPxSimulationStatistics@physx@@I@Z 000000018000bd60 f i PxAutoGeneratedMetaDataObjects.obj
 0001:0000ad60       ?setPxgDynamicsMemoryConfigMaxRigidPatchCount@@YAXPEAUPxgDynamicsMemoryConfig@physx@@I@Z 000000018000bd60 f i PxAutoGeneratedMetaDataObjects.obj
 0001:0000ad70       ?setPxHeightFieldDescNbColumns@@YAXPEAVPxHeightFieldDesc@physx@@I@Z 000000018000bd70 f i PxAutoGeneratedMetaDataObjects.obj
 0001:0000ad70       ?setPxSceneLimitsMaxNbBodies@@YAXPEAVPxSceneLimits@physx@@I@Z 000000018000bd70 f i PxAutoGeneratedMetaDataObjects.obj
 0001:0000ad70       ?setPxSceneQueryDescDynamicStructure@@YAXPEAVPxSceneQueryDesc@physx@@W4Enum@PxPruningStructureType@2@@Z 000000018000bd70 f i PxAutoGeneratedMetaDataObjects.obj
 0001:0000ad70       ?setPxSimulationStatisticsNbActiveDynamicBodies@@YAXPEAVPxSimulationStatistics@physx@@I@Z 000000018000bd70 f i PxAutoGeneratedMetaDataObjects.obj
 0001:0000ad70       ?setPxgDynamicsMemoryConfigMaxRigidContactCount@@YAXPEAUPxgDynamicsMemoryConfig@physx@@I@Z 000000018000bd70 f i PxAutoGeneratedMetaDataObjects.obj
 0001:0000ad80       ?setPxHeightFieldDescSamples@@YAXPEAVPxHeightFieldDesc@physx@@UPxStridedData@2@@Z 000000018000bd80 f i PxAutoGeneratedMetaDataObjects.obj
 0001:0000ad90       ?setPxHeightFieldGeometryColumnScale@@YAXPEAVPxHeightFieldGeometry@physx@@M@Z 000000018000bd90 f i PxAutoGeneratedMetaDataObjects.obj
 0001:0000ada0       ?setPxHeightFieldGeometryHeightFieldFlags@@YAXPEAVPxHeightFieldGeometry@physx@@V?$PxFlags@W4Enum@PxMeshGeometryFlag@physx@@E@2@@Z 000000018000bda0 f i PxAutoGeneratedMetaDataObjects.obj
 0001:0000adb0       ?setPxHeightFieldGeometryHeightScale@@YAXPEAVPxHeightFieldGeometry@physx@@M@Z 000000018000bdb0 f i PxAutoGeneratedMetaDataObjects.obj
 0001:0000adc0       ?setPxHeightFieldGeometryRowScale@@YAXPEAVPxHeightFieldGeometry@physx@@M@Z 000000018000bdc0 f i PxAutoGeneratedMetaDataObjects.obj
 0001:0000add0       ?setPxMaterial_Flags@@YAXPEAVPxMaterial@physx@@V?$PxFlags@W4Enum@PxMaterialFlag@physx@@G@2@@Z 000000018000bdd0 f   PxAutoGeneratedMetaDataObjects.obj
 0001:0000adf0       ?setPxMeshScaleRotation@@YAXPEAVPxMeshScale@physx@@V?$PxQuatT@M@2@@Z 000000018000bdf0 f i PxAutoGeneratedMetaDataObjects.obj
 0001:0000ae10       ?setPxMeshScaleScale@@YAXPEAVPxMeshScale@physx@@V?$PxVec3T@M@2@@Z 000000018000be10 f i PxAutoGeneratedMetaDataObjects.obj
 0001:0000ae30       ?setPxRigidActor_GlobalPose@@YAXPEAVPxRigidActor@physx@@AEBV?$PxTransformT@M@2@@Z 000000018000be30 f   PxAutoGeneratedMetaDataObjects.obj
 0001:0000ae40       ?setPxRigidBody_AngularDamping@@YAXPEAVPxRigidBody@physx@@M@Z 000000018000be40 f   PxAutoGeneratedMetaDataObjects.obj
 0001:0000ae50       ?setPxRigidBody_ContactSlopCoefficient@@YAXPEAVPxRigidBody@physx@@M@Z 000000018000be50 f   PxAutoGeneratedMetaDataObjects.obj
 0001:0000ae50       ?setPxScene_ContactModifyCallback@@YAXPEAVPxScene@physx@@PEAVPxContactModifyCallback@2@@Z 000000018000be50 f   PxAutoGeneratedMetaDataObjects.obj
 0001:0000ae60       ?setPxRigidBody_MaxAngularVelocity@@YAXPEAVPxRigidBody@physx@@M@Z 000000018000be60 f   PxAutoGeneratedMetaDataObjects.obj
 0001:0000ae70       ?setPxRigidBody_MaxContactImpulse@@YAXPEAVPxRigidBody@physx@@M@Z 000000018000be70 f   PxAutoGeneratedMetaDataObjects.obj
 0001:0000ae70       ?setPxScene_SimulationEventCallback@@YAXPEAVPxScene@physx@@PEAVPxSimulationEventCallback@2@@Z 000000018000be70 f   PxAutoGeneratedMetaDataObjects.obj
 0001:0000ae80       ?setPxRigidBody_MinCCDAdvanceCoefficient@@YAXPEAVPxRigidBody@physx@@M@Z 000000018000be80 f   PxAutoGeneratedMetaDataObjects.obj
 0001:0000ae90       ?setPxRigidBody_RigidBodyFlags@@YAXPEAVPxRigidBody@physx@@V?$PxFlags@W4Enum@PxRigidBodyFlag@physx@@G@2@@Z 000000018000be90 f   PxAutoGeneratedMetaDataObjects.obj
 0001:0000aeb0       ?setPxRigidDynamic_AngularVelocity@@YAXPEAVPxRigidDynamic@physx@@AEBV?$PxVec3T@M@2@@Z 000000018000beb0 f   PxAutoGeneratedMetaDataObjects.obj
 0001:0000aec0       ?setPxRigidDynamic_ContactReportThreshold@@YAXPEAVPxRigidDynamic@physx@@M@Z 000000018000bec0 f   PxAutoGeneratedMetaDataObjects.obj
 0001:0000aed0       ?setPxRigidDynamic_LinearVelocity@@YAXPEAVPxRigidDynamic@physx@@AEBV?$PxVec3T@M@2@@Z 000000018000bed0 f   PxAutoGeneratedMetaDataObjects.obj
 0001:0000aee0       ?setPxRigidDynamic_RigidDynamicLockFlags@@YAXPEAVPxRigidDynamic@physx@@V?$PxFlags@W4Enum@PxRigidDynamicLockFlag@physx@@E@2@@Z 000000018000bee0 f   PxAutoGeneratedMetaDataObjects.obj
 0001:0000af00       ?setPxRigidDynamic_SolverIterationCounts@@YAXPEAVPxRigidDynamic@physx@@II@Z 000000018000bf00 f   PxAutoGeneratedMetaDataObjects.obj
 0001:0000af10       ?setPxRigidDynamic_WakeCounter@@YAXPEAVPxRigidDynamic@physx@@M@Z 000000018000bf10 f   PxAutoGeneratedMetaDataObjects.obj
 0001:0000af20       ?setPxSceneDescBounceThresholdVelocity@@YAXPEAVPxSceneDesc@physx@@M@Z 000000018000bf20 f i PxAutoGeneratedMetaDataObjects.obj
 0001:0000af30       ?setPxSceneDescBroadPhaseCallback@@YAXPEAVPxSceneDesc@physx@@PEAVPxBroadPhaseCallback@2@@Z 000000018000bf30 f i PxAutoGeneratedMetaDataObjects.obj
 0001:0000af40       ?setPxSceneDescBroadPhaseType@@YAXPEAVPxSceneDesc@physx@@W4Enum@PxBroadPhaseType@2@@Z 000000018000bf40 f i PxAutoGeneratedMetaDataObjects.obj
 0001:0000af40       ?setPxSimulationStatisticsNbNewTouches@@YAXPEAVPxSimulationStatistics@physx@@I@Z 000000018000bf40 f i PxAutoGeneratedMetaDataObjects.obj
 0001:0000af50       ?setPxSceneDescCcdContactModifyCallback@@YAXPEAVPxSceneDesc@physx@@PEAVPxCCDContactModifyCallback@2@@Z 000000018000bf50 f i PxAutoGeneratedMetaDataObjects.obj
 0001:0000af60       ?setPxSceneDescCcdMaxPasses@@YAXPEAVPxSceneDesc@physx@@I@Z 000000018000bf60 f i PxAutoGeneratedMetaDataObjects.obj
 0001:0000af70       ?setMaxVelocity@ParticleSystemCore@Sc@physx@@QEAAXM@Z 000000018000bf70 f i SimulationController_static_64:ScParticleSystemCore.obj
 0001:0000af70       ?setPxSceneDescCcdMaxSeparation@@YAXPEAVPxSceneDesc@physx@@M@Z 000000018000bf70 f i PxAutoGeneratedMetaDataObjects.obj
 0001:0000af80       ?setMaxDepenetrationVelocity@ParticleSystemCore@Sc@physx@@QEAAXM@Z 000000018000bf80 f i SimulationController_static_64:ScParticleSystemCore.obj
 0001:0000af80       ?setPxSceneDescCcdThreshold@@YAXPEAVPxSceneDesc@physx@@M@Z 000000018000bf80 f i PxAutoGeneratedMetaDataObjects.obj
 0001:0000af90       ?setPxSceneDescContactModifyCallback@@YAXPEAVPxSceneDesc@physx@@PEAVPxContactModifyCallback@2@@Z 000000018000bf90 f i PxAutoGeneratedMetaDataObjects.obj
 0001:0000afa0       ?setPxSceneDescContactPairSlabSize@@YAXPEAVPxSceneDesc@physx@@I@Z 000000018000bfa0 f i PxAutoGeneratedMetaDataObjects.obj
 0001:0000afb0       ?setPxSceneDescContactReportStreamBufferSize@@YAXPEAVPxSceneDesc@physx@@I@Z 000000018000bfb0 f i PxAutoGeneratedMetaDataObjects.obj
 0001:0000afc0       ?setName@NpShape@physx@@UEAAXPEBD@Z 000000018000bfc0 f i NpShape.obj
 0001:0000afc0       ?setPxSceneDescCpuDispatcher@@YAXPEAVPxSceneDesc@physx@@PEAVPxCpuDispatcher@2@@Z 000000018000bfc0 f i PxAutoGeneratedMetaDataObjects.obj
 0001:0000afc0       ?setPxSimulationStatisticsGpuMemHeapSolver@@YAXPEAVPxSimulationStatistics@physx@@_K@Z 000000018000bfc0 f i PxAutoGeneratedMetaDataObjects.obj
 0001:0000afd0       ?setPxSceneDescCudaContextManager@@YAXPEAVPxSceneDesc@physx@@PEAVPxCudaContextManager@2@@Z 000000018000bfd0 f i PxAutoGeneratedMetaDataObjects.obj
 0001:0000afd0       ?setPxSimulationStatisticsGpuMemHeapArticulation@@YAXPEAVPxSimulationStatistics@physx@@_K@Z 000000018000bfd0 f i PxAutoGeneratedMetaDataObjects.obj
 0001:0000afe0       ?setPxSceneDescFilterCallback@@YAXPEAVPxSceneDesc@physx@@PEAVPxSimulationFilterCallback@2@@Z 000000018000bfe0 f i PxAutoGeneratedMetaDataObjects.obj
 0001:0000aff0       ?setPxSceneDescFilterShader@@YAXPEAVPxSceneDesc@physx@@P6A?AV?$PxFlags@W4Enum@PxFilterFlag@physx@@G@2@IUPxFilterData@2@I1AEAV?$PxFlags@W4Enum@PxPairFlag@physx@@G@2@PEBXI@Z@Z 000000018000bff0 f i PxAutoGeneratedMetaDataObjects.obj
 0001:0000b000       ?setPxSceneDescFilterShaderData@@YAXPEAVPxSceneDesc@physx@@PEBX@Z 000000018000c000 f i PxAutoGeneratedMetaDataObjects.obj
 0001:0000b010       ?setPxSceneDescFilterShaderDataSize@@YAXPEAVPxSceneDesc@physx@@I@Z 000000018000c010 f i PxAutoGeneratedMetaDataObjects.obj
 0001:0000b010       ?setPxSimulationStatisticsCompressedContactSize@@YAXPEAVPxSimulationStatistics@physx@@I@Z 000000018000c010 f i PxAutoGeneratedMetaDataObjects.obj
 0001:0000b020       ?setPxSceneDescFlags@@YAXPEAVPxSceneDesc@physx@@V?$PxFlags@W4Enum@PxSceneFlag@physx@@I@2@@Z 000000018000c020 f i PxAutoGeneratedMetaDataObjects.obj
 0001:0000b030       ?setPxSceneDescFrictionCorrelationDistance@@YAXPEAVPxSceneDesc@physx@@M@Z 000000018000c030 f i PxAutoGeneratedMetaDataObjects.obj
 0001:0000b040       ?setPxSceneDescFrictionOffsetThreshold@@YAXPEAVPxSceneDesc@physx@@M@Z 000000018000c040 f i PxAutoGeneratedMetaDataObjects.obj
 0001:0000b050       ?setPxSceneDescFrictionType@@YAXPEAVPxSceneDesc@physx@@W4Enum@PxFrictionType@2@@Z 000000018000c050 f i PxAutoGeneratedMetaDataObjects.obj
 0001:0000b060       ?setPxSceneDescGpuComputeVersion@@YAXPEAVPxSceneDesc@physx@@I@Z 000000018000c060 f i PxAutoGeneratedMetaDataObjects.obj
 0001:0000b070       ?setPxSceneDescGpuDynamicsConfig@@YAXPEAVPxSceneDesc@physx@@UPxgDynamicsMemoryConfig@2@@Z 000000018000c070 f i PxAutoGeneratedMetaDataObjects.obj
 0001:0000b0a0       ?setPxSceneDescGpuMaxNumPartitions@@YAXPEAVPxSceneDesc@physx@@I@Z 000000018000c0a0 f i PxAutoGeneratedMetaDataObjects.obj
 0001:0000b0b0       ?setPxSceneDescGpuMaxNumStaticPartitions@@YAXPEAVPxSceneDesc@physx@@I@Z 000000018000c0b0 f i PxAutoGeneratedMetaDataObjects.obj
 0001:0000b0c0       ?setPxSceneDescGravity@@YAXPEAVPxSceneDesc@physx@@V?$PxVec3T@M@2@@Z 000000018000c0c0 f i PxAutoGeneratedMetaDataObjects.obj
 0001:0000b0e0       ?setPxSceneDescKineKineFilteringMode@@YAXPEAVPxSceneDesc@physx@@W4Enum@PxPairFilteringMode@2@@Z 000000018000c0e0 f i PxAutoGeneratedMetaDataObjects.obj
 0001:0000b0e0       ?setPxSimulationStatisticsNbNewPairs@@YAXPEAVPxSimulationStatistics@physx@@I@Z 000000018000c0e0 f i PxAutoGeneratedMetaDataObjects.obj
 0001:0000b0f0       ?setPxSceneDescLimits@@YAXPEAVPxSceneDesc@physx@@VPxSceneLimits@2@@Z 000000018000c0f0 f i PxAutoGeneratedMetaDataObjects.obj
 0001:0000b110       ?setFluidRestOffset@ParticleSystemCore@Sc@physx@@QEAAXM@Z 000000018000c110 f i SimulationController_static_64:ScParticleSystemCore.obj
 0001:0000b110       ?setPxSceneDescMaxBiasCoefficient@@YAXPEAVPxSceneDesc@physx@@M@Z 000000018000c110 f i PxAutoGeneratedMetaDataObjects.obj
 0001:0000b120       ?setPxSceneDescMaxNbContactDataBlocks@@YAXPEAVPxSceneDesc@physx@@I@Z 000000018000c120 f i PxAutoGeneratedMetaDataObjects.obj
 0001:0000b130       ?setPxSceneDescNbContactDataBlocks@@YAXPEAVPxSceneDesc@physx@@I@Z 000000018000c130 f i PxAutoGeneratedMetaDataObjects.obj
 0001:0000b140       ?setPxSceneDescSanityBounds@@YAXPEAVPxSceneDesc@physx@@VPxBounds3@2@@Z 000000018000c140 f i PxAutoGeneratedMetaDataObjects.obj
 0001:0000b180       ?setPxSceneDescSimulationEventCallback@@YAXPEAVPxSceneDesc@physx@@PEAVPxSimulationEventCallback@2@@Z 000000018000c180 f i PxAutoGeneratedMetaDataObjects.obj
 0001:0000b190       ?setPxSceneDescSolverArticulationBatchSize@@YAXPEAVPxSceneDesc@physx@@I@Z 000000018000c190 f i PxAutoGeneratedMetaDataObjects.obj
 0001:0000b1a0       ?setPxSceneDescSolverBatchSize@@YAXPEAVPxSceneDesc@physx@@I@Z 000000018000c1a0 f i PxAutoGeneratedMetaDataObjects.obj
 0001:0000b1b0       ?setPxSceneDescSolverType@@YAXPEAVPxSceneDesc@physx@@W4Enum@PxSolverType@2@@Z 000000018000c1b0 f i PxAutoGeneratedMetaDataObjects.obj
 0001:0000b1c0       ?setPxSceneDescStaticKineFilteringMode@@YAXPEAVPxSceneDesc@physx@@W4Enum@PxPairFilteringMode@2@@Z 000000018000c1c0 f i PxAutoGeneratedMetaDataObjects.obj
 0001:0000b1c0       ?setPxSimulationStatisticsNbLostPairs@@YAXPEAVPxSimulationStatistics@physx@@I@Z 000000018000c1c0 f i PxAutoGeneratedMetaDataObjects.obj
 0001:0000b1d0       ?setPxSceneDescUserData@@YAXPEAVPxSceneDesc@physx@@PEAX@Z 000000018000c1d0 f i PxAutoGeneratedMetaDataObjects.obj
 0001:0000b1d0       ?setPxSimulationStatisticsGpuMemHeapSimulation@@YAXPEAVPxSimulationStatistics@physx@@_K@Z 000000018000c1d0 f i PxAutoGeneratedMetaDataObjects.obj
 0001:0000b1e0       ?setPxSceneDescWakeCounterResetValue@@YAXPEAVPxSceneDesc@physx@@M@Z 000000018000c1e0 f i PxAutoGeneratedMetaDataObjects.obj
 0001:0000b1f0       ?setPxSceneDesc_ToDefault@@YAXPEAVPxSceneDesc@physx@@AEBVPxTolerancesScale@2@@Z 000000018000c1f0 f   PxAutoGeneratedMetaDataObjects.obj
 0001:0000b460       ?setPxSceneLimitsMaxNbAggregates@@YAXPEAVPxSceneLimits@physx@@I@Z 000000018000c460 f i PxAutoGeneratedMetaDataObjects.obj
 0001:0000b460       ?setPxSceneQueryDescStaticBVHBuildStrategy@@YAXPEAVPxSceneQueryDesc@physx@@W4Enum@PxBVHBuildStrategy@2@@Z 000000018000c460 f i PxAutoGeneratedMetaDataObjects.obj
 0001:0000b460       ?setPxSimulationStatisticsNbDynamicBodies@@YAXPEAVPxSimulationStatistics@physx@@I@Z 000000018000c460 f i PxAutoGeneratedMetaDataObjects.obj
 0001:0000b460       ?setPxgDynamicsMemoryConfigFoundLostPairsCapacity@@YAXPEAUPxgDynamicsMemoryConfig@physx@@I@Z 000000018000c460 f i PxAutoGeneratedMetaDataObjects.obj
 0001:0000b470       ?setPxSceneLimitsMaxNbBroadPhaseOverlaps@@YAXPEAVPxSceneLimits@physx@@I@Z 000000018000c470 f i PxAutoGeneratedMetaDataObjects.obj
 0001:0000b470       ?setPxSceneQueryDescDynamicNbObjectsPerNode@@YAXPEAVPxSceneQueryDesc@physx@@I@Z 000000018000c470 f i PxAutoGeneratedMetaDataObjects.obj
 0001:0000b470       ?setPxgDynamicsMemoryConfigMaxSoftBodyContacts@@YAXPEAUPxgDynamicsMemoryConfig@physx@@I@Z 000000018000c470 f i PxAutoGeneratedMetaDataObjects.obj
 0001:0000b480       ?setPxSceneLimitsMaxNbConstraints@@YAXPEAVPxSceneLimits@physx@@I@Z 000000018000c480 f i PxAutoGeneratedMetaDataObjects.obj
 0001:0000b480       ?setPxSceneQueryDescDynamicBVHBuildStrategy@@YAXPEAVPxSceneQueryDesc@physx@@W4Enum@PxBVHBuildStrategy@2@@Z 000000018000c480 f i PxAutoGeneratedMetaDataObjects.obj
 0001:0000b480       ?setPxSimulationStatisticsNbKinematicBodies@@YAXPEAVPxSimulationStatistics@physx@@I@Z 000000018000c480 f i PxAutoGeneratedMetaDataObjects.obj
 0001:0000b480       ?setPxgDynamicsMemoryConfigFoundLostAggregatePairsCapacity@@YAXPEAUPxgDynamicsMemoryConfig@physx@@I@Z 000000018000c480 f i PxAutoGeneratedMetaDataObjects.obj
 0001:0000b490       ?setPxSceneQueryDescSceneQueryUpdateMode@@YAXPEAVPxSceneQueryDesc@physx@@W4Enum@PxSceneQueryUpdateMode@2@@Z 000000018000c490 f i PxAutoGeneratedMetaDataObjects.obj
 0001:0000b490       ?setPxgDynamicsMemoryConfigMaxFemClothContacts@@YAXPEAUPxgDynamicsMemoryConfig@physx@@I@Z 000000018000c490 f i PxAutoGeneratedMetaDataObjects.obj
 0001:0000b4a0       ?setPxSceneQuerySystemBase_UpdateMode@@YAXPEAVPxSceneQuerySystemBase@physx@@W4Enum@PxSceneQueryUpdateMode@2@@Z 000000018000c4a0 f   PxAutoGeneratedMetaDataObjects.obj
 0001:0000b4a0       ?setPxSceneSQSystem_SceneQueryUpdateMode@@YAXPEAVPxSceneSQSystem@physx@@W4Enum@PxSceneQueryUpdateMode@2@@Z 000000018000c4a0 f   PxAutoGeneratedMetaDataObjects.obj
 0001:0000b4b0       ?setPxScene_BounceThresholdVelocity@@YAXPEAVPxScene@physx@@M@Z 000000018000c4b0 f   PxAutoGeneratedMetaDataObjects.obj
 0001:0000b4c0       ?setPxScene_CCDMaxPasses@@YAXPEAVPxScene@physx@@I@Z 000000018000c4c0 f   PxAutoGeneratedMetaDataObjects.obj
 0001:0000b4d0       ?setPxScene_CCDMaxSeparation@@YAXPEAVPxScene@physx@@M@Z 000000018000c4d0 f   PxAutoGeneratedMetaDataObjects.obj
 0001:0000b4e0       ?setPxScene_CCDThreshold@@YAXPEAVPxScene@physx@@M@Z 000000018000c4e0 f   PxAutoGeneratedMetaDataObjects.obj
 0001:0000b4f0       ?setPxScene_FrictionCorrelationDistance@@YAXPEAVPxScene@physx@@M@Z 000000018000c4f0 f   PxAutoGeneratedMetaDataObjects.obj
 0001:0000b500       ?setPxScene_FrictionOffsetThreshold@@YAXPEAVPxScene@physx@@M@Z 000000018000c500 f   PxAutoGeneratedMetaDataObjects.obj
 0001:0000b510       ?setPxScene_Gravity@@YAXPEAVPxScene@physx@@AEBV?$PxVec3T@M@2@@Z 000000018000c510 f   PxAutoGeneratedMetaDataObjects.obj
 0001:0000b520       ?setPxScene_MaxBiasCoefficient@@YAXPEAVPxScene@physx@@M@Z 000000018000c520 f   PxAutoGeneratedMetaDataObjects.obj
 0001:0000b530       ?setPxScene_NbContactDataBlocks@@YAXPEAVPxScene@physx@@I@Z 000000018000c530 f   PxAutoGeneratedMetaDataObjects.obj
 0001:0000b540       ?setPxScene_SolverArticulationBatchSize@@YAXPEAVPxScene@physx@@I@Z 000000018000c540 f   PxAutoGeneratedMetaDataObjects.obj
 0001:0000b550       ?setPxScene_SolverBatchSize@@YAXPEAVPxScene@physx@@I@Z 000000018000c550 f   PxAutoGeneratedMetaDataObjects.obj
 0001:0000b560       ?setPxScene_VisualizationCullingBox@@YAXPEAVPxScene@physx@@AEBVPxBounds3@2@@Z 000000018000c560 f   PxAutoGeneratedMetaDataObjects.obj
 0001:0000b570       ?setPxShape_Flags@@YAXPEAVPxShape@physx@@V?$PxFlags@W4Enum@PxShapeFlag@physx@@E@2@@Z 000000018000c570 f   PxAutoGeneratedMetaDataObjects.obj
 0001:0000b590       ?setPxShape_Name@@YAXPEAVPxShape@physx@@PEBD@Z 000000018000c590 f   PxAutoGeneratedMetaDataObjects.obj
 0001:0000b5a0       ?setAggregate@NpArticulationReducedCoordinate@physx@@QEAAXPEAVPxAggregate@2@@Z 000000018000c5a0 f i NpArticulationReducedCoordinate.obj
 0001:0000b5a0       ?setPxSimulationStatisticsGpuMemFEMCloths@@YAXPEAVPxSimulationStatistics@physx@@_K@Z 000000018000c5a0 f i PxAutoGeneratedMetaDataObjects.obj
 0001:0000b5b0       ?setName@NpArticulationReducedCoordinate@physx@@UEAAXPEBD@Z 000000018000c5b0 f i NpArticulationReducedCoordinate.obj
 0001:0000b5b0       ?setPxSimulationStatisticsGpuMemHairSystems@@YAXPEAVPxSimulationStatistics@physx@@_K@Z 000000018000c5b0 f i PxAutoGeneratedMetaDataObjects.obj
 0001:0000b5c0       ?setPxSimulationStatisticsGpuMemHeap@@YAXPEAVPxSimulationStatistics@physx@@_K@Z 000000018000c5c0 f i PxAutoGeneratedMetaDataObjects.obj
 0001:0000b5d0       ?setPxSimulationStatisticsGpuMemHeapBroadPhase@@YAXPEAVPxSimulationStatistics@physx@@_K@Z 000000018000c5d0 f i PxAutoGeneratedMetaDataObjects.obj
 0001:0000b5e0       ?setPxSimulationStatisticsGpuMemHeapFEMCloths@@YAXPEAVPxSimulationStatistics@physx@@_K@Z 000000018000c5e0 f i PxAutoGeneratedMetaDataObjects.obj
 0001:0000b5f0       ?setPxSimulationStatisticsGpuMemHeapHairSystems@@YAXPEAVPxSimulationStatistics@physx@@_K@Z 000000018000c5f0 f i PxAutoGeneratedMetaDataObjects.obj
 0001:0000b600       ?setPxSimulationStatisticsGpuMemHeapNarrowPhase@@YAXPEAVPxSimulationStatistics@physx@@_K@Z 000000018000c600 f i PxAutoGeneratedMetaDataObjects.obj
 0001:0000b610       ?setPxSimulationStatisticsGpuMemHeapOther@@YAXPEAVPxSimulationStatistics@physx@@_K@Z 000000018000c610 f i PxAutoGeneratedMetaDataObjects.obj
 0001:0000b620       ?setPxSimulationStatisticsGpuMemHeapParticles@@YAXPEAVPxSimulationStatistics@physx@@_K@Z 000000018000c620 f i PxAutoGeneratedMetaDataObjects.obj
 0001:0000b630       ?setPxSimulationStatisticsGpuMemHeapSimulationArticulation@@YAXPEAVPxSimulationStatistics@physx@@_K@Z 000000018000c630 f i PxAutoGeneratedMetaDataObjects.obj
 0001:0000b640       ?setPxSimulationStatisticsGpuMemHeapSimulationFEMCloth@@YAXPEAVPxSimulationStatistics@physx@@_K@Z 000000018000c640 f i PxAutoGeneratedMetaDataObjects.obj
 0001:0000b650       ?setPxSimulationStatisticsGpuMemHeapSimulationHairSystem@@YAXPEAVPxSimulationStatistics@physx@@_K@Z 000000018000c650 f i PxAutoGeneratedMetaDataObjects.obj
 0001:0000b660       ?setPxSimulationStatisticsGpuMemHeapSimulationParticles@@YAXPEAVPxSimulationStatistics@physx@@_K@Z 000000018000c660 f i PxAutoGeneratedMetaDataObjects.obj
 0001:0000b670       ?setPxSimulationStatisticsGpuMemHeapSimulationSoftBody@@YAXPEAVPxSimulationStatistics@physx@@_K@Z 000000018000c670 f i PxAutoGeneratedMetaDataObjects.obj
 0001:0000b680       ?setPxSimulationStatisticsGpuMemHeapSoftBodies@@YAXPEAVPxSimulationStatistics@physx@@_K@Z 000000018000c680 f i PxAutoGeneratedMetaDataObjects.obj
 0001:0000b690       ?setPxSimulationStatisticsGpuMemParticles@@YAXPEAVPxSimulationStatistics@physx@@_K@Z 000000018000c690 f i PxAutoGeneratedMetaDataObjects.obj
 0001:0000b6a0       ?setPxSimulationStatisticsGpuMemSoftBodies@@YAXPEAVPxSimulationStatistics@physx@@_K@Z 000000018000c6a0 f i PxAutoGeneratedMetaDataObjects.obj
 0001:0000b6b0       ?setPxSimulationStatisticsNbAggregates@@YAXPEAVPxSimulationStatistics@physx@@I@Z 000000018000c6b0 f i PxAutoGeneratedMetaDataObjects.obj
 0001:0000b6c0       ?setPxSimulationStatisticsNbArticulations@@YAXPEAVPxSimulationStatistics@physx@@I@Z 000000018000c6c0 f i PxAutoGeneratedMetaDataObjects.obj
 0001:0000b6d0       ?setPxSimulationStatisticsNbAxisSolverConstraints@@YAXPEAVPxSimulationStatistics@physx@@I@Z 000000018000c6d0 f i PxAutoGeneratedMetaDataObjects.obj
 0001:0000b6e0       ?setPxSimulationStatisticsNbBroadPhaseAdds@@YAXPEAVPxSimulationStatistics@physx@@I@Z 000000018000c6e0 f i PxAutoGeneratedMetaDataObjects.obj
 0001:0000b6f0       ?setPxSimulationStatisticsNbBroadPhaseRemoves@@YAXPEAVPxSimulationStatistics@physx@@I@Z 000000018000c6f0 f i PxAutoGeneratedMetaDataObjects.obj
 0001:0000b700       ?setPxSimulationStatisticsNbDiscreteContactPairsTotal@@YAXPEAVPxSimulationStatistics@physx@@I@Z 000000018000c700 f i PxAutoGeneratedMetaDataObjects.obj
 0001:0000b710       ?setPxSimulationStatisticsNbDiscreteContactPairsWithCacheHits@@YAXPEAVPxSimulationStatistics@physx@@I@Z 000000018000c710 f i PxAutoGeneratedMetaDataObjects.obj
 0001:0000b720       ?setPxSimulationStatisticsNbDiscreteContactPairsWithContacts@@YAXPEAVPxSimulationStatistics@physx@@I@Z 000000018000c720 f i PxAutoGeneratedMetaDataObjects.obj
 0001:0000b730       ?setPxSimulationStatisticsNbLostTouches@@YAXPEAVPxSimulationStatistics@physx@@I@Z 000000018000c730 f i PxAutoGeneratedMetaDataObjects.obj
 0001:0000b740       ?setPxSimulationStatisticsNbPartitions@@YAXPEAVPxSimulationStatistics@physx@@I@Z 000000018000c740 f i PxAutoGeneratedMetaDataObjects.obj
 0001:0000b750       ?setPxSimulationStatisticsPeakConstraintMemory@@YAXPEAVPxSimulationStatistics@physx@@I@Z 000000018000c750 f i PxAutoGeneratedMetaDataObjects.obj
 0001:0000b760       ?setPxSimulationStatisticsRequiredContactConstraintMemory@@YAXPEAVPxSimulationStatistics@physx@@I@Z 000000018000c760 f i PxAutoGeneratedMetaDataObjects.obj
 0001:0000b770       ?setPxTriangleMeshGeometryMeshFlags@@YAXPEAVPxTriangleMeshGeometry@physx@@V?$PxFlags@W4Enum@PxMeshGeometryFlag@physx@@E@2@@Z 000000018000c770 f i PxAutoGeneratedMetaDataObjects.obj
 0001:0000b780       ?setPxgDynamicsMemoryConfigCollisionStackSize@@YAXPEAUPxgDynamicsMemoryConfig@physx@@I@Z 000000018000c780 f i PxAutoGeneratedMetaDataObjects.obj
 0001:0000b790       ?setPxgDynamicsMemoryConfigMaxHairContacts@@YAXPEAUPxgDynamicsMemoryConfig@physx@@I@Z 000000018000c790 f i PxAutoGeneratedMetaDataObjects.obj
 0001:0000b7a0       ?setPxgDynamicsMemoryConfigMaxParticleContacts@@YAXPEAUPxgDynamicsMemoryConfig@physx@@I@Z 000000018000c7a0 f i PxAutoGeneratedMetaDataObjects.obj
 0001:0000b7b0       ??0NbCCDPairsProperty@physx@@QEAA@XZ 000000018000c7b0 f   PxMetaDataObjects.obj
 0001:0000b7e0       ??0NbDiscreteContactPairsProperty@physx@@QEAA@XZ 000000018000c7e0 f   PxMetaDataObjects.obj
 0001:0000b810       ??0NbModifiedContactPairsProperty@physx@@QEAA@XZ 000000018000c810 f   PxMetaDataObjects.obj
 0001:0000b840       ??0NbShapesProperty@physx@@QEAA@XZ 000000018000c840 f   PxMetaDataObjects.obj
 0001:0000b870       ??0NbTriggerPairsProperty@physx@@QEAA@XZ 000000018000c870 f   PxMetaDataObjects.obj
 0001:0000b8a0       ??0PxCustomGeometryCustomTypeProperty@physx@@QEAA@XZ 000000018000c8a0 f   PxMetaDataObjects.obj
 0001:0000b8c0       ??0SimulationStatisticsProperty@physx@@QEAA@XZ 000000018000c8c0 f   PxMetaDataObjects.obj
 0001:0000b8e0       ?GetCustomType@@YAIPEBVPxCustomGeometry@physx@@@Z 000000018000c8e0 f i PxMetaDataObjects.obj
 0001:0000b900       ?GetNbCCDPairs@@YAIPEBVPxSimulationStatistics@physx@@W4Enum@PxGeometryType@2@1@Z 000000018000c900 f i PxMetaDataObjects.obj
 0001:0000b920       ?GetNbDiscreteContactPairs@@YAIPEBVPxSimulationStatistics@physx@@W4Enum@PxGeometryType@2@1@Z 000000018000c920 f i PxMetaDataObjects.obj
 0001:0000b940       ?GetNbModifiedContactPairs@@YAIPEBVPxSimulationStatistics@physx@@W4Enum@PxGeometryType@2@1@Z 000000018000c940 f i PxMetaDataObjects.obj
 0001:0000b960       ?GetNbShape@@YAIPEBVPxSimulationStatistics@physx@@W4Enum@PxGeometryType@2@@Z 000000018000c960 f i PxMetaDataObjects.obj
 0001:0000b970       ?GetNbTriggerPairs@@YAIPEBVPxSimulationStatistics@physx@@W4Enum@PxGeometryType@2@1@Z 000000018000c970 f i PxMetaDataObjects.obj
 0001:0000b990       ?GetStats@@YA?AVPxSimulationStatistics@physx@@PEBVPxScene@2@@Z 000000018000c990 f i PxMetaDataObjects.obj
 0001:0000b9d0       ?SetNbCCDPairs@@YAXPEAVPxSimulationStatistics@physx@@W4Enum@PxGeometryType@2@1I@Z 000000018000c9d0 f i PxMetaDataObjects.obj
 0001:0000b9f0       ?SetNbDiscreteContactPairs@@YAXPEAVPxSimulationStatistics@physx@@W4Enum@PxGeometryType@2@1I@Z 000000018000c9f0 f i PxMetaDataObjects.obj
 0001:0000ba10       ?SetNbModifiedContactPairs@@YAXPEAVPxSimulationStatistics@physx@@W4Enum@PxGeometryType@2@1I@Z 000000018000ca10 f i PxMetaDataObjects.obj
 0001:0000ba30       ?SetNbShape@@YAXPEAVPxSimulationStatistics@physx@@W4Enum@PxGeometryType@2@I@Z 000000018000ca30 f i PxMetaDataObjects.obj
 0001:0000ba40       ?SetNbTriggerPairs@@YAXPEAVPxSimulationStatistics@physx@@W4Enum@PxGeometryType@2@1I@Z 000000018000ca40 f i PxMetaDataObjects.obj
 0001:0000ba60       ?createLink@PxArticulationReducedCoordinateLinkCollectionPropHelper@physx@@QEBAPEAVPxArticulationLink@2@PEAVPxArticulationReducedCoordinate@2@PEAV32@AEBV?$PxTransformT@M@2@@Z 000000018000ca60 f   PxMetaDataObjects.obj
 0001:0000ba80       ?createShape@PxRigidActorShapeCollectionHelper@physx@@QEBAPEAVPxShape@2@PEAVPxRigidActor@2@AEBVPxGeometry@2@AEAVPxMaterial@2@V?$PxFlags@W4Enum@PxShapeFlag@physx@@E@2@@Z 000000018000ca80 f   PxMetaDataObjects.obj
 0001:0000bb00       ?createShape@PxRigidActorShapeCollectionHelper@physx@@QEBAPEAVPxShape@2@PEAVPxRigidActor@2@AEBVPxGeometry@2@PEBQEAVPxMaterial@2@GV?$PxFlags@W4Enum@PxShapeFlag@physx@@E@2@@Z 000000018000cb00 f   PxMetaDataObjects.obj
 0001:0000bb90       ?getGeometry@PxShapeGeomPropertyHelper@physx@@QEBA_NPEBVPxShape@2@AEAVPxBoxGeometry@2@@Z 000000018000cb90 f   PxMetaDataObjects.obj
 0001:0000bbd0       ?getGeometry@PxShapeGeomPropertyHelper@physx@@QEBA_NPEBVPxShape@2@AEAVPxCapsuleGeometry@2@@Z 000000018000cbd0 f   PxMetaDataObjects.obj
 0001:0000bc10       ?getGeometry@PxShapeGeomPropertyHelper@physx@@QEBA_NPEBVPxShape@2@AEAVPxConvexMeshGeometry@2@@Z 000000018000cc10 f   PxMetaDataObjects.obj
 0001:0000bc80       ?getGeometry@PxShapeGeomPropertyHelper@physx@@QEBA_NPEBVPxShape@2@AEAVPxHeightFieldGeometry@2@@Z 000000018000cc80 f   PxMetaDataObjects.obj
 0001:0000bcd0       ?getGeometry@PxShapeGeomPropertyHelper@physx@@QEBA_NPEBVPxShape@2@AEAVPxParticleSystemGeometry@2@@Z 000000018000ccd0 f   PxMetaDataObjects.obj
 0001:0000bd10       ?getGeometry@PxShapeGeomPropertyHelper@physx@@QEBA_NPEBVPxShape@2@AEAVPxPlaneGeometry@2@@Z 000000018000cd10 f   PxMetaDataObjects.obj
 0001:0000bd40       ?getGeometry@PxShapeGeomPropertyHelper@physx@@QEBA_NPEBVPxShape@2@AEAVPxSphereGeometry@2@@Z 000000018000cd40 f   PxMetaDataObjects.obj
 0001:0000bd80       ?getGeometry@PxShapeGeomPropertyHelper@physx@@QEBA_NPEBVPxShape@2@AEAVPxTetrahedronMeshGeometry@2@@Z 000000018000cd80 f   PxMetaDataObjects.obj
 0001:0000bdc0       ?getGeometry@PxShapeGeomPropertyHelper@physx@@QEBA_NPEBVPxShape@2@AEAVPxTriangleMeshGeometry@2@@Z 000000018000cdc0 f   PxMetaDataObjects.obj
 0001:0000be30       ?getGeometryType@PxShapeGeomPropertyHelper@physx@@QEBA?AW4Enum@PxGeometryType@2@PEBVPxShape@2@@Z 000000018000ce30 f   PxMetaDataObjects.obj
 0001:0000be50       ?setMaterials@PxShapeMaterialsPropertyHelper@physx@@QEBAXPEAVPxShape@2@PEBQEAVPxMaterial@2@G@Z 000000018000ce50 f   PxMetaDataObjects.obj
 0001:0000be70       ??0NpActor@physx@@QEAA@W4Enum@NpType@1@@Z 000000018000ce70 f   NpActor.obj
 0001:0000be90       ??4PxFPUGuard@physx@@QEAAAEAV01@AEBV01@@Z 000000018000ce90 f i NpActor.obj
 0001:0000beb0       ??4PxPartitionedParticleCloth@physx@@QEAAAEAU01@AEBU01@@Z 000000018000ceb0 f i NpActor.obj
 0001:0000bee0       ?addConnector@NpActor@physx@@QEAAXW4Enum@NpConnectorType@2@PEAVPxBase@2@PEBD@Z 000000018000cee0 f   NpActor.obj
 0001:0000c030       ?addConstraintsToSceneInternal@NpActor@physx@@AEAAXXZ 000000018000d030 f   NpActor.obj
 0001:0000c0c0       ?allocate@?$PxArray@VNpConnector@physx@@V?$PxInlineAllocator@$0EA@V?$PxReflectionAllocator@VNpConnector@physx@@@physx@@@2@@physx@@IEAAPEAVNpConnector@2@I@Z 000000018000d0c0 f i NpActor.obj
 0001:0000c170       ?exportExtraData@NpActor@physx@@QEAAXAEAVPxSerializationContext@2@@Z 000000018000d170 f   NpActor.obj
 0001:0000c350       ?findConnector@NpActor@physx@@QEBAIW4Enum@NpConnectorType@2@PEAVPxBase@2@@Z 000000018000d350 f   NpActor.obj
 0001:0000c3a0       ?getAggregate@NpActor@physx@@QEBAPEAVPxAggregate@2@XZ 000000018000d3a0 f   NpActor.obj
 0001:0000c3e0       ?getBodyCore@physx@@YAPEBVBodyCore@Sc@1@PEBVPxRigidActor@1@@Z 000000018000d3e0 f   NpActor.obj
 0001:0000c400       ?getNbConnectors@NpActor@physx@@QEBAIW4Enum@NpConnectorType@2@@Z 000000018000d400 f   NpActor.obj
 0001:0000c440       ?getNpAggregate@NpActor@physx@@QEBAPEAVNpAggregate@2@AEAI@Z 000000018000d440 f   NpActor.obj
 0001:0000c480       ?getShapeManager_@NpActor@physx@@SAPEAVNpShapeManager@2@AEAVPxRigidActor@2@@Z 000000018000d480 f   NpActor.obj
 0001:0000c4a0       ?growAndPushBack@?$PxArray@VNpConnector@physx@@V?$PxInlineAllocator@$0EA@V?$PxReflectionAllocator@VNpConnector@physx@@@physx@@@2@@physx@@IEAAAEAVNpConnector@2@AEBV32@@Z 000000018000d4a0 f i NpActor.obj
 0001:0000c580       ?importExtraData@NpActor@physx@@QEAAXAEAVPxDeserializationContext@2@@Z 000000018000d580 f   NpActor.obj
 0001:0000c620       ?onActorRelease@NpActor@physx@@SAXPEAVPxActor@2@@Z 000000018000d620 f   NpActor.obj
 0001:0000c630       ?recreate@?$PxArray@VNpConnector@physx@@V?$PxInlineAllocator@$0EA@V?$PxReflectionAllocator@VNpConnector@physx@@@physx@@@2@@physx@@IEAAXI@Z 000000018000d630 f i NpActor.obj
 0001:0000c6d0       ?removeConnector@NpActor@physx@@AEAAXAEAVPxActor@2@I@Z 000000018000d6d0 f   NpActor.obj
 0001:0000c730       ?removeConnector@NpActor@physx@@QEAAXAEAVPxActor@2@W4Enum@NpConnectorType@2@PEAVPxBase@2@PEBD@Z 000000018000d730 f   NpActor.obj
 0001:0000c7e0       ?removeConstraints@NpActor@physx@@QEAAXAEAVPxRigidActor@2@@Z 000000018000d7e0 f   NpActor.obj
 0001:0000c8d0       ?removeConstraintsFromScene@NpActor@physx@@QEAAXXZ 000000018000d8d0 f   NpActor.obj
 0001:0000c940       ?removeFromAggregate@NpActor@physx@@QEAAXAEAVPxActor@2@@Z 000000018000d940 f   NpActor.obj
 0001:0000c960       ?resizeUninitialized@?$PxArray@VNpConnector@physx@@V?$PxInlineAllocator@$0EA@V?$PxReflectionAllocator@VNpConnector@physx@@@physx@@@2@@physx@@QEAAXI@Z 000000018000d960 f i NpActor.obj
 0001:0000c9a0       ?resolveReferences@NpActor@physx@@QEAAXAEAVPxDeserializationContext@2@@Z 000000018000d9a0 f   NpActor.obj
 0001:0000ca30       ?scSetDominanceGroup@NpActor@physx@@QEAAXE@Z 000000018000da30 f   NpActor.obj
 0001:0000ca50       ?scSetOwnerClient@NpActor@physx@@QEAAXE@Z 000000018000da50 f   NpActor.obj
 0001:0000ca80       ?setAggregate@NpActor@physx@@QEAAXPEAVNpAggregate@2@AEAVPxActor@2@@Z 000000018000da80 f   NpActor.obj
 0001:0000cc70       ??0NpAggregate@physx@@QEAA@III@Z 000000018000dc70 f   NpAggregate.obj
 0001:0000cd20       ??_ENpAggregate@physx@@UEAAPEAXI@Z 000000018000dd20 f i NpAggregate.obj
 0001:0000cd20       ??_GNpAggregate@physx@@UEAAPEAXI@Z 000000018000dd20 f i NpAggregate.obj
 0001:0000cdd0       ??_EPxBase@physx@@MEAAPEAXI@Z 000000018000ddd0 f i NpAggregate.obj
 0001:0000cdd0       ??_GPxBase@physx@@MEAAPEAXI@Z 000000018000ddd0 f i NpAggregate.obj
 0001:0000ce00       ?addActor@NpAggregate@physx@@UEAA_NAEAVPxActor@2@PEBVPxBVH@2@@Z 000000018000de00 f   NpAggregate.obj
 0001:0000d070       ?addActorInternal@NpAggregate@physx@@AEAAXAEAVPxActor@2@AEAVNpScene@2@PEBVPxBVH@2@@Z 000000018000e070 f   NpAggregate.obj
 0001:0000d1a0       ?addArticulation@NpAggregate@physx@@UEAA_NAEAVPxArticulationReducedCoordinate@2@@Z 000000018000e1a0 f   NpAggregate.obj
 0001:0000d3d0       ?addToScene@NpAggregate@physx@@QEAAXAEAVNpScene@2@@Z 000000018000e3d0 f   NpAggregate.obj
 0001:0000d500       ?createObject@NpAggregate@physx@@SAPEAV12@AEAPEAEAEAVPxDeserializationContext@2@@Z 000000018000e500 f   NpAggregate.obj
 0001:0000d660       ?decShapeCount@NpAggregate@physx@@QEAAXXZ 000000018000e660 f   NpAggregate.obj
 0001:0000d670       ?erase@?$PxHashBase@PEAVArticulationCore@Sc@physx@@PEAV123@U?$PxHash@PEAVArticulationCore@Sc@physx@@@3@UGetKey@?$PxHashSetBase@PEAVArticulationCore@Sc@physx@@U?$PxHash@PEAVArticulationCore@Sc@physx@@@3@VPxAllocator@3@$00@3@VPxAllocator@3@$00@physx@@QEAA_NAEBQEAVArticulationCore@Sc@2@@Z 000000018000e670 f i SimulationController_static_64:ScScene.obj
 0001:0000d670       ?erase@?$PxHashBase@PEAVArticulationSim@Sc@physx@@PEAV123@U?$PxHash@PEAVArticulationSim@Sc@physx@@@3@UGetKey@?$PxHashSetBase@PEAVArticulationSim@Sc@physx@@U?$PxHash@PEAVArticulationSim@Sc@physx@@@3@VPxAllocator@3@$00@3@VPxAllocator@3@$00@physx@@QEAA_NAEBQEAVArticulationSim@Sc@2@@Z 000000018000e670 f i SimulationController_static_64:ScScene.obj
 0001:0000d670       ?erase@?$PxHashBase@PEAVBodyCore@Sc@physx@@PEAV123@U?$PxHash@PEAVBodyCore@Sc@physx@@@3@UGetKey@?$PxHashSetBase@PEAVBodyCore@Sc@physx@@U?$PxHash@PEAVBodyCore@Sc@physx@@@3@VPxAllocator@3@$00@3@VPxAllocator@3@$00@physx@@QEAA_NAEBQEAVBodyCore@Sc@2@@Z 000000018000e670 f i SimulationController_static_64:ScScene.obj
 0001:0000d670       ?erase@?$PxHashBase@PEAVConstraintCore@Sc@physx@@PEAV123@U?$PxHash@PEAVConstraintCore@Sc@physx@@@3@UGetKey@?$PxHashSetBase@PEAVConstraintCore@Sc@physx@@U?$PxHash@PEAVConstraintCore@Sc@physx@@@3@VPxAllocator@3@$00@3@VPxAllocator@3@$00@physx@@QEAA_NAEBQEAVConstraintCore@Sc@2@@Z 000000018000e670 f i SimulationController_static_64:ScScene.obj
 0001:0000d670       ?erase@?$PxHashBase@PEAVConstraintSim@Sc@physx@@PEAV123@U?$PxHash@PEAVConstraintSim@Sc@physx@@@3@UGetKey@?$PxHashSetBase@PEAVConstraintSim@Sc@physx@@U?$PxHash@PEAVConstraintSim@Sc@physx@@@3@VPxAllocator@3@$00@3@VPxAllocator@3@$00@physx@@QEAA_NAEBQEAVConstraintSim@Sc@2@@Z 000000018000e670 f i SimulationController_static_64:ScConstraintBreakage.obj
 0001:0000d670       ?erase@?$PxHashBase@PEAVHairSystemCore@Sc@physx@@PEAV123@U?$PxHash@PEAVHairSystemCore@Sc@physx@@@3@UGetKey@?$PxHashSetBase@PEAVHairSystemCore@Sc@physx@@U?$PxHash@PEAVHairSystemCore@Sc@physx@@@3@VPxAllocator@3@$00@3@VPxAllocator@3@$00@physx@@QEAA_NAEBQEAVHairSystemCore@Sc@2@@Z 000000018000e670 f i SimulationController_static_64:ScScene.obj
 0001:0000d670       ?erase@?$PxHashBase@PEAVInteraction@Sc@physx@@PEAV123@U?$PxHash@PEAVInteraction@Sc@physx@@@3@UGetKey@?$PxHashSetBase@PEAVInteraction@Sc@physx@@U?$PxHash@PEAVInteraction@Sc@physx@@@3@VPxAllocator@3@$00@3@VPxAllocator@3@$00@physx@@QEAA_NAEBQEAVInteraction@Sc@2@@Z 000000018000e670 f i SimulationController_static_64:ScNPhaseCore.obj
 0001:0000d670       ?erase@?$PxHashBase@PEAVParticleSystemCore@Sc@physx@@PEAV123@U?$PxHash@PEAVParticleSystemCore@Sc@physx@@@3@UGetKey@?$PxHashSetBase@PEAVParticleSystemCore@Sc@physx@@U?$PxHash@PEAVParticleSystemCore@Sc@physx@@@3@VPxAllocator@3@$00@3@VPxAllocator@3@$00@physx@@QEAA_NAEBQEAVParticleSystemCore@Sc@2@@Z 000000018000e670 f i SimulationController_static_64:ScScene.obj
 0001:0000d670       ?erase@?$PxHashBase@PEAVPxAggregate@physx@@PEAV12@U?$PxHash@PEAVPxAggregate@physx@@@2@UGetKey@?$PxHashSetBase@PEAVPxAggregate@physx@@U?$PxHash@PEAVPxAggregate@physx@@@2@VPxAllocator@2@$00@2@VPxAllocator@2@$00@physx@@QEAA_NAEBQEAVPxAggregate@2@@Z 000000018000e670 f i NpAggregate.obj
 0001:0000d670       ?erase@?$PxHashBase@PEAVPxArticulationReducedCoordinate@physx@@PEAV12@U?$PxHash@PEAVPxArticulationReducedCoordinate@physx@@@2@UGetKey@?$PxHashSetBase@PEAVPxArticulationReducedCoordinate@physx@@U?$PxHash@PEAVPxArticulationReducedCoordinate@physx@@@2@VPxAllocator@2@$00@2@VPxAllocator@2@$00@physx@@QEAA_NAEBQEAVPxArticulationReducedCoordinate@2@@Z 000000018000e670 f i NpScene.obj
 0001:0000d670       ?erase@?$PxHashBase@PEAVPxPBDParticleSystem@physx@@PEAV12@U?$PxHash@PEAVPxPBDParticleSystem@physx@@@2@UGetKey@?$PxHashSetBase@PEAVPxPBDParticleSystem@physx@@U?$PxHash@PEAVPxPBDParticleSystem@physx@@@2@VPxAllocator@2@$00@2@VPxAllocator@2@$00@physx@@QEAA_NAEBQEAVPxPBDParticleSystem@2@@Z 000000018000e670 f i NpParticleSystem.obj
 0001:0000d670       ?erase@?$PxHashBase@PEAVPxShape@physx@@PEAV12@U?$PxHash@PEAVPxShape@physx@@@2@UGetKey@?$PxHashSetBase@PEAVPxShape@physx@@U?$PxHash@PEAVPxShape@physx@@@2@VPxAllocator@2@$00@2@VPxAllocator@2@$00@physx@@QEAA_NAEBQEAVPxShape@2@@Z 000000018000e670 f i NpFactory.obj
 0001:0000d670       ?erase@?$PxHashBase@PEAVPxSoftBody@physx@@PEAV12@U?$PxHash@PEAVPxSoftBody@physx@@@2@UGetKey@?$PxHashSetBase@PEAVPxSoftBody@physx@@U?$PxHash@PEAVPxSoftBody@physx@@@2@VPxAllocator@2@$00@2@VPxAllocator@2@$00@physx@@QEAA_NAEBQEAVPxSoftBody@2@@Z 000000018000e670 f i NpSoftBody.obj
 0001:0000d670       ?erase@?$PxHashBase@PEAVSoftBodyCore@Sc@physx@@PEAV123@U?$PxHash@PEAVSoftBodyCore@Sc@physx@@@3@UGetKey@?$PxHashSetBase@PEAVSoftBodyCore@Sc@physx@@U?$PxHash@PEAVSoftBodyCore@Sc@physx@@@3@VPxAllocator@3@$00@3@VPxAllocator@3@$00@physx@@QEAA_NAEBQEAVSoftBodyCore@Sc@2@@Z 000000018000e670 f i SimulationController_static_64:ScScene.obj
 0001:0000d670       ?erase@?$PxHashBase@PEBVBodySim@Sc@physx@@PEBV123@U?$PxHash@PEBVBodySim@Sc@physx@@@3@UGetKey@?$PxHashSetBase@PEBVBodySim@Sc@physx@@U?$PxHash@PEBVBodySim@Sc@physx@@@3@VPxAllocator@3@$00@3@VPxAllocator@3@$00@physx@@QEAA_NAEBQEBVBodySim@Sc@2@@Z 000000018000e670 f i SimulationController_static_64:ScScene.obj
 0001:0000d7f0       ?exportExtraData@NpAggregate@physx@@UEAAXAEAVPxSerializationContext@2@@Z 000000018000e7f0 f   NpAggregate.obj
 0001:0000d840       ?getActors@NpAggregate@physx@@UEBAIPEAPEAVPxActor@2@II@Z 000000018000e840 f   NpAggregate.obj
 0001:0000d890       ?getConcreteTypeName@PxAggregate@physx@@UEBAPEBDXZ 000000018000e890 f i NpAggregate.obj
 0001:0000d8a0       ?getMaxNbShapes@NpAggregate@physx@@UEBAIXZ 000000018000e8a0 f   NpAggregate.obj
 0001:0000d8a0       ?getNbTriangles@RenderBuffer@Cm@physx@@UEBAIXZ 000000018000e8a0 f   NpScene.obj
 0001:0000d8b0       ?getNbActors@NpAggregate@physx@@UEBAIXZ 000000018000e8b0 f   NpAggregate.obj
 0001:0000d8c0       ?getLines@RenderBuffer@Cm@physx@@UEBAPEBUPxDebugLine@3@XZ 000000018000e8c0 f   NpScene.obj
 0001:0000d8c0       ?getScene@?$NpActorTemplate@VPxArticulationLink@physx@@@physx@@UEBAPEAVPxScene@2@XZ 000000018000e8c0 f   NpArticulationLink.obj
 0001:0000d8c0       ?getScene@?$NpActorTemplate@VPxPBDParticleSystem@physx@@@physx@@UEBAPEAVPxScene@2@XZ 000000018000e8c0 f   NpParticleSystem.obj
 0001:0000d8c0       ?getScene@?$NpActorTemplate@VPxRigidDynamic@physx@@@physx@@UEBAPEAVPxScene@2@XZ 000000018000e8c0 f   NpRigidDynamic.obj
 0001:0000d8c0       ?getScene@?$NpActorTemplate@VPxRigidStatic@physx@@@physx@@UEBAPEAVPxScene@2@XZ 000000018000e8c0 f   NpRigidStatic.obj
 0001:0000d8c0       ?getScene@?$NpActorTemplate@VPxSoftBody@physx@@@physx@@UEBAPEAVPxScene@2@XZ 000000018000e8c0 f   NpSoftBody.obj
 0001:0000d8c0       ?getScene@NpAggregate@physx@@UEAAPEAVPxScene@2@XZ 000000018000e8c0 f   NpAggregate.obj
 0001:0000d8c0       ?getScene@NpArticulationReducedCoordinate@physx@@UEBAPEAVPxScene@2@XZ 000000018000e8c0 f   NpArticulationReducedCoordinate.obj
 0001:0000d8c0       ?getScene@NpConstraint@physx@@UEBAPEAVPxScene@2@XZ 000000018000e8c0 f   NpConstraint.obj
 0001:0000d8d0       ?getSelfCollision@NpAggregate@physx@@UEBA_NXZ 000000018000e8d0 f   NpAggregate.obj
 0001:0000d8e0       ?incShapeCount@NpAggregate@physx@@QEAAXXZ 000000018000e8e0 f   NpAggregate.obj
 0001:0000d920       ?isKindOf@PxAggregate@physx@@MEBA_NPEBD@Z 000000018000e920 f i NpAggregate.obj
 0001:0000d970       ?isKindOf@PxBase@physx@@MEBA_NPEBD@Z 000000018000e970 f i NpAggregate.obj
 0001:0000d9a0       ?isReleasable@PxBase@physx@@UEBA_NXZ 000000018000e9a0 f i NpAggregate.obj
 0001:0000d9b0       ?preExportDataReset@NpAggregate@physx@@QEAAXXZ 000000018000e9b0 f   NpAggregate.obj
 0001:0000d9c0       ?release@NpAggregate@physx@@UEAAXXZ 000000018000e9c0 f   NpAggregate.obj
 0001:0000db50       ?removeActor@NpAggregate@physx@@UEAA_NAEAVPxActor@2@@Z 000000018000eb50 f   NpAggregate.obj
 0001:0000dd90       ?removeActorAndReinsert@NpAggregate@physx@@QEAA_NAEAVPxActor@2@_N@Z 000000018000ed90 f   NpAggregate.obj
 0001:0000deb0       ?removeAndReinsert@NpAggregate@physx@@AEAAXAEAVPxActor@2@_N@Z 000000018000eeb0 f   NpAggregate.obj
 0001:0000df30       ?removeArticulation@NpAggregate@physx@@UEAA_NAEAVPxArticulationReducedCoordinate@2@@Z 000000018000ef30 f   NpAggregate.obj
 0001:0000e0e0       ?removeArticulationAndReinsert@NpAggregate@physx@@QEAA_NAEAVPxArticulationReducedCoordinate@2@_N@Z 000000018000f0e0 f   NpAggregate.obj
 0001:0000e1d0       ?requiresObjects@NpAggregate@physx@@UEAAXAEAVPxProcessPxBaseCallback@2@@Z 000000018000f1d0 f   NpAggregate.obj
 0001:0000e240       ?scRemoveActor@NpAggregate@physx@@QEAAXAEAVNpActor@2@_N@Z 000000018000f240 f   NpAggregate.obj
 0001:0000e280       ??0NpSoftBody@physx@@QEAA@AEAVPxCudaContextManager@1@@Z 000000018000f280 f   NpSoftBody.obj
 0001:0000e2f0       ??_E?$NpActorTemplate@VPxSoftBody@physx@@@physx@@UEAAPEAXI@Z 000000018000f2f0 f i NpSoftBody.obj
 0001:0000e2f0       ??_G?$NpActorTemplate@VPxSoftBody@physx@@@physx@@UEAAPEAXI@Z 000000018000f2f0 f i NpSoftBody.obj
 0001:0000e370       ??_ENpSoftBody@physx@@UEAAPEAXI@Z 000000018000f370 f i NpSoftBody.obj
 0001:0000e370       ??_GNpSoftBody@physx@@UEAAPEAXI@Z 000000018000f370 f i NpSoftBody.obj
 0001:0000e400       ??_EPxArticulationLink@physx@@MEAAPEAXI@Z 000000018000f400 f i NpArticulationLink.obj
 0001:0000e400       ??_EPxPBDParticleSystem@physx@@UEAAPEAXI@Z 000000018000f400 f i NpParticleSystem.obj
 0001:0000e400       ??_EPxRigidDynamic@physx@@MEAAPEAXI@Z 000000018000f400 f i NpRigidDynamic.obj
 0001:0000e400       ??_EPxRigidStatic@physx@@MEAAPEAXI@Z 000000018000f400 f i NpRigidStatic.obj
 0001:0000e400       ??_EPxSoftBody@physx@@UEAAPEAXI@Z 000000018000f400 f i NpSoftBody.obj
 0001:0000e400       ??_GPxArticulationLink@physx@@MEAAPEAXI@Z 000000018000f400 f i NpArticulationLink.obj
 0001:0000e400       ??_GPxPBDParticleSystem@physx@@UEAAPEAXI@Z 000000018000f400 f i NpParticleSystem.obj
 0001:0000e400       ??_GPxRigidDynamic@physx@@MEAAPEAXI@Z 000000018000f400 f i NpRigidDynamic.obj
 0001:0000e400       ??_GPxRigidStatic@physx@@MEAAPEAXI@Z 000000018000f400 f i NpRigidStatic.obj
 0001:0000e400       ??_GPxSoftBody@physx@@UEAAPEAXI@Z 000000018000f400 f i NpSoftBody.obj
 0001:0000e430       ?addParticleAttachment@NpSoftBody@physx@@UEAAIPEAVPxPBDParticleSystem@2@PEBVPxParticleBuffer@2@IIAEBV?$PxVec4T@M@2@@Z 000000018000f430 f   NpSoftBody.obj
 0001:0000e4b0       ?addParticleFilter@NpSoftBody@physx@@UEAAXPEAVPxPBDParticleSystem@2@PEBVPxParticleBuffer@2@II@Z 000000018000f4b0 f   NpSoftBody.obj
 0001:0000e520       ?addRigidAttachment@NpSoftBody@physx@@UEAAIPEAVPxRigidActor@2@IAEBV?$PxVec3T@M@2@PEAUPxConeLimitedConstraint@2@@Z 000000018000f520 f   NpSoftBody.obj
 0001:0000e7c0       ?addRigidFilter@NpSoftBody@physx@@UEAAXPEAVPxRigidActor@2@I@Z 000000018000f7c0 f   NpSoftBody.obj
 0001:0000e840       ?addSoftBodyAttachment@NpSoftBody@physx@@UEAAIPEAVPxSoftBody@2@IAEBV?$PxVec4T@M@2@I1PEAUPxConeLimitedConstraint@2@M@Z 000000018000f840 f   NpSoftBody.obj
 0001:0000e8a0       ?addSoftBodyFilter@NpSoftBody@physx@@UEAAXPEAVPxSoftBody@2@II@Z 000000018000f8a0 f   NpSoftBody.obj
 0001:0000e900       ?addSoftBodyFilters@NpSoftBody@physx@@UEAAXPEAVPxSoftBody@2@PEAI1I@Z 000000018000f900 f   NpSoftBody.obj
 0001:0000e960       ?addTetRigidAttachment@NpSoftBody@physx@@UEAAIPEAVPxRigidActor@2@IAEBV?$PxVec4T@M@2@AEBV?$PxVec3T@M@2@PEAUPxConeLimitedConstraint@2@@Z 000000018000f960 f   NpSoftBody.obj
 0001:0000ec10       ?addTetRigidFilter@NpSoftBody@physx@@UEAAXPEAVPxRigidActor@2@I@Z 000000018000fc10 f   NpSoftBody.obj
 0001:0000ec90       ?attachShape@NpSoftBody@physx@@UEAA_NAEAVPxShape@2@@Z 000000018000fc90 f   NpSoftBody.obj
 0001:0000ee40       ?attachSimulationMesh@NpSoftBody@physx@@UEAA_NAEAVPxTetrahedronMesh@2@AEAVPxSoftBodyAuxData@2@@Z 000000018000fe40 f   NpSoftBody.obj
 0001:0000eec0       ?detachShape@NpSoftBody@physx@@UEAAXXZ 000000018000fec0 f   NpSoftBody.obj
 0001:0000ef40       ?detachSimulationMesh@NpSoftBody@physx@@UEAAXXZ 000000018000ff40 f   NpSoftBody.obj
 0001:0000efc0       ?exportExtraData@?$NpActorTemplate@VPxArticulationLink@physx@@@physx@@UEAAXAEAVPxSerializationContext@2@@Z 000000018000ffc0 f i NpArticulationLink.obj
 0001:0000efc0       ?exportExtraData@?$NpActorTemplate@VPxPBDParticleSystem@physx@@@physx@@UEAAXAEAVPxSerializationContext@2@@Z 000000018000ffc0 f i NpParticleSystem.obj
 0001:0000efc0       ?exportExtraData@?$NpActorTemplate@VPxRigidDynamic@physx@@@physx@@UEAAXAEAVPxSerializationContext@2@@Z 000000018000ffc0 f i NpRigidDynamic.obj
 0001:0000efc0       ?exportExtraData@?$NpActorTemplate@VPxRigidStatic@physx@@@physx@@UEAAXAEAVPxSerializationContext@2@@Z 000000018000ffc0 f i NpRigidStatic.obj
 0001:0000efc0       ?exportExtraData@?$NpActorTemplate@VPxSoftBody@physx@@@physx@@UEAAXAEAVPxSerializationContext@2@@Z 000000018000ffc0 f i NpSoftBody.obj
 0001:0000efd0       ?getActorFlags@?$NpActorTemplate@VPxArticulationLink@physx@@@physx@@UEBA?AV?$PxFlags@W4Enum@PxActorFlag@physx@@E@2@XZ 000000018000ffd0 f i NpArticulationLink.obj
 0001:0000efd0       ?getActorFlags@?$NpActorTemplate@VPxPBDParticleSystem@physx@@@physx@@UEBA?AV?$PxFlags@W4Enum@PxActorFlag@physx@@E@2@XZ 000000018000ffd0 f i NpParticleSystem.obj
 0001:0000efd0       ?getActorFlags@?$NpActorTemplate@VPxRigidDynamic@physx@@@physx@@UEBA?AV?$PxFlags@W4Enum@PxActorFlag@physx@@E@2@XZ 000000018000ffd0 f i NpRigidDynamic.obj
 0001:0000efd0       ?getActorFlags@?$NpActorTemplate@VPxRigidStatic@physx@@@physx@@UEBA?AV?$PxFlags@W4Enum@PxActorFlag@physx@@E@2@XZ 000000018000ffd0 f i NpRigidStatic.obj
 0001:0000efd0       ?getActorFlags@?$NpActorTemplate@VPxSoftBody@physx@@@physx@@UEBA?AV?$PxFlags@W4Enum@PxActorFlag@physx@@E@2@XZ 000000018000ffd0 f i NpSoftBody.obj
 0001:0000eff0       ?getAggregate@?$NpActorTemplate@VPxArticulationLink@physx@@@physx@@UEBAPEAVPxAggregate@2@XZ 000000018000fff0 f i NpArticulationLink.obj
 0001:0000eff0       ?getAggregate@?$NpActorTemplate@VPxPBDParticleSystem@physx@@@physx@@UEBAPEAVPxAggregate@2@XZ 000000018000fff0 f i NpParticleSystem.obj
 0001:0000eff0       ?getAggregate@?$NpActorTemplate@VPxRigidDynamic@physx@@@physx@@UEBAPEAVPxAggregate@2@XZ 000000018000fff0 f i NpRigidDynamic.obj
 0001:0000eff0       ?getAggregate@?$NpActorTemplate@VPxRigidStatic@physx@@@physx@@UEBAPEAVPxAggregate@2@XZ 000000018000fff0 f i NpRigidStatic.obj
 0001:0000eff0       ?getAggregate@?$NpActorTemplate@VPxSoftBody@physx@@@physx@@UEBAPEAVPxAggregate@2@XZ 000000018000fff0 f i NpSoftBody.obj
 0001:0000f000       ?getCollisionMesh@NpSoftBody@physx@@UEAAPEAVPxTetrahedronMesh@2@XZ 0000000180010000 f   NpSoftBody.obj
 0001:0000f000       ?getCollisionMesh@NpSoftBody@physx@@UEBAPEBVPxTetrahedronMesh@2@XZ 0000000180010000 f   NpSoftBody.obj
 0001:0000f020       ?getConcreteTypeName@PxSoftBody@physx@@UEBAPEBDXZ 0000000180010020 f i NpSoftBody.obj
 0001:0000f030       ?getDominanceGroup@?$NpActorTemplate@VPxArticulationLink@physx@@@physx@@UEBAEXZ 0000000180010030 f i NpArticulationLink.obj
 0001:0000f030       ?getDominanceGroup@?$NpActorTemplate@VPxPBDParticleSystem@physx@@@physx@@UEBAEXZ 0000000180010030 f i NpParticleSystem.obj
 0001:0000f030       ?getDominanceGroup@?$NpActorTemplate@VPxRigidDynamic@physx@@@physx@@UEBAEXZ 0000000180010030 f i NpRigidDynamic.obj
 0001:0000f030       ?getDominanceGroup@?$NpActorTemplate@VPxRigidStatic@physx@@@physx@@UEBAEXZ 0000000180010030 f i NpRigidStatic.obj
 0001:0000f030       ?getDominanceGroup@?$NpActorTemplate@VPxSoftBody@physx@@@physx@@UEBAEXZ 0000000180010030 f i NpSoftBody.obj
 0001:0000f050       ?getGpuSoftBodyIndex@NpSoftBody@physx@@UEAAIXZ 0000000180010050 f   NpSoftBody.obj
 0001:0000f060       ?getOwnerClient@?$NpActorTemplate@VPxArticulationLink@physx@@@physx@@UEBAEXZ 0000000180010060 f i NpArticulationLink.obj
 0001:0000f060       ?getOwnerClient@?$NpActorTemplate@VPxPBDParticleSystem@physx@@@physx@@UEBAEXZ 0000000180010060 f i NpParticleSystem.obj
 0001:0000f060       ?getOwnerClient@?$NpActorTemplate@VPxRigidDynamic@physx@@@physx@@UEBAEXZ 0000000180010060 f i NpRigidDynamic.obj
 0001:0000f060       ?getOwnerClient@?$NpActorTemplate@VPxRigidStatic@physx@@@physx@@UEBAEXZ 0000000180010060 f i NpRigidStatic.obj
 0001:0000f060       ?getOwnerClient@?$NpActorTemplate@VPxSoftBody@physx@@@physx@@UEBAEXZ 0000000180010060 f i NpSoftBody.obj
 0001:0000f080       ?getParameter@NpSoftBody@physx@@UEBA?AUPxFEMParameters@2@XZ 0000000180010080 f   NpSoftBody.obj
 0001:0000f0a0       ?getSoftBodyFlag@NpSoftBody@physx@@UEBA?AV?$PxFlags@W4Enum@PxSoftBodyFlag@physx@@I@2@XZ 00000001800100a0 f   NpSoftBody.obj
 0001:0000f0b0       ?getSolverIterationCounts@NpSoftBody@physx@@UEBAXAEAI0@Z 00000001800100b0 f   NpSoftBody.obj
 0001:0000f0d0       ?getType@NpSoftBody@physx@@UEBA?AW4Enum@PxActorType@2@XZ 00000001800100d0 f i NpSoftBody.obj
 0001:0000f0e0       ?getWakeCounter@NpSoftBody@physx@@UEBAMXZ 00000001800100e0 f   NpSoftBody.obj
 0001:0000f0f0       ?getWorldBounds@NpSoftBody@physx@@UEBA?AVPxBounds3@2@M@Z 00000001800100f0 f   NpSoftBody.obj
 0001:0000f2e0       ?growAndPushBack@?$PxArray@GV?$PxReflectionAllocator@G@physx@@@physx@@IEAAAEAGAEBG@Z 00000001800102e0 f i NpSoftBody.obj
 0001:0000f3f0       ?importExtraData@?$NpActorTemplate@VPxArticulationLink@physx@@@physx@@UEAAXAEAVPxDeserializationContext@2@@Z 00000001800103f0 f i NpArticulationLink.obj
 0001:0000f3f0       ?importExtraData@?$NpActorTemplate@VPxPBDParticleSystem@physx@@@physx@@UEAAXAEAVPxDeserializationContext@2@@Z 00000001800103f0 f i NpParticleSystem.obj
 0001:0000f3f0       ?importExtraData@?$NpActorTemplate@VPxRigidDynamic@physx@@@physx@@UEAAXAEAVPxDeserializationContext@2@@Z 00000001800103f0 f i NpRigidDynamic.obj
 0001:0000f3f0       ?importExtraData@?$NpActorTemplate@VPxRigidStatic@physx@@@physx@@UEAAXAEAVPxDeserializationContext@2@@Z 00000001800103f0 f i NpRigidStatic.obj
 0001:0000f3f0       ?importExtraData@?$NpActorTemplate@VPxSoftBody@physx@@@physx@@UEAAXAEAVPxDeserializationContext@2@@Z 00000001800103f0 f i NpSoftBody.obj
 0001:0000f400       ?isKindOf@PxSoftBody@physx@@MEBA_NPEBD@Z 0000000180010400 f i NpSoftBody.obj
 0001:0000f490       ?isSleeping@NpSoftBody@physx@@UEBA_NXZ 0000000180010490 f   NpSoftBody.obj
 0001:0000f4a0       ?markDirty@NpSoftBody@physx@@UEAAXV?$PxFlags@W4Enum@PxSoftBodyDataFlag@physx@@I@2@@Z 00000001800104a0 f   NpSoftBody.obj
 0001:0000f4b0       ?release@NpSoftBody@physx@@UEAAXXZ 00000001800104b0 f   NpSoftBody.obj
 0001:0000f520       ?removeParticleAttachment@NpSoftBody@physx@@UEAAXPEAVPxPBDParticleSystem@2@I@Z 0000000180010520 f   NpSoftBody.obj
 0001:0000f580       ?removeParticleFilter@NpSoftBody@physx@@UEAAXPEAVPxPBDParticleSystem@2@PEBVPxParticleBuffer@2@II@Z 0000000180010580 f   NpSoftBody.obj
 0001:0000f5f0       ?removeRigidAttachment@NpSoftBody@physx@@UEAAXPEAVPxRigidActor@2@I@Z 00000001800105f0 f   NpSoftBody.obj
 0001:0000f670       ?removeRigidFilter@NpSoftBody@physx@@UEAAXPEAVPxRigidActor@2@I@Z 0000000180010670 f   NpSoftBody.obj
 0001:0000f6f0       ?removeSoftBodyAttachment@NpSoftBody@physx@@UEAAXPEAVPxSoftBody@2@I@Z 00000001800106f0 f   NpSoftBody.obj
 0001:0000f750       ?removeSoftBodyFilter@NpSoftBody@physx@@UEAAXPEAVPxSoftBody@2@II@Z 0000000180010750 f   NpSoftBody.obj
 0001:0000f7b0       ?removeSoftBodyFilters@NpSoftBody@physx@@UEAAXPEAVPxSoftBody@2@PEAI1I@Z 00000001800107b0 f   NpSoftBody.obj
 0001:0000f810       ?removeTetRigidFilter@NpSoftBody@physx@@UEAAXPEAVPxRigidActor@2@I@Z 0000000180010810 f   NpSoftBody.obj
 0001:0000f890       ?resolveReferences@?$NpActorTemplate@VPxArticulationLink@physx@@@physx@@UEAAXAEAVPxDeserializationContext@2@@Z 0000000180010890 f i NpArticulationLink.obj
 0001:0000f890       ?resolveReferences@?$NpActorTemplate@VPxPBDParticleSystem@physx@@@physx@@UEAAXAEAVPxDeserializationContext@2@@Z 0000000180010890 f i NpParticleSystem.obj
 0001:0000f890       ?resolveReferences@?$NpActorTemplate@VPxRigidDynamic@physx@@@physx@@UEAAXAEAVPxDeserializationContext@2@@Z 0000000180010890 f i NpRigidDynamic.obj
 0001:0000f890       ?resolveReferences@?$NpActorTemplate@VPxRigidStatic@physx@@@physx@@UEAAXAEAVPxDeserializationContext@2@@Z 0000000180010890 f i NpRigidStatic.obj
 0001:0000f890       ?resolveReferences@?$NpActorTemplate@VPxSoftBody@physx@@@physx@@UEAAXAEAVPxDeserializationContext@2@@Z 0000000180010890 f i NpSoftBody.obj
 0001:0000f8a0       ?setActorFlag@?$NpActorTemplate@VPxArticulationLink@physx@@@physx@@UEAAXW4Enum@PxActorFlag@2@_N@Z 00000001800108a0 f i NpArticulationLink.obj
 0001:0000f8a0       ?setActorFlag@?$NpActorTemplate@VPxPBDParticleSystem@physx@@@physx@@UEAAXW4Enum@PxActorFlag@2@_N@Z 00000001800108a0 f i NpParticleSystem.obj
 0001:0000f8a0       ?setActorFlag@?$NpActorTemplate@VPxRigidDynamic@physx@@@physx@@UEAAXW4Enum@PxActorFlag@2@_N@Z 00000001800108a0 f i NpRigidDynamic.obj
 0001:0000f8a0       ?setActorFlag@?$NpActorTemplate@VPxRigidStatic@physx@@@physx@@UEAAXW4Enum@PxActorFlag@2@_N@Z 00000001800108a0 f i NpRigidStatic.obj
 0001:0000f8a0       ?setActorFlag@?$NpActorTemplate@VPxSoftBody@physx@@@physx@@UEAAXW4Enum@PxActorFlag@2@_N@Z 00000001800108a0 f i NpSoftBody.obj
 0001:0000f940       ?setActorFlags@?$NpActorTemplate@VPxArticulationLink@physx@@@physx@@UEAAXV?$PxFlags@W4Enum@PxActorFlag@physx@@E@2@@Z 0000000180010940 f i NpArticulationLink.obj
 0001:0000f940       ?setActorFlags@?$NpActorTemplate@VPxPBDParticleSystem@physx@@@physx@@UEAAXV?$PxFlags@W4Enum@PxActorFlag@physx@@E@2@@Z 0000000180010940 f i NpParticleSystem.obj
 0001:0000f940       ?setActorFlags@?$NpActorTemplate@VPxRigidDynamic@physx@@@physx@@UEAAXV?$PxFlags@W4Enum@PxActorFlag@physx@@E@2@@Z 0000000180010940 f i NpRigidDynamic.obj
 0001:0000f940       ?setActorFlags@?$NpActorTemplate@VPxRigidStatic@physx@@@physx@@UEAAXV?$PxFlags@W4Enum@PxActorFlag@physx@@E@2@@Z 0000000180010940 f i NpRigidStatic.obj
 0001:0000f940       ?setActorFlags@?$NpActorTemplate@VPxSoftBody@physx@@@physx@@UEAAXV?$PxFlags@W4Enum@PxActorFlag@physx@@E@2@@Z 0000000180010940 f i NpSoftBody.obj
 0001:0000f9c0       ?setDominanceGroup@?$NpActorTemplate@VPxArticulationLink@physx@@@physx@@UEAAXE@Z 00000001800109c0 f i NpArticulationLink.obj
 0001:0000f9c0       ?setDominanceGroup@?$NpActorTemplate@VPxPBDParticleSystem@physx@@@physx@@UEAAXE@Z 00000001800109c0 f i NpParticleSystem.obj
 0001:0000f9c0       ?setDominanceGroup@?$NpActorTemplate@VPxRigidDynamic@physx@@@physx@@UEAAXE@Z 00000001800109c0 f i NpRigidDynamic.obj
 0001:0000f9c0       ?setDominanceGroup@?$NpActorTemplate@VPxRigidStatic@physx@@@physx@@UEAAXE@Z 00000001800109c0 f i NpRigidStatic.obj
 0001:0000f9c0       ?setDominanceGroup@?$NpActorTemplate@VPxSoftBody@physx@@@physx@@UEAAXE@Z 00000001800109c0 f i NpSoftBody.obj
 0001:0000fa20       ?setKinematicTargetBufferD@NpSoftBody@physx@@UEAAXPEBV?$PxVec4T@M@2@V?$PxFlags@W4Enum@PxSoftBodyFlag@physx@@I@2@@Z 0000000180010a20 f   NpSoftBody.obj
 0001:0000fa90       ?setName@?$NpActorTemplate@VPxArticulationLink@physx@@@physx@@UEAAXPEBD@Z 0000000180010a90 f i NpArticulationLink.obj
 0001:0000fa90       ?setName@?$NpActorTemplate@VPxPBDParticleSystem@physx@@@physx@@UEAAXPEBD@Z 0000000180010a90 f i NpParticleSystem.obj
 0001:0000fa90       ?setName@?$NpActorTemplate@VPxRigidDynamic@physx@@@physx@@UEAAXPEBD@Z 0000000180010a90 f i NpRigidDynamic.obj
 0001:0000fa90       ?setName@?$NpActorTemplate@VPxRigidStatic@physx@@@physx@@UEAAXPEBD@Z 0000000180010a90 f i NpRigidStatic.obj
 0001:0000fa90       ?setName@?$NpActorTemplate@VPxSoftBody@physx@@@physx@@UEAAXPEBD@Z 0000000180010a90 f i NpSoftBody.obj
 0001:0000faf0       ?setOwnerClient@?$NpActorTemplate@VPxArticulationLink@physx@@@physx@@UEAAXE@Z 0000000180010af0 f i NpArticulationLink.obj
 0001:0000faf0       ?setOwnerClient@?$NpActorTemplate@VPxPBDParticleSystem@physx@@@physx@@UEAAXE@Z 0000000180010af0 f i NpParticleSystem.obj
 0001:0000faf0       ?setOwnerClient@?$NpActorTemplate@VPxRigidDynamic@physx@@@physx@@UEAAXE@Z 0000000180010af0 f i NpRigidDynamic.obj
 0001:0000faf0       ?setOwnerClient@?$NpActorTemplate@VPxRigidStatic@physx@@@physx@@UEAAXE@Z 0000000180010af0 f i NpRigidStatic.obj
 0001:0000faf0       ?setOwnerClient@?$NpActorTemplate@VPxSoftBody@physx@@@physx@@UEAAXE@Z 0000000180010af0 f i NpSoftBody.obj
 0001:0000fb40       ?setParameter@NpSoftBody@physx@@UEAAXUPxFEMParameters@2@@Z 0000000180010b40 f   NpSoftBody.obj
 0001:0000fbb0       ?setSoftBodyFlag@NpSoftBody@physx@@UEAAXW4Enum@PxSoftBodyFlag@2@_N@Z 0000000180010bb0 f   NpSoftBody.obj
 0001:0000fbe0       ?setSoftBodyFlags@NpSoftBody@physx@@UEAAXV?$PxFlags@W4Enum@PxSoftBodyFlag@physx@@I@2@@Z 0000000180010be0 f   NpSoftBody.obj
 0001:0000fc00       ?setSolverIterationCounts@NpSoftBody@physx@@UEAAXII@Z 0000000180010c00 f   NpSoftBody.obj
 0001:0000fc70       ?setWakeCounter@NpSoftBody@physx@@UEAAXM@Z 0000000180010c70 f   NpSoftBody.obj
 0001:0000fcd0       ?updateMaterials@NpSoftBody@physx@@QEAAXXZ 0000000180010cd0 f   NpSoftBody.obj
 0001:0000fd80       ??$PxSort@UPxParticleCloth@physx@@U?$PxLess@UPxParticleCloth@physx@@@2@V?$PxReflectionAllocator@UPxParticleCloth@physx@@@2@@physx@@YAXPEAUPxParticleCloth@0@IAEBU?$PxLess@UPxParticleCloth@physx@@@0@AEBV?$PxReflectionAllocator@UPxParticleCloth@physx@@@0@I@Z 0000000180010d80 f i NpParticleSystem.obj
 0001:00010330       ??0NpPBDParticleSystem@physx@@QEAA@IAEAVPxCudaContextManager@1@@Z 0000000180011330 f   NpParticleSystem.obj
 0001:00010410       ??0PxPartitionedParticleCloth@physx@@QEAA@XZ 0000000180011410 f   NpParticleSystem.obj
 0001:00010430       ??1PxPartitionedParticleCloth@physx@@QEAA@XZ 0000000180011430 f   NpParticleSystem.obj
 0001:00010500       ??_E?$NpActorTemplate@VPxPBDParticleSystem@physx@@@physx@@UEAAPEAXI@Z 0000000180011500 f i NpParticleSystem.obj
 0001:00010500       ??_G?$NpActorTemplate@VPxPBDParticleSystem@physx@@@physx@@UEAAPEAXI@Z 0000000180011500 f i NpParticleSystem.obj
 0001:00010580       ??_E?$NpParticleSystem@VPxPBDParticleSystem@physx@@@physx@@UEAAPEAXI@Z 0000000180011580 f i NpParticleSystem.obj
 0001:00010580       ??_ENpPBDParticleSystem@physx@@UEAAPEAXI@Z 0000000180011580 f i NpParticleSystem.obj
 0001:00010580       ??_G?$NpParticleSystem@VPxPBDParticleSystem@physx@@@physx@@UEAAPEAXI@Z 0000000180011580 f i NpParticleSystem.obj
 0001:00010580       ??_GNpPBDParticleSystem@physx@@UEAAPEAXI@Z 0000000180011580 f i NpParticleSystem.obj
 0001:00010610       ??_ENpParticleClothPreProcessor@physx@@UEAAPEAXI@Z 0000000180011610 f i NpParticleSystem.obj
 0001:00010610       ??_GNpParticleClothPreProcessor@physx@@UEAAPEAXI@Z 0000000180011610 f i NpParticleSystem.obj
 0001:00010660       ??_EPxConstraintAllocator@physx@@UEAAPEAXI@Z 0000000180011660 f i LowLevelDynamics_static_64:DyFeatherstoneArticulation.obj
 0001:00010660       ??_EPxParticleClothPreProcessor@physx@@MEAAPEAXI@Z 0000000180011660 f i NpParticleSystem.obj
 0001:00010660       ??_GPxConstraintAllocator@physx@@UEAAPEAXI@Z 0000000180011660 f i LowLevelDynamics_static_64:DyFeatherstoneArticulation.obj
 0001:00010660       ??_GPxParticleClothPreProcessor@physx@@MEAAPEAXI@Z 0000000180011660 f i NpParticleSystem.obj
 0001:00010690       ?addParticleBuffer@NpPBDParticleSystem@physx@@UEAAXPEAVPxParticleBuffer@2@@Z 0000000180011690 f   NpParticleSystem.obj
 0001:000106a0       ?addRigidAttachment@NpPBDParticleSystem@physx@@UEAAXPEAVPxRigidActor@2@@Z 00000001800116a0 f   NpParticleSystem.obj
 0001:00010710       ?allocate@?$PxArray@IV?$PxReflectionAllocator@I@physx@@@physx@@IEAAPEAII@Z 0000000180011710 f i NpParticleSystem.obj
 0001:000107a0       ?allocateBuffers@PxPartitionedParticleCloth@physx@@QEAAXIPEAVPxCudaContextManager@2@@Z 00000001800117a0 f   NpParticleSystem.obj
 0001:000108e0       ?classifySprings@NpParticleClothPreProcessor@physx@@AEAAXPEBUPxParticleSpring@2@PEAI1AEAV?$PxArray@IV?$PxReflectionAllocator@I@physx@@@2@@Z 00000001800118e0 f   NpParticleSystem.obj
 0001:00010ac0       ?combinePartitions@NpParticleClothPreProcessor@physx@@AEAAIPEBUPxParticleSpring@2@PEBI1PEAIPEAU32@22@Z 0000000180011ac0 f   NpParticleSystem.obj
 0001:000110a0       ?createPhase@NpPBDParticleSystem@physx@@UEAAIPEAVPxParticleMaterial@2@V?$PxFlags@W4Enum@PxParticlePhaseFlag@physx@@I@2@@Z 00000001800120a0 f   NpParticleSystem.obj
 0001:00011180       ?enableCCD@?$NpParticleSystem@VPxPBDParticleSystem@physx@@@physx@@UEAAX_N@Z 0000000180012180 f i NpParticleSystem.obj
 0001:000111c0       ?getConcreteTypeName@PxPBDParticleSystem@physx@@UEBAPEBDXZ 00000001800121c0 f i NpParticleSystem.obj
 0001:000111d0       ?getContactOffset@?$NpParticleSystem@VPxPBDParticleSystem@physx@@@physx@@UEBAMXZ 00000001800121d0 f i NpParticleSystem.obj
 0001:000111e0       ?getCudaContextManager@?$NpParticleSystem@VPxPBDParticleSystem@physx@@@physx@@UEBAPEAVPxCudaContextManager@2@XZ 00000001800121e0 f i NpParticleSystem.obj
 0001:000111e0       ?getParentArticulationLink@NpArticulationJointReducedCoordinate@physx@@UEBAAEAVPxArticulationLink@2@XZ 00000001800121e0 f i NpArticulationJointReducedCoordinate.obj
 0001:000111f0       ?getFluidBoundaryDensityScale@NpPBDParticleSystem@physx@@UEBAMXZ 00000001800121f0 f i NpParticleSystem.obj
 0001:00011200       ?getFluidRestOffset@NpPBDParticleSystem@physx@@UEBAMXZ 0000000180012200 f i NpParticleSystem.obj
 0001:00011210       ?getGpuParticleSystemIndex@?$NpParticleSystem@VPxPBDParticleSystem@physx@@@physx@@UEAAIXZ 0000000180012210 f i NpParticleSystem.obj
 0001:00011260       ?getMaxDepenetrationVelocity@?$NpParticleSystem@VPxPBDParticleSystem@physx@@@physx@@UEAAMXZ 0000000180012260 f i NpParticleSystem.obj
 0001:00011270       ?getMaxVelocity@?$NpParticleSystem@VPxPBDParticleSystem@physx@@@physx@@UEAAMXZ 0000000180012270 f i NpParticleSystem.obj
 0001:00011280       ?getNbParticleMaterials@?$NpParticleSystem@VPxPBDParticleSystem@physx@@@physx@@UEBAIXZ 0000000180012280 f i NpParticleSystem.obj
 0001:000112a0       ?getParticleContactOffset@?$NpParticleSystem@VPxPBDParticleSystem@physx@@@physx@@UEBAMXZ 00000001800122a0 f i NpParticleSystem.obj
 0001:000112b0       ?getParticleFlags@?$NpParticleSystem@VPxPBDParticleSystem@physx@@@physx@@UEBA?AV?$PxFlags@W4Enum@PxParticleFlag@physx@@I@2@XZ 00000001800122b0 f i NpParticleSystem.obj
 0001:000112c0       ?getParticleSystemCallback@?$NpParticleSystem@VPxPBDParticleSystem@physx@@@physx@@UEBAPEAVPxParticleSystemCallback@2@XZ 00000001800122c0 f i NpParticleSystem.obj
 0001:000112d0       ?getRestOffset@?$NpParticleSystem@VPxPBDParticleSystem@physx@@@physx@@UEBAMXZ 00000001800122d0 f i NpParticleSystem.obj
 0001:000112e0       ?getSimulationFilterData@?$NpParticleSystem@VPxPBDParticleSystem@physx@@@physx@@UEBA?AUPxFilterData@2@XZ 00000001800122e0 f i NpParticleSystem.obj
 0001:00011300       ?getSolidRestOffset@?$NpParticleSystem@VPxPBDParticleSystem@physx@@@physx@@UEBAMXZ 0000000180012300 f i NpParticleSystem.obj
 0001:00011310       ?getSolverIterationCounts@?$NpParticleSystem@VPxPBDParticleSystem@physx@@@physx@@UEBAXAEAI0@Z 0000000180012310 f i NpParticleSystem.obj
 0001:00011330       ?getSolverType@?$NpParticleSystem@VPxPBDParticleSystem@physx@@@physx@@UEBA?AW4Enum@PxParticleSolverType@2@XZ 0000000180012330 f i NpParticleSystem.obj
 0001:00011340       ?getType@NpPBDParticleSystem@physx@@UEBA?AW4Enum@PxActorType@2@XZ 0000000180012340 f i NpParticleSystem.obj
 0001:00011350       ?getWind@NpPBDParticleSystem@physx@@UEBA?AV?$PxVec3T@M@2@XZ 0000000180012350 f i NpParticleSystem.obj
 0001:00011370       ?getWorldBounds@?$NpParticleSystem@VPxPBDParticleSystem@physx@@@physx@@UEBA?AVPxBounds3@2@M@Z 0000000180012370 f i NpParticleSystem.obj
 0001:00011560       ?isKindOf@PxPBDParticleSystem@physx@@MEBA_NPEBD@Z 0000000180012560 f i NpParticleSystem.obj
 0001:000115f0       ?partitionSprings@NpParticleClothPreProcessor@physx@@UEAAXAEBUPxParticleClothDesc@2@AEAUPxPartitionedParticleCloth@2@@Z 00000001800125f0 f   NpParticleSystem.obj
 0001:00011820       ?partitions@NpParticleClothPreProcessor@physx@@AEAAPEAIPEBUPxParticleSpring@2@PEAI@Z 0000000180012820 f   NpParticleSystem.obj
 0001:00011a50       ?recreate@?$PxArray@IV?$PxReflectionAllocator@I@physx@@@physx@@IEAAXI@Z 0000000180012a50 f i NpParticleSystem.obj
 0001:00011af0       ?release@NpPBDParticleSystem@physx@@UEAAXXZ 0000000180012af0 f   NpParticleSystem.obj
 0001:00011b40       ?release@NpParticleClothPreProcessor@physx@@UEAAXXZ 0000000180012b40 f   NpParticleSystem.obj
 0001:00011b60       ?removeParticleBuffer@NpPBDParticleSystem@physx@@UEAAXPEAVPxParticleBuffer@2@@Z 0000000180012b60 f   NpParticleSystem.obj
 0001:00011b70       ?removeRigidAttachment@NpPBDParticleSystem@physx@@UEAAXPEAVPxRigidActor@2@@Z 0000000180012b70 f   NpParticleSystem.obj
 0001:00011be0       ?resize@?$PxArray@IV?$PxReflectionAllocator@I@physx@@@physx@@QEAAXIAEBI@Z 0000000180012be0 f i NpParticleSystem.obj
 0001:00011ca0       ?setContactOffset@?$NpParticleSystem@VPxPBDParticleSystem@physx@@@physx@@UEAAXM@Z 0000000180012ca0 f i NpParticleSystem.obj
 0001:00011ce0       ?setFluidBoundaryDensityScale@NpPBDParticleSystem@physx@@UEAAXM@Z 0000000180012ce0 f i NpParticleSystem.obj
 0001:00011d20       ?setFluidRestOffset@NpPBDParticleSystem@physx@@UEAAXM@Z 0000000180012d20 f i NpParticleSystem.obj
 0001:00011d60       ?setGridSizeX@?$NpParticleSystem@VPxPBDParticleSystem@physx@@@physx@@UEAAXI@Z 0000000180012d60 f i NpParticleSystem.obj
 0001:00011d70       ?setGridSizeY@?$NpParticleSystem@VPxPBDParticleSystem@physx@@@physx@@UEAAXI@Z 0000000180012d70 f i NpParticleSystem.obj
 0001:00011d80       ?setGridSizeZ@?$NpParticleSystem@VPxPBDParticleSystem@physx@@@physx@@UEAAXI@Z 0000000180012d80 f i NpParticleSystem.obj
 0001:00011d90       ?setMaxDepenetrationVelocity@?$NpParticleSystem@VPxPBDParticleSystem@physx@@@physx@@UEAAXM@Z 0000000180012d90 f i NpParticleSystem.obj
 0001:00011dd0       ?setMaxVelocity@?$NpParticleSystem@VPxPBDParticleSystem@physx@@@physx@@UEAAXM@Z 0000000180012dd0 f i NpParticleSystem.obj
 0001:00011e10       ?setParticleContactOffset@?$NpParticleSystem@VPxPBDParticleSystem@physx@@@physx@@UEAAXM@Z 0000000180012e10 f i NpParticleSystem.obj
 0001:00011e50       ?setParticleFlag@?$NpParticleSystem@VPxPBDParticleSystem@physx@@@physx@@UEAAXW4Enum@PxParticleFlag@2@_N@Z 0000000180012e50 f i NpParticleSystem.obj
 0001:00011eb0       ?setParticleFlags@?$NpParticleSystem@VPxPBDParticleSystem@physx@@@physx@@UEAAXV?$PxFlags@W4Enum@PxParticleFlag@physx@@I@2@@Z 0000000180012eb0 f i NpParticleSystem.obj
 0001:00011f00       ?setParticleSystemCallback@?$NpParticleSystem@VPxPBDParticleSystem@physx@@@physx@@UEAAXPEAVPxParticleSystemCallback@2@@Z 0000000180012f00 f i NpParticleSystem.obj
 0001:00011f10       ?setRestOffset@?$NpParticleSystem@VPxPBDParticleSystem@physx@@@physx@@UEAAXM@Z 0000000180012f10 f i NpParticleSystem.obj
 0001:00011f50       ?setSimulationFilterData@?$NpParticleSystem@VPxPBDParticleSystem@physx@@@physx@@UEAAXAEBUPxFilterData@2@@Z 0000000180012f50 f i NpParticleSystem.obj
 0001:00011f70       ?setSolidRestOffset@?$NpParticleSystem@VPxPBDParticleSystem@physx@@@physx@@UEAAXM@Z 0000000180012f70 f i NpParticleSystem.obj
 0001:00011fb0       ?setSolverIterationCounts@?$NpParticleSystem@VPxPBDParticleSystem@physx@@@physx@@UEAAXII@Z 0000000180012fb0 f i NpParticleSystem.obj
 0001:00012020       ?setWind@NpPBDParticleSystem@physx@@UEAAXAEBV?$PxVec3T@M@2@@Z 0000000180013020 f i NpParticleSystem.obj
 0001:00012060       ?visualize@NpPBDParticleSystem@physx@@UEBAXAEAVPxRenderOutput@2@AEAVNpScene@2@@Z 0000000180013060 f   NpParticleSystem.obj
 0001:000120f0       ?writeSprings@NpParticleClothPreProcessor@physx@@AEAAXPEBUPxParticleSpring@2@PEAI111@Z 00000001800130f0 f   NpParticleSystem.obj
 0001:000122a0       PxCreateParticleClothPreProcessor 00000001800132a0 f   NpParticleSystem.obj
 0001:00012370       ??0NpConstraint@physx@@QEAA@PEAVPxRigidActor@1@0AEAVPxConstraintConnector@1@AEBUPxConstraintShaderTable@1@I@Z 0000000180013370 f   NpConstraint.obj
 0001:00012520       ??_ENpConstraint@physx@@UEAAPEAXI@Z 0000000180013520 f i NpConstraint.obj
 0001:00012520       ??_GNpConstraint@physx@@UEAAPEAXI@Z 0000000180013520 f i NpConstraint.obj
 0001:000125b0       ?actorDeleted@NpConstraint@physx@@QEAAXPEAVPxRigidActor@2@@Z 00000001800135b0 f   NpConstraint.obj
 0001:000125d0       ?comShift@NpConstraint@physx@@QEAAXPEAVPxRigidActor@2@@Z 00000001800135d0 f   NpConstraint.obj
 0001:00012620       ?createObject@NpConstraint@physx@@SAPEAV12@AEAPEAEAEAVPxDeserializationContext@2@@Z 0000000180013620 f   NpConstraint.obj
 0001:000126c0       ?getActors@NpConstraint@physx@@UEBAXAEAPEAVPxRigidActor@2@0@Z 00000001800136c0 f   NpConstraint.obj
 0001:000126d0       ?getBreakForce@NpConstraint@physx@@UEBAXAEAM0@Z 00000001800136d0 f   NpConstraint.obj
 0001:000126e0       ?getConcreteTypeName@PxConstraint@physx@@UEBAPEBDXZ 00000001800136e0 f i NpConstraint.obj
 0001:000126f0       ?getExternalReference@NpConstraint@physx@@UEAAPEAXAEAI@Z 00000001800136f0 f   NpConstraint.obj
 0001:00012700       ?getFlags@NpConstraint@physx@@UEBA?AV?$PxFlags@W4Enum@PxConstraintFlag@physx@@G@2@XZ 0000000180013700 f   NpConstraint.obj
 0001:00012720       ?getForce@NpConstraint@physx@@UEBAXAEAV?$PxVec3T@M@2@0@Z 0000000180013720 f   NpConstraint.obj
 0001:00012780       ?getMinResponseThreshold@NpConstraint@physx@@UEBAMXZ 0000000180013780 f   NpConstraint.obj
 0001:00012790       ?getSceneFromActors@NpConstraint@physx@@QEBAPEAVNpScene@2@XZ 0000000180013790 f   NpConstraint.obj
 0001:00012830       ?isKindOf@PxConstraint@physx@@MEBA_NPEBD@Z 0000000180013830 f i NpConstraint.obj
 0001:00012880       ?isSubordinate@?$PxSerializerDefaultAdapter@VNpArticulationJointReducedCoordinate@physx@@@physx@@UEBA_NXZ 0000000180013880 f i NpSerializerAdapter.obj
 0001:00012880       ?isSubordinate@?$PxSerializerDefaultAdapter@VNpArticulationLink@physx@@@physx@@UEBA_NXZ 0000000180013880 f i NpSerializerAdapter.obj
 0001:00012880       ?isSubordinate@?$PxSerializerDefaultAdapter@VNpConstraint@physx@@@physx@@UEBA_NXZ 0000000180013880 f i NpSerializerAdapter.obj
 0001:00012880       ?isSubordinate@NpArticulationAttachment@physx@@UEBA_NXZ 0000000180013880 f i NpArticulationTendon.obj
 0001:00012880       ?isSubordinate@NpArticulationFixedTendon@physx@@UEBA_NXZ 0000000180013880 f i NpArticulationTendon.obj
 0001:00012880       ?isSubordinate@NpArticulationJointReducedCoordinate@physx@@UEBA_NXZ 0000000180013880 f i NpArticulationJointReducedCoordinate.obj
 0001:00012880       ?isSubordinate@NpArticulationLink@physx@@UEBA_NXZ 0000000180013880 f i NpArticulationLink.obj
 0001:00012880       ?isSubordinate@NpArticulationSensor@physx@@UEBA_NXZ 0000000180013880 f i NpArticulationSensor.obj
 0001:00012880       ?isSubordinate@NpArticulationSpatialTendon@physx@@UEBA_NXZ 0000000180013880 f i NpArticulationTendon.obj
 0001:00012880       ?isSubordinate@NpArticulationTendonJoint@physx@@UEBA_NXZ 0000000180013880 f i NpArticulationTendon.obj
 0001:00012880       ?isSubordinate@NpConstraint@physx@@UEBA_NXZ 0000000180013880 f i NpConstraint.obj
 0001:00012880       __acrt_uninitialize_command_line 0000000180013880 f i libucrt:argv_data.obj
 0001:00012890       ?isValid@NpConstraint@physx@@UEBA_NXZ 0000000180013890 f   NpConstraint.obj
 0001:000128d0       ?markDirty@NpConstraint@physx@@UEAAXXZ 00000001800138d0 f   NpConstraint.obj
 0001:00012910       ?release@NpConstraint@physx@@UEAAXXZ 0000000180013910 f   NpConstraint.obj
 0001:000129c0       ?removeConnectors@NpConstraint@physx@@AEAAXPEBD0@Z 00000001800139c0 f   NpConstraint.obj
 0001:00012a40       ?setActors@NpConstraint@physx@@UEAAXPEAVPxRigidActor@2@0@Z 0000000180013a40 f   NpConstraint.obj
 0001:00012c80       ?setBreakForce@NpConstraint@physx@@UEAAXMM@Z 0000000180013c80 f   NpConstraint.obj
 0001:00012cf0       ?setConstraintFunctions@NpConstraint@physx@@UEAAXAEAVPxConstraintConnector@2@AEBUPxConstraintShaderTable@2@@Z 0000000180013cf0 f   NpConstraint.obj
 0001:00012e60       ?setFlag@NpConstraint@physx@@UEAAXW4Enum@PxConstraintFlag@2@_N@Z 0000000180013e60 f   NpConstraint.obj
 0001:00012ef0       ?setFlags@NpConstraint@physx@@UEAAXV?$PxFlags@W4Enum@PxConstraintFlag@physx@@G@2@@Z 0000000180013ef0 f   NpConstraint.obj
 0001:00012f70       ?setMinResponseThreshold@NpConstraint@physx@@UEAAXM@Z 0000000180013f70 f   NpConstraint.obj
 0001:00012fd0       ?updateConstants@NpConstraint@physx@@QEAAXAEAVPxsSimulationController@2@@Z 0000000180013fd0 f   NpConstraint.obj
 0001:00013060       ??$PxSort@PEAXU?$PxLess@PEAX@physx@@V?$PxReflectionAllocator@V?$PtrBlock@$03@NpPtrTableStorageManager@physx@@@2@@physx@@YAXPEAPEAXIAEBU?$PxLess@PEAX@0@AEBV?$PxReflectionAllocator@V?$PtrBlock@$03@NpPtrTableStorageManager@physx@@@0@I@Z 0000000180014060 f i NpFactory.obj
 0001:000134c0       ??$PxSort@PEAXU?$PxLess@PEAX@physx@@V?$PxReflectionAllocator@V?$PtrBlock@$0BA@@NpPtrTableStorageManager@physx@@@2@@physx@@YAXPEAPEAXIAEBU?$PxLess@PEAX@0@AEBV?$PxReflectionAllocator@V?$PtrBlock@$0BA@@NpPtrTableStorageManager@physx@@@0@I@Z 00000001800144c0 f i NpFactory.obj
 0001:00013920       ??$PxSort@PEAXU?$PxLess@PEAX@physx@@V?$PxReflectionAllocator@V?$PtrBlock@$0EA@@NpPtrTableStorageManager@physx@@@2@@physx@@YAXPEAPEAXIAEBU?$PxLess@PEAX@0@AEBV?$PxReflectionAllocator@V?$PtrBlock@$0EA@@NpPtrTableStorageManager@physx@@@0@I@Z 0000000180014920 f i NpFactory.obj
 0001:00013d80       ??$PxSort@PEAXU?$PxLess@PEAX@physx@@V?$PxReflectionAllocator@VNpAggregate@physx@@@2@@physx@@YAXPEAPEAXIAEBU?$PxLess@PEAX@0@AEBV?$PxReflectionAllocator@VNpAggregate@physx@@@0@I@Z 0000000180014d80 f i NpFactory.obj
 0001:000141e0       ??$PxSort@PEAXU?$PxLess@PEAX@physx@@V?$PxReflectionAllocator@VNpArticulationJointReducedCoordinate@physx@@@2@@physx@@YAXPEAPEAXIAEBU?$PxLess@PEAX@0@AEBV?$PxReflectionAllocator@VNpArticulationJointReducedCoordinate@physx@@@0@I@Z 00000001800151e0 f i NpFactory.obj
 0001:00014640       ??$PxSort@PEAXU?$PxLess@PEAX@physx@@V?$PxReflectionAllocator@VNpArticulationLink@physx@@@2@@physx@@YAXPEAPEAXIAEBU?$PxLess@PEAX@0@AEBV?$PxReflectionAllocator@VNpArticulationLink@physx@@@0@I@Z 0000000180015640 f i NpFactory.obj
 0001:00014aa0       ??$PxSort@PEAXU?$PxLess@PEAX@physx@@V?$PxReflectionAllocator@VNpArticulationReducedCoordinate@physx@@@2@@physx@@YAXPEAPEAXIAEBU?$PxLess@PEAX@0@AEBV?$PxReflectionAllocator@VNpArticulationReducedCoordinate@physx@@@0@I@Z 0000000180015aa0 f i NpFactory.obj
 0001:00014f00       ??$PxSort@PEAXU?$PxLess@PEAX@physx@@V?$PxReflectionAllocator@VNpConnectorArray@physx@@@2@@physx@@YAXPEAPEAXIAEBU?$PxLess@PEAX@0@AEBV?$PxReflectionAllocator@VNpConnectorArray@physx@@@0@I@Z 0000000180015f00 f i NpFactory.obj
 0001:00015360       ??$PxSort@PEAXU?$PxLess@PEAX@physx@@V?$PxReflectionAllocator@VNpConstraint@physx@@@2@@physx@@YAXPEAPEAXIAEBU?$PxLess@PEAX@0@AEBV?$PxReflectionAllocator@VNpConstraint@physx@@@0@I@Z 0000000180016360 f i NpFactory.obj
 0001:000157c0       ??$PxSort@PEAXU?$PxLess@PEAX@physx@@V?$PxReflectionAllocator@VNpFEMSoftBodyMaterial@physx@@@2@@physx@@YAXPEAPEAXIAEBU?$PxLess@PEAX@0@AEBV?$PxReflectionAllocator@VNpFEMSoftBodyMaterial@physx@@@0@I@Z 00000001800167c0 f i NpFactory.obj
 0001:00015c20       ??$PxSort@PEAXU?$PxLess@PEAX@physx@@V?$PxReflectionAllocator@VNpMaterial@physx@@@2@@physx@@YAXPEAPEAXIAEBU?$PxLess@PEAX@0@AEBV?$PxReflectionAllocator@VNpMaterial@physx@@@0@I@Z 0000000180016c20 f i NpFactory.obj
 0001:00016080       ??$PxSort@PEAXU?$PxLess@PEAX@physx@@V?$PxReflectionAllocator@VNpPBDMaterial@physx@@@2@@physx@@YAXPEAPEAXIAEBU?$PxLess@PEAX@0@AEBV?$PxReflectionAllocator@VNpPBDMaterial@physx@@@0@I@Z 0000000180017080 f i NpFactory.obj
 0001:000164e0       ??$PxSort@PEAXU?$PxLess@PEAX@physx@@V?$PxReflectionAllocator@VNpPBDParticleSystem@physx@@@2@@physx@@YAXPEAPEAXIAEBU?$PxLess@PEAX@0@AEBV?$PxReflectionAllocator@VNpPBDParticleSystem@physx@@@0@I@Z 00000001800174e0 f i NpFactory.obj
 0001:00016940       ??$PxSort@PEAXU?$PxLess@PEAX@physx@@V?$PxReflectionAllocator@VNpRigidDynamic@physx@@@2@@physx@@YAXPEAPEAXIAEBU?$PxLess@PEAX@0@AEBV?$PxReflectionAllocator@VNpRigidDynamic@physx@@@0@I@Z 0000000180017940 f i NpFactory.obj
 0001:00016da0       ??$PxSort@PEAXU?$PxLess@PEAX@physx@@V?$PxReflectionAllocator@VNpRigidStatic@physx@@@2@@physx@@YAXPEAPEAXIAEBU?$PxLess@PEAX@0@AEBV?$PxReflectionAllocator@VNpRigidStatic@physx@@@0@I@Z 0000000180017da0 f i NpFactory.obj
 0001:00017200       ??$PxSort@PEAXU?$PxLess@PEAX@physx@@V?$PxReflectionAllocator@VNpShape@physx@@@2@@physx@@YAXPEAPEAXIAEBU?$PxLess@PEAX@0@AEBV?$PxReflectionAllocator@VNpShape@physx@@@0@I@Z 0000000180018200 f i NpFactory.obj
 0001:00017660       ??$PxSort@PEAXU?$PxLess@PEAX@physx@@V?$PxReflectionAllocator@VNpSoftBody@physx@@@2@@physx@@YAXPEAPEAXIAEBU?$PxLess@PEAX@0@AEBV?$PxReflectionAllocator@VNpSoftBody@physx@@@0@I@Z 0000000180018660 f i NpFactory.obj
 0001:00017ac0       ??$construct@$$CBVPxGeometry@physx@@V?$PxFlags@W4Enum@PxShapeFlag@physx@@E@2@PEAGG_NW4Enum@PxShapeCoreFlag@2@@?$PxPoolBase@VNpShape@physx@@V?$PxReflectionAllocator@VNpShape@physx@@@2@@physx@@QEAAPEAVNpShape@1@AEBVPxGeometry@1@AEAV?$PxFlags@W4Enum@PxShapeFlag@physx@@E@1@AEAPEAGAEAGAEA_NAEAW4Enum@PxShapeCoreFlag@1@@Z 0000000180018ac0 f i NpFactory.obj
 0001:00017c40       ??$createShapeInternal@VPxFEMSoftBodyMaterial@physx@@VNpFEMSoftBodyMaterial@2@@NpFactory@physx@@AEAAPEAVNpShape@1@AEBVPxGeometry@1@V?$PxFlags@W4Enum@PxShapeFlag@physx@@E@1@PEBQEAVPxFEMSoftBodyMaterial@1@G_NW4Enum@PxShapeCoreFlag@1@@Z 0000000180018c40 f i NpFactory.obj
 0001:00017e00       ??$createShapeInternal@VPxMaterial@physx@@VNpMaterial@2@@NpFactory@physx@@AEAAPEAVNpShape@1@AEBVPxGeometry@1@V?$PxFlags@W4Enum@PxShapeFlag@physx@@E@1@PEBQEAVPxMaterial@1@G_NW4Enum@PxShapeCoreFlag@1@@Z 0000000180018e00 f i NpFactory.obj
 0001:000186a0       ??0?$PxMutexT@V?$PxReflectionAllocator@VPxMutexImpl@physx@@@physx@@@physx@@QEAA@AEBV?$PxReflectionAllocator@VPxMutexImpl@physx@@@1@@Z 00000001800196a0 f i NpFactory.obj
 0001:00018730       ??0NpFactory@physx@@QEAA@XZ 0000000180019730 f   NpFactory.obj
 0001:00019260       ??1?$PxPoolBase@V?$PtrBlock@$03@NpPtrTableStorageManager@physx@@V?$PxReflectionAllocator@V?$PtrBlock@$03@NpPtrTableStorageManager@physx@@@3@@physx@@QEAA@XZ 000000018001a260 f i NpFactory.obj
 0001:000193c0       ??1?$PxPoolBase@V?$PtrBlock@$0BA@@NpPtrTableStorageManager@physx@@V?$PxReflectionAllocator@V?$PtrBlock@$0BA@@NpPtrTableStorageManager@physx@@@3@@physx@@QEAA@XZ 000000018001a3c0 f i NpFactory.obj
 0001:00019520       ??1?$PxPoolBase@V?$PtrBlock@$0EA@@NpPtrTableStorageManager@physx@@V?$PxReflectionAllocator@V?$PtrBlock@$0EA@@NpPtrTableStorageManager@physx@@@3@@physx@@QEAA@XZ 000000018001a520 f i NpFactory.obj
 0001:00019680       ??1?$PxPoolBase@VNpAggregate@physx@@V?$PxReflectionAllocator@VNpAggregate@physx@@@2@@physx@@QEAA@XZ 000000018001a680 f i NpFactory.obj
 0001:00019890       ??1?$PxPoolBase@VNpArticulationJointReducedCoordinate@physx@@V?$PxReflectionAllocator@VNpArticulationJointReducedCoordinate@physx@@@2@@physx@@QEAA@XZ 000000018001a890 f i NpFactory.obj
 0001:00019aa0       ??1?$PxPoolBase@VNpArticulationLink@physx@@V?$PxReflectionAllocator@VNpArticulationLink@physx@@@2@@physx@@QEAA@XZ 000000018001aaa0 f i NpFactory.obj
 0001:00019cb0       ??1?$PxPoolBase@VNpArticulationReducedCoordinate@physx@@V?$PxReflectionAllocator@VNpArticulationReducedCoordinate@physx@@@2@@physx@@QEAA@XZ 000000018001acb0 f i NpFactory.obj
 0001:00019ec0       ??1?$PxPoolBase@VNpConnectorArray@physx@@V?$PxReflectionAllocator@VNpConnectorArray@physx@@@2@@physx@@QEAA@XZ 000000018001aec0 f i NpFactory.obj
 0001:00019f60       ??1?$PxPoolBase@VNpConstraint@physx@@V?$PxReflectionAllocator@VNpConstraint@physx@@@2@@physx@@QEAA@XZ 000000018001af60 f i NpFactory.obj
 0001:0001a170       ??1?$PxPoolBase@VNpFEMSoftBodyMaterial@physx@@V?$PxReflectionAllocator@VNpFEMSoftBodyMaterial@physx@@@2@@physx@@QEAA@XZ 000000018001b170 f i NpFactory.obj
 0001:0001a380       ??1?$PxPoolBase@VNpMaterial@physx@@V?$PxReflectionAllocator@VNpMaterial@physx@@@2@@physx@@QEAA@XZ 000000018001b380 f i NpFactory.obj
 0001:0001a590       ??1?$PxPoolBase@VNpPBDMaterial@physx@@V?$PxReflectionAllocator@VNpPBDMaterial@physx@@@2@@physx@@QEAA@XZ 000000018001b590 f i NpFactory.obj
 0001:0001a7a0       ??1?$PxPoolBase@VNpPBDParticleSystem@physx@@V?$PxReflectionAllocator@VNpPBDParticleSystem@physx@@@2@@physx@@QEAA@XZ 000000018001b7a0 f i NpFactory.obj
 0001:0001a9b0       ??1?$PxPoolBase@VNpRigidDynamic@physx@@V?$PxReflectionAllocator@VNpRigidDynamic@physx@@@2@@physx@@QEAA@XZ 000000018001b9b0 f i NpFactory.obj
 0001:0001abc0       ??1?$PxPoolBase@VNpRigidStatic@physx@@V?$PxReflectionAllocator@VNpRigidStatic@physx@@@2@@physx@@QEAA@XZ 000000018001bbc0 f i NpFactory.obj
 0001:0001add0       ??1?$PxPoolBase@VNpShape@physx@@V?$PxReflectionAllocator@VNpShape@physx@@@2@@physx@@QEAA@XZ 000000018001bdd0 f i NpFactory.obj
 0001:0001afe0       ??1?$PxPoolBase@VNpSoftBody@physx@@V?$PxReflectionAllocator@VNpSoftBody@physx@@@2@@physx@@QEAA@XZ 000000018001bfe0 f i NpFactory.obj
 0001:0001b1f0       ??1NpFactory@physx@@EEAA@XZ 000000018001c1f0 f   NpFactory.obj
 0001:0001b610       ??_ENpFactory@physx@@EEAAPEAXI@Z 000000018001c610 f i NpFactory.obj
 0001:0001b610       ??_GNpFactory@physx@@EEAAPEAXI@Z 000000018001c610 f i NpFactory.obj
 0001:0001b680       ??_ENpPtrTableStorageManager@physx@@UEAAPEAXI@Z 000000018001c680 f i NpFactory.obj
 0001:0001b680       ??_GNpPtrTableStorageManager@physx@@UEAAPEAXI@Z 000000018001c680 f i NpFactory.obj
 0001:0001b740       ??_EPtrTableStorageManager@Cm@physx@@MEAAPEAXI@Z 000000018001c740 f i NpFactory.obj
 0001:0001b740       ??_GPtrTableStorageManager@Cm@physx@@MEAAPEAXI@Z 000000018001c740 f i NpFactory.obj
 0001:0001b770       ?NpDestroyAggregate@physx@@YAXPEAVNpAggregate@1@@Z 000000018001c770 f   NpFactory.obj
 0001:0001b800       ?NpDestroyArticulation@physx@@YAXPEAVPxArticulationReducedCoordinate@1@@Z 000000018001c800 f   NpFactory.obj
 0001:0001b890       ?NpDestroyArticulationJoint@physx@@YAXPEAVPxArticulationJointReducedCoordinate@1@@Z 000000018001c890 f   NpFactory.obj
 0001:0001b920       ?NpDestroyArticulationLink@physx@@YAXPEAVNpArticulationLink@1@@Z 000000018001c920 f   NpFactory.obj
 0001:0001b9b0       ?NpDestroyConstraint@physx@@YAXPEAVNpConstraint@1@@Z 000000018001c9b0 f   NpFactory.obj
 0001:0001ba40       ?NpDestroyParticleSystem@physx@@YAXPEAVNpPBDParticleSystem@1@@Z 000000018001ca40 f   NpFactory.obj
 0001:0001bad0       ?NpDestroyRigidActor@physx@@YAXPEAVNpRigidStatic@1@@Z 000000018001cad0 f   NpFactory.obj
 0001:0001bb60       ?NpDestroyRigidDynamic@physx@@YAXPEAVNpRigidDynamic@1@@Z 000000018001cb60 f   NpFactory.obj
 0001:0001bbf0       ?NpDestroyShape@physx@@YAXPEAVNpShape@1@@Z 000000018001cbf0 f   NpFactory.obj
 0001:0001bc80       ?NpDestroySoftBody@physx@@YAXPEAVNpSoftBody@1@@Z 000000018001cc80 f   NpFactory.obj
 0001:0001bd10       ?acquireConnectorArray@NpFactory@physx@@QEAAPEAVNpConnectorArray@2@XZ 000000018001cd10 f   NpFactory.obj
 0001:0001be60       ?addCollection@NpFactory@physx@@QEAAXAEBVCollection@Cm@2@@Z 000000018001ce60 f   NpFactory.obj
 0001:0001c0d0       ?allocate@?$PxArray@GV?$PxInlineAllocator@$07V?$PxReflectionAllocator@G@physx@@@physx@@@physx@@IEAAPEAGI@Z 000000018001d0d0 f i NpFactory.obj
 0001:0001c180       ?allocate@?$PxArray@PEAVPxActor@physx@@V?$PxReflectionAllocator@PEAVPxActor@physx@@@2@@physx@@IEAAPEAPEAVPxActor@2@I@Z 000000018001d180 f i NpFactory.obj
 0001:0001c210       ?allocate@?$PxArray@PEAVPxAggregate@physx@@V?$PxReflectionAllocator@PEAVPxAggregate@physx@@@2@@physx@@IEAAPEAPEAVPxAggregate@2@I@Z 000000018001d210 f i NpFactory.obj
 0001:0001c2a0       ?allocate@?$PxArray@PEAVPxArticulationReducedCoordinate@physx@@V?$PxReflectionAllocator@PEAVPxArticulationReducedCoordinate@physx@@@2@@physx@@IEAAPEAPEAVPxArticulationReducedCoordinate@2@I@Z 000000018001d2a0 f i NpFactory.obj
 0001:0001c330       ?allocate@?$PxArray@PEAVPxConstraint@physx@@V?$PxReflectionAllocator@PEAVPxConstraint@physx@@@2@@physx@@IEAAPEAPEAVPxConstraint@2@I@Z 000000018001d330 f i NpFactory.obj
 0001:0001c3c0       ?allocate@?$PxArray@PEAVPxParticleBuffer@physx@@V?$PxReflectionAllocator@PEAVPxParticleBuffer@physx@@@2@@physx@@IEAAPEAPEAVPxParticleBuffer@2@I@Z 000000018001d3c0 f i NpFactory.obj
 0001:0001c450       ?allocate@?$PxArray@PEAXV?$PxReflectionAllocator@V?$PtrBlock@$03@NpPtrTableStorageManager@physx@@@physx@@@physx@@IEAAPEAPEAXI@Z 000000018001d450 f i NpFactory.obj
 0001:0001c4e0       ?allocate@?$PxArray@PEAXV?$PxReflectionAllocator@V?$PtrBlock@$0BA@@NpPtrTableStorageManager@physx@@@physx@@@physx@@IEAAPEAPEAXI@Z 000000018001d4e0 f i NpFactory.obj
 0001:0001c570       ?allocate@?$PxArray@PEAXV?$PxReflectionAllocator@V?$PtrBlock@$0EA@@NpPtrTableStorageManager@physx@@@physx@@@physx@@IEAAPEAPEAXI@Z 000000018001d570 f i NpFactory.obj
 0001:0001c600       ?allocate@?$PxArray@PEAXV?$PxReflectionAllocator@VNpAggregate@physx@@@physx@@@physx@@IEAAPEAPEAXI@Z 000000018001d600 f i NpFactory.obj
 0001:0001c690       ?allocate@?$PxArray@PEAXV?$PxReflectionAllocator@VNpArticulationJointReducedCoordinate@physx@@@physx@@@physx@@IEAAPEAPEAXI@Z 000000018001d690 f i NpFactory.obj
 0001:0001c720       ?allocate@?$PxArray@PEAXV?$PxReflectionAllocator@VNpArticulationLink@physx@@@physx@@@physx@@IEAAPEAPEAXI@Z 000000018001d720 f i NpFactory.obj
 0001:0001c7b0       ?allocate@?$PxArray@PEAXV?$PxReflectionAllocator@VNpArticulationReducedCoordinate@physx@@@physx@@@physx@@IEAAPEAPEAXI@Z 000000018001d7b0 f i NpFactory.obj
 0001:0001c840       ?allocate@?$PxArray@PEAXV?$PxReflectionAllocator@VNpConnectorArray@physx@@@physx@@@physx@@IEAAPEAPEAXI@Z 000000018001d840 f i NpFactory.obj
 0001:0001c8d0       ?allocate@?$PxArray@PEAXV?$PxReflectionAllocator@VNpConstraint@physx@@@physx@@@physx@@IEAAPEAPEAXI@Z 000000018001d8d0 f i NpFactory.obj
 0001:0001c960       ?allocate@?$PxArray@PEAXV?$PxReflectionAllocator@VNpFEMSoftBodyMaterial@physx@@@physx@@@physx@@IEAAPEAPEAXI@Z 000000018001d960 f i NpFactory.obj
 0001:0001c9f0       ?allocate@?$PxArray@PEAXV?$PxReflectionAllocator@VNpMaterial@physx@@@physx@@@physx@@IEAAPEAPEAXI@Z 000000018001d9f0 f i NpFactory.obj
 0001:0001ca80       ?allocate@?$PxArray@PEAXV?$PxReflectionAllocator@VNpPBDMaterial@physx@@@physx@@@physx@@IEAAPEAPEAXI@Z 000000018001da80 f i NpFactory.obj
 0001:0001cb10       ?allocate@?$PxArray@PEAXV?$PxReflectionAllocator@VNpPBDParticleSystem@physx@@@physx@@@physx@@IEAAPEAPEAXI@Z 000000018001db10 f i NpFactory.obj
 0001:0001cba0       ?allocate@?$PxArray@PEAXV?$PxReflectionAllocator@VNpRigidDynamic@physx@@@physx@@@physx@@IEAAPEAPEAXI@Z 000000018001dba0 f i NpFactory.obj
 0001:0001cc30       ?allocate@?$PxArray@PEAXV?$PxReflectionAllocator@VNpRigidStatic@physx@@@physx@@@physx@@IEAAPEAPEAXI@Z 000000018001dc30 f i NpFactory.obj
 0001:0001ccc0       ?allocate@?$PxArray@PEAXV?$PxReflectionAllocator@VNpShape@physx@@@physx@@@physx@@IEAAPEAPEAXI@Z 000000018001dcc0 f i NpFactory.obj
 0001:0001cd50       ?allocate@?$PxArray@PEAXV?$PxReflectionAllocator@VNpSoftBody@physx@@@physx@@@physx@@IEAAPEAPEAXI@Z 000000018001dd50 f i NpFactory.obj
 0001:0001cde0       ?allocate@NpPtrTableStorageManager@physx@@UEAAPEAPEAXI@Z 000000018001dde0 f i NpFactory.obj
 0001:0001d170       ?canReuse@NpPtrTableStorageManager@physx@@UEAA_NII@Z 000000018001e170 f i NpFactory.obj
 0001:0001d1c0       ?create@?$PxHashBase@PEAVPxActor@physx@@PEAV12@U?$PxHash@PEAVPxActor@physx@@@2@UGetKey@?$PxHashSetBase@PEAVPxActor@physx@@U?$PxHash@PEAVPxActor@physx@@@2@VPxAllocator@2@$0A@@2@VPxAllocator@2@$0A@@physx@@QEAAPEAPEAVPxActor@2@AEBQEAV32@AEA_N@Z 000000018001e1c0 f i NpFactory.obj
 0001:0001d1c0       ?create@?$PxHashBase@PEAVPxAggregate@physx@@PEAV12@U?$PxHash@PEAVPxAggregate@physx@@@2@UGetKey@?$PxHashSetBase@PEAVPxAggregate@physx@@U?$PxHash@PEAVPxAggregate@physx@@@2@VPxAllocator@2@$0A@@2@VPxAllocator@2@$0A@@physx@@QEAAPEAPEAVPxAggregate@2@AEBQEAV32@AEA_N@Z 000000018001e1c0 f i NpFactory.obj
 0001:0001d1c0       ?create@?$PxHashBase@PEAVPxArticulationReducedCoordinate@physx@@PEAV12@U?$PxHash@PEAVPxArticulationReducedCoordinate@physx@@@2@UGetKey@?$PxHashSetBase@PEAVPxArticulationReducedCoordinate@physx@@U?$PxHash@PEAVPxArticulationReducedCoordinate@physx@@@2@VPxAllocator@2@$0A@@2@VPxAllocator@2@$0A@@physx@@QEAAPEAPEAVPxArticulationReducedCoordinate@2@AEBQEAV32@AEA_N@Z 000000018001e1c0 f i NpFactory.obj
 0001:0001d1c0       ?create@?$PxHashBase@PEAVPxConstraint@physx@@PEAV12@U?$PxHash@PEAVPxConstraint@physx@@@2@UGetKey@?$PxHashSetBase@PEAVPxConstraint@physx@@U?$PxHash@PEAVPxConstraint@physx@@@2@VPxAllocator@2@$0A@@2@VPxAllocator@2@$0A@@physx@@QEAAPEAPEAVPxConstraint@2@AEBQEAV32@AEA_N@Z 000000018001e1c0 f i NpFactory.obj
 0001:0001d1c0       ?create@?$PxHashBase@PEAVPxParticleBuffer@physx@@PEAV12@U?$PxHash@PEAVPxParticleBuffer@physx@@@2@UGetKey@?$PxHashSetBase@PEAVPxParticleBuffer@physx@@U?$PxHash@PEAVPxParticleBuffer@physx@@@2@VPxAllocator@2@$0A@@2@VPxAllocator@2@$0A@@physx@@QEAAPEAPEAVPxParticleBuffer@2@AEBQEAV32@AEA_N@Z 000000018001e1c0 f i NpFactory.obj
 0001:0001d1c0       ?create@?$PxHashBase@PEBVPxBase@physx@@PEBV12@U?$PxHash@PEBVPxBase@physx@@@2@UGetKey@?$PxHashSetBase@PEBVPxBase@physx@@U?$PxHash@PEBVPxBase@physx@@@2@VPxAllocator@2@$0A@@2@VPxAllocator@2@$0A@@physx@@QEAAPEAPEBVPxBase@2@AEBQEBV32@AEA_N@Z 000000018001e1c0 f i NpPhysics.obj
 0001:0001d360       ?create@?$PxHashBase@PEAVPxAggregate@physx@@PEAV12@U?$PxHash@PEAVPxAggregate@physx@@@2@UGetKey@?$PxHashSetBase@PEAVPxAggregate@physx@@U?$PxHash@PEAVPxAggregate@physx@@@2@VPxAllocator@2@$00@2@VPxAllocator@2@$00@physx@@QEAAPEAPEAVPxAggregate@2@AEBQEAV32@AEA_N@Z 000000018001e360 f i NpScene.obj
 0001:0001d360       ?create@?$PxHashBase@PEAVPxArticulationReducedCoordinate@physx@@PEAV12@U?$PxHash@PEAVPxArticulationReducedCoordinate@physx@@@2@UGetKey@?$PxHashSetBase@PEAVPxArticulationReducedCoordinate@physx@@U?$PxHash@PEAVPxArticulationReducedCoordinate@physx@@@2@VPxAllocator@2@$00@2@VPxAllocator@2@$00@physx@@QEAAPEAPEAVPxArticulationReducedCoordinate@2@AEBQEAV32@AEA_N@Z 000000018001e360 f i NpScene.obj
 0001:0001d360       ?create@?$PxHashBase@PEAVPxPBDParticleSystem@physx@@PEAV12@U?$PxHash@PEAVPxPBDParticleSystem@physx@@@2@UGetKey@?$PxHashSetBase@PEAVPxPBDParticleSystem@physx@@U?$PxHash@PEAVPxPBDParticleSystem@physx@@@2@VPxAllocator@2@$00@2@VPxAllocator@2@$00@physx@@QEAAPEAPEAVPxPBDParticleSystem@2@AEBQEAV32@AEA_N@Z 000000018001e360 f i NpScene.obj
 0001:0001d360       ?create@?$PxHashBase@PEAVPxShape@physx@@PEAV12@U?$PxHash@PEAVPxShape@physx@@@2@UGetKey@?$PxHashSetBase@PEAVPxShape@physx@@U?$PxHash@PEAVPxShape@physx@@@2@VPxAllocator@2@$00@2@VPxAllocator@2@$00@physx@@QEAAPEAPEAVPxShape@2@AEBQEAV32@AEA_N@Z 000000018001e360 f i NpFactory.obj
 0001:0001d360       ?create@?$PxHashBase@PEAVPxSoftBody@physx@@PEAV12@U?$PxHash@PEAVPxSoftBody@physx@@@2@UGetKey@?$PxHashSetBase@PEAVPxSoftBody@physx@@U?$PxHash@PEAVPxSoftBody@physx@@@2@VPxAllocator@2@$00@2@VPxAllocator@2@$00@physx@@QEAAPEAPEAVPxSoftBody@2@AEBQEAV32@AEA_N@Z 000000018001e360 f i NpScene.obj
 0001:0001d4f0       ?createAggregate@NpFactory@physx@@QEAAPEAVPxAggregate@2@III@Z 000000018001e4f0 f   NpFactory.obj
 0001:0001d6a0       ?createArticulationLink@NpFactory@physx@@QEAAPEAVPxArticulationLink@2@AEAVNpArticulationReducedCoordinate@2@PEAVNpArticulationLink@2@AEBV?$PxTransformT@M@2@@Z 000000018001e6a0 f   NpFactory.obj
 0001:0001dbb0       ?createArticulationRC@NpFactory@physx@@QEAAPEAVPxArticulationReducedCoordinate@2@XZ 000000018001ebb0 f   NpFactory.obj
 0001:0001dd80       ?createConstraint@NpFactory@physx@@QEAAPEAVPxConstraint@2@PEAVPxRigidActor@2@0AEAVPxConstraintConnector@2@AEBUPxConstraintShaderTable@2@I@Z 000000018001ed80 f   NpFactory.obj
 0001:0001df60       ?createFEMSoftBodyMaterial@NpFactory@physx@@QEAAPEAVPxFEMSoftBodyMaterial@2@MMM@Z 000000018001ef60 f   NpFactory.obj
 0001:0001e120       ?createInstance@NpFactory@physx@@SAXXZ 000000018001f120 f   NpFactory.obj
 0001:0001e1b0       ?createMaterial@NpFactory@physx@@QEAAPEAVPxMaterial@2@MMM@Z 000000018001f1b0 f   NpFactory.obj
 0001:0001e370       ?createNpArticulationJointRC@NpFactory@physx@@QEAAPEAVNpArticulationJointReducedCoordinate@2@AEAVNpArticulationLink@2@AEBV?$PxTransformT@M@2@01@Z 000000018001f370 f   NpFactory.obj
 0001:0001e4f0       ?createPBDMaterial@NpFactory@physx@@QEAAPEAVPxPBDMaterial@2@MMMMMMMMMMM@Z 000000018001f4f0 f   NpFactory.obj
 0001:0001e700       ?createPBDParticleSystem@NpFactory@physx@@QEAAPEAVPxPBDParticleSystem@2@IAEAVPxCudaContextManager@2@@Z 000000018001f700 f   NpFactory.obj
 0001:0001e860       ?createParticleAndDiffuseBuffer@NpFactory@physx@@QEAAPEAVPxParticleAndDiffuseBuffer@2@IIIPEAVPxCudaContextManager@2@@Z 000000018001f860 f   NpFactory.obj
 0001:0001e940       ?createParticleBuffer@NpFactory@physx@@QEAAPEAVPxParticleBuffer@2@IIPEAVPxCudaContextManager@2@@Z 000000018001f940 f   NpFactory.obj
 0001:0001e9f0       ?createParticleClothBuffer@NpFactory@physx@@QEAAPEAVPxParticleClothBuffer@2@IIIIIPEAVPxCudaContextManager@2@@Z 000000018001f9f0 f   NpFactory.obj
 0001:0001eae0       ?createParticleRigidBuffer@NpFactory@physx@@QEAAPEAVPxParticleRigidBuffer@2@IIIPEAVPxCudaContextManager@2@@Z 000000018001fae0 f   NpFactory.obj
 0001:0001ebc0       ?createRigidDynamic@NpFactory@physx@@QEAAPEAVPxRigidDynamic@2@AEBV?$PxTransformT@M@2@@Z 000000018001fbc0 f   NpFactory.obj
 0001:0001ed50       ?createRigidStatic@NpFactory@physx@@QEAAPEAVPxRigidStatic@2@AEBV?$PxTransformT@M@2@@Z 000000018001fd50 f   NpFactory.obj
 0001:0001eee0       ?createShape@NpFactory@physx@@QEAAPEAVNpShape@2@AEBVPxGeometry@2@V?$PxFlags@W4Enum@PxShapeFlag@physx@@E@2@PEBQEAVPxFEMSoftBodyMaterial@2@G_N@Z 000000018001fee0 f   NpFactory.obj
 0001:0001ef20       ?createShape@NpFactory@physx@@QEAAPEAVNpShape@2@AEBVPxGeometry@2@V?$PxFlags@W4Enum@PxShapeFlag@physx@@E@2@PEBQEAVPxMaterial@2@G_N@Z 000000018001ff20 f   NpFactory.obj
 0001:0001ef60       ?createSoftBody@NpFactory@physx@@QEAAPEAVPxSoftBody@2@AEAVPxCudaContextManager@2@@Z 000000018001ff60 f   NpFactory.obj
 0001:0001f0b0       ?deallocate@NpPtrTableStorageManager@physx@@UEAAXPEAPEAXI@Z 00000001800200b0 f i NpFactory.obj
 0001:0001f150       ?destroyInstance@NpFactory@physx@@SAXXZ 0000000180020150 f   NpFactory.obj
 0001:0001f1e0       ?disposeElements@?$PxPoolBase@VNpConnectorArray@physx@@V?$PxReflectionAllocator@VNpConnectorArray@physx@@@2@@physx@@IEAAXXZ 00000001800201e0 f i NpFactory.obj
 0001:0001f3e0       ?getNbAggregates@NpScene@physx@@UEBAIXZ 00000001800203e0 f   NpScene.obj
 0001:0001f3e0       ?getNbShapes@NpFactory@physx@@QEBAIXZ 00000001800203e0 f   NpFactory.obj
 0001:0001f3f0       ?getAggregates@NpScene@physx@@UEBAIPEAPEAVPxAggregate@2@II@Z 00000001800203f0 f   NpScene.obj
 0001:0001f3f0       ?getShapes@NpFactory@physx@@QEBAIPEAPEAVPxShape@2@II@Z 00000001800203f0 f   NpFactory.obj
 0001:0001f450       ?growAndPushBack@?$PxArray@PEAVPxActor@physx@@V?$PxReflectionAllocator@PEAVPxActor@physx@@@2@@physx@@IEAAAEAPEAVPxActor@2@AEBQEAV32@@Z 0000000180020450 f i NpFactory.obj
 0001:0001f510       ?growAndPushBack@?$PxArray@PEAVPxAggregate@physx@@V?$PxReflectionAllocator@PEAVPxAggregate@physx@@@2@@physx@@IEAAAEAPEAVPxAggregate@2@AEBQEAV32@@Z 0000000180020510 f i NpFactory.obj
 0001:0001f5d0       ?growAndPushBack@?$PxArray@PEAVPxArticulationReducedCoordinate@physx@@V?$PxReflectionAllocator@PEAVPxArticulationReducedCoordinate@physx@@@2@@physx@@IEAAAEAPEAVPxArticulationReducedCoordinate@2@AEBQEAV32@@Z 00000001800205d0 f i NpFactory.obj
 0001:0001f690       ?growAndPushBack@?$PxArray@PEAVPxConstraint@physx@@V?$PxReflectionAllocator@PEAVPxConstraint@physx@@@2@@physx@@IEAAAEAPEAVPxConstraint@2@AEBQEAV32@@Z 0000000180020690 f i NpFactory.obj
 0001:0001f750       ?growAndPushBack@?$PxArray@PEAVPxParticleBuffer@physx@@V?$PxReflectionAllocator@PEAVPxParticleBuffer@physx@@@2@@physx@@IEAAAEAPEAVPxParticleBuffer@2@AEBQEAV32@@Z 0000000180020750 f i NpFactory.obj
 0001:0001f810       ?growAndPushBack@?$PxArray@PEAXV?$PxReflectionAllocator@V?$PtrBlock@$03@NpPtrTableStorageManager@physx@@@physx@@@physx@@IEAAAEAPEAXAEBQEAX@Z 0000000180020810 f i NpFactory.obj
 0001:0001f8d0       ?growAndPushBack@?$PxArray@PEAXV?$PxReflectionAllocator@V?$PtrBlock@$0BA@@NpPtrTableStorageManager@physx@@@physx@@@physx@@IEAAAEAPEAXAEBQEAX@Z 00000001800208d0 f i NpFactory.obj
 0001:0001f990       ?growAndPushBack@?$PxArray@PEAXV?$PxReflectionAllocator@V?$PtrBlock@$0EA@@NpPtrTableStorageManager@physx@@@physx@@@physx@@IEAAAEAPEAXAEBQEAX@Z 0000000180020990 f i NpFactory.obj
 0001:0001fa50       ?growAndPushBack@?$PxArray@PEAXV?$PxReflectionAllocator@VNpAggregate@physx@@@physx@@@physx@@IEAAAEAPEAXAEBQEAX@Z 0000000180020a50 f i NpFactory.obj
 0001:0001fb10       ?growAndPushBack@?$PxArray@PEAXV?$PxReflectionAllocator@VNpArticulationJointReducedCoordinate@physx@@@physx@@@physx@@IEAAAEAPEAXAEBQEAX@Z 0000000180020b10 f i NpFactory.obj
 0001:0001fbd0       ?growAndPushBack@?$PxArray@PEAXV?$PxReflectionAllocator@VNpArticulationLink@physx@@@physx@@@physx@@IEAAAEAPEAXAEBQEAX@Z 0000000180020bd0 f i NpFactory.obj
 0001:0001fc90       ?growAndPushBack@?$PxArray@PEAXV?$PxReflectionAllocator@VNpArticulationReducedCoordinate@physx@@@physx@@@physx@@IEAAAEAPEAXAEBQEAX@Z 0000000180020c90 f i NpFactory.obj
 0001:0001fd50       ?growAndPushBack@?$PxArray@PEAXV?$PxReflectionAllocator@VNpConnectorArray@physx@@@physx@@@physx@@IEAAAEAPEAXAEBQEAX@Z 0000000180020d50 f i NpFactory.obj
 0001:0001fe10       ?growAndPushBack@?$PxArray@PEAXV?$PxReflectionAllocator@VNpConstraint@physx@@@physx@@@physx@@IEAAAEAPEAXAEBQEAX@Z 0000000180020e10 f i NpFactory.obj
 0001:0001fed0       ?growAndPushBack@?$PxArray@PEAXV?$PxReflectionAllocator@VNpFEMSoftBodyMaterial@physx@@@physx@@@physx@@IEAAAEAPEAXAEBQEAX@Z 0000000180020ed0 f i NpFactory.obj
 0001:0001ff90       ?growAndPushBack@?$PxArray@PEAXV?$PxReflectionAllocator@VNpMaterial@physx@@@physx@@@physx@@IEAAAEAPEAXAEBQEAX@Z 0000000180020f90 f i NpFactory.obj
 0001:00020050       ?growAndPushBack@?$PxArray@PEAXV?$PxReflectionAllocator@VNpPBDMaterial@physx@@@physx@@@physx@@IEAAAEAPEAXAEBQEAX@Z 0000000180021050 f i NpFactory.obj
 0001:00020110       ?growAndPushBack@?$PxArray@PEAXV?$PxReflectionAllocator@VNpPBDParticleSystem@physx@@@physx@@@physx@@IEAAAEAPEAXAEBQEAX@Z 0000000180021110 f i NpFactory.obj
 0001:000201d0       ?growAndPushBack@?$PxArray@PEAXV?$PxReflectionAllocator@VNpRigidDynamic@physx@@@physx@@@physx@@IEAAAEAPEAXAEBQEAX@Z 00000001800211d0 f i NpFactory.obj
 0001:00020290       ?growAndPushBack@?$PxArray@PEAXV?$PxReflectionAllocator@VNpRigidStatic@physx@@@physx@@@physx@@IEAAAEAPEAXAEBQEAX@Z 0000000180021290 f i NpFactory.obj
 0001:00020350       ?growAndPushBack@?$PxArray@PEAXV?$PxReflectionAllocator@VNpShape@physx@@@physx@@@physx@@IEAAAEAPEAXAEBQEAX@Z 0000000180021350 f i NpFactory.obj
 0001:00020410       ?growAndPushBack@?$PxArray@PEAXV?$PxReflectionAllocator@VNpSoftBody@physx@@@physx@@@physx@@IEAAAEAPEAXAEBQEAX@Z 0000000180021410 f i NpFactory.obj
 0001:000204d0       ?onActorRelease@NpFactory@physx@@QEAAXPEAVPxActor@2@@Z 00000001800214d0 f   NpFactory.obj
 0001:000205f0       ?onAggregateRelease@NpFactory@physx@@QEAAXPEAVPxAggregate@2@@Z 00000001800215f0 f   NpFactory.obj
 0001:00020710       ?onArticulationRelease@NpFactory@physx@@QEAAXPEAVPxArticulationReducedCoordinate@2@@Z 0000000180021710 f   NpFactory.obj
 0001:00020830       ?onConstraintRelease@NpFactory@physx@@QEAAXPEAVPxConstraint@2@@Z 0000000180021830 f   NpFactory.obj
 0001:00020950       ?onParticleBufferRelease@NpFactory@physx@@SAXPEAVPxParticleBuffer@2@@Z 0000000180021950 f   NpFactory.obj
 0001:00020a80       ?onShapeRelease@NpFactory@physx@@QEAAXPEAVPxShape@2@@Z 0000000180021a80 f   NpFactory.obj
 0001:00020ac0       ?recreate@?$PxArray@GV?$PxInlineAllocator@$07V?$PxReflectionAllocator@G@physx@@@physx@@@physx@@IEAAXI@Z 0000000180021ac0 f i NpFactory.obj
 0001:00020b60       ?recreate@?$PxArray@PEAVPxActor@physx@@V?$PxReflectionAllocator@PEAVPxActor@physx@@@2@@physx@@IEAAXI@Z 0000000180021b60 f i NpFactory.obj
 0001:00020c00       ?recreate@?$PxArray@PEAVPxAggregate@physx@@V?$PxReflectionAllocator@PEAVPxAggregate@physx@@@2@@physx@@IEAAXI@Z 0000000180021c00 f i NpFactory.obj
 0001:00020ca0       ?recreate@?$PxArray@PEAVPxArticulationReducedCoordinate@physx@@V?$PxReflectionAllocator@PEAVPxArticulationReducedCoordinate@physx@@@2@@physx@@IEAAXI@Z 0000000180021ca0 f i NpFactory.obj
 0001:00020d40       ?recreate@?$PxArray@PEAVPxConstraint@physx@@V?$PxReflectionAllocator@PEAVPxConstraint@physx@@@2@@physx@@IEAAXI@Z 0000000180021d40 f i NpFactory.obj
 0001:00020de0       ?recreate@?$PxArray@PEAVPxParticleBuffer@physx@@V?$PxReflectionAllocator@PEAVPxParticleBuffer@physx@@@2@@physx@@IEAAXI@Z 0000000180021de0 f i NpFactory.obj
 0001:00020e80       ?recreate@?$PxArray@PEAXV?$PxReflectionAllocator@V?$PtrBlock@$03@NpPtrTableStorageManager@physx@@@physx@@@physx@@IEAAXI@Z 0000000180021e80 f i NpFactory.obj
 0001:00020f20       ?recreate@?$PxArray@PEAXV?$PxReflectionAllocator@V?$PtrBlock@$0BA@@NpPtrTableStorageManager@physx@@@physx@@@physx@@IEAAXI@Z 0000000180021f20 f i NpFactory.obj
 0001:00020fc0       ?recreate@?$PxArray@PEAXV?$PxReflectionAllocator@V?$PtrBlock@$0EA@@NpPtrTableStorageManager@physx@@@physx@@@physx@@IEAAXI@Z 0000000180021fc0 f i NpFactory.obj
 0001:00021060       ?recreate@?$PxArray@PEAXV?$PxReflectionAllocator@VNpAggregate@physx@@@physx@@@physx@@IEAAXI@Z 0000000180022060 f i NpFactory.obj
 0001:00021100       ?recreate@?$PxArray@PEAXV?$PxReflectionAllocator@VNpArticulationJointReducedCoordinate@physx@@@physx@@@physx@@IEAAXI@Z 0000000180022100 f i NpFactory.obj
 0001:000211a0       ?recreate@?$PxArray@PEAXV?$PxReflectionAllocator@VNpArticulationLink@physx@@@physx@@@physx@@IEAAXI@Z 00000001800221a0 f i NpFactory.obj
 0001:00021240       ?recreate@?$PxArray@PEAXV?$PxReflectionAllocator@VNpArticulationReducedCoordinate@physx@@@physx@@@physx@@IEAAXI@Z 0000000180022240 f i NpFactory.obj
 0001:000212e0       ?recreate@?$PxArray@PEAXV?$PxReflectionAllocator@VNpConnectorArray@physx@@@physx@@@physx@@IEAAXI@Z 00000001800222e0 f i NpFactory.obj
 0001:00021380       ?recreate@?$PxArray@PEAXV?$PxReflectionAllocator@VNpConstraint@physx@@@physx@@@physx@@IEAAXI@Z 0000000180022380 f i NpFactory.obj
 0001:00021420       ?recreate@?$PxArray@PEAXV?$PxReflectionAllocator@VNpFEMSoftBodyMaterial@physx@@@physx@@@physx@@IEAAXI@Z 0000000180022420 f i NpFactory.obj
 0001:000214c0       ?recreate@?$PxArray@PEAXV?$PxReflectionAllocator@VNpMaterial@physx@@@physx@@@physx@@IEAAXI@Z 00000001800224c0 f i NpFactory.obj
 0001:00021560       ?recreate@?$PxArray@PEAXV?$PxReflectionAllocator@VNpPBDMaterial@physx@@@physx@@@physx@@IEAAXI@Z 0000000180022560 f i NpFactory.obj
 0001:00021600       ?recreate@?$PxArray@PEAXV?$PxReflectionAllocator@VNpPBDParticleSystem@physx@@@physx@@@physx@@IEAAXI@Z 0000000180022600 f i NpFactory.obj
 0001:000216a0       ?recreate@?$PxArray@PEAXV?$PxReflectionAllocator@VNpRigidDynamic@physx@@@physx@@@physx@@IEAAXI@Z 00000001800226a0 f i NpFactory.obj
 0001:00021740       ?recreate@?$PxArray@PEAXV?$PxReflectionAllocator@VNpRigidStatic@physx@@@physx@@@physx@@IEAAXI@Z 0000000180022740 f i NpFactory.obj
 0001:000217e0       ?recreate@?$PxArray@PEAXV?$PxReflectionAllocator@VNpShape@physx@@@physx@@@physx@@IEAAXI@Z 00000001800227e0 f i NpFactory.obj
 0001:00021880       ?recreate@?$PxArray@PEAXV?$PxReflectionAllocator@VNpSoftBody@physx@@@physx@@@physx@@IEAAXI@Z 0000000180022880 f i NpFactory.obj
 0001:00021920       ?releaseConnectorArray@NpFactory@physx@@QEAAXPEAVNpConnectorArray@2@@Z 0000000180022920 f   NpFactory.obj
 0001:000219b0       ?releaseFEMMaterialToPool@NpFactory@physx@@QEAAXAEAVPxFEMSoftBodyMaterial@2@@Z 00000001800229b0 f   NpFactory.obj
 0001:00021a10       ?releaseMaterialToPool@NpFactory@physx@@QEAAXAEAVNpMaterial@2@@Z 0000000180022a10 f   NpFactory.obj
 0001:00021a70       ?releasePBDMaterialToPool@NpFactory@physx@@QEAAXAEAVPxPBDMaterial@2@@Z 0000000180022a70 f   NpFactory.obj
 0001:00021ad0       ?reserveInternal@?$PxHashBase@PEAVPxActor@physx@@PEAV12@U?$PxHash@PEAVPxActor@physx@@@2@UGetKey@?$PxHashSetBase@PEAVPxActor@physx@@U?$PxHash@PEAVPxActor@physx@@@2@VPxAllocator@2@$0A@@2@VPxAllocator@2@$0A@@physx@@AEAAXI@Z 0000000180022ad0 f i NpFactory.obj
 0001:00021ad0       ?reserveInternal@?$PxHashBase@PEAVPxAggregate@physx@@PEAV12@U?$PxHash@PEAVPxAggregate@physx@@@2@UGetKey@?$PxHashSetBase@PEAVPxAggregate@physx@@U?$PxHash@PEAVPxAggregate@physx@@@2@VPxAllocator@2@$0A@@2@VPxAllocator@2@$0A@@physx@@AEAAXI@Z 0000000180022ad0 f i NpFactory.obj
 0001:00021ad0       ?reserveInternal@?$PxHashBase@PEAVPxArticulationReducedCoordinate@physx@@PEAV12@U?$PxHash@PEAVPxArticulationReducedCoordinate@physx@@@2@UGetKey@?$PxHashSetBase@PEAVPxArticulationReducedCoordinate@physx@@U?$PxHash@PEAVPxArticulationReducedCoordinate@physx@@@2@VPxAllocator@2@$0A@@2@VPxAllocator@2@$0A@@physx@@AEAAXI@Z 0000000180022ad0 f i NpFactory.obj
 0001:00021ad0       ?reserveInternal@?$PxHashBase@PEAVPxConstraint@physx@@PEAV12@U?$PxHash@PEAVPxConstraint@physx@@@2@UGetKey@?$PxHashSetBase@PEAVPxConstraint@physx@@U?$PxHash@PEAVPxConstraint@physx@@@2@VPxAllocator@2@$0A@@2@VPxAllocator@2@$0A@@physx@@AEAAXI@Z 0000000180022ad0 f i NpFactory.obj
 0001:00021ad0       ?reserveInternal@?$PxHashBase@PEAVPxParticleBuffer@physx@@PEAV12@U?$PxHash@PEAVPxParticleBuffer@physx@@@2@UGetKey@?$PxHashSetBase@PEAVPxParticleBuffer@physx@@U?$PxHash@PEAVPxParticleBuffer@physx@@@2@VPxAllocator@2@$0A@@2@VPxAllocator@2@$0A@@physx@@AEAAXI@Z 0000000180022ad0 f i NpFactory.obj
 0001:00021ad0       ?reserveInternal@?$PxHashBase@PEBVPxBase@physx@@PEBV12@U?$PxHash@PEBVPxBase@physx@@@2@UGetKey@?$PxHashSetBase@PEBVPxBase@physx@@U?$PxHash@PEBVPxBase@physx@@@2@VPxAllocator@2@$0A@@2@VPxAllocator@2@$0A@@physx@@AEAAXI@Z 0000000180022ad0 f i NpPhysics.obj
 0001:00021ec0       ?reserveInternal@?$PxHashBase@PEAVPxAggregate@physx@@PEAV12@U?$PxHash@PEAVPxAggregate@physx@@@2@UGetKey@?$PxHashSetBase@PEAVPxAggregate@physx@@U?$PxHash@PEAVPxAggregate@physx@@@2@VPxAllocator@2@$00@2@VPxAllocator@2@$00@physx@@AEAAXI@Z 0000000180022ec0 f i NpScene.obj
 0001:00021ec0       ?reserveInternal@?$PxHashBase@PEAVPxArticulationReducedCoordinate@physx@@PEAV12@U?$PxHash@PEAVPxArticulationReducedCoordinate@physx@@@2@UGetKey@?$PxHashSetBase@PEAVPxArticulationReducedCoordinate@physx@@U?$PxHash@PEAVPxArticulationReducedCoordinate@physx@@@2@VPxAllocator@2@$00@2@VPxAllocator@2@$00@physx@@AEAAXI@Z 0000000180022ec0 f i NpScene.obj
 0001:00021ec0       ?reserveInternal@?$PxHashBase@PEAVPxFEMCloth@physx@@PEAV12@U?$PxHash@PEAVPxFEMCloth@physx@@@2@UGetKey@?$PxHashSetBase@PEAVPxFEMCloth@physx@@U?$PxHash@PEAVPxFEMCloth@physx@@@2@VPxAllocator@2@$00@2@VPxAllocator@2@$00@physx@@AEAAXI@Z 0000000180022ec0 f i NpScene.obj
 0001:00021ec0       ?reserveInternal@?$PxHashBase@PEAVPxFLIPParticleSystem@physx@@PEAV12@U?$PxHash@PEAVPxFLIPParticleSystem@physx@@@2@UGetKey@?$PxHashSetBase@PEAVPxFLIPParticleSystem@physx@@U?$PxHash@PEAVPxFLIPParticleSystem@physx@@@2@VPxAllocator@2@$00@2@VPxAllocator@2@$00@physx@@AEAAXI@Z 0000000180022ec0 f i NpScene.obj
 0001:00021ec0       ?reserveInternal@?$PxHashBase@PEAVPxHairSystem@physx@@PEAV12@U?$PxHash@PEAVPxHairSystem@physx@@@2@UGetKey@?$PxHashSetBase@PEAVPxHairSystem@physx@@U?$PxHash@PEAVPxHairSystem@physx@@@2@VPxAllocator@2@$00@2@VPxAllocator@2@$00@physx@@AEAAXI@Z 0000000180022ec0 f i NpScene.obj
 0001:00021ec0       ?reserveInternal@?$PxHashBase@PEAVPxMPMParticleSystem@physx@@PEAV12@U?$PxHash@PEAVPxMPMParticleSystem@physx@@@2@UGetKey@?$PxHashSetBase@PEAVPxMPMParticleSystem@physx@@U?$PxHash@PEAVPxMPMParticleSystem@physx@@@2@VPxAllocator@2@$00@2@VPxAllocator@2@$00@physx@@AEAAXI@Z 0000000180022ec0 f i NpScene.obj
 0001:00021ec0       ?reserveInternal@?$PxHashBase@PEAVPxPBDParticleSystem@physx@@PEAV12@U?$PxHash@PEAVPxPBDParticleSystem@physx@@@2@UGetKey@?$PxHashSetBase@PEAVPxPBDParticleSystem@physx@@U?$PxHash@PEAVPxPBDParticleSystem@physx@@@2@VPxAllocator@2@$00@2@VPxAllocator@2@$00@physx@@AEAAXI@Z 0000000180022ec0 f i NpScene.obj
 0001:00021ec0       ?reserveInternal@?$PxHashBase@PEAVPxShape@physx@@PEAV12@U?$PxHash@PEAVPxShape@physx@@@2@UGetKey@?$PxHashSetBase@PEAVPxShape@physx@@U?$PxHash@PEAVPxShape@physx@@@2@VPxAllocator@2@$00@2@VPxAllocator@2@$00@physx@@AEAAXI@Z 0000000180022ec0 f i NpFactory.obj
 0001:00021ec0       ?reserveInternal@?$PxHashBase@PEAVPxSoftBody@physx@@PEAV12@U?$PxHash@PEAVPxSoftBody@physx@@@2@UGetKey@?$PxHashSetBase@PEAVPxSoftBody@physx@@U?$PxHash@PEAVPxSoftBody@physx@@@2@VPxAllocator@2@$00@2@VPxAllocator@2@$00@physx@@AEAAXI@Z 0000000180022ec0 f i NpScene.obj
 0001:00022090       ?resize@?$PxArray@GV?$PxInlineAllocator@$07V?$PxReflectionAllocator@G@physx@@@physx@@@physx@@QEAAXIAEBG@Z 0000000180023090 f i NpFactory.obj
 0001:00022150       ?getBinaryMetaData@NpAggregate@physx@@SAXAEAVPxOutputStream@2@@Z 0000000180023150 f   NpMetaData.obj
 0001:00022450       ?getBinaryMetaData@NpArticulationAttachment@physx@@SAXAEAVPxOutputStream@2@@Z 0000000180023450 f   NpMetaData.obj
 0001:00022720       ?getBinaryMetaData@NpArticulationAttachmentArray@physx@@SAXAEAVPxOutputStream@2@@Z 0000000180023720 f   NpMetaData.obj
 0001:00022950       ?getBinaryMetaData@NpArticulationFixedTendon@physx@@SAXAEAVPxOutputStream@2@@Z 0000000180023950 f   NpMetaData.obj
 0001:00022bb0       ?getBinaryMetaData@NpArticulationLink@physx@@SAXAEAVPxOutputStream@2@@Z 0000000180023bb0 f   NpMetaData.obj
 0001:00022f40       ?getBinaryMetaData@NpArticulationLinkArray@physx@@SAXAEAVPxOutputStream@2@@Z 0000000180023f40 f   NpMetaData.obj
 0001:00023170       ?getBinaryMetaData@NpArticulationReducedCoordinate@physx@@SAXAEAVPxOutputStream@2@@Z 0000000180024170 f   NpMetaData.obj
 0001:000239e0       ?getBinaryMetaData@NpArticulationSpatialTendon@physx@@SAXAEAVPxOutputStream@2@@Z 00000001800249e0 f   NpMetaData.obj
 0001:00023c40       ?getBinaryMetaData@NpArticulationTendonJoint@physx@@SAXAEAVPxOutputStream@2@@Z 0000000180024c40 f   NpMetaData.obj
 0001:00023ef0       ?getBinaryMetaData@NpArticulationTendonJointArray@physx@@SAXAEAVPxOutputStream@2@@Z 0000000180024ef0 f   NpMetaData.obj
 0001:00024120       ?getBinaryMetaData@NpConnectorArray@physx@@SAXAEAVPxOutputStream@2@@Z 0000000180025120 f   NpMetaData.obj
 0001:00024350       ?getBinaryMetaData@NpRigidDynamic@physx@@SAXAEAVPxOutputStream@2@@Z 0000000180025350 f   NpMetaData.obj
 0001:00024560       ?getBinaryMetaData@NpRigidStatic@physx@@SAXAEAVPxOutputStream@2@@Z 0000000180025560 f   NpMetaData.obj
 0001:000255a0       PxGetPhysicsBinaryMetaData 00000001800265a0 f   NpMetaData.obj
 0001:00026470       ??0NpPhysics@physx@@IEAA@AEBVPxTolerancesScale@1@AEBUPxvOffsetTable@1@_NPEAVPsPvd@pvdsdk@1@AEAVPxFoundation@1@PEAVPxOmniPvd@1@@Z 0000000180027470 f   NpPhysics.obj
 0001:00026770       ??1NpPhysics@physx@@MEAA@XZ 0000000180027770 f   NpPhysics.obj
 0001:00026c80       ??_EAdapter@Sq@physx@@UEAAPEAXI@Z 0000000180027c80 f i NpSceneQueries.obj
 0001:00026c80       ??_ECompoundPrunerOverlapCallback@Sq@physx@@UEAAPEAXI@Z 0000000180027c80 f i SceneQuery_static_64:SqQuery.obj
 0001:00026c80       ??_ECompoundPrunerRaycastCallback@Sq@physx@@UEAAPEAXI@Z 0000000180027c80 f i SceneQuery_static_64:SqQuery.obj
 0001:00026c80       ??_EDebugVizCallback@physx@@UEAAPEAXI@Z 0000000180027c80 f i SceneQuery_static_64:SqCompoundPruner.obj
 0001:00026c80       ??_EMeshDeletionListener@NpPhysics@physx@@UEAAPEAXI@Z 0000000180027c80 f i NpPhysics.obj
 0001:00026c80       ??_EMeshFactoryListener@Gu@physx@@MEAAPEAXI@Z 0000000180027c80 f i NpPhysics.obj
 0001:00026c80       ??_EPrunerOverlapCallback@Gu@physx@@UEAAPEAXI@Z 0000000180027c80 f i SceneQuery_static_64:SqQuery.obj
 0001:00026c80       ??_EPrunerPayloadRemovalCallback@Gu@physx@@UEAAPEAXI@Z 0000000180027c80 f i NpSceneQueries.obj
 0001:00026c80       ??_EPrunerRaycastCallback@Gu@physx@@UEAAPEAXI@Z 0000000180027c80 f i SceneQuery_static_64:SqQuery.obj
 0001:00026c80       ??_EPxProcessPxBaseCallback@physx@@UEAAPEAXI@Z 0000000180027c80 f i NpSerializerAdapter.obj
 0001:00026c80       ??_GAdapter@Sq@physx@@UEAAPEAXI@Z 0000000180027c80 f i NpSceneQueries.obj
 0001:00026c80       ??_GCompoundPrunerOverlapCallback@Sq@physx@@UEAAPEAXI@Z 0000000180027c80 f i SceneQuery_static_64:SqQuery.obj
 0001:00026c80       ??_GCompoundPrunerRaycastCallback@Sq@physx@@UEAAPEAXI@Z 0000000180027c80 f i SceneQuery_static_64:SqQuery.obj
 0001:00026c80       ??_GDebugVizCallback@physx@@UEAAPEAXI@Z 0000000180027c80 f i SceneQuery_static_64:SqCompoundPruner.obj
 0001:00026c80       ??_GMeshDeletionListener@NpPhysics@physx@@UEAAPEAXI@Z 0000000180027c80 f i NpPhysics.obj
 0001:00026c80       ??_GMeshFactoryListener@Gu@physx@@MEAAPEAXI@Z 0000000180027c80 f i NpPhysics.obj
 0001:00026c80       ??_GPrunerOverlapCallback@Gu@physx@@UEAAPEAXI@Z 0000000180027c80 f i SceneQuery_static_64:SqQuery.obj
 0001:00026c80       ??_GPrunerPayloadRemovalCallback@Gu@physx@@UEAAPEAXI@Z 0000000180027c80 f i NpSceneQueries.obj
 0001:00026c80       ??_GPrunerRaycastCallback@Gu@physx@@UEAAPEAXI@Z 0000000180027c80 f i SceneQuery_static_64:SqQuery.obj
 0001:00026c80       ??_GPxProcessPxBaseCallback@physx@@UEAAPEAXI@Z 0000000180027c80 f i NpSerializerAdapter.obj
 0001:00026cb0       ??_ENpPhysics@physx@@MEAAPEAXI@Z 0000000180027cb0 f i NpPhysics.obj
 0001:00026cb0       ??_GNpPhysics@physx@@MEAAPEAXI@Z 0000000180027cb0 f i NpPhysics.obj
 0001:00026d20       ??_ENpPhysicsInsertionCallback@physx@@UEAAPEAXI@Z 0000000180027d20 f i NpPhysics.obj
 0001:00026d20       ??_EPxInsertionCallback@physx@@MEAAPEAXI@Z 0000000180027d20 f i NpPhysics.obj
 0001:00026d20       ??_ESqBoundsSync@Sc@physx@@UEAAPEAXI@Z 0000000180027d20 f i NpSceneQueries.obj
 0001:00026d20       ??_ESqRefFinder@Sc@physx@@UEAAPEAXI@Z 0000000180027d20 f i NpSceneQueries.obj
 0001:00026d20       ??_GNpPhysicsInsertionCallback@physx@@UEAAPEAXI@Z 0000000180027d20 f i NpPhysics.obj
 0001:00026d20       ??_GPxInsertionCallback@physx@@MEAAPEAXI@Z 0000000180027d20 f i NpPhysics.obj
 0001:00026d20       ??_GSqBoundsSync@Sc@physx@@UEAAPEAXI@Z 0000000180027d20 f i NpSceneQueries.obj
 0001:00026d20       ??_GSqRefFinder@Sc@physx@@UEAAPEAXI@Z 0000000180027d20 f i NpSceneQueries.obj
 0001:00026d50       ??_EPxPhysics@physx@@UEAAPEAXI@Z 0000000180027d50 f i NpPhysics.obj
 0001:00026d50       ??_GPxPhysics@physx@@UEAAPEAXI@Z 0000000180027d50 f i NpPhysics.obj
 0001:00026d80       ?addMaterial@NpPhysics@physx@@QEAAPEAVNpFEMSoftBodyMaterial@2@PEAV32@@Z 0000000180027d80 f   NpPhysics.obj
 0001:00026e70       ?addMaterial@NpPhysics@physx@@QEAAPEAVNpMaterial@2@PEAV32@@Z 0000000180027e70 f   NpPhysics.obj
 0001:00026f60       ?buildObjectFromData@NpPhysicsInsertionCallback@physx@@UEAAPEAVPxBase@2@W4Enum@PxConcreteType@2@PEAX@Z 0000000180027f60 f i NpPhysics.obj
 0001:00027040       ?create@?$PxHashBase@V?$PxPair@QEAVPxDeletionListener@physx@@PEAUNpDelListenerEntry@NpPhysics@2@@physx@@PEAVPxDeletionListener@2@U?$PxHash@PEAVPxDeletionListener@physx@@@2@UGetKey@?$PxHashMapBase@PEAVPxDeletionListener@physx@@PEAUNpDelListenerEntry@NpPhysics@2@U?$PxHash@PEAVPxDeletionListener@physx@@@2@VPxAllocator@2@@2@VPxAllocator@2@$00@physx@@QEAAPEAV?$PxPair@QEAVPxDeletionListener@physx@@PEAUNpDelListenerEntry@NpPhysics@2@@2@AEBQEAVPxDeletionListener@2@AEA_N@Z 0000000180028040 f i NpPhysics.obj
 0001:000271d0       ?createAggregate@NpPhysics@physx@@UEAAPEAVPxAggregate@2@III@Z 00000001800281d0 f   NpPhysics.obj
 0001:000271e0       ?createArticulationReducedCoordinate@NpPhysics@physx@@UEAAPEAVPxArticulationReducedCoordinate@2@XZ 00000001800281e0 f   NpPhysics.obj
 0001:000271f0       ?createBVH@NpPhysics@physx@@UEAAPEAVPxBVH@2@AEAVPxInputStream@2@@Z 00000001800281f0 f   NpPhysics.obj
 0001:00027200       ?createConstraint@NpPhysics@physx@@UEAAPEAVPxConstraint@2@PEAVPxRigidActor@2@0AEAVPxConstraintConnector@2@AEBUPxConstraintShaderTable@2@I@Z 0000000180028200 f   NpPhysics.obj
 0001:00027210       ?createConvexMesh@NpPhysics@physx@@UEAAPEAVPxConvexMesh@2@AEAVPxInputStream@2@@Z 0000000180028210 f   NpPhysics.obj
 0001:00027220       ?createFEMSoftBodyMaterial@NpPhysics@physx@@UEAAPEAVPxFEMSoftBodyMaterial@2@MMM@Z 0000000180028220 f   NpPhysics.obj
 0001:00027320       ?createHeightField@NpPhysics@physx@@UEAAPEAVPxHeightField@2@AEAVPxInputStream@2@@Z 0000000180028320 f   NpPhysics.obj
 0001:00027330       ?createInstance@NpPhysics@physx@@SAPEAV12@IAEAVPxFoundation@2@AEBVPxTolerancesScale@2@_NPEAVPsPvd@pvdsdk@2@PEAVPxOmniPvd@2@@Z 0000000180028330 f   NpPhysics.obj
 0001:000275b0       ?createMaterial@NpPhysics@physx@@UEAAPEAVPxMaterial@2@MMM@Z 00000001800285b0 f   NpPhysics.obj
 0001:000276b0       ?createPBDMaterial@NpPhysics@physx@@UEAAPEAVPxPBDMaterial@2@MMMMMMMMMMM@Z 00000001800286b0 f   NpPhysics.obj
 0001:00027830       ?createPBDParticleSystem@NpPhysics@physx@@UEAAPEAVPxPBDParticleSystem@2@AEAVPxCudaContextManager@2@I@Z 0000000180028830 f   NpPhysics.obj
 0001:00027850       ?createParticleAndDiffuseBuffer@NpPhysics@physx@@UEAAPEAVPxParticleAndDiffuseBuffer@2@IIIPEAVPxCudaContextManager@2@@Z 0000000180028850 f   NpPhysics.obj
 0001:00027860       ?createParticleBuffer@NpPhysics@physx@@UEAAPEAVPxParticleBuffer@2@IIPEAVPxCudaContextManager@2@@Z 0000000180028860 f   NpPhysics.obj
 0001:00027870       ?createParticleClothBuffer@NpPhysics@physx@@UEAAPEAVPxParticleClothBuffer@2@IIIIIPEAVPxCudaContextManager@2@@Z 0000000180028870 f   NpPhysics.obj
 0001:00027880       ?createParticleRigidBuffer@NpPhysics@physx@@UEAAPEAVPxParticleRigidBuffer@2@IIIPEAVPxCudaContextManager@2@@Z 0000000180028880 f   NpPhysics.obj
 0001:00027890       ?createPruningStructure@NpPhysics@physx@@UEAAPEAVPxPruningStructure@2@PEBQEAVPxRigidActor@2@I@Z 0000000180028890 f   NpPhysics.obj
 0001:00027980       ?createRigidDynamic@NpPhysics@physx@@UEAAPEAVPxRigidDynamic@2@AEBV?$PxTransformT@M@2@@Z 0000000180028980 f   NpPhysics.obj
 0001:00027a40       ?createRigidStatic@NpPhysics@physx@@UEAAPEAVPxRigidStatic@2@AEBV?$PxTransformT@M@2@@Z 0000000180028a40 f   NpPhysics.obj
 0001:00027b00       ?createScene@NpPhysics@physx@@UEAAPEAVPxScene@2@AEBVPxSceneDesc@2@@Z 0000000180028b00 f   NpPhysics.obj
 0001:00027c80       ?createShape@NpPhysics@physx@@UEAAPEAVPxShape@2@AEBVPxGeometry@2@PEBQEAVPxFEMSoftBodyMaterial@2@G_NV?$PxFlags@W4Enum@PxShapeFlag@physx@@E@2@@Z 0000000180028c80 f   NpPhysics.obj
 0001:00027cc0       ?createShape@NpPhysics@physx@@UEAAPEAVPxShape@2@AEBVPxGeometry@2@PEBQEAVPxMaterial@2@G_NV?$PxFlags@W4Enum@PxShapeFlag@physx@@E@2@@Z 0000000180028cc0 f   NpPhysics.obj
 0001:00027d00       ?createSoftBody@NpPhysics@physx@@UEAAPEAVPxSoftBody@2@AEAVPxCudaContextManager@2@@Z 0000000180028d00 f   NpPhysics.obj
 0001:00027d10       ?createSoftBodyMesh@NpPhysics@physx@@UEAAPEAVPxSoftBodyMesh@2@AEAVPxInputStream@2@@Z 0000000180028d10 f   NpPhysics.obj
 0001:00027d20       ?createTetrahedronMesh@NpPhysics@physx@@UEAAPEAVPxTetrahedronMesh@2@AEAVPxInputStream@2@@Z 0000000180028d20 f   NpPhysics.obj
 0001:00027d30       ?createTriangleMesh@NpPhysics@physx@@UEAAPEAVPxTriangleMesh@2@AEAVPxInputStream@2@@Z 0000000180028d30 f   NpPhysics.obj
 0001:00027d40       ?erase@?$PxHashBase@V?$PxPair@QEAVPxDeletionListener@physx@@PEAUNpDelListenerEntry@NpPhysics@2@@physx@@PEAVPxDeletionListener@2@U?$PxHash@PEAVPxDeletionListener@physx@@@2@UGetKey@?$PxHashMapBase@PEAVPxDeletionListener@physx@@PEAUNpDelListenerEntry@NpPhysics@2@U?$PxHash@PEAVPxDeletionListener@physx@@@2@VPxAllocator@2@@2@VPxAllocator@2@$00@physx@@QEAA_NAEBQEAVPxDeletionListener@2@@Z 0000000180028d40 f i NpPhysics.obj
 0001:00027ef0       ?getBVHs@NpPhysics@physx@@UEBAIPEAPEAVPxBVH@2@II@Z 0000000180028ef0 f   NpPhysics.obj
 0001:00027f00       ?getConvexMeshes@NpPhysics@physx@@UEBAIPEAPEAVPxConvexMesh@2@II@Z 0000000180028f00 f   NpPhysics.obj
 0001:00027f10       ?getFEMSoftBodyMaterials@NpPhysics@physx@@UEBAIPEAPEAVPxFEMSoftBodyMaterial@2@II@Z 0000000180028f10 f   NpPhysics.obj
 0001:00027fd0       ?getHeightFields@NpPhysics@physx@@UEBAIPEAPEAVPxHeightField@2@II@Z 0000000180028fd0 f   NpPhysics.obj
 0001:00027fe0       ?getMaterials@NpPhysics@physx@@UEBAIPEAPEAVPxMaterial@2@II@Z 0000000180028fe0 f   NpPhysics.obj
 0001:000280a0       ?getNbBVHs@NpPhysics@physx@@UEBAIXZ 00000001800290a0 f   NpPhysics.obj
 0001:000280b0       ?getNbConvexMeshes@NpPhysics@physx@@UEBAIXZ 00000001800290b0 f   NpPhysics.obj
 0001:000280c0       ?getNbFEMSoftBodyMaterials@NpPhysics@physx@@UEBAIXZ 00000001800290c0 f   NpPhysics.obj
 0001:00028100       ?getNbHeightFields@NpPhysics@physx@@UEBAIXZ 0000000180029100 f   NpPhysics.obj
 0001:00028110       ?getNbMaterials@NpPhysics@physx@@UEBAIXZ 0000000180029110 f   NpPhysics.obj
 0001:00028150       ?getNbPBDMaterials@NpPhysics@physx@@UEBAIXZ 0000000180029150 f   NpPhysics.obj
 0001:00028190       ?getNbScenes@NpPhysics@physx@@UEBAIXZ 0000000180029190 f   NpPhysics.obj
 0001:000281d0       ?getNbShapes@NpPhysics@physx@@UEBAIXZ 00000001800291d0 f   NpPhysics.obj
 0001:000281e0       ?getNbTetrahedronMeshes@NpPhysics@physx@@UEBAIXZ 00000001800291e0 f   NpPhysics.obj
 0001:000281f0       ?getNbTriangleMeshes@NpPhysics@physx@@UEBAIXZ 00000001800291f0 f   NpPhysics.obj
 0001:00028200       ?getPBDMaterials@NpPhysics@physx@@UEBAIPEAPEAVPxPBDMaterial@2@II@Z 0000000180029200 f   NpPhysics.obj
 0001:000282c0       ?getPhysicsInsertionCallback@NpPhysics@physx@@UEAAAEAVPxInsertionCallback@2@XZ 00000001800292c0 f i NpPhysics.obj
 0001:000282d0       ?getScenes@NpPhysics@physx@@UEBAIPEAPEAVPxScene@2@II@Z 00000001800292d0 f   NpPhysics.obj
 0001:00028360       ?getShapes@NpPhysics@physx@@UEBAIPEAPEAVPxShape@2@II@Z 0000000180029360 f   NpPhysics.obj
 0001:00028370       ?getTetrahedronMeshes@NpPhysics@physx@@UEBAIPEAPEAVPxTetrahedronMesh@2@II@Z 0000000180029370 f   NpPhysics.obj
 0001:00028380       ?getTolerancesScale@NpPhysics@physx@@UEBAAEBVPxTolerancesScale@2@XZ 0000000180029380 f   NpPhysics.obj
 0001:00028390       ?getTriangleMeshes@NpPhysics@physx@@UEBAIPEAPEAVPxTriangleMesh@2@II@Z 0000000180029390 f   NpPhysics.obj
 0001:000283a0       ?growAndPushBack@?$PxArray@IV?$PxReflectionAllocator@I@physx@@@physx@@IEAAAEAIAEBI@Z 00000001800293a0 f i NpPhysics.obj
 0001:00028460       ?growAndPushBack@?$PxArray@PEAVNpScene@physx@@V?$PxReflectionAllocator@PEAVNpScene@physx@@@2@@physx@@IEAAAEAPEAVNpScene@2@AEBQEAV32@@Z 0000000180029460 f i NpPhysics.obj
 0001:00028580       ?notifyDeletionListeners@NpPhysics@physx@@QEAAXPEBVPxBase@2@PEAXW4Enum@PxDeletionEventFlag@2@@Z 0000000180029580 f   NpPhysics.obj
 0001:000286e0       ?onMeshFactoryBufferRelease@MeshDeletionListener@NpPhysics@physx@@UEAAXPEBVPxBase@3@G@Z 00000001800296e0 f i NpPhysics.obj
 0001:00028830       ?registerDeletionListener@NpPhysics@physx@@UEAAXAEAVPxDeletionListener@2@AEBV?$PxFlags@W4Enum@PxDeletionEventFlag@physx@@E@2@_N@Z 0000000180029830 f   NpPhysics.obj
 0001:00028a30       ?registerDeletionListenerObjects@NpPhysics@physx@@UEAAXAEAVPxDeletionListener@2@PEBQEBVPxBase@2@I@Z 0000000180029a30 f   NpPhysics.obj
 0001:00028b80       ?release@NpPhysics@physx@@UEAAXXZ 0000000180029b80 f   NpPhysics.obj
 0001:00028bd0       ?releaseSceneInternal@NpPhysics@physx@@QEAAXAEAVPxScene@2@@Z 0000000180029bd0 f   NpPhysics.obj
 0001:00028c50       ?removeMaterialFromTable@NpPhysics@physx@@QEAAXAEAVNpFEMSoftBodyMaterial@2@@Z 0000000180029c50 f   NpPhysics.obj
 0001:00028d40       ?removeMaterialFromTable@NpPhysics@physx@@QEAAXAEAVNpMaterial@2@@Z 0000000180029d40 f   NpPhysics.obj
 0001:00028e30       ?removeMaterialFromTable@NpPhysics@physx@@QEAAXAEAVNpPBDMaterial@2@@Z 0000000180029e30 f   NpPhysics.obj
 0001:00028f30       ?reserveInternal@?$PxHashBase@V?$PxPair@QEAVPxDeletionListener@physx@@PEAUNpDelListenerEntry@NpPhysics@2@@physx@@PEAVPxDeletionListener@2@U?$PxHash@PEAVPxDeletionListener@physx@@@2@UGetKey@?$PxHashMapBase@PEAVPxDeletionListener@physx@@PEAUNpDelListenerEntry@NpPhysics@2@U?$PxHash@PEAVPxDeletionListener@physx@@@2@VPxAllocator@2@@2@VPxAllocator@2@$00@physx@@AEAAXI@Z 0000000180029f30 f i NpPhysics.obj
 0001:00029110       ?sendMaterialTable@NpPhysics@physx@@QEAA_NAEAVNpScene@2@@Z 000000018002a110 f   NpPhysics.obj
 0001:00029220       ?setMaterial@?$NpMaterialManager@VNpFEMSoftBodyMaterial@physx@@@physx@@QEAA_NAEAVNpFEMSoftBodyMaterial@2@@Z 000000018002a220 f i NpPhysics.obj
 0001:00029360       ?setMaterial@?$NpMaterialManager@VNpMaterial@physx@@@physx@@QEAA_NAEAVNpMaterial@2@@Z 000000018002a360 f i NpPhysics.obj
 0001:000294a0       ?setMaterial@?$NpMaterialManager@VNpPBDMaterial@physx@@@physx@@QEAA_NAEAVNpPBDMaterial@2@@Z 000000018002a4a0 f i NpPhysics.obj
 0001:000295e0       ?unregisterDeletionListener@NpPhysics@physx@@UEAAXAEAVPxDeletionListener@2@@Z 000000018002a5e0 f   NpPhysics.obj
 0001:00029730       ?unregisterDeletionListenerObjects@NpPhysics@physx@@UEAAXAEAVPxDeletionListener@2@PEBQEBVPxBase@2@I@Z 000000018002a730 f   NpPhysics.obj
 0001:00029920       ?updateMaterial@NpPhysics@physx@@QEAAXAEAVNpFEMSoftBodyMaterial@2@@Z 000000018002a920 f   NpPhysics.obj
 0001:000299b0       ?updateMaterial@NpPhysics@physx@@QEAAXAEAVNpMaterial@2@@Z 000000018002a9b0 f   NpPhysics.obj
 0001:00029a40       ?updateMaterial@NpPhysics@physx@@QEAAXAEAVNpPBDMaterial@2@@Z 000000018002aa40 f   NpPhysics.obj
 0001:00029ad0       PxAddCollectionToPhysics   000000018002aad0 f   NpPhysics.obj
 0001:00029ae0       PxCreatePhysics            000000018002aae0 f   NpPhysics.obj
 0001:00029af0       PxGetPhysics               000000018002aaf0 f   NpPhysics.obj
 0001:00029f70       ??0PruningStructure@Sq@physx@@QEAA@XZ 000000018002af70 f   NpPruningStructure.obj
 0001:00029fc0       ??_EPruningStructure@Sq@physx@@UEAAPEAXI@Z 000000018002afc0 f i NpPruningStructure.obj
 0001:00029fc0       ??_GPruningStructure@Sq@physx@@UEAAPEAXI@Z 000000018002afc0 f i NpPruningStructure.obj
 0001:0002a100       ?build@PruningStructure@Sq@physx@@QEAA_NPEBQEAVPxRigidActor@3@I@Z 000000018002b100 f   NpPruningStructure.obj
 0001:0002a810       ?createObject@PruningStructure@Sq@physx@@SAPEAV123@AEAPEAEAEAVPxDeserializationContext@3@@Z 000000018002b810 f   NpPruningStructure.obj
 0001:0002a970       ?exportExtraData@PruningStructure@Sq@physx@@QEAAXAEAVPxSerializationContext@3@@Z 000000018002b970 f   NpPruningStructure.obj
 0001:0002aaa0       ?getConcreteTypeName@PxPruningStructure@physx@@UEBAPEBDXZ 000000018002baa0 f i NpPruningStructure.obj
 0001:0002aab0       ?getDynamicMergeData@PruningStructure@Sq@physx@@UEBAPEBXXZ 000000018002bab0 f   NpPruningStructure.obj
 0001:0002aac0       ?getRigidActors@PruningStructure@Sq@physx@@UEBAIPEAPEAVPxRigidActor@3@II@Z 000000018002bac0 f   NpPruningStructure.obj
 0001:0002ab50       ?getStaticMergeData@PruningStructure@Sq@physx@@UEBAPEBXXZ 000000018002bb50 f   NpPruningStructure.obj
 0001:0002ab60       ?invalidate@PruningStructure@Sq@physx@@QEAAXPEAVPxActor@3@@Z 000000018002bb60 f   NpPruningStructure.obj
 0001:0002abf0       ?isKindOf@PxPruningStructure@physx@@MEBA_NPEBD@Z 000000018002bbf0 f i NpPruningStructure.obj
 0001:0002ac40       ?release@PruningStructure@Sq@physx@@UEAAXXZ 000000018002bc40 f   NpPruningStructure.obj
 0001:0002aca0       ?requiresObjects@PruningStructure@Sq@physx@@UEAAXAEAVPxProcessPxBaseCallback@3@@Z 000000018002bca0 f   NpPruningStructure.obj
 0001:0002acf0       ?resolveReferences@PruningStructure@Sq@physx@@UEAAXAEAVPxDeserializationContext@3@@Z 000000018002bcf0 f   NpPruningStructure.obj
 0001:0002ade0       ??0NpRigidDynamic@physx@@QEAA@AEBV?$PxTransformT@M@1@@Z 000000018002bde0 f   NpRigidDynamic.obj
 0001:0002ae70       ??_E?$NpActorTemplate@VPxRigidDynamic@physx@@@physx@@UEAAPEAXI@Z 000000018002be70 f i NpRigidDynamic.obj
 0001:0002ae70       ??_G?$NpActorTemplate@VPxRigidDynamic@physx@@@physx@@UEAAPEAXI@Z 000000018002be70 f i NpRigidDynamic.obj
 0001:0002aef0       ??_E?$NpRigidActorTemplate@VPxRigidDynamic@physx@@@physx@@UEAAPEAXI@Z 000000018002bef0 f i NpRigidDynamic.obj
 0001:0002aef0       ??_G?$NpRigidActorTemplate@VPxRigidDynamic@physx@@@physx@@UEAAPEAXI@Z 000000018002bef0 f i NpRigidDynamic.obj
 0001:0002af80       ??_E?$NpRigidBodyTemplate@VPxRigidDynamic@physx@@@physx@@UEAAPEAXI@Z 000000018002bf80 f i NpRigidDynamic.obj
 0001:0002af80       ??_ENpRigidDynamic@physx@@UEAAPEAXI@Z 000000018002bf80 f i NpRigidDynamic.obj
 0001:0002af80       ??_G?$NpRigidBodyTemplate@VPxRigidDynamic@physx@@@physx@@UEAAPEAXI@Z 000000018002bf80 f i NpRigidDynamic.obj
 0001:0002af80       ??_GNpRigidDynamic@physx@@UEAAPEAXI@Z 000000018002bf80 f i NpRigidDynamic.obj
 0001:0002b020       ?NpArticulationGetShapes@physx@@YAIAEAVNpArticulationLink@1@AEAPEBQEAVNpShape@1@PEA_N@Z 000000018002c020 f   NpArticulationLink.obj
 0001:0002b020       ?NpRigidDynamicGetShapes@physx@@YAIAEAVNpRigidDynamic@1@AEAPEBQEAVNpShape@1@PEA_N@Z 000000018002c020 f   NpRigidDynamic.obj
 0001:0002b050       ?addForce@NpRigidDynamic@physx@@UEAAXAEBV?$PxVec3T@M@2@W4Enum@PxForceMode@2@_N@Z 000000018002c050 f   NpRigidDynamic.obj
 0001:0002b130       ?addSpatialForce@?$NpRigidBodyTemplate@VPxRigidDynamic@physx@@@physx@@IEAAXPEBV?$PxVec3T@M@2@0W4Enum@PxForceMode@2@@Z 000000018002c130 f i NpRigidDynamic.obj
 0001:0002b360       ?addTorque@NpRigidDynamic@physx@@UEAAXAEBV?$PxVec3T@M@2@W4Enum@PxForceMode@2@_N@Z 000000018002c360 f   NpRigidDynamic.obj
 0001:0002b440       ?attachShape@?$NpRigidActorTemplate@VPxArticulationLink@physx@@@physx@@UEAA_NAEAVPxShape@2@@Z 000000018002c440 f i NpArticulationLink.obj
 0001:0002b440       ?attachShape@?$NpRigidActorTemplate@VPxRigidDynamic@physx@@@physx@@UEAA_NAEAVPxShape@2@@Z 000000018002c440 f i NpRigidDynamic.obj
 0001:0002b440       ?attachShape@?$NpRigidActorTemplate@VPxRigidStatic@physx@@@physx@@UEAA_NAEAVPxShape@2@@Z 000000018002c440 f i NpRigidStatic.obj
 0001:0002b440       ?attachShape@?$NpRigidBodyTemplate@VPxRigidDynamic@physx@@@physx@@UEAA_NAEAVPxShape@2@@Z 000000018002c440 f i NpRigidDynamic.obj
 0001:0002b530       ?clearForce@NpRigidDynamic@physx@@UEAAXW4Enum@PxForceMode@2@@Z 000000018002c530 f   NpRigidDynamic.obj
 0001:0002b5e0       ?clearTorque@NpRigidDynamic@physx@@UEAAXW4Enum@PxForceMode@2@@Z 000000018002c5e0 f   NpRigidDynamic.obj
 0001:0002b690       ?createObject@NpRigidDynamic@physx@@SAPEAV12@AEAPEAEAEAVPxDeserializationContext@2@@Z 000000018002c690 f   NpRigidDynamic.obj
 0001:0002b790       ?detachShape@?$NpRigidActorTemplate@VPxArticulationLink@physx@@@physx@@UEAAXAEAVPxShape@2@_N@Z 000000018002c790 f i NpArticulationLink.obj
 0001:0002b790       ?detachShape@?$NpRigidActorTemplate@VPxRigidDynamic@physx@@@physx@@UEAAXAEAVPxShape@2@_N@Z 000000018002c790 f i NpRigidDynamic.obj
 0001:0002b790       ?detachShape@?$NpRigidActorTemplate@VPxRigidStatic@physx@@@physx@@UEAAXAEAVPxShape@2@_N@Z 000000018002c790 f i NpRigidStatic.obj
 0001:0002b870       ?exportExtraData@?$NpRigidActorTemplate@VPxArticulationLink@physx@@@physx@@UEAAXAEAVPxSerializationContext@2@@Z 000000018002c870 f i NpArticulationLink.obj
 0001:0002b870       ?exportExtraData@?$NpRigidActorTemplate@VPxRigidDynamic@physx@@@physx@@UEAAXAEAVPxSerializationContext@2@@Z 000000018002c870 f i NpRigidDynamic.obj
 0001:0002b870       ?exportExtraData@?$NpRigidActorTemplate@VPxRigidStatic@physx@@@physx@@UEAAXAEAVPxSerializationContext@2@@Z 000000018002c870 f i NpRigidStatic.obj
 0001:0002b8a0       ?getAngularDamping@?$NpRigidBodyTemplate@VPxArticulationLink@physx@@@physx@@UEBAMXZ 000000018002c8a0 f i NpArticulationLink.obj
 0001:0002b8a0       ?getAngularDamping@?$NpRigidBodyTemplate@VPxRigidDynamic@physx@@@physx@@UEBAMXZ 000000018002c8a0 f i NpRigidDynamic.obj
 0001:0002b8b0       ?getAngularVelocity@?$NpRigidBodyTemplate@VPxArticulationLink@physx@@@physx@@UEBA?AV?$PxVec3T@M@2@XZ 000000018002c8b0 f i NpArticulationLink.obj
 0001:0002b8b0       ?getAngularVelocity@?$NpRigidBodyTemplate@VPxRigidDynamic@physx@@@physx@@UEBA?AV?$PxVec3T@M@2@XZ 000000018002c8b0 f i NpRigidDynamic.obj
 0001:0002b940       ?getCMassLocalPose@?$NpRigidBodyTemplate@VPxArticulationLink@physx@@@physx@@UEBA?AV?$PxTransformT@M@2@XZ 000000018002c940 f i NpArticulationLink.obj
 0001:0002b940       ?getCMassLocalPose@?$NpRigidBodyTemplate@VPxRigidDynamic@physx@@@physx@@UEBA?AV?$PxTransformT@M@2@XZ 000000018002c940 f i NpRigidDynamic.obj
 0001:0002b990       ?getConcreteTypeName@PxRigidDynamic@physx@@UEBAPEBDXZ 000000018002c990 f i NpRigidDynamic.obj
 0001:0002b9a0       ?getConstraints@?$NpRigidActorTemplate@VPxArticulationLink@physx@@@physx@@UEBAIPEAPEAVPxConstraint@2@II@Z 000000018002c9a0 f i NpArticulationLink.obj
 0001:0002b9a0       ?getConstraints@?$NpRigidActorTemplate@VPxRigidDynamic@physx@@@physx@@UEBAIPEAPEAVPxConstraint@2@II@Z 000000018002c9a0 f i NpRigidDynamic.obj
 0001:0002b9a0       ?getConstraints@?$NpRigidActorTemplate@VPxRigidStatic@physx@@@physx@@UEBAIPEAPEAVPxConstraint@2@II@Z 000000018002c9a0 f i NpRigidStatic.obj
 0001:0002ba20       ?getContactReportThreshold@NpRigidDynamic@physx@@UEBAMXZ 000000018002ca20 f   NpRigidDynamic.obj
 0001:0002ba30       ?getContactSlopCoefficient@?$NpRigidBodyTemplate@VPxArticulationLink@physx@@@physx@@UEBAMXZ 000000018002ca30 f i NpArticulationLink.obj
 0001:0002ba30       ?getContactSlopCoefficient@?$NpRigidBodyTemplate@VPxRigidDynamic@physx@@@physx@@UEBAMXZ 000000018002ca30 f i NpRigidDynamic.obj
 0001:0002ba40       ?getGlobalPose@NpRigidDynamic@physx@@UEBA?AV?$PxTransformT@M@2@XZ 000000018002ca40 f i NpRigidDynamic.obj
 0001:0002bec0       ?getInternalActorIndex@?$NpRigidActorTemplate@VPxArticulationLink@physx@@@physx@@UEBAIXZ 000000018002cec0 f i NpArticulationLink.obj
 0001:0002bec0       ?getInternalActorIndex@?$NpRigidActorTemplate@VPxRigidDynamic@physx@@@physx@@UEBAIXZ 000000018002cec0 f i NpRigidDynamic.obj
 0001:0002bec0       ?getInternalActorIndex@?$NpRigidActorTemplate@VPxRigidStatic@physx@@@physx@@UEBAIXZ 000000018002cec0 f i NpRigidStatic.obj
 0001:0002bee0       ?getInternalIslandNodeIndex@?$NpRigidBodyTemplate@VPxArticulationLink@physx@@@physx@@UEBA?AVPxNodeIndex@2@XZ 000000018002cee0 f i NpArticulationLink.obj
 0001:0002bee0       ?getInternalIslandNodeIndex@?$NpRigidBodyTemplate@VPxRigidDynamic@physx@@@physx@@UEBA?AVPxNodeIndex@2@XZ 000000018002cee0 f i NpRigidDynamic.obj
 0001:0002bf00       ?getInvMass@?$NpRigidBodyTemplate@VPxArticulationLink@physx@@@physx@@UEBAMXZ 000000018002cf00 f i NpArticulationLink.obj
 0001:0002bf00       ?getInvMass@?$NpRigidBodyTemplate@VPxRigidDynamic@physx@@@physx@@UEBAMXZ 000000018002cf00 f i NpRigidDynamic.obj
 0001:0002bf10       ?getKinematicTarget@NpRigidDynamic@physx@@UEBA_NAEAV?$PxTransformT@M@2@@Z 000000018002cf10 f   NpRigidDynamic.obj
 0001:0002c320       ?getLinearDamping@?$NpRigidBodyTemplate@VPxArticulationLink@physx@@@physx@@UEBAMXZ 000000018002d320 f i NpArticulationLink.obj
 0001:0002c320       ?getLinearDamping@?$NpRigidBodyTemplate@VPxRigidDynamic@physx@@@physx@@UEBAMXZ 000000018002d320 f i NpRigidDynamic.obj
 0001:0002c330       ?getLinearVelocity@?$NpRigidBodyTemplate@VPxArticulationLink@physx@@@physx@@UEBA?AV?$PxVec3T@M@2@XZ 000000018002d330 f i NpArticulationLink.obj
 0001:0002c330       ?getLinearVelocity@?$NpRigidBodyTemplate@VPxRigidDynamic@physx@@@physx@@UEBA?AV?$PxVec3T@M@2@XZ 000000018002d330 f i NpRigidDynamic.obj
 0001:0002c3c0       ?getMass@?$NpRigidBodyTemplate@VPxArticulationLink@physx@@@physx@@UEBAMXZ 000000018002d3c0 f i NpArticulationLink.obj
 0001:0002c3c0       ?getMass@?$NpRigidBodyTemplate@VPxRigidDynamic@physx@@@physx@@UEBAMXZ 000000018002d3c0 f i NpRigidDynamic.obj
 0001:0002c3f0       ?getMassSpaceInertiaTensor@?$NpRigidBodyTemplate@VPxArticulationLink@physx@@@physx@@UEBA?AV?$PxVec3T@M@2@XZ 000000018002d3f0 f i NpArticulationLink.obj
 0001:0002c3f0       ?getMassSpaceInertiaTensor@?$NpRigidBodyTemplate@VPxRigidDynamic@physx@@@physx@@UEBA?AV?$PxVec3T@M@2@XZ 000000018002d3f0 f i NpRigidDynamic.obj
 0001:0002c460       ?getMassSpaceInvInertiaTensor@?$NpRigidBodyTemplate@VPxArticulationLink@physx@@@physx@@UEBA?AV?$PxVec3T@M@2@XZ 000000018002d460 f i NpArticulationLink.obj
 0001:0002c460       ?getMassSpaceInvInertiaTensor@?$NpRigidBodyTemplate@VPxRigidDynamic@physx@@@physx@@UEBA?AV?$PxVec3T@M@2@XZ 000000018002d460 f i NpRigidDynamic.obj
 0001:0002c490       ?getMaxAngularVelocity@?$NpRigidBodyTemplate@VPxArticulationLink@physx@@@physx@@UEBAMXZ 000000018002d490 f i NpArticulationLink.obj
 0001:0002c490       ?getMaxAngularVelocity@?$NpRigidBodyTemplate@VPxRigidDynamic@physx@@@physx@@UEBAMXZ 000000018002d490 f i NpRigidDynamic.obj
 0001:0002c4b0       ?getMaxDepenetrationVelocity@?$NpRigidBodyTemplate@VPxArticulationLink@physx@@@physx@@UEBAMXZ 000000018002d4b0 f i NpArticulationLink.obj
 0001:0002c4b0       ?getMaxDepenetrationVelocity@?$NpRigidBodyTemplate@VPxRigidDynamic@physx@@@physx@@UEBAMXZ 000000018002d4b0 f i NpRigidDynamic.obj
 0001:0002c4c0       ?getMaxLinearVelocity@?$NpRigidBodyTemplate@VPxArticulationLink@physx@@@physx@@UEBAMXZ 000000018002d4c0 f i NpArticulationLink.obj
 0001:0002c4c0       ?getMaxLinearVelocity@?$NpRigidBodyTemplate@VPxRigidDynamic@physx@@@physx@@UEBAMXZ 000000018002d4c0 f i NpRigidDynamic.obj
 0001:0002c4e0       ?getMinCCDAdvanceCoefficient@?$NpRigidBodyTemplate@VPxArticulationLink@physx@@@physx@@UEBAMXZ 000000018002d4e0 f i NpArticulationLink.obj
 0001:0002c4e0       ?getMinCCDAdvanceCoefficient@?$NpRigidBodyTemplate@VPxRigidDynamic@physx@@@physx@@UEBAMXZ 000000018002d4e0 f i NpRigidDynamic.obj
 0001:0002c4f0       ?getNbConstraints@?$NpRigidActorTemplate@VPxArticulationLink@physx@@@physx@@UEBAIXZ 000000018002d4f0 f i NpArticulationLink.obj
 0001:0002c4f0       ?getNbConstraints@?$NpRigidActorTemplate@VPxRigidDynamic@physx@@@physx@@UEBAIXZ 000000018002d4f0 f i NpRigidDynamic.obj
 0001:0002c4f0       ?getNbConstraints@?$NpRigidActorTemplate@VPxRigidStatic@physx@@@physx@@UEBAIXZ 000000018002d4f0 f i NpRigidStatic.obj
 0001:0002c500       ?getNbShapes@?$NpRigidActorTemplate@VPxArticulationLink@physx@@@physx@@UEBAIXZ 000000018002d500 f i NpArticulationLink.obj
 0001:0002c500       ?getNbShapes@?$NpRigidActorTemplate@VPxRigidDynamic@physx@@@physx@@UEBAIXZ 000000018002d500 f i NpRigidDynamic.obj
 0001:0002c500       ?getNbShapes@?$NpRigidActorTemplate@VPxRigidStatic@physx@@@physx@@UEBAIXZ 000000018002d500 f i NpRigidStatic.obj
 0001:0002c510       ?getRigidBodyFlags@?$NpRigidBodyTemplate@VPxArticulationLink@physx@@@physx@@UEBA?AV?$PxFlags@W4Enum@PxRigidBodyFlag@physx@@G@2@XZ 000000018002d510 f i NpArticulationLink.obj
 0001:0002c510       ?getRigidBodyFlags@?$NpRigidBodyTemplate@VPxRigidDynamic@physx@@@physx@@UEBA?AV?$PxFlags@W4Enum@PxRigidBodyFlag@physx@@G@2@XZ 000000018002d510 f i NpRigidDynamic.obj
 0001:0002c530       ?getRigidDynamicLockFlags@NpRigidDynamic@physx@@UEBA?AV?$PxFlags@W4Enum@PxRigidDynamicLockFlag@physx@@E@2@XZ 000000018002d530 f   NpRigidDynamic.obj
 0001:0002c540       ?getShapes@?$NpRigidActorTemplate@VPxArticulationLink@physx@@@physx@@UEBAIPEAPEAVPxShape@2@II@Z 000000018002d540 f i NpArticulationLink.obj
 0001:0002c540       ?getShapes@?$NpRigidActorTemplate@VPxRigidDynamic@physx@@@physx@@UEBAIPEAPEAVPxShape@2@II@Z 000000018002d540 f i NpRigidDynamic.obj
 0001:0002c540       ?getShapes@?$NpRigidActorTemplate@VPxRigidStatic@physx@@@physx@@UEBAIPEAPEAVPxShape@2@II@Z 000000018002d540 f i NpRigidStatic.obj
 0001:0002c550       ?getSleepThreshold@NpRigidDynamic@physx@@UEBAMXZ 000000018002d550 f   NpRigidDynamic.obj
 0001:0002c560       ?getSolverIterationCounts@NpRigidDynamic@physx@@UEBAXAEAI0@Z 000000018002d560 f   NpRigidDynamic.obj
 0001:0002c580       ?getCfmScale@NpArticulationLink@physx@@UEBAMXZ 000000018002d580 f   NpArticulationLink.obj
 0001:0002c580       ?getFluidBoundaryDensityScale@ParticleSystemCore@Sc@physx@@QEBAMXZ 000000018002d580 f   SimulationController_static_64:ScParticleSystemCore.obj
 0001:0002c580       ?getStabilizationThreshold@NpRigidDynamic@physx@@UEBAMXZ 000000018002d580 f   NpRigidDynamic.obj
 0001:0002c590       ?getSolverType@DynamicsTGSContext@Dy@physx@@UEBA?AW4Enum@PxSolverType@3@XZ 000000018002d590 f i LowLevelDynamics_static_64:DyTGSDynamics.obj
 0001:0002c590       ?getType@BroadPhaseMBP@Bp@physx@@UEBA?AW4Enum@PxBroadPhaseType@3@XZ 000000018002d590 f i LowLevelAABB_static_64:BpBroadPhaseMBP.obj
 0001:0002c590       ?getType@NpRigidDynamic@physx@@UEBA?AW4Enum@PxActorType@2@XZ 000000018002d590 f i NpRigidDynamic.obj
 0001:0002c590       ?length@charNode@@UEBAHXZ  000000018002d590 f i libvcruntime:undname.obj
 0001:0002c590       ?raw_length@charNode@@UEBAHXZ 000000018002d590 f i libvcruntime:undname.obj
 0001:0002c590       DllMain                    000000018002d590 f i LIBCMT:dll_dllmain_stub.obj
 0001:0002c590       _get_startup_argv_mode     000000018002d590 f i LIBCMT:argv_mode.obj
 0001:0002c5a0       ?getWakeCounter@NpRigidDynamic@physx@@UEBAMXZ 000000018002d5a0 f   NpRigidDynamic.obj
 0001:0002c600       ?getWorldBounds@?$NpRigidActorTemplate@VPxArticulationLink@physx@@@physx@@UEBA?AVPxBounds3@2@M@Z 000000018002d600 f i NpArticulationLink.obj
 0001:0002c600       ?getWorldBounds@?$NpRigidActorTemplate@VPxRigidDynamic@physx@@@physx@@UEBA?AVPxBounds3@2@M@Z 000000018002d600 f i NpRigidDynamic.obj
 0001:0002c600       ?getWorldBounds@?$NpRigidActorTemplate@VPxRigidStatic@physx@@@physx@@UEBA?AVPxBounds3@2@M@Z 000000018002d600 f i NpRigidStatic.obj
 0001:0002c800       ?importExtraData@?$NpRigidActorTemplate@VPxArticulationLink@physx@@@physx@@UEAAXAEAVPxDeserializationContext@2@@Z 000000018002d800 f i NpArticulationLink.obj
 0001:0002c800       ?importExtraData@?$NpRigidActorTemplate@VPxRigidDynamic@physx@@@physx@@UEAAXAEAVPxDeserializationContext@2@@Z 000000018002d800 f i NpRigidDynamic.obj
 0001:0002c800       ?importExtraData@?$NpRigidActorTemplate@VPxRigidStatic@physx@@@physx@@UEAAXAEAVPxDeserializationContext@2@@Z 000000018002d800 f i NpRigidStatic.obj
 0001:0002c830       ?isKindOf@PxRigidActor@physx@@MEBA_NPEBD@Z 000000018002d830 f i NpRigidDynamic.obj
 0001:0002c8c0       ?isKindOf@PxRigidBody@physx@@MEBA_NPEBD@Z 000000018002d8c0 f i NpRigidDynamic.obj
 0001:0002c950       ?isKindOf@PxRigidDynamic@physx@@MEBA_NPEBD@Z 000000018002d950 f i NpRigidDynamic.obj
 0001:0002c9f0       ?isSleeping@NpRigidDynamic@physx@@UEBA_NXZ 000000018002d9f0 f   NpRigidDynamic.obj
 0001:0002ca50       ?preExportDataReset@NpRigidDynamic@physx@@QEAAXXZ 000000018002da50 f   NpRigidDynamic.obj
 0001:0002cac0       ?putToSleep@NpRigidDynamic@physx@@UEAAXXZ 000000018002dac0 f   NpRigidDynamic.obj
 0001:0002cb20       ?release@NpRigidDynamic@physx@@UEAAXXZ 000000018002db20 f   NpRigidDynamic.obj
 0001:0002cc40       ?removeShapes@?$NpRigidActorTemplate@VPxArticulationLink@physx@@@physx@@QEAAXPEAVPxSceneQuerySystem@2@@Z 000000018002dc40 f i NpArticulationLink.obj
 0001:0002cc40       ?removeShapes@?$NpRigidActorTemplate@VPxRigidDynamic@physx@@@physx@@QEAAXPEAVPxSceneQuerySystem@2@@Z 000000018002dc40 f i NpRigidDynamic.obj
 0001:0002cc40       ?removeShapes@?$NpRigidActorTemplate@VPxRigidStatic@physx@@@physx@@QEAAXPEAVPxSceneQuerySystem@2@@Z 000000018002dc40 f i NpRigidStatic.obj
 0001:0002ccb0       ?requiresObjects@?$NpRigidActorTemplate@VPxArticulationLink@physx@@@physx@@UEAAXAEAVPxProcessPxBaseCallback@2@@Z 000000018002dcb0 f i NpArticulationLink.obj
 0001:0002ccb0       ?requiresObjects@?$NpRigidActorTemplate@VPxRigidDynamic@physx@@@physx@@UEAAXAEAVPxProcessPxBaseCallback@2@@Z 000000018002dcb0 f i NpRigidDynamic.obj
 0001:0002ccb0       ?requiresObjects@?$NpRigidActorTemplate@VPxRigidStatic@physx@@@physx@@UEAAXAEAVPxProcessPxBaseCallback@2@@Z 000000018002dcb0 f i NpRigidStatic.obj
 0001:0002ccb0       ?requiresObjects@NpRigidDynamic@physx@@UEAAXAEAVPxProcessPxBaseCallback@2@@Z 000000018002dcb0 f i NpRigidDynamic.obj
 0001:0002ccb0       ?requiresObjects@NpRigidStatic@physx@@UEAAXAEAVPxProcessPxBaseCallback@2@@Z 000000018002dcb0 f i NpRigidStatic.obj
 0001:0002cd20       ?resolveReferences@?$NpRigidActorTemplate@VPxArticulationLink@physx@@@physx@@UEAAXAEAVPxDeserializationContext@2@@Z 000000018002dd20 f i NpArticulationLink.obj
 0001:0002cd20       ?resolveReferences@?$NpRigidActorTemplate@VPxRigidDynamic@physx@@@physx@@UEAAXAEAVPxDeserializationContext@2@@Z 000000018002dd20 f i NpRigidDynamic.obj
 0001:0002cd20       ?resolveReferences@?$NpRigidActorTemplate@VPxRigidStatic@physx@@@physx@@UEAAXAEAVPxDeserializationContext@2@@Z 000000018002dd20 f i NpRigidStatic.obj
 0001:0002cdb0       ?scGetGlobalInertiaTensorInverse@?$NpRigidBodyTemplate@VPxRigidDynamic@physx@@@physx@@QEBA?AV?$PxMat33T@M@2@XZ 000000018002ddb0 f i NpRigidDynamic.obj
 0001:0002d020       ?setActorFlag@?$NpRigidActorTemplate@VPxRigidDynamic@physx@@@physx@@UEAAXW4Enum@PxActorFlag@2@_N@Z 000000018002e020 f i NpRigidDynamic.obj
 0001:0002d1b0       ?setActorFlags@?$NpRigidActorTemplate@VPxRigidDynamic@physx@@@physx@@UEAAXV?$PxFlags@W4Enum@PxActorFlag@physx@@E@2@@Z 000000018002e1b0 f i NpRigidDynamic.obj
 0001:0002d310       ?setAngularDamping@?$NpRigidBodyTemplate@VPxArticulationLink@physx@@@physx@@UEAAXM@Z 000000018002e310 f i NpArticulationLink.obj
 0001:0002d310       ?setAngularDamping@?$NpRigidBodyTemplate@VPxRigidDynamic@physx@@@physx@@UEAAXM@Z 000000018002e310 f i NpRigidDynamic.obj
 0001:0002d370       ?setAngularVelocity@NpRigidDynamic@physx@@UEAAXAEBV?$PxVec3T@M@2@_N@Z 000000018002e370 f   NpRigidDynamic.obj
 0001:0002d430       ?setCMassLocalPose@NpRigidDynamic@physx@@UEAAXAEBV?$PxTransformT@M@2@@Z 000000018002e430 f   NpRigidDynamic.obj
 0001:0002dbf0       ?setCMassLocalPoseInternal@?$NpRigidBodyTemplate@VPxArticulationLink@physx@@@physx@@IEAAXAEBV?$PxTransformT@M@2@@Z 000000018002ebf0 f i NpArticulationLink.obj
 0001:0002dbf0       ?setCMassLocalPoseInternal@?$NpRigidBodyTemplate@VPxRigidDynamic@physx@@@physx@@IEAAXAEBV?$PxTransformT@M@2@@Z 000000018002ebf0 f i NpRigidDynamic.obj
 0001:0002df60       ?setContactReportThreshold@NpRigidDynamic@physx@@UEAAXM@Z 000000018002ef60 f   NpRigidDynamic.obj
 0001:0002dfc0       ?setContactSlopCoefficient@?$NpRigidBodyTemplate@VPxArticulationLink@physx@@@physx@@UEAAXM@Z 000000018002efc0 f i NpArticulationLink.obj
 0001:0002dfc0       ?setContactSlopCoefficient@?$NpRigidBodyTemplate@VPxRigidDynamic@physx@@@physx@@UEAAXM@Z 000000018002efc0 f i NpRigidDynamic.obj
 0001:0002e020       ?setForceAndTorque@NpRigidDynamic@physx@@UEAAXAEBV?$PxVec3T@M@2@0W4Enum@PxForceMode@2@@Z 000000018002f020 f   NpRigidDynamic.obj
 0001:0002e0f0       ?setGlobalPose@NpRigidDynamic@physx@@UEAAXAEBV?$PxTransformT@M@2@_N@Z 000000018002f0f0 f   NpRigidDynamic.obj
 0001:0002e530       ?setKinematicTarget@NpRigidDynamic@physx@@UEAAXAEBV?$PxTransformT@M@2@@Z 000000018002f530 f   NpRigidDynamic.obj
 0001:0002e8f0       ?setLinearDamping@?$NpRigidBodyTemplate@VPxArticulationLink@physx@@@physx@@UEAAXM@Z 000000018002f8f0 f i NpArticulationLink.obj
 0001:0002e8f0       ?setLinearDamping@?$NpRigidBodyTemplate@VPxRigidDynamic@physx@@@physx@@UEAAXM@Z 000000018002f8f0 f i NpRigidDynamic.obj
 0001:0002e950       ?setLinearVelocity@NpRigidDynamic@physx@@UEAAXAEBV?$PxVec3T@M@2@_N@Z 000000018002f950 f   NpRigidDynamic.obj
 0001:0002ea10       ?setMass@?$NpRigidBodyTemplate@VPxArticulationLink@physx@@@physx@@UEAAXM@Z 000000018002fa10 f i NpArticulationLink.obj
 0001:0002ea10       ?setMass@?$NpRigidBodyTemplate@VPxRigidDynamic@physx@@@physx@@UEAAXM@Z 000000018002fa10 f i NpRigidDynamic.obj
 0001:0002ea80       ?setMassSpaceInertiaTensor@?$NpRigidBodyTemplate@VPxArticulationLink@physx@@@physx@@UEAAXAEBV?$PxVec3T@M@2@@Z 000000018002fa80 f i NpArticulationLink.obj
 0001:0002ea80       ?setMassSpaceInertiaTensor@?$NpRigidBodyTemplate@VPxRigidDynamic@physx@@@physx@@UEAAXAEBV?$PxVec3T@M@2@@Z 000000018002fa80 f i NpRigidDynamic.obj
 0001:0002eb40       ?setMaxAngularVelocity@?$NpRigidBodyTemplate@VPxArticulationLink@physx@@@physx@@UEAAXM@Z 000000018002fb40 f i NpArticulationLink.obj
 0001:0002eb40       ?setMaxAngularVelocity@?$NpRigidBodyTemplate@VPxRigidDynamic@physx@@@physx@@UEAAXM@Z 000000018002fb40 f i NpRigidDynamic.obj
 0001:0002eba0       ?setMaxContactImpulse@?$NpRigidBodyTemplate@VPxArticulationLink@physx@@@physx@@UEAAXM@Z 000000018002fba0 f i NpArticulationLink.obj
 0001:0002eba0       ?setMaxContactImpulse@?$NpRigidBodyTemplate@VPxRigidDynamic@physx@@@physx@@UEAAXM@Z 000000018002fba0 f i NpRigidDynamic.obj
 0001:0002ec00       ?setMaxDepenetrationVelocity@?$NpRigidBodyTemplate@VPxArticulationLink@physx@@@physx@@UEAAXM@Z 000000018002fc00 f i NpArticulationLink.obj
 0001:0002ec00       ?setMaxDepenetrationVelocity@?$NpRigidBodyTemplate@VPxRigidDynamic@physx@@@physx@@UEAAXM@Z 000000018002fc00 f i NpRigidDynamic.obj
 0001:0002ec60       ?setMaxLinearVelocity@?$NpRigidBodyTemplate@VPxArticulationLink@physx@@@physx@@UEAAXM@Z 000000018002fc60 f i NpArticulationLink.obj
 0001:0002ec60       ?setMaxLinearVelocity@?$NpRigidBodyTemplate@VPxRigidDynamic@physx@@@physx@@UEAAXM@Z 000000018002fc60 f i NpRigidDynamic.obj
 0001:0002ecc0       ?setMinCCDAdvanceCoefficient@?$NpRigidBodyTemplate@VPxArticulationLink@physx@@@physx@@UEAAXM@Z 000000018002fcc0 f i NpArticulationLink.obj
 0001:0002ecc0       ?setMinCCDAdvanceCoefficient@?$NpRigidBodyTemplate@VPxRigidDynamic@physx@@@physx@@UEAAXM@Z 000000018002fcc0 f i NpRigidDynamic.obj
 0001:0002ed20       ?setRigidBodyFlag@?$NpRigidBodyTemplate@VPxArticulationLink@physx@@@physx@@UEAAXW4Enum@PxRigidBodyFlag@2@_N@Z 000000018002fd20 f i NpArticulationLink.obj
 0001:0002ed20       ?setRigidBodyFlag@?$NpRigidBodyTemplate@VPxRigidDynamic@physx@@@physx@@UEAAXW4Enum@PxRigidBodyFlag@2@_N@Z 000000018002fd20 f i NpRigidDynamic.obj
 0001:0002f050       ?setRigidBodyFlags@?$NpRigidBodyTemplate@VPxArticulationLink@physx@@@physx@@UEAAXV?$PxFlags@W4Enum@PxRigidBodyFlag@physx@@G@2@@Z 0000000180030050 f i NpArticulationLink.obj
 0001:0002f050       ?setRigidBodyFlags@?$NpRigidBodyTemplate@VPxRigidDynamic@physx@@@physx@@UEAAXV?$PxFlags@W4Enum@PxRigidBodyFlag@physx@@G@2@@Z 0000000180030050 f i NpRigidDynamic.obj
 0001:0002f350       ?setRigidDynamicLockFlag@NpRigidDynamic@physx@@UEAAXW4Enum@PxRigidDynamicLockFlag@2@_N@Z 0000000180030350 f   NpRigidDynamic.obj
 0001:0002f3c0       ?setRigidDynamicLockFlags@NpRigidDynamic@physx@@UEAAXV?$PxFlags@W4Enum@PxRigidDynamicLockFlag@physx@@E@2@@Z 00000001800303c0 f   NpRigidDynamic.obj
 0001:0002f420       ?setSleepThreshold@NpRigidDynamic@physx@@UEAAXM@Z 0000000180030420 f   NpRigidDynamic.obj
 0001:0002f480       ?setSolverIterationCounts@NpRigidDynamic@physx@@UEAAXII@Z 0000000180030480 f   NpRigidDynamic.obj
 0001:0002f4f0       ?setSpatialForce@?$NpRigidBodyTemplate@VPxRigidDynamic@physx@@@physx@@IEAAXPEBV?$PxVec3T@M@2@0W4Enum@PxForceMode@2@@Z 00000001800304f0 f i NpRigidDynamic.obj
 0001:0002f720       ?setStabilizationThreshold@NpRigidDynamic@physx@@UEAAXM@Z 0000000180030720 f   NpRigidDynamic.obj
 0001:0002f780       ?setWakeCounter@NpRigidDynamic@physx@@UEAAXM@Z 0000000180030780 f   NpRigidDynamic.obj
 0001:0002f7f0       ?switchFromNoSim@NpRigidDynamic@physx@@UEAAXXZ 00000001800307f0 f   NpRigidDynamic.obj
 0001:0002f7f0       ?switchFromNoSim@NpRigidStatic@physx@@UEAAXXZ 00000001800307f0 f   NpRigidStatic.obj
 0001:0002f810       ?switchToNoSim@NpRigidDynamic@physx@@UEAAXXZ 0000000180030810 f   NpRigidDynamic.obj
 0001:0002f850       ?wakeUp@NpRigidDynamic@physx@@UEAAXXZ 0000000180030850 f   NpRigidDynamic.obj
 0001:0002f8c0       ?wakeUpInternalNoKinematicTest@NpRigidDynamic@physx@@QEAAX_N0@Z 00000001800308c0 f   NpRigidDynamic.obj
 0001:0002f950       ??0NpRigidStatic@physx@@QEAA@AEBV?$PxTransformT@M@1@@Z 0000000180030950 f   NpRigidStatic.obj
 0001:0002fa10       ??_E?$NpActorTemplate@VPxRigidStatic@physx@@@physx@@UEAAPEAXI@Z 0000000180030a10 f i NpRigidStatic.obj
 0001:0002fa10       ??_G?$NpActorTemplate@VPxRigidStatic@physx@@@physx@@UEAAPEAXI@Z 0000000180030a10 f i NpRigidStatic.obj
 0001:0002fa90       ??_E?$NpRigidActorTemplate@VPxRigidStatic@physx@@@physx@@UEAAPEAXI@Z 0000000180030a90 f i NpRigidStatic.obj
 0001:0002fa90       ??_G?$NpRigidActorTemplate@VPxRigidStatic@physx@@@physx@@UEAAPEAXI@Z 0000000180030a90 f i NpRigidStatic.obj
 0001:0002fb20       ??_ENpRigidStatic@physx@@UEAAPEAXI@Z 0000000180030b20 f i NpRigidStatic.obj
 0001:0002fb20       ??_GNpRigidStatic@physx@@UEAAPEAXI@Z 0000000180030b20 f i NpRigidStatic.obj
 0001:0002fbc0       ?NpRigidStaticGetShapes@physx@@YAIAEAVNpRigidStatic@1@AEAPEBQEAVNpShape@1@@Z 0000000180030bc0 f   NpRigidStatic.obj
 0001:0002fbe0       ?createObject@NpRigidStatic@physx@@SAPEAV12@AEAPEAEAEAVPxDeserializationContext@2@@Z 0000000180030be0 f   NpRigidStatic.obj
 0001:0002fcd0       ?getConcreteTypeName@PxRigidStatic@physx@@UEBAPEBDXZ 0000000180030cd0 f i NpRigidStatic.obj
 0001:0002fce0       ?getGlobalPose@NpRigidStatic@physx@@UEBA?AV?$PxTransformT@M@2@XZ 0000000180030ce0 f   NpRigidStatic.obj
 0001:0002fd10       ?isKindOf@PxRigidStatic@physx@@MEBA_NPEBD@Z 0000000180030d10 f i NpRigidStatic.obj
 0001:0002fd60       ?release@NpRigidStatic@physx@@UEAAXXZ 0000000180030d60 f   NpRigidStatic.obj
 0001:0002fe80       ?setActorFlag@?$NpRigidActorTemplate@VPxRigidStatic@physx@@@physx@@UEAAXW4Enum@PxActorFlag@2@_N@Z 0000000180030e80 f i NpRigidStatic.obj
 0001:00030010       ?setActorFlags@?$NpRigidActorTemplate@VPxRigidStatic@physx@@@physx@@UEAAXV?$PxFlags@W4Enum@PxActorFlag@physx@@E@2@@Z 0000000180031010 f i NpRigidStatic.obj
 0001:00030170       ?setGlobalPose@NpRigidStatic@physx@@UEAAXAEBV?$PxTransformT@M@2@_N@Z 0000000180031170 f   NpRigidStatic.obj
 0001:00030360       ?switchToNoSim@NpRigidStatic@physx@@UEAAXXZ 0000000180031360 f   NpRigidStatic.obj
 0001:00030380       ??$PxSort@PEAXU?$PxLess@PEAX@physx@@V?$PxReflectionAllocator@U?$Block@E$0BAA@@Scene@Sc@physx@@@2@@physx@@YAXPEAPEAXIAEBU?$PxLess@PEAX@0@AEBV?$PxReflectionAllocator@U?$Block@E$0BAA@@Scene@Sc@physx@@@0@I@Z 0000000180031380 f i NpScene.obj
 0001:000307e0       ??$PxSort@PEAXU?$PxLess@PEAX@physx@@V?$PxReflectionAllocator@U?$Block@E$0BIA@@Scene@Sc@physx@@@2@@physx@@YAXPEAPEAXIAEBU?$PxLess@PEAX@0@AEBV?$PxReflectionAllocator@U?$Block@E$0BIA@@Scene@Sc@physx@@@0@I@Z 00000001800317e0 f i NpScene.obj
 0001:00030c40       ??$PxSort@PEAXU?$PxLess@PEAX@physx@@V?$PxReflectionAllocator@U?$Block@E$0IA@@Scene@Sc@physx@@@2@@physx@@YAXPEAPEAXIAEBU?$PxLess@PEAX@0@AEBV?$PxReflectionAllocator@U?$Block@E$0IA@@Scene@Sc@physx@@@0@I@Z 0000000180031c40 f i NpScene.obj
 0001:000310a0       ??$PxSort@PEAXU?$PxLess@PEAX@physx@@V?$PxReflectionAllocator@U?$Block@PEAX$07@Scene@Sc@physx@@@2@@physx@@YAXPEAPEAXIAEBU?$PxLess@PEAX@0@AEBV?$PxReflectionAllocator@U?$Block@PEAX$07@Scene@Sc@physx@@@0@I@Z 00000001800320a0 f i NpScene.obj
 0001:00031500       ??$PxSort@PEAXU?$PxLess@PEAX@physx@@V?$PxReflectionAllocator@U?$Block@PEAX$0BA@@Scene@Sc@physx@@@2@@physx@@YAXPEAPEAXIAEBU?$PxLess@PEAX@0@AEBV?$PxReflectionAllocator@U?$Block@PEAX$0BA@@Scene@Sc@physx@@@0@I@Z 0000000180032500 f i NpScene.obj
 0001:00031960       ??$PxSort@PEAXU?$PxLess@PEAX@physx@@V?$PxReflectionAllocator@U?$Block@PEAX$0CA@@Scene@Sc@physx@@@2@@physx@@YAXPEAPEAXIAEBU?$PxLess@PEAX@0@AEBV?$PxReflectionAllocator@U?$Block@PEAX$0CA@@Scene@Sc@physx@@@0@I@Z 0000000180032960 f i NpScene.obj
 0001:00032cf0       ??0NpScene@physx@@QEAA@AEBVPxSceneDesc@1@AEAVNpPhysics@1@@Z 0000000180033cf0 f   NpScene.obj
 0001:00033860       ??1?$PxArray@PEAVBodyCore@Sc@physx@@V?$PxReflectionAllocator@PEAVBodyCore@Sc@physx@@@3@@physx@@QEAA@XZ 0000000180034860 f i NpScene.obj
 0001:000338b0       ??1?$PxArray@PEAVShapeSim@Sc@physx@@V?$PxInlineAllocator@$0CAA@V?$PxReflectionAllocator@PEAVShapeSim@Sc@physx@@@physx@@@3@@physx@@QEAA@XZ 00000001800348b0 f i NpScene.obj
 0001:000338b0       ??1?$PxArray@PEBVShapeCore@Sc@physx@@V?$PxInlineAllocator@$0CAA@V?$PxReflectionAllocator@PEBVShapeCore@Sc@physx@@@physx@@@3@@physx@@QEAA@XZ 00000001800348b0 f i NpScene.obj
 0001:00033920       ??1FanoutTask@Cm@physx@@UEAA@XZ 0000000180034920 f i NpScene.obj
 0001:000339f0       ??1NpScene@physx@@UEAA@XZ  00000001800349f0 f   NpScene.obj
 0001:000343e0       ??1RenderBuffer@Cm@physx@@UEAA@XZ 00000001800353e0 f i NpScene.obj
 0001:00034490       ??1Scene@Sc@physx@@QEAA@XZ 0000000180035490 f i NpScene.obj
 0001:00035b10       ??_E?$DelegateTask@VNpScene@physx@@$H?executeAdvance@12@QEAAXPEAVPxBaseTask@2@@ZA@@Cm@physx@@UEAAPEAXI@Z 0000000180036b10 f i NpScene.obj
 0001:00035b10       ??_E?$DelegateTask@VNpScene@physx@@$H?executeCollide@12@QEAAXPEAVPxBaseTask@2@@ZA@@Cm@physx@@UEAAPEAXI@Z 0000000180036b10 f i NpScene.obj
 0001:00035b10       ??_E?$DelegateTask@VNpScene@physx@@$H?executeScene@12@QEAAXPEAVPxBaseTask@2@@ZA@@Cm@physx@@UEAAPEAXI@Z 0000000180036b10 f i NpScene.obj
 0001:00035b10       ??_E?$DelegateTask@VNpScene@physx@@$H?sceneQueriesDynamicPrunerUpdate@12@AEAAXPEAVPxBaseTask@2@@ZA@@Cm@physx@@UEAAPEAXI@Z 0000000180036b10 f i NpScene.obj
 0001:00035b10       ??_E?$DelegateTask@VNpScene@physx@@$H?sceneQueriesStaticPrunerUpdate@12@AEAAXPEAVPxBaseTask@2@@ZA@@Cm@physx@@UEAAPEAXI@Z 0000000180036b10 f i NpScene.obj
 0001:00035b10       ??_G?$DelegateTask@VNpScene@physx@@$H?executeAdvance@12@QEAAXPEAVPxBaseTask@2@@ZA@@Cm@physx@@UEAAPEAXI@Z 0000000180036b10 f i NpScene.obj
 0001:00035b10       ??_G?$DelegateTask@VNpScene@physx@@$H?executeCollide@12@QEAAXPEAVPxBaseTask@2@@ZA@@Cm@physx@@UEAAPEAXI@Z 0000000180036b10 f i NpScene.obj
 0001:00035b10       ??_G?$DelegateTask@VNpScene@physx@@$H?executeScene@12@QEAAXPEAVPxBaseTask@2@@ZA@@Cm@physx@@UEAAPEAXI@Z 0000000180036b10 f i NpScene.obj
 0001:00035b10       ??_G?$DelegateTask@VNpScene@physx@@$H?sceneQueriesDynamicPrunerUpdate@12@AEAAXPEAVPxBaseTask@2@@ZA@@Cm@physx@@UEAAPEAXI@Z 0000000180036b10 f i NpScene.obj
 0001:00035b10       ??_G?$DelegateTask@VNpScene@physx@@$H?sceneQueriesStaticPrunerUpdate@12@AEAAXPEAVPxBaseTask@2@@ZA@@Cm@physx@@UEAAPEAXI@Z 0000000180036b10 f i NpScene.obj
 0001:00035b70       ??_ENpScene@physx@@UEAAPEAXI@Z 0000000180036b70 f i NpScene.obj
 0001:00035b70       ??_GNpScene@physx@@UEAAPEAXI@Z 0000000180036b70 f i NpScene.obj
 0001:00035be0       ??_EPxBaseTask@physx@@UEAAPEAXI@Z 0000000180036be0 f i NpScene.obj
 0001:00035be0       ??_GPxBaseTask@physx@@UEAAPEAXI@Z 0000000180036be0 f i NpScene.obj
 0001:00035c10       ??_EPxLightCpuTask@physx@@UEAAPEAXI@Z 0000000180036c10 f i NpScene.obj
 0001:00035c10       ??_GPxLightCpuTask@physx@@UEAAPEAXI@Z 0000000180036c10 f i NpScene.obj
 0001:00035c50       ??_EPxRenderBuffer@physx@@UEAAPEAXI@Z 0000000180036c50 f i NpScene.obj
 0001:00035c50       ??_GPxRenderBuffer@physx@@UEAAPEAXI@Z 0000000180036c50 f i NpScene.obj
 0001:00035c80       ??_EPxSceneQuerySystemBase@physx@@MEAAPEAXI@Z 0000000180036c80 f i NpScene.obj
 0001:00035c80       ??_GPxSceneQuerySystemBase@physx@@MEAAPEAXI@Z 0000000180036c80 f i NpScene.obj
 0001:00035cb0       ??_ERenderBuffer@Cm@physx@@UEAAPEAXI@Z 0000000180036cb0 f i NpScene.obj
 0001:00035cb0       ??_GRenderBuffer@Cm@physx@@UEAAPEAXI@Z 0000000180036cb0 f i NpScene.obj
 0001:00035d20       ??_EABP_CompleteBoxPruningEndTask@internalABP@@UEAAPEAXI@Z 0000000180036d20 f i LowLevelAABB_static_64:BpBroadPhaseABP.obj
 0001:00035d20       ??_EPostThirdPassTask@IG@physx@@UEAAPEAXI@Z 0000000180036d20 f i LowLevel_static_64:PxsSimpleIslandManager.obj
 0001:00035d20       ??_EPxsForceThresholdTask@Dy@physx@@UEAAPEAXI@Z 0000000180036d20 f i LowLevelDynamics_static_64:DyDynamics.obj
 0001:00035d20       ??_ESceneCompletion@NpScene@physx@@UEAAPEAXI@Z 0000000180036d20 f i NpScene.obj
 0001:00035d20       ??_GABP_CompleteBoxPruningEndTask@internalABP@@UEAAPEAXI@Z 0000000180036d20 f i LowLevelAABB_static_64:BpBroadPhaseABP.obj
 0001:00035d20       ??_GPostThirdPassTask@IG@physx@@UEAAPEAXI@Z 0000000180036d20 f i LowLevel_static_64:PxsSimpleIslandManager.obj
 0001:00035d20       ??_GPxsForceThresholdTask@Dy@physx@@UEAAPEAXI@Z 0000000180036d20 f i LowLevelDynamics_static_64:DyDynamics.obj
 0001:00035d20       ??_GSceneCompletion@NpScene@physx@@UEAAPEAXI@Z 0000000180036d20 f i NpScene.obj
 0001:00035d60       ?addActor@NpScene@physx@@UEAA_NAEAVPxActor@2@PEBVPxBVH@2@@Z 0000000180036d60 f   NpScene.obj
 0001:00035e10       ?addActorInternal@NpScene@physx@@QEAA_NAEAVPxActor@2@PEBVPxBVH@2@@Z 0000000180036e10 f   NpScene.obj
 0001:000360c0       ?addActors@NpScene@physx@@UEAA_NAEBVPxPruningStructure@2@@Z 00000001800370c0 f   NpScene.obj
 0001:000360f0       ?addActors@NpScene@physx@@UEAA_NPEBQEAVPxActor@2@I@Z 00000001800370f0 f   NpScene.obj
 0001:00036100       ?addActorsInternal@NpScene@physx@@QEAA_NPEIBQEAVPxActor@2@IPEBVPruningStructure@Sq@2@@Z 0000000180037100 f   NpScene.obj
 0001:00036630       ?addAggregate@NpScene@physx@@UEAA_NAEAVPxAggregate@2@@Z 0000000180037630 f   NpScene.obj
 0001:00036760       ?addArticulation@NpScene@physx@@UEAA_NAEAVPxArticulationReducedCoordinate@2@@Z 0000000180037760 f   NpScene.obj
 0001:00036860       ?addArticulationInternal@NpScene@physx@@QEAA_NAEAVPxArticulationReducedCoordinate@2@@Z 0000000180037860 f   NpScene.obj
 0001:00036f90       ?addArticulationLinkBody@NpScene@physx@@QEAAXAEAVNpArticulationLink@2@@Z 0000000180037f90 f   NpScene.obj
 0001:00037090       ?addBroadPhaseRegion@NpScene@physx@@UEAAIAEBUPxBroadPhaseRegion@2@_N@Z 0000000180038090 f   NpScene.obj
 0001:00037140       ?addCollection@NpScene@physx@@UEAA_NAEBVPxCollection@2@@Z 0000000180038140 f   NpScene.obj
 0001:000372e0       ?addDirtyConstraint@NpScene@physx@@QEAAXPEAVNpConstraint@2@@Z 00000001800382e0 f   NpScene.obj
 0001:00037350       ?addFixedTendonInternal@NpScene@physx@@AEAA_NPEAVNpArticulationReducedCoordinate@2@PEAVArticulationSim@Sc@2@@Z 0000000180038350 f   NpScene.obj
 0001:00037580       ?addLine@RenderBuffer@Cm@physx@@UEAAXAEBUPxDebugLine@3@@Z 0000000180038580 f i NpScene.obj
 0001:000375e0       ?addMaterial@NpScene@physx@@QEAAXAEBVNpFEMSoftBodyMaterial@2@@Z 00000001800385e0 f   NpScene.obj
 0001:00037660       ?addMaterial@NpScene@physx@@QEAAXAEBVNpMaterial@2@@Z 0000000180038660 f   NpScene.obj
 0001:000376e0       ?addMaterial@NpScene@physx@@QEAAXAEBVNpPBDMaterial@2@@Z 00000001800386e0 f   NpScene.obj
 0001:00037760       ?addPoint@RenderBuffer@Cm@physx@@UEAAXAEBUPxDebugPoint@3@@Z 0000000180038760 f i NpScene.obj
 0001:000377a0       ?addReference@PxLightCpuTask@physx@@UEAAXXZ 00000001800387a0 f i NpScene.obj
 0001:000377b0       ?addRigidDynamic@NpScene@physx@@AEAA_NAEAVNpRigidDynamic@2@PEBVBVH@Gu@2@PEBVPruningStructure@Sq@2@@Z 00000001800387b0 f   NpScene.obj
 0001:00037950       ?addRigidStatic@NpScene@physx@@AEAA_NAEAVNpRigidStatic@2@PEBVBVH@Gu@2@PEBVPruningStructure@Sq@2@@Z 0000000180038950 f   NpScene.obj
 0001:00037af0       ?addSpatialTendonInternal@NpScene@physx@@AEAA_NPEAVNpArticulationReducedCoordinate@2@PEAVArticulationSim@Sc@2@@Z 0000000180038af0 f   NpScene.obj
 0001:00037d30       ?addToConstraintList@NpScene@physx@@QEAAXAEAVPxConstraint@2@@Z 0000000180038d30 f   NpScene.obj
 0001:00037e70       ?addTriangle@RenderBuffer@Cm@physx@@UEAAXAEBUPxDebugTriangle@3@@Z 0000000180038e70 f i NpScene.obj
 0001:00037ee0       ?advance@NpScene@physx@@UEAA_NPEAVPxBaseTask@2@@Z 0000000180038ee0 f   NpScene.obj
 0001:00037fa0       ?allocate@?$PxArray@PEAVNpRigidDynamic@physx@@V?$PxReflectionAllocator@PEAVNpRigidDynamic@physx@@@2@@physx@@IEAAPEAPEAVNpRigidDynamic@2@I@Z 0000000180038fa0 f i NpScene.obj
 0001:00038030       ?allocate@?$PxArray@PEAVNpRigidStatic@physx@@V?$PxReflectionAllocator@PEAVNpRigidStatic@physx@@@2@@physx@@IEAAPEAPEAVNpRigidStatic@2@I@Z 0000000180039030 f i NpScene.obj
 0001:000380c0       ?allocate@?$PxArray@UPxDebugLine@physx@@V?$PxReflectionAllocator@UPxDebugLine@physx@@@2@@physx@@IEAAPEAUPxDebugLine@2@I@Z 00000001800390c0 f i NpScene.obj
 0001:00038150       ?allocate@?$PxArray@UPxDebugPoint@physx@@V?$PxReflectionAllocator@UPxDebugPoint@physx@@@2@@physx@@IEAAPEAUPxDebugPoint@2@I@Z 0000000180039150 f i NpScene.obj
 0001:000381e0       ?allocate@?$PxArray@UPxDebugTriangle@physx@@V?$PxReflectionAllocator@UPxDebugTriangle@physx@@@2@@physx@@IEAAPEAUPxDebugTriangle@2@I@Z 00000001800391e0 f i NpScene.obj
 0001:00038280       ?allocate@?$PxArray@VMaterialEvent@NpScene@physx@@V?$PxReflectionAllocator@VMaterialEvent@NpScene@physx@@@3@@physx@@IEAAPEAVMaterialEvent@NpScene@2@I@Z 0000000180039280 f i NpScene.obj
 0001:00038310       ?allocate@?$PxArray@VPxBounds3@physx@@V?$PxInlineAllocator@$0MA@V?$PxReflectionAllocator@VPxBounds3@physx@@@physx@@@2@@physx@@IEAAPEAVPxBounds3@2@I@Z 0000000180039310 f i NpScene.obj
 0001:000383d0       ?append@RenderBuffer@Cm@physx@@UEAAXAEBVPxRenderBuffer@3@@Z 00000001800393d0 f i NpScene.obj
 0001:00038610       ?applyActorData@NpScene@physx@@UEAAXPEAXPEAUPxGpuActorPair@2@W4Enum@PxActorCacheFlag@2@I00@Z 0000000180039610 f   NpScene.obj
 0001:000386b0       ?applyArticulationData@NpScene@physx@@UEAAXPEAX0W4Enum@PxArticulationGpuDataType@2@I00@Z 00000001800396b0 f   NpScene.obj
 0001:00038750       ?applyParticleBufferData@NpScene@physx@@UEAAXPEBIPEBUPxGpuParticleBufferIndexPair@2@PEBV?$PxFlags@W4Enum@PxParticleBufferFlag@physx@@I@2@IPEAX3@Z 0000000180039750 f   NpScene.obj
 0001:000387f0       ?applySoftBodyData@NpScene@physx@@UEAAXPEAPEAXPEAX1W4Enum@PxSoftBodyGpuDataFlag@2@II1@Z 00000001800397f0 f   NpScene.obj
 0001:00038910       ?checkCollision@NpScene@physx@@UEAA_N_N@Z 0000000180039910 f   NpScene.obj
 0001:00038920       ?clear@RenderBuffer@Cm@physx@@UEAAXXZ 0000000180039920 f i NpScene.obj
 0001:00038930       ?collide@NpScene@physx@@UEAA_NMPEAVPxBaseTask@2@PEAXI_N@Z 0000000180039930 f   NpScene.obj
 0001:00038970       ?computeCoriolisAndCentrifugalForces@NpScene@physx@@UEAAXPEBUPxIndexDataPair@2@IPEAX@Z 0000000180039970 f   NpScene.obj
 0001:00038a10       ?computeDenseJacobians@NpScene@physx@@UEAAXPEBUPxIndexDataPair@2@IPEAX@Z 0000000180039a10 f   NpScene.obj
 0001:00038ab0       ?computeGeneralizedGravityForces@NpScene@physx@@UEAAXPEBUPxIndexDataPair@2@IPEAX@Z 0000000180039ab0 f   NpScene.obj
 0001:00038bb0       ?computeGeneralizedMassMatrices@NpScene@physx@@UEAAXPEBUPxIndexDataPair@2@IPEAX@Z 0000000180039bb0 f   NpScene.obj
 0001:00038c50       ?copy@?$PxArray@UPxDebugLine@physx@@V?$PxReflectionAllocator@UPxDebugLine@physx@@@2@@physx@@KAXPEAUPxDebugLine@2@0PEBU32@@Z 0000000180039c50 f i NpScene.obj
 0001:00038c50       ?copy@?$PxArray@VSpatialVector@Cm@physx@@V?$PxReflectionAllocator@VSpatialVector@Cm@physx@@@3@@physx@@KAXPEAVSpatialVector@Cm@2@0PEBV342@@Z 0000000180039c50 f i LowLevelDynamics_static_64:DyTGSDynamics.obj
 0001:00038e00       ?copy@?$PxArray@UPxDebugPoint@physx@@V?$PxReflectionAllocator@UPxDebugPoint@physx@@@2@@physx@@KAXPEAUPxDebugPoint@2@0PEBU32@@Z 0000000180039e00 f i NpScene.obj
 0001:00038f00       ?copy@?$PxArray@UPxDebugTriangle@physx@@V?$PxReflectionAllocator@UPxDebugTriangle@physx@@@2@@physx@@KAXPEAUPxDebugTriangle@2@0PEBU32@@Z 0000000180039f00 f i NpScene.obj
 0001:00039100       ?copyArticulationData@NpScene@physx@@UEAAXPEAX0W4Enum@PxArticulationGpuDataType@2@I0@Z 000000018003a100 f   NpScene.obj
 0001:000391a0       ?copyBodyData@NpScene@physx@@UEAAXPEAUPxGpuBodyData@2@PEAUPxGpuActorPair@2@IPEAX@Z 000000018003a1a0 f   NpScene.obj
 0001:00039240       ?copyContactData@NpScene@physx@@UEAAXPEAXI00@Z 000000018003a240 f   NpScene.obj
 0001:00039300       ?copySoftBodyData@NpScene@physx@@UEAAXPEAPEAXPEAX1W4Enum@PxSoftBodyGpuDataFlag@2@II1@Z 000000018003a300 f   NpScene.obj
 0001:00039360       ?createClient@NpScene@physx@@UEAAEXZ 000000018003a360 f   NpScene.obj
 0001:00039370       ?empty@RenderBuffer@Cm@physx@@UEBA_NXZ 000000018003a370 f i NpScene.obj
 0001:00039390       ?evaluateSDFDistances@NpScene@physx@@UEAAXPEBIIPEBV?$PxVec4T@M@2@0IPEAV32@PEAX@Z 000000018003a390 f   NpScene.obj
 0001:000393f0       ?fetchCollision@NpScene@physx@@UEAA_N_N@Z 000000018003a3f0 f   NpScene.obj
 0001:00039450       ?flush@NpScene@physx@@UEAAX_N@Z 000000018003a450 f i NpScene.obj
 0001:00039460       ?flushSimulation@NpScene@physx@@UEAAX_N@Z 000000018003a460 f   NpScene.obj
 0001:00039500       ?getActiveActors@NpScene@physx@@UEAAPEAPEAVPxActor@2@AEAI@Z 000000018003a500 f   NpScene.obj
 0001:00039550       ?getActors@NpScene@physx@@UEBAIV?$PxFlags@W4Enum@PxActorTypeFlag@physx@@G@2@PEAPEAVPxActor@2@II@Z 000000018003a550 f   NpScene.obj
 0001:000396a0       ?getArticulations@NpScene@physx@@UEBAIPEAPEAVPxArticulationReducedCoordinate@2@II@Z 000000018003a6a0 f   NpScene.obj
 0001:00039700       ?getBounceThresholdVelocity@NpScene@physx@@UEBAMXZ 000000018003a700 f   NpScene.obj
 0001:00039720       ?getBroadPhaseCallback@NpScene@physx@@UEBAPEAVPxBroadPhaseCallback@2@XZ 000000018003a720 f   NpScene.obj
 0001:00039730       ?getBroadPhaseCaps@NpScene@physx@@UEBA_NAEAUPxBroadPhaseCaps@2@@Z 000000018003a730 f   NpScene.obj
 0001:00039750       ?getBroadPhaseRegions@NpScene@physx@@UEBAIPEAUPxBroadPhaseRegionInfo@2@II@Z 000000018003a750 f   NpScene.obj
 0001:00039770       ?getBroadPhaseType@NpScene@physx@@UEBA?AW4Enum@PxBroadPhaseType@2@XZ 000000018003a770 f   NpScene.obj
 0001:00039790       ?getCCDContactModifyCallback@NpScene@physx@@UEBAPEAVPxCCDContactModifyCallback@2@XZ 000000018003a790 f   NpScene.obj
 0001:000397a0       ?getCCDMaxPasses@NpScene@physx@@UEBAIXZ 000000018003a7a0 f   NpScene.obj
 0001:000397b0       ?getCCDMaxSeparation@NpScene@physx@@UEBAMXZ 000000018003a7b0 f   NpScene.obj
 0001:000397c0       ?getCCDThreshold@NpScene@physx@@UEBAMXZ 000000018003a7c0 f   NpScene.obj
 0001:000397d0       ?getConstraints@NpScene@physx@@UEBAIPEAPEAVPxConstraint@2@II@Z 000000018003a7d0 f   NpScene.obj
 0001:00039850       ?getContactModifyCallback@NpScene@physx@@UEBAPEAVPxContactModifyCallback@2@XZ 000000018003a850 f   NpScene.obj
 0001:00039860       ?getContactReportStreamBufferSize@NpScene@physx@@UEBAIXZ 000000018003a860 f   NpScene.obj
 0001:00039870       ?getCpuDispatcher@NpScene@physx@@UEBAPEAVPxCpuDispatcher@2@XZ 000000018003a870 f   NpScene.obj
 0001:00039880       ?getCudaContextManager@NpScene@physx@@UEAAPEAVPxCudaContextManager@2@XZ 000000018003a880 f i NpScene.obj
 0001:00039880       ?getCudaContextManager@NpScene@physx@@UEBAPEAVPxCudaContextManager@2@XZ 000000018003a880 f i NpScene.obj
 0001:00039890       ?getDominanceGroupPair@NpScene@physx@@UEBA?AUPxDominanceGroupPair@2@EE@Z 000000018003a890 f   NpScene.obj
 0001:000398b0       ?getFilterCallback@NpScene@physx@@UEBAPEAVPxSimulationFilterCallback@2@XZ 000000018003a8b0 f   NpScene.obj
 0001:000398c0       ?getFilterShader@NpScene@physx@@UEBAP6A?AV?$PxFlags@W4Enum@PxFilterFlag@physx@@G@2@IUPxFilterData@2@I0AEAV?$PxFlags@W4Enum@PxPairFlag@physx@@G@2@PEBXI@ZXZ 000000018003a8c0 f   NpScene.obj
 0001:000398d0       ?getFilterShaderData@NpScene@physx@@UEBAPEBXXZ 000000018003a8d0 f   NpScene.obj
 0001:000398e0       ?getFilterShaderDataSize@NpScene@physx@@UEBAIXZ 000000018003a8e0 f   NpScene.obj
 0001:000398f0       ?getFlags@NpScene@physx@@UEBA?AV?$PxFlags@W4Enum@PxSceneFlag@physx@@I@2@XZ 000000018003a8f0 f   NpScene.obj
 0001:00039900       ?getFrictionCorrelationDistance@NpScene@physx@@UEBAMXZ 000000018003a900 f   NpScene.obj
 0001:00039910       ?getFrictionOffsetThreshold@NpScene@physx@@UEBAMXZ 000000018003a910 f   NpScene.obj
 0001:00039920       ?getFrictionType@NpScene@physx@@UEBA?AW4Enum@PxFrictionType@2@XZ 000000018003a920 f   NpScene.obj
 0001:00039930       ?getFrozenActors@NpScene@physx@@UEAAPEAPEAVPxActor@2@AEAI@Z 000000018003a930 f   NpScene.obj
 0001:00039980       ?getGpuDynamicsConfig@NpScene@physx@@UEBA?AUPxgDynamicsMemoryConfig@2@XZ 000000018003a980 f i NpScene.obj
 0001:000399b0       ?getGravity@NpScene@physx@@UEBA?AV?$PxVec3T@M@2@XZ 000000018003a9b0 f   NpScene.obj
 0001:000399d0       ?getKinematicKinematicFilteringMode@NpScene@physx@@UEBA?AW4Enum@PxPairFilteringMode@2@XZ 000000018003a9d0 f   NpScene.obj
 0001:000399e0       ?getLimits@NpScene@physx@@UEBA?AVPxSceneLimits@2@XZ 000000018003a9e0 f   NpScene.obj
 0001:00039a00       ?getMaxBiasCoefficient@NpScene@physx@@UEBAMXZ 000000018003aa00 f   NpScene.obj
 0001:00039a10       ?getMaxNbContactDataBlocksUsed@NpScene@physx@@UEBAIXZ 000000018003aa10 f   NpScene.obj
 0001:00039a20       ?getName@NpScene@physx@@UEBAPEBDXZ 000000018003aa20 f   NpScene.obj
 0001:00039a30       ?getName@SceneCompletion@NpScene@physx@@UEBAPEBDXZ 000000018003aa30 f i NpScene.obj
 0001:00039a40       ?getNbActors@NpScene@physx@@UEBAIV?$PxFlags@W4Enum@PxActorTypeFlag@physx@@G@2@@Z 000000018003aa40 f   NpScene.obj
 0001:00039a60       ?getNbArticulations@NpScene@physx@@UEBAIXZ 000000018003aa60 f   NpScene.obj
 0001:00039a70       ?getNbBroadPhaseRegions@NpScene@physx@@UEBAIXZ 000000018003aa70 f   NpScene.obj
 0001:00039a90       ?getNbConstraints@NpScene@physx@@UEBAIXZ 000000018003aa90 f   NpScene.obj
 0001:00039aa0       ?getNbContactDataBlocksUsed@NpScene@physx@@UEBAIXZ 000000018003aaa0 f   NpScene.obj
 0001:00039ab0       ?getNbParticleSystems@NpScene@physx@@UEBAIW4Enum@PxParticleSolverType@2@@Z 000000018003aab0 f   NpScene.obj
 0001:00039ad0       ?getNbSoftBodies@NpScene@physx@@UEBAIXZ 000000018003aad0 f   NpScene.obj
 0001:00039ae0       ?getParticleSystems@NpScene@physx@@UEBAIW4Enum@PxParticleSolverType@2@PEAPEAVPxParticleSystem@2@II@Z 000000018003aae0 f   NpScene.obj
 0001:00039b40       ?getPhysics@NpScene@physx@@UEAAAEAVPxPhysics@2@XZ 000000018003ab40 f   NpScene.obj
 0001:00039b50       ?getRenderBuffer@NpScene@physx@@UEAAAEBVPxRenderBuffer@2@XZ 000000018003ab50 f   NpScene.obj
 0001:00039b90       ?getSimulationController@NpScene@physx@@UEAAPEAVPxsSimulationController@2@XZ 000000018003ab90 f   NpScene.obj
 0001:00039ba0       ?getSimulationEventCallback@NpScene@physx@@UEBAPEAVPxSimulationEventCallback@2@XZ 000000018003aba0 f   NpScene.obj
 0001:00039bb0       ?getSimulationStatistics@NpScene@physx@@UEBAXAEAVPxSimulationStatistics@2@@Z 000000018003abb0 f   NpScene.obj
 0001:00039be0       ?getSoftBodies@NpScene@physx@@UEBAIPEAPEAVPxSoftBody@2@II@Z 000000018003abe0 f   NpScene.obj
 0001:00039c40       ?getSolverArticulationBatchSize@NpScene@physx@@UEBAIXZ 000000018003ac40 f   NpScene.obj
 0001:00039c50       ?getSolverBatchSize@NpScene@physx@@UEBAIXZ 000000018003ac50 f   NpScene.obj
 0001:00039c60       ?getSolverType@NpScene@physx@@UEBA?AW4Enum@PxSolverType@2@XZ 000000018003ac60 f   NpScene.obj
 0001:00039c70       ?getStaticKinematicFilteringMode@NpScene@physx@@UEBA?AW4Enum@PxPairFilteringMode@2@XZ 000000018003ac70 f   NpScene.obj
 0001:00039c80       ?getTaskManager@NpScene@physx@@UEBAPEAVPxTaskManager@2@XZ 000000018003ac80 f i NpScene.obj
 0001:00039c90       ?getTimestamp@NpScene@physx@@UEBAIXZ 000000018003ac90 f   NpScene.obj
 0001:00039ca0       ?getVisualizationCullingBox@NpScene@physx@@UEBA?AVPxBounds3@2@XZ 000000018003aca0 f   NpScene.obj
 0001:00039ce0       ?getVisualizationParameter@NpScene@physx@@UEBAMW4Enum@PxVisualizationParameter@2@@Z 000000018003ace0 f   NpScene.obj
 0001:00039d20       ?getWakeCounterResetValue@NpScene@physx@@UEBAMXZ 000000018003ad20 f   NpScene.obj
 0001:00039d30       ?growAndPushBack@?$PxArray@PEAVNpConstraint@physx@@V?$PxReflectionAllocator@PEAVNpConstraint@physx@@@2@@physx@@IEAAAEAPEAVNpConstraint@2@AEBQEAV32@@Z 000000018003ad30 f i NpScene.obj
 0001:00039e50       ?growAndPushBack@?$PxArray@PEAVNpRigidDynamic@physx@@V?$PxReflectionAllocator@PEAVNpRigidDynamic@physx@@@2@@physx@@IEAAAEAPEAVNpRigidDynamic@2@AEBQEAV32@@Z 000000018003ae50 f i NpScene.obj
 0001:00039f10       ?growAndPushBack@?$PxArray@PEAVNpRigidStatic@physx@@V?$PxReflectionAllocator@PEAVNpRigidStatic@physx@@@2@@physx@@IEAAAEAPEAVNpRigidStatic@2@AEBQEAV32@@Z 000000018003af10 f i NpScene.obj
 0001:00039fd0       ?growAndPushBack@?$PxArray@PEAXV?$PxReflectionAllocator@U?$Block@E$0BAA@@Scene@Sc@physx@@@physx@@@physx@@IEAAAEAPEAXAEBQEAX@Z 000000018003afd0 f i NpScene.obj
 0001:0003a0f0       ?growAndPushBack@?$PxArray@PEAXV?$PxReflectionAllocator@U?$Block@E$0BIA@@Scene@Sc@physx@@@physx@@@physx@@IEAAAEAPEAXAEBQEAX@Z 000000018003b0f0 f i NpScene.obj
 0001:0003a210       ?growAndPushBack@?$PxArray@PEAXV?$PxReflectionAllocator@U?$Block@E$0IA@@Scene@Sc@physx@@@physx@@@physx@@IEAAAEAPEAXAEBQEAX@Z 000000018003b210 f i NpScene.obj
 0001:0003a330       ?growAndPushBack@?$PxArray@PEAXV?$PxReflectionAllocator@U?$Block@PEAX$07@Scene@Sc@physx@@@physx@@@physx@@IEAAAEAPEAXAEBQEAX@Z 000000018003b330 f i NpScene.obj
 0001:0003a450       ?growAndPushBack@?$PxArray@PEAXV?$PxReflectionAllocator@U?$Block@PEAX$0BA@@Scene@Sc@physx@@@physx@@@physx@@IEAAAEAPEAXAEBQEAX@Z 000000018003b450 f i NpScene.obj
 0001:0003a570       ?growAndPushBack@?$PxArray@PEAXV?$PxReflectionAllocator@U?$Block@PEAX$0CA@@Scene@Sc@physx@@@physx@@@physx@@IEAAAEAPEAXAEBQEAX@Z 000000018003b570 f i NpScene.obj
 0001:0003a690       ?growAndPushBack@?$PxArray@UPxDebugLine@physx@@V?$PxReflectionAllocator@UPxDebugLine@physx@@@2@@physx@@IEAAAEAUPxDebugLine@2@AEBU32@@Z 000000018003b690 f i NpScene.obj
 0001:0003a770       ?growAndPushBack@?$PxArray@UPxDebugPoint@physx@@V?$PxReflectionAllocator@UPxDebugPoint@physx@@@2@@physx@@IEAAAEAUPxDebugPoint@2@AEBU32@@Z 000000018003b770 f i NpScene.obj
 0001:0003a830       ?growAndPushBack@?$PxArray@UPxDebugTriangle@physx@@V?$PxReflectionAllocator@UPxDebugTriangle@physx@@@2@@physx@@IEAAAEAUPxDebugTriangle@2@AEBU32@@Z 000000018003b830 f i NpScene.obj
 0001:0003a930       ?growAndPushBack@?$PxArray@VMaterialEvent@NpScene@physx@@V?$PxReflectionAllocator@VMaterialEvent@NpScene@physx@@@3@@physx@@IEAAAEAVMaterialEvent@NpScene@2@AEBV342@@Z 000000018003b930 f i NpScene.obj
 0001:0003a9f0       ?loadFromDesc@NpScene@physx@@QEAA_NAEBVPxSceneDesc@2@@Z 000000018003b9f0 f   NpScene.obj
 0001:0003aa90       ?lockRead@NpScene@physx@@UEAAXPEBDI@Z 000000018003ba90 f   NpScene.obj
 0001:0003ab20       ?lockWrite@NpScene@physx@@UEAAXPEBDI@Z 000000018003bb20 f   NpScene.obj
 0001:0003ac10       ?recreate@?$PxArray@PEAVNpRigidDynamic@physx@@V?$PxReflectionAllocator@PEAVNpRigidDynamic@physx@@@2@@physx@@IEAAXI@Z 000000018003bc10 f i NpScene.obj
 0001:0003acb0       ?recreate@?$PxArray@PEAVNpRigidStatic@physx@@V?$PxReflectionAllocator@PEAVNpRigidStatic@physx@@@2@@physx@@IEAAXI@Z 000000018003bcb0 f i NpScene.obj
 0001:0003ad50       ?recreate@?$PxArray@UPxDebugLine@physx@@V?$PxReflectionAllocator@UPxDebugLine@physx@@@2@@physx@@IEAAXI@Z 000000018003bd50 f i NpScene.obj
 0001:0003ade0       ?recreate@?$PxArray@UPxDebugPoint@physx@@V?$PxReflectionAllocator@UPxDebugPoint@physx@@@2@@physx@@IEAAXI@Z 000000018003bde0 f i NpScene.obj
 0001:0003ae70       ?recreate@?$PxArray@UPxDebugTriangle@physx@@V?$PxReflectionAllocator@UPxDebugTriangle@physx@@@2@@physx@@IEAAXI@Z 000000018003be70 f i NpScene.obj
 0001:0003af00       ?recreate@?$PxArray@VMaterialEvent@NpScene@physx@@V?$PxReflectionAllocator@VMaterialEvent@NpScene@physx@@@3@@physx@@IEAAXI@Z 000000018003bf00 f i NpScene.obj
 0001:0003afa0       ?recreate@?$PxArray@VPxBounds3@physx@@V?$PxInlineAllocator@$0MA@V?$PxReflectionAllocator@VPxBounds3@physx@@@physx@@@2@@physx@@IEAAXI@Z 000000018003bfa0 f i NpScene.obj
 0001:0003b160       ?release@NpScene@physx@@UEAAXXZ 000000018003c160 f   NpScene.obj
 0001:0003b200       ?release@PxLightCpuTask@physx@@UEAAXXZ 000000018003c200 f i NpScene.obj
 0001:0003b220       ?release@SceneCompletion@NpScene@physx@@UEAAXXZ 000000018003c220 f i NpScene.obj
 0001:0003b250       ?removeActor@NpScene@physx@@UEAAXAEAVPxActor@2@_N@Z 000000018003c250 f   NpScene.obj
 0001:0003b2e0       ?removeActorInternal@NpScene@physx@@QEAAXAEAVPxActor@2@_N1@Z 000000018003c2e0 f   NpScene.obj
 0001:0003b3a0       ?removeActors@NpScene@physx@@UEAAXPEBQEAVPxActor@2@I_N@Z 000000018003c3a0 f   NpScene.obj
 0001:0003b5f0       ?removeAggregate@NpScene@physx@@UEAAXAEAVPxAggregate@2@_N@Z 000000018003c5f0 f   NpScene.obj
 0001:0003b7f0       ?removeArticulation@NpScene@physx@@UEAAXAEAVPxArticulationReducedCoordinate@2@_N@Z 000000018003c7f0 f   NpScene.obj
 0001:0003b8c0       ?removeArticulationInternal@NpScene@physx@@QEAAXAEAVPxArticulationReducedCoordinate@2@_N1@Z 000000018003c8c0 f   NpScene.obj
 0001:0003bbb0       ?removeArticulationLink@NpScene@physx@@QEAAXAEAVNpArticulationLink@2@_N@Z 000000018003cbb0 f   NpScene.obj
 0001:0003bdb0       ?removeArticulationSensors@NpScene@physx@@QEAAXAEAVPxArticulationReducedCoordinate@2@@Z 000000018003cdb0 f   NpScene.obj
 0001:0003be10       ?removeArticulationTendons@NpScene@physx@@QEAAXAEAVPxArticulationReducedCoordinate@2@@Z 000000018003ce10 f   NpScene.obj
 0001:0003bea0       ?removeBroadPhaseRegion@NpScene@physx@@UEAA_NI@Z 000000018003cea0 f   NpScene.obj
 0001:0003bf00       ?removeFromConstraintList@NpScene@physx@@QEAAXAEAVPxConstraint@2@@Z 000000018003cf00 f   NpScene.obj
 0001:0003bfc0       ?removeFromRigidDynamicList@NpScene@physx@@QEAAXAEAVNpRigidDynamic@2@@Z 000000018003cfc0 f   NpScene.obj
 0001:0003c090       ?removeFromRigidStaticList@NpScene@physx@@QEAAXAEAVNpRigidStatic@2@@Z 000000018003d090 f   NpScene.obj
 0001:0003c160       ?removeMaterial@NpScene@physx@@QEAAXAEBVNpFEMSoftBodyMaterial@2@@Z 000000018003d160 f   NpScene.obj
 0001:0003c1f0       ?removeMaterial@NpScene@physx@@QEAAXAEBVNpMaterial@2@@Z 000000018003d1f0 f   NpScene.obj
 0001:0003c280       ?removeMaterial@NpScene@physx@@QEAAXAEBVNpPBDMaterial@2@@Z 000000018003d280 f   NpScene.obj
 0001:0003c310       ?removeParticleSystem@NpScene@physx@@AEAAXAEAVPxParticleSystem@2@_N@Z 000000018003d310 f   NpScene.obj
 0001:0003c390       ?removeReference@PxLightCpuTask@physx@@UEAAXXZ 000000018003d390 f i NpScene.obj
 0001:0003c3b0       ?removeRigidDynamic@NpScene@physx@@AEAAXAEAVNpRigidDynamic@2@_N1@Z 000000018003d3b0 f   NpScene.obj
 0001:0003c4b0       ?removeRigidStatic@NpScene@physx@@AEAAXAEAVNpRigidStatic@2@_N1@Z 000000018003d4b0 f   NpScene.obj
 0001:0003c5b0       ?removeSoftBody@NpScene@physx@@AEAAXAEAVPxSoftBody@2@_N@Z 000000018003d5b0 f   NpScene.obj
 0001:0003c620       ?reserveLines@RenderBuffer@Cm@physx@@UEAAPEAUPxDebugLine@3@I@Z 000000018003d620 f i NpScene.obj
 0001:0003c680       ?reservePoints@RenderBuffer@Cm@physx@@UEAAPEAUPxDebugPoint@3@I@Z 000000018003d680 f i NpScene.obj
 0001:0003c6e0       ?resetFiltering@NpScene@physx@@UEAA_NAEAVPxActor@2@@Z 000000018003d6e0 f   NpScene.obj
 0001:0003c810       ?resetFiltering@NpScene@physx@@UEAA_NAEAVPxRigidActor@2@PEBQEAVPxShape@2@I@Z 000000018003d810 f   NpScene.obj
 0001:0003c950       ?resetFiltering_@?$NpRigidActorTemplate@VPxArticulationLink@physx@@@physx@@QEAA_NAEAVNpActor@2@AEAVRigidCore@Sc@2@PEBQEAVPxShape@2@I@Z 000000018003d950 f i NpScene.obj
 0001:0003c950       ?resetFiltering_@?$NpRigidActorTemplate@VPxRigidDynamic@physx@@@physx@@QEAA_NAEAVNpActor@2@AEAVRigidCore@Sc@2@PEBQEAVPxShape@2@I@Z 000000018003d950 f i NpScene.obj
 0001:0003c950       ?resetFiltering_@?$NpRigidActorTemplate@VPxRigidStatic@physx@@@physx@@QEAA_NAEAVNpActor@2@AEAVRigidCore@Sc@2@PEBQEAVPxShape@2@I@Z 000000018003d950 f i NpScene.obj
 0001:0003caa0       ?resize@?$PxArray@VMaterialEvent@NpScene@physx@@V?$PxReflectionAllocator@VMaterialEvent@NpScene@physx@@@3@@physx@@QEAAXIAEBVMaterialEvent@NpScene@2@@Z 000000018003daa0 f i NpScene.obj
 0001:0003cb60       ?resize@?$PxsMaterialManagerT@V?$MaterialCoreT@UPxsMaterialData@physx@@VPxMaterial@2@@physx@@@physx@@QEAAXI@Z 000000018003db60 f i NpScene.obj
 0001:0003ce60       ?resizeUninitialized@?$PxArray@VPxBounds3@physx@@V?$PxInlineAllocator@$0MA@V?$PxReflectionAllocator@VPxBounds3@physx@@@physx@@@2@@physx@@QEAAXI@Z 000000018003de60 f i NpScene.obj
 0001:0003ceb0       ?run@?$DelegateTask@VNpScene@physx@@$H?executeAdvance@12@QEAAXPEAVPxBaseTask@2@@ZA@@Cm@physx@@UEAAXXZ 000000018003deb0 f i NpScene.obj
 0001:0003cf10       ?run@?$DelegateTask@VNpScene@physx@@$H?executeCollide@12@QEAAXPEAVPxBaseTask@2@@ZA@@Cm@physx@@UEAAXXZ 000000018003df10 f i NpScene.obj
 0001:0003cf70       ?run@?$DelegateTask@VNpScene@physx@@$H?executeScene@12@QEAAXPEAVPxBaseTask@2@@ZA@@Cm@physx@@UEAAXXZ 000000018003df70 f i NpScene.obj
 0001:0003cfd0       ?run@?$DelegateTask@VNpScene@physx@@$H?sceneQueriesDynamicPrunerUpdate@12@AEAAXPEAVPxBaseTask@2@@ZA@@Cm@physx@@UEAAXXZ 000000018003dfd0 f i NpScene.obj
 0001:0003d020       ?run@?$DelegateTask@VNpScene@physx@@$H?sceneQueriesStaticPrunerUpdate@12@AEAAXPEAVPxBaseTask@2@@ZA@@Cm@physx@@UEAAXXZ 000000018003e020 f i NpScene.obj
 0001:0003d070       ?run@BaseTask@Cm@physx@@UEAAXXZ 000000018003e070 f i SimulationController_static_64:ScScene.obj
 0001:0003d070       ?run@Task@Cm@physx@@UEAAXXZ 000000018003e070 f i NpScene.obj
 0001:0003d0b0       ?runInternal@?$DelegateTask@VNpScene@physx@@$H?executeAdvance@12@QEAAXPEAVPxBaseTask@2@@ZA@@Cm@physx@@UEAAXXZ 000000018003e0b0 f i NpScene.obj
 0001:0003d0d0       ?runInternal@?$DelegateTask@VNpScene@physx@@$H?executeCollide@12@QEAAXPEAVPxBaseTask@2@@ZA@@Cm@physx@@UEAAXXZ 000000018003e0d0 f i NpScene.obj
 0001:0003d0f0       ?runInternal@?$DelegateTask@VNpScene@physx@@$H?executeScene@12@QEAAXPEAVPxBaseTask@2@@ZA@@Cm@physx@@UEAAXXZ 000000018003e0f0 f i NpScene.obj
 0001:0003d110       ?runInternal@?$DelegateTask@VNpScene@physx@@$H?sceneQueriesDynamicPrunerUpdate@12@AEAAXPEAVPxBaseTask@2@@ZA@@Cm@physx@@UEAAXXZ 000000018003e110 f i NpScene.obj
 0001:0003d120       ?runInternal@?$DelegateTask@VNpScene@physx@@$H?sceneQueriesStaticPrunerUpdate@12@AEAAXPEAVPxBaseTask@2@@ZA@@Cm@physx@@UEAAXXZ 000000018003e120 f i NpScene.obj
 0001:0003d130       ?scAddActor@NpScene@physx@@QEAAXAEAVNpRigidDynamic@2@_NPEAVPxBounds3@2@PEBVBVH@Gu@2@@Z 000000018003e130 f   NpScene.obj
 0001:0003d1b0       ?scAddActor@NpScene@physx@@QEAAXAEAVNpRigidStatic@2@_NPEAVPxBounds3@2@PEBVBVH@Gu@2@@Z 000000018003e1b0 f   NpScene.obj
 0001:0003d220       ?scRemoveActor@NpScene@physx@@QEAAXAEAVNpArticulationLink@2@_N1@Z 000000018003e220 f   NpScene.obj
 0001:0003d320       ?scRemoveActor@NpScene@physx@@QEAAXAEAVNpRigidDynamic@2@_N1@Z 000000018003e320 f   NpScene.obj
 0001:0003d4e0       ?scRemoveActor@NpScene@physx@@QEAAXAEAVNpRigidStatic@2@_N1@Z 000000018003e4e0 f   NpScene.obj
 0001:0003d690       ?scRemoveAggregate@NpScene@physx@@QEAAXAEAVNpAggregate@2@@Z 000000018003e690 f   NpScene.obj
 0001:0003d6c0       ?scRemoveArticulation@NpScene@physx@@QEAAXAEAVNpArticulationReducedCoordinate@2@@Z 000000018003e6c0 f   NpScene.obj
 0001:0003d710       ?scRemoveArticulationFixedTendon@NpScene@physx@@QEAAXAEAVNpArticulationFixedTendon@2@@Z 000000018003e710 f   NpScene.obj
 0001:0003d740       ?scRemoveArticulationJoint@NpScene@physx@@QEAAXAEAVNpArticulationJointReducedCoordinate@2@@Z 000000018003e740 f   NpScene.obj
 0001:0003d770       ?scRemoveArticulationSensor@NpScene@physx@@QEAAXAEAVNpArticulationSensor@2@@Z 000000018003e770 f   NpScene.obj
 0001:0003d7a0       ?scRemoveArticulationSpatialTendon@NpScene@physx@@QEAAXAEAVNpArticulationSpatialTendon@2@@Z 000000018003e7a0 f   NpScene.obj
 0001:0003d7d0       ?scRemoveParticleSystem@NpScene@physx@@QEAAXAEAVNpPBDParticleSystem@2@@Z 000000018003e7d0 f   NpScene.obj
 0001:0003d820       ?scRemoveSoftBody@NpScene@physx@@QEAAXAEAVNpSoftBody@2@@Z 000000018003e820 f   NpScene.obj
 0001:0003d870       ?scSwitchRigidFromNoSim@NpScene@physx@@QEAAXAEAVNpActor@2@@Z 000000018003e870 f   NpScene.obj
 0001:0003d960       ?scSwitchRigidToNoSim@NpScene@physx@@QEAAXAEAVNpActor@2@@Z 000000018003e960 f   NpScene.obj
 0001:0003da40       ?setActiveActors@NpScene@physx@@UEAAXPEAPEAVPxActor@2@I@Z 000000018003ea40 f   NpScene.obj
 0001:0003da50       ?setBounceThresholdVelocity@NpScene@physx@@UEAAXM@Z 000000018003ea50 f   NpScene.obj
 0001:0003dab0       ?setBroadPhaseCallback@NpScene@physx@@UEAAXPEAVPxBroadPhaseCallback@2@@Z 000000018003eab0 f   NpScene.obj
 0001:0003db00       ?setCCDContactModifyCallback@NpScene@physx@@UEAAXPEAVPxCCDContactModifyCallback@2@@Z 000000018003eb00 f   NpScene.obj
 0001:0003db60       ?setCCDMaxPasses@NpScene@physx@@UEAAXI@Z 000000018003eb60 f   NpScene.obj
 0001:0003dbc0       ?setCCDMaxSeparation@NpScene@physx@@UEAAXM@Z 000000018003ebc0 f   NpScene.obj
 0001:0003dc20       ?setCCDThreshold@NpScene@physx@@UEAAXM@Z 000000018003ec20 f   NpScene.obj
 0001:0003dc80       ?setContactModifyCallback@NpScene@physx@@UEAAXPEAVPxContactModifyCallback@2@@Z 000000018003ec80 f   NpScene.obj
 0001:0003dcf0       ?setDominanceGroupPair@NpScene@physx@@UEAAXEEAEBUPxDominanceGroupPair@2@@Z 000000018003ecf0 f   NpScene.obj
 0001:0003dd50       ?setFilterShaderData@NpScene@physx@@UEAAXPEBXI@Z 000000018003ed50 f   NpScene.obj
 0001:0003ddb0       ?setFlag@NpScene@physx@@UEAAXW4Enum@PxSceneFlag@2@_N@Z 000000018003edb0 f   NpScene.obj
 0001:0003de40       ?setFrictionCorrelationDistance@NpScene@physx@@UEAAXM@Z 000000018003ee40 f   NpScene.obj
 0001:0003dea0       ?setFrictionOffsetThreshold@NpScene@physx@@UEAAXM@Z 000000018003eea0 f   NpScene.obj
 0001:0003df00       ?setFrozenActorFlag@NpScene@physx@@UEAAX_N@Z 000000018003ef00 f   NpScene.obj
 0001:0003df10       ?setGravity@NpScene@physx@@UEAAXAEBV?$PxVec3T@M@2@@Z 000000018003ef10 f   NpScene.obj
 0001:0003df80       ?setLimits@NpScene@physx@@UEAAXAEBVPxSceneLimits@2@@Z 000000018003ef80 f   NpScene.obj
 0001:0003e030       ?setMaxBiasCoefficient@NpScene@physx@@UEAAXM@Z 000000018003f030 f   NpScene.obj
 0001:0003e090       ?setName@NpScene@physx@@UEAAXPEBD@Z 000000018003f090 f   NpScene.obj
 0001:0003e0a0       ?setNbContactDataBlocks@NpScene@physx@@UEAAXI@Z 000000018003f0a0 f   NpScene.obj
 0001:0003e0b0       ?setSimulationEventCallback@NpScene@physx@@UEAAXPEAVPxSimulationEventCallback@2@@Z 000000018003f0b0 f   NpScene.obj
 0001:0003e110       ?setSolverArticulationBatchSize@NpScene@physx@@UEAAXI@Z 000000018003f110 f   NpScene.obj
 0001:0003e170       ?setSolverBatchSize@NpScene@physx@@UEAAXI@Z 000000018003f170 f   NpScene.obj
 0001:0003e1d0       ?setVisualizationCullingBox@NpScene@physx@@UEAAXAEBVPxBounds3@2@@Z 000000018003f1d0 f   NpScene.obj
 0001:0003e250       ?setVisualizationParameter@NpScene@physx@@UEAA_NW4Enum@PxVisualizationParameter@2@M@Z 000000018003f250 f   NpScene.obj
 0001:0003e300       ?shift@RenderBuffer@Cm@physx@@UEAAXAEBV?$PxVec3T@M@3@@Z 000000018003f300 f i NpScene.obj
 0001:0003e4b0       ?shiftOrigin@NpScene@physx@@UEAAXAEBV?$PxVec3T@M@2@@Z 000000018003f4b0 f   NpScene.obj
 0001:0003e6c0       ?simulate@NpScene@physx@@UEAA_NMPEAVPxBaseTask@2@PEAXI_N@Z 000000018003f6c0 f   NpScene.obj
 0001:0003e700       ?simulateOrCollide@NpScene@physx@@AEAA_NMPEAVPxBaseTask@2@PEAXI_NPEBDW4Enum@SimulationStage@Sc@2@@Z 000000018003f700 f   NpScene.obj
 0001:0003eaf0       ?unlockRead@NpScene@physx@@UEAAXXZ 000000018003faf0 f   NpScene.obj
 0001:0003eb90       ?unlockWrite@NpScene@physx@@UEAAXXZ 000000018003fb90 f   NpScene.obj
 0001:0003ec40       ?updateConstants@NpScene@physx@@QEAAXAEBV?$PxArray@PEAVNpConstraint@physx@@V?$PxReflectionAllocator@PEAVNpConstraint@physx@@@2@@2@@Z 000000018003fc40 f   NpScene.obj
 0001:0003ec90       ?updateMaterial@NpScene@physx@@QEAAXAEBVNpFEMSoftBodyMaterial@2@@Z 000000018003fc90 f   NpScene.obj
 0001:0003ed10       ?updateMaterial@NpScene@physx@@QEAAXAEBVNpMaterial@2@@Z 000000018003fd10 f   NpScene.obj
 0001:0003ed90       ?updateMaterial@NpScene@physx@@QEAAXAEBVNpPBDMaterial@2@@Z 000000018003fd90 f   NpScene.obj
 0001:0003eed0       ??_ENpContactCallbackTask@physx@@UEAAPEAXI@Z 000000018003fed0 f i NpSceneFetchResults.obj
 0001:0003eed0       ??_EPxsParallelSolverTask@Dy@physx@@UEAAPEAXI@Z 000000018003fed0 f i LowLevelDynamics_static_64:DyDynamics.obj
 0001:0003eed0       ??_ESetStepperTask@Dy@physx@@UEAAPEAXI@Z 000000018003fed0 f i LowLevelDynamics_static_64:DyTGSDynamics.obj
 0001:0003eed0       ??_ESetupArticulationInternalConstraintsTask@Dy@physx@@UEAAPEAXI@Z 000000018003fed0 f i LowLevelDynamics_static_64:DyTGSDynamics.obj
 0001:0003eed0       ??_GNpContactCallbackTask@physx@@UEAAPEAXI@Z 000000018003fed0 f i NpSceneFetchResults.obj
 0001:0003eed0       ??_GPxsParallelSolverTask@Dy@physx@@UEAAPEAXI@Z 000000018003fed0 f i LowLevelDynamics_static_64:DyDynamics.obj
 0001:0003eed0       ??_GSetStepperTask@Dy@physx@@UEAAPEAXI@Z 000000018003fed0 f i LowLevelDynamics_static_64:DyTGSDynamics.obj
 0001:0003eed0       ??_GSetupArticulationInternalConstraintsTask@Dy@physx@@UEAAPEAXI@Z 000000018003fed0 f i LowLevelDynamics_static_64:DyTGSDynamics.obj
 0001:0003ef10       ?allocate@?$PxArray@PEAEV?$PxReflectionAllocator@PEAE@physx@@@physx@@IEAAPEAPEAEI@Z 000000018003ff10 f i NpSceneFetchResults.obj
 0001:0003efa0       ?checkResults@NpScene@physx@@UEAA_N_N@Z 000000018003ffa0 f   NpSceneFetchResults.obj
 0001:0003efb0       ?fetchResults@NpScene@physx@@UEAA_N_NPEAI@Z 000000018003ffb0 f   NpSceneFetchResults.obj
 0001:0003f0d0       ?fetchResultsFinish@NpScene@physx@@UEAAXPEAI@Z 00000001800400d0 f   NpSceneFetchResults.obj
 0001:0003f1d0       ?fetchResultsParticleSystem@NpScene@physx@@EEAAXXZ 00000001800401d0 f   NpSceneFetchResults.obj
 0001:0003f1f0       ?fetchResultsPostContactCallbacks@NpScene@physx@@AEAAXXZ 00000001800401f0 f   NpSceneFetchResults.obj
 0001:0003f2c0       ?fetchResultsPreContactCallbacks@NpScene@physx@@AEAAXXZ 00000001800402c0 f   NpSceneFetchResults.obj
 0001:0003f340       ?fetchResultsStart@NpScene@physx@@UEAA_NAEAPEBUPxContactPairHeader@2@AEAI_N@Z 0000000180040340 f   NpSceneFetchResults.obj
 0001:0003f400       ?getName@NpContactCallbackTask@physx@@UEBAPEBDXZ 0000000180040400 f i NpSceneFetchResults.obj
 0001:0003f410       ?growAndPushBack@?$PxArray@PEAEV?$PxReflectionAllocator@PEAE@physx@@@physx@@IEAAAEAPEAEAEBQEAE@Z 0000000180040410 f i NpSceneFetchResults.obj
 0001:0003f4d0       ?processCallbacks@NpScene@physx@@UEAAXPEAVPxBaseTask@2@@Z 00000001800404d0 f   NpSceneFetchResults.obj
 0001:0003f6f0       ?run@NpContactCallbackTask@physx@@UEAAXXZ 00000001800406f0 f   NpSceneFetchResults.obj
 0001:0003f7c0       ??0NpSceneQueries@physx@@QEAA@AEBVPxSceneDesc@1@PEAVPvdSceneClient@Vd@1@_K@Z 00000001800407c0 f   NpSceneQueries.obj
 0001:0003f960       ??1NpSceneQueries@physx@@UEAA@XZ 0000000180040960 f   NpSceneQueries.obj
 0001:0003fa70       ??_ENpSceneQueries@physx@@UEAAPEAXI@Z 0000000180040a70 f i NpSceneQueries.obj
 0001:0003fa70       ??_GNpSceneQueries@physx@@UEAAPEAXI@Z 0000000180040a70 f i NpSceneQueries.obj
 0001:0003fe60       ?checkQueries@NpScene@physx@@UEAA_N_N@Z 0000000180040e60 f   NpSceneQueries.obj
 0001:0003ff10       ?fetchQueries@NpScene@physx@@UEAA_N_N@Z 0000000180040f10 f   NpSceneQueries.obj
 0001:00040090       ?flushUpdates@NpScene@physx@@UEAAXXZ 0000000180041090 f   NpSceneQueries.obj
 0001:000400f0       ?forceRebuildDynamicTree@NpScene@physx@@UEAAXI@Z 00000001800410f0 f   NpSceneQueries.obj
 0001:00040140       ?forceSceneQueryRebuild@NpScene@physx@@UEAAXXZ 0000000180041140 f   NpSceneQueries.obj
 0001:000401a0       ?getDynamicTreeRebuildRateHint@NpScene@physx@@UEBAIXZ 00000001800411a0 f   NpSceneQueries.obj
 0001:00040260       ?getStaticTimestamp@NpScene@physx@@UEBAIXZ 0000000180041260 f   NpSceneQueries.obj
 0001:00040270       ?getUpdateMode@NpScene@physx@@UEBA?AW4Enum@PxSceneQueryUpdateMode@2@XZ 0000000180041270 f   NpSceneQueries.obj
 0001:000403d0       ?overlap@NpScene@physx@@UEBA_NAEBVPxGeometry@2@AEBV?$PxTransformT@M@2@AEAU?$PxHitCallback@UPxOverlapHit@physx@@@2@AEBUPxQueryFilterData@2@PEAVPxQueryFilterCallback@2@PEBUPxQueryCache@2@V?$PxFlags@W4Enum@PxGeometryQueryFlag@physx@@I@2@@Z 00000001800413d0 f   NpSceneQueries.obj
 0001:000404c0       ?raycast@NpScene@physx@@UEBA_NAEBV?$PxVec3T@M@2@0MAEAU?$PxHitCallback@UPxRaycastHit@physx@@@2@V?$PxFlags@W4Enum@PxHitFlag@physx@@G@2@AEBUPxQueryFilterData@2@PEAVPxQueryFilterCallback@2@PEBUPxQueryCache@2@V?$PxFlags@W4Enum@PxGeometryQueryFlag@physx@@I@2@@Z 00000001800414c0 f   NpSceneQueries.obj
 0001:000405f0       ?sceneQueriesDynamicPrunerUpdate@NpScene@physx@@AEAAXPEAVPxBaseTask@2@@Z 00000001800415f0 f   NpSceneQueries.obj
 0001:00040610       ?sceneQueriesStaticPrunerUpdate@NpScene@physx@@AEAAXPEAVPxBaseTask@2@@Z 0000000180041610 f   NpSceneQueries.obj
 0001:00040630       ?sceneQueriesUpdate@NpScene@physx@@UEAAXPEAVPxBaseTask@2@_N@Z 0000000180041630 f   NpSceneQueries.obj
 0001:00040810       ?setDynamicTreeRebuildRateHint@NpScene@physx@@UEAAXI@Z 0000000180041810 f   NpSceneQueries.obj
 0001:00040820       ?setUpdateMode@NpScene@physx@@UEAAXW4Enum@PxSceneQueryUpdateMode@2@@Z 0000000180041820 f   NpSceneQueries.obj
 0001:000408e0       ?sweep@NpScene@physx@@UEBA_NAEBVPxGeometry@2@AEBV?$PxTransformT@M@2@AEBV?$PxVec3T@M@2@MAEAU?$PxHitCallback@UPxSweepHit@physx@@@2@V?$PxFlags@W4Enum@PxHitFlag@physx@@G@2@AEBUPxQueryFilterData@2@PEAVPxQueryFilterCallback@2@PEBUPxQueryCache@2@MV?$PxFlags@W4Enum@PxGeometryQueryFlag@physx@@I@2@@Z 00000001800418e0 f   NpSceneQueries.obj
 0001:000409d0       ?sync@NpSceneQueries@physx@@MEAAXIPEBI0PEBVPxBounds3@2@PEBUPxTransformPadded@2@IAEBV?$PxBitMapBase@VPxAllocator@physx@@@2@@Z 00000001800419d0 f   NpSceneQueries.obj
 0001:000409e0       ?syncSQ@NpScene@physx@@AEAAXXZ 00000001800419e0 f   NpSceneQueries.obj
 0001:00040f00       ??_E?$PxSerializerDefaultAdapter@VBV4TriangleMesh@Gu@physx@@@physx@@UEAAPEAXI@Z 0000000180041f00 f i NpSerializerAdapter.obj
 0001:00040f00       ??_E?$PxSerializerDefaultAdapter@VConvexMesh@Gu@physx@@@physx@@UEAAPEAXI@Z 0000000180041f00 f i NpSerializerAdapter.obj
 0001:00040f00       ??_E?$PxSerializerDefaultAdapter@VHeightField@Gu@physx@@@physx@@UEAAPEAXI@Z 0000000180041f00 f i NpSerializerAdapter.obj
 0001:00040f00       ??_E?$PxSerializerDefaultAdapter@VNpAggregate@physx@@@physx@@UEAAPEAXI@Z 0000000180041f00 f i NpSerializerAdapter.obj
 0001:00040f00       ??_E?$PxSerializerDefaultAdapter@VNpArticulationAttachment@physx@@@physx@@UEAAPEAXI@Z 0000000180041f00 f i NpSerializerAdapter.obj
 0001:00040f00       ??_E?$PxSerializerDefaultAdapter@VNpArticulationFixedTendon@physx@@@physx@@UEAAPEAXI@Z 0000000180041f00 f i NpSerializerAdapter.obj
 0001:00040f00       ??_E?$PxSerializerDefaultAdapter@VNpArticulationJointReducedCoordinate@physx@@@physx@@UEAAPEAXI@Z 0000000180041f00 f i NpSerializerAdapter.obj
 0001:00040f00       ??_E?$PxSerializerDefaultAdapter@VNpArticulationLink@physx@@@physx@@UEAAPEAXI@Z 0000000180041f00 f i NpSerializerAdapter.obj
 0001:00040f00       ??_E?$PxSerializerDefaultAdapter@VNpArticulationReducedCoordinate@physx@@@physx@@UEAAPEAXI@Z 0000000180041f00 f i NpSerializerAdapter.obj
 0001:00040f00       ??_E?$PxSerializerDefaultAdapter@VNpArticulationSensor@physx@@@physx@@UEAAPEAXI@Z 0000000180041f00 f i NpSerializerAdapter.obj
 0001:00040f00       ??_E?$PxSerializerDefaultAdapter@VNpArticulationSpatialTendon@physx@@@physx@@UEAAPEAXI@Z 0000000180041f00 f i NpSerializerAdapter.obj
 0001:00040f00       ??_E?$PxSerializerDefaultAdapter@VNpArticulationTendonJoint@physx@@@physx@@UEAAPEAXI@Z 0000000180041f00 f i NpSerializerAdapter.obj
 0001:00040f00       ??_E?$PxSerializerDefaultAdapter@VNpConstraint@physx@@@physx@@UEAAPEAXI@Z 0000000180041f00 f i NpSerializerAdapter.obj
 0001:00040f00       ??_E?$PxSerializerDefaultAdapter@VNpMaterial@physx@@@physx@@UEAAPEAXI@Z 0000000180041f00 f i NpSerializerAdapter.obj
 0001:00040f00       ??_E?$PxSerializerDefaultAdapter@VNpRigidDynamic@physx@@@physx@@UEAAPEAXI@Z 0000000180041f00 f i NpSerializerAdapter.obj
 0001:00040f00       ??_E?$PxSerializerDefaultAdapter@VNpRigidStatic@physx@@@physx@@UEAAPEAXI@Z 0000000180041f00 f i NpSerializerAdapter.obj
 0001:00040f00       ??_E?$PxSerializerDefaultAdapter@VNpShape@physx@@@physx@@UEAAPEAXI@Z 0000000180041f00 f i NpSerializerAdapter.obj
 0001:00040f00       ??_E?$PxSerializerDefaultAdapter@VPruningStructure@Sq@physx@@@physx@@UEAAPEAXI@Z 0000000180041f00 f i NpSerializerAdapter.obj
 0001:00040f00       ??_E?$PxSerializerDefaultAdapter@VRTreeTriangleMesh@Gu@physx@@@physx@@UEAAPEAXI@Z 0000000180041f00 f i NpSerializerAdapter.obj
 0001:00040f00       ??_G?$PxSerializerDefaultAdapter@VBV4TriangleMesh@Gu@physx@@@physx@@UEAAPEAXI@Z 0000000180041f00 f i NpSerializerAdapter.obj
 0001:00040f00       ??_G?$PxSerializerDefaultAdapter@VConvexMesh@Gu@physx@@@physx@@UEAAPEAXI@Z 0000000180041f00 f i NpSerializerAdapter.obj
 0001:00040f00       ??_G?$PxSerializerDefaultAdapter@VHeightField@Gu@physx@@@physx@@UEAAPEAXI@Z 0000000180041f00 f i NpSerializerAdapter.obj
 0001:00040f00       ??_G?$PxSerializerDefaultAdapter@VNpAggregate@physx@@@physx@@UEAAPEAXI@Z 0000000180041f00 f i NpSerializerAdapter.obj
 0001:00040f00       ??_G?$PxSerializerDefaultAdapter@VNpArticulationAttachment@physx@@@physx@@UEAAPEAXI@Z 0000000180041f00 f i NpSerializerAdapter.obj
 0001:00040f00       ??_G?$PxSerializerDefaultAdapter@VNpArticulationFixedTendon@physx@@@physx@@UEAAPEAXI@Z 0000000180041f00 f i NpSerializerAdapter.obj
 0001:00040f00       ??_G?$PxSerializerDefaultAdapter@VNpArticulationJointReducedCoordinate@physx@@@physx@@UEAAPEAXI@Z 0000000180041f00 f i NpSerializerAdapter.obj
 0001:00040f00       ??_G?$PxSerializerDefaultAdapter@VNpArticulationLink@physx@@@physx@@UEAAPEAXI@Z 0000000180041f00 f i NpSerializerAdapter.obj
 0001:00040f00       ??_G?$PxSerializerDefaultAdapter@VNpArticulationReducedCoordinate@physx@@@physx@@UEAAPEAXI@Z 0000000180041f00 f i NpSerializerAdapter.obj
 0001:00040f00       ??_G?$PxSerializerDefaultAdapter@VNpArticulationSensor@physx@@@physx@@UEAAPEAXI@Z 0000000180041f00 f i NpSerializerAdapter.obj
 0001:00040f00       ??_G?$PxSerializerDefaultAdapter@VNpArticulationSpatialTendon@physx@@@physx@@UEAAPEAXI@Z 0000000180041f00 f i NpSerializerAdapter.obj
 0001:00040f00       ??_G?$PxSerializerDefaultAdapter@VNpArticulationTendonJoint@physx@@@physx@@UEAAPEAXI@Z 0000000180041f00 f i NpSerializerAdapter.obj
 0001:00040f00       ??_G?$PxSerializerDefaultAdapter@VNpConstraint@physx@@@physx@@UEAAPEAXI@Z 0000000180041f00 f i NpSerializerAdapter.obj
 0001:00040f00       ??_G?$PxSerializerDefaultAdapter@VNpMaterial@physx@@@physx@@UEAAPEAXI@Z 0000000180041f00 f i NpSerializerAdapter.obj
 0001:00040f00       ??_G?$PxSerializerDefaultAdapter@VNpRigidDynamic@physx@@@physx@@UEAAPEAXI@Z 0000000180041f00 f i NpSerializerAdapter.obj
 0001:00040f00       ??_G?$PxSerializerDefaultAdapter@VNpRigidStatic@physx@@@physx@@UEAAPEAXI@Z 0000000180041f00 f i NpSerializerAdapter.obj
 0001:00040f00       ??_G?$PxSerializerDefaultAdapter@VNpShape@physx@@@physx@@UEAAPEAXI@Z 0000000180041f00 f i NpSerializerAdapter.obj
 0001:00040f00       ??_G?$PxSerializerDefaultAdapter@VPruningStructure@Sq@physx@@@physx@@UEAAPEAXI@Z 0000000180041f00 f i NpSerializerAdapter.obj
 0001:00040f00       ??_G?$PxSerializerDefaultAdapter@VRTreeTriangleMesh@Gu@physx@@@physx@@UEAAPEAXI@Z 0000000180041f00 f i NpSerializerAdapter.obj
 0001:00040f30       ??_EPxSerializer@physx@@UEAAPEAXI@Z 0000000180041f30 f i NpSerializerAdapter.obj
 0001:00040f30       ??_GPxSerializer@physx@@UEAAPEAXI@Z 0000000180041f30 f i NpSerializerAdapter.obj
 0001:00040f60       ??_ERequiresCallback@?1??registerReferences@?$PxSerializerDefaultAdapter@VBV4TriangleMesh@Gu@physx@@@physx@@UEBAXAEAVPxBase@3@AEAVPxSerializationContext@3@@Z@UEAAPEAXI@Z 0000000180041f60 f i NpSerializerAdapter.obj
 0001:00040f60       ??_ERequiresCallback@?1??registerReferences@?$PxSerializerDefaultAdapter@VConvexMesh@Gu@physx@@@physx@@UEBAXAEAVPxBase@3@AEAVPxSerializationContext@3@@Z@UEAAPEAXI@Z 0000000180041f60 f i NpSerializerAdapter.obj
 0001:00040f60       ??_ERequiresCallback@?1??registerReferences@?$PxSerializerDefaultAdapter@VHeightField@Gu@physx@@@physx@@UEBAXAEAVPxBase@3@AEAVPxSerializationContext@3@@Z@UEAAPEAXI@Z 0000000180041f60 f i NpSerializerAdapter.obj
 0001:00040f60       ??_ERequiresCallback@?1??registerReferences@?$PxSerializerDefaultAdapter@VNpAggregate@physx@@@physx@@UEBAXAEAVPxBase@3@AEAVPxSerializationContext@3@@Z@UEAAPEAXI@Z 0000000180041f60 f i NpSerializerAdapter.obj
 0001:00040f60       ??_ERequiresCallback@?1??registerReferences@?$PxSerializerDefaultAdapter@VNpArticulationAttachment@physx@@@physx@@UEBAXAEAVPxBase@3@AEAVPxSerializationContext@3@@Z@UEAAPEAXI@Z 0000000180041f60 f i NpSerializerAdapter.obj
 0001:00040f60       ??_ERequiresCallback@?1??registerReferences@?$PxSerializerDefaultAdapter@VNpArticulationFixedTendon@physx@@@physx@@UEBAXAEAVPxBase@3@AEAVPxSerializationContext@3@@Z@UEAAPEAXI@Z 0000000180041f60 f i NpSerializerAdapter.obj
 0001:00040f60       ??_ERequiresCallback@?1??registerReferences@?$PxSerializerDefaultAdapter@VNpArticulationJointReducedCoordinate@physx@@@physx@@UEBAXAEAVPxBase@3@AEAVPxSerializationContext@3@@Z@UEAAPEAXI@Z 0000000180041f60 f i NpSerializerAdapter.obj
 0001:00040f60       ??_ERequiresCallback@?1??registerReferences@?$PxSerializerDefaultAdapter@VNpArticulationLink@physx@@@physx@@UEBAXAEAVPxBase@3@AEAVPxSerializationContext@3@@Z@UEAAPEAXI@Z 0000000180041f60 f i NpSerializerAdapter.obj
 0001:00040f60       ??_ERequiresCallback@?1??registerReferences@?$PxSerializerDefaultAdapter@VNpArticulationReducedCoordinate@physx@@@physx@@UEBAXAEAVPxBase@3@AEAVPxSerializationContext@3@@Z@UEAAPEAXI@Z 0000000180041f60 f i NpSerializerAdapter.obj
 0001:00040f60       ??_ERequiresCallback@?1??registerReferences@?$PxSerializerDefaultAdapter@VNpArticulationSensor@physx@@@physx@@UEBAXAEAVPxBase@3@AEAVPxSerializationContext@3@@Z@UEAAPEAXI@Z 0000000180041f60 f i NpSerializerAdapter.obj
 0001:00040f60       ??_ERequiresCallback@?1??registerReferences@?$PxSerializerDefaultAdapter@VNpArticulationSpatialTendon@physx@@@physx@@UEBAXAEAVPxBase@3@AEAVPxSerializationContext@3@@Z@UEAAPEAXI@Z 0000000180041f60 f i NpSerializerAdapter.obj
 0001:00040f60       ??_ERequiresCallback@?1??registerReferences@?$PxSerializerDefaultAdapter@VNpArticulationTendonJoint@physx@@@physx@@UEBAXAEAVPxBase@3@AEAVPxSerializationContext@3@@Z@UEAAPEAXI@Z 0000000180041f60 f i NpSerializerAdapter.obj
 0001:00040f60       ??_ERequiresCallback@?1??registerReferences@?$PxSerializerDefaultAdapter@VNpConstraint@physx@@@physx@@UEBAXAEAVPxBase@3@AEAVPxSerializationContext@3@@Z@UEAAPEAXI@Z 0000000180041f60 f i NpSerializerAdapter.obj
 0001:00040f60       ??_ERequiresCallback@?1??registerReferences@?$PxSerializerDefaultAdapter@VNpRigidDynamic@physx@@@physx@@UEBAXAEAVPxBase@3@AEAVPxSerializationContext@3@@Z@UEAAPEAXI@Z 0000000180041f60 f i NpSerializerAdapter.obj
 0001:00040f60       ??_ERequiresCallback@?1??registerReferences@?$PxSerializerDefaultAdapter@VNpRigidStatic@physx@@@physx@@UEBAXAEAVPxBase@3@AEAVPxSerializationContext@3@@Z@UEAAPEAXI@Z 0000000180041f60 f i NpSerializerAdapter.obj
 0001:00040f60       ??_ERequiresCallback@?1??registerReferences@?$PxSerializerDefaultAdapter@VNpShape@physx@@@physx@@UEBAXAEAVPxBase@3@AEAVPxSerializationContext@3@@Z@UEAAPEAXI@Z 0000000180041f60 f i NpSerializerAdapter.obj
 0001:00040f60       ??_ERequiresCallback@?1??registerReferences@?$PxSerializerDefaultAdapter@VPruningStructure@Sq@physx@@@physx@@UEBAXAEAVPxBase@3@AEAVPxSerializationContext@3@@Z@UEAAPEAXI@Z 0000000180041f60 f i NpSerializerAdapter.obj
 0001:00040f60       ??_ERequiresCallback@?1??registerReferences@?$PxSerializerDefaultAdapter@VRTreeTriangleMesh@Gu@physx@@@physx@@UEBAXAEAVPxBase@3@AEAVPxSerializationContext@3@@Z@UEAAPEAXI@Z 0000000180041f60 f i NpSerializerAdapter.obj
 0001:00040f60       ??_GRequiresCallback@?1??registerReferences@?$PxSerializerDefaultAdapter@VBV4TriangleMesh@Gu@physx@@@physx@@UEBAXAEAVPxBase@3@AEAVPxSerializationContext@3@@Z@UEAAPEAXI@Z 0000000180041f60 f i NpSerializerAdapter.obj
 0001:00040f60       ??_GRequiresCallback@?1??registerReferences@?$PxSerializerDefaultAdapter@VConvexMesh@Gu@physx@@@physx@@UEBAXAEAVPxBase@3@AEAVPxSerializationContext@3@@Z@UEAAPEAXI@Z 0000000180041f60 f i NpSerializerAdapter.obj
 0001:00040f60       ??_GRequiresCallback@?1??registerReferences@?$PxSerializerDefaultAdapter@VHeightField@Gu@physx@@@physx@@UEBAXAEAVPxBase@3@AEAVPxSerializationContext@3@@Z@UEAAPEAXI@Z 0000000180041f60 f i NpSerializerAdapter.obj
 0001:00040f60       ??_GRequiresCallback@?1??registerReferences@?$PxSerializerDefaultAdapter@VNpAggregate@physx@@@physx@@UEBAXAEAVPxBase@3@AEAVPxSerializationContext@3@@Z@UEAAPEAXI@Z 0000000180041f60 f i NpSerializerAdapter.obj
 0001:00040f60       ??_GRequiresCallback@?1??registerReferences@?$PxSerializerDefaultAdapter@VNpArticulationAttachment@physx@@@physx@@UEBAXAEAVPxBase@3@AEAVPxSerializationContext@3@@Z@UEAAPEAXI@Z 0000000180041f60 f i NpSerializerAdapter.obj
 0001:00040f60       ??_GRequiresCallback@?1??registerReferences@?$PxSerializerDefaultAdapter@VNpArticulationFixedTendon@physx@@@physx@@UEBAXAEAVPxBase@3@AEAVPxSerializationContext@3@@Z@UEAAPEAXI@Z 0000000180041f60 f i NpSerializerAdapter.obj
 0001:00040f60       ??_GRequiresCallback@?1??registerReferences@?$PxSerializerDefaultAdapter@VNpArticulationJointReducedCoordinate@physx@@@physx@@UEBAXAEAVPxBase@3@AEAVPxSerializationContext@3@@Z@UEAAPEAXI@Z 0000000180041f60 f i NpSerializerAdapter.obj
 0001:00040f60       ??_GRequiresCallback@?1??registerReferences@?$PxSerializerDefaultAdapter@VNpArticulationLink@physx@@@physx@@UEBAXAEAVPxBase@3@AEAVPxSerializationContext@3@@Z@UEAAPEAXI@Z 0000000180041f60 f i NpSerializerAdapter.obj
 0001:00040f60       ??_GRequiresCallback@?1??registerReferences@?$PxSerializerDefaultAdapter@VNpArticulationReducedCoordinate@physx@@@physx@@UEBAXAEAVPxBase@3@AEAVPxSerializationContext@3@@Z@UEAAPEAXI@Z 0000000180041f60 f i NpSerializerAdapter.obj
 0001:00040f60       ??_GRequiresCallback@?1??registerReferences@?$PxSerializerDefaultAdapter@VNpArticulationSensor@physx@@@physx@@UEBAXAEAVPxBase@3@AEAVPxSerializationContext@3@@Z@UEAAPEAXI@Z 0000000180041f60 f i NpSerializerAdapter.obj
 0001:00040f60       ??_GRequiresCallback@?1??registerReferences@?$PxSerializerDefaultAdapter@VNpArticulationSpatialTendon@physx@@@physx@@UEBAXAEAVPxBase@3@AEAVPxSerializationContext@3@@Z@UEAAPEAXI@Z 0000000180041f60 f i NpSerializerAdapter.obj
 0001:00040f60       ??_GRequiresCallback@?1??registerReferences@?$PxSerializerDefaultAdapter@VNpArticulationTendonJoint@physx@@@physx@@UEBAXAEAVPxBase@3@AEAVPxSerializationContext@3@@Z@UEAAPEAXI@Z 0000000180041f60 f i NpSerializerAdapter.obj
 0001:00040f60       ??_GRequiresCallback@?1??registerReferences@?$PxSerializerDefaultAdapter@VNpConstraint@physx@@@physx@@UEBAXAEAVPxBase@3@AEAVPxSerializationContext@3@@Z@UEAAPEAXI@Z 0000000180041f60 f i NpSerializerAdapter.obj
 0001:00040f60       ??_GRequiresCallback@?1??registerReferences@?$PxSerializerDefaultAdapter@VNpRigidDynamic@physx@@@physx@@UEBAXAEAVPxBase@3@AEAVPxSerializationContext@3@@Z@UEAAPEAXI@Z 0000000180041f60 f i NpSerializerAdapter.obj
 0001:00040f60       ??_GRequiresCallback@?1??registerReferences@?$PxSerializerDefaultAdapter@VNpRigidStatic@physx@@@physx@@UEBAXAEAVPxBase@3@AEAVPxSerializationContext@3@@Z@UEAAPEAXI@Z 0000000180041f60 f i NpSerializerAdapter.obj
 0001:00040f60       ??_GRequiresCallback@?1??registerReferences@?$PxSerializerDefaultAdapter@VNpShape@physx@@@physx@@UEBAXAEAVPxBase@3@AEAVPxSerializationContext@3@@Z@UEAAPEAXI@Z 0000000180041f60 f i NpSerializerAdapter.obj
 0001:00040f60       ??_GRequiresCallback@?1??registerReferences@?$PxSerializerDefaultAdapter@VPruningStructure@Sq@physx@@@physx@@UEBAXAEAVPxBase@3@AEAVPxSerializationContext@3@@Z@UEAAPEAXI@Z 0000000180041f60 f i NpSerializerAdapter.obj
 0001:00040f60       ??_GRequiresCallback@?1??registerReferences@?$PxSerializerDefaultAdapter@VRTreeTriangleMesh@Gu@physx@@@physx@@UEBAXAEAVPxBase@3@AEAVPxSerializationContext@3@@Z@UEAAPEAXI@Z 0000000180041f60 f i NpSerializerAdapter.obj
 0001:00040f90       ?createObject@?$PxSerializerDefaultAdapter@VBV4TriangleMesh@Gu@physx@@@physx@@UEBAPEAVPxBase@2@AEAPEAEAEAVPxDeserializationContext@2@@Z 0000000180041f90 f i NpSerializerAdapter.obj
 0001:00040fa0       ?createObject@?$PxSerializerDefaultAdapter@VConvexMesh@Gu@physx@@@physx@@UEBAPEAVPxBase@2@AEAPEAEAEAVPxDeserializationContext@2@@Z 0000000180041fa0 f i NpSerializerAdapter.obj
 0001:00040fb0       ?createObject@?$PxSerializerDefaultAdapter@VHeightField@Gu@physx@@@physx@@UEBAPEAVPxBase@2@AEAPEAEAEAVPxDeserializationContext@2@@Z 0000000180041fb0 f i NpSerializerAdapter.obj
 0001:00040fc0       ?createObject@?$PxSerializerDefaultAdapter@VNpAggregate@physx@@@physx@@UEBAPEAVPxBase@2@AEAPEAEAEAVPxDeserializationContext@2@@Z 0000000180041fc0 f i NpSerializerAdapter.obj
 0001:00040fd0       ?createObject@?$PxSerializerDefaultAdapter@VNpArticulationAttachment@physx@@@physx@@UEBAPEAVPxBase@2@AEAPEAEAEAVPxDeserializationContext@2@@Z 0000000180041fd0 f i NpSerializerAdapter.obj
 0001:00040fe0       ?createObject@?$PxSerializerDefaultAdapter@VNpArticulationFixedTendon@physx@@@physx@@UEBAPEAVPxBase@2@AEAPEAEAEAVPxDeserializationContext@2@@Z 0000000180041fe0 f i NpSerializerAdapter.obj
 0001:00040ff0       ?createObject@?$PxSerializerDefaultAdapter@VNpArticulationJointReducedCoordinate@physx@@@physx@@UEBAPEAVPxBase@2@AEAPEAEAEAVPxDeserializationContext@2@@Z 0000000180041ff0 f i NpSerializerAdapter.obj
 0001:00041000       ?createObject@?$PxSerializerDefaultAdapter@VNpArticulationLink@physx@@@physx@@UEBAPEAVPxBase@2@AEAPEAEAEAVPxDeserializationContext@2@@Z 0000000180042000 f i NpSerializerAdapter.obj
 0001:00041010       ?createObject@?$PxSerializerDefaultAdapter@VNpArticulationReducedCoordinate@physx@@@physx@@UEBAPEAVPxBase@2@AEAPEAEAEAVPxDeserializationContext@2@@Z 0000000180042010 f i NpSerializerAdapter.obj
 0001:00041020       ?createObject@?$PxSerializerDefaultAdapter@VNpArticulationSensor@physx@@@physx@@UEBAPEAVPxBase@2@AEAPEAEAEAVPxDeserializationContext@2@@Z 0000000180042020 f i NpSerializerAdapter.obj
 0001:00041030       ?createObject@?$PxSerializerDefaultAdapter@VNpArticulationSpatialTendon@physx@@@physx@@UEBAPEAVPxBase@2@AEAPEAEAEAVPxDeserializationContext@2@@Z 0000000180042030 f i NpSerializerAdapter.obj
 0001:00041040       ?createObject@?$PxSerializerDefaultAdapter@VNpArticulationTendonJoint@physx@@@physx@@UEBAPEAVPxBase@2@AEAPEAEAEAVPxDeserializationContext@2@@Z 0000000180042040 f i NpSerializerAdapter.obj
 0001:00041050       ?createObject@?$PxSerializerDefaultAdapter@VNpConstraint@physx@@@physx@@UEBAPEAVPxBase@2@AEAPEAEAEAVPxDeserializationContext@2@@Z 0000000180042050 f i NpSerializerAdapter.obj
 0001:00041060       ?createObject@?$PxSerializerDefaultAdapter@VNpMaterial@physx@@@physx@@UEBAPEAVPxBase@2@AEAPEAEAEAVPxDeserializationContext@2@@Z 0000000180042060 f i NpSerializerAdapter.obj
 0001:00041070       ?createObject@?$PxSerializerDefaultAdapter@VNpRigidDynamic@physx@@@physx@@UEBAPEAVPxBase@2@AEAPEAEAEAVPxDeserializationContext@2@@Z 0000000180042070 f i NpSerializerAdapter.obj
 0001:00041080       ?createObject@?$PxSerializerDefaultAdapter@VNpRigidStatic@physx@@@physx@@UEBAPEAVPxBase@2@AEAPEAEAEAVPxDeserializationContext@2@@Z 0000000180042080 f i NpSerializerAdapter.obj
 0001:00041090       ?createObject@?$PxSerializerDefaultAdapter@VNpShape@physx@@@physx@@UEBAPEAVPxBase@2@AEAPEAEAEAVPxDeserializationContext@2@@Z 0000000180042090 f i NpSerializerAdapter.obj
 0001:000410a0       ?createObject@?$PxSerializerDefaultAdapter@VPruningStructure@Sq@physx@@@physx@@UEBAPEAVPxBase@2@AEAPEAEAEAVPxDeserializationContext@2@@Z 00000001800420a0 f i NpSerializerAdapter.obj
 0001:000410b0       ?createObject@?$PxSerializerDefaultAdapter@VRTreeTriangleMesh@Gu@physx@@@physx@@UEBAPEAVPxBase@2@AEAPEAEAEAVPxDeserializationContext@2@@Z 00000001800420b0 f i NpSerializerAdapter.obj
 0001:000410c0       ?exportData@?$PxSerializerDefaultAdapter@VBV4TriangleMesh@Gu@physx@@@physx@@UEBAXAEAVPxBase@2@AEAVPxSerializationContext@2@@Z 00000001800420c0 f i NpSerializerAdapter.obj
 0001:000411d0       ?exportData@?$PxSerializerDefaultAdapter@VConvexMesh@Gu@physx@@@physx@@UEBAXAEAVPxBase@2@AEAVPxSerializationContext@2@@Z 00000001800421d0 f i NpSerializerAdapter.obj
 0001:000412c0       ?exportData@?$PxSerializerDefaultAdapter@VHeightField@Gu@physx@@@physx@@UEBAXAEAVPxBase@2@AEAVPxSerializationContext@2@@Z 00000001800422c0 f i NpSerializerAdapter.obj
 0001:00041390       ?exportData@?$PxSerializerDefaultAdapter@VNpAggregate@physx@@@physx@@UEBAXAEAVPxBase@2@AEAVPxSerializationContext@2@@Z 0000000180042390 f i NpSerializerAdapter.obj
 0001:00041440       ?exportData@?$PxSerializerDefaultAdapter@VNpArticulationAttachment@physx@@@physx@@UEBAXAEAVPxBase@2@AEAVPxSerializationContext@2@@Z 0000000180042440 f i NpSerializerAdapter.obj
 0001:00041540       ?exportData@?$PxSerializerDefaultAdapter@VNpArticulationFixedTendon@physx@@@physx@@UEBAXAEAVPxBase@2@AEAVPxSerializationContext@2@@Z 0000000180042540 f i NpSerializerAdapter.obj
 0001:00041620       ?exportData@?$PxSerializerDefaultAdapter@VNpArticulationJointReducedCoordinate@physx@@@physx@@UEBAXAEAVPxBase@2@AEAVPxSerializationContext@2@@Z 0000000180042620 f i NpSerializerAdapter.obj
 0001:00041720       ?exportData@?$PxSerializerDefaultAdapter@VNpArticulationLink@physx@@@physx@@UEBAXAEAVPxBase@2@AEAVPxSerializationContext@2@@Z 0000000180042720 f i NpSerializerAdapter.obj
 0001:00041860       ?exportData@?$PxSerializerDefaultAdapter@VNpArticulationReducedCoordinate@physx@@@physx@@UEBAXAEAVPxBase@2@AEAVPxSerializationContext@2@@Z 0000000180042860 f i NpSerializerAdapter.obj
 0001:00041970       ?exportData@?$PxSerializerDefaultAdapter@VNpArticulationSensor@physx@@@physx@@UEBAXAEAVPxBase@2@AEAVPxSerializationContext@2@@Z 0000000180042970 f i NpSerializerAdapter.obj
 0001:00041a20       ?exportData@?$PxSerializerDefaultAdapter@VNpArticulationSpatialTendon@physx@@@physx@@UEBAXAEAVPxBase@2@AEAVPxSerializationContext@2@@Z 0000000180042a20 f i NpSerializerAdapter.obj
 0001:00041af0       ?exportData@?$PxSerializerDefaultAdapter@VNpArticulationTendonJoint@physx@@@physx@@UEBAXAEAVPxBase@2@AEAVPxSerializationContext@2@@Z 0000000180042af0 f i NpSerializerAdapter.obj
 0001:00041be0       ?exportData@?$PxSerializerDefaultAdapter@VNpConstraint@physx@@@physx@@UEBAXAEAVPxBase@2@AEAVPxSerializationContext@2@@Z 0000000180042be0 f i NpSerializerAdapter.obj
 0001:00041cb0       ?exportData@?$PxSerializerDefaultAdapter@VNpMaterial@physx@@@physx@@UEBAXAEAVPxBase@2@AEAVPxSerializationContext@2@@Z 0000000180042cb0 f i NpSerializerAdapter.obj
 0001:00041d60       ?exportData@?$PxSerializerDefaultAdapter@VNpRigidDynamic@physx@@@physx@@UEBAXAEAVPxBase@2@AEAVPxSerializationContext@2@@Z 0000000180042d60 f i NpSerializerAdapter.obj
 0001:00041e50       ?exportData@?$PxSerializerDefaultAdapter@VNpRigidStatic@physx@@@physx@@UEBAXAEAVPxBase@2@AEAVPxSerializationContext@2@@Z 0000000180042e50 f i NpSerializerAdapter.obj
 0001:00041f40       ?exportData@?$PxSerializerDefaultAdapter@VNpShape@physx@@@physx@@UEBAXAEAVPxBase@2@AEAVPxSerializationContext@2@@Z 0000000180042f40 f i NpSerializerAdapter.obj
 0001:00042050       ?exportData@?$PxSerializerDefaultAdapter@VPruningStructure@Sq@physx@@@physx@@UEBAXAEAVPxBase@2@AEAVPxSerializationContext@2@@Z 0000000180043050 f i NpSerializerAdapter.obj
 0001:00042110       ?exportData@?$PxSerializerDefaultAdapter@VRTreeTriangleMesh@Gu@physx@@@physx@@UEBAXAEAVPxBase@2@AEAVPxSerializationContext@2@@Z 0000000180043110 f i NpSerializerAdapter.obj
 0001:00042210       ?exportExtraData@?$PxSerializerDefaultAdapter@VBV4TriangleMesh@Gu@physx@@@physx@@UEBAXAEAVPxBase@2@AEAVPxSerializationContext@2@@Z 0000000180043210 f i NpSerializerAdapter.obj
 0001:00042210       ?exportExtraData@?$PxSerializerDefaultAdapter@VRTreeTriangleMesh@Gu@physx@@@physx@@UEBAXAEAVPxBase@2@AEAVPxSerializationContext@2@@Z 0000000180043210 f i NpSerializerAdapter.obj
 0001:00042220       ?exportExtraData@?$PxSerializerDefaultAdapter@VConvexMesh@Gu@physx@@@physx@@UEBAXAEAVPxBase@2@AEAVPxSerializationContext@2@@Z 0000000180043220 f i NpSerializerAdapter.obj
 0001:00042220       ?exportExtraData@?$PxSerializerDefaultAdapter@VNpArticulationAttachment@physx@@@physx@@UEBAXAEAVPxBase@2@AEAVPxSerializationContext@2@@Z 0000000180043220 f i NpSerializerAdapter.obj
 0001:00042220       ?exportExtraData@?$PxSerializerDefaultAdapter@VNpArticulationSpatialTendon@physx@@@physx@@UEBAXAEAVPxBase@2@AEAVPxSerializationContext@2@@Z 0000000180043220 f i NpSerializerAdapter.obj
 0001:00042230       ?exportExtraData@?$PxSerializerDefaultAdapter@VHeightField@Gu@physx@@@physx@@UEBAXAEAVPxBase@2@AEAVPxSerializationContext@2@@Z 0000000180043230 f i NpSerializerAdapter.obj
 0001:00042230       ?exportExtraData@?$PxSerializerDefaultAdapter@VNpArticulationFixedTendon@physx@@@physx@@UEBAXAEAVPxBase@2@AEAVPxSerializationContext@2@@Z 0000000180043230 f i NpSerializerAdapter.obj
 0001:00042240       ?exportExtraData@?$PxSerializerDefaultAdapter@VNpAggregate@physx@@@physx@@UEBAXAEAVPxBase@2@AEAVPxSerializationContext@2@@Z 0000000180043240 f i NpSerializerAdapter.obj
 0001:00042250       ?exportExtraData@?$PxSerializerDefaultAdapter@VNpArticulationLink@physx@@@physx@@UEBAXAEAVPxBase@2@AEAVPxSerializationContext@2@@Z 0000000180043250 f i NpSerializerAdapter.obj
 0001:00042260       ?exportExtraData@?$PxSerializerDefaultAdapter@VNpArticulationReducedCoordinate@physx@@@physx@@UEBAXAEAVPxBase@2@AEAVPxSerializationContext@2@@Z 0000000180043260 f i NpSerializerAdapter.obj
 0001:00042260       ?requiresObjects@?$PxSerializerDefaultAdapter@VNpArticulationLink@physx@@@physx@@UEBAXAEAVPxBase@2@AEAVPxProcessPxBaseCallback@2@@Z 0000000180043260 f i NpSerializerAdapter.obj
 0001:00042270       ?exportExtraData@?$PxSerializerDefaultAdapter@VNpArticulationSensor@physx@@@physx@@UEBAXAEAVPxBase@2@AEAVPxSerializationContext@2@@Z 0000000180043270 f i NpSerializerAdapter.obj
 0001:00042280       ?exportExtraData@?$PxSerializerDefaultAdapter@VNpArticulationTendonJoint@physx@@@physx@@UEBAXAEAVPxBase@2@AEAVPxSerializationContext@2@@Z 0000000180043280 f i NpSerializerAdapter.obj
 0001:00042280       ?requiresObjects@?$PxSerializerDefaultAdapter@VPruningStructure@Sq@physx@@@physx@@UEBAXAEAVPxBase@2@AEAVPxProcessPxBaseCallback@2@@Z 0000000180043280 f i NpSerializerAdapter.obj
 0001:00042290       ?exportExtraData@?$PxSerializerDefaultAdapter@VNpRigidDynamic@physx@@@physx@@UEBAXAEAVPxBase@2@AEAVPxSerializationContext@2@@Z 0000000180043290 f i NpSerializerAdapter.obj
 0001:000422a0       ?exportExtraData@?$PxSerializerDefaultAdapter@VNpRigidStatic@physx@@@physx@@UEBAXAEAVPxBase@2@AEAVPxSerializationContext@2@@Z 00000001800432a0 f i NpSerializerAdapter.obj
 0001:000422b0       ?exportExtraData@?$PxSerializerDefaultAdapter@VNpShape@physx@@@physx@@UEBAXAEAVPxBase@2@AEAVPxSerializationContext@2@@Z 00000001800432b0 f i NpSerializerAdapter.obj
 0001:000422c0       ?exportExtraData@?$PxSerializerDefaultAdapter@VPruningStructure@Sq@physx@@@physx@@UEBAXAEAVPxBase@2@AEAVPxSerializationContext@2@@Z 00000001800432c0 f i NpSerializerAdapter.obj
 0001:000422d0       ?getClassSize@?$PxSerializerDefaultAdapter@VBV4TriangleMesh@Gu@physx@@@physx@@UEBA_KXZ 00000001800432d0 f i NpSerializerAdapter.obj
 0001:000422e0       ?getClassSize@?$PxSerializerDefaultAdapter@VConvexMesh@Gu@physx@@@physx@@UEBA_KXZ 00000001800432e0 f i NpSerializerAdapter.obj
 0001:000422e0       ?getClassSize@?$PxSerializerDefaultAdapter@VNpArticulationTendonJoint@physx@@@physx@@UEBA_KXZ 00000001800432e0 f i NpSerializerAdapter.obj
 0001:000422f0       ?getClassSize@?$PxSerializerDefaultAdapter@VHeightField@Gu@physx@@@physx@@UEBA_KXZ 00000001800432f0 f i NpSerializerAdapter.obj
 0001:00042300       ?getClassSize@?$PxSerializerDefaultAdapter@VNpAggregate@physx@@@physx@@UEBA_KXZ 0000000180043300 f i NpSerializerAdapter.obj
 0001:00042310       ?getClassSize@?$PxSerializerDefaultAdapter@VNpArticulationAttachment@physx@@@physx@@UEBA_KXZ 0000000180043310 f i NpSerializerAdapter.obj
 0001:00042320       ?getClassSize@?$PxSerializerDefaultAdapter@VNpArticulationFixedTendon@physx@@@physx@@UEBA_KXZ 0000000180043320 f i NpSerializerAdapter.obj
 0001:00042330       ?getClassSize@?$PxSerializerDefaultAdapter@VNpArticulationJointReducedCoordinate@physx@@@physx@@UEBA_KXZ 0000000180043330 f i NpSerializerAdapter.obj
 0001:00042340       ?getClassSize@?$PxSerializerDefaultAdapter@VNpArticulationLink@physx@@@physx@@UEBA_KXZ 0000000180043340 f i NpSerializerAdapter.obj
 0001:00042350       ?getClassSize@?$PxSerializerDefaultAdapter@VNpArticulationReducedCoordinate@physx@@@physx@@UEBA_KXZ 0000000180043350 f i NpSerializerAdapter.obj
 0001:00042360       ?getClassSize@?$PxSerializerDefaultAdapter@VNpArticulationSensor@physx@@@physx@@UEBA_KXZ 0000000180043360 f i NpSerializerAdapter.obj
 0001:00042370       ?getClassSize@?$PxSerializerDefaultAdapter@VNpArticulationSpatialTendon@physx@@@physx@@UEBA_KXZ 0000000180043370 f i NpSerializerAdapter.obj
 0001:00042380       ?getClassSize@?$PxSerializerDefaultAdapter@VNpConstraint@physx@@@physx@@UEBA_KXZ 0000000180043380 f i NpSerializerAdapter.obj
 0001:00042390       ?getClassSize@?$PxSerializerDefaultAdapter@VNpMaterial@physx@@@physx@@UEBA_KXZ 0000000180043390 f i NpSerializerAdapter.obj
 0001:000423a0       ?getClassSize@?$PxSerializerDefaultAdapter@VNpRigidDynamic@physx@@@physx@@UEBA_KXZ 00000001800433a0 f i NpSerializerAdapter.obj
 0001:000423b0       ?getClassSize@?$PxSerializerDefaultAdapter@VNpRigidStatic@physx@@@physx@@UEBA_KXZ 00000001800433b0 f i NpSerializerAdapter.obj
 0001:000423c0       ?getClassSize@?$PxSerializerDefaultAdapter@VNpShape@physx@@@physx@@UEBA_KXZ 00000001800433c0 f i NpSerializerAdapter.obj
 0001:000423d0       ?getClassSize@?$PxSerializerDefaultAdapter@VPruningStructure@Sq@physx@@@physx@@UEBA_KXZ 00000001800433d0 f i NpSerializerAdapter.obj
 0001:000423e0       ?getClassSize@?$PxSerializerDefaultAdapter@VRTreeTriangleMesh@Gu@physx@@@physx@@UEBA_KXZ 00000001800433e0 f i NpSerializerAdapter.obj
 0001:000423f0       ?getOutOfBoundsObjects@AABBManagerBase@Bp@physx@@UEAA_NAEAUOutOfBoundsData@123@@Z 00000001800433f0 f i LowLevelAABB_static_64:BpAABBManagerBase.obj
 0001:000423f0       ?hasFEMCloth@PxsSimulationController@physx@@UEBA_NXZ 00000001800433f0 f i SimulationController_static_64:ScScene.obj
 0001:000423f0       ?hasHairSystems@PxsSimulationController@physx@@UEBA_NXZ 00000001800433f0 f i SimulationController_static_64:ScScene.obj
 0001:000423f0       ?hasSoftBodies@PxsSimulationController@physx@@UEBA_NXZ 00000001800433f0 f i SimulationController_static_64:ScScene.obj
 0001:000423f0       ?isSubordinate@?$PxSerializerDefaultAdapter@VBV4TriangleMesh@Gu@physx@@@physx@@UEBA_NXZ 00000001800433f0 f i NpSerializerAdapter.obj
 0001:000423f0       ?isSubordinate@?$PxSerializerDefaultAdapter@VConvexMesh@Gu@physx@@@physx@@UEBA_NXZ 00000001800433f0 f i NpSerializerAdapter.obj
 0001:000423f0       ?isSubordinate@?$PxSerializerDefaultAdapter@VHeightField@Gu@physx@@@physx@@UEBA_NXZ 00000001800433f0 f i NpSerializerAdapter.obj
 0001:000423f0       ?isSubordinate@?$PxSerializerDefaultAdapter@VNpAggregate@physx@@@physx@@UEBA_NXZ 00000001800433f0 f i NpSerializerAdapter.obj
 0001:000423f0       ?isSubordinate@?$PxSerializerDefaultAdapter@VNpArticulationAttachment@physx@@@physx@@UEBA_NXZ 00000001800433f0 f i NpSerializerAdapter.obj
 0001:000423f0       ?isSubordinate@?$PxSerializerDefaultAdapter@VNpArticulationFixedTendon@physx@@@physx@@UEBA_NXZ 00000001800433f0 f i NpSerializerAdapter.obj
 0001:000423f0       ?isSubordinate@?$PxSerializerDefaultAdapter@VNpArticulationReducedCoordinate@physx@@@physx@@UEBA_NXZ 00000001800433f0 f i NpSerializerAdapter.obj
 0001:000423f0       ?isSubordinate@?$PxSerializerDefaultAdapter@VNpArticulationSensor@physx@@@physx@@UEBA_NXZ 00000001800433f0 f i NpSerializerAdapter.obj
 0001:000423f0       ?isSubordinate@?$PxSerializerDefaultAdapter@VNpArticulationSpatialTendon@physx@@@physx@@UEBA_NXZ 00000001800433f0 f i NpSerializerAdapter.obj
 0001:000423f0       ?isSubordinate@?$PxSerializerDefaultAdapter@VNpArticulationTendonJoint@physx@@@physx@@UEBA_NXZ 00000001800433f0 f i NpSerializerAdapter.obj
 0001:000423f0       ?isSubordinate@?$PxSerializerDefaultAdapter@VNpMaterial@physx@@@physx@@UEBA_NXZ 00000001800433f0 f i NpSerializerAdapter.obj
 0001:000423f0       ?isSubordinate@?$PxSerializerDefaultAdapter@VNpRigidDynamic@physx@@@physx@@UEBA_NXZ 00000001800433f0 f i NpSerializerAdapter.obj
 0001:000423f0       ?isSubordinate@?$PxSerializerDefaultAdapter@VNpRigidStatic@physx@@@physx@@UEBA_NXZ 00000001800433f0 f i NpSerializerAdapter.obj
 0001:000423f0       ?isSubordinate@?$PxSerializerDefaultAdapter@VNpShape@physx@@@physx@@UEBA_NXZ 00000001800433f0 f i NpSerializerAdapter.obj
 0001:000423f0       ?isSubordinate@?$PxSerializerDefaultAdapter@VPruningStructure@Sq@physx@@@physx@@UEBA_NXZ 00000001800433f0 f i NpSerializerAdapter.obj
 0001:000423f0       ?isSubordinate@?$PxSerializerDefaultAdapter@VRTreeTriangleMesh@Gu@physx@@@physx@@UEBA_NXZ 00000001800433f0 f i NpSerializerAdapter.obj
 0001:000423f0       ?processTouches@?$PxHitBuffer@UPxRaycastHit@physx@@@physx@@MEAA_NPEBUPxRaycastHit@2@I@Z 00000001800433f0 f i SceneQuery_static_64:SqQuery.obj
 0001:000423f0       ?processTouches@?$PxHitBuffer@UPxSweepHit@physx@@@physx@@MEAA_NPEBUPxSweepHit@2@I@Z 00000001800433f0 f i SceneQuery_static_64:SqQuery.obj
 0001:000423f0       ?removeRegion@BroadPhaseBase@Bp@physx@@UEAA_NI@Z 00000001800433f0 f i LowLevelAABB_static_64:BpBroadPhaseSap.obj
 0001:000423f0       ?update@PersistentPairs@Bp@physx@@UEAA_NAEAVAABBManager@23@PEAUBpCacheData@23@@Z 00000001800433f0 f i LowLevelAABB_static_64:BpAABBManager.obj
 0001:00042400       ?process@RequiresCallback@?1??registerReferences@?$PxSerializerDefaultAdapter@VBV4TriangleMesh@Gu@physx@@@physx@@UEBAXAEAVPxBase@4@AEAVPxSerializationContext@4@@Z@UEAAX0@Z 0000000180043400 f i NpSerializerAdapter.obj
 0001:00042400       ?process@RequiresCallback@?1??registerReferences@?$PxSerializerDefaultAdapter@VConvexMesh@Gu@physx@@@physx@@UEBAXAEAVPxBase@4@AEAVPxSerializationContext@4@@Z@UEAAX0@Z 0000000180043400 f i NpSerializerAdapter.obj
 0001:00042400       ?process@RequiresCallback@?1??registerReferences@?$PxSerializerDefaultAdapter@VHeightField@Gu@physx@@@physx@@UEBAXAEAVPxBase@4@AEAVPxSerializationContext@4@@Z@UEAAX0@Z 0000000180043400 f i NpSerializerAdapter.obj
 0001:00042400       ?process@RequiresCallback@?1??registerReferences@?$PxSerializerDefaultAdapter@VNpAggregate@physx@@@physx@@UEBAXAEAVPxBase@4@AEAVPxSerializationContext@4@@Z@UEAAX0@Z 0000000180043400 f i NpSerializerAdapter.obj
 0001:00042400       ?process@RequiresCallback@?1??registerReferences@?$PxSerializerDefaultAdapter@VNpArticulationAttachment@physx@@@physx@@UEBAXAEAVPxBase@4@AEAVPxSerializationContext@4@@Z@UEAAX0@Z 0000000180043400 f i NpSerializerAdapter.obj
 0001:00042400       ?process@RequiresCallback@?1??registerReferences@?$PxSerializerDefaultAdapter@VNpArticulationFixedTendon@physx@@@physx@@UEBAXAEAVPxBase@4@AEAVPxSerializationContext@4@@Z@UEAAX0@Z 0000000180043400 f i NpSerializerAdapter.obj
 0001:00042400       ?process@RequiresCallback@?1??registerReferences@?$PxSerializerDefaultAdapter@VNpArticulationJointReducedCoordinate@physx@@@physx@@UEBAXAEAVPxBase@4@AEAVPxSerializationContext@4@@Z@UEAAX0@Z 0000000180043400 f i NpSerializerAdapter.obj
 0001:00042400       ?process@RequiresCallback@?1??registerReferences@?$PxSerializerDefaultAdapter@VNpArticulationLink@physx@@@physx@@UEBAXAEAVPxBase@4@AEAVPxSerializationContext@4@@Z@UEAAX0@Z 0000000180043400 f i NpSerializerAdapter.obj
 0001:00042400       ?process@RequiresCallback@?1??registerReferences@?$PxSerializerDefaultAdapter@VNpArticulationReducedCoordinate@physx@@@physx@@UEBAXAEAVPxBase@4@AEAVPxSerializationContext@4@@Z@UEAAX0@Z 0000000180043400 f i NpSerializerAdapter.obj
 0001:00042400       ?process@RequiresCallback@?1??registerReferences@?$PxSerializerDefaultAdapter@VNpArticulationSensor@physx@@@physx@@UEBAXAEAVPxBase@4@AEAVPxSerializationContext@4@@Z@UEAAX0@Z 0000000180043400 f i NpSerializerAdapter.obj
 0001:00042400       ?process@RequiresCallback@?1??registerReferences@?$PxSerializerDefaultAdapter@VNpArticulationSpatialTendon@physx@@@physx@@UEBAXAEAVPxBase@4@AEAVPxSerializationContext@4@@Z@UEAAX0@Z 0000000180043400 f i NpSerializerAdapter.obj
 0001:00042400       ?process@RequiresCallback@?1??registerReferences@?$PxSerializerDefaultAdapter@VNpArticulationTendonJoint@physx@@@physx@@UEBAXAEAVPxBase@4@AEAVPxSerializationContext@4@@Z@UEAAX0@Z 0000000180043400 f i NpSerializerAdapter.obj
 0001:00042400       ?process@RequiresCallback@?1??registerReferences@?$PxSerializerDefaultAdapter@VNpConstraint@physx@@@physx@@UEBAXAEAVPxBase@4@AEAVPxSerializationContext@4@@Z@UEAAX0@Z 0000000180043400 f i NpSerializerAdapter.obj
 0001:00042400       ?process@RequiresCallback@?1??registerReferences@?$PxSerializerDefaultAdapter@VNpRigidDynamic@physx@@@physx@@UEBAXAEAVPxBase@4@AEAVPxSerializationContext@4@@Z@UEAAX0@Z 0000000180043400 f i NpSerializerAdapter.obj
 0001:00042400       ?process@RequiresCallback@?1??registerReferences@?$PxSerializerDefaultAdapter@VNpRigidStatic@physx@@@physx@@UEBAXAEAVPxBase@4@AEAVPxSerializationContext@4@@Z@UEAAX0@Z 0000000180043400 f i NpSerializerAdapter.obj
 0001:00042400       ?process@RequiresCallback@?1??registerReferences@?$PxSerializerDefaultAdapter@VPruningStructure@Sq@physx@@@physx@@UEBAXAEAVPxBase@4@AEAVPxSerializationContext@4@@Z@UEAAX0@Z 0000000180043400 f i NpSerializerAdapter.obj
 0001:00042400       ?process@RequiresCallback@?1??registerReferences@?$PxSerializerDefaultAdapter@VRTreeTriangleMesh@Gu@physx@@@physx@@UEBAXAEAVPxBase@4@AEAVPxSerializationContext@4@@Z@UEAAX0@Z 0000000180043400 f i NpSerializerAdapter.obj
 0001:00042420       ?process@RequiresCallback@?1??registerReferences@?$PxSerializerDefaultAdapter@VNpShape@physx@@@physx@@UEBAXAEAVPxBase@4@AEAVPxSerializationContext@4@@Z@UEAAX0@Z 0000000180043420 f i NpSerializerAdapter.obj
 0001:00042460       ?registerReferences@?$PxSerializerDefaultAdapter@VBV4TriangleMesh@Gu@physx@@@physx@@UEBAXAEAVPxBase@2@AEAVPxSerializationContext@2@@Z 0000000180043460 f i NpSerializerAdapter.obj
 0001:00042460       ?registerReferences@?$PxSerializerDefaultAdapter@VRTreeTriangleMesh@Gu@physx@@@physx@@UEBAXAEAVPxBase@2@AEAVPxSerializationContext@2@@Z 0000000180043460 f i NpSerializerAdapter.obj
 0001:000424b0       ?registerReferences@?$PxSerializerDefaultAdapter@VConvexMesh@Gu@physx@@@physx@@UEBAXAEAVPxBase@2@AEAVPxSerializationContext@2@@Z 00000001800434b0 f i NpSerializerAdapter.obj
 0001:000424b0       ?registerReferences@?$PxSerializerDefaultAdapter@VNpArticulationAttachment@physx@@@physx@@UEBAXAEAVPxBase@2@AEAVPxSerializationContext@2@@Z 00000001800434b0 f i NpSerializerAdapter.obj
 0001:000424b0       ?registerReferences@?$PxSerializerDefaultAdapter@VNpArticulationSpatialTendon@physx@@@physx@@UEBAXAEAVPxBase@2@AEAVPxSerializationContext@2@@Z 00000001800434b0 f i NpSerializerAdapter.obj
 0001:00042500       ?registerReferences@?$PxSerializerDefaultAdapter@VHeightField@Gu@physx@@@physx@@UEBAXAEAVPxBase@2@AEAVPxSerializationContext@2@@Z 0000000180043500 f i NpSerializerAdapter.obj
 0001:00042500       ?registerReferences@?$PxSerializerDefaultAdapter@VNpArticulationFixedTendon@physx@@@physx@@UEBAXAEAVPxBase@2@AEAVPxSerializationContext@2@@Z 0000000180043500 f i NpSerializerAdapter.obj
 0001:00042550       ?registerReferences@?$PxSerializerDefaultAdapter@VNpAggregate@physx@@@physx@@UEBAXAEAVPxBase@2@AEAVPxSerializationContext@2@@Z 0000000180043550 f i NpSerializerAdapter.obj
 0001:000425a0       ?registerReferences@?$PxSerializerDefaultAdapter@VNpArticulationJointReducedCoordinate@physx@@@physx@@UEBAXAEAVPxBase@2@AEAVPxSerializationContext@2@@Z 00000001800435a0 f i NpSerializerAdapter.obj
 0001:000425f0       ?registerReferences@?$PxSerializerDefaultAdapter@VNpArticulationLink@physx@@@physx@@UEBAXAEAVPxBase@2@AEAVPxSerializationContext@2@@Z 00000001800435f0 f i NpSerializerAdapter.obj
 0001:00042640       ?registerReferences@?$PxSerializerDefaultAdapter@VNpArticulationReducedCoordinate@physx@@@physx@@UEBAXAEAVPxBase@2@AEAVPxSerializationContext@2@@Z 0000000180043640 f i NpSerializerAdapter.obj
 0001:00042690       ?registerReferences@?$PxSerializerDefaultAdapter@VNpArticulationSensor@physx@@@physx@@UEBAXAEAVPxBase@2@AEAVPxSerializationContext@2@@Z 0000000180043690 f i NpSerializerAdapter.obj
 0001:000426e0       ?registerReferences@?$PxSerializerDefaultAdapter@VNpArticulationTendonJoint@physx@@@physx@@UEBAXAEAVPxBase@2@AEAVPxSerializationContext@2@@Z 00000001800436e0 f i NpSerializerAdapter.obj
 0001:00042730       ?registerReferences@?$PxSerializerDefaultAdapter@VNpConstraint@physx@@@physx@@UEBAXAEAVPxBase@2@AEAVPxSerializationContext@2@@Z 0000000180043730 f i NpSerializerAdapter.obj
 0001:00042780       ?registerReferences@?$PxSerializerDefaultAdapter@VNpMaterial@physx@@@physx@@UEBAXAEAVPxBase@2@AEAVPxSerializationContext@2@@Z 0000000180043780 f i NpSerializerAdapter.obj
 0001:000427d0       ?registerReferences@?$PxSerializerDefaultAdapter@VNpRigidDynamic@physx@@@physx@@UEBAXAEAVPxBase@2@AEAVPxSerializationContext@2@@Z 00000001800437d0 f i NpSerializerAdapter.obj
 0001:00042820       ?registerReferences@?$PxSerializerDefaultAdapter@VNpRigidStatic@physx@@@physx@@UEBAXAEAVPxBase@2@AEAVPxSerializationContext@2@@Z 0000000180043820 f i NpSerializerAdapter.obj
 0001:00042870       ?registerReferences@?$PxSerializerDefaultAdapter@VNpShape@physx@@@physx@@UEBAXAEAVPxBase@2@AEAVPxSerializationContext@2@@Z 0000000180043870 f i NpSerializerAdapter.obj
 0001:000428c0       ?registerReferences@?$PxSerializerDefaultAdapter@VPruningStructure@Sq@physx@@@physx@@UEBAXAEAVPxBase@2@AEAVPxSerializationContext@2@@Z 00000001800438c0 f i NpSerializerAdapter.obj
 0001:00042910       ?requiresObjects@?$PxSerializerDefaultAdapter@VBV4TriangleMesh@Gu@physx@@@physx@@UEBAXAEAVPxBase@2@AEAVPxProcessPxBaseCallback@2@@Z 0000000180043910 f i NpSerializerAdapter.obj
 0001:00042910       ?requiresObjects@?$PxSerializerDefaultAdapter@VNpMaterial@physx@@@physx@@UEBAXAEAVPxBase@2@AEAVPxProcessPxBaseCallback@2@@Z 0000000180043910 f i NpSerializerAdapter.obj
 0001:00042910       ?requiresObjects@?$PxSerializerDefaultAdapter@VRTreeTriangleMesh@Gu@physx@@@physx@@UEBAXAEAVPxBase@2@AEAVPxProcessPxBaseCallback@2@@Z 0000000180043910 f i NpSerializerAdapter.obj
 0001:00042920       ?requiresObjects@?$PxSerializerDefaultAdapter@VConvexMesh@Gu@physx@@@physx@@UEBAXAEAVPxBase@2@AEAVPxProcessPxBaseCallback@2@@Z 0000000180043920 f i NpSerializerAdapter.obj
 0001:00042920       ?requiresObjects@?$PxSerializerDefaultAdapter@VNpArticulationAttachment@physx@@@physx@@UEBAXAEAVPxBase@2@AEAVPxProcessPxBaseCallback@2@@Z 0000000180043920 f i NpSerializerAdapter.obj
 0001:00042920       ?requiresObjects@?$PxSerializerDefaultAdapter@VNpArticulationSpatialTendon@physx@@@physx@@UEBAXAEAVPxBase@2@AEAVPxProcessPxBaseCallback@2@@Z 0000000180043920 f i NpSerializerAdapter.obj
 0001:00042930       ?requiresObjects@?$PxSerializerDefaultAdapter@VHeightField@Gu@physx@@@physx@@UEBAXAEAVPxBase@2@AEAVPxProcessPxBaseCallback@2@@Z 0000000180043930 f i NpSerializerAdapter.obj
 0001:00042930       ?requiresObjects@?$PxSerializerDefaultAdapter@VNpArticulationFixedTendon@physx@@@physx@@UEBAXAEAVPxBase@2@AEAVPxProcessPxBaseCallback@2@@Z 0000000180043930 f i NpSerializerAdapter.obj
 0001:00042940       ?requiresObjects@?$PxSerializerDefaultAdapter@VNpAggregate@physx@@@physx@@UEBAXAEAVPxBase@2@AEAVPxProcessPxBaseCallback@2@@Z 0000000180043940 f i NpSerializerAdapter.obj
 0001:00042950       ?requiresObjects@?$PxSerializerDefaultAdapter@VNpArticulationJointReducedCoordinate@physx@@@physx@@UEBAXAEAVPxBase@2@AEAVPxProcessPxBaseCallback@2@@Z 0000000180043950 f i NpSerializerAdapter.obj
 0001:00042960       ?requiresObjects@?$PxSerializerDefaultAdapter@VNpArticulationReducedCoordinate@physx@@@physx@@UEBAXAEAVPxBase@2@AEAVPxProcessPxBaseCallback@2@@Z 0000000180043960 f i NpSerializerAdapter.obj
 0001:00042970       ?requiresObjects@?$PxSerializerDefaultAdapter@VNpArticulationSensor@physx@@@physx@@UEBAXAEAVPxBase@2@AEAVPxProcessPxBaseCallback@2@@Z 0000000180043970 f i NpSerializerAdapter.obj
 0001:00042980       ?requiresObjects@?$PxSerializerDefaultAdapter@VNpArticulationTendonJoint@physx@@@physx@@UEBAXAEAVPxBase@2@AEAVPxProcessPxBaseCallback@2@@Z 0000000180043980 f i NpSerializerAdapter.obj
 0001:00042990       ?requiresObjects@?$PxSerializerDefaultAdapter@VNpConstraint@physx@@@physx@@UEBAXAEAVPxBase@2@AEAVPxProcessPxBaseCallback@2@@Z 0000000180043990 f i NpSerializerAdapter.obj
 0001:000429a0       ?requiresObjects@?$PxSerializerDefaultAdapter@VNpRigidDynamic@physx@@@physx@@UEBAXAEAVPxBase@2@AEAVPxProcessPxBaseCallback@2@@Z 00000001800439a0 f i NpSerializerAdapter.obj
 0001:000429b0       ?requiresObjects@?$PxSerializerDefaultAdapter@VNpRigidStatic@physx@@@physx@@UEBAXAEAVPxBase@2@AEAVPxProcessPxBaseCallback@2@@Z 00000001800439b0 f i NpSerializerAdapter.obj
 0001:000429c0       ?requiresObjects@?$PxSerializerDefaultAdapter@VNpShape@physx@@@physx@@UEBAXAEAVPxBase@2@AEAVPxProcessPxBaseCallback@2@@Z 00000001800439c0 f i NpSerializerAdapter.obj
 0001:000429d0       PxRegisterPhysicsSerializers 00000001800439d0 f   NpSerializerAdapter.obj
 0001:00042fd0       PxUnregisterPhysicsSerializers 0000000180043fd0 f   NpSerializerAdapter.obj
 0001:000434d0       ??$scGetMaterials@VPxFEMSoftBodyMaterial@physx@@VNpFEMSoftBodyMaterial@2@@NpShape@physx@@AEBAIPEAPEAVPxFEMSoftBodyMaterial@1@II@Z 00000001800444d0 f i NpShape.obj
 0001:00043570       ??$scGetMaterials@VPxMaterial@physx@@VNpMaterial@2@@NpShape@physx@@AEBAIPEAPEAVPxMaterial@1@II@Z 0000000180044570 f i NpShape.obj
 0001:00043610       ??$setMaterialsHelper@VPxFEMSoftBodyMaterial@physx@@VNpFEMSoftBodyMaterial@2@@NpShape@physx@@AEAA_NPEBQEAVPxFEMSoftBodyMaterial@1@G@Z 0000000180044610 f i NpShape.obj
 0001:00043770       ??$setMaterialsHelper@VPxMaterial@physx@@VNpMaterial@2@@NpShape@physx@@AEAA_NPEBQEAVPxMaterial@1@G@Z 0000000180044770 f i NpShape.obj
 0001:000438d0       ??$setMaterialsInternal@VPxFEMSoftBodyMaterial@physx@@VNpFEMSoftBodyMaterial@2@@NpShape@physx@@AEAAXPEBQEAVPxFEMSoftBodyMaterial@1@G@Z 00000001800448d0 f i NpShape.obj
 0001:00043a40       ??$setMaterialsInternal@VPxMaterial@physx@@VNpMaterial@2@@NpShape@physx@@AEAAXPEBQEAVPxMaterial@1@G@Z 0000000180044a40 f i NpShape.obj
 0001:00043bb0       ??0NpShape@physx@@QEAA@AEBVPxGeometry@1@V?$PxFlags@W4Enum@PxShapeFlag@physx@@E@1@PEBGG_NW4Enum@PxShapeCoreFlag@1@@Z 0000000180044bb0 f   NpShape.obj
 0001:00043c80       ??_ENpShape@physx@@UEAAPEAXI@Z 0000000180044c80 f i NpShape.obj
 0001:00043c80       ??_GNpShape@physx@@UEAAPEAXI@Z 0000000180044c80 f i NpShape.obj
 0001:00043e10       ?acquireReference@NpFEMSoftBodyMaterial@physx@@UEAAXXZ 0000000180044e10 f   NpFEMSoftBodyMaterial.obj
 0001:00043e10       ?acquireReference@NpMaterial@physx@@UEAAXXZ 0000000180044e10 f   NpMaterial.obj
 0001:00043e10       ?acquireReference@NpPBDMaterial@physx@@UEAAXXZ 0000000180044e10 f   NpPBDMaterial.obj
 0001:00043e10       ?acquireReference@NpShape@physx@@UEAAXXZ 0000000180044e10 f   NpShape.obj
 0001:00043e20       ?createObject@NpShape@physx@@SAPEAV12@AEAPEAEAEAVPxDeserializationContext@2@@Z 0000000180044e20 f   NpShape.obj
 0001:00043fb0       ?exportExtraData@NpShape@physx@@UEAAXAEAVPxSerializationContext@2@@Z 0000000180044fb0 f   NpShape.obj
 0001:00043ff0       ?getActor@NpShape@physx@@UEBAPEAVPxRigidActor@2@XZ 0000000180044ff0 f   NpShape.obj
 0001:00044030       ?getConcreteTypeName@PxShape@physx@@UEBAPEBDXZ 0000000180045030 f i NpShape.obj
 0001:00044040       ?getContactOffset@NpShape@physx@@UEBAMXZ 0000000180045040 f   NpShape.obj
 0001:00044050       ?getDensityForFluid@NpShape@physx@@UEBAMXZ 0000000180045050 f   NpShape.obj
 0001:00044060       ?getFlags@NpShape@physx@@UEBA?AV?$PxFlags@W4Enum@PxShapeFlag@physx@@E@2@XZ 0000000180045060 f   NpShape.obj
 0001:00044070       ?getGeometry@NpShape@physx@@UEBAAEBVPxGeometry@2@XZ 0000000180045070 f   NpShape.obj
 0001:00044080       ?getInternalShapeIndex@NpShape@physx@@UEBAIXZ 0000000180045080 f   NpShape.obj
 0001:000440c0       ?getLocalPose@NpShape@physx@@UEBA?AV?$PxTransformT@M@2@XZ 00000001800450c0 f   NpShape.obj
 0001:000440f0       ?getMaterialFromInternalFaceIndex@NpShape@physx@@UEBAPEAVPxBaseMaterial@2@I@Z 00000001800450f0 f   NpShape.obj
 0001:000441f0       ?getMaterials@NpShape@physx@@UEBAIPEAPEAVPxMaterial@2@II@Z 00000001800451f0 f   NpShape.obj
 0001:00044200       ?getNbMaterials@NpShape@physx@@UEBAGXZ 0000000180045200 f   NpShape.obj
 0001:00044210       ?getQueryFilterData@NpShape@physx@@UEBA?AUPxFilterData@2@XZ 0000000180045210 f   NpShape.obj
 0001:00044240       ?getRestOffset@NpShape@physx@@UEBAMXZ 0000000180045240 f   NpShape.obj
 0001:00044250       ?getSimulationFilterData@NpShape@physx@@UEBA?AUPxFilterData@2@XZ 0000000180045250 f   NpShape.obj
 0001:00044270       ?getSoftBodyMaterials@NpShape@physx@@UEBAIPEAPEAVPxFEMSoftBodyMaterial@2@II@Z 0000000180045270 f   NpShape.obj
 0001:00044280       ?isExclusive@NpShape@physx@@UEBA_NXZ 0000000180045280 f   NpShape.obj
 0001:00044290       ?isKindOf@PxShape@physx@@MEBA_NPEBD@Z 0000000180045290 f i NpShape.obj
 0001:00044320       ?notifyActorAndUpdatePVD@NpShape@physx@@AEAAXV?$PxFlags@W4Enum@ShapeChangeNotifyFlag@Sc@physx@@I@2@@Z 0000000180045320 f   NpShape.obj
 0001:000443b0       ?onActorAttach@NpShape@physx@@QEAAXAEAVPxActor@2@@Z 00000001800453b0 f   NpShape.obj
 0001:000443f0       ?onActorDetach@NpShape@physx@@QEAAXXZ 00000001800453f0 f   NpShape.obj
 0001:00044440       ?onRefCountZero@NpShape@physx@@UEAAXXZ 0000000180045440 f   NpShape.obj
 0001:00044470       ?preExportDataReset@NpShape@physx@@QEAAXXZ 0000000180045470 f   NpShape.obj
 0001:00044490       ?release@NpFEMSoftBodyMaterial@physx@@UEAAXXZ 0000000180045490 f   NpFEMSoftBodyMaterial.obj
 0001:00044490       ?release@NpMaterial@physx@@UEAAXXZ 0000000180045490 f   NpMaterial.obj
 0001:00044490       ?release@NpPBDMaterial@physx@@UEAAXXZ 0000000180045490 f   NpPBDMaterial.obj
 0001:00044490       ?release@NpShape@physx@@UEAAXXZ 0000000180045490 f   NpShape.obj
 0001:00044490       ?releaseInternal@NpShape@physx@@QEAAXXZ 0000000180045490 f   NpShape.obj
 0001:000444c0       ?requiresObjects@NpShape@physx@@UEAAXAEAVPxProcessPxBaseCallback@2@@Z 00000001800454c0 f   NpShape.obj
 0001:00044580       ?setContactOffset@NpShape@physx@@UEAAXM@Z 0000000180045580 f   NpShape.obj
 0001:00044600       ?setDensityForFluid@NpShape@physx@@UEAAXM@Z 0000000180045600 f   NpShape.obj
 0001:00044660       ?setFlag@NpShape@physx@@UEAAXW4Enum@PxShapeFlag@2@_N@Z 0000000180045660 f   NpShape.obj
 0001:00044720       ?setFlags@NpShape@physx@@UEAAXV?$PxFlags@W4Enum@PxShapeFlag@physx@@E@2@@Z 0000000180045720 f   NpShape.obj
 0001:000447c0       ?setFlagsInternal@NpShape@physx@@AEAAXV?$PxFlags@W4Enum@PxShapeFlag@physx@@E@2@@Z 00000001800457c0 f   NpShape.obj
 0001:000449c0       ?setGeometry@NpShape@physx@@UEAAXAEBVPxGeometry@2@@Z 00000001800459c0 f   NpShape.obj
 0001:00044b90       ?setLocalPose@NpShape@physx@@UEAAXAEBV?$PxTransformT@M@2@@Z 0000000180045b90 f   NpShape.obj
 0001:00044cf0       ?setMaterials@NpShape@physx@@UEAAXPEBQEAVPxMaterial@2@G@Z 0000000180045cf0 f   NpShape.obj
 0001:00044d00       ?setMinTorsionalPatchRadius@NpShape@physx@@UEAAXM@Z 0000000180045d00 f   NpShape.obj
 0001:00044d60       ?setQueryFilterData@NpShape@physx@@UEAAXAEBUPxFilterData@2@@Z 0000000180045d60 f   NpShape.obj
 0001:00044dd0       ?setRestOffset@NpShape@physx@@UEAAXM@Z 0000000180045dd0 f   NpShape.obj
 0001:00044e40       ?setSimulationFilterData@NpShape@physx@@UEAAXAEBUPxFilterData@2@@Z 0000000180045e40 f   NpShape.obj
 0001:00044ec0       ?setSoftBodyMaterials@NpShape@physx@@UEAAXPEBQEAVPxFEMSoftBodyMaterial@2@G@Z 0000000180045ec0 f   NpShape.obj
 0001:00044ef0       ?setTorsionalPatchRadius@NpShape@physx@@UEAAXM@Z 0000000180045ef0 f   NpShape.obj
 0001:00044f50       ?updateSQ@NpShape@physx@@AEAAXPEBD@Z 0000000180045f50 f   NpShape.obj
 0001:00045000       ??0NpShapeManager@physx@@QEAA@W4PxEMPTY@1@@Z 0000000180046000 f   NpShapeManager.obj
 0001:00045020       ??0NpShapeManager@physx@@QEAA@XZ 0000000180046020 f   NpShapeManager.obj
 0001:00045050       ??1NpShapeManager@physx@@QEAA@XZ 0000000180046050 f   NpShapeManager.obj
 0001:00045080       ?addBVHShapes@NpShapeManager@physx@@AEAAXAEAVPxSceneQuerySystem@2@AEBVPxRigidActor@2@AEBVBVH@Gu@2@@Z 0000000180046080 f   NpShapeManager.obj
 0001:000453d0       ?attachShape@NpShapeManager@physx@@QEAAXAEAVNpShape@2@AEAVPxRigidActor@2@@Z 00000001800463d0 f   NpShapeManager.obj
 0001:000454d0       ?detachAll@NpShapeManager@physx@@QEAAXPEAVPxSceneQuerySystem@2@AEBVPxRigidActor@2@@Z 00000001800464d0 f   NpShapeManager.obj
 0001:000455c0       ?detachShape@NpShapeManager@physx@@QEAA_NAEAVNpShape@2@AEAVPxRigidActor@2@_N@Z 00000001800465c0 f   NpShapeManager.obj
 0001:00045760       ?exportExtraData@NpShapeManager@physx@@QEAAXAEAVPxSerializationContext@2@@Z 0000000180046760 f   NpShapeManager.obj
 0001:00045bc0       ?getShapes@NpShapeManager@physx@@QEBAIPEAPEAVPxShape@2@II@Z 0000000180046bc0 f   NpShapeManager.obj
 0001:00045c20       ?getWorldBounds_@NpShapeManager@physx@@QEBA?AVPxBounds3@2@AEBVPxRigidActor@2@@Z 0000000180046c20 f   NpShapeManager.obj
 0001:00045f10       ?importExtraData@NpShapeManager@physx@@QEAAXAEAVPxDeserializationContext@2@@Z 0000000180046f10 f   NpShapeManager.obj
 0001:00045f20       ?markActorForSQUpdate@NpShapeManager@physx@@QEAAXAEAVPxSceneQuerySystem@2@AEBVPxRigidActor@2@@Z 0000000180046f20 f   NpShapeManager.obj
 0001:00046010       ?markShapeForSQUpdate@NpShapeManager@physx@@QEAAXAEAVPxSceneQuerySystem@2@AEBVPxShape@2@AEBVPxRigidActor@2@@Z 0000000180047010 f   NpShapeManager.obj
 0001:000460b0       ?setupAllSceneQuery@NpShapeManager@physx@@QEAAXAEAVPxSceneQuerySystem@2@AEBVNpActor@2@AEBVPxRigidActor@2@PEBVPruningStructure@Sq@2@PEBVPxBounds3@2@_N@Z 00000001800470b0 f   NpShapeManager.obj
 0001:000461c0       ?setupAllSceneQuery@NpShapeManager@physx@@QEAAXAEAVPxSceneQuerySystem@2@AEBVPxRigidActor@2@PEBVPruningStructure@Sq@2@PEBVPxBounds3@2@PEBVBVH@Gu@2@@Z 00000001800471c0 f   NpShapeManager.obj
 0001:00046310       ?setupSQShape@NpShapeManager@physx@@QEAAXAEAVPxSceneQuerySystem@2@AEBVNpShape@2@AEBVNpActor@2@AEBVPxRigidActor@2@_NPEBVPxBounds3@2@PEBVPruningStructure@Sq@2@@Z 0000000180047310 f   NpShapeManager.obj
 0001:00046480       ?setupSceneQuery@NpShapeManager@physx@@QEAAXAEAVPxSceneQuerySystem@2@AEBVNpActor@2@AEBVPxRigidActor@2@AEBVNpShape@2@@Z 0000000180047480 f   NpShapeManager.obj
 0001:00046490       ?setupSceneQuery_@NpShapeManager@physx@@AEAAXAEAVPxSceneQuerySystem@2@AEBVNpActor@2@AEBVPxRigidActor@2@AEBVNpShape@2@@Z 0000000180047490 f   NpShapeManager.obj
 0001:000465a0       ?teardownAllSceneQuery@NpShapeManager@physx@@QEAAXAEAVPxSceneQuerySystem@2@AEBVPxRigidActor@2@@Z 00000001800475a0 f   NpShapeManager.obj
 0001:00046630       ?teardownSceneQuery@NpShapeManager@physx@@QEAAXAEAVPxSceneQuerySystem@2@AEBVPxRigidActor@2@AEBVNpShape@2@@Z 0000000180047630 f   NpShapeManager.obj
 0001:00046650       ??0?$PxMat44T@M@physx@@QEAA@AEBV?$PxTransformT@M@1@@Z 0000000180047650 f i NpDebugViz.obj
 0001:000467d0       ??6PxRenderOutput@physx@@QEAAAEAV01@AEBV?$PxTransformT@M@1@@Z 00000001800477d0 f i NpDebugViz.obj
 0001:00046860       ??6PxRenderOutput@physx@@QEAAAEAV01@AEBV?$PxVec3T@M@1@@Z 0000000180047860 f i NpDebugViz.obj
 0001:00046b50       ??_EConstraintImmediateVisualizer@Cm@physx@@UEAAPEAXI@Z 0000000180047b50 f i NpDebugViz.obj
 0001:00046b50       ??_GConstraintImmediateVisualizer@Cm@physx@@UEAAPEAXI@Z 0000000180047b50 f i NpDebugViz.obj
 0001:00046b80       ??_EPxBroadPhaseRegions@physx@@MEAAPEAXI@Z 0000000180047b80 f i NpImmediateMode.obj
 0001:00046b80       ??_EPxConstraintVisualizer@physx@@MEAAPEAXI@Z 0000000180047b80 f i NpDebugViz.obj
 0001:00046b80       ??_GPxBroadPhaseRegions@physx@@MEAAPEAXI@Z 0000000180047b80 f i NpImmediateMode.obj
 0001:00046b80       ??_GPxConstraintVisualizer@physx@@MEAAPEAXI@Z 0000000180047b80 f i NpDebugViz.obj
 0001:00046bb0       ?outputCapsule@PxRenderOutput@physx@@QEAAAEAV12@MMAEBV?$PxMat44T@M@2@@Z 0000000180047bb0 f i NpDebugViz.obj
 0001:00047a00       ?visualize@NpScene@physx@@AEAAXXZ 0000000180048a00 f   NpDebugViz.obj
 0001:000480c0       ?visualize@NpShapeManager@physx@@QEBAXAEAVPxRenderOutput@2@AEAVNpScene@2@AEBVPxRigidActor@2@M@Z 00000001800490c0 f   NpDebugViz.obj
 0001:00048b50       ?visualizeAngularLimit@ConstraintImmediateVisualizer@Cm@physx@@UEAAXAEBV?$PxTransformT@M@3@MM@Z 0000000180049b50 f i NpDebugViz.obj
 0001:00049590       ?visualizeDoubleCone@ConstraintImmediateVisualizer@Cm@physx@@UEAAXAEBV?$PxTransformT@M@3@M@Z 000000018004a590 f i NpDebugViz.obj
 0001:0004a0f0       ?visualizeJoint@NpArticulationLink@physx@@QEBAXAEAVPxConstraintVisualizer@2@@Z 000000018004b0f0 f   NpDebugViz.obj
 0001:0004ae20       ?visualizeJointFrames@ConstraintImmediateVisualizer@Cm@physx@@UEAAXAEBV?$PxTransformT@M@3@0@Z 000000018004be20 f i NpDebugViz.obj
 0001:0004ae40       ?visualizeLimitCone@ConstraintImmediateVisualizer@Cm@physx@@UEAAXAEBV?$PxTransformT@M@3@MM@Z 000000018004be40 f i NpDebugViz.obj
 0001:0004ae70       ?visualizeLine@ConstraintImmediateVisualizer@Cm@physx@@UEAAXAEBV?$PxVec3T@M@3@0I@Z 000000018004be70 f i NpDebugViz.obj
 0001:0004aee0       ?visualizeLinearLimit@ConstraintImmediateVisualizer@Cm@physx@@UEAAXAEBV?$PxTransformT@M@3@0M@Z 000000018004bee0 f i NpDebugViz.obj
 0001:0004af10       ?visualizeRigidBody@physx@@YAXAEAVPxRenderOutput@1@AEAVNpScene@1@AEBVPxRigidActor@1@AEBVBodyCore@Sc@1@M@Z 000000018004bf10 f   NpDebugViz.obj
 0001:0004f720       ??1PxcScratchAllocator@physx@@QEAA@XZ 0000000180050720 f i NpImmediateMode.obj
 0001:0004f8e0       ??4PxArticulationLinkDataRC@immediate@physx@@QEAAAEAU012@AEBU012@@Z 00000001800508e0 f i NpImmediateMode.obj
 0001:0004fe30       ??_EPxAABBManager@physx@@MEAAPEAXI@Z 0000000180050e30 f i NpImmediateMode.obj
 0001:0004fe30       ??_GPxAABBManager@physx@@MEAAPEAXI@Z 0000000180050e30 f i NpImmediateMode.obj
 0001:0004fe60       ??_EPxAllocatorCallback@physx@@UEAAPEAXI@Z 0000000180050e60 f i NpImmediateMode.obj
 0001:0004fe60       ??_EPxVirtualAllocatorCallback@physx@@UEAAPEAXI@Z 0000000180050e60 f i LowLevel_static_64:PxsDefaultMemoryManager.obj
 0001:0004fe60       ??_GPxAllocatorCallback@physx@@UEAAPEAXI@Z 0000000180050e60 f i NpImmediateMode.obj
 0001:0004fe60       ??_GPxVirtualAllocatorCallback@physx@@UEAAPEAXI@Z 0000000180050e60 f i LowLevel_static_64:PxsDefaultMemoryManager.obj
 0001:0004fe90       ??_EPxBroadPhase@physx@@MEAAPEAXI@Z 0000000180050e90 f i NpImmediateMode.obj
 0001:0004fe90       ??_GPxBroadPhase@physx@@MEAAPEAXI@Z 0000000180050e90 f i NpImmediateMode.obj
 0001:00050e30       ?create@?$PxArray@UPxsBodyCore@physx@@V?$PxReflectionAllocator@UPxsBodyCore@physx@@@2@@physx@@KAXPEAUPxsBodyCore@2@0AEBU32@@Z 0000000180051e30 f i NpImmediateMode.obj
 0001:00051bc0       ?extend@?$PxBitMapBase@VPxAllocator@physx@@@physx@@IEAAXI@Z 0000000180052bc0 f i NpImmediateMode.obj
 0001:00051da0       ?getName@FanoutTask@Cm@physx@@UEBAPEBDXZ 0000000180052da0 f   SimulationController_static_64:ScScene.obj
 0001:00051f60       ?growAndPushBack@?$PxArray@VSpatialVector@Cm@physx@@V?$PxReflectionAllocator@VSpatialVector@Cm@physx@@@3@@physx@@IEAAAEAVSpatialVector@Cm@2@AEBV342@@Z 0000000180052f60 f i NpImmediateMode.obj
 0001:00052220       ?init@ArticulationJointCore@Dy@physx@@QEAAXAEBV?$PxTransformT@M@3@0@Z 0000000180053220 f i NpImmediateMode.obj
 0001:000525a0       ?initData@PxArticulationJointDataRC@immediate@physx@@QEAAXXZ 00000001800535a0 f i NpImmediateMode.obj
 0001:00052a20       ?recreate@?$PxArray@PEAEV?$PxReflectionAllocator@PEAE@physx@@@physx@@IEAAXI@Z 0000000180053a20 f i NpImmediateMode.obj
 0001:00052ac0       ?recreate@?$PxArray@UArticulationLink@Dy@physx@@V?$PxReflectionAllocator@UArticulationLink@Dy@physx@@@3@@physx@@IEAAXI@Z 0000000180053ac0 f i NpImmediateMode.obj
 0001:00052bd0       ?recreate@?$PxArray@UPxBroadPhasePair@physx@@V?$PxReflectionAllocator@UPxBroadPhasePair@physx@@@2@@physx@@IEAAXI@Z 0000000180053bd0 f i NpImmediateMode.obj
 0001:00052cc0       ?recreate@?$PxArray@UPxsBodyCore@physx@@V?$PxReflectionAllocator@UPxsBodyCore@physx@@@2@@physx@@IEAAXI@Z 0000000180053cc0 f i NpImmediateMode.obj
 0001:00052ee0       ?recreate@?$PxArray@USpatialVectorF@Cm@physx@@V?$PxReflectionAllocator@USpatialVectorF@Cm@physx@@@3@@physx@@IEAAXI@Z 0000000180053ee0 f i NpImmediateMode.obj
 0001:00053220       ?release@BroadPhaseABP@Bp@physx@@UEAAXXZ 0000000180054220 f   LowLevelAABB_static_64:BpBroadPhaseABP.obj
 0001:00053220       ?release@BroadPhaseMBP@Bp@physx@@UEAAXXZ 0000000180054220 f   LowLevelAABB_static_64:BpBroadPhaseMBP.obj
 0001:00053560       ?resize@?$PxArray@UPxBroadPhasePair@physx@@V?$PxReflectionAllocator@UPxBroadPhasePair@physx@@@2@@physx@@QEAAXIAEBUPxBroadPhasePair@2@@Z 0000000180054560 f i NpImmediateMode.obj
 0001:00053620       ?resize@?$PxArray@UPxsBodyCore@physx@@V?$PxReflectionAllocator@UPxsBodyCore@physx@@@2@@physx@@QEAAXIAEBUPxsBodyCore@2@@Z 0000000180054620 f i NpImmediateMode.obj
 0001:00053680       ?resize@?$PxArray@USpatialVectorF@Cm@physx@@V?$PxReflectionAllocator@USpatialVectorF@Cm@physx@@@3@@physx@@QEAAXIAEBUSpatialVectorF@Cm@2@@Z 0000000180054680 f i NpImmediateMode.obj
 0001:00053e60       PxAddArticulationLink      0000000180054e60 f   NpImmediateMode.obj
 0001:00053fe0       PxApplyArticulationCache   0000000180054fe0 f   NpImmediateMode.obj
 0001:00054010       PxBatchConstraints         0000000180055010 f   NpImmediateMode.obj
 0001:000540a0       PxBatchConstraintsTGS      00000001800550a0 f   NpImmediateMode.obj
 0001:00054130       PxBeginCreateArticulationRC 0000000180055130 f   NpImmediateMode.obj
 0001:00054240       PxComputeUnconstrainedVelocities 0000000180055240 f   NpImmediateMode.obj
 0001:00054350       PxComputeUnconstrainedVelocitiesTGS 0000000180055350 f   NpImmediateMode.obj
 0001:00054470       PxConstructSolverBodies    0000000180055470 f   NpImmediateMode.obj
 0001:00054760       PxConstructSolverBodiesTGS 0000000180055760 f   NpImmediateMode.obj
 0001:00054aa0       PxConstructStaticSolverBody 0000000180055aa0 f   NpImmediateMode.obj
 0001:00054b20       PxConstructStaticSolverBodyTGS 0000000180055b20 f   NpImmediateMode.obj
 0001:00054bb0       PxCopyInternalStateToArticulationCache 0000000180055bb0 f   NpImmediateMode.obj
 0001:00054bd0       PxCreateAABBManager        0000000180055bd0 f   NpImmediateMode.obj
 0001:00054cd0       PxCreateArticulationCache  0000000180055cd0 f   NpImmediateMode.obj
 0001:00054d10       PxCreateBroadPhase         0000000180055d10 f   NpImmediateMode.obj
 0001:00054e70       PxCreateContactConstraints 0000000180055e70 f   NpImmediateMode.obj
 0001:00055100       PxCreateContactConstraintsTGS 0000000180056100 f   NpImmediateMode.obj
 0001:00055400       PxCreateJointConstraints   0000000180056400 f   NpImmediateMode.obj
 0001:000555b0       PxCreateJointConstraintsTGS 00000001800565b0 f   NpImmediateMode.obj
 0001:000557e0       PxCreateJointConstraintsWithImmediateShaders 00000001800567e0 f   NpImmediateMode.obj
 0001:00055810       PxCreateJointConstraintsWithImmediateShadersTGS 0000000180056810 f   NpImmediateMode.obj
 0001:00055820       PxCreateJointConstraintsWithShaders 0000000180056820 f   NpImmediateMode.obj
 0001:00055850       PxCreateJointConstraintsWithShadersTGS 0000000180056850 f   NpImmediateMode.obj
 0001:00055860       PxEndCreateArticulationRC  0000000180056860 f   NpImmediateMode.obj
 0001:000559f0       PxGenerateContacts         00000001800569f0 f   NpImmediateMode.obj
 0001:00055fa0       PxGetAllLinkData           0000000180056fa0 f   NpImmediateMode.obj
 0001:00056330       PxGetBroadPhaseDynamicFilterGroup 0000000180057330 f   NpImmediateMode.obj
 0001:00056340       PxGetBroadPhaseKinematicFilterGroup 0000000180057340 f   NpImmediateMode.obj
 0001:00056350       PxGetJointData             0000000180057350 f   NpImmediateMode.obj
 0001:00056630       PxGetLinkData              0000000180057630 f   NpImmediateMode.obj
 0001:000566c0       PxGetMutableLinkData       00000001800576c0 f   NpImmediateMode.obj
 0001:00056780       PxIntegrateSolverBodies    0000000180057780 f   NpImmediateMode.obj
 0001:00056cc0       PxIntegrateSolverBodiesTGS 0000000180057cc0 f   NpImmediateMode.obj
 0001:00056f40       PxReleaseArticulation      0000000180057f40 f   NpImmediateMode.obj
 0001:00056f80       PxReleaseArticulationCache 0000000180057f80 f   NpImmediateMode.obj
 0001:00057010       PxSetJointData             0000000180058010 f   NpImmediateMode.obj
 0001:000574b0       PxSetMutableLinkData       00000001800584b0 f   NpImmediateMode.obj
 0001:00057570       PxSolveConstraints         0000000180058570 f   NpImmediateMode.obj
 0001:00057ae0       PxSolveConstraintsTGS      0000000180058ae0 f   NpImmediateMode.obj
 0001:00057f40       PxUpdateArticulationBodies 0000000180058f40 f   NpImmediateMode.obj
 0001:00057f60       PxUpdateArticulationBodiesTGS 0000000180058f60 f   NpImmediateMode.obj
 0001:00057f80       ??0NpMaterial@physx@@QEAA@AEBV?$MaterialCoreT@UPxsMaterialData@physx@@VPxMaterial@2@@1@@Z 0000000180058f80 f   NpMaterial.obj
 0001:00057ff0       ??_ENpMaterial@physx@@UEAAPEAXI@Z 0000000180058ff0 f i NpMaterial.obj
 0001:00057ff0       ??_GNpMaterial@physx@@UEAAPEAXI@Z 0000000180058ff0 f i NpMaterial.obj
 0001:00058070       ?createObject@NpMaterial@physx@@SAPEAV12@AEAPEAEAEAVPxDeserializationContext@2@@Z 0000000180059070 f   NpMaterial.obj
 0001:000580e0       ?getConcreteTypeName@PxMaterial@physx@@UEBAPEBDXZ 00000001800590e0 f i NpMaterial.obj
 0001:000580f0       ?getDamping@NpMaterial@physx@@UEBAMXZ 00000001800590f0 f   NpMaterial.obj
 0001:000580f0       ?getGravityScale@NpPBDMaterial@physx@@UEBAMXZ 00000001800590f0 f   NpPBDMaterial.obj
 0001:000580f0       ?getPoissons@NpFEMSoftBodyMaterial@physx@@UEBAMXZ 00000001800590f0 f   NpFEMSoftBodyMaterial.obj
 0001:00058100       ?getFlags@NpMaterial@physx@@UEBA?AV?$PxFlags@W4Enum@PxMaterialFlag@physx@@G@2@XZ 0000000180059100 f   NpMaterial.obj
 0001:00058110       ?getFrictionCombineMode@NpMaterial@physx@@UEBA?AW4Enum@PxCombineMode@2@XZ 0000000180059110 f   NpMaterial.obj
 0001:00058120       ?getRestitutionCombineMode@NpMaterial@physx@@UEBA?AW4Enum@PxCombineMode@2@XZ 0000000180059120 f   NpMaterial.obj
 0001:00058130       ?getDamping@NpPBDMaterial@physx@@UEBAMXZ 0000000180059130 f   NpPBDMaterial.obj
 0001:00058130       ?getStaticFriction@NpMaterial@physx@@UEBAMXZ 0000000180059130 f   NpMaterial.obj
 0001:00058140       ?isKindOf@PxBaseMaterial@physx@@UEBA_NPEBD@Z 0000000180059140 f i NpMaterial.obj
 0001:000581b0       ?isKindOf@PxMaterial@physx@@MEBA_NPEBD@Z 00000001800591b0 f i NpMaterial.obj
 0001:00058200       ?onRefCountZero@NpMaterial@physx@@UEAAXXZ 0000000180059200 f   NpMaterial.obj
 0001:00058260       ?resolveReferences@NpMaterial@physx@@UEAAXAEAVPxDeserializationContext@2@@Z 0000000180059260 f   NpMaterial.obj
 0001:00058280       ?setDamping@NpMaterial@physx@@UEAAXM@Z 0000000180059280 f   NpMaterial.obj
 0001:000582f0       ?setDynamicFriction@NpMaterial@physx@@UEAAXM@Z 00000001800592f0 f   NpMaterial.obj
 0001:00058310       ?setFlag@NpMaterial@physx@@UEAAXW4Enum@PxMaterialFlag@2@_N@Z 0000000180059310 f   NpMaterial.obj
 0001:00058340       ?setFlags@NpMaterial@physx@@UEAAXV?$PxFlags@W4Enum@PxMaterialFlag@physx@@G@2@@Z 0000000180059340 f   NpMaterial.obj
 0001:00058360       ?setFrictionCombineMode@NpMaterial@physx@@UEAAXW4Enum@PxCombineMode@2@@Z 0000000180059360 f   NpMaterial.obj
 0001:00058380       ?setRestitution@NpMaterial@physx@@UEAAXM@Z 0000000180059380 f   NpMaterial.obj
 0001:00058400       ?setRestitutionCombineMode@NpMaterial@physx@@UEAAXW4Enum@PxCombineMode@2@@Z 0000000180059400 f   NpMaterial.obj
 0001:00058420       ?setStaticFriction@NpMaterial@physx@@UEAAXM@Z 0000000180059420 f   NpMaterial.obj
 0001:00058440       ??0NpFEMSoftBodyMaterial@physx@@QEAA@AEBV?$MaterialCoreT@UPxsFEMSoftBodyMaterialData@physx@@VPxFEMSoftBodyMaterial@2@@1@@Z 0000000180059440 f   NpFEMSoftBodyMaterial.obj
 0001:00058480       ??_ENpFEMSoftBodyMaterial@physx@@UEAAPEAXI@Z 0000000180059480 f i NpFEMSoftBodyMaterial.obj
 0001:00058480       ??_GNpFEMSoftBodyMaterial@physx@@UEAAPEAXI@Z 0000000180059480 f i NpFEMSoftBodyMaterial.obj
 0001:00058500       ?getConcreteTypeName@PxFEMSoftBodyMaterial@physx@@UEBAPEBDXZ 0000000180059500 f i NpFEMSoftBodyMaterial.obj
 0001:00058510       ?getDamping@NpFEMSoftBodyMaterial@physx@@UEBAMXZ 0000000180059510 f   NpFEMSoftBodyMaterial.obj
 0001:00058520       ?getDampingScale@NpFEMSoftBodyMaterial@physx@@UEBAMXZ 0000000180059520 f   NpFEMSoftBodyMaterial.obj
 0001:00058540       ?getCohesion@NpPBDMaterial@physx@@UEBAMXZ 0000000180059540 f   NpPBDMaterial.obj
 0001:00058540       ?getContactOffset@HairSystemCore@Sc@physx@@QEBAMXZ 0000000180059540 f   SimulationController_static_64:ScHairSystemCore.obj
 0001:00058540       ?getContactOffset@ParticleSystemCore@Sc@physx@@QEBAMXZ 0000000180059540 f   SimulationController_static_64:ScParticleSystemCore.obj
 0001:00058540       ?getDeformHighLimitRatio@NpFEMSoftBodyMaterial@physx@@UEBAMXZ 0000000180059540 f   NpFEMSoftBodyMaterial.obj
 0001:00058550       ?getDeformLowLimitRatio@NpFEMSoftBodyMaterial@physx@@UEBAMXZ 0000000180059550 f   NpFEMSoftBodyMaterial.obj
 0001:00058550       ?getStabilizationThreshold@NpArticulationReducedCoordinate@physx@@UEBAMXZ 0000000180059550 f   NpArticulationReducedCoordinate.obj
 0001:00058550       ?getSurfaceTension@NpPBDMaterial@physx@@UEBAMXZ 0000000180059550 f   NpPBDMaterial.obj
 0001:00058560       ?getDeformThreshold@NpFEMSoftBodyMaterial@physx@@UEBAMXZ 0000000180059560 f   NpFEMSoftBodyMaterial.obj
 0001:00058560       ?getSleepThreshold@NpArticulationReducedCoordinate@physx@@UEBAMXZ 0000000180059560 f   NpArticulationReducedCoordinate.obj
 0001:00058560       ?getVorticityConfinement@NpPBDMaterial@physx@@UEBAMXZ 0000000180059560 f   NpPBDMaterial.obj
 0001:00058570       ?getAdhesionRadiusScale@NpPBDMaterial@physx@@UEBAMXZ 0000000180059570 f   NpPBDMaterial.obj
 0001:00058570       ?getDynamicFriction@NpFEMSoftBodyMaterial@physx@@UEBAMXZ 0000000180059570 f   NpFEMSoftBodyMaterial.obj
 0001:00058580       ?getMaterialModel@NpFEMSoftBodyMaterial@physx@@UEBA?AW4Enum@PxFEMSoftBodyMaterialModel@2@XZ 0000000180059580 f   NpFEMSoftBodyMaterial.obj
 0001:00058590       ?isKindOf@PxFEMSoftBodyMaterial@physx@@MEBA_NPEBD@Z 0000000180059590 f i NpFEMSoftBodyMaterial.obj
 0001:000585f0       ?onRefCountZero@NpFEMSoftBodyMaterial@physx@@UEAAXXZ 00000001800595f0 f   NpFEMSoftBodyMaterial.obj
 0001:00058650       ?resolveReferences@NpFEMSoftBodyMaterial@physx@@UEAAXAEAVPxDeserializationContext@2@@Z 0000000180059650 f   NpFEMSoftBodyMaterial.obj
 0001:00058670       ?setDamping@NpFEMSoftBodyMaterial@physx@@UEAAXM@Z 0000000180059670 f   NpFEMSoftBodyMaterial.obj
 0001:00058690       ?setDampingScale@NpFEMSoftBodyMaterial@physx@@UEAAXM@Z 0000000180059690 f   NpFEMSoftBodyMaterial.obj
 0001:000586c0       ?setDeformHighLimitRatio@NpFEMSoftBodyMaterial@physx@@UEAAXM@Z 00000001800596c0 f   NpFEMSoftBodyMaterial.obj
 0001:000586e0       ?setDeformLowLimitRatio@NpFEMSoftBodyMaterial@physx@@UEAAXM@Z 00000001800596e0 f   NpFEMSoftBodyMaterial.obj
 0001:00058700       ?setDeformThreshold@NpFEMSoftBodyMaterial@physx@@UEAAXM@Z 0000000180059700 f   NpFEMSoftBodyMaterial.obj
 0001:00058720       ?setDynamicFriction@NpFEMSoftBodyMaterial@physx@@UEAAXM@Z 0000000180059720 f   NpFEMSoftBodyMaterial.obj
 0001:00058740       ?setMaterialModel@NpFEMSoftBodyMaterial@physx@@UEAAXW4Enum@PxFEMSoftBodyMaterialModel@2@@Z 0000000180059740 f   NpFEMSoftBodyMaterial.obj
 0001:00058760       ?setPoissons@NpFEMSoftBodyMaterial@physx@@UEAAXM@Z 0000000180059760 f   NpFEMSoftBodyMaterial.obj
 0001:00058780       ?setYoungsModulus@NpFEMSoftBodyMaterial@physx@@UEAAXM@Z 0000000180059780 f   NpFEMSoftBodyMaterial.obj
 0001:000587a0       ??0NpPBDMaterial@physx@@QEAA@AEBV?$MaterialCoreT@UPxsPBDMaterialData@physx@@VPxPBDMaterial@2@@1@@Z 00000001800597a0 f   NpPBDMaterial.obj
 0001:000587f0       ??_ENpPBDMaterial@physx@@UEAAPEAXI@Z 00000001800597f0 f i NpPBDMaterial.obj
 0001:000587f0       ??_GNpPBDMaterial@physx@@UEAAPEAXI@Z 00000001800597f0 f i NpPBDMaterial.obj
 0001:00058870       ?getCFLCoefficient@NpPBDMaterial@physx@@UEBAMXZ 0000000180059870 f   NpPBDMaterial.obj
 0001:00058870       ?getMaxCOMAngularVelocity@NpArticulationReducedCoordinate@physx@@UEBAMXZ 0000000180059870 f   NpArticulationReducedCoordinate.obj
 0001:00058880       ?getConcreteTypeName@PxPBDMaterial@physx@@UEBAPEBDXZ 0000000180059880 f i NpPBDMaterial.obj
 0001:00058890       ?getDrag@NpPBDMaterial@physx@@UEBAMXZ 0000000180059890 f   NpPBDMaterial.obj
 0001:00058890       ?getMaxCOMLinearVelocity@NpArticulationReducedCoordinate@physx@@UEBAMXZ 0000000180059890 f   NpArticulationReducedCoordinate.obj
 0001:000588a0       ?getLift@NpPBDMaterial@physx@@UEBAMXZ 00000001800598a0 f   NpPBDMaterial.obj
 0001:000588a0       ?getWakeCounter@SoftBodyCore@Sc@physx@@QEBAMXZ 00000001800598a0 f   SimulationController_static_64:ScSoftBodyCore.obj
 0001:000588b0       ?getParticleAdhesionScale@NpPBDMaterial@physx@@UEBAMXZ 00000001800598b0 f   NpPBDMaterial.obj
 0001:000588c0       ?getParticleFrictionScale@NpPBDMaterial@physx@@UEBAMXZ 00000001800598c0 f   NpPBDMaterial.obj
 0001:000588d0       ?getViscosity@NpPBDMaterial@physx@@UEBAMXZ 00000001800598d0 f   NpPBDMaterial.obj
 0001:000588e0       ?isKindOf@PxPBDMaterial@physx@@MEBA_NPEBD@Z 00000001800598e0 f i NpPBDMaterial.obj
 0001:00058940       ?onRefCountZero@NpPBDMaterial@physx@@UEAAXXZ 0000000180059940 f   NpPBDMaterial.obj
 0001:000589a0       ?resolveReferences@NpPBDMaterial@physx@@UEAAXAEAVPxDeserializationContext@2@@Z 00000001800599a0 f   NpPBDMaterial.obj
 0001:000589b0       ?setAdhesion@NpPBDMaterial@physx@@UEAAXM@Z 00000001800599b0 f   NpPBDMaterial.obj
 0001:000589d0       ?setAdhesionRadiusScale@NpPBDMaterial@physx@@UEAAXM@Z 00000001800599d0 f   NpPBDMaterial.obj
 0001:000589f0       ?setCFLCoefficient@NpPBDMaterial@physx@@UEAAXM@Z 00000001800599f0 f   NpPBDMaterial.obj
 0001:00058a10       ?setCohesion@NpPBDMaterial@physx@@UEAAXM@Z 0000000180059a10 f   NpPBDMaterial.obj
 0001:00058a30       ?setDamping@NpPBDMaterial@physx@@UEAAXM@Z 0000000180059a30 f   NpPBDMaterial.obj
 0001:00058a50       ?setDrag@NpPBDMaterial@physx@@UEAAXM@Z 0000000180059a50 f   NpPBDMaterial.obj
 0001:00058a70       ?setFriction@NpPBDMaterial@physx@@UEAAXM@Z 0000000180059a70 f   NpPBDMaterial.obj
 0001:00058a90       ?setGravityScale@NpPBDMaterial@physx@@UEAAXM@Z 0000000180059a90 f   NpPBDMaterial.obj
 0001:00058ab0       ?setLift@NpPBDMaterial@physx@@UEAAXM@Z 0000000180059ab0 f   NpPBDMaterial.obj
 0001:00058ad0       ?setParticleAdhesionScale@NpPBDMaterial@physx@@UEAAXM@Z 0000000180059ad0 f   NpPBDMaterial.obj
 0001:00058af0       ?setParticleFrictionScale@NpPBDMaterial@physx@@UEAAXM@Z 0000000180059af0 f   NpPBDMaterial.obj
 0001:00058b10       ?setSurfaceTension@NpPBDMaterial@physx@@UEAAXM@Z 0000000180059b10 f   NpPBDMaterial.obj
 0001:00058b30       ?setViscosity@NpPBDMaterial@physx@@UEAAXM@Z 0000000180059b30 f   NpPBDMaterial.obj
 0001:00058b50       ?setVorticityConfinement@NpPBDMaterial@physx@@UEAAXM@Z 0000000180059b50 f   NpPBDMaterial.obj
 0001:00058b70       ??0NpArticulationReducedCoordinate@physx@@QEAA@XZ 0000000180059b70 f   NpArticulationReducedCoordinate.obj
 0001:00058c30       ??1NpArticulationReducedCoordinate@physx@@UEAA@XZ 0000000180059c30 f   NpArticulationReducedCoordinate.obj
 0001:00058ee0       ??_ENpArticulationReducedCoordinate@physx@@UEAAPEAXI@Z 0000000180059ee0 f i NpArticulationReducedCoordinate.obj
 0001:00058ee0       ??_GNpArticulationReducedCoordinate@physx@@UEAAPEAXI@Z 0000000180059ee0 f i NpArticulationReducedCoordinate.obj
 0001:00058f50       ?addLoopJoint@NpArticulationReducedCoordinate@physx@@UEAAXPEAVPxConstraint@2@@Z 0000000180059f50 f   NpArticulationReducedCoordinate.obj
 0001:00059040       ?allocate@?$PxArray@PEAVNpArticulationLink@physx@@V?$PxInlineAllocator@$0CA@V?$PxReflectionAllocator@PEAVNpArticulationLink@physx@@@physx@@@2@@physx@@IEAAPEAPEAVNpArticulationLink@2@I@Z 000000018005a040 f i NpArticulationReducedCoordinate.obj
 0001:000590f0       ?allocate@?$PxArray@PEAVNpConstraint@physx@@V?$PxReflectionAllocator@PEAVNpConstraint@physx@@@2@@physx@@IEAAPEAPEAVNpConstraint@2@I@Z 000000018005a0f0 f i NpArticulationReducedCoordinate.obj
 0001:00059180       ?applyCache@NpArticulationReducedCoordinate@physx@@UEAAXAEAVPxArticulationCache@2@V?$PxFlags@W4Enum@PxArticulationCacheFlag@physx@@I@2@_N@Z 000000018005a180 f   NpArticulationReducedCoordinate.obj
 0001:000592e0       ?autoWakeInternal@NpArticulationReducedCoordinate@physx@@QEAAXXZ 000000018005a2e0 f   NpArticulationReducedCoordinate.obj
 0001:00059350       ?commonInit@NpArticulationReducedCoordinate@physx@@UEBAXXZ 000000018005a350 f   NpArticulationReducedCoordinate.obj
 0001:000593b0       ?computeCoefficientMatrix@NpArticulationReducedCoordinate@physx@@UEBAXAEAVPxArticulationCache@2@@Z 000000018005a3b0 f   NpArticulationReducedCoordinate.obj
 0001:00059430       ?computeCoriolisAndCentrifugalForce@NpArticulationReducedCoordinate@physx@@UEBAXAEAVPxArticulationCache@2@@Z 000000018005a430 f   NpArticulationReducedCoordinate.obj
 0001:00059490       ?computeDenseJacobian@NpArticulationReducedCoordinate@physx@@UEBAXAEAVPxArticulationCache@2@AEAI1@Z 000000018005a490 f   NpArticulationReducedCoordinate.obj
 0001:000594f0       ?computeGeneralizedExternalForce@NpArticulationReducedCoordinate@physx@@UEBAXAEAVPxArticulationCache@2@@Z 000000018005a4f0 f   NpArticulationReducedCoordinate.obj
 0001:00059550       ?computeGeneralizedGravityForce@NpArticulationReducedCoordinate@physx@@UEBAXAEAVPxArticulationCache@2@@Z 000000018005a550 f   NpArticulationReducedCoordinate.obj
 0001:000595b0       ?computeGeneralizedMassMatrix@NpArticulationReducedCoordinate@physx@@UEBAXAEAVPxArticulationCache@2@@Z 000000018005a5b0 f   NpArticulationReducedCoordinate.obj
 0001:00059610       ?computeJointAcceleration@NpArticulationReducedCoordinate@physx@@UEBAXAEAVPxArticulationCache@2@@Z 000000018005a610 f   NpArticulationReducedCoordinate.obj
 0001:00059670       ?computeJointForce@NpArticulationReducedCoordinate@physx@@UEBAXAEAVPxArticulationCache@2@@Z 000000018005a670 f   NpArticulationReducedCoordinate.obj
 0001:000596d0       ?computeLambda@NpArticulationReducedCoordinate@physx@@UEBA_NAEAVPxArticulationCache@2@0QEBMI@Z 000000018005a6d0 f   NpArticulationReducedCoordinate.obj
 0001:000597e0       ?copyInternalStateToCache@NpArticulationReducedCoordinate@physx@@UEBAXAEAVPxArticulationCache@2@V?$PxFlags@W4Enum@PxArticulationCacheFlag@physx@@I@2@@Z 000000018005a7e0 f   NpArticulationReducedCoordinate.obj
 0001:00059890       ?createArticulationJoint@NpArticulationReducedCoordinate@physx@@QEAAPEAVPxArticulationJointReducedCoordinate@2@AEAVPxArticulationLink@2@AEBV?$PxTransformT@M@2@01@Z 000000018005a890 f   NpArticulationReducedCoordinate.obj
 0001:000598a0       ?createCache@NpArticulationReducedCoordinate@physx@@UEBAPEAVPxArticulationCache@2@XZ 000000018005a8a0 f   NpArticulationReducedCoordinate.obj
 0001:000598d0       ?createFixedTendon@NpArticulationReducedCoordinate@physx@@UEAAPEAVPxArticulationFixedTendon@2@XZ 000000018005a8d0 f   NpArticulationReducedCoordinate.obj
 0001:000599c0       ?createLink@NpArticulationReducedCoordinate@physx@@UEAAPEAVPxArticulationLink@2@PEAV32@AEBV?$PxTransformT@M@2@@Z 000000018005a9c0 f   NpArticulationReducedCoordinate.obj
 0001:00059b90       ?createObject@NpArticulationReducedCoordinate@physx@@SAPEAV12@AEAPEAEAEAVPxDeserializationContext@2@@Z 000000018005ab90 f   NpArticulationReducedCoordinate.obj
 0001:00059d80       ?createSensor@NpArticulationReducedCoordinate@physx@@UEAAPEAVPxArticulationSensor@2@PEAVPxArticulationLink@2@AEBV?$PxTransformT@M@2@@Z 000000018005ad80 f   NpArticulationReducedCoordinate.obj
 0001:00059e80       ?createSpatialTendon@NpArticulationReducedCoordinate@physx@@UEAAPEAVPxArticulationSpatialTendon@2@XZ 000000018005ae80 f   NpArticulationReducedCoordinate.obj
 0001:00059f70       ?exportExtraData@NpArticulationReducedCoordinate@physx@@UEAAXAEAVPxSerializationContext@2@@Z 000000018005af70 f   NpArticulationReducedCoordinate.obj
 0001:0005a080       ?getArticulationFlags@NpArticulationReducedCoordinate@physx@@UEBA?AV?$PxFlags@W4Enum@PxArticulationFlag@physx@@E@2@XZ 000000018005b080 f   NpArticulationReducedCoordinate.obj
 0001:0005a090       ?getCacheDataSize@NpArticulationReducedCoordinate@physx@@UEBAIXZ 000000018005b090 f   NpArticulationReducedCoordinate.obj
 0001:0005a0a0       ?getCoefficientMatrixSize@NpArticulationReducedCoordinate@physx@@UEBAIXZ 000000018005b0a0 f   NpArticulationReducedCoordinate.obj
 0001:0005a0b0       ?getConcreteTypeName@NpArticulationReducedCoordinate@physx@@UEBAPEBDXZ 000000018005b0b0 f i NpArticulationReducedCoordinate.obj
 0001:0005a0c0       ?getDofs@NpArticulationReducedCoordinate@physx@@UEBAIXZ 000000018005b0c0 f   NpArticulationReducedCoordinate.obj
 0001:0005a0d0       ?getFixedTendon@NpArticulationReducedCoordinate@physx@@QEBAPEAVNpArticulationFixedTendon@2@I@Z 000000018005b0d0 f   NpArticulationReducedCoordinate.obj
 0001:0005a0e0       ?getFixedTendons@NpArticulationReducedCoordinate@physx@@UEBAIPEAPEAVPxArticulationFixedTendon@2@II@Z 000000018005b0e0 f   NpArticulationReducedCoordinate.obj
 0001:0005a140       ?getGpuArticulationIndex@NpArticulationReducedCoordinate@physx@@UEAAIXZ 000000018005b140 f   NpArticulationReducedCoordinate.obj
 0001:0005a190       ?getLinkAcceleration@NpArticulationReducedCoordinate@physx@@UEAA?AUPxSpatialVelocity@2@I@Z 000000018005b190 f   NpArticulationReducedCoordinate.obj
 0001:0005a250       ?getLinks@NpArticulationReducedCoordinate@physx@@UEBAIPEAPEAVPxArticulationLink@2@II@Z 000000018005b250 f   NpArticulationReducedCoordinate.obj
 0001:0005a2b0       ?getLoopJoints@NpArticulationReducedCoordinate@physx@@UEBAIPEAPEAVPxConstraint@2@II@Z 000000018005b2b0 f   NpArticulationReducedCoordinate.obj
 0001:0005a310       ?getNbLinks@NpArticulationReducedCoordinate@physx@@UEBAIXZ 000000018005b310 f   NpArticulationReducedCoordinate.obj
 0001:0005a320       ?getNbLoopJoints@NpArticulationReducedCoordinate@physx@@UEBAIXZ 000000018005b320 f   NpArticulationReducedCoordinate.obj
 0001:0005a330       ?getNbSensors@NpArticulationReducedCoordinate@physx@@UEAAIXZ 000000018005b330 f   NpArticulationReducedCoordinate.obj
 0001:0005a340       ?getNbShapes@NpArticulationReducedCoordinate@physx@@UEBAIXZ 000000018005b340 f   NpArticulationReducedCoordinate.obj
 0001:0005a350       ?getNbSpatialTendons@NpArticulationReducedCoordinate@physx@@UEAAIXZ 000000018005b350 f   NpArticulationReducedCoordinate.obj
 0001:0005a360       ?getRoot@NpArticulationReducedCoordinate@physx@@QEAAPEAVNpArticulationLink@2@XZ 000000018005b360 f   NpArticulationReducedCoordinate.obj
 0001:0005a380       ?getRootAngularVelocity@NpArticulationReducedCoordinate@physx@@UEBA?AV?$PxVec3T@M@2@XZ 000000018005b380 f   NpArticulationReducedCoordinate.obj
 0001:0005a400       ?getRootGlobalPose@NpArticulationReducedCoordinate@physx@@UEBA?AV?$PxTransformT@M@2@XZ 000000018005b400 f   NpArticulationReducedCoordinate.obj
 0001:0005a490       ?getRootLinearVelocity@NpArticulationReducedCoordinate@physx@@UEBA?AV?$PxVec3T@M@2@XZ 000000018005b490 f   NpArticulationReducedCoordinate.obj
 0001:0005a510       ?getSensor@NpArticulationReducedCoordinate@physx@@QEBAPEAVNpArticulationSensor@2@I@Z 000000018005b510 f   NpArticulationReducedCoordinate.obj
 0001:0005a520       ?getSensors@NpArticulationReducedCoordinate@physx@@UEBAIPEAPEAVPxArticulationSensor@2@II@Z 000000018005b520 f   NpArticulationReducedCoordinate.obj
 0001:0005a580       ?getSolverIterationCounts@NpArticulationReducedCoordinate@physx@@UEBAXAEAI0@Z 000000018005b580 f   NpArticulationReducedCoordinate.obj
 0001:0005a5a0       ?getSpatialTendon@NpArticulationReducedCoordinate@physx@@QEBAPEAVNpArticulationSpatialTendon@2@I@Z 000000018005b5a0 f   NpArticulationReducedCoordinate.obj
 0001:0005a5b0       ?getSpatialTendons@NpArticulationReducedCoordinate@physx@@UEBAIPEAPEAVPxArticulationSpatialTendon@2@II@Z 000000018005b5b0 f   NpArticulationReducedCoordinate.obj
 0001:0005a610       ?getWakeCounter@NpArticulationReducedCoordinate@physx@@UEBAMXZ 000000018005b610 f   NpArticulationReducedCoordinate.obj
 0001:0005a670       ?getWorldBounds@NpArticulationReducedCoordinate@physx@@UEBA?AVPxBounds3@2@M@Z 000000018005b670 f   NpArticulationReducedCoordinate.obj
 0001:0005a940       ?growAndPushBack@?$PxArray@PEAVNpArticulationFixedTendon@physx@@V?$PxReflectionAllocator@PEAVNpArticulationFixedTendon@physx@@@2@@physx@@IEAAAEAPEAVNpArticulationFixedTendon@2@AEBQEAV32@@Z 000000018005b940 f i NpArticulationReducedCoordinate.obj
 0001:0005aa60       ?growAndPushBack@?$PxArray@PEAVNpArticulationLink@physx@@V?$PxInlineAllocator@$0CA@V?$PxReflectionAllocator@PEAVNpArticulationLink@physx@@@physx@@@2@@physx@@IEAAAEAPEAVNpArticulationLink@2@AEBQEAV32@@Z 000000018005ba60 f i NpArticulationReducedCoordinate.obj
 0001:0005ab30       ?growAndPushBack@?$PxArray@PEAVNpArticulationSensor@physx@@V?$PxReflectionAllocator@PEAVNpArticulationSensor@physx@@@2@@physx@@IEAAAEAPEAVNpArticulationSensor@2@AEBQEAV32@@Z 000000018005bb30 f i NpArticulationReducedCoordinate.obj
 0001:0005ac50       ?growAndPushBack@?$PxArray@PEAVNpArticulationSpatialTendon@physx@@V?$PxReflectionAllocator@PEAVNpArticulationSpatialTendon@physx@@@2@@physx@@IEAAAEAPEAVNpArticulationSpatialTendon@2@AEBQEAV32@@Z 000000018005bc50 f i NpArticulationReducedCoordinate.obj
 0001:0005ad70       ?importExtraData@NpArticulationReducedCoordinate@physx@@QEAAXAEAVPxDeserializationContext@2@@Z 000000018005bd70 f   NpArticulationReducedCoordinate.obj
 0001:0005ae90       ?isKindOf@NpArticulationReducedCoordinate@physx@@UEBA_NPEBD@Z 000000018005be90 f i NpArticulationReducedCoordinate.obj
 0001:0005aee0       ?isSleeping@NpArticulationReducedCoordinate@physx@@UEBA_NXZ 000000018005bee0 f   NpArticulationReducedCoordinate.obj
 0001:0005af40       ?packJointData@NpArticulationReducedCoordinate@physx@@UEBAXPEBMPEAM@Z 000000018005bf40 f   NpArticulationReducedCoordinate.obj
 0001:0005af50       ?preExportDataReset@NpArticulationReducedCoordinate@physx@@QEAAXXZ 000000018005bf50 f   NpArticulationReducedCoordinate.obj
 0001:0005af70       ?putToSleep@NpArticulationReducedCoordinate@physx@@UEAAXXZ 000000018005bf70 f   NpArticulationReducedCoordinate.obj
 0001:0005b000       ?recreate@?$PxArray@PEAVNpConstraint@physx@@V?$PxReflectionAllocator@PEAVNpConstraint@physx@@@2@@physx@@IEAAXI@Z 000000018005c000 f i NpArticulationReducedCoordinate.obj
 0001:0005b0a0       ?release@NpArticulationReducedCoordinate@physx@@UEAAXXZ 000000018005c0a0 f   NpArticulationReducedCoordinate.obj
 0001:0005b1e0       ?release@PxArticulationCache@physx@@QEAAXXZ 000000018005c1e0 f   NpArticulationReducedCoordinate.obj
 0001:0005b2b0       ?releaseSensor@NpArticulationReducedCoordinate@physx@@UEAAXAEAVPxArticulationSensor@2@@Z 000000018005c2b0 f   NpArticulationReducedCoordinate.obj
 0001:0005b370       ?removeFixedTendonInternal@NpArticulationReducedCoordinate@physx@@AEAAXPEAVNpArticulationFixedTendon@2@@Z 000000018005c370 f   NpArticulationReducedCoordinate.obj
 0001:0005b380       ?removeLoopJoint@NpArticulationReducedCoordinate@physx@@UEAAXPEAVPxConstraint@2@@Z 000000018005c380 f   NpArticulationReducedCoordinate.obj
 0001:0005b420       ?removeSensorInternal@NpArticulationReducedCoordinate@physx@@AEAAXPEAVNpArticulationSensor@2@@Z 000000018005c420 f   NpArticulationReducedCoordinate.obj
 0001:0005b430       ?removeSpatialTendonInternal@NpArticulationReducedCoordinate@physx@@AEAAXPEAVNpArticulationSpatialTendon@2@@Z 000000018005c430 f   NpArticulationReducedCoordinate.obj
 0001:0005b440       ?requiresObjects@NpArticulationReducedCoordinate@physx@@UEAAXAEAVPxProcessPxBaseCallback@2@@Z 000000018005c440 f   NpArticulationReducedCoordinate.obj
 0001:0005b540       ?setArticulationFlag@NpArticulationReducedCoordinate@physx@@UEAAXW4Enum@PxArticulationFlag@2@_N@Z 000000018005c540 f   NpArticulationReducedCoordinate.obj
 0001:0005b5b0       ?setArticulationFlags@NpArticulationReducedCoordinate@physx@@UEAAXV?$PxFlags@W4Enum@PxArticulationFlag@physx@@E@2@@Z 000000018005c5b0 f   NpArticulationReducedCoordinate.obj
 0001:0005b620       ?setGlobalPose@NpArticulationReducedCoordinate@physx@@QEAAXXZ 000000018005c620 f   NpArticulationReducedCoordinate.obj
 0001:0005b720       ?setMaxCOMAngularVelocity@NpArticulationReducedCoordinate@physx@@UEAAXM@Z 000000018005c720 f   NpArticulationReducedCoordinate.obj
 0001:0005b780       ?setMaxCOMLinearVelocity@NpArticulationReducedCoordinate@physx@@UEAAXM@Z 000000018005c780 f   NpArticulationReducedCoordinate.obj
 0001:0005b7e0       ?setRootAngularVelocity@NpArticulationReducedCoordinate@physx@@UEAAXAEBV?$PxVec3T@M@2@_N@Z 000000018005c7e0 f   NpArticulationReducedCoordinate.obj
 0001:0005b8b0       ?setRootGlobalPose@NpArticulationReducedCoordinate@physx@@UEAAXAEBV?$PxTransformT@M@2@_N@Z 000000018005c8b0 f   NpArticulationReducedCoordinate.obj
 0001:0005b910       ?setRootLinearVelocity@NpArticulationReducedCoordinate@physx@@UEAAXAEBV?$PxVec3T@M@2@_N@Z 000000018005c910 f   NpArticulationReducedCoordinate.obj
 0001:0005b9e0       ?setSleepThreshold@NpArticulationReducedCoordinate@physx@@UEAAXM@Z 000000018005c9e0 f   NpArticulationReducedCoordinate.obj
 0001:0005ba40       ?setSolverIterationCounts@NpArticulationReducedCoordinate@physx@@UEAAXII@Z 000000018005ca40 f   NpArticulationReducedCoordinate.obj
 0001:0005bab0       ?setStabilizationThreshold@NpArticulationReducedCoordinate@physx@@UEAAXM@Z 000000018005cab0 f   NpArticulationReducedCoordinate.obj
 0001:0005bb10       ?setWakeCounter@NpArticulationReducedCoordinate@physx@@UEAAXM@Z 000000018005cb10 f   NpArticulationReducedCoordinate.obj
 0001:0005bbd0       ?unpackJointData@NpArticulationReducedCoordinate@physx@@UEBAXPEBMPEAM@Z 000000018005cbd0 f   NpArticulationReducedCoordinate.obj
 0001:0005bbe0       ?updateKinematic@NpArticulationReducedCoordinate@physx@@UEAAXV?$PxFlags@W4Enum@PxArticulationKinematicFlag@physx@@E@2@@Z 000000018005cbe0 f   NpArticulationReducedCoordinate.obj
 0001:0005bce0       ?wakeUp@NpArticulationReducedCoordinate@physx@@UEAAXXZ 000000018005cce0 f   NpArticulationReducedCoordinate.obj
 0001:0005bda0       ?wakeUpInternal@NpArticulationReducedCoordinate@physx@@QEAAX_N0@Z 000000018005cda0 f   NpArticulationReducedCoordinate.obj
 0001:0005be60       ?zeroCache@NpArticulationReducedCoordinate@physx@@UEBAXAEAVPxArticulationCache@2@@Z 000000018005ce60 f   NpArticulationReducedCoordinate.obj
 0001:0005be70       ??0NpArticulationJointReducedCoordinate@physx@@QEAA@AEAVNpArticulationLink@1@AEBV?$PxTransformT@M@1@01@Z 000000018005ce70 f   NpArticulationJointReducedCoordinate.obj
 0001:0005bf00       ??_ENpArticulationJointReducedCoordinate@physx@@UEAAPEAXI@Z 000000018005cf00 f i NpArticulationJointReducedCoordinate.obj
 0001:0005bf00       ??_GNpArticulationJointReducedCoordinate@physx@@UEAAPEAXI@Z 000000018005cf00 f i NpArticulationJointReducedCoordinate.obj
 0001:0005bf80       ?createObject@NpArticulationJointReducedCoordinate@physx@@SAPEAV12@AEAPEAEAEAVPxDeserializationContext@2@@Z 000000018005cf80 f   NpArticulationJointReducedCoordinate.obj
 0001:0005c000       ?getArmature@NpArticulationJointReducedCoordinate@physx@@UEBAMW4Enum@PxArticulationAxis@2@@Z 000000018005d000 f   NpArticulationJointReducedCoordinate.obj
 0001:0005c010       ?getChildArticulationLink@NpArticulationJointReducedCoordinate@physx@@UEBAAEAVPxArticulationLink@2@XZ 000000018005d010 f i NpArticulationJointReducedCoordinate.obj
 0001:0005c020       ?getChildPose@NpArticulationJointReducedCoordinate@physx@@UEBA?AV?$PxTransformT@M@2@XZ 000000018005d020 f   NpArticulationJointReducedCoordinate.obj
 0001:0005c2d0       ?getConcreteTypeName@PxArticulationJointReducedCoordinate@physx@@UEBAPEBDXZ 000000018005d2d0 f i NpArticulationJointReducedCoordinate.obj
 0001:0005c2e0       ?getDriveParams@NpArticulationJointReducedCoordinate@physx@@UEBA?AUPxArticulationDrive@2@W4Enum@PxArticulationAxis@2@@Z 000000018005d2e0 f   NpArticulationJointReducedCoordinate.obj
 0001:0005c300       ?getDriveTarget@NpArticulationJointReducedCoordinate@physx@@UEBAMW4Enum@PxArticulationAxis@2@@Z 000000018005d300 f   NpArticulationJointReducedCoordinate.obj
 0001:0005c310       ?getDriveVelocity@NpArticulationJointReducedCoordinate@physx@@UEBAMW4Enum@PxArticulationAxis@2@@Z 000000018005d310 f   NpArticulationJointReducedCoordinate.obj
 0001:0005c320       ?getFrictionCoefficient@NpArticulationJointReducedCoordinate@physx@@UEBAMXZ 000000018005d320 f   NpArticulationJointReducedCoordinate.obj
 0001:0005c330       ?getJointPosition@NpArticulationJointReducedCoordinate@physx@@UEBAMW4Enum@PxArticulationAxis@2@@Z 000000018005d330 f   NpArticulationJointReducedCoordinate.obj
 0001:0005c3a0       ?getJointType@NpArticulationJointReducedCoordinate@physx@@UEBA?AW4Enum@PxArticulationJointType@2@XZ 000000018005d3a0 f   NpArticulationJointReducedCoordinate.obj
 0001:0005c3b0       ?getJointVelocity@NpArticulationJointReducedCoordinate@physx@@UEBAMW4Enum@PxArticulationAxis@2@@Z 000000018005d3b0 f   NpArticulationJointReducedCoordinate.obj
 0001:0005c420       ?getLimitParams@NpArticulationJointReducedCoordinate@physx@@UEBA?AUPxArticulationLimit@2@W4Enum@PxArticulationAxis@2@@Z 000000018005d420 f   NpArticulationJointReducedCoordinate.obj
 0001:0005c440       ?getMaxJointVelocity@NpArticulationJointReducedCoordinate@physx@@UEBAMXZ 000000018005d440 f   NpArticulationJointReducedCoordinate.obj
 0001:0005c450       ?getMotion@NpArticulationJointReducedCoordinate@physx@@UEBA?AW4Enum@PxArticulationMotion@2@W43PxArticulationAxis@2@@Z 000000018005d450 f   NpArticulationJointReducedCoordinate.obj
 0001:0005c460       ?getParentPose@NpArticulationJointReducedCoordinate@physx@@UEBA?AV?$PxTransformT@M@2@XZ 000000018005d460 f   NpArticulationJointReducedCoordinate.obj
 0001:0005c710       ?isKindOf@PxArticulationJointReducedCoordinate@physx@@MEBA_NPEBD@Z 000000018005d710 f i NpArticulationJointReducedCoordinate.obj
 0001:0005c760       ?release@NpArticulationJointReducedCoordinate@physx@@UEAAXXZ 000000018005d760 f   NpArticulationJointReducedCoordinate.obj
 0001:0005c7b0       ?resolveReferences@NpArticulationJointReducedCoordinate@physx@@UEAAXAEAVPxDeserializationContext@2@@Z 000000018005d7b0 f   NpArticulationJointReducedCoordinate.obj
 0001:0005c830       ?setArmature@NpArticulationJointReducedCoordinate@physx@@UEAAXW4Enum@PxArticulationAxis@2@M@Z 000000018005d830 f   NpArticulationJointReducedCoordinate.obj
 0001:0005c890       ?setChildPose@NpArticulationJointReducedCoordinate@physx@@UEAAXAEBV?$PxTransformT@M@2@@Z 000000018005d890 f   NpArticulationJointReducedCoordinate.obj
 0001:0005cc40       ?setDriveParams@NpArticulationJointReducedCoordinate@physx@@UEAAXW4Enum@PxArticulationAxis@2@AEBUPxArticulationDrive@2@@Z 000000018005dc40 f   NpArticulationJointReducedCoordinate.obj
 0001:0005cca0       ?setDriveTarget@NpArticulationJointReducedCoordinate@physx@@UEAAXW4Enum@PxArticulationAxis@2@M_N@Z 000000018005dca0 f   NpArticulationJointReducedCoordinate.obj
 0001:0005cd50       ?setDriveVelocity@NpArticulationJointReducedCoordinate@physx@@UEAAXW4Enum@PxArticulationAxis@2@M_N@Z 000000018005dd50 f   NpArticulationJointReducedCoordinate.obj
 0001:0005ce00       ?setFrictionCoefficient@NpArticulationJointReducedCoordinate@physx@@UEAAXM@Z 000000018005de00 f   NpArticulationJointReducedCoordinate.obj
 0001:0005ce60       ?setJointPosition@NpArticulationJointReducedCoordinate@physx@@UEAAXW4Enum@PxArticulationAxis@2@M@Z 000000018005de60 f   NpArticulationJointReducedCoordinate.obj
 0001:0005cec0       ?setJointType@NpArticulationJointReducedCoordinate@physx@@UEAAXW4Enum@PxArticulationJointType@2@@Z 000000018005dec0 f   NpArticulationJointReducedCoordinate.obj
 0001:0005cf10       ?setJointVelocity@NpArticulationJointReducedCoordinate@physx@@UEAAXW4Enum@PxArticulationAxis@2@M@Z 000000018005df10 f   NpArticulationJointReducedCoordinate.obj
 0001:0005cf70       ?setLimitParams@NpArticulationJointReducedCoordinate@physx@@UEAAXW4Enum@PxArticulationAxis@2@AEBUPxArticulationLimit@2@@Z 000000018005df70 f   NpArticulationJointReducedCoordinate.obj
 0001:0005cfd0       ?setMaxJointVelocity@NpArticulationJointReducedCoordinate@physx@@UEAAXM@Z 000000018005dfd0 f   NpArticulationJointReducedCoordinate.obj
 0001:0005d030       ?setMotion@NpArticulationJointReducedCoordinate@physx@@UEAAXW4Enum@PxArticulationAxis@2@W43PxArticulationMotion@2@@Z 000000018005e030 f   NpArticulationJointReducedCoordinate.obj
 0001:0005d0a0       ?setParentPose@NpArticulationJointReducedCoordinate@physx@@UEAAXAEBV?$PxTransformT@M@2@@Z 000000018005e0a0 f   NpArticulationJointReducedCoordinate.obj
 0001:0005d460       ??0NpArticulationLink@physx@@QEAA@AEBV?$PxTransformT@M@1@AEAVPxArticulationReducedCoordinate@1@PEAV01@@Z 000000018005e460 f   NpArticulationLink.obj
 0001:0005d590       ??_E?$NpActorTemplate@VPxArticulationLink@physx@@@physx@@UEAAPEAXI@Z 000000018005e590 f i NpArticulationLink.obj
 0001:0005d590       ??_G?$NpActorTemplate@VPxArticulationLink@physx@@@physx@@UEAAPEAXI@Z 000000018005e590 f i NpArticulationLink.obj
 0001:0005d610       ??_E?$NpRigidActorTemplate@VPxArticulationLink@physx@@@physx@@UEAAPEAXI@Z 000000018005e610 f i NpArticulationLink.obj
 0001:0005d610       ??_G?$NpRigidActorTemplate@VPxArticulationLink@physx@@@physx@@UEAAPEAXI@Z 000000018005e610 f i NpArticulationLink.obj
 0001:0005d6a0       ??_E?$NpRigidBodyTemplate@VPxArticulationLink@physx@@@physx@@UEAAPEAXI@Z 000000018005e6a0 f i NpArticulationLink.obj
 0001:0005d6a0       ??_G?$NpRigidBodyTemplate@VPxArticulationLink@physx@@@physx@@UEAAPEAXI@Z 000000018005e6a0 f i NpArticulationLink.obj
 0001:0005d740       ??_ENpArticulationLink@physx@@UEAAPEAXI@Z 000000018005e740 f i NpArticulationLink.obj
 0001:0005d740       ??_GNpArticulationLink@physx@@UEAAPEAXI@Z 000000018005e740 f i NpArticulationLink.obj
 0001:0005d830       ?addForce@NpArticulationLink@physx@@UEAAXAEBV?$PxVec3T@M@2@W4Enum@PxForceMode@2@_N@Z 000000018005e830 f   NpArticulationLink.obj
 0001:0005d8f0       ?addSpatialForce@?$NpRigidBodyTemplate@VPxArticulationLink@physx@@@physx@@IEAAXPEBV?$PxVec3T@M@2@0W4Enum@PxForceMode@2@@Z 000000018005e8f0 f i NpArticulationLink.obj
 0001:0005db20       ?addTorque@NpArticulationLink@physx@@UEAAXAEBV?$PxVec3T@M@2@W4Enum@PxForceMode@2@_N@Z 000000018005eb20 f   NpArticulationLink.obj
 0001:0005dbe0       ?attachShape@?$NpRigidBodyTemplate@VPxArticulationLink@physx@@@physx@@UEAA_NAEAVPxShape@2@@Z 000000018005ebe0 f i NpArticulationLink.obj
 0001:0005dbf0       ?attachShape@NpArticulationLink@physx@@UEAA_NAEAVPxShape@2@@Z 000000018005ebf0 f   NpArticulationLink.obj
 0001:0005dc10       ?clearForce@NpArticulationLink@physx@@UEAAXW4Enum@PxForceMode@2@@Z 000000018005ec10 f   NpArticulationLink.obj
 0001:0005dca0       ?clearTorque@NpArticulationLink@physx@@UEAAXW4Enum@PxForceMode@2@@Z 000000018005eca0 f   NpArticulationLink.obj
 0001:0005dd30       ?createObject@NpArticulationLink@physx@@SAPEAV12@AEAPEAEAEAVPxDeserializationContext@2@@Z 000000018005ed30 f   NpArticulationLink.obj
 0001:0005de30       ?detachShape@NpArticulationLink@physx@@UEAAXAEAVPxShape@2@_N@Z 000000018005ee30 f   NpArticulationLink.obj
 0001:0005df10       ?exportExtraData@NpArticulationLink@physx@@UEAAXAEAVPxSerializationContext@2@@Z 000000018005ef10 f   NpArticulationLink.obj
 0001:0005df80       ?getChildren@NpArticulationLink@physx@@UEBAIPEAPEAVPxArticulationLink@2@II@Z 000000018005ef80 f   NpArticulationLink.obj
 0001:0005dfe0       ?getConcreteTypeName@PxArticulationLink@physx@@UEBAPEBDXZ 000000018005efe0 f i NpArticulationLink.obj
 0001:0005dff0       ?getGlobalPose@NpArticulationLink@physx@@UEBA?AV?$PxTransformT@M@2@XZ 000000018005eff0 f   NpArticulationLink.obj
 0001:0005e460       ?getInboundJointDof@NpArticulationLink@physx@@UEBAIXZ 000000018005f460 f   NpArticulationLink.obj
 0001:0005e480       ?getLinkIndex@NpArticulationLink@physx@@UEBAIXZ 000000018005f480 f   NpArticulationLink.obj
 0001:0005e4a0       ?getType@NpArticulationLink@physx@@UEBA?AW4Enum@PxActorType@2@XZ 000000018005f4a0 f i NpArticulationLink.obj
 0001:0005e4b0       ?importExtraData@NpArticulationLink@physx@@UEAAXAEAVPxDeserializationContext@2@@Z 000000018005f4b0 f   NpArticulationLink.obj
 0001:0005e530       ?isKindOf@PxArticulationLink@physx@@MEBA_NPEBD@Z 000000018005f530 f i NpArticulationLink.obj
 0001:0005e580       ?release@NpArticulationLink@physx@@UEAAXXZ 000000018005f580 f   NpArticulationLink.obj
 0001:0005e730       ?releaseInternal@NpArticulationLink@physx@@QEAAXXZ 000000018005f730 f   NpArticulationLink.obj
 0001:0005e880       ?requiresObjects@NpArticulationLink@physx@@UEAAXAEAVPxProcessPxBaseCallback@2@@Z 000000018005f880 f   NpArticulationLink.obj
 0001:0005e910       ?resolveReferences@NpArticulationLink@physx@@UEAAXAEAVPxDeserializationContext@2@@Z 000000018005f910 f   NpArticulationLink.obj
 0001:0005ea40       ?scGetGlobalInertiaTensorInverse@?$NpRigidBodyTemplate@VPxArticulationLink@physx@@@physx@@QEBA?AV?$PxMat33T@M@2@XZ 000000018005fa40 f i NpArticulationLink.obj
 0001:0005ecb0       ?setActorFlag@?$NpRigidActorTemplate@VPxArticulationLink@physx@@@physx@@UEAAXW4Enum@PxActorFlag@2@_N@Z 000000018005fcb0 f i NpArticulationLink.obj
 0001:0005ee40       ?setActorFlags@?$NpRigidActorTemplate@VPxArticulationLink@physx@@@physx@@UEAAXV?$PxFlags@W4Enum@PxActorFlag@physx@@E@2@@Z 000000018005fe40 f i NpArticulationLink.obj
 0001:0005efa0       ?setCMassLocalPose@NpArticulationLink@physx@@UEAAXAEBV?$PxTransformT@M@2@@Z 000000018005ffa0 f   NpArticulationLink.obj
 0001:0005f7f0       ?setCfmScale@NpArticulationLink@physx@@UEAAXM@Z 00000001800607f0 f   NpArticulationLink.obj
 0001:0005f850       ?setFixedBaseLink@NpArticulationLink@physx@@QEAAX_N@Z 0000000180060850 f   NpArticulationLink.obj
 0001:0005f860       ?setForceAndTorque@NpArticulationLink@physx@@UEAAXAEBV?$PxVec3T@M@2@0W4Enum@PxForceMode@2@@Z 0000000180060860 f   NpArticulationLink.obj
 0001:0005f900       ?setGlobalPoseInternal@NpArticulationLink@physx@@QEAAXAEBV?$PxTransformT@M@2@_N@Z 0000000180060900 f   NpArticulationLink.obj
 0001:0005fcd0       ?setSpatialForce@?$NpRigidBodyTemplate@VPxArticulationLink@physx@@@physx@@IEAAXPEBV?$PxVec3T@M@2@0W4Enum@PxForceMode@2@@Z 0000000180060cd0 f i NpArticulationLink.obj
 0001:0005ff00       ??0NpArticulationAttachment@physx@@QEAA@PEAVPxArticulationAttachment@1@MV?$PxVec3T@M@1@PEAVPxArticulationLink@1@@Z 0000000180060f00 f   NpArticulationTendon.obj
 0001:00060170       ??0NpArticulationFixedTendon@physx@@QEAA@PEAVNpArticulationReducedCoordinate@1@@Z 0000000180061170 f   NpArticulationTendon.obj
 0001:00060200       ??0NpArticulationSpatialTendon@physx@@QEAA@PEAVNpArticulationReducedCoordinate@1@@Z 0000000180061200 f   NpArticulationTendon.obj
 0001:00060270       ??_ENpArticulationAttachment@physx@@UEAAPEAXI@Z 0000000180061270 f i NpArticulationTendon.obj
 0001:00060270       ??_GNpArticulationAttachment@physx@@UEAAPEAXI@Z 0000000180061270 f i NpArticulationTendon.obj
 0001:00060330       ??_ENpArticulationFixedTendon@physx@@UEAAPEAXI@Z 0000000180061330 f i NpArticulationTendon.obj
 0001:00060330       ??_GNpArticulationFixedTendon@physx@@UEAAPEAXI@Z 0000000180061330 f i NpArticulationTendon.obj
 0001:00060460       ??_ENpArticulationSpatialTendon@physx@@UEAAPEAXI@Z 0000000180061460 f i NpArticulationTendon.obj
 0001:00060460       ??_GNpArticulationSpatialTendon@physx@@UEAAPEAXI@Z 0000000180061460 f i NpArticulationTendon.obj
 0001:00060590       ??_ENpArticulationTendonJoint@physx@@UEAAPEAXI@Z 0000000180061590 f i NpArticulationTendon.obj
 0001:00060590       ??_GNpArticulationTendonJoint@physx@@UEAAPEAXI@Z 0000000180061590 f i NpArticulationTendon.obj
 0001:00060650       ?allocate@?$PxArray@PEAVNpArticulationAttachment@physx@@V?$PxInlineAllocator@$0CA@V?$PxReflectionAllocator@PEAVNpArticulationAttachment@physx@@@physx@@@2@@physx@@IEAAPEAPEAVNpArticulationAttachment@2@I@Z 0000000180061650 f i NpArticulationTendon.obj
 0001:00060700       ?allocate@?$PxArray@PEAVNpArticulationTendonJoint@physx@@V?$PxInlineAllocator@$0CA@V?$PxReflectionAllocator@PEAVNpArticulationTendonJoint@physx@@@physx@@@2@@physx@@IEAAPEAPEAVNpArticulationTendonJoint@2@I@Z 0000000180061700 f i NpArticulationTendon.obj
 0001:000607b0       ?createAttachment@NpArticulationSpatialTendon@physx@@UEAAPEAVPxArticulationAttachment@2@PEAV32@MV?$PxVec3T@M@2@PEAVPxArticulationLink@2@@Z 00000001800617b0 f   NpArticulationTendon.obj
 0001:00060920       ?createObject@NpArticulationAttachment@physx@@SAPEAV12@AEAPEAEAEAVPxDeserializationContext@2@@Z 0000000180061920 f   NpArticulationTendon.obj
 0001:00060a90       ?createObject@NpArticulationFixedTendon@physx@@SAPEAV12@AEAPEAEAEAVPxDeserializationContext@2@@Z 0000000180061a90 f   NpArticulationTendon.obj
 0001:00060bb0       ?createObject@NpArticulationSpatialTendon@physx@@SAPEAV12@AEAPEAEAEAVPxDeserializationContext@2@@Z 0000000180061bb0 f   NpArticulationTendon.obj
 0001:00060cd0       ?createObject@NpArticulationTendonJoint@physx@@SAPEAV12@AEAPEAEAEAVPxDeserializationContext@2@@Z 0000000180061cd0 f   NpArticulationTendon.obj
 0001:00060e40       ?createTendonJoint@NpArticulationFixedTendon@physx@@UEAAPEAVPxArticulationTendonJoint@2@PEAV32@W4Enum@PxArticulationAxis@2@MMPEAVPxArticulationLink@2@@Z 0000000180061e40 f   NpArticulationTendon.obj
 0001:00061010       ?exportExtraData@NpArticulationAttachment@physx@@UEAAXAEAVPxSerializationContext@2@@Z 0000000180062010 f   NpArticulationTendon.obj
 0001:00061050       ?exportExtraData@NpArticulationFixedTendon@physx@@UEAAXAEAVPxSerializationContext@2@@Z 0000000180062050 f   NpArticulationTendon.obj
 0001:00061050       ?exportExtraData@NpArticulationSpatialTendon@physx@@UEAAXAEAVPxSerializationContext@2@@Z 0000000180062050 f   NpArticulationTendon.obj
 0001:00061090       ?exportExtraData@NpArticulationTendonJoint@physx@@UEAAXAEAVPxSerializationContext@2@@Z 0000000180062090 f   NpArticulationTendon.obj
 0001:000610d0       ?getAttachment@NpArticulationSpatialTendon@physx@@QEAAPEAVNpArticulationAttachment@2@I@Z 00000001800620d0 f   NpArticulationTendon.obj
 0001:000610d0       ?getTendonJoint@NpArticulationFixedTendon@physx@@QEAAPEAVNpArticulationTendonJoint@2@I@Z 00000001800620d0 f   NpArticulationTendon.obj
 0001:000610e0       ?getAttachments@NpArticulationSpatialTendon@physx@@UEBAIPEAPEAVPxArticulationAttachment@2@II@Z 00000001800620e0 f   NpArticulationTendon.obj
 0001:000610e0       ?getTendonJoints@NpArticulationFixedTendon@physx@@UEBAIPEAPEAVPxArticulationTendonJoint@2@II@Z 00000001800620e0 f   NpArticulationTendon.obj
 0001:00061130       ?getCoefficient@NpArticulationAttachment@physx@@UEBAMXZ 0000000180062130 f   NpArticulationTendon.obj
 0001:00061140       ?getCoefficient@NpArticulationTendonJoint@physx@@UEBAXAEAW4Enum@PxArticulationAxis@2@AEAM1@Z 0000000180062140 f   NpArticulationTendon.obj
 0001:00061160       ?getConcreteTypeName@PxArticulationAttachment@physx@@UEBAPEBDXZ 0000000180062160 f i NpArticulationTendon.obj
 0001:00061170       ?getConcreteTypeName@PxArticulationFixedTendon@physx@@UEBAPEBDXZ 0000000180062170 f i NpArticulationTendon.obj
 0001:00061180       ?getConcreteTypeName@PxArticulationSpatialTendon@physx@@UEBAPEBDXZ 0000000180062180 f i NpArticulationTendon.obj
 0001:00061190       ?getConcreteTypeName@PxArticulationTendonJoint@physx@@UEBAPEBDXZ 0000000180062190 f i NpArticulationTendon.obj
 0001:000611a0       ?getDamping@NpArticulationFixedTendon@physx@@UEBAMXZ 00000001800621a0 f   NpArticulationTendon.obj
 0001:000611a0       ?getDamping@NpArticulationSpatialTendon@physx@@UEBAMXZ 00000001800621a0 f   NpArticulationTendon.obj
 0001:000611b0       ?getLimitParameters@NpArticulationAttachment@physx@@UEBA?AVPxArticulationTendonLimit@2@XZ 00000001800621b0 f   NpArticulationTendon.obj
 0001:000611d0       ?getLimitParameters@NpArticulationFixedTendon@physx@@UEBA?AVPxArticulationTendonLimit@2@XZ 00000001800621d0 f   NpArticulationTendon.obj
 0001:000611f0       ?getLimitStiffness@NpArticulationFixedTendon@physx@@UEBAMXZ 00000001800621f0 f   NpArticulationTendon.obj
 0001:000611f0       ?getLimitStiffness@NpArticulationSpatialTendon@physx@@UEBAMXZ 00000001800621f0 f   NpArticulationTendon.obj
 0001:00061200       ?getOffset@NpArticulationFixedTendon@physx@@UEBAMXZ 0000000180062200 f   NpArticulationTendon.obj
 0001:00061200       ?getOffset@NpArticulationSpatialTendon@physx@@UEBAMXZ 0000000180062200 f   NpArticulationTendon.obj
 0001:00061210       ?getRelativeOffset@NpArticulationAttachment@physx@@UEBA?AV?$PxVec3T@M@2@XZ 0000000180062210 f   NpArticulationTendon.obj
 0001:00061230       ?getRestLength@NpArticulationAttachment@physx@@UEBAMXZ 0000000180062230 f   NpArticulationTendon.obj
 0001:00061240       ?getRestLength@NpArticulationFixedTendon@physx@@UEBAMXZ 0000000180062240 f   NpArticulationTendon.obj
 0001:00061250       ?getStiffness@NpArticulationFixedTendon@physx@@UEBAMXZ 0000000180062250 f   NpArticulationTendon.obj
 0001:00061250       ?getStiffness@NpArticulationSpatialTendon@physx@@UEBAMXZ 0000000180062250 f   NpArticulationTendon.obj
 0001:00061260       ?getTendon@NpArticulationTendonJoint@physx@@UEBAPEAVPxArticulationFixedTendon@2@XZ 0000000180062260 f   NpArticulationTendon.obj
 0001:00061270       ?growAndPushBack@?$PxArray@PEAVNpArticulationAttachment@physx@@V?$PxInlineAllocator@$0CA@V?$PxReflectionAllocator@PEAVNpArticulationAttachment@physx@@@physx@@@2@@physx@@IEAAAEAPEAVNpArticulationAttachment@2@AEBQEAV32@@Z 0000000180062270 f i NpArticulationTendon.obj
 0001:00061340       ?growAndPushBack@?$PxArray@PEAVNpArticulationTendonJoint@physx@@V?$PxInlineAllocator@$0CA@V?$PxReflectionAllocator@PEAVNpArticulationTendonJoint@physx@@@physx@@@2@@physx@@IEAAAEAPEAVNpArticulationTendonJoint@2@AEBQEAV32@@Z 0000000180062340 f i NpArticulationTendon.obj
 0001:00061410       ?isLeaf@NpArticulationAttachment@physx@@UEBA_NXZ 0000000180062410 f i NpArticulationTendon.obj
 0001:00061420       ?release@NpArticulationAttachment@physx@@UEAAXXZ 0000000180062420 f   NpArticulationTendon.obj
 0001:00061510       ?release@NpArticulationFixedTendon@physx@@UEAAXXZ 0000000180062510 f   NpArticulationTendon.obj
 0001:000615c0       ?release@NpArticulationSpatialTendon@physx@@UEAAXXZ 00000001800625c0 f   NpArticulationTendon.obj
 0001:00061670       ?release@NpArticulationTendonJoint@physx@@UEAAXXZ 0000000180062670 f   NpArticulationTendon.obj
 0001:00061760       ?requiresObjects@NpArticulationAttachment@physx@@UEAAXAEAVPxProcessPxBaseCallback@2@@Z 0000000180062760 f   NpArticulationTendon.obj
 0001:000617c0       ?requiresObjects@NpArticulationFixedTendon@physx@@UEAAXAEAVPxProcessPxBaseCallback@2@@Z 00000001800627c0 f   NpArticulationTendon.obj
 0001:000617c0       ?requiresObjects@NpArticulationSpatialTendon@physx@@UEAAXAEAVPxProcessPxBaseCallback@2@@Z 00000001800627c0 f   NpArticulationTendon.obj
 0001:00061820       ?requiresObjects@NpArticulationTendonJoint@physx@@UEAAXAEAVPxProcessPxBaseCallback@2@@Z 0000000180062820 f   NpArticulationTendon.obj
 0001:00061880       ?setCoefficient@NpArticulationAttachment@physx@@UEAAXM@Z 0000000180062880 f   NpArticulationTendon.obj
 0001:000618b0       ?setCoefficient@NpArticulationTendonJoint@physx@@UEAAXW4Enum@PxArticulationAxis@2@MM@Z 00000001800628b0 f   NpArticulationTendon.obj
 0001:000618f0       ?setDamping@NpArticulationFixedTendon@physx@@UEAAXM@Z 00000001800628f0 f   NpArticulationTendon.obj
 0001:00061900       ?setDamping@NpArticulationSpatialTendon@physx@@UEAAXM@Z 0000000180062900 f   NpArticulationTendon.obj
 0001:00061910       ?setLimitParameters@NpArticulationAttachment@physx@@UEAAXAEBVPxArticulationTendonLimit@2@@Z 0000000180062910 f   NpArticulationTendon.obj
 0001:00061950       ?setLimitParameters@NpArticulationFixedTendon@physx@@UEAAXAEBVPxArticulationTendonLimit@2@@Z 0000000180062950 f   NpArticulationTendon.obj
 0001:00061970       ?setLimitStiffness@NpArticulationFixedTendon@physx@@UEAAXM@Z 0000000180062970 f   NpArticulationTendon.obj
 0001:00061980       ?setLimitStiffness@NpArticulationSpatialTendon@physx@@UEAAXM@Z 0000000180062980 f   NpArticulationTendon.obj
 0001:00061990       ?setOffset@NpArticulationFixedTendon@physx@@UEAAXM_N@Z 0000000180062990 f   NpArticulationTendon.obj
 0001:000619d0       ?setOffset@NpArticulationSpatialTendon@physx@@UEAAXM_N@Z 00000001800629d0 f   NpArticulationTendon.obj
 0001:00061a10       ?setRelativeOffset@NpArticulationAttachment@physx@@UEAAXAEBV?$PxVec3T@M@2@@Z 0000000180062a10 f   NpArticulationTendon.obj
 0001:00061a50       ?setRestLength@NpArticulationAttachment@physx@@UEAAXM@Z 0000000180062a50 f   NpArticulationTendon.obj
 0001:00061a80       ?setRestLength@NpArticulationFixedTendon@physx@@UEAAXM@Z 0000000180062a80 f   NpArticulationTendon.obj
 0001:00061a90       ?setStiffness@NpArticulationFixedTendon@physx@@UEAAXM@Z 0000000180062a90 f   NpArticulationTendon.obj
 0001:00061aa0       ?setStiffness@NpArticulationSpatialTendon@physx@@UEAAXM@Z 0000000180062aa0 f   NpArticulationTendon.obj
 0001:00061b00       ??0NpArticulationSensor@physx@@QEAA@PEAVPxArticulationLink@1@AEBV?$PxTransformT@M@1@@Z 0000000180062b00 f   NpArticulationSensor.obj
 0001:00061b70       ??_ENpArticulationSensor@physx@@UEAAPEAXI@Z 0000000180062b70 f i NpArticulationSensor.obj
 0001:00061b70       ??_GNpArticulationSensor@physx@@UEAAPEAXI@Z 0000000180062b70 f i NpArticulationSensor.obj
 0001:00061bc0       ?createObject@NpArticulationSensor@physx@@SAPEAV12@AEAPEAEAEAVPxDeserializationContext@2@@Z 0000000180062bc0 f   NpArticulationSensor.obj
 0001:00061c20       ?getArticulation@NpArticulationSensor@physx@@UEBAPEAVPxArticulationReducedCoordinate@2@XZ 0000000180062c20 f   NpArticulationSensor.obj
 0001:00061c30       ?getConcreteTypeName@PxArticulationSensor@physx@@UEBAPEBDXZ 0000000180062c30 f i NpArticulationSensor.obj
 0001:00061c40       ?getFlags@NpArticulationSensor@physx@@UEBA?AV?$PxFlags@W4Enum@PxArticulationSensorFlag@physx@@E@2@XZ 0000000180062c40 f   NpArticulationSensor.obj
 0001:00061c50       ?getForces@NpArticulationSensor@physx@@UEBA?AUPxSpatialForce@2@XZ 0000000180062c50 f   NpArticulationSensor.obj
 0001:00061d30       ?getIndex@NpArticulationSensor@physx@@UEBAIXZ 0000000180062d30 f   NpArticulationSensor.obj
 0001:00061d50       ?getRelativePose@NpArticulationSensor@physx@@UEBA?AV?$PxTransformT@M@2@XZ 0000000180062d50 f   NpArticulationSensor.obj
 0001:00061d80       ?release@NpArticulationSensor@physx@@UEAAXXZ 0000000180062d80 f   NpArticulationSensor.obj
 0001:00061e30       ?setFlag@NpArticulationSensor@physx@@UEAAXW4Enum@PxArticulationSensorFlag@2@_N@Z 0000000180062e30 f   NpArticulationSensor.obj
 0001:00061e60       ?setRelativePose@NpArticulationSensor@physx@@UEAAXAEBV?$PxTransformT@M@2@@Z 0000000180062e60 f   NpArticulationSensor.obj
 0001:00061ea0       ??0PhysXIndicator@physx@@QEAA@_N@Z 0000000180062ea0 f   PhysXIndicatorWindows.obj
 0001:00062030       ??1PhysXIndicator@physx@@QEAA@XZ 0000000180063030 f   PhysXIndicatorWindows.obj
 0001:00062080       ?setIsGpu@PhysXIndicator@physx@@QEAAX_N@Z 0000000180063080 f   PhysXIndicatorWindows.obj
 0001:000620c0       __local_stdio_printf_options 00000001800630c0 f i PhysXIndicatorWindows.obj
 0001:000620d0       sprintf                    00000001800630d0 f i PhysXIndicatorWindows.obj
 0001:00062130       PxCreateCudaContextManager 0000000180063130 f   PxGpu.obj
 0001:00062190       PxCudaRegisterFatBinary    0000000180063190 f   PxGpu.obj
 0001:000621c0       PxCudaRegisterFunction     00000001800631c0 f   PxGpu.obj
 0001:00062200       PxGetCudaFunctionTable     0000000180063200 f   PxGpu.obj
 0001:00062230       PxGetCudaFunctionTableSize 0000000180063230 f   PxGpu.obj
 0001:00062260       PxGetCudaModuleTable       0000000180063260 f   PxGpu.obj
 0001:00062290       PxGetCudaModuleTableSize   0000000180063290 f   PxGpu.obj
 0001:000622c0       PxGetPhysicsGpu            00000001800632c0 f   PxGpu.obj
 0001:000622f0       PxGetSuggestedCudaDeviceOrdinal 00000001800632f0 f   PxGpu.obj
 0001:00062330       PxSetPhysXGpuProfilerCallback 0000000180063330 f   PxGpu.obj
 0001:00062360       ?PxLoadPhysxGPUModule@physx@@YAXPEBD@Z 0000000180063360 f   PxPhysXGpuModuleLoader.obj
 0001:00062550       ?PxUnloadPhysxGPUModule@physx@@YAXXZ 0000000180063550 f   PxPhysXGpuModuleLoader.obj
 0001:00062650       PxSetPhysXGpuLoadHook      0000000180063650 f   PxPhysXGpuModuleLoader.obj
 0001:00062670       fprintf                    0000000180063670 f i PxPhysXGpuModuleLoader.obj
 0001:000626c0       ?physxDelayHook@@YAP6A_JXZIPEAUDelayLoadInfo@@@Z 00000001800636c0 f   NpWindowsDelayLoadHook.obj
 0001:000627a0       PxSetPhysXDelayLoadHook    00000001800637a0 f   NpWindowsDelayLoadHook.obj
 0001:000627b0       ?PxvGetPhysXGpu@physx@@YAPEAVPxPhysXGpu@1@_N@Z 00000001800637b0 f   LowLevel_static_64:px_globals.obj
 0001:00062800       ?PxvInit@physx@@YAXAEBUPxvOffsetTable@1@@Z 0000000180063800 f   LowLevel_static_64:px_globals.obj
 0001:00062830       ?PxvReleasePhysXGpu@physx@@YAXPEAVPxPhysXGpu@1@@Z 0000000180063830 f   LowLevel_static_64:px_globals.obj
 0001:00062860       ?PxvTerm@physx@@YAXXZ      0000000180063860 f   LowLevel_static_64:px_globals.obj
 0001:00062890       ?getBinaryMetaData@?$MaterialCoreT@UPxsFEMClothMaterialData@physx@@VPxFEMClothMaterial@2@@physx@@SAXAEAVPxOutputStream@2@@Z 0000000180063890 f   LowLevel_static_64:px_globals.obj
 0001:00062a70       ?getBinaryMetaData@?$MaterialCoreT@UPxsFEMSoftBodyMaterialData@physx@@VPxFEMSoftBodyMaterial@2@@physx@@SAXAEAVPxOutputStream@2@@Z 0000000180063a70 f   LowLevel_static_64:px_globals.obj
 0001:00062d70       ?getBinaryMetaData@?$MaterialCoreT@UPxsFLIPMaterialData@physx@@VPxFLIPMaterial@2@@physx@@SAXAEAVPxOutputStream@2@@Z 0000000180063d70 f   LowLevel_static_64:px_globals.obj
 0001:00062ff0       ?getBinaryMetaData@?$MaterialCoreT@UPxsMPMMaterialData@physx@@VPxMPMMaterial@2@@physx@@SAXAEAVPxOutputStream@2@@Z 0000000180063ff0 f   LowLevel_static_64:px_globals.obj
 0001:00063440       ?getBinaryMetaData@?$MaterialCoreT@UPxsMaterialData@physx@@VPxMaterial@2@@physx@@SAXAEAVPxOutputStream@2@@Z 0000000180064440 f   LowLevel_static_64:px_globals.obj
 0001:00063740       ?getBinaryMetaData@?$MaterialCoreT@UPxsPBDMaterialData@physx@@VPxPBDMaterial@2@@physx@@SAXAEAVPxOutputStream@2@@Z 0000000180064740 f   LowLevel_static_64:px_globals.obj
 0001:00063b90       ??0PxcNpMemBlockPool@physx@@QEAA@AEAVPxcScratchAllocator@1@@Z 0000000180064b90 f   LowLevel_static_64:PxcNpMemBlockPool.obj
 0001:00063cd0       ??1PxcNpMemBlockPool@physx@@QEAA@XZ 0000000180064cd0 f   LowLevel_static_64:PxcNpMemBlockPool.obj
 0001:00064040       ?acquire@PxcNpMemBlockPool@physx@@AEAAPEAUPxcNpMemBlock@2@AEAV?$PxArray@PEAUPxcNpMemBlock@physx@@V?$PxReflectionAllocator@PEAUPxcNpMemBlock@physx@@@2@@2@PEAI1_N@Z 0000000180065040 f   LowLevel_static_64:PxcNpMemBlockPool.obj
 0001:00064200       ?acquireConstraintBlock@PxcNpMemBlockPool@physx@@QEAAPEAUPxcNpMemBlock@2@AEAV?$PxArray@PEAUPxcNpMemBlock@physx@@V?$PxReflectionAllocator@PEAUPxcNpMemBlock@physx@@@2@@2@@Z 0000000180065200 f   LowLevel_static_64:PxcNpMemBlockPool.obj
 0001:00064230       ?acquireConstraintMemory@PxcNpMemBlockPool@physx@@QEAAXXZ 0000000180065230 f   LowLevel_static_64:PxcNpMemBlockPool.obj
 0001:00064320       ?acquireContactBlock@PxcNpMemBlockPool@physx@@QEAAPEAUPxcNpMemBlock@2@XZ 0000000180065320 f   LowLevel_static_64:PxcNpMemBlockPool.obj
 0001:00064350       ?acquireExceptionalConstraintMemory@PxcNpMemBlockPool@physx@@QEAAPEAEI@Z 0000000180065350 f   LowLevel_static_64:PxcNpMemBlockPool.obj
 0001:00064420       ?acquireFrictionBlock@PxcNpMemBlockPool@physx@@QEAAPEAUPxcNpMemBlock@2@XZ 0000000180065420 f   LowLevel_static_64:PxcNpMemBlockPool.obj
 0001:00064450       ?acquireNpCacheBlock@PxcNpMemBlockPool@physx@@QEAAPEAUPxcNpMemBlock@2@XZ 0000000180065450 f   LowLevel_static_64:PxcNpMemBlockPool.obj
 0001:00064480       ?allocate@?$PxArray@PEAUPxcNpMemBlock@physx@@V?$PxReflectionAllocator@PEAUPxcNpMemBlock@physx@@@2@@physx@@IEAAPEAPEAUPxcNpMemBlock@2@I@Z 0000000180065480 f i LowLevel_static_64:PxcNpMemBlockPool.obj
 0001:00064510       ?getMaxUsedBlockCount@PxcNpMemBlockPool@physx@@QEBAIXZ 0000000180065510 f   LowLevel_static_64:PxcNpMemBlockPool.obj
 0001:00064520       ?getUsedBlockCount@PxcNpMemBlockPool@physx@@QEBAIXZ 0000000180065520 f   LowLevel_static_64:PxcNpMemBlockPool.obj
 0001:00064530       ?growAndPushBack@?$PxArray@PEAUPxcNpMemBlock@physx@@V?$PxReflectionAllocator@PEAUPxcNpMemBlock@physx@@@2@@physx@@IEAAAEAPEAUPxcNpMemBlock@2@AEBQEAU32@@Z 0000000180065530 f i LowLevel_static_64:PxcNpMemBlockPool.obj
 0001:000645f0       ?init@PxcNpMemBlockPool@physx@@QEAAXII@Z 00000001800655f0 f   LowLevel_static_64:PxcNpMemBlockPool.obj
 0001:00064770       ?recreate@?$PxArray@PEAUPxcNpMemBlock@physx@@V?$PxReflectionAllocator@PEAUPxcNpMemBlock@physx@@@2@@physx@@IEAAXI@Z 0000000180065770 f i LowLevel_static_64:PxcNpMemBlockPool.obj
 0001:00064810       ?release@PxcNpMemBlockPool@physx@@AEAAXAEAV?$PxArray@PEAUPxcNpMemBlock@physx@@V?$PxReflectionAllocator@PEAUPxcNpMemBlock@physx@@@2@@2@PEAI@Z 0000000180065810 f   LowLevel_static_64:PxcNpMemBlockPool.obj
 0001:000648c0       ?releaseConstraintBlocks@PxcNpMemBlockPool@physx@@QEAAXAEAV?$PxArray@PEAUPxcNpMemBlock@physx@@V?$PxReflectionAllocator@PEAUPxcNpMemBlock@physx@@@2@@2@@Z 00000001800658c0 f   LowLevel_static_64:PxcNpMemBlockPool.obj
 0001:000649b0       ?releaseConstraintMemory@PxcNpMemBlockPool@physx@@QEAAXXZ 00000001800659b0 f   LowLevel_static_64:PxcNpMemBlockPool.obj
 0001:00064bd0       ?releaseContacts@PxcNpMemBlockPool@physx@@QEAAXXZ 0000000180065bd0 f   LowLevel_static_64:PxcNpMemBlockPool.obj
 0001:00064c20       ?releaseUnusedBlocks@PxcNpMemBlockPool@physx@@QEAAXXZ 0000000180065c20 f   LowLevel_static_64:PxcNpMemBlockPool.obj
 0001:00064ca0       ?resize@?$PxArray@PEAUPxcNpMemBlock@physx@@V?$PxReflectionAllocator@PEAUPxcNpMemBlock@physx@@@2@@physx@@QEAAXIAEBQEAUPxcNpMemBlock@2@@Z 0000000180065ca0 f i LowLevel_static_64:PxcNpMemBlockPool.obj
 0001:00064d60       ?setBlockCount@PxcNpMemBlockPool@physx@@QEAAXI@Z 0000000180065d60 f   LowLevel_static_64:PxcNpMemBlockPool.obj
 0001:00064e20       ?swapFrictionStreams@PxcNpMemBlockPool@physx@@QEAAXXZ 0000000180065e20 f   LowLevel_static_64:PxcNpMemBlockPool.obj
 0001:00064e70       ?swapNpCacheStreams@PxcNpMemBlockPool@physx@@QEAAXXZ 0000000180065e70 f   LowLevel_static_64:PxcNpMemBlockPool.obj
 0001:00064ec0       ??$PxSort@PEAXU?$PxLess@PEAX@physx@@V?$PxReflectionAllocator@VLargePersistentContactManifold@Gu@physx@@@2@@physx@@YAXPEAPEAXIAEBU?$PxLess@PEAX@0@AEBV?$PxReflectionAllocator@VLargePersistentContactManifold@Gu@physx@@@0@I@Z 0000000180065ec0 f i LowLevel_static_64:PxsContext.obj
 0001:00065320       ??$PxSort@PEAXU?$PxLess@PEAX@physx@@V?$PxReflectionAllocator@VSpherePersistentContactManifold@Gu@physx@@@2@@physx@@YAXPEAPEAXIAEBU?$PxLess@PEAX@0@AEBV?$PxReflectionAllocator@VSpherePersistentContactManifold@Gu@physx@@@0@I@Z 0000000180066320 f i LowLevel_static_64:PxsContext.obj
 0001:00065780       ??$combine1@UOR@?$PxBitMapBase@VPxAllocator@physx@@@physx@@@?$PxBitMapBase@VPxAllocator@physx@@@physx@@IEAAXPEBII@Z 0000000180066780 f i LowLevel_static_64:PxsContext.obj
 0001:000658f0       ??0PxsContext@physx@@QEAA@AEBVPxSceneDesc@1@PEAVPxTaskManager@1@AEAVFlushPool@Cm@1@PEAVPxCudaContextManager@1@I_K@Z 00000001800668f0 f   LowLevel_static_64:PxsContext.obj
 0001:00065da0       ??1?$PxPoolBase@VLargePersistentContactManifold@Gu@physx@@V?$PxReflectionAllocator@VLargePersistentContactManifold@Gu@physx@@@3@@physx@@QEAA@XZ 0000000180066da0 f i LowLevel_static_64:PxsContext.obj
 0001:00065f00       ??1?$PxPoolBase@VSpherePersistentContactManifold@Gu@physx@@V?$PxReflectionAllocator@VSpherePersistentContactManifold@Gu@physx@@@3@@physx@@QEAA@XZ 0000000180066f00 f i LowLevel_static_64:PxsContext.obj
 0001:00066060       ??1?$PxcThreadCoherentCache@VPxcNpThreadContext@physx@@UPxcNpContext@2@@physx@@QEAA@XZ 0000000180067060 f i LowLevel_static_64:PxsContext.obj
 0001:000660f0       ??1PxsContext@physx@@QEAA@XZ 00000001800670f0 f   LowLevel_static_64:PxsContext.obj
 0001:000662b0       ?allocate@?$PxArray@PEAXV?$PxReflectionAllocator@VLargePersistentContactManifold@Gu@physx@@@physx@@@physx@@IEAAPEAPEAXI@Z 00000001800672b0 f i LowLevel_static_64:PxsContext.obj
 0001:00066340       ?allocate@?$PxArray@PEAXV?$PxReflectionAllocator@VSpherePersistentContactManifold@Gu@physx@@@physx@@@physx@@IEAAPEAPEAXI@Z 0000000180067340 f i LowLevel_static_64:PxsContext.obj
 0001:000663d0       ?beginUpdate@PxsContext@physx@@QEAAXXZ 00000001800673d0 f   LowLevel_static_64:PxsContext.obj
 0001:000663f0       ?createCache@PxsContext@physx@@QEAAXAEAUCache@Gu@2@W4Enum@PxGeometryType@2@1@Z 00000001800673f0 f   LowLevel_static_64:PxsContext.obj
 0001:00066700       ?createContactManager@PxsContext@physx@@QEAAPEAVPxsContactManager@2@PEAV32@_N@Z 0000000180067700 f   LowLevel_static_64:PxsContext.obj
 0001:00066820       ?createTransformCache@PxsContext@physx@@QEAAXAEAVPxVirtualAllocatorCallback@2@@Z 0000000180067820 f   LowLevel_static_64:PxsContext.obj
 0001:000668e0       ?destroy@?$PoolList@VPxsContactManager@physx@@VPxsContext@2@@Cm@physx@@QEAAXXZ 00000001800678e0 f i LowLevel_static_64:PxsContext.obj
 0001:000669f0       ?destroyCache@PxsContext@physx@@QEAAXAEAUCache@Gu@2@@Z 00000001800679f0 f   LowLevel_static_64:PxsContext.obj
 0001:00066a50       ?destroyContactManager@PxsContext@physx@@QEAAXPEAVPxsContactManager@2@@Z 0000000180067a50 f   LowLevel_static_64:PxsContext.obj
 0001:00066b50       ?extend@?$PoolList@VPxsContactManager@physx@@VPxsContext@2@@Cm@physx@@QEAA_NXZ 0000000180067b50 f i LowLevel_static_64:PxsContext.obj
 0001:00066d90       ?fetchUpdateContactManager@PxsContext@physx@@QEAAXXZ 0000000180067d90 f   LowLevel_static_64:PxsContext.obj
 0001:00066f30       ?fillManagerTouchEvents@PxsContext@physx@@QEAA_NPEAUPxvContactManagerTouchEvent@2@AEAH0101@Z 0000000180067f30 f   LowLevel_static_64:PxsContext.obj
 0001:00067090       ?getManagerTouchEventCount@PxsContext@physx@@QEBA_NPEAH00@Z 0000000180068090 f   LowLevel_static_64:PxsContext.obj
 0001:000670c0       ?growAndPushBack@?$PxArray@PEAXV?$PxReflectionAllocator@VLargePersistentContactManifold@Gu@physx@@@physx@@@physx@@IEAAAEAPEAXAEBQEAX@Z 00000001800680c0 f i LowLevel_static_64:PxsContext.obj
 0001:00067180       ?growAndPushBack@?$PxArray@PEAXV?$PxReflectionAllocator@VSpherePersistentContactManifold@Gu@physx@@@physx@@@physx@@IEAAAEAPEAXAEBQEAX@Z 0000000180068180 f i LowLevel_static_64:PxsContext.obj
 0001:00067240       ?recreate@?$PxArray@PEAXV?$PxReflectionAllocator@VLargePersistentContactManifold@Gu@physx@@@physx@@@physx@@IEAAXI@Z 0000000180068240 f i LowLevel_static_64:PxsContext.obj
 0001:000672e0       ?recreate@?$PxArray@PEAXV?$PxReflectionAllocator@VSpherePersistentContactManifold@Gu@physx@@@physx@@@physx@@IEAAXI@Z 00000001800682e0 f i LowLevel_static_64:PxsContext.obj
 0001:00067380       ?resetThreadContexts@PxsContext@physx@@QEAAXXZ 0000000180068380 f   LowLevel_static_64:PxsContext.obj
 0001:00067400       ?secondPassUpdateContactManager@PxsContext@physx@@QEAAXMPEAVPxBaseTask@2@@Z 0000000180068400 f   LowLevel_static_64:PxsContext.obj
 0001:00067410       ?setScratchBlock@PxsContext@physx@@QEAAXPEAXI@Z 0000000180068410 f   LowLevel_static_64:PxsContext.obj
 0001:00067470       ?shiftOrigin@PxsContext@physx@@QEAAXAEBV?$PxVec3T@M@2@@Z 0000000180068470 f   LowLevel_static_64:PxsContext.obj
 0001:00067590       ?swapStreams@PxsContext@physx@@QEAAXXZ 0000000180068590 f   LowLevel_static_64:PxsContext.obj
 0001:000675a0       ?updateContactManager@PxsContext@physx@@QEAAXM_N0PEAVPxBaseTask@2@1PEAVFanoutTask@Cm@2@@Z 00000001800685a0 f   LowLevel_static_64:PxsContext.obj
 0001:00067880       ??0PxcNpThreadContext@physx@@QEAA@PEAUPxcNpContext@1@@Z 0000000180068880 f   LowLevel_static_64:PxcNpThreadContext.obj
 0001:00067a10       ??1PxcNpThreadContext@physx@@QEAA@XZ 0000000180068a10 f   LowLevel_static_64:PxcNpThreadContext.obj
 0001:00067a90       ?clearStats@PxcNpThreadContext@physx@@QEAAXXZ 0000000180068a90 f   LowLevel_static_64:PxcNpThreadContext.obj
 0001:00067ae0       ?reset@PxcNpThreadContext@physx@@QEAAXI@Z 0000000180068ae0 f   LowLevel_static_64:PxcNpThreadContext.obj
 0001:00067c30       ??0PxsContactManager@physx@@QEAA@PEAVPxsContext@1@I@Z 0000000180068c30 f   LowLevel_static_64:PxsContactManager.obj
 0001:00067c60       ?setCCD@PxsContactManager@physx@@QEAAX_N@Z 0000000180068c60 f   LowLevel_static_64:PxsContactManager.obj
 0001:00067c80       ??0PxcNpCacheStreamPair@physx@@QEAA@AEAVPxcNpMemBlockPool@1@@Z 0000000180068c80 f   LowLevel_static_64:PxcNpCacheStreamPair.obj
 0001:00067c90       ?reserve@PxcNpCacheStreamPair@physx@@QEAAPEAEI@Z 0000000180068c90 f   LowLevel_static_64:PxcNpCacheStreamPair.obj
 0001:00067d20       ?reset@PxcNpCacheStreamPair@physx@@QEAAXXZ 0000000180068d20 f   LowLevel_static_64:PxcNpCacheStreamPair.obj
 0001:00067d30       ??0BpFilter@Bp@physx@@QEAA@_N0@Z 0000000180068d30 f   LowLevelAABB_static_64:BpFiltering.obj
 0001:00067db0       ?create@BroadPhase@Bp@physx@@SAPEAV123@W4Enum@PxBroadPhaseType@3@IIII_K@Z 0000000180068db0 f   LowLevelAABB_static_64:BpBroadPhase.obj
 0001:00067fe0       ??$PxSort@IU?$PxLess@I@physx@@V?$PxReflectionAllocator@I@2@@physx@@YAXPEAIIAEBU?$PxLess@I@0@AEBV?$PxReflectionAllocator@I@0@I@Z 0000000180068fe0 f i LowLevelAABB_static_64:BpBroadPhaseSap.obj
 0001:00068430       ??0BroadPhaseSap@Bp@physx@@QEAA@III_K@Z 0000000180069430 f   LowLevelAABB_static_64:BpBroadPhaseSap.obj
 0001:00068b10       ??1BroadPhaseSap@Bp@physx@@UEAA@XZ 0000000180069b10 f   LowLevelAABB_static_64:BpBroadPhaseSap.obj
 0001:00068df0       ??_EBroadPhaseBatchUpdateWorkTask@Bp@physx@@UEAAPEAXI@Z 0000000180069df0 f i LowLevelAABB_static_64:BpBroadPhaseSap.obj
 0001:00068df0       ??_EUpdateArticTask@Dy@physx@@UEAAPEAXI@Z 0000000180069df0 f i LowLevelDynamics_static_64:DyTGSDynamics.obj
 0001:00068df0       ??_GBroadPhaseBatchUpdateWorkTask@Bp@physx@@UEAAPEAXI@Z 0000000180069df0 f i LowLevelAABB_static_64:BpBroadPhaseSap.obj
 0001:00068df0       ??_GUpdateArticTask@Dy@physx@@UEAAPEAXI@Z 0000000180069df0 f i LowLevelDynamics_static_64:DyTGSDynamics.obj
 0001:00068e30       ??_EBroadPhaseSap@Bp@physx@@UEAAPEAXI@Z 0000000180069e30 f i LowLevelAABB_static_64:BpBroadPhaseSap.obj
 0001:00068e30       ??_GBroadPhaseSap@Bp@physx@@UEAAPEAXI@Z 0000000180069e30 f i LowLevelAABB_static_64:BpBroadPhaseSap.obj
 0001:00068ea0       ?ComputeSortedLists@BroadPhaseSap@Bp@physx@@AEAAXPEIAIAEAI01AEA_N2@Z 0000000180069ea0 f   LowLevelAABB_static_64:BpBroadPhaseSap.obj
 0001:000691a0       ?addRegion@BroadPhaseBase@Bp@physx@@UEAAIAEBUPxBroadPhaseRegion@3@_NPEBVPxBounds3@3@PEBM@Z 000000018006a1a0 f i LowLevelAABB_static_64:BpBroadPhaseSap.obj
 0001:000691a0       ?getArticulationRemapIndex@PxsSimulationController@physx@@UEAAII@Z 000000018006a1a0 f i SimulationController_static_64:ScScene.obj
 0001:000691a0       ?getInternalShapeIndex@PxsSimulationController@physx@@UEAAIAEBUPxsShapeCore@2@@Z 000000018006a1a0 f i SimulationController_static_64:ScScene.obj
 0001:000691b0       ?alloc@PxcScratchAllocator@physx@@QEAAPEAXI_N@Z 000000018006a1b0 f i LowLevelAABB_static_64:BpBroadPhaseSap.obj
 0001:00069290       ?batchCreate@BroadPhaseSap@Bp@physx@@AEAAXXZ 000000018006a290 f   LowLevelAABB_static_64:BpBroadPhaseSap.obj
 0001:00069b10       ?batchRemove@BroadPhaseSap@Bp@physx@@AEAAXXZ 000000018006ab10 f   LowLevelAABB_static_64:BpBroadPhaseSap.obj
 0001:00069fc0       ?batchUpdate@BroadPhaseSap@Bp@physx@@AEAAXIAEAPEAUBroadPhasePair@23@AEAI1@Z 000000018006afc0 f   LowLevelAABB_static_64:BpBroadPhaseSap.obj
 0001:0006a890       ?batchUpdateFewUpdates@BroadPhaseSap@Bp@physx@@AEAAXIAEAPEAUBroadPhasePair@23@AEAI1@Z 000000018006b890 f   LowLevelAABB_static_64:BpBroadPhaseSap.obj
 0001:0006b4d0       ?free@PxcScratchAllocator@physx@@QEAAXPEAX@Z 000000018006c4d0 f i LowLevelAABB_static_64:BpBroadPhaseSap.obj
 0001:0006b590       ?freeBuffers@BroadPhaseSap@Bp@physx@@UEAAXXZ 000000018006c590 f   LowLevelAABB_static_64:BpBroadPhaseSap.obj
 0001:0006b6a0       ?getCaps@BroadPhaseBase@Bp@physx@@UEBAXAEAUPxBroadPhaseCaps@3@@Z 000000018006c6a0 f i LowLevelAABB_static_64:BpBroadPhaseSap.obj
 0001:0006b6b0       ?getCreatedPairs@BroadPhaseSap@Bp@physx@@UEBAPEBUBroadPhasePair@23@AEAI@Z 000000018006c6b0 f i LowLevelAABB_static_64:BpBroadPhaseSap.obj
 0001:0006b6c0       ?getDeletedPairs@BroadPhaseSap@Bp@physx@@UEBAPEBUBroadPhasePair@23@AEAI@Z 000000018006c6c0 f i LowLevelAABB_static_64:BpBroadPhaseSap.obj
 0001:0006b6d0       ?getName@BroadPhaseBatchUpdateWorkTask@Bp@physx@@UEBAPEBDXZ 000000018006c6d0 f i LowLevelAABB_static_64:BpBroadPhaseSap.obj
 0001:0006b6e0       ?postUpdate@BroadPhaseSap@Bp@physx@@AEAAXXZ 000000018006c6e0 f   LowLevelAABB_static_64:BpBroadPhaseSap.obj
 0001:0006b860       ?destroy@PxsNphaseImplementationContext@physx@@UEAAXXZ 000000018006c860 f   LowLevel_static_64:PxsNphaseImplementationContext.obj
 0001:0006b860       ?release@BroadPhaseSap@Bp@physx@@UEAAXXZ 000000018006c860 f   LowLevelAABB_static_64:BpBroadPhaseSap.obj
 0001:0006b890       ?runInternal@BroadPhaseBatchUpdateWorkTask@Bp@physx@@UEAAXXZ 000000018006c890 f   LowLevelAABB_static_64:BpBroadPhaseSap.obj
 0001:0006b8c0       ?setUpdateData@BroadPhaseSap@Bp@physx@@AEAA_NAEBVBroadPhaseUpdateData@23@@Z 000000018006c8c0 f   LowLevelAABB_static_64:BpBroadPhaseSap.obj
 0001:0006c2b0       ?shiftOrigin@BroadPhaseSap@Bp@physx@@UEAAXAEBV?$PxVec3T@M@3@PEBVPxBounds3@3@PEBM@Z 000000018006d2b0 f   LowLevelAABB_static_64:BpBroadPhaseSap.obj
 0001:0006c6a0       ?update@BroadPhaseSap@Bp@physx@@UEAAXPEAVPxcScratchAllocator@3@AEBVBroadPhaseUpdateData@23@PEAVPxBaseTask@3@@Z 000000018006d6a0 f   LowLevelAABB_static_64:BpBroadPhaseSap.obj
 0001:0006c800       ??$?_UV?$PxReflectionAllocator@USIMD_AABB@Bp@physx@@@physx@@@PxUserAllocated@physx@@SAPEAX_KV?$PxReflectionAllocator@USIMD_AABB@Bp@physx@@@1@PEBDH@Z 000000018006d800 f i LowLevelAABB_static_64:BpBroadPhaseMBP.obj
 0001:0006c8a0       ??0BroadPhaseMBP@Bp@physx@@QEAA@IIII_K@Z 000000018006d8a0 f   LowLevelAABB_static_64:BpBroadPhaseMBP.obj
 0001:0006cb30       ??1MBP@internalMBP@@QEAA@XZ 000000018006db30 f   LowLevelAABB_static_64:BpBroadPhaseMBP.obj
 0001:0006cce0       ??1MBPOS_TmpBuffers@internalMBP@@QEAA@XZ 000000018006dce0 f   LowLevelAABB_static_64:BpBroadPhaseMBP.obj
 0001:0006cda0       ??_EBroadPhaseMBP@Bp@physx@@UEAAPEAXI@Z 000000018006dda0 f i LowLevelAABB_static_64:BpBroadPhaseMBP.obj
 0001:0006cda0       ??_GBroadPhaseMBP@Bp@physx@@UEAAPEAXI@Z 000000018006dda0 f i LowLevelAABB_static_64:BpBroadPhaseMBP.obj
 0001:0006ced0       ??_GRegion@internalMBP@@QEAAPEAXI@Z 000000018006ded0 f i LowLevelAABB_static_64:BpBroadPhaseMBP.obj
 0001:0006d070       ?addObject@MBP@internalMBP@@QEAAIAEBUSIMD_AABB@Bp@physx@@I_N@Z 000000018006e070 f   LowLevelAABB_static_64:BpBroadPhaseMBP.obj
 0001:0006d430       ?addObject@Region@internalMBP@@QEAAGAEBUSIMD_AABB@Bp@physx@@I_N@Z 000000018006e430 f   LowLevelAABB_static_64:BpBroadPhaseMBP.obj
 0001:0006d860       ?addPair@MBP_PairManager@internalMBP@@QEAAPEAUInternalPair@Bp@physx@@II@Z 000000018006e860 f   LowLevelAABB_static_64:BpBroadPhaseMBP.obj
 0001:0006da00       ?addRegion@BroadPhaseMBP@Bp@physx@@UEAAIAEBUPxBroadPhaseRegion@3@_NPEBVPxBounds3@3@PEBM@Z 000000018006ea00 f   LowLevelAABB_static_64:BpBroadPhaseMBP.obj
 0001:0006da10       ?addRegion@MBP@internalMBP@@QEAAIAEBUPxBroadPhaseRegion@physx@@_NPEBVPxBounds3@4@PEBM@Z 000000018006ea10 f   LowLevelAABB_static_64:BpBroadPhaseMBP.obj
 0001:0006dd10       ?allocate@?$PxArray@UBroadPhasePair@Bp@physx@@V?$PxReflectionAllocator@UBroadPhasePair@Bp@physx@@@3@@physx@@IEAAPEAUBroadPhasePair@Bp@2@I@Z 000000018006ed10 f i LowLevelAABB_static_64:BpBroadPhaseMBP.obj
 0001:0006dda0       ?allocateMappingArray@BroadPhaseMBP@Bp@physx@@QEAAXI@Z 000000018006eda0 f   LowLevelAABB_static_64:BpBroadPhaseMBP.obj
 0001:0006de70       ?computeCreatedDeletedPairs@MBP_PairManager@internalMBP@@QEAA_NPEBUMBP_Object@2@PEAVBroadPhaseMBP@Bp@physx@@AEBVBitArray@2@2@Z 000000018006ee70 f   LowLevelAABB_static_64:BpBroadPhaseMBP.obj
 0001:0006e7b0       ?freeBuffers@BroadPhaseMBP@Bp@physx@@UEAAXXZ 000000018006f7b0 f   LowLevelAABB_static_64:BpBroadPhaseMBP.obj
 0001:0006e820       ?getCaps@BroadPhaseMBP@Bp@physx@@UEBAXAEAUPxBroadPhaseCaps@3@@Z 000000018006f820 f   LowLevelAABB_static_64:BpBroadPhaseMBP.obj
 0001:0006e830       ?getCreatedPairs@BroadPhaseMBP@Bp@physx@@UEBAPEBUBroadPhasePair@23@AEAI@Z 000000018006f830 f   LowLevelAABB_static_64:BpBroadPhaseMBP.obj
 0001:0006e840       ?getDeletedPairs@BroadPhaseMBP@Bp@physx@@UEBAPEBUBroadPhasePair@23@AEAI@Z 000000018006f840 f   LowLevelAABB_static_64:BpBroadPhaseMBP.obj
 0001:0006e850       ?getNbOutOfBoundsObjects@BroadPhaseMBP@Bp@physx@@UEBAIXZ 000000018006f850 f   LowLevelAABB_static_64:BpBroadPhaseMBP.obj
 0001:0006e860       ?getNbRegions@BroadPhaseMBP@Bp@physx@@UEBAIXZ 000000018006f860 f   LowLevelAABB_static_64:BpBroadPhaseMBP.obj
 0001:0006e870       ?getOutOfBoundsObjects@BroadPhaseMBP@Bp@physx@@UEBAPEBIXZ 000000018006f870 f   LowLevelAABB_static_64:BpBroadPhaseMBP.obj
 0001:0006e880       ?getRegions@BroadPhaseMBP@Bp@physx@@UEBAIPEAUPxBroadPhaseRegionInfo@3@II@Z 000000018006f880 f   LowLevelAABB_static_64:BpBroadPhaseMBP.obj
 0001:0006ea00       ?growAndPushBack@?$PxArray@UBroadPhasePair@Bp@physx@@V?$PxReflectionAllocator@UBroadPhasePair@Bp@physx@@@3@@physx@@IEAAAEAUBroadPhasePair@Bp@2@AEBU342@@Z 000000018006fa00 f i LowLevelAABB_static_64:BpBroadPhaseMBP.obj
 0001:0006eac0       ?init@BitArray@internalMBP@@QEAA_NI@Z 000000018006fac0 f   LowLevelAABB_static_64:BpBroadPhaseMBP.obj
 0001:0006eb70       ?populateNewRegion@MBP@internalMBP@@QEAAXAEBUSIMD_AABB@Bp@physx@@PEAVRegion@2@IPEBVPxBounds3@5@PEBM@Z 000000018006fb70 f   LowLevelAABB_static_64:BpBroadPhaseMBP.obj
 0001:0006ee90       ?preparePruning@Region@internalMBP@@QEAAXAEAUMBPOS_TmpBuffers@2@@Z 000000018006fe90 f   LowLevelAABB_static_64:BpBroadPhaseMBP.obj
 0001:0006f350       ?recreate@?$PxArray@UBroadPhasePair@Bp@physx@@V?$PxReflectionAllocator@UBroadPhasePair@Bp@physx@@@3@@physx@@IEAAXI@Z 0000000180070350 f i LowLevelAABB_static_64:BpBroadPhaseMBP.obj
