 PhysXCommon_64

 Timestamp is 6504eb8b (Sat Sep 16 05:10:59 2023)

 Preferred load address is 0000000180000000

 Start         Length     Name                   Class
 0001:00000000 000034d0H .text$di                CODE
 0001:000034d0 001ce8c0H .text$mn                CODE
 0001:001d1d90 00000040H .text$mn$00             CODE
 0001:001d1dd0 00000680H .text$x                 CODE
 0001:001d2450 0000000fH .text$yd                CODE
 0002:00000000 00000280H .idata$5                DATA
 0002:00000280 00000038H .00cfg                  DATA
 0002:000002b8 00000008H .CRT$XCA                DATA
 0002:000002c0 000019a0H .CRT$XCU                DATA
 0002:00001c60 00000008H .CRT$XCZ                DATA
 0002:00001c68 00000008H .CRT$XIA                DATA
 0002:00001c70 00000018H .CRT$XIC                DATA
 0002:00001c88 00000008H .CRT$XIZ                DATA
 0002:00001c90 00000008H .CRT$XPA                DATA
 0002:00001c98 00000010H .CRT$XPX                DATA
 0002:00001ca8 00000008H .CRT$XPXA               DATA
 0002:00001cb0 00000008H .CRT$XPZ                DATA
 0002:00001cb8 00000008H .CRT$XTA                DATA
 0002:00001cc0 00000010H .CRT$XTZ                DATA
 0002:00001cc8 00000000H .gehcont$y              DATA
 0002:00001cc8 00000000H .gfids$y                DATA
 0002:00001cd0 00011430H .rdata                  DATA
 0002:00013100 00000000H .rdata$CastGuardVftablesA DATA
 0002:00013100 00000000H .rdata$CastGuardVftablesC DATA
 0002:00013100 0000043cH .rdata$r                DATA
 0002:0001353c 0000022cH .rdata$voltmd           DATA
 0002:00013768 00000428H .rdata$zzzdbg           DATA
 0002:00013b90 00000008H .rtc$IAA                DATA
 0002:00013b98 00000008H .rtc$IZZ                DATA
 0002:00013ba0 00000008H .rtc$TAA                DATA
 0002:00013ba8 00000008H .rtc$TZZ                DATA
 0002:00013bb0 00014a20H .xdata                  DATA
 0002:000285d0 00000084H .xdata$x                DATA
 0002:00028654 00000020H .didat$2                DATA
 0002:00028674 00000024H .didat$3                DATA
 0002:00028698 000000c0H .didat$4                DATA
 0002:00028758 000003f8H .didat$6                DATA
 0002:00028b50 000000c0H .didat$7                DATA
 0002:00028c10 0000c310H .edata                  DATA
 0002:00034f20 00000014H .idata$2                DATA
 0002:00034f34 00000014H .idata$3                DATA
 0002:00034f48 00000280H .idata$4                DATA
 0002:000351c8 000005beH .idata$6                DATA
 0003:00000000 00001c40H .data                   DATA
 0003:00001c40 00001158H .data$r                 DATA
 0003:00002d98 000000f0H .data$rs                DATA
 0003:00002e88 000000c8H .didat$5                DATA
 0003:00002f50 000045bcH .bss                    DATA
 0004:00000000 0000c258H .pdata                  DATA
 0005:00000000 0000236cH _RDATA                  DATA
 0006:00000000 000000a0H .rsrc$01                DATA
 0006:000000a0 000004b0H .rsrc$02                DATA

  Address         Publics by Value              Rva+Base               Lib:Object

 0000:00000000       __AbsoluteZero             0000000000000000     <absolute>
 0000:00000000       ___safe_se_handler_count   0000000000000000     <absolute>
 0000:00000000       ___safe_se_handler_table   0000000000000000     <absolute>
 0000:00000000       __arm64x_extra_rfe_table   0000000000000000     <absolute>
 0000:00000000       __arm64x_extra_rfe_table_size 0000000000000000     <absolute>
 0000:00000000       __arm64x_native_entrypoint 0000000000000000     <absolute>
 0000:00000000       __arm64x_redirection_metadata 0000000000000000     <absolute>
 0000:00000000       __arm64x_redirection_metadata_count 0000000000000000     <absolute>
 0000:00000000       __dynamic_value_reloc_table 0000000000000000     <absolute>
 0000:00000000       __enclave_config           0000000000000000     <absolute>
 0000:00000000       __guard_check_icall_a64n_fptr 0000000000000000     <absolute>
 0000:00000000       __guard_eh_cont_count      0000000000000000     <absolute>
 0000:00000000       __guard_eh_cont_table      0000000000000000     <absolute>
 0000:00000000       __guard_fids_count         0000000000000000     <absolute>
 0000:00000000       __guard_fids_table         0000000000000000     <absolute>
 0000:00000000       __guard_iat_count          0000000000000000     <absolute>
 0000:00000000       __guard_iat_table          0000000000000000     <absolute>
 0000:00000000       __guard_longjmp_count      0000000000000000     <absolute>
 0000:00000000       __guard_longjmp_table      0000000000000000     <absolute>
 0000:00000000       __hybrid_auxiliary_delayload_iat 0000000000000000     <absolute>
 0000:00000000       __hybrid_auxiliary_delayload_iat_copy 0000000000000000     <absolute>
 0000:00000000       __hybrid_auxiliary_iat     0000000000000000     <absolute>
 0000:00000000       __hybrid_auxiliary_iat_copy 0000000000000000     <absolute>
 0000:00000000       __hybrid_code_map          0000000000000000     <absolute>
 0000:00000000       __hybrid_code_map_count    0000000000000000     <absolute>
 0000:00000000       __hybrid_image_info_bitfield 0000000000000000     <absolute>
 0000:00000000       __x64_code_ranges_to_entry_points 0000000000000000     <absolute>
 0000:00000000       __x64_code_ranges_to_entry_points_count 0000000000000000     <absolute>
 0000:00000100       __guard_flags              0000000000000100     <absolute>
 0000:00000000       __ImageBase                0000000180000000     <linker-defined>
 0001:000034d0       ??0PtrTable@Cm@physx@@QEAA@W4PxEMPTY@2@@Z 00000001800044d0 f i CmPtrTable.obj
 0001:000034f0       ??0PtrTable@Cm@physx@@QEAA@XZ 00000001800044f0 f   CmPtrTable.obj
 0001:00003500       ??1AABBTreeBuildNode@Gu@physx@@QEAA@XZ 0000000180004500 f   GuMeshFactory.obj
 0001:00003500       ??1BigConvexDataBuilder@physx@@QEAA@XZ 0000000180004500 f   GuCookingBigConvexDataBuilder.obj
 0001:00003500       ??1Box@Gu@physx@@QEAA@XZ   0000000180004500 f   GuBox.obj
 0001:00003500       ??1HeightFieldData@Gu@physx@@QEAA@XZ 0000000180004500 f   GuCCTSweepTests.obj
 0001:00003500       ??1PtrTable@Cm@physx@@QEAA@XZ 0000000180004500 f   CmPtrTable.obj
 0001:00003500       ?build@CompanionPrunerIncremental@@UEAAXXZ 0000000180004500 f   GuSecondaryPruner.obj
 0001:00003500       ?checkTreeLeaf@IncrementalAABBTree@Gu@physx@@QEAAXPEAVIncrementalAABBTreeNode@23@I@Z 0000000180004500 f   GuIncrementalAABBTree.obj
 0001:00003500       ?execute@?$PxThreadT@V?$PxReflectionAllocator@VPxThreadImpl@physx@@@physx@@@physx@@UEAAXXZ 0000000180004500 f   GuSDF.obj
 0001:00003500       ?execute@PxRunnable@physx@@UEAAXXZ 0000000180004500 f   GuSDF.obj
 0001:00003500       ?merge@BucketPruner@Gu@physx@@UEAAXPEBX@Z 0000000180004500 f   GuBucketPruner.obj
 0001:00003500       ?merge@IncrementalAABBPruner@Gu@physx@@UEAAXPEBX@Z 0000000180004500 f   GuIncrementalAABBPruner.obj
 0001:00003500       ?onMeshIndexFormatChange@TriangleMeshBuilder@physx@@UEAAXXZ 0000000180004500 f   GuCookingTriangleMesh.obj
 0001:00003500       ?profile@Callback@RTree@Gu@physx@@UEAAXXZ 0000000180004500 f   GuMidphaseRTree.obj
 0001:00003500       ?purge@BucketPruner@Gu@physx@@UEAAXXZ 0000000180004500 f   GuBucketPruner.obj
 0001:00003500       ?requiresObjects@ConvexMesh@Gu@physx@@UEAAXAEAVPxProcessPxBaseCallback@3@@Z 0000000180004500 f   GuConvexMesh.obj
 0001:00003500       ?requiresObjects@HeightField@Gu@physx@@UEAAXAEAVPxProcessPxBaseCallback@3@@Z 0000000180004500 f   GuHeightField.obj
 0001:00003500       ?requiresObjects@SoftBodyMesh@Gu@physx@@UEAAXAEAVPxProcessPxBaseCallback@3@@Z 0000000180004500 f   GuTetrahedronMesh.obj
 0001:00003500       ?requiresObjects@TriangleMesh@Gu@physx@@UEAAXAEAVPxProcessPxBaseCallback@3@@Z 0000000180004500 f   GuTriangleMesh.obj
 0001:00003500       ?swapIndex@CompanionPrunerAABBTree@@UEAAXII@Z 0000000180004500 f   GuSecondaryPruner.obj
 0001:00003500       ?swapIndex@CompanionPrunerBucket@@UEAAXII@Z 0000000180004500 f   GuSecondaryPruner.obj
 0001:00003500       ?timeStampChange@CompanionPrunerAABBTree@@UEAAXXZ 0000000180004500 f   GuSecondaryPruner.obj
 0001:00003500       ?timeStampChange@CompanionPrunerBucket@@UEAAXXZ 0000000180004500 f   GuSecondaryPruner.obj
 0001:00003500       ?visualize@BasePruner@Gu@physx@@UEBAXAEAVPxRenderOutput@3@II@Z 0000000180004500 f   GuIncrementalAABBPruner.obj
 0001:00003500       _guard_check_icall_nop     0000000180004500 f   LIBCMT:guard_support.obj
 0001:00003510       ??4AABBTreeBounds@Gu@physx@@QEAAAEAV012@AEBV012@@Z 0000000180004510 f i GuMeshFactory.obj
 0001:00003510       ??4CmModuleUpdateLoader@Cm@physx@@QEAAAEAV012@AEBV012@@Z 0000000180004510 f i CmWindowsModuleUpdateLoader.obj
 0001:00003510       ??4PtrTable@Cm@physx@@QEAAAEAU012@AEBU012@@Z 0000000180004510 f i CmPtrTable.obj
 0001:00003520       ?add@PtrTable@Cm@physx@@QEAAXPEAXAEAVPtrTableStorageManager@23@@Z 0000000180004520 f   CmPtrTable.obj
 0001:00003630       ?clear@PtrTable@Cm@physx@@QEAAXAEAVPtrTableStorageManager@23@@Z 0000000180004630 f   CmPtrTable.obj
 0001:000036a0       ?exportExtraData@PtrTable@Cm@physx@@QEAAXAEAVPxSerializationContext@3@@Z 00000001800046a0 f   CmPtrTable.obj
 0001:000036f0       ?find@PtrTable@Cm@physx@@QEBAIPEBX@Z 00000001800046f0 f   CmPtrTable.obj
 0001:00003720       ?getBinaryMetaData@PtrTable@Cm@physx@@SAXAEAVPxOutputStream@3@@Z 0000000180004720 f   CmPtrTable.obj
 0001:00003910       ?getCount@PtrTable@Cm@physx@@QEBAIXZ 0000000180004910 f i CmPtrTable.obj
 0001:00003920       ?getPtrs@PtrTable@Cm@physx@@QEAAPEAPEAXXZ 0000000180004920 f i CmPtrTable.obj
 0001:00003920       ?getPtrs@PtrTable@Cm@physx@@QEBAPEBQEAXXZ 0000000180004920 f i CmPtrTable.obj
 0001:00003930       ?importExtraData@PtrTable@Cm@physx@@QEAAXAEAVPxDeserializationContext@3@@Z 0000000180004930 f   CmPtrTable.obj
 0001:00003960       ?realloc@PtrTable@Cm@physx@@AEAAXIIAEAVPtrTableStorageManager@23@@Z 0000000180004960 f   CmPtrTable.obj
 0001:000039f0       ?replaceWithLast@PtrTable@Cm@physx@@QEAAXIAEAVPtrTableStorageManager@23@@Z 00000001800049f0 f   CmPtrTable.obj
 0001:00003af0       ??_ECollection@Cm@physx@@UEAAPEAXI@Z 0000000180004af0 f i CmCollection.obj
 0001:00003af0       ??_GCollection@Cm@physx@@UEAAPEAXI@Z 0000000180004af0 f i CmCollection.obj
 0001:00003ba0       ??_EPxCollection@physx@@MEAAPEAXI@Z 0000000180004ba0 f i CmCollection.obj
 0001:00003ba0       ??_GPxCollection@physx@@MEAAPEAXI@Z 0000000180004ba0 f i CmCollection.obj
 0001:00003bd0       ?add@Collection@Cm@physx@@UEAAXAEAVPxBase@3@_K@Z 0000000180004bd0 f   CmCollection.obj
 0001:00003cc0       ?add@Collection@Cm@physx@@UEAAXAEAVPxCollection@3@@Z 0000000180004cc0 f   CmCollection.obj
 0001:00003e60       ?addId@Collection@Cm@physx@@UEAAXAEAVPxBase@3@_K@Z 0000000180004e60 f   CmCollection.obj
 0001:00003f90       ?contains@Collection@Cm@physx@@UEBA_NAEAVPxBase@3@@Z 0000000180004f90 f   CmCollection.obj
 0001:00004040       ?create@?$PxHashBase@V?$PxPair@$$CB_KPEAVPxBase@physx@@@physx@@_KU?$PxHash@_K@2@UGetKey@?$PxHashMapBase@_KPEAVPxBase@physx@@U?$PxHash@_K@2@VPxAllocator@2@@2@VPxAllocator@2@$00@physx@@QEAAPEAV?$PxPair@$$CB_KPEAVPxBase@physx@@@2@AEB_KAEA_N@Z 0000000180005040 f i CmCollection.obj
 0001:00004040       ?create@?$PxHashBase@V?$PxPair@QEAVPxBase@physx@@_K@physx@@PEAVPxBase@2@U?$PxHash@PEAVPxBase@physx@@@2@UGetKey@?$PxHashMapBase@PEAVPxBase@physx@@_KU?$PxHash@PEAVPxBase@physx@@@2@VPxAllocator@2@@2@VPxAllocator@2@$00@physx@@QEAAPEAV?$PxPair@QEAVPxBase@physx@@_K@2@AEBQEAVPxBase@2@AEA_N@Z 0000000180005040 f i CmCollection.obj
 0001:000041d0       ?erase@?$PxHashBase@V?$PxPair@$$CB_KPEAVPxBase@physx@@@physx@@_KU?$PxHash@_K@2@UGetKey@?$PxHashMapBase@_KPEAVPxBase@physx@@U?$PxHash@_K@2@VPxAllocator@2@@2@VPxAllocator@2@$00@physx@@QEAA_NAEB_K@Z 00000001800051d0 f i CmCollection.obj
 0001:000041d0       ?erase@?$PxHashBase@V?$PxPair@QEAVPxBase@physx@@_K@physx@@PEAVPxBase@2@U?$PxHash@PEAVPxBase@physx@@@2@UGetKey@?$PxHashMapBase@PEAVPxBase@physx@@_KU?$PxHash@PEAVPxBase@physx@@@2@VPxAllocator@2@@2@VPxAllocator@2@$00@physx@@QEAA_NAEBQEAVPxBase@2@@Z 00000001800051d0 f i CmCollection.obj
 0001:00004380       ?find@?$PxHashMapBase@_KPEAVPxBase@physx@@U?$PxHash@_K@2@VPxAllocator@2@@physx@@QEBAPEBV?$PxPair@$$CB_KPEAVPxBase@physx@@@2@AEB_K@Z 0000000180005380 f i CmCollection.obj
 0001:00004420       ?find@Collection@Cm@physx@@UEBAPEAVPxBase@3@_K@Z 0000000180005420 f   CmCollection.obj
 0001:00004450       ?getId@Collection@Cm@physx@@UEBA_KAEBVPxBase@3@@Z 0000000180005450 f   CmCollection.obj
 0001:00004500       ?getIds@Collection@Cm@physx@@UEBAIPEA_KII@Z 0000000180005500 f   CmCollection.obj
 0001:000045d0       ?getNbIds@Collection@Cm@physx@@UEBAIXZ 00000001800055d0 f   CmCollection.obj
 0001:000045e0       ?getNbObjects@Collection@Cm@physx@@UEBAIXZ 00000001800055e0 f   CmCollection.obj
 0001:000045f0       ?getObject@Collection@Cm@physx@@UEBAAEAVPxBase@3@I@Z 00000001800055f0 f   CmCollection.obj
 0001:00004600       ?getObjects@Collection@Cm@physx@@UEBAIPEAPEAVPxBase@3@II@Z 0000000180005600 f   CmCollection.obj
 0001:00004640       ?release@Collection@Cm@physx@@UEAAXXZ 0000000180005640 f i CmCollection.obj
 0001:00004660       ?remove@Collection@Cm@physx@@UEAAXAEAVPxBase@3@@Z 0000000180005660 f   CmCollection.obj
 0001:00004750       ?remove@Collection@Cm@physx@@UEAAXAEAVPxCollection@3@@Z 0000000180005750 f   CmCollection.obj
 0001:00004860       ?removeId@Collection@Cm@physx@@UEAAX_K@Z 0000000180005860 f   CmCollection.obj
 0001:000048e0       ?reserveInternal@?$PxHashBase@V?$PxPair@$$CB_KPEAVPxBase@physx@@@physx@@_KU?$PxHash@_K@2@UGetKey@?$PxHashMapBase@_KPEAVPxBase@physx@@U?$PxHash@_K@2@VPxAllocator@2@@2@VPxAllocator@2@$00@physx@@AEAAXI@Z 00000001800058e0 f i CmCollection.obj
 0001:000048e0       ?reserveInternal@?$PxHashBase@V?$PxPair@QEAVPxBase@physx@@_K@physx@@PEAVPxBase@2@U?$PxHash@PEAVPxBase@physx@@@2@UGetKey@?$PxHashMapBase@PEAVPxBase@physx@@_KU?$PxHash@PEAVPxBase@physx@@@2@VPxAllocator@2@@2@VPxAllocator@2@$00@physx@@AEAAXI@Z 00000001800058e0 f i CmCollection.obj
 0001:00004ac0       PxCreateCollection         0000000180005ac0 f   CmCollection.obj
 0001:00004bb0       ??0RadixSort@Cm@physx@@QEAA@XZ 0000000180005bb0 f   CmRadixSort.obj
 0001:00004be0       ??0RadixSortBuffered@Cm@physx@@QEAA@XZ 0000000180005be0 f   CmRadixSort.obj
 0001:00004c10       ??1RadixSort@Cm@physx@@UEAA@XZ 0000000180005c10 f   CmRadixSort.obj
 0001:00004c20       ??1RadixSortBuffered@Cm@physx@@UEAA@XZ 0000000180005c20 f   CmRadixSort.obj
 0001:00004c50       ??_ERadixSort@Cm@physx@@UEAAPEAXI@Z 0000000180005c50 f i CmRadixSort.obj
 0001:00004ce0       ??_ERadixSortBuffered@Cm@physx@@UEAAPEAXI@Z 0000000180005ce0 f i CmRadixSort.obj
 0001:00004dd0       ?CheckResize@RadixSortBuffered@Cm@physx@@AEAAXI@Z 0000000180005dd0 f i CmRadixSort.obj
 0001:00004e10       ?GetNbHits@RadixSort@Cm@physx@@QEBAIXZ 0000000180005e10 f i CmRadixSort.obj
 0001:00004e20       ?GetNbTotalCalls@RadixSort@Cm@physx@@QEBAIXZ 0000000180005e20 f i CmRadixSort.obj
 0001:00004e30       ?GetRanks@RadixSort@Cm@physx@@QEBAPEBIXZ 0000000180005e30 f i CmRadixSort.obj
 0001:00004e30       ?getGridModelInvMass@SoftBodyAuxData@Gu@physx@@UEAAPEAMXZ 0000000180005e30 f i GuTetrahedronMesh.obj
 0001:00004e30       ?getHeightField@HeightFieldUtil@Gu@physx@@QEBAAEBVHeightField@23@XZ 0000000180005e30 f i GuCCTSweepTests.obj
 0001:00004e30       ?getSimulationMesh@SoftBodyMesh@Gu@physx@@UEAAPEAVPxTetrahedronMesh@3@XZ 0000000180005e30 f i GuTetrahedronMesh.obj
 0001:00004e30       ?getSimulationMesh@SoftBodyMesh@Gu@physx@@UEBAPEBVPxTetrahedronMesh@3@XZ 0000000180005e30 f i GuTetrahedronMesh.obj
 0001:00004e40       ?GetRecyclable@RadixSort@Cm@physx@@QEBAPEAIXZ 0000000180005e40 f i CmRadixSort.obj
 0001:00004e40       ?GetValencies@BigConvexData@physx@@QEBAPEBUValency@Gu@2@XZ 0000000180005e40 f i GuMetaData.obj
 0001:00004e40       ?getCollisionMesh@SoftBodyMesh@Gu@physx@@UEAAPEAVPxTetrahedronMesh@3@XZ 0000000180005e40 f i GuTetrahedronMesh.obj
 0001:00004e40       ?getCollisionMesh@SoftBodyMesh@Gu@physx@@UEBAPEBVPxTetrahedronMesh@3@XZ 0000000180005e40 f i GuTetrahedronMesh.obj
 0001:00004e40       ?getHeightFieldGeometry@HeightFieldUtil@Gu@physx@@QEBAAEBVPxHeightFieldGeometry@3@XZ 0000000180005e40 f i GuCCTSweepTests.obj
 0001:00004e40       ?getObjects@PruningPool@Gu@physx@@QEBAPEAUPrunerPayload@23@XZ 0000000180005e40 f i GuIncrementalAABBPrunerCore.obj
 0001:00004e40       ?getPos@AABBTreeBuildNode@Gu@physx@@QEBAPEBV123@XZ 0000000180005e40 f i GuMeshFactory.obj
 0001:00004e40       ?getVertices@TetrahedronMesh@Gu@physx@@UEBAPEBV?$PxVec3T@M@3@XZ 0000000180005e40 f i GuTetrahedronMesh.obj
 0001:00004e40       ?getVertices@TriangleMesh@Gu@physx@@UEBAPEBV?$PxVec3T@M@3@XZ 0000000180005e40 f i GuTriangleMesh.obj
 0001:00004e50       ?Resize@RadixSortBuffered@Cm@physx@@AEAA_NI@Z 0000000180005e50 f   CmRadixSort.obj
 0001:00004f50       ?SetBuffers@RadixSort@Cm@physx@@QEAA_NPEAI00PEAPEAI@Z 0000000180005f50 f   CmRadixSort.obj
 0001:00004f90       ?Sort@RadixSort@Cm@physx@@QEAAAEAV123@PEBIIW4RadixHint@23@@Z 0000000180005f90 f   CmRadixSort.obj
 0001:00005640       ?Sort@RadixSort@Cm@physx@@QEAAAEAV123@PEBMI@Z 0000000180006640 f   CmRadixSort.obj
 0001:00005de0       ?Sort@RadixSortBuffered@Cm@physx@@QEAAAEAV123@PEBIIW4RadixHint@23@@Z 0000000180006de0 f   CmRadixSort.obj
 0001:00005e80       ?Sort@RadixSortBuffered@Cm@physx@@QEAAAEAV123@PEBMI@Z 0000000180006e80 f   CmRadixSort.obj
 0001:00005f10       ?invalidateRanks@RadixSort@Cm@physx@@QEAAXXZ 0000000180006f10 f i CmRadixSort.obj
 0001:00005f20       ?reset@RadixSortBuffered@Cm@physx@@QEAAXXZ 0000000180006f20 f   CmRadixSort.obj
 0001:00005fa0       ?ReadHeader@Cm@physx@@YA_NEEEEAEAIAEA_NAEAVPxInputStream@2@@Z 0000000180006fa0 f   CmSerialize.obj
 0001:00006100       ?ReadIndices@Cm@physx@@YAXGIPEAGAEAVPxInputStream@2@_N@Z 0000000180007100 f   CmSerialize.obj
 0001:00006290       ?StoreIndices@Cm@physx@@YAXGIPEBGAEAVPxOutputStream@2@_N@Z 0000000180007290 f   CmSerialize.obj
 0001:00006380       ?WriteHeader@Cm@physx@@YA_NEEEEI_NAEAVPxOutputStream@2@@Z 0000000180007380 f   CmSerialize.obj
 0001:000064b0       ?computeMaxIndex@physx@@YAGPEBGI@Z 00000001800074b0 f   CmSerialize.obj
 0001:000064e0       ?computeMaxIndex@physx@@YAIPEBII@Z 00000001800074e0 f   CmSerialize.obj
 0001:00006510       ?readByteBuffer@physx@@YAXPEAEIAEAVPxInputStream@1@@Z 0000000180007510 f   CmSerialize.obj
 0001:00006510       ?writeByteBuffer@physx@@YAXPEBEIAEAVPxOutputStream@1@@Z 0000000180007510 f   CmSerialize.obj
 0001:00006530       ?readChunk@physx@@YAXAEAC000AEAVPxInputStream@1@@Z 0000000180007530 f   CmSerialize.obj
 0001:000065b0       ?readDword@physx@@YAI_NAEAVPxInputStream@1@@Z 00000001800075b0 f   CmSerialize.obj
 0001:00006610       ?readFloat@physx@@YAM_NAEAVPxInputStream@1@@Z 0000000180007610 f   CmSerialize.obj
 0001:00006670       ?readFloatBuffer@physx@@YA_NPEAMI_NAEAVPxInputStream@1@@Z 0000000180007670 f   CmSerialize.obj
 0001:000066f0       ?readHeader@physx@@YA_NCCCCAEAIAEA_NAEAVPxInputStream@1@@Z 00000001800076f0 f   CmSerialize.obj
 0001:00006840       ?readIndices@physx@@YAXIIPEAIAEAVPxInputStream@1@_N@Z 0000000180007840 f   CmSerialize.obj
 0001:00006970       ?readWord@physx@@YAG_NAEAVPxInputStream@1@@Z 0000000180007970 f   CmSerialize.obj
 0001:000069b0       ?readWordBuffer@physx@@YAXPEAGI_NAEAVPxInputStream@1@@Z 00000001800079b0 f   CmSerialize.obj
 0001:00006a20       ?storeIndices@physx@@YAXIIPEBIAEAVPxOutputStream@1@_N@Z 0000000180007a20 f   CmSerialize.obj
 0001:00006bb0       ?writeDword@physx@@YAXI_NAEAVPxOutputStream@1@@Z 0000000180007bb0 f   CmSerialize.obj
 0001:00006c00       ?writeFloat@physx@@YAXM_NAEAVPxOutputStream@1@@Z 0000000180007c00 f   CmSerialize.obj
 0001:00006c50       ?writeFloatBuffer@physx@@YAXPEBMI_NAEAVPxOutputStream@1@@Z 0000000180007c50 f   CmSerialize.obj
 0001:00006cf0       ?writeHeader@physx@@YA_NCCCCI_NAEAVPxOutputStream@1@@Z 0000000180007cf0 f   CmSerialize.obj
 0001:00006e20       ?writeWord@physx@@YAXG_NAEAVPxOutputStream@1@@Z 0000000180007e20 f   CmSerialize.obj
 0001:00006e60       ?writeWordBuffer@physx@@YAXPEBGI_NAEAVPxOutputStream@1@@Z 0000000180007e60 f   CmSerialize.obj
 0001:00006ee0       ??6PxRenderOutput@physx@@QEAAAEAV01@AEBV?$PxTransformT@M@1@@Z 0000000180007ee0 f i CmVisualization.obj
 0001:00007060       ??6PxRenderOutput@physx@@QEAAAEAV01@AEBV?$PxVec3T@M@1@@Z 0000000180008060 f i CmVisualization.obj
 0001:00007350       ?renderOutputDebugArrow@Cm@physx@@YAXAEAVPxRenderOutput@2@AEBUPxDebugArrow@2@@Z 0000000180008350 f   CmVisualization.obj
 0001:000076f0       ?renderOutputDebugBasis@Cm@physx@@YAXAEAVPxRenderOutput@2@AEBUPxDebugBasis@2@@Z 00000001800086f0 f   CmVisualization.obj
 0001:00007c80       ?renderOutputDebugBox@Cm@physx@@YAXAEAVPxRenderOutput@2@AEBVPxBounds3@2@@Z 0000000180008c80 f   CmVisualization.obj
 0001:00007ef0       ?renderOutputDebugCircle@Cm@physx@@YAXAEAVPxRenderOutput@2@IM@Z 0000000180008ef0 f   CmVisualization.obj
 0001:00007fd0       ?visualizeAngularLimit@Cm@physx@@YAXAEAVPxRenderOutput@2@MAEBV?$PxTransformT@M@2@MM@Z 0000000180008fd0 f   CmVisualization.obj
 0001:00008160       ?visualizeDoubleCone@Cm@physx@@YAXAEAVPxRenderOutput@2@MAEBV?$PxTransformT@M@2@M@Z 0000000180009160 f   CmVisualization.obj
 0001:00008380       ?visualizeJointFrames@Cm@physx@@YAXAEAVPxRenderOutput@2@MAEBV?$PxTransformT@M@2@1@Z 0000000180009380 f   CmVisualization.obj
 0001:00008e80       ?visualizeLimitCone@Cm@physx@@YAXAEAVPxRenderOutput@2@MAEBV?$PxTransformT@M@2@MM@Z 0000000180009e80 f   CmVisualization.obj
 0001:000090b0       ?visualizeLinearLimit@Cm@physx@@YAXAEAVPxRenderOutput@2@MAEBV?$PxTransformT@M@2@1M@Z 000000018000a0b0 f   CmVisualization.obj
 0001:000096a0       ??0CmModuleUpdateLoader@Cm@physx@@QEAA@PEBD@Z 000000018000a6a0 f   CmWindowsModuleUpdateLoader.obj
 0001:000096e0       ??1CmModuleUpdateLoader@Cm@physx@@QEAA@XZ 000000018000a6e0 f   CmWindowsModuleUpdateLoader.obj
 0001:00009710       ?LoadModule@CmModuleUpdateLoader@Cm@physx@@QEAAPEAUHINSTANCE__@@PEBD0@Z 000000018000a710 f   CmWindowsModuleUpdateLoader.obj
 0001:00009780       __local_stdio_printf_options 000000018000a780 f i CmWindowsModuleUpdateLoader.obj
 0001:00009790       printf                     000000018000a790 f i CmWindowsModuleUpdateLoader.obj
 0001:000097f0       ?commonDelayHook@@YAP6A_JXZIPEAUDelayLoadInfo@@@Z 000000018000a7f0 f   CmWindowsDelayLoadHook.obj
 0001:000098d0       PxSetPhysXCommonDelayLoadHook 000000018000a8d0 f   CmWindowsDelayLoadHook.obj
 0001:000098e0       ??0?$PxQuatT@M@physx@@QEAA@AEBV?$PxMat33T@M@1@@Z 000000018000a8e0 f i GuBox.obj
 0001:00009ae0       ??0Box@Gu@physx@@QEAA@AEBV012@@Z 000000018000aae0 f i GuBox.obj
 0001:00009ae0       ??4Box@Gu@physx@@QEAAAEBV012@AEBV012@@Z 000000018000aae0 f i GuBox.obj
 0001:00009b40       ??0Box@Gu@physx@@QEAA@AEBV?$PxVec3T@M@2@0AEBV?$PxMat33T@M@2@@Z 000000018000ab40 f i GuBox.obj
 0001:00009bb0       ??0AABBTreeBuildNode@Gu@physx@@QEAA@XZ 000000018000abb0 f i GuMeshFactory.obj
 0001:00009bb0       ??0BigConvexData@physx@@QEAA@W4PxEMPTY@1@@Z 000000018000abb0 f i GuMetaData.obj
 0001:00009bb0       ??0Box@Gu@physx@@QEAA@XZ   000000018000abb0 f i GuBox.obj
 0001:00009bb0       ??0HeightFieldData@Gu@physx@@QEAA@W4PxEMPTY@2@@Z 000000018000abb0 f i GuCCTSweepTests.obj
 0001:00009bb0       ?getAABB@AABBTreeBuildNode@Gu@physx@@QEBAAEBVPxBounds3@3@XZ 000000018000abb0 f i GuMeshFactory.obj
 0001:00009bb0       ?getPaddedBounds@HeightFieldData@Gu@physx@@QEBAAEBVCenterExtentsPadded@23@XZ 000000018000abb0 f i GuCCTSweepTests.obj
 0001:00009bc0       ?computeAABBExtent@Box@Gu@physx@@QEBA?AV?$PxVec3T@M@3@XZ 000000018000abc0 f i GuBox.obj
 0001:00009c80       ?computeBoxPoints@Box@Gu@physx@@QEBAXPEIAV?$PxVec3T@M@3@@Z 000000018000ac80 f i GuBox.obj
 0001:00009cc0       ?computeOBBPoints@Gu@physx@@YAXPEIAV?$PxVec3T@M@2@AEBV32@1111@Z 000000018000acc0 f   GuBox.obj
 0001:00009f40       ?create@Box@Gu@physx@@QEAAXAEBVCapsule@23@@Z 000000018000af40 f   GuBox.obj
 0001:0000a170       ?getBoxEdges@Gu@physx@@YAPEBEXZ 000000018000b170 f   GuBox.obj
 0001:0000a180       ?getTransform@Box@Gu@physx@@QEBA?AV?$PxTransformT@M@3@XZ 000000018000b180 f i GuBox.obj
 0001:0000a1e0       ?isValid@Box@Gu@physx@@QEBA_NXZ 000000018000b1e0 f i GuBox.obj
 0001:0000a200       ?rotate@Box@Gu@physx@@QEBA?AV?$PxVec3T@M@3@AEBV43@@Z 000000018000b200 f i GuBox.obj
 0001:0000a290       ?rotateInv@Box@Gu@physx@@QEBA?AV?$PxVec3T@M@3@AEBV43@@Z 000000018000b290 f i GuBox.obj
 0001:0000a320       ?setAxes@Box@Gu@physx@@QEAAXAEBV?$PxVec3T@M@3@00@Z 000000018000b320 f i GuBox.obj
 0001:0000a360       ?setEmpty@Box@Gu@physx@@QEAAXXZ 000000018000b360 f i GuBox.obj
 0001:0000a3a0       ?transform@Box@Gu@physx@@QEBA?AV?$PxVec3T@M@3@AEBV43@@Z 000000018000b3a0 f i GuBox.obj
 0001:0000a440       ?PxComputeBasisVectors@physx@@YAXAEBV?$PxVec3T@M@1@0AEAV21@11@Z 000000018000b440 f i GuCapsule.obj
 0001:0000a5e0       ?computeBoxAroundCapsule@Gu@physx@@YAXAEBVCapsule@12@AEAVBox@12@@Z 000000018000b5e0 f   GuCapsule.obj
 0001:0000a730       ??0HeightFieldData@Gu@physx@@QEAA@$$QEAU012@@Z 000000018000b730 f i GuCCTSweepTests.obj
 0001:0000a730       ??0HeightFieldData@Gu@physx@@QEAA@AEBU012@@Z 000000018000b730 f i GuCCTSweepTests.obj
 0001:0000a730       ??4HeightFieldData@Gu@physx@@QEAAAEAU012@$$QEAU012@@Z 000000018000b730 f i GuCCTSweepTests.obj
 0001:0000a730       ??4HeightFieldData@Gu@physx@@QEAAAEAU012@AEBU012@@Z 000000018000b730 f i GuCCTSweepTests.obj
 0001:0000a790       ??0HeightFieldData@Gu@physx@@QEAA@XZ 000000018000b790 f i GuCCTSweepTests.obj
 0001:0000a7a0       ??0HeightFieldTraceUtil@Gu@physx@@QEAA@AEBVPxHeightFieldGeometry@2@@Z 000000018000b7a0 f i GuCCTSweepTests.obj
 0001:0000a7a0       ??0HeightFieldUtil@Gu@physx@@QEAA@AEBVPxHeightFieldGeometry@2@@Z 000000018000b7a0 f i GuCCTSweepTests.obj
 0001:0000a7e0       ??4AABBTreeBuildParams@Gu@physx@@QEAAAEAV012@AEBV012@@Z 000000018000b7e0 f i GuMeshFactory.obj
 0001:0000a7e0       ??4HeightFieldTraceUtil@Gu@physx@@QEAAAEAV012@$$QEAV012@@Z 000000018000b7e0 f i GuCCTSweepTests.obj
 0001:0000a7e0       ??4HeightFieldTraceUtil@Gu@physx@@QEAAAEAV012@AEBV012@@Z 000000018000b7e0 f i GuCCTSweepTests.obj
 0001:0000a7e0       ??4HeightFieldUtil@Gu@physx@@QEAAAEAV012@AEBV012@@Z 000000018000b7e0 f i GuCCTSweepTests.obj
 0001:0000a800       ??4HeightFieldUtil@Gu@physx@@QEAAAEAV012@$$QEAV012@@Z 000000018000b800 f i GuCCTSweepTests.obj
 0001:0000a860       ??_EEntityReport@Gu@physx@@UEAAPEAXI@Z 000000018000b860 f i GuSweepsHF.obj
 0001:0000a860       ??_EOverlapCallback@PxBVH@physx@@UEAAPEAXI@Z 000000018000b860 f i GuQuerySystem.obj
 0001:0000a860       ??_EOverlapReport@Gu@physx@@UEAAPEAXI@Z 000000018000b860 f i GuCCTSweepTests.obj
 0001:0000a860       ??_ERaycastCallback@PxBVH@physx@@UEAAPEAXI@Z 000000018000b860 f i GuQuerySystem.obj
 0001:0000a860       ??_ERemapCallback@RTreeCooker@physx@@UEAAPEAXI@Z 000000018000b860 f i GuCookingTriangleMesh.obj
 0001:0000a860       ??_GEntityReport@Gu@physx@@UEAAPEAXI@Z 000000018000b860 f i GuSweepsHF.obj
 0001:0000a860       ??_GOverlapCallback@PxBVH@physx@@UEAAPEAXI@Z 000000018000b860 f i GuQuerySystem.obj
 0001:0000a860       ??_GOverlapReport@Gu@physx@@UEAAPEAXI@Z 000000018000b860 f i GuCCTSweepTests.obj
 0001:0000a860       ??_GRaycastCallback@PxBVH@physx@@UEAAPEAXI@Z 000000018000b860 f i GuQuerySystem.obj
 0001:0000a860       ??_GRemapCallback@RTreeCooker@physx@@UEAAPEAXI@Z 000000018000b860 f i GuCookingTriangleMesh.obj
 0001:0000a890       ??_H@YAXPEAX_K1P6APEAX0@Z@Z 000000018000b890 f i GuCCTSweepTests.obj
 0001:0000a8e0       ?ceilUp@HeightFieldTraceUtil@Gu@physx@@SAMM@Z 000000018000b8e0 f i GuCCTSweepTests.obj
 0001:0000a920       ?floorDown@HeightFieldTraceUtil@Gu@physx@@SAMM@Z 000000018000b920 f i GuCCTSweepTests.obj
 0001:0000a960       ?getHeightAtShapePoint@HeightFieldUtil@Gu@physx@@QEBAMMM@Z 000000018000b960 f i GuCCTSweepTests.obj
 0001:0000a9c0       ?getHeightInternal2@HeightField@Gu@physx@@QEBAMIMM@Z 000000018000b9c0 f i GuCCTSweepTests.obj
 0001:0000ab30       ?getNormalAtShapePoint@HeightFieldUtil@Gu@physx@@QEBA?AV?$PxVec3T@M@3@MM@Z 000000018000bb30 f i GuCCTSweepTests.obj
 0001:0000abf0       ?getNormal_2@HeightField@Gu@physx@@QEBA?AV?$PxVec3T@M@3@IMMMMM@Z 000000018000bbf0 f i GuCCTSweepTests.obj
 0001:0000ad10       ?getOneOverColumnScale@HeightFieldUtil@Gu@physx@@QEBAMXZ 000000018000bd10 f i GuCCTSweepTests.obj
 0001:0000ad20       ?getOneOverHeightScale@HeightFieldUtil@Gu@physx@@QEBAMXZ 000000018000bd20 f i GuCCTSweepTests.obj
 0001:0000ad30       ?getOneOverRowScale@HeightFieldUtil@Gu@physx@@QEBAMXZ 000000018000bd30 f i GuCCTSweepTests.obj
 0001:0000ad40       ?hf2shapen@HeightFieldUtil@Gu@physx@@QEBA?AV?$PxVec3T@M@3@AEBV43@@Z 000000018000bd40 f i GuCCTSweepTests.obj
 0001:0000ad40       ?shape2hfp@HeightFieldUtil@Gu@physx@@QEBA?AV?$PxVec3T@M@3@AEBV43@@Z 000000018000bd40 f i GuCCTSweepTests.obj
 0001:0000ad80       ?hf2shapep@HeightFieldUtil@Gu@physx@@QEBA?AV?$PxVec3T@M@3@AEBV43@@Z 000000018000bd80 f i GuCCTSweepTests.obj
 0001:0000adc0       ?hf2worldn@HeightFieldUtil@Gu@physx@@QEBA?AV?$PxVec3T@M@3@AEBV?$PxTransformT@M@3@AEBV43@@Z 000000018000bdc0 f i GuCCTSweepTests.obj
 0001:0000af30       ?hf2worldp@HeightFieldUtil@Gu@physx@@QEBA?AV?$PxVec3T@M@3@AEBV?$PxTransformT@M@3@AEBV43@@Z 000000018000bf30 f i GuCCTSweepTests.obj
 0001:0000b0b0       ?overlapAABBTriangles0to1@HeightFieldUtil@Gu@physx@@QEBAXAEBV?$PxTransformT@M@3@AEBVPxBounds3@3@AEAVOverlapReport@23@I@Z 000000018000c0b0 f i GuCCTSweepTests.obj
 0001:0000b430       ?overlapAABBTriangles@HeightFieldUtil@Gu@physx@@QEBAXAEBV?$PxTransformT@M@3@0AEBVPxBounds3@3@AEAVOverlapReport@23@I@Z 000000018000c430 f i GuCCTSweepTests.obj
 0001:0000ba50       ?overlapAABBTriangles@HeightFieldUtil@Gu@physx@@QEBAXAEBV?$PxTransformT@M@3@AEBVPxBounds3@3@AEAVOverlapReport@23@I@Z 000000018000ca50 f i GuCCTSweepTests.obj
 0001:0000c100       ?sweepBoxTriangles_Precise@Gu@physx@@YA_NIPEBVPxTriangle@2@_NAEBVPxBoxGeometry@2@AEBV?$PxTransformT@M@2@AEBV?$PxVec3T@M@2@MAEAUPxGeomSweepHit@2@PEBIMV?$PxFlags@W4Enum@PxHitFlag@physx@@G@2@@Z 000000018000d100 f   GuCCTSweepTests.obj
 0001:0000ce90       ?sweepBox_BoxGeom_Precise@@YA_NAEBVPxGeometry@physx@@AEBV?$PxTransformT@M@2@AEBVPxBoxGeometry@2@1AEBVBox@Gu@2@AEBV?$PxVec3T@M@2@MAEAUPxGeomSweepHit@2@V?$PxFlags@W4Enum@PxHitFlag@physx@@G@2@MPEAUPxQueryThreadContext@2@@Z 000000018000de90 f   GuCCTSweepTests.obj
 0001:0000d050       ?sweepBox_CapsuleGeom_Precise@@YA_NAEBVPxGeometry@physx@@AEBV?$PxTransformT@M@2@AEBVPxBoxGeometry@2@1AEBVBox@Gu@2@AEBV?$PxVec3T@M@2@MAEAUPxGeomSweepHit@2@V?$PxFlags@W4Enum@PxHitFlag@physx@@G@2@MPEAUPxQueryThreadContext@2@@Z 000000018000e050 f   GuCCTSweepTests.obj
 0001:0000d420       ?sweepBox_HeightFieldGeom_Precise@@YA_NAEBVPxGeometry@physx@@AEBV?$PxTransformT@M@2@AEBVPxBoxGeometry@2@1AEBVBox@Gu@2@AEBV?$PxVec3T@M@2@MAEAUPxGeomSweepHit@2@V?$PxFlags@W4Enum@PxHitFlag@physx@@G@2@MPEAUPxQueryThreadContext@2@@Z 000000018000e420 f   GuCCTSweepTests.obj
 0001:0000dc20       ?sweepBox_SphereGeom_Precise@@YA_NAEBVPxGeometry@physx@@AEBV?$PxTransformT@M@2@AEBVPxBoxGeometry@2@1AEBVBox@Gu@2@AEBV?$PxVec3T@M@2@MAEAUPxGeomSweepHit@2@V?$PxFlags@W4Enum@PxHitFlag@physx@@G@2@MPEAUPxQueryThreadContext@2@@Z 000000018000ec20 f   GuCCTSweepTests.obj
 0001:0000def0       ?sweepCapsule_BoxGeom_Precise@@YA_NAEBVPxGeometry@physx@@AEBV?$PxTransformT@M@2@AEBVPxCapsuleGeometry@2@1AEBVCapsule@Gu@2@AEBV?$PxVec3T@M@2@MAEAUPxGeomSweepHit@2@V?$PxFlags@W4Enum@PxHitFlag@physx@@G@2@MPEAUPxQueryThreadContext@2@@Z 000000018000eef0 f   GuCCTSweepTests.obj
 0001:0000e580       ??0?$CacheMap@UCachedEdge@Gu@physx@@$0IA@@Gu@physx@@QEAA@XZ 000000018000f580 f i GuGeometryQuery.obj
 0001:0000e640       ??0?$CacheMap@UCachedVertex@Gu@physx@@$0IA@@Gu@physx@@QEAA@XZ 000000018000f640 f i GuGeometryQuery.obj
 0001:0000e700       ??0MultiplePersistentContactManifold@Gu@physx@@QEAA@XZ 000000018000f700 f i GuGeometryQuery.obj
 0001:0000e760       ??0PCMMeshContactGeneration@Gu@physx@@QEAA@AEBT__m128@@0AEBVPxTransformV@aos@2@1AEAVMultiplePersistentContactManifold@12@AEAVPxContactBuffer@2@PEAV?$PxInlineArray@I$0DMA@V?$PxReflectionAllocator@I@physx@@@2@PEAVPxRenderOutput@2@@Z 000000018000f760 f i GuGeometryQuery.obj
 0001:0000f090       ??0PolygonalBox@Gu@physx@@QEAA@AEBV012@@Z 0000000180010090 f i GuGeometryQuery.obj
 0001:0000f310       ??4MultiplePersistentContactManifold@Gu@physx@@QEAAAEAV012@$$QEAV012@@Z 0000000180010310 f i GuGeometryQuery.obj
 0001:0000f620       ??4MultiplePersistentContactManifold@Gu@physx@@QEAAAEAV012@AEBV012@@Z 0000000180010620 f i GuGeometryQuery.obj
 0001:0000f640       ??_E?$SupportLocalImpl@VBoxV@Gu@physx@@@Gu@physx@@UEAAPEAXI@Z 0000000180010640 f i GuGeometryQuery.obj
 0001:0000f640       ??_E?$SupportLocalImpl@VConvexHullNoScaleV@Gu@physx@@@Gu@physx@@UEAAPEAXI@Z 0000000180010640 f i GuMTD.obj
 0001:0000f640       ??_E?$SupportLocalImpl@VConvexHullV@Gu@physx@@@Gu@physx@@UEAAPEAXI@Z 0000000180010640 f i GuGeometryQuery.obj
 0001:0000f640       ??_E?$SupportLocalImpl@VTriangleV@Gu@physx@@@Gu@physx@@UEAAPEAXI@Z 0000000180010640 f i GuPCMContactConvexCommon.obj
 0001:0000f640       ??_G?$SupportLocalImpl@VBoxV@Gu@physx@@@Gu@physx@@UEAAPEAXI@Z 0000000180010640 f i GuGeometryQuery.obj
 0001:0000f640       ??_G?$SupportLocalImpl@VConvexHullNoScaleV@Gu@physx@@@Gu@physx@@UEAAPEAXI@Z 0000000180010640 f i GuMTD.obj
 0001:0000f640       ??_G?$SupportLocalImpl@VConvexHullV@Gu@physx@@@Gu@physx@@UEAAPEAXI@Z 0000000180010640 f i GuGeometryQuery.obj
 0001:0000f640       ??_G?$SupportLocalImpl@VTriangleV@Gu@physx@@@Gu@physx@@UEAAPEAXI@Z 0000000180010640 f i GuPCMContactConvexCommon.obj
 0001:0000f670       ??_ESupportLocal@Gu@physx@@UEAAPEAXI@Z 0000000180010670 f i GuGeometryQuery.obj
 0001:0000f670       ??_GSupportLocal@Gu@physx@@UEAAPEAXI@Z 0000000180010670 f i GuGeometryQuery.obj
 0001:0000f6a0       ?clearManifold@MultiplePersistentContactManifold@Gu@physx@@QEAAXXZ 00000001800106a0 f i GuGeometryQuery.obj
 0001:0000f700       ?computeGeomBounds@PxGeometryQuery@physx@@SAXAEAVPxBounds3@2@AEBVPxGeometry@2@AEBV?$PxTransformT@M@2@MMV?$PxFlags@W4Enum@PxGeometryQueryFlag@physx@@I@2@@Z 0000000180010700 f   GuGeometryQuery.obj
 0001:0000f780       ?computePenetration@PxGeometryQuery@physx@@SA_NAEAV?$PxVec3T@M@2@AEAMAEBVPxGeometry@2@AEBV?$PxTransformT@M@2@23V?$PxFlags@W4Enum@PxGeometryQueryFlag@physx@@I@2@@Z 0000000180010780 f   GuGeometryQuery.obj
 0001:0000f900       ?doSupport@?$SupportLocalImpl@VBoxV@Gu@physx@@@Gu@physx@@UEBA?AT__m128@@AEBT4@@Z 0000000180010900 f i GuGeometryQuery.obj
 0001:0000f930       ?doSupport@?$SupportLocalImpl@VBoxV@Gu@physx@@@Gu@physx@@UEBAXAEBT__m128@@AEAT4@1@Z 0000000180010930 f i GuGeometryQuery.obj
 0001:0000f980       ?doSupport@?$SupportLocalImpl@VConvexHullV@Gu@physx@@@Gu@physx@@UEBA?AT__m128@@AEBT4@@Z 0000000180010980 f i GuGeometryQuery.obj
 0001:0000fa60       ?doSupport@?$SupportLocalImpl@VConvexHullV@Gu@physx@@@Gu@physx@@UEBAXAEBT__m128@@AEAT4@1@Z 0000000180010a60 f i GuGeometryQuery.obj
 0001:0000fdc0       ?generateTriangleContacts@PxGeometryQuery@physx@@SA_NAEBVPxGeometry@2@AEBV?$PxTransformT@M@2@QEBV?$PxVec3T@M@2@IMMMAEAVPxContactBuffer@2@@Z 0000000180010dc0 f   GuGeometryQuery.obj
 0001:00011770       ?getEmptyManifold@MultiplePersistentContactManifold@Gu@physx@@QEAAPEAVSinglePersistentContactManifold@23@XZ 0000000180012770 f i GuGeometryQuery.obj
 0001:00011790       ?getManifold@MultiplePersistentContactManifold@Gu@physx@@QEAAPEAVSinglePersistentContactManifold@23@I@Z 0000000180012790 f i GuGeometryQuery.obj
 0001:000117b0       ?getUniqueID@PxCustomGeometry@physx@@SAIXZ 00000001800127b0 f   GuGeometryQuery.obj
 0001:000117d0       ?hillClimbing@ConvexHullV@Gu@physx@@QEBAIAEBT__m128@@@Z 00000001800127d0 f i GuGeometryQuery.obj
 0001:00011a00       ?initialize@MultiplePersistentContactManifold@Gu@physx@@QEAAXXZ 0000000180012a00 f i GuGeometryQuery.obj
 0001:00011a60       ?invalidate@MultiplePersistentContactManifold@Gu@physx@@QEAAIAEBVPxTransformV@aos@3@AEBT__m128@@1@Z 0000000180012a60 f i GuGeometryQuery.obj
 0001:00011ad0       ?invalidate@MultiplePersistentContactManifold@Gu@physx@@QEAAIAEBVPxTransformV@aos@3@AEBT__m128@@@Z 0000000180012ad0 f i GuGeometryQuery.obj
 0001:00011b40       ?isUnit@?$PxQuatT@M@physx@@QEBA_NXZ 0000000180012b40 f i GuGeometryQuery.obj
 0001:00011c00       ?isValid@PxGeometryQuery@physx@@SA_NAEBVPxGeometry@2@@Z 0000000180012c00 f   GuGeometryQuery.obj
 0001:00011ef0       ?maxTransformPositionDelta@MultiplePersistentContactManifold@Gu@physx@@QEAA?AT__m128@@AEBT4@@Z 0000000180012ef0 f i GuGeometryQuery.obj
 0001:00011f30       ?maxTransformQuatDelta@MultiplePersistentContactManifold@Gu@physx@@QEAA?AT__m128@@AEBT4@@Z 0000000180012f30 f i GuGeometryQuery.obj
 0001:00011f70       ?overlap@PxGeometryQuery@physx@@SA_NAEBVPxGeometry@2@AEBV?$PxTransformT@M@2@01V?$PxFlags@W4Enum@PxGeometryQueryFlag@physx@@I@2@PEAUPxQueryThreadContext@2@@Z 0000000180012f70 f   GuGeometryQuery.obj
 0001:00012040       ?pointDistance@PxGeometryQuery@physx@@SAMAEBV?$PxVec3T@M@2@AEBVPxGeometry@2@AEBV?$PxTransformT@M@2@PEAV32@PEAIV?$PxFlags@W4Enum@PxGeometryQueryFlag@physx@@I@2@@Z 0000000180013040 f   GuGeometryQuery.obj
 0001:000127d0       ?populateVerts@?$SupportLocalImpl@VBoxV@Gu@physx@@@Gu@physx@@UEBAXPEBEIPEBV?$PxVec3T@M@3@PEAT__m128@@@Z 00000001800137d0 f i GuGeometryQuery.obj
 0001:00012810       ?populateVerts@?$SupportLocalImpl@VConvexHullV@Gu@physx@@@Gu@physx@@UEBAXPEBEIPEBV?$PxVec3T@M@3@PEAT__m128@@@Z 0000000180013810 f i GuGeometryQuery.obj
 0001:00012870       ?raycast@PxGeometryQuery@physx@@SAIAEBV?$PxVec3T@M@2@0AEBVPxGeometry@2@AEBV?$PxTransformT@M@2@MV?$PxFlags@W4Enum@PxHitFlag@physx@@G@2@IPEIAUPxGeomRaycastHit@2@IV?$PxFlags@W4Enum@PxGeometryQueryFlag@physx@@I@2@PEAUPxQueryThreadContext@2@@Z 0000000180013870 f   GuGeometryQuery.obj
 0001:00012970       ?reduceManifoldContactsInDifferentPatches@MultiplePersistentContactManifold@Gu@physx@@QEAAIPEAPEAUPCMContactPatch@23@IPEAVMeshPersistentContact@23@IAEBT__m128@@@Z 0000000180013970 f i GuGeometryQuery.obj
 0001:00012ae0       ?refineContactPatchConnective@MultiplePersistentContactManifold@Gu@physx@@QEAAXPEAPEAUPCMContactPatch@23@IPEAVMeshPersistentContact@23@AEBT__m128@@@Z 0000000180013ae0 f i GuGeometryQuery.obj
 0001:00012bd0       ?refreshManifold@MultiplePersistentContactManifold@Gu@physx@@QEAAXAEBVPxMatTransformV@aos@3@AEBT__m128@@1@Z 0000000180013bd0 f i GuGeometryQuery.obj
 0001:00012cd0       ?setRelativeTransform@MultiplePersistentContactManifold@Gu@physx@@QEAAXAEBVPxTransformV@aos@3@@Z 0000000180013cd0 f i GuGeometryQuery.obj
 0001:00012ce0       ?supportVertexIndex@ConvexHullV@Gu@physx@@QEBAIAEBT__m128@@@Z 0000000180013ce0 f i GuGeometryQuery.obj
 0001:00012f60       ?sweep@PxGeometryQuery@physx@@SA_NAEBV?$PxVec3T@M@2@MAEBVPxGeometry@2@AEBV?$PxTransformT@M@2@12AEAUPxGeomSweepHit@2@V?$PxFlags@W4Enum@PxHitFlag@physx@@G@2@MV?$PxFlags@W4Enum@PxGeometryQueryFlag@physx@@I@2@PEAUPxQueryThreadContext@2@@Z 0000000180013f60 f   GuGeometryQuery.obj
 0001:000133f0       ?toBuffer@MultiplePersistentContactManifold@Gu@physx@@QEAAXPEIAE@Z 00000001800143f0 f i GuGeometryQuery.obj
 0001:000134d0       ?computeBoxPoints@Gu@physx@@YAXAEBVPxBounds3@2@PEIAV?$PxVec3T@M@2@@Z 00000001800144d0 f   GuInternal.obj
 0001:00013570       ?computeSweptBox@Gu@physx@@YAXAEAVBox@12@AEBV?$PxVec3T@M@2@1AEBV?$PxMat33T@M@2@1M@Z 0000000180014570 f   GuInternal.obj
 0001:00013ab0       ?getPlane@Gu@physx@@YA?AVPxPlane@2@AEBV?$PxTransformT@M@2@@Z 0000000180014ab0 f   GuInternal.obj
 0001:00013f00       ??_ECallbackRaycast@RTree@Gu@physx@@UEAAPEAXI@Z 0000000180014f00 f i GuMidphaseRTree.obj
 0001:00013f00       ??_ECallbackRefit@RTree@Gu@physx@@UEAAPEAXI@Z 0000000180014f00 f i GuTriangleMeshRTree.obj
 0001:00013f00       ??_EPxInsertionCallback@physx@@MEAAPEAXI@Z 0000000180014f00 f i GuMeshFactory.obj
 0001:00013f00       ??_GCallbackRaycast@RTree@Gu@physx@@UEAAPEAXI@Z 0000000180014f00 f i GuMidphaseRTree.obj
 0001:00013f00       ??_GCallbackRefit@RTree@Gu@physx@@UEAAPEAXI@Z 0000000180014f00 f i GuTriangleMeshRTree.obj
 0001:00013f00       ??_GPxInsertionCallback@physx@@MEAAPEAXI@Z 0000000180014f00 f i GuMeshFactory.obj
 0001:00013f30       ??$copy@V?$PxReflectionAllocator@USlab@NodeAllocator@Gu@physx@@@physx@@@?$PxArray@USlab@NodeAllocator@Gu@physx@@V?$PxReflectionAllocator@USlab@NodeAllocator@Gu@physx@@@4@@physx@@IEAAXAEBV01@@Z 0000000180014f30 f i GuMeshFactory.obj
 0001:00013ff0       ??0AABBTreeBounds@Gu@physx@@QEAA@XZ 0000000180014ff0 f i GuMeshFactory.obj
 0001:00014000       ??0AABBTreeBuildNode@Gu@physx@@QEAA@AEBV012@@Z 0000000180015000 f i GuMeshFactory.obj
 0001:00014000       ??4AABBTreeBuildNode@Gu@physx@@QEAAAEAV012@AEBV012@@Z 0000000180015000 f i GuMeshFactory.obj
 0001:00014040       ??0AABBTreeBuildParams@Gu@physx@@QEAA@IIPEBVAABBTreeBounds@12@W4BVHBuildStrategy@12@@Z 0000000180015040 f i GuMeshFactory.obj
 0001:00014060       ??0MeshFactory@Gu@physx@@QEAA@XZ 0000000180015060 f   GuMeshFactory.obj
 0001:00014260       ??0NodeAllocator@Gu@physx@@QEAA@AEBV012@@Z 0000000180015260 f i GuMeshFactory.obj
 0001:000142a0       ??0TriangleMeshData@Gu@physx@@QEAA@XZ 00000001800152a0 f i GuMeshFactory.obj
 0001:000143b0       ??1AABBTreeBounds@Gu@physx@@QEAA@XZ 00000001800153b0 f i GuMeshFactory.obj
 0001:000143c0       ??1AABBTreeBuildParams@Gu@physx@@QEAA@XZ 00000001800153c0 f i GuMeshFactory.obj
 0001:000143c0       ?reset@AABBTreeBuildParams@Gu@physx@@QEAAXXZ 00000001800153c0 f i GuMeshFactory.obj
 0001:00014410       ??1CollisionMeshMappingData@Gu@physx@@UEAA@XZ 0000000180015410 f i GuMeshFactory.obj
 0001:00014560       ??1MeshDataBase@Gu@physx@@UEAA@XZ 0000000180015560 f i GuMeshFactory.obj
 0001:000146a0       ??1MeshFactory@Gu@physx@@MEAA@XZ 00000001800156a0 f   GuMeshFactory.obj
 0001:000147e0       ??1RTreeTriangleData@Gu@physx@@UEAA@XZ 00000001800157e0 f i GuMeshFactory.obj
 0001:00014850       ??1SoftBodyCollisionData@Gu@physx@@UEAA@XZ 0000000180015850 f i GuMeshFactory.obj
 0001:00014990       ??1SoftBodySimulationData@Gu@physx@@UEAA@XZ 0000000180015990 f i GuMeshFactory.obj
 0001:00014ab0       ??1TetrahedronMeshData@Gu@physx@@QEAA@XZ 0000000180015ab0 f i GuMeshFactory.obj
 0001:00014b40       ??1TriangleMeshData@Gu@physx@@UEAA@XZ 0000000180015b40 f i GuMeshFactory.obj
 0001:00014c70       ??4NodeAllocator@Gu@physx@@QEAAAEAV012@AEBV012@@Z 0000000180015c70 f i GuMeshFactory.obj
 0001:00014d20       ??_EMeshFactory@Gu@physx@@MEAAPEAXI@Z 0000000180015d20 f i GuMeshFactory.obj
 0001:00014e40       ??_FAABBTreeBuildParams@Gu@physx@@QEAAXXZ 0000000180015e40 f i GuMeshFactory.obj
 0001:00014e60       ??_EBV4TriangleData@Gu@physx@@UEAAPEAXI@Z 0000000180015e60 f i GuMeshFactory.obj
 0001:00014e60       ??_GBV4TriangleData@Gu@physx@@UEAAPEAXI@Z 0000000180015e60 f i GuMeshFactory.obj
 0001:00014ef0       ??_ECollisionMeshMappingData@Gu@physx@@UEAAPEAXI@Z 0000000180015ef0 f i GuMeshFactory.obj
 0001:00014ef0       ??_GCollisionMeshMappingData@Gu@physx@@UEAAPEAXI@Z 0000000180015ef0 f i GuMeshFactory.obj
 0001:00014f60       ??_EMeshDataBase@Gu@physx@@UEAAPEAXI@Z 0000000180015f60 f i GuMeshFactory.obj
 0001:00014f60       ??_GMeshDataBase@Gu@physx@@UEAAPEAXI@Z 0000000180015f60 f i GuMeshFactory.obj
 0001:00014fd0       ??_EPxCollisionMeshMappingData@physx@@UEAAPEAXI@Z 0000000180015fd0 f i GuMeshFactory.obj
 0001:00014fd0       ??_GPxCollisionMeshMappingData@physx@@UEAAPEAXI@Z 0000000180015fd0 f i GuMeshFactory.obj
 0001:00015020       ??_ERTreeTriangleData@Gu@physx@@UEAAPEAXI@Z 0000000180016020 f i GuMeshFactory.obj
 0001:00015020       ??_GRTreeTriangleData@Gu@physx@@UEAAPEAXI@Z 0000000180016020 f i GuMeshFactory.obj
 0001:000150d0       ??_ESoftBodyCollisionData@Gu@physx@@UEAAPEAXI@Z 00000001800160d0 f i GuMeshFactory.obj
 0001:000150d0       ??_GSoftBodyCollisionData@Gu@physx@@UEAAPEAXI@Z 00000001800160d0 f i GuMeshFactory.obj
 0001:00015140       ??_ESoftBodySimulationData@Gu@physx@@UEAAPEAXI@Z 0000000180016140 f i GuMeshFactory.obj
 0001:00015140       ??_GSoftBodySimulationData@Gu@physx@@UEAAPEAXI@Z 0000000180016140 f i GuMeshFactory.obj
 0001:000151b0       ??_ETriangleMeshData@Gu@physx@@UEAAPEAXI@Z 00000001800161b0 f i GuMeshFactory.obj
 0001:000151b0       ??_GTriangleMeshData@Gu@physx@@UEAAPEAXI@Z 00000001800161b0 f i GuMeshFactory.obj
 0001:00015220       ??_V@YAXPEAX_K@Z           0000000180016220 f i LIBCMT:delete_array_size.obj
 0001:00015220       ?__global_delete@@YAXPEAX_K@Z 0000000180016220 f i GuMeshFactory.obj
 0001:00015230       ?addBVH@MeshFactory@Gu@physx@@QEAAXPEAVBVH@23@_N@Z 0000000180016230 f   GuMeshFactory.obj
 0001:000152b0       ?addConvexMesh@MeshFactory@Gu@physx@@QEAAXPEAVConvexMesh@23@_N@Z 00000001800162b0 f   GuMeshFactory.obj
 0001:00015330       ?addFactoryListener@MeshFactory@Gu@physx@@QEAAXAEAVMeshFactoryListener@23@@Z 0000000180016330 f   GuMeshFactory.obj
 0001:000153a0       ?addHeightField@MeshFactory@Gu@physx@@QEAAXPEAVHeightField@23@_N@Z 00000001800163a0 f   GuMeshFactory.obj
 0001:00015420       ?addSoftBodyMesh@MeshFactory@Gu@physx@@QEAAXPEAVSoftBodyMesh@23@_N@Z 0000000180016420 f   GuMeshFactory.obj
 0001:000154a0       ?addTetrahedronMesh@MeshFactory@Gu@physx@@QEAAXPEAVTetrahedronMesh@23@_N@Z 00000001800164a0 f   GuMeshFactory.obj
 0001:00015520       ?addTriangleMesh@MeshFactory@Gu@physx@@QEAAXPEAVTriangleMesh@23@_N@Z 0000000180016520 f   GuMeshFactory.obj
 0001:000155a0       ?allocate@?$PxArray@USlab@NodeAllocator@Gu@physx@@V?$PxReflectionAllocator@USlab@NodeAllocator@Gu@physx@@@4@@physx@@IEAAPEAUSlab@NodeAllocator@Gu@2@I@Z 00000001800165a0 f i GuMeshFactory.obj
 0001:00015630       ?allocateAdjacencies@TriangleMeshData@Gu@physx@@QEAAPEAIXZ 0000000180016630 f i GuMeshFactory.obj
 0001:000156a0       ?allocateExtraTrigData@TriangleMeshData@Gu@physx@@QEAAPEAEXZ 00000001800166a0 f i GuMeshFactory.obj
 0001:00015710       ?allocateFaceRemap@TriangleMeshData@Gu@physx@@QEAAPEAIXZ 0000000180016710 f i GuMeshFactory.obj
 0001:00015780       ?allocateGridModelData@SoftBodySimulationData@Gu@physx@@QEAAXIIIIIII@Z 0000000180016780 f i GuMeshFactory.obj
 0001:000159f0       ?allocateMaterials@TetrahedronMeshData@Gu@physx@@QEAAPEAGXZ 00000001800169f0 f i GuMeshFactory.obj
 0001:00015a60       ?allocateMaterials@TriangleMeshData@Gu@physx@@QEAAPEAGXZ 0000000180016a60 f i GuMeshFactory.obj
 0001:00015ad0       ?allocateTetrahedrons@TetrahedronMeshData@Gu@physx@@QEAAXII@Z 0000000180016ad0 f i GuMeshFactory.obj
 0001:00015b60       ?allocateTriangles@TriangleMeshData@Gu@physx@@QEAAPEAXI_NI@Z 0000000180016b60 f i GuMeshFactory.obj
 0001:00015c50       ?allocateVertices@MeshDataBase@Gu@physx@@QEAAPEAV?$PxVec3T@M@3@I@Z 0000000180016c50 f i GuMeshFactory.obj
 0001:00015cc0       ?allocateVertices@TetrahedronMeshData@Gu@physx@@QEAAPEAV?$PxVec3T@M@3@II@Z 0000000180016cc0 f i GuMeshFactory.obj
 0001:00015d60       ?allocatemappingData@CollisionMeshMappingData@Gu@physx@@QEAAXIIII@Z 0000000180016d60 f i GuMeshFactory.obj
 0001:00015f40       ?create@?$PxHashBase@PEAVBVH@Gu@physx@@PEAV123@U?$PxHash@PEAVBVH@Gu@physx@@@3@UGetKey@?$PxHashSetBase@PEAVBVH@Gu@physx@@U?$PxHash@PEAVBVH@Gu@physx@@@3@VPxAllocator@3@$00@3@VPxAllocator@3@$00@physx@@QEAAPEAPEAVBVH@Gu@2@AEBQEAV342@AEA_N@Z 0000000180016f40 f i GuMeshFactory.obj
 0001:00015f40       ?create@?$PxHashBase@PEAVConvexMesh@Gu@physx@@PEAV123@U?$PxHash@PEAVConvexMesh@Gu@physx@@@3@UGetKey@?$PxHashSetBase@PEAVConvexMesh@Gu@physx@@U?$PxHash@PEAVConvexMesh@Gu@physx@@@3@VPxAllocator@3@$00@3@VPxAllocator@3@$00@physx@@QEAAPEAPEAVConvexMesh@Gu@2@AEBQEAV342@AEA_N@Z 0000000180016f40 f i GuMeshFactory.obj
 0001:00015f40       ?create@?$PxHashBase@PEAVHeightField@Gu@physx@@PEAV123@U?$PxHash@PEAVHeightField@Gu@physx@@@3@UGetKey@?$PxHashSetBase@PEAVHeightField@Gu@physx@@U?$PxHash@PEAVHeightField@Gu@physx@@@3@VPxAllocator@3@$00@3@VPxAllocator@3@$00@physx@@QEAAPEAPEAVHeightField@Gu@2@AEBQEAV342@AEA_N@Z 0000000180016f40 f i GuMeshFactory.obj
 0001:00015f40       ?create@?$PxHashBase@PEAVSoftBodyMesh@Gu@physx@@PEAV123@U?$PxHash@PEAVSoftBodyMesh@Gu@physx@@@3@UGetKey@?$PxHashSetBase@PEAVSoftBodyMesh@Gu@physx@@U?$PxHash@PEAVSoftBodyMesh@Gu@physx@@@3@VPxAllocator@3@$00@3@VPxAllocator@3@$00@physx@@QEAAPEAPEAVSoftBodyMesh@Gu@2@AEBQEAV342@AEA_N@Z 0000000180016f40 f i GuMeshFactory.obj
 0001:00015f40       ?create@?$PxHashBase@PEAVTetrahedronMesh@Gu@physx@@PEAV123@U?$PxHash@PEAVTetrahedronMesh@Gu@physx@@@3@UGetKey@?$PxHashSetBase@PEAVTetrahedronMesh@Gu@physx@@U?$PxHash@PEAVTetrahedronMesh@Gu@physx@@@3@VPxAllocator@3@$00@3@VPxAllocator@3@$00@physx@@QEAAPEAPEAVTetrahedronMesh@Gu@2@AEBQEAV342@AEA_N@Z 0000000180016f40 f i GuMeshFactory.obj
 0001:00015f40       ?create@?$PxHashBase@PEAVTriangleMesh@Gu@physx@@PEAV123@U?$PxHash@PEAVTriangleMesh@Gu@physx@@@3@UGetKey@?$PxHashSetBase@PEAVTriangleMesh@Gu@physx@@U?$PxHash@PEAVTriangleMesh@Gu@physx@@@3@VPxAllocator@3@$00@3@VPxAllocator@3@$00@physx@@QEAAPEAPEAVTriangleMesh@Gu@2@AEBQEAV342@AEA_N@Z 0000000180016f40 f i GuMeshFactory.obj
 0001:000160d0       ?createBVH@MeshFactory@Gu@physx@@IEAAPEAVPxBVH@3@AEAVBVHData@23@@Z 00000001800170d0 f   GuMeshFactory.obj
 0001:000161c0       ?createBVH@MeshFactory@Gu@physx@@QEAAPEAVPxBVH@3@AEAVPxInputStream@3@@Z 00000001800171c0 f   GuMeshFactory.obj
 0001:000162e0       ?createBVH@MeshFactory@Gu@physx@@QEAAPEAVPxBVH@3@PEAX@Z 00000001800172e0 f   GuMeshFactory.obj
 0001:000162f0       ?createConvexMesh@MeshFactory@Gu@physx@@IEAAPEAVPxConvexMesh@3@AEAUConvexHullInitData@23@@Z 00000001800172f0 f   GuMeshFactory.obj
 0001:000163e0       ?createConvexMesh@MeshFactory@Gu@physx@@QEAAPEAVPxConvexMesh@3@AEAVPxInputStream@3@@Z 00000001800173e0 f   GuMeshFactory.obj
 0001:000164f0       ?createConvexMesh@MeshFactory@Gu@physx@@QEAAPEAVPxConvexMesh@3@PEAX@Z 00000001800174f0 f   GuMeshFactory.obj
 0001:00016500       ?createHeightField@MeshFactory@Gu@physx@@QEAAPEAVPxHeightField@3@AEAVPxInputStream@3@@Z 0000000180017500 f   GuMeshFactory.obj
 0001:00016610       ?createHeightField@MeshFactory@Gu@physx@@QEAAPEAVPxHeightField@3@PEAX@Z 0000000180017610 f   GuMeshFactory.obj
 0001:00016700       ?createSoftBodyMesh@MeshFactory@Gu@physx@@IEAAPEAVPxSoftBodyMesh@3@AEAVSoftBodyMeshData@23@@Z 0000000180017700 f   GuMeshFactory.obj
 0001:000167f0       ?createSoftBodyMesh@MeshFactory@Gu@physx@@QEAAPEAVPxSoftBodyMesh@3@AEAVPxInputStream@3@@Z 00000001800177f0 f   GuMeshFactory.obj
 0001:00016df0       ?createSoftBodyMesh@MeshFactory@Gu@physx@@QEAAPEAVPxSoftBodyMesh@3@PEAX@Z 0000000180017df0 f   GuMeshFactory.obj
 0001:00016e00       ?createTetrahedronMesh@MeshFactory@Gu@physx@@IEAAPEAVPxTetrahedronMesh@3@AEAVTetrahedronMeshData@23@@Z 0000000180017e00 f   GuMeshFactory.obj
 0001:00016ef0       ?createTetrahedronMesh@MeshFactory@Gu@physx@@QEAAPEAVPxTetrahedronMesh@3@AEAVPxInputStream@3@@Z 0000000180017ef0 f   GuMeshFactory.obj
 0001:00016f60       ?createTetrahedronMesh@MeshFactory@Gu@physx@@QEAAPEAVPxTetrahedronMesh@3@PEAX@Z 0000000180017f60 f   GuMeshFactory.obj
 0001:00016f70       ?createTriangleMesh@MeshFactory@Gu@physx@@IEAAPEAVPxTriangleMesh@3@AEAVTriangleMeshData@23@@Z 0000000180017f70 f   GuMeshFactory.obj
 0001:000170f0       ?createTriangleMesh@MeshFactory@Gu@physx@@QEAAPEAVPxTriangleMesh@3@AEAVPxInputStream@3@@Z 00000001800180f0 f   GuMeshFactory.obj
 0001:00017150       ?createTriangleMesh@MeshFactory@Gu@physx@@QEAAPEAVPxTriangleMesh@3@PEAX@Z 0000000180018150 f   GuMeshFactory.obj
 0001:00017160       ?erase@?$PxHashBase@PEAVBVH@Gu@physx@@PEAV123@U?$PxHash@PEAVBVH@Gu@physx@@@3@UGetKey@?$PxHashSetBase@PEAVBVH@Gu@physx@@U?$PxHash@PEAVBVH@Gu@physx@@@3@VPxAllocator@3@$00@3@VPxAllocator@3@$00@physx@@QEAA_NAEBQEAVBVH@Gu@2@@Z 0000000180018160 f i GuMeshFactory.obj
 0001:00017160       ?erase@?$PxHashBase@PEAVConvexMesh@Gu@physx@@PEAV123@U?$PxHash@PEAVConvexMesh@Gu@physx@@@3@UGetKey@?$PxHashSetBase@PEAVConvexMesh@Gu@physx@@U?$PxHash@PEAVConvexMesh@Gu@physx@@@3@VPxAllocator@3@$00@3@VPxAllocator@3@$00@physx@@QEAA_NAEBQEAVConvexMesh@Gu@2@@Z 0000000180018160 f i GuMeshFactory.obj
 0001:00017160       ?erase@?$PxHashBase@PEAVHeightField@Gu@physx@@PEAV123@U?$PxHash@PEAVHeightField@Gu@physx@@@3@UGetKey@?$PxHashSetBase@PEAVHeightField@Gu@physx@@U?$PxHash@PEAVHeightField@Gu@physx@@@3@VPxAllocator@3@$00@3@VPxAllocator@3@$00@physx@@QEAA_NAEBQEAVHeightField@Gu@2@@Z 0000000180018160 f i GuMeshFactory.obj
 0001:00017160       ?erase@?$PxHashBase@PEAVSoftBodyMesh@Gu@physx@@PEAV123@U?$PxHash@PEAVSoftBodyMesh@Gu@physx@@@3@UGetKey@?$PxHashSetBase@PEAVSoftBodyMesh@Gu@physx@@U?$PxHash@PEAVSoftBodyMesh@Gu@physx@@@3@VPxAllocator@3@$00@3@VPxAllocator@3@$00@physx@@QEAA_NAEBQEAVSoftBodyMesh@Gu@2@@Z 0000000180018160 f i GuMeshFactory.obj
 0001:00017160       ?erase@?$PxHashBase@PEAVTetrahedronMesh@Gu@physx@@PEAV123@U?$PxHash@PEAVTetrahedronMesh@Gu@physx@@@3@UGetKey@?$PxHashSetBase@PEAVTetrahedronMesh@Gu@physx@@U?$PxHash@PEAVTetrahedronMesh@Gu@physx@@@3@VPxAllocator@3@$00@3@VPxAllocator@3@$00@physx@@QEAA_NAEBQEAVTetrahedronMesh@Gu@2@@Z 0000000180018160 f i GuMeshFactory.obj
 0001:00017160       ?erase@?$PxHashBase@PEAVTriangleMesh@Gu@physx@@PEAV123@U?$PxHash@PEAVTriangleMesh@Gu@physx@@@3@UGetKey@?$PxHashSetBase@PEAVTriangleMesh@Gu@physx@@U?$PxHash@PEAVTriangleMesh@Gu@physx@@@3@VPxAllocator@3@$00@3@VPxAllocator@3@$00@physx@@QEAA_NAEBQEAVTriangleMesh@Gu@2@@Z 0000000180018160 f i GuMeshFactory.obj
 0001:000172e0       ?getBVHs@MeshFactory@Gu@physx@@QEBAIPEAPEAVPxBVH@3@II@Z 00000001800182e0 f   GuMeshFactory.obj
 0001:00017380       ?getBounds@AABBTreeBounds@Gu@physx@@QEAAPEAVPxBounds3@3@XZ 0000000180018380 f i GuMeshFactory.obj
 0001:00017380       ?getBounds@AABBTreeBounds@Gu@physx@@QEBAPEBVPxBounds3@3@XZ 0000000180018380 f i GuMeshFactory.obj
 0001:00017390       ?getConvexMeshes@MeshFactory@Gu@physx@@QEBAIPEAPEAVPxConvexMesh@3@II@Z 0000000180018390 f   GuMeshFactory.obj
 0001:00017430       ?getHeightFields@MeshFactory@Gu@physx@@QEBAIPEAPEAVPxHeightField@3@II@Z 0000000180018430 f   GuMeshFactory.obj
 0001:000174d0       ?getNbBVHs@MeshFactory@Gu@physx@@QEBAIXZ 00000001800184d0 f   GuMeshFactory.obj
 0001:00017510       ?getNbConvexMeshes@MeshFactory@Gu@physx@@QEBAIXZ 0000000180018510 f   GuMeshFactory.obj
 0001:00017550       ?getNbHeightFields@MeshFactory@Gu@physx@@QEBAIXZ 0000000180018550 f   GuMeshFactory.obj
 0001:00017590       ?getNbPrimitives@AABBTreeBuildNode@Gu@physx@@QEBAIXZ 0000000180018590 f i GuMeshFactory.obj
 0001:00017590       ?getNbRuntimePrimitives@AABBTreeBuildNode@Gu@physx@@QEBAIXZ 0000000180018590 f i GuMeshFactory.obj
 0001:000175a0       ?getNbSoftBodyMeshes@MeshFactory@Gu@physx@@QEBAIXZ 00000001800185a0 f   GuMeshFactory.obj
 0001:000175e0       ?getNbTetrahedronMeshes@MeshFactory@Gu@physx@@QEBAIXZ 00000001800185e0 f   GuMeshFactory.obj
 0001:00017620       ?getNbTriangleMeshes@MeshFactory@Gu@physx@@QEBAIXZ 0000000180018620 f   GuMeshFactory.obj
 0001:00017660       ?getNeg@AABBTreeBuildNode@Gu@physx@@QEBAPEBV123@XZ 0000000180018660 f i GuMeshFactory.obj
 0001:00017680       ?getPrimitives@AABBTreeBuildNode@Gu@physx@@QEAAPEAIPEAI@Z 0000000180018680 f i GuMeshFactory.obj
 0001:00017680       ?getPrimitives@AABBTreeBuildNode@Gu@physx@@QEBAPEBIPEBI@Z 0000000180018680 f i GuMeshFactory.obj
 0001:00017690       ?getSoftBodyMeshes@MeshFactory@Gu@physx@@QEBAIPEAPEAVPxSoftBodyMesh@3@II@Z 0000000180018690 f   GuMeshFactory.obj
 0001:00017730       ?getTetrahedronMeshes@MeshFactory@Gu@physx@@QEBAIPEAPEAVPxTetrahedronMesh@3@II@Z 0000000180018730 f   GuMeshFactory.obj
 0001:000177c0       ?getTriangleMeshes@MeshFactory@Gu@physx@@QEBAIPEAPEAVPxTriangleMesh@3@II@Z 00000001800187c0 f   GuMeshFactory.obj
 0001:00017850       ?growAndPushBack@?$PxArray@PEAVMeshFactoryListener@Gu@physx@@V?$PxReflectionAllocator@PEAVMeshFactoryListener@Gu@physx@@@3@@physx@@IEAAAEAPEAVMeshFactoryListener@Gu@2@AEBQEAV342@@Z 0000000180018850 f i GuMeshFactory.obj
 0001:00017970       ?isLeaf@AABBTreeBuildNode@Gu@physx@@QEBA_NXZ 0000000180018970 f i GuMeshFactory.obj
 0001:00019430       ?moveFrom@AABBTreeBounds@Gu@physx@@QEAAXAEAV123@@Z 000000018001a430 f i GuMeshFactory.obj
 0001:00019440       ?notifyFactoryListener@MeshFactory@Gu@physx@@QEAAXPEBVPxBase@3@G@Z 000000018001a440 f   GuMeshFactory.obj
 0001:000194b0       ?ownsMemory@AABBTreeBounds@Gu@physx@@QEBA_NXZ 000000018001a4b0 f i GuMeshFactory.obj
 0001:00019790       ?recreate@?$PxArray@USlab@NodeAllocator@Gu@physx@@V?$PxReflectionAllocator@USlab@NodeAllocator@Gu@physx@@@4@@physx@@IEAAXI@Z 000000018001a790 f i GuMeshFactory.obj
 0001:00019840       ?release@CollisionMeshMappingData@Gu@physx@@UEAAXXZ 000000018001a840 f i GuMeshFactory.obj
 0001:00019860       ?release@MeshFactory@Gu@physx@@QEAAXXZ 000000018001a860 f   GuMeshFactory.obj
 0001:00019960       ?remove@MeshFactory@Gu@physx@@QEAA_NAEAVPxBase@3@@Z 000000018001a960 f   GuMeshFactory.obj
 0001:00019a60       ?removeBVH@MeshFactory@Gu@physx@@QEAA_NAEAVPxBVH@3@@Z 000000018001aa60 f   GuMeshFactory.obj
 0001:00019ab0       ?removeConvexMesh@MeshFactory@Gu@physx@@QEAA_NAEAVPxConvexMesh@3@@Z 000000018001aab0 f   GuMeshFactory.obj
 0001:00019b00       ?removeFactoryListener@MeshFactory@Gu@physx@@QEAAXAEAVMeshFactoryListener@23@@Z 000000018001ab00 f   GuMeshFactory.obj
 0001:00019b90       ?removeHeightField@MeshFactory@Gu@physx@@QEAA_NAEAVPxHeightField@3@@Z 000000018001ab90 f   GuMeshFactory.obj
 0001:00019be0       ?removeSoftBodyMesh@MeshFactory@Gu@physx@@QEAA_NAEAVPxSoftBodyMesh@3@@Z 000000018001abe0 f   GuMeshFactory.obj
 0001:00019c30       ?removeTetrahedronMesh@MeshFactory@Gu@physx@@QEAA_NAEAVPxTetrahedronMesh@3@@Z 000000018001ac30 f   GuMeshFactory.obj
 0001:00019c80       ?removeTriangleMesh@MeshFactory@Gu@physx@@QEAA_NAEAVPxTriangleMesh@3@@Z 000000018001ac80 f   GuMeshFactory.obj
 0001:00019cd0       ?reserveInternal@?$PxHashBase@PEAVBVH@Gu@physx@@PEAV123@U?$PxHash@PEAVBVH@Gu@physx@@@3@UGetKey@?$PxHashSetBase@PEAVBVH@Gu@physx@@U?$PxHash@PEAVBVH@Gu@physx@@@3@VPxAllocator@3@$00@3@VPxAllocator@3@$00@physx@@AEAAXI@Z 000000018001acd0 f i GuMeshFactory.obj
 0001:00019cd0       ?reserveInternal@?$PxHashBase@PEAVConvexMesh@Gu@physx@@PEAV123@U?$PxHash@PEAVConvexMesh@Gu@physx@@@3@UGetKey@?$PxHashSetBase@PEAVConvexMesh@Gu@physx@@U?$PxHash@PEAVConvexMesh@Gu@physx@@@3@VPxAllocator@3@$00@3@VPxAllocator@3@$00@physx@@AEAAXI@Z 000000018001acd0 f i GuMeshFactory.obj
 0001:00019cd0       ?reserveInternal@?$PxHashBase@PEAVHeightField@Gu@physx@@PEAV123@U?$PxHash@PEAVHeightField@Gu@physx@@@3@UGetKey@?$PxHashSetBase@PEAVHeightField@Gu@physx@@U?$PxHash@PEAVHeightField@Gu@physx@@@3@VPxAllocator@3@$00@3@VPxAllocator@3@$00@physx@@AEAAXI@Z 000000018001acd0 f i GuMeshFactory.obj
 0001:00019cd0       ?reserveInternal@?$PxHashBase@PEAVSoftBodyMesh@Gu@physx@@PEAV123@U?$PxHash@PEAVSoftBodyMesh@Gu@physx@@@3@UGetKey@?$PxHashSetBase@PEAVSoftBodyMesh@Gu@physx@@U?$PxHash@PEAVSoftBodyMesh@Gu@physx@@@3@VPxAllocator@3@$00@3@VPxAllocator@3@$00@physx@@AEAAXI@Z 000000018001acd0 f i GuMeshFactory.obj
 0001:00019cd0       ?reserveInternal@?$PxHashBase@PEAVTetrahedronMesh@Gu@physx@@PEAV123@U?$PxHash@PEAVTetrahedronMesh@Gu@physx@@@3@UGetKey@?$PxHashSetBase@PEAVTetrahedronMesh@Gu@physx@@U?$PxHash@PEAVTetrahedronMesh@Gu@physx@@@3@VPxAllocator@3@$00@3@VPxAllocator@3@$00@physx@@AEAAXI@Z 000000018001acd0 f i GuMeshFactory.obj
 0001:00019cd0       ?reserveInternal@?$PxHashBase@PEAVTriangleMesh@Gu@physx@@PEAV123@U?$PxHash@PEAVTriangleMesh@Gu@physx@@@3@UGetKey@?$PxHashSetBase@PEAVTriangleMesh@Gu@physx@@U?$PxHash@PEAVTriangleMesh@Gu@physx@@@3@VPxAllocator@3@$00@3@VPxAllocator@3@$00@physx@@AEAAXI@Z 000000018001acd0 f i GuMeshFactory.obj
 0001:00019ea0       ?setBounds@AABBTreeBounds@Gu@physx@@QEAAXPEAVPxBounds3@3@@Z 000000018001aea0 f i GuMeshFactory.obj
 0001:00019eb0       ?setNbRunTimePrimitives@AABBTreeBuildNode@Gu@physx@@QEAAXI@Z 000000018001aeb0 f i GuMeshFactory.obj
 0001:00019ec0       ?takeOwnership@AABBTreeBounds@Gu@physx@@QEAAXXZ 000000018001aec0 f i GuMeshFactory.obj
 0001:00019ed0       getInsertionCallback       000000018001aed0 f   GuMeshFactory.obj
 0001:00019ee0       ??4BigConvexData@physx@@QEAAAEAV01@AEBV01@@Z 000000018001aee0 f i GuMetaData.obj
 0001:00019f00       ?GetAdjacentVerts@BigConvexData@physx@@QEBAPEBEXZ 000000018001af00 f i GuMetaData.obj
 0001:00019f00       ?getSoftBodyAuxData@SoftBodyMesh@Gu@physx@@UEAAPEAVPxSoftBodyAuxData@3@XZ 000000018001af00 f i GuTetrahedronMesh.obj
 0001:00019f00       ?getSoftBodyAuxData@SoftBodyMesh@Gu@physx@@UEBAPEBVPxSoftBodyAuxData@3@XZ 000000018001af00 f i GuTetrahedronMesh.obj
 0001:00019f00       ?getTransforms@PruningPool@Gu@physx@@QEAAPEAV?$PxTransformT@M@3@XZ 000000018001af00 f i GuIncrementalAABBPrunerCore.obj
 0001:00019f00       ?getTransforms@PruningPool@Gu@physx@@QEBAPEBV?$PxTransformT@M@3@XZ 000000018001af00 f i GuIncrementalAABBPrunerCore.obj
 0001:00019f00       ?getTriangles@TriangleMesh@Gu@physx@@UEBAPEBXXZ 000000018001af00 f i GuTriangleMesh.obj
 0001:00019f10       ?GetNbNeighbors@BigConvexData@physx@@QEBAGI@Z 000000018001af10 f i GuMetaData.obj
 0001:00019f10       ?GetValency@BigConvexData@physx@@QEBAGI@Z 000000018001af10 f i GuMetaData.obj
 0001:00019f20       ?GetNbSamples@BigConvexData@physx@@QEBAIXZ 000000018001af20 f i GuMetaData.obj
 0001:00019f30       ?GetNbVerts@BigConvexData@physx@@QEBAIXZ 000000018001af30 f i GuMetaData.obj
 0001:00019f30       ?getNbVertices@TetrahedronMesh@Gu@physx@@UEBAIXZ 000000018001af30 f i GuTetrahedronMesh.obj
 0001:00019f30       ?getNbVertices@TriangleMesh@Gu@physx@@UEBAIXZ 000000018001af30 f i GuTriangleMesh.obj
 0001:00019f30       ?length@pcharNode@@UEBAHXZ 000000018001af30 f i libvcruntime:undname.obj
 0001:00019f30       ?raw_length@pcharNode@@UEBAHXZ 000000018001af30 f i libvcruntime:undname.obj
 0001:00019f40       ?GetNeighbors@BigConvexData@physx@@QEBAPEBEI@Z 000000018001af40 f i GuMetaData.obj
 0001:00019f50       ?GetOffset@BigConvexData@physx@@QEBAGI@Z 000000018001af50 f i GuMetaData.obj
 0001:00019f60       ?GetSubdiv@BigConvexData@physx@@QEBAIXZ 000000018001af60 f i GuMetaData.obj
 0001:00019f70       ?getBinaryMetaData@BV4Tree@Gu@physx@@SAXAEAVPxOutputStream@3@@Z 000000018001af70 f   GuMetaData.obj
 0001:0001a510       ?getBinaryMetaData@BV4TriangleMesh@Gu@physx@@SAXAEAVPxOutputStream@3@@Z 000000018001b510 f   GuMetaData.obj
 0001:0001a890       ?getBinaryMetaData@BigConvexData@physx@@SAXAEAVPxOutputStream@2@@Z 000000018001b890 f   GuMetaData.obj
 0001:0001ab50       ?getBinaryMetaData@ConvexMesh@Gu@physx@@SAXAEAVPxOutputStream@3@@Z 000000018001bb50 f   GuMetaData.obj
 0001:0001b1e0       ?getBinaryMetaData@HeightField@Gu@physx@@SAXAEAVPxOutputStream@3@@Z 000000018001c1e0 f   GuMetaData.obj
 0001:0001b5d0       ?getBinaryMetaData@RTree@Gu@physx@@SAXAEAVPxOutputStream@3@@Z 000000018001c5d0 f   GuMetaData.obj
 0001:0001b900       ?getBinaryMetaData@RTreeTriangleMesh@Gu@physx@@SAXAEAVPxOutputStream@3@@Z 000000018001c900 f   GuMetaData.obj
 0001:0001b9e0       ?getBinaryMetaData@TriangleMesh@Gu@physx@@SAXAEAVPxOutputStream@3@@Z 000000018001c9e0 f   GuMetaData.obj
 0001:0001d520       ?doSupport@?$SupportLocalImpl@VConvexHullNoScaleV@Gu@physx@@@Gu@physx@@UEBA?AT__m128@@AEBT4@@Z 000000018001e520 f i GuMTD.obj
 0001:0001d570       ?doSupport@?$SupportLocalImpl@VConvexHullNoScaleV@Gu@physx@@@Gu@physx@@UEBAXAEBT__m128@@AEAT4@1@Z 000000018001e570 f i GuMTD.obj
 0001:0001d6f0       ?populateVerts@?$SupportLocalImpl@VConvexHullNoScaleV@Gu@physx@@@Gu@physx@@UEBAXPEBEIPEBV?$PxVec3T@M@3@PEAT__m128@@@Z 000000018001e6f0 f i GuMTD.obj
 0001:0001d730       ?getInternalData@TriangleMesh@Gu@physx@@UEBA_NAEAUPxTriangleMeshInternalData@3@_N@Z 000000018001e730 f   GuTriangleMesh.obj
 0001:0001d730       ?isDynamic@Pruner@Gu@physx@@UEBA_NXZ 000000018001e730 f   GuIncrementalAABBPruner.obj
 0001:0001f570       ??$gjk@U?$LocalConvex@VCapsuleV@Gu@physx@@@Gu@physx@@U?$LocalConvex@VConvexHullV@Gu@physx@@@23@@Gu@physx@@YA?AW4GjkStatus@01@AEBU?$LocalConvex@VCapsuleV@Gu@physx@@@01@AEBU?$LocalConvex@VConvexHullV@Gu@physx@@@01@AEBT__m128@@2AEAT5@333@Z 0000000180020570 f i GuMTD.obj
 0001:000202d0       ??0SeparatingAxes@Gu@physx@@QEAA@$$QEAV012@@Z 00000001800212d0 f i GuMTD.obj
 0001:000202d0       ??0SeparatingAxes@Gu@physx@@QEAA@AEBV012@@Z 00000001800212d0 f i GuMTD.obj
 0001:000203e0       ??0SeparatingAxes@Gu@physx@@QEAA@XZ 00000001800213e0 f i GuMTD.obj
 0001:000203f0       ??4SeparatingAxes@Gu@physx@@QEAAAEAV012@$$QEAV012@@Z 00000001800213f0 f i GuMTD.obj
 0001:000203f0       ??4SeparatingAxes@Gu@physx@@QEAAAEAV012@AEBV012@@Z 00000001800213f0 f i GuMTD.obj
 0001:00020500       ??_E?$LocalConvex@UCustomConvexV@@@Gu@physx@@UEAAPEAXI@Z 0000000180021500 f i GuGjkQuery.obj
 0001:00020500       ??_E?$LocalConvex@UPointConvexV@@@Gu@physx@@UEAAPEAXI@Z 0000000180021500 f i GuGjkQuery.obj
 0001:00020500       ??_E?$LocalConvex@VBoxV@Gu@physx@@@Gu@physx@@UEAAPEAXI@Z 0000000180021500 f i GuSweepTests.obj
 0001:00020500       ??_E?$LocalConvex@VCapsuleV@Gu@physx@@@Gu@physx@@UEAAPEAXI@Z 0000000180021500 f i GuMTD.obj
 0001:00020500       ??_E?$LocalConvex@VConvexHullNoScaleV@Gu@physx@@@Gu@physx@@UEAAPEAXI@Z 0000000180021500 f i GuPCMContactBoxConvex.obj
 0001:00020500       ??_E?$LocalConvex@VConvexHullV@Gu@physx@@@Gu@physx@@UEAAPEAXI@Z 0000000180021500 f i GuMTD.obj
 0001:00020500       ??_E?$LocalConvex@VTetrahedronV@Gu@physx@@@Gu@physx@@UEAAPEAXI@Z 0000000180021500 f i GuCookingTetrahedronMesh.obj
 0001:00020500       ??_E?$LocalConvex@VTriangleV@Gu@physx@@@Gu@physx@@UEAAPEAXI@Z 0000000180021500 f i GuSweepTests.obj
 0001:00020500       ??_EGjkConvex@Gu@physx@@UEAAPEAXI@Z 0000000180021500 f i GuMTD.obj
 0001:00020500       ??_G?$LocalConvex@UCustomConvexV@@@Gu@physx@@UEAAPEAXI@Z 0000000180021500 f i GuGjkQuery.obj
 0001:00020500       ??_G?$LocalConvex@UPointConvexV@@@Gu@physx@@UEAAPEAXI@Z 0000000180021500 f i GuGjkQuery.obj
 0001:00020500       ??_G?$LocalConvex@VBoxV@Gu@physx@@@Gu@physx@@UEAAPEAXI@Z 0000000180021500 f i GuSweepTests.obj
 0001:00020500       ??_G?$LocalConvex@VCapsuleV@Gu@physx@@@Gu@physx@@UEAAPEAXI@Z 0000000180021500 f i GuMTD.obj
 0001:00020500       ??_G?$LocalConvex@VConvexHullNoScaleV@Gu@physx@@@Gu@physx@@UEAAPEAXI@Z 0000000180021500 f i GuPCMContactBoxConvex.obj
 0001:00020500       ??_G?$LocalConvex@VConvexHullV@Gu@physx@@@Gu@physx@@UEAAPEAXI@Z 0000000180021500 f i GuMTD.obj
 0001:00020500       ??_G?$LocalConvex@VTetrahedronV@Gu@physx@@@Gu@physx@@UEAAPEAXI@Z 0000000180021500 f i GuCookingTetrahedronMesh.obj
 0001:00020500       ??_G?$LocalConvex@VTriangleV@Gu@physx@@@Gu@physx@@UEAAPEAXI@Z 0000000180021500 f i GuSweepTests.obj
 0001:00020500       ??_GGjkConvex@Gu@physx@@UEAAPEAXI@Z 0000000180021500 f i GuMTD.obj
 0001:00024690       ?getAxes@SeparatingAxes@Gu@physx@@QEBAPEBV?$PxVec3T@M@3@XZ 0000000180025690 f i GuMTD.obj
 0001:000246a0       ?getCenter@?$LocalConvex@UCustomConvexV@@@Gu@physx@@UEBA?AT__m128@@XZ 00000001800256a0 f i GuGjkQuery.obj
 0001:000246a0       ?getCenter@?$LocalConvex@UPointConvexV@@@Gu@physx@@UEBA?AT__m128@@XZ 00000001800256a0 f i GuGjkQuery.obj
 0001:000246a0       ?getCenter@?$LocalConvex@VBoxV@Gu@physx@@@Gu@physx@@UEBA?AT__m128@@XZ 00000001800256a0 f i GuSweepTests.obj
 0001:000246a0       ?getCenter@?$LocalConvex@VCapsuleV@Gu@physx@@@Gu@physx@@UEBA?AT__m128@@XZ 00000001800256a0 f i GuMTD.obj
 0001:000246a0       ?getCenter@?$LocalConvex@VConvexHullNoScaleV@Gu@physx@@@Gu@physx@@UEBA?AT__m128@@XZ 00000001800256a0 f i GuPCMContactBoxConvex.obj
 0001:000246a0       ?getCenter@?$LocalConvex@VConvexHullV@Gu@physx@@@Gu@physx@@UEBA?AT__m128@@XZ 00000001800256a0 f i GuMTD.obj
 0001:000246a0       ?getCenter@?$LocalConvex@VTetrahedronV@Gu@physx@@@Gu@physx@@UEBA?AT__m128@@XZ 00000001800256a0 f i GuCookingTetrahedronMesh.obj
 0001:000246a0       ?getCenter@?$LocalConvex@VTriangleV@Gu@physx@@@Gu@physx@@UEBA?AT__m128@@XZ 00000001800256a0 f i GuSweepTests.obj
 0001:000246b0       ?getCount@BuildStats@Gu@physx@@QEBAIXZ 00000001800256b0 f i GuBV4Build.obj
 0001:000246b0       ?getNbActiveObjects@PruningPool@Gu@physx@@QEBAIXZ 00000001800256b0 f i GuIncrementalAABBPrunerCore.obj
 0001:000246b0       ?getNumAxes@SeparatingAxes@Gu@physx@@QEBAIXZ 00000001800256b0 f i GuMTD.obj
 0001:000246c0       ?getSweepMargin@?$LocalConvex@VCapsuleV@Gu@physx@@@Gu@physx@@UEBA?AT__m128@@XZ 00000001800256c0 f i GuMTD.obj
 0001:000246c0       ?getSweepMargin@?$RelativeConvex@VCapsuleV@Gu@physx@@@Gu@physx@@UEBA?AT__m128@@XZ 00000001800256c0 f i GuCCDSweepPrimitives.obj
 0001:000246d0       ?getSweepMargin@?$LocalConvex@UCustomConvexV@@@Gu@physx@@UEBA?AT__m128@@XZ 00000001800256d0 f i GuGjkQuery.obj
 0001:000246d0       ?getSweepMargin@?$LocalConvex@UPointConvexV@@@Gu@physx@@UEBA?AT__m128@@XZ 00000001800256d0 f i GuGjkQuery.obj
 0001:000246d0       ?getSweepMargin@?$LocalConvex@VBoxV@Gu@physx@@@Gu@physx@@UEBA?AT__m128@@XZ 00000001800256d0 f i GuSweepTests.obj
 0001:000246d0       ?getSweepMargin@?$LocalConvex@VConvexHullNoScaleV@Gu@physx@@@Gu@physx@@UEBA?AT__m128@@XZ 00000001800256d0 f i GuPCMContactBoxConvex.obj
 0001:000246d0       ?getSweepMargin@?$LocalConvex@VConvexHullV@Gu@physx@@@Gu@physx@@UEBA?AT__m128@@XZ 00000001800256d0 f i GuMTD.obj
 0001:000246d0       ?getSweepMargin@?$RelativeConvex@UCustomConvexV@@@Gu@physx@@UEBA?AT__m128@@XZ 00000001800256d0 f i GuGjkQuery.obj
 0001:000246d0       ?getSweepMargin@?$RelativeConvex@VBoxV@Gu@physx@@@Gu@physx@@UEBA?AT__m128@@XZ 00000001800256d0 f i GuOverlapTests.obj
 0001:000246d0       ?getSweepMargin@?$RelativeConvex@VConvexHullNoScaleV@Gu@physx@@@Gu@physx@@UEBA?AT__m128@@XZ 00000001800256d0 f i GuPCMContactConvexConvex.obj
 0001:000246d0       ?getSweepMargin@?$RelativeConvex@VConvexHullV@Gu@physx@@@Gu@physx@@UEBA?AT__m128@@XZ 00000001800256d0 f i GuOverlapTests.obj
 0001:000246f0       ?getSweepMargin@GjkConvex@Gu@physx@@UEBA?AT__m128@@XZ 00000001800256f0 f i GuMTD.obj
 0001:00024710       ?pointConvexDistance@@YA_NAEAV?$PxVec3T@M@physx@@0AEAMAEBV12@PEBVConvexMesh@Gu@2@AEBVPxMeshScale@2@AEBUPxTransformPadded@2@@Z 0000000180025710 f   GuMTD.obj
 0001:00025470       ?reset@SeparatingAxes@Gu@physx@@QEAAXXZ 0000000180026470 f i GuMTD.obj
 0001:00025480       ?support@?$LocalConvex@VCapsuleV@Gu@physx@@@Gu@physx@@UEBA?AT__m128@@AEBT4@@Z 0000000180026480 f i GuMTD.obj
 0001:000254e0       ?support@?$LocalConvex@VCapsuleV@Gu@physx@@@Gu@physx@@UEBA?AT__m128@@AEBT4@AEAH@Z 00000001800264e0 f i GuMTD.obj
 0001:00025550       ?support@?$LocalConvex@VConvexHullV@Gu@physx@@@Gu@physx@@UEBA?AT__m128@@AEBT4@@Z 0000000180026550 f i GuMTD.obj
 0001:00025630       ?support@?$LocalConvex@VConvexHullV@Gu@physx@@@Gu@physx@@UEBA?AT__m128@@AEBT4@AEAH@Z 0000000180026630 f i GuMTD.obj
 0001:00025700       ?support@GjkConvex@Gu@physx@@UEBA?AT__m128@@AEBT4@@Z 0000000180026700 f i GuMTD.obj
 0001:00025720       ?support@GjkConvex@Gu@physx@@UEBA?AT__m128@@AEBT4@AEAH@Z 0000000180026720 f i GuMTD.obj
 0001:00025740       ?supportPoint@?$LocalConvex@VCapsuleV@Gu@physx@@@Gu@physx@@UEBA?AT__m128@@H@Z 0000000180026740 f i GuMTD.obj
 0001:00025770       ?supportPoint@?$LocalConvex@VConvexHullV@Gu@physx@@@Gu@physx@@UEBA?AT__m128@@H@Z 0000000180026770 f i GuMTD.obj
 0001:000257c0       ?supportPoint@GjkConvex@Gu@physx@@UEBA?AT__m128@@H@Z 00000001800267c0 f i GuMTD.obj
 0001:000257e0       ?supportPoint@?$RelativeConvex@VBoxV@Gu@physx@@@Gu@physx@@UEBA?AT__m128@@H@Z 00000001800267e0 f i GuOverlapTests.obj
 0001:00025850       ?support@?$RelativeConvex@VBoxV@Gu@physx@@@Gu@physx@@UEBA?AT__m128@@AEBT4@@Z 0000000180026850 f i GuOverlapTests.obj
 0001:000258d0       ?support@?$RelativeConvex@VBoxV@Gu@physx@@@Gu@physx@@UEBA?AT__m128@@AEBT4@AEAH@Z 00000001800268d0 f i GuOverlapTests.obj
 0001:00025960       ?getCenter@?$RelativeConvex@UCustomConvexV@@@Gu@physx@@UEBA?AT__m128@@XZ 0000000180026960 f i GuGjkQuery.obj
 0001:00025960       ?getCenter@?$RelativeConvex@VBoxV@Gu@physx@@@Gu@physx@@UEBA?AT__m128@@XZ 0000000180026960 f i GuOverlapTests.obj
 0001:00025960       ?getCenter@?$RelativeConvex@VCapsuleV@Gu@physx@@@Gu@physx@@UEBA?AT__m128@@XZ 0000000180026960 f i GuCCDSweepPrimitives.obj
 0001:00025960       ?getCenter@?$RelativeConvex@VConvexHullNoScaleV@Gu@physx@@@Gu@physx@@UEBA?AT__m128@@XZ 0000000180026960 f i GuPCMContactConvexConvex.obj
 0001:00025960       ?getCenter@?$RelativeConvex@VConvexHullV@Gu@physx@@@Gu@physx@@UEBA?AT__m128@@XZ 0000000180026960 f i GuOverlapTests.obj
 0001:00025960       ?getCenter@?$RelativeConvex@VTriangleV@Gu@physx@@@Gu@physx@@UEBA?AT__m128@@XZ 0000000180026960 f i GuCCDSweepPrimitives.obj
 0001:000259a0       ??_E?$RelativeConvex@UCustomConvexV@@@Gu@physx@@UEAAPEAXI@Z 00000001800269a0 f i GuGjkQuery.obj
 0001:000259a0       ??_E?$RelativeConvex@VBoxV@Gu@physx@@@Gu@physx@@UEAAPEAXI@Z 00000001800269a0 f i GuOverlapTests.obj
 0001:000259a0       ??_E?$RelativeConvex@VCapsuleV@Gu@physx@@@Gu@physx@@UEAAPEAXI@Z 00000001800269a0 f i GuCCDSweepPrimitives.obj
 0001:000259a0       ??_E?$RelativeConvex@VConvexHullNoScaleV@Gu@physx@@@Gu@physx@@UEAAPEAXI@Z 00000001800269a0 f i GuPCMContactConvexConvex.obj
 0001:000259a0       ??_E?$RelativeConvex@VConvexHullV@Gu@physx@@@Gu@physx@@UEAAPEAXI@Z 00000001800269a0 f i GuOverlapTests.obj
 0001:000259a0       ??_E?$RelativeConvex@VTriangleV@Gu@physx@@@Gu@physx@@UEAAPEAXI@Z 00000001800269a0 f i GuCCDSweepPrimitives.obj
 0001:000259a0       ??_G?$RelativeConvex@UCustomConvexV@@@Gu@physx@@UEAAPEAXI@Z 00000001800269a0 f i GuGjkQuery.obj
 0001:000259a0       ??_G?$RelativeConvex@VBoxV@Gu@physx@@@Gu@physx@@UEAAPEAXI@Z 00000001800269a0 f i GuOverlapTests.obj
 0001:000259a0       ??_G?$RelativeConvex@VCapsuleV@Gu@physx@@@Gu@physx@@UEAAPEAXI@Z 00000001800269a0 f i GuCCDSweepPrimitives.obj
 0001:000259a0       ??_G?$RelativeConvex@VConvexHullNoScaleV@Gu@physx@@@Gu@physx@@UEAAPEAXI@Z 00000001800269a0 f i GuPCMContactConvexConvex.obj
 0001:000259a0       ??_G?$RelativeConvex@VConvexHullV@Gu@physx@@@Gu@physx@@UEAAPEAXI@Z 00000001800269a0 f i GuOverlapTests.obj
 0001:000259a0       ??_G?$RelativeConvex@VTriangleV@Gu@physx@@@Gu@physx@@UEAAPEAXI@Z 00000001800269a0 f i GuCCDSweepPrimitives.obj
 0001:00027b50       ?supportPoint@?$RelativeConvex@VConvexHullV@Gu@physx@@@Gu@physx@@UEBA?AT__m128@@H@Z 0000000180028b50 f i GuOverlapTests.obj
 0001:00027bd0       ?support@?$RelativeConvex@VConvexHullV@Gu@physx@@@Gu@physx@@UEBA?AT__m128@@AEBT4@@Z 0000000180028bd0 f i GuOverlapTests.obj
 0001:00027d00       ?support@?$RelativeConvex@VConvexHullV@Gu@physx@@@Gu@physx@@UEBA?AT__m128@@AEBT4@AEAH@Z 0000000180028d00 f i GuOverlapTests.obj
 0001:00027e90       ??$gjk@U?$RelativeConvex@VBoxV@Gu@physx@@@Gu@physx@@U?$LocalConvex@VConvexHullV@Gu@physx@@@23@@Gu@physx@@YA?AW4GjkStatus@01@AEBU?$RelativeConvex@VBoxV@Gu@physx@@@01@AEBU?$LocalConvex@VConvexHullV@Gu@physx@@@01@AEBT__m128@@2AEAT5@333@Z 0000000180028e90 f i GuOverlapTests.obj
 0001:00028c40       ??$gjk@U?$RelativeConvex@VConvexHullV@Gu@physx@@@Gu@physx@@U?$LocalConvex@VConvexHullV@Gu@physx@@@23@@Gu@physx@@YA?AW4GjkStatus@01@AEBU?$RelativeConvex@VConvexHullV@Gu@physx@@@01@AEBU?$LocalConvex@VConvexHullV@Gu@physx@@@01@AEBT__m128@@2AEAT5@333@Z 0000000180029c40 f i GuOverlapTests.obj
 0001:00029ac0       ?ComputeCubemapNearestOffset@physx@@YAIAEBV?$PxVec3T@M@1@I@Z 000000018002aac0 f i GuOverlapTests.obj
 0001:00029bc0       ?getOverlapFuncTable@Gu@physx@@YAPEAY0L@Q6A_NAEBVPxGeometry@2@AEBV?$PxTransformT@M@2@01PEAUTriggerCache@12@PEAUPxQueryThreadContext@2@@ZXZ 000000018002abc0 f   GuOverlapTests.obj
 0001:0002b760       ?raycast_box@@YAIAEBVPxGeometry@physx@@AEBV?$PxTransformT@M@2@AEBV?$PxVec3T@M@2@2MV?$PxFlags@W4Enum@PxHitFlag@physx@@G@2@IPEIAUPxGeomRaycastHit@2@IPEAUPxQueryThreadContext@2@@Z 000000018002c760 f   GuRaycastTests.obj
 0001:0002bd90       ?raycast_sphere@@YAIAEBVPxGeometry@physx@@AEBV?$PxTransformT@M@2@AEBV?$PxVec3T@M@2@2MV?$PxFlags@W4Enum@PxHitFlag@physx@@G@2@IPEIAUPxGeomRaycastHit@2@IPEAUPxQueryThreadContext@2@@Z 000000018002cd90 f   GuRaycastTests.obj
 0001:0002bf20       ?raycast_capsule@@YAIAEBVPxGeometry@physx@@AEBV?$PxTransformT@M@2@AEBV?$PxVec3T@M@2@2MV?$PxFlags@W4Enum@PxHitFlag@physx@@G@2@IPEIAUPxGeomRaycastHit@2@IPEAUPxQueryThreadContext@2@@Z 000000018002cf20 f   GuRaycastTests.obj
 0001:0002c480       ?raycast_plane@@YAIAEBVPxGeometry@physx@@AEBV?$PxTransformT@M@2@AEBV?$PxVec3T@M@2@2MV?$PxFlags@W4Enum@PxHitFlag@physx@@G@2@IPEIAUPxGeomRaycastHit@2@IPEAUPxQueryThreadContext@2@@Z 000000018002d480 f   GuRaycastTests.obj
 0001:0002c5f0       ?raycast_convexMesh@@YAIAEBVPxGeometry@physx@@AEBV?$PxTransformT@M@2@AEBV?$PxVec3T@M@2@2MV?$PxFlags@W4Enum@PxHitFlag@physx@@G@2@IPEIAUPxGeomRaycastHit@2@IPEAUPxQueryThreadContext@2@@Z 000000018002d5f0 f   GuRaycastTests.obj
 0001:0002d0f0       ?getMidphaseID@RTreeTriangleMesh@Gu@physx@@UEBA?AW4Enum@PxMeshMidPhase@3@XZ 000000018002e0f0 f   GuTriangleMeshRTree.obj
 0001:0002d0f0       ?getMidphaseID@RTreeTriangleMeshBuilder@physx@@UEBA?AW4Enum@PxMeshMidPhase@2@XZ 000000018002e0f0 f   GuCookingTriangleMesh.obj
 0001:0002d0f0       ?getTetrahedraRemap@TetrahedronMesh@Gu@physx@@UEBAPEBIXZ 000000018002e0f0 f   GuTetrahedronMesh.obj
 0001:0002d0f0       ?raycast_hairsystem@@YAIAEBVPxGeometry@physx@@AEBV?$PxTransformT@M@2@AEBV?$PxVec3T@M@2@2MV?$PxFlags@W4Enum@PxHitFlag@physx@@G@2@IPEIAUPxGeomRaycastHit@2@IPEAUPxQueryThreadContext@2@@Z 000000018002e0f0 f   GuRaycastTests.obj
 0001:0002d0f0       ?raycast_particlesystem@@YAIAEBVPxGeometry@physx@@AEBV?$PxTransformT@M@2@AEBV?$PxVec3T@M@2@2MV?$PxFlags@W4Enum@PxHitFlag@physx@@G@2@IPEIAUPxGeomRaycastHit@2@IPEAUPxQueryThreadContext@2@@Z 000000018002e0f0 f   GuRaycastTests.obj
 0001:0002d0f0       ?raycast_softbody@@YAIAEBVPxGeometry@physx@@AEBV?$PxTransformT@M@2@AEBV?$PxVec3T@M@2@2MV?$PxFlags@W4Enum@PxHitFlag@physx@@G@2@IPEIAUPxGeomRaycastHit@2@IPEAUPxQueryThreadContext@2@@Z 000000018002e0f0 f   GuRaycastTests.obj
 0001:0002d100       ?raycast_triangleMesh@@YAIAEBVPxGeometry@physx@@AEBV?$PxTransformT@M@2@AEBV?$PxVec3T@M@2@2MV?$PxFlags@W4Enum@PxHitFlag@physx@@G@2@IPEIAUPxGeomRaycastHit@2@IPEAUPxQueryThreadContext@2@@Z 000000018002e100 f   GuRaycastTests.obj
 0001:0002d190       ?raycast_heightField@@YAIAEBVPxGeometry@physx@@AEBV?$PxTransformT@M@2@AEBV?$PxVec3T@M@2@2MV?$PxFlags@W4Enum@PxHitFlag@physx@@G@2@IPEIAUPxGeomRaycastHit@2@IPEAUPxQueryThreadContext@2@@Z 000000018002e190 f   GuRaycastTests.obj
 0001:0002ebe0       ??Dphysx@@YA?AV?$PxMat34T@M@0@AEBVPxMeshScale@0@AEBV?$PxTransformT@M@0@@Z 000000018002fbe0 f i GuRaycastTests.obj
 0001:0002f6c0       ?getRaycastFuncTable@Gu@physx@@YAAEAY0L@Q6AIAEBVPxGeometry@2@AEBV?$PxTransformT@M@2@AEBV?$PxVec3T@M@2@2MV?$PxFlags@W4Enum@PxHitFlag@physx@@G@2@IPEIAUPxGeomRaycastHit@2@IPEAUPxQueryThreadContext@2@@ZXZ 00000001800306c0 f   GuRaycastTests.obj
 0001:0002f6d0       ??Dphysx@@YA?AV?$PxMat34T@M@0@AEBV?$PxTransformT@M@0@AEBVPxMeshScale@0@@Z 00000001800306d0 f i GuSweepMTD.obj
 0001:0002fc10       ??_E?$MeshHitCallback@UPxGeomRaycastHit@physx@@@Gu@physx@@UEAAPEAXI@Z 0000000180030c10 f i GuSweepMTD.obj
 0001:0002fc10       ??_G?$MeshHitCallback@UPxGeomRaycastHit@physx@@@Gu@physx@@UEAAPEAXI@Z 0000000180030c10 f i GuSweepMTD.obj
 0001:0002fc40       ??_EMeshMTDGenerationCallback@@UEAAPEAXI@Z 0000000180030c40 f i GuSweepMTD.obj
 0001:0002fc40       ??_GMeshMTDGenerationCallback@@UEAAPEAXI@Z 0000000180030c40 f i GuSweepMTD.obj
 0001:0002fc70       ??_EMidPhaseQueryLocalReport@@UEAAPEAXI@Z 0000000180030c70 f i GuSweepMTD.obj
 0001:0002fc70       ??_ERTreeCookerRemap@@UEAAPEAXI@Z 0000000180030c70 f i GuCookingTriangleMesh.obj
 0001:0002fc70       ??_GMidPhaseQueryLocalReport@@UEAAPEAXI@Z 0000000180030c70 f i GuSweepMTD.obj
 0001:0002fc70       ??_GRTreeCookerRemap@@UEAAPEAXI@Z 0000000180030c70 f i GuCookingTriangleMesh.obj
 0001:0002fca0       ?allocate@?$PxArray@IV?$PxReflectionAllocator@I@physx@@@physx@@IEAAPEAII@Z 0000000180030ca0 f i GuSweepMTD.obj
 0001:0002fd30       ?computeBox_HeightFieldMTD@Gu@physx@@YA_NAEBVPxHeightFieldGeometry@2@AEBV?$PxTransformT@M@2@AEBVBox@12@1M_NAEAUPxGeomSweepHit@2@@Z 0000000180030d30 f   GuSweepMTD.obj
 0001:00030af0       ?computeBox_TriangleMeshMTD@Gu@physx@@YA_NAEBVPxTriangleMeshGeometry@2@AEBV?$PxTransformT@M@2@AEBVBox@12@1M_NAEAUPxGeomSweepHit@2@@Z 0000000180031af0 f   GuSweepMTD.obj
 0001:00031b30       ?computeCapsule_CapsuleMTD@Gu@physx@@YA_NAEBVCapsule@12@0AEAUPxGeomSweepHit@2@@Z 0000000180032b30 f   GuSweepMTD.obj
 0001:00031d70       ?computeCapsule_HeightFieldMTD@Gu@physx@@YA_NAEBVPxHeightFieldGeometry@2@AEBV?$PxTransformT@M@2@AEAVCapsuleV@12@M_NAEAUPxGeomSweepHit@2@@Z 0000000180032d70 f   GuSweepMTD.obj
 0001:00032540       ?computeCapsule_TriangleMeshMTD@Gu@physx@@YA_NAEBVPxTriangleMeshGeometry@2@AEBV?$PxTransformT@M@2@AEAVCapsuleV@12@M_NAEAUPxGeomSweepHit@2@@Z 0000000180033540 f   GuSweepMTD.obj
 0001:00032df0       ?computeConvex_HeightFieldMTD@Gu@physx@@YA_NAEBVPxHeightFieldGeometry@2@AEBV?$PxTransformT@M@2@AEBVPxConvexMeshGeometry@2@1M_NAEAUPxGeomSweepHit@2@@Z 0000000180033df0 f   GuSweepMTD.obj
 0001:000340c0       ?computeConvex_TriangleMeshMTD@Gu@physx@@YA_NAEBVPxTriangleMeshGeometry@2@AEBV?$PxTransformT@M@2@AEBVPxConvexMeshGeometry@2@1M_NAEAUPxGeomSweepHit@2@@Z 00000001800350c0 f   GuSweepMTD.obj
 0001:00035690       ?computePlane_BoxMTD@Gu@physx@@YA_NAEBVPxPlane@2@AEBVBox@12@AEAUPxGeomSweepHit@2@@Z 0000000180036690 f   GuSweepMTD.obj
 0001:00035930       ?computePlane_CapsuleMTD@Gu@physx@@YA_NAEBVPxPlane@2@AEBVCapsule@12@AEAUPxGeomSweepHit@2@@Z 0000000180036930 f   GuSweepMTD.obj
 0001:00035a50       ?computePlane_ConvexMTD@Gu@physx@@YA_NAEBVPxPlane@2@AEBVPxConvexMeshGeometry@2@AEBV?$PxTransformT@M@2@AEAUPxGeomSweepHit@2@@Z 0000000180036a50 f   GuSweepMTD.obj
 0001:000365a0       ?computeSphere_CapsuleMTD@Gu@physx@@YA_NAEBVSphere@12@AEBVCapsule@12@AEAUPxGeomSweepHit@2@@Z 00000001800375a0 f   GuSweepMTD.obj
 0001:00036750       ?computeSphere_SphereMTD@Gu@physx@@YA_NAEBVSphere@12@0AEAUPxGeomSweepHit@2@@Z 0000000180037750 f   GuSweepMTD.obj
 0001:00036840       ?getInverse@?$PxMat33T@M@physx@@QEBA?BV12@XZ 0000000180037840 f i GuSweepMTD.obj
 0001:00036a90       ?growAndPushBack@?$PxArray@IV?$PxReflectionAllocator@I@physx@@@physx@@IEAAAEAIAEBI@Z 0000000180037a90 f i GuSweepMTD.obj
 0001:00036b50       ?init@FastVertex2ShapeScaling@Cm@physx@@QEAAXAEBV?$PxVec3T@M@3@AEBV?$PxQuatT@M@3@@Z 0000000180037b50 f i GuSweepMTD.obj
 0001:00037440       ?processHit@MeshMTDGenerationCallback@@UEAA_NAEBUPxGeomRaycastHit@physx@@AEBV?$PxVec3T@M@3@11AEAMPEBI@Z 0000000180038440 f i GuSweepMTD.obj
 0001:00037490       ?recreate@?$PxArray@IV?$PxReflectionAllocator@I@physx@@@physx@@IEAAXI@Z 0000000180038490 f i GuSweepMTD.obj
 0001:00037530       ?reportTouchedTris@MidPhaseQueryLocalReport@@UEAA_NIPEBI@Z 0000000180038530 f i GuSweepMTD.obj
 0001:000375a0       ??$gjkPenetration@U?$LocalConvex@VCapsuleV@Gu@physx@@@Gu@physx@@U?$LocalConvex@VConvexHullV@Gu@physx@@@23@@Gu@physx@@YA?AW4GjkStatus@01@AEBU?$LocalConvex@VCapsuleV@Gu@physx@@@01@AEBU?$LocalConvex@VConvexHullV@Gu@physx@@@01@AEBT__m128@@2_NPEIAE4AEAEAEAUGjkOutput@01@@Z 00000001800385a0 f i GuSweepSharedTests.obj
 0001:00037610       ??$gjkPenetration@U?$LocalConvex@VCapsuleV@Gu@physx@@@Gu@physx@@U?$LocalConvex@VConvexHullV@Gu@physx@@@23@@Gu@physx@@YA?AW4GjkStatus@01@AEBU?$LocalConvex@VCapsuleV@Gu@physx@@@01@AEBU?$LocalConvex@VConvexHullV@Gu@physx@@@01@AEBT__m128@@2_NPEIAE4PEIAT5@5AEAEAEAUGjkOutput@01@@Z 0000000180038610 f i GuSweepSharedTests.obj
 0001:00038b40       ??$gjkPenetration@U?$RelativeConvex@VBoxV@Gu@physx@@@Gu@physx@@U?$LocalConvex@VConvexHullV@Gu@physx@@@23@@Gu@physx@@YA?AW4GjkStatus@01@AEBU?$RelativeConvex@VBoxV@Gu@physx@@@01@AEBU?$LocalConvex@VConvexHullV@Gu@physx@@@01@AEBT__m128@@2_NPEIAE4AEAEAEAUGjkOutput@01@@Z 0000000180039b40 f i GuSweepSharedTests.obj
 0001:00038bb0       ??$gjkPenetration@U?$RelativeConvex@VBoxV@Gu@physx@@@Gu@physx@@U?$LocalConvex@VConvexHullV@Gu@physx@@@23@@Gu@physx@@YA?AW4GjkStatus@01@AEBU?$RelativeConvex@VBoxV@Gu@physx@@@01@AEBU?$LocalConvex@VConvexHullV@Gu@physx@@@01@AEBT__m128@@2_NPEIAE4PEIAT5@5AEAEAEAUGjkOutput@01@@Z 0000000180039bb0 f i GuSweepSharedTests.obj
 0001:0003a120       ??$gjkPenetration@U?$RelativeConvex@VConvexHullV@Gu@physx@@@Gu@physx@@U?$LocalConvex@VConvexHullV@Gu@physx@@@23@@Gu@physx@@YA?AW4GjkStatus@01@AEBU?$RelativeConvex@VConvexHullV@Gu@physx@@@01@AEBU?$LocalConvex@VConvexHullV@Gu@physx@@@01@AEBT__m128@@2_NPEIAE4AEAEAEAUGjkOutput@01@@Z 000000018003b120 f i GuSweepSharedTests.obj
 0001:0003a190       ??$gjkPenetration@U?$RelativeConvex@VConvexHullV@Gu@physx@@@Gu@physx@@U?$LocalConvex@VConvexHullV@Gu@physx@@@23@@Gu@physx@@YA?AW4GjkStatus@01@AEBU?$RelativeConvex@VConvexHullV@Gu@physx@@@01@AEBU?$LocalConvex@VConvexHullV@Gu@physx@@@01@AEBT__m128@@2_NPEIAE4PEIAT5@5AEAEAEAUGjkOutput@01@@Z 000000018003b190 f i GuSweepSharedTests.obj
 0001:0003b7b0       ??$gjkRaycast@U?$LocalConvex@VCapsuleV@Gu@physx@@@Gu@physx@@U?$LocalConvex@VConvexHullV@Gu@physx@@@23@@Gu@physx@@YA_NAEBU?$LocalConvex@VCapsuleV@Gu@physx@@@01@AEBU?$LocalConvex@VConvexHullV@Gu@physx@@@01@AEBT__m128@@222AEAT4@33M@Z 000000018003c7b0 f i GuSweepSharedTests.obj
 0001:0003c500       ??$gjkRaycast@U?$RelativeConvex@VBoxV@Gu@physx@@@Gu@physx@@U?$LocalConvex@VConvexHullV@Gu@physx@@@23@@Gu@physx@@YA_NAEBU?$RelativeConvex@VBoxV@Gu@physx@@@01@AEBU?$LocalConvex@VConvexHullV@Gu@physx@@@01@AEBT__m128@@222AEAT4@33M@Z 000000018003d500 f i GuSweepSharedTests.obj
 0001:0003d2f0       ??$gjkRaycast@U?$RelativeConvex@VConvexHullV@Gu@physx@@@Gu@physx@@U?$LocalConvex@VConvexHullV@Gu@physx@@@23@@Gu@physx@@YA_NAEBU?$RelativeConvex@VConvexHullV@Gu@physx@@@01@AEBU?$LocalConvex@VConvexHullV@Gu@physx@@@01@AEBT__m128@@222AEAT4@33M@Z 000000018003e2f0 f i GuSweepSharedTests.obj
 0001:0003e0d0       ??$gjkRaycastPenetration@U?$RelativeConvex@VConvexHullV@Gu@physx@@@Gu@physx@@U?$LocalConvex@VConvexHullV@Gu@physx@@@23@@Gu@physx@@YA_NAEBU?$RelativeConvex@VConvexHullV@Gu@physx@@@01@AEBU?$LocalConvex@VConvexHullV@Gu@physx@@@01@AEBT__m128@@222AEAT4@33M_N@Z 000000018003f0d0 f i GuSweepSharedTests.obj
 0001:0003eca0       ?sweepBox_ConvexGeom@@YA_NAEBVPxGeometry@physx@@AEBV?$PxTransformT@M@2@AEBVPxBoxGeometry@2@1AEBVBox@Gu@2@AEBV?$PxVec3T@M@2@MAEAUPxGeomSweepHit@2@V?$PxFlags@W4Enum@PxHitFlag@physx@@G@2@MPEAUPxQueryThreadContext@2@@Z 000000018003fca0 f   GuSweepSharedTests.obj
 0001:0003fac0       ?sweepBox_PlaneGeom@@YA_NAEBVPxGeometry@physx@@AEBV?$PxTransformT@M@2@AEBVPxBoxGeometry@2@1AEBVBox@Gu@2@AEBV?$PxVec3T@M@2@MAEAUPxGeomSweepHit@2@V?$PxFlags@W4Enum@PxHitFlag@physx@@G@2@MPEAUPxQueryThreadContext@2@@Z 0000000180040ac0 f   GuSweepSharedTests.obj
 0001:0003fe90       ?sweepCapsuleTriangles@Gu@physx@@YA_NIPEBVPxTriangle@2@_NAEBVPxCapsuleGeometry@2@AEBV?$PxTransformT@M@2@AEBV?$PxVec3T@M@2@MAEAUPxGeomSweepHit@2@PEBIMV?$PxFlags@W4Enum@PxHitFlag@physx@@G@2@@Z 0000000180040e90 f   GuSweepSharedTests.obj
 0001:00040080       ?sweepCapsule_CapsuleGeom@@YA_NAEBVPxGeometry@physx@@AEBV?$PxTransformT@M@2@AEBVPxCapsuleGeometry@2@1AEBVCapsule@Gu@2@AEBV?$PxVec3T@M@2@MAEAUPxGeomSweepHit@2@V?$PxFlags@W4Enum@PxHitFlag@physx@@G@2@MPEAUPxQueryThreadContext@2@@Z 0000000180041080 f   GuSweepSharedTests.obj
 0001:00040260       ?sweepCapsule_ConvexGeom@@YA_NAEBVPxGeometry@physx@@AEBV?$PxTransformT@M@2@AEBVPxCapsuleGeometry@2@1AEBVCapsule@Gu@2@AEBV?$PxVec3T@M@2@MAEAUPxGeomSweepHit@2@V?$PxFlags@W4Enum@PxHitFlag@physx@@G@2@MPEAUPxQueryThreadContext@2@@Z 0000000180041260 f   GuSweepSharedTests.obj
 0001:00040f90       ?sweepCapsule_PlaneGeom@@YA_NAEBVPxGeometry@physx@@AEBV?$PxTransformT@M@2@AEBVPxCapsuleGeometry@2@1AEBVCapsule@Gu@2@AEBV?$PxVec3T@M@2@MAEAUPxGeomSweepHit@2@V?$PxFlags@W4Enum@PxHitFlag@physx@@G@2@MPEAUPxQueryThreadContext@2@@Z 0000000180041f90 f   GuSweepSharedTests.obj
 0001:00041270       ?sweepCapsule_SphereGeom@@YA_NAEBVPxGeometry@physx@@AEBV?$PxTransformT@M@2@AEBVPxCapsuleGeometry@2@1AEBVCapsule@Gu@2@AEBV?$PxVec3T@M@2@MAEAUPxGeomSweepHit@2@V?$PxFlags@W4Enum@PxHitFlag@physx@@G@2@MPEAUPxQueryThreadContext@2@@Z 0000000180042270 f   GuSweepSharedTests.obj
 0001:00041410       ?sweepConvex_BoxGeom@@YA_NAEBVPxGeometry@physx@@AEBV?$PxTransformT@M@2@AEBVPxConvexMeshGeometry@2@1AEBV?$PxVec3T@M@2@MAEAUPxGeomSweepHit@2@V?$PxFlags@W4Enum@PxHitFlag@physx@@G@2@MPEAUPxQueryThreadContext@2@@Z 0000000180042410 f   GuSweepSharedTests.obj
 0001:00041630       ?sweepConvex_CapsuleGeom@@YA_NAEBVPxGeometry@physx@@AEBV?$PxTransformT@M@2@AEBVPxConvexMeshGeometry@2@1AEBV?$PxVec3T@M@2@MAEAUPxGeomSweepHit@2@V?$PxFlags@W4Enum@PxHitFlag@physx@@G@2@MPEAUPxQueryThreadContext@2@@Z 0000000180042630 f   GuSweepSharedTests.obj
 0001:00041860       ?sweepConvex_ConvexGeom@@YA_NAEBVPxGeometry@physx@@AEBV?$PxTransformT@M@2@AEBVPxConvexMeshGeometry@2@1AEBV?$PxVec3T@M@2@MAEAUPxGeomSweepHit@2@V?$PxFlags@W4Enum@PxHitFlag@physx@@G@2@MPEAUPxQueryThreadContext@2@@Z 0000000180042860 f   GuSweepSharedTests.obj
 0001:00042830       ?sweepConvex_PlaneGeom@@YA_NAEBVPxGeometry@physx@@AEBV?$PxTransformT@M@2@AEBVPxConvexMeshGeometry@2@1AEBV?$PxVec3T@M@2@MAEAUPxGeomSweepHit@2@V?$PxFlags@W4Enum@PxHitFlag@physx@@G@2@MPEAUPxQueryThreadContext@2@@Z 0000000180043830 f   GuSweepSharedTests.obj
 0001:00042c70       ?sweepConvex_SphereGeom@@YA_NAEBVPxGeometry@physx@@AEBV?$PxTransformT@M@2@AEBVPxConvexMeshGeometry@2@1AEBV?$PxVec3T@M@2@MAEAUPxGeomSweepHit@2@V?$PxFlags@W4Enum@PxHitFlag@physx@@G@2@MPEAUPxQueryThreadContext@2@@Z 0000000180043c70 f   GuSweepSharedTests.obj
 0001:00043870       ?sweepCapsule_BoxGeom@@YA_NAEBVPxGeometry@physx@@AEBV?$PxTransformT@M@2@AEBVPxCapsuleGeometry@2@1AEBVCapsule@Gu@2@AEBV?$PxVec3T@M@2@MAEAUPxGeomSweepHit@2@V?$PxFlags@W4Enum@PxHitFlag@physx@@G@2@MPEAUPxQueryThreadContext@2@@Z 0000000180044870 f   GuSweepTests.obj
 0001:00044120       ?sweepBox_SphereGeom@@YA_NAEBVPxGeometry@physx@@AEBV?$PxTransformT@M@2@AEBVPxBoxGeometry@2@1AEBVBox@Gu@2@AEBV?$PxVec3T@M@2@MAEAUPxGeomSweepHit@2@V?$PxFlags@W4Enum@PxHitFlag@physx@@G@2@MPEAUPxQueryThreadContext@2@@Z 0000000180045120 f   GuSweepTests.obj
 0001:00044800       ?sweepBox_CapsuleGeom@@YA_NAEBVPxGeometry@physx@@AEBV?$PxTransformT@M@2@AEBVPxBoxGeometry@2@1AEBVBox@Gu@2@AEBV?$PxVec3T@M@2@MAEAUPxGeomSweepHit@2@V?$PxFlags@W4Enum@PxHitFlag@physx@@G@2@MPEAUPxQueryThreadContext@2@@Z 0000000180045800 f   GuSweepTests.obj
 0001:000450d0       ?sweepBox_BoxGeom@@YA_NAEBVPxGeometry@physx@@AEBV?$PxTransformT@M@2@AEBVPxBoxGeometry@2@1AEBVBox@Gu@2@AEBV?$PxVec3T@M@2@MAEAUPxGeomSweepHit@2@V?$PxFlags@W4Enum@PxHitFlag@physx@@G@2@MPEAUPxQueryThreadContext@2@@Z 00000001800460d0 f   GuSweepTests.obj
 0001:00045ad0       ??$gjkPenetration@U?$LocalConvex@VCapsuleV@Gu@physx@@@Gu@physx@@U?$LocalConvex@VBoxV@Gu@physx@@@23@@Gu@physx@@YA?AW4GjkStatus@01@AEBU?$LocalConvex@VCapsuleV@Gu@physx@@@01@AEBU?$LocalConvex@VBoxV@Gu@physx@@@01@AEBT__m128@@2_NPEIAE4AEAEAEAUGjkOutput@01@@Z 0000000180046ad0 f i GuSweepTests.obj
 0001:00045b40       ??$gjkPenetration@U?$LocalConvex@VCapsuleV@Gu@physx@@@Gu@physx@@U?$LocalConvex@VBoxV@Gu@physx@@@23@@Gu@physx@@YA?AW4GjkStatus@01@AEBU?$LocalConvex@VCapsuleV@Gu@physx@@@01@AEBU?$LocalConvex@VBoxV@Gu@physx@@@01@AEBT__m128@@2_NPEIAE4PEIAT5@5AEAEAEAUGjkOutput@01@@Z 0000000180046b40 f i GuSweepTests.obj
 0001:00046fc0       ??$gjkPenetration@U?$RelativeConvex@VBoxV@Gu@physx@@@Gu@physx@@U?$LocalConvex@VBoxV@Gu@physx@@@23@@Gu@physx@@YA?AW4GjkStatus@01@AEBU?$RelativeConvex@VBoxV@Gu@physx@@@01@AEBU?$LocalConvex@VBoxV@Gu@physx@@@01@AEBT__m128@@2_NPEIAE4AEAEAEAUGjkOutput@01@@Z 0000000180047fc0 f i GuSweepTests.obj
 0001:00047030       ??$gjkPenetration@U?$RelativeConvex@VBoxV@Gu@physx@@@Gu@physx@@U?$LocalConvex@VBoxV@Gu@physx@@@23@@Gu@physx@@YA?AW4GjkStatus@01@AEBU?$RelativeConvex@VBoxV@Gu@physx@@@01@AEBU?$LocalConvex@VBoxV@Gu@physx@@@01@AEBT__m128@@2_NPEIAE4PEIAT5@5AEAEAEAUGjkOutput@01@@Z 0000000180048030 f i GuSweepTests.obj
 0001:000484e0       ??$gjkRaycast@U?$LocalConvex@VCapsuleV@Gu@physx@@@Gu@physx@@U?$LocalConvex@VBoxV@Gu@physx@@@23@@Gu@physx@@YA_NAEBU?$LocalConvex@VCapsuleV@Gu@physx@@@01@AEBU?$LocalConvex@VBoxV@Gu@physx@@@01@AEBT__m128@@222AEAT4@33M@Z 00000001800494e0 f i GuSweepTests.obj
 0001:000490b0       ??$gjkRaycast@U?$LocalConvex@VTriangleV@Gu@physx@@@Gu@physx@@U?$LocalConvex@VBoxV@Gu@physx@@@23@@Gu@physx@@YA_NAEBU?$LocalConvex@VTriangleV@Gu@physx@@@01@AEBU?$LocalConvex@VBoxV@Gu@physx@@@01@AEBT__m128@@222AEAT4@33M@Z 000000018004a0b0 f i GuSweepTests.obj
 0001:00049d00       ??$gjkRaycast@U?$RelativeConvex@VBoxV@Gu@physx@@@Gu@physx@@U?$LocalConvex@VBoxV@Gu@physx@@@23@@Gu@physx@@YA_NAEBU?$RelativeConvex@VBoxV@Gu@physx@@@01@AEBU?$LocalConvex@VBoxV@Gu@physx@@@01@AEBT__m128@@222AEAT4@33M@Z 000000018004ad00 f i GuSweepTests.obj
 0001:0004a930       ?getSweepFuncTable@Gu@physx@@YAAEBUGeomSweepFuncs@12@XZ 000000018004b930 f   GuSweepTests.obj
 0001:0004a940       ?getSweepMargin@?$LocalConvex@VTetrahedronV@Gu@physx@@@Gu@physx@@UEBA?AT__m128@@XZ 000000018004b940 f i GuCookingTetrahedronMesh.obj
 0001:0004a940       ?getSweepMargin@?$LocalConvex@VTriangleV@Gu@physx@@@Gu@physx@@UEBA?AT__m128@@XZ 000000018004b940 f i GuSweepTests.obj
 0001:0004a940       ?getSweepMargin@?$RelativeConvex@VTriangleV@Gu@physx@@@Gu@physx@@UEBA?AT__m128@@XZ 000000018004b940 f i GuCCDSweepPrimitives.obj
 0001:0004a950       ?support@?$LocalConvex@VBoxV@Gu@physx@@@Gu@physx@@UEBA?AT__m128@@AEBT4@@Z 000000018004b950 f i GuSweepTests.obj
 0001:0004a980       ?support@?$LocalConvex@VBoxV@Gu@physx@@@Gu@physx@@UEBA?AT__m128@@AEBT4@AEAH@Z 000000018004b980 f i GuSweepTests.obj
 0001:0004a9c0       ?support@?$LocalConvex@VTriangleV@Gu@physx@@@Gu@physx@@UEBA?AT__m128@@AEBT4@@Z 000000018004b9c0 f i GuSweepTests.obj
 0001:0004aa50       ?support@?$LocalConvex@VTriangleV@Gu@physx@@@Gu@physx@@UEBA?AT__m128@@AEBT4@AEAH@Z 000000018004ba50 f i GuSweepTests.obj
 0001:0004ab30       ?supportPoint@?$LocalConvex@VBoxV@Gu@physx@@@Gu@physx@@UEBA?AT__m128@@H@Z 000000018004bb30 f i GuSweepTests.obj
 0001:0004ab70       ?supportPoint@?$LocalConvex@VTetrahedronV@Gu@physx@@@Gu@physx@@UEBA?AT__m128@@H@Z 000000018004bb70 f i GuCookingTetrahedronMesh.obj
 0001:0004ab70       ?supportPoint@?$LocalConvex@VTriangleV@Gu@physx@@@Gu@physx@@UEBA?AT__m128@@H@Z 000000018004bb70 f i GuSweepTests.obj
 0001:0004ab90       ?sweepBoxTriangles@Gu@physx@@YA_NIPEBVPxTriangle@2@_NAEBVPxBoxGeometry@2@AEBV?$PxTransformT@M@2@AEBV?$PxVec3T@M@2@MAEAUPxGeomSweepHit@2@PEBIMV?$PxFlags@W4Enum@PxHitFlag@physx@@G@2@@Z 000000018004bb90 f   GuSweepTests.obj
 0001:0004b600       ??$PxSmallSort@H$$CBU?$Comparer@V?$PxVec3T@M@physx@@@MeshAnalyzer@Gu@physx@@@physx@@YAXPEAHHHAEBU?$Comparer@V?$PxVec3T@M@physx@@@MeshAnalyzer@Gu@0@@Z 000000018004c600 f i GuSDF.obj
 0001:0004b820       ??$PxSort@HU?$Comparer@V?$PxVec3T@M@physx@@@MeshAnalyzer@Gu@physx@@V?$PxReflectionAllocator@H@4@@physx@@YAXPEAHIAEBU?$Comparer@V?$PxVec3T@M@physx@@@MeshAnalyzer@Gu@0@AEBV?$PxReflectionAllocator@H@0@I@Z 000000018004c820 f i GuSDF.obj
 0001:0004bca0       ??$PxSort@HU?$PxLess@H@physx@@V?$PxReflectionAllocator@H@2@@physx@@YAXPEAHIAEBU?$PxLess@H@0@AEBV?$PxReflectionAllocator@H@0@I@Z 000000018004cca0 f i GuSDF.obj
 0001:0004c0f0       ??$mapDuplicatePoints@V?$PxVec3T@M@physx@@M@MeshAnalyzer@Gu@physx@@SAXPEBV?$PxVec3T@M@2@IAEAV?$PxArray@HV?$PxReflectionAllocator@H@physx@@@2@M@Z 000000018004d0f0 f i GuSDF.obj
 0001:0004c470       ??$splitRanges@V?$PxVec3T@M@physx@@M@MeshAnalyzer@Gu@physx@@CAXAEAV?$PxArray@URange@MeshAnalyzer@Gu@physx@@V?$PxReflectionAllocator@URange@MeshAnalyzer@Gu@physx@@@4@@2@AEBV?$PxArray@HV?$PxReflectionAllocator@H@physx@@@2@PEBV?$PxVec3T@M@2@HM@Z 000000018004d470 f i GuSDF.obj
 0001:0004c6e0       ??$traverseBVH@VClosestDistanceToTrimeshTraversalController@Gu@physx@@@Gu@physx@@YAXPEBUBVHNode@01@AEAVClosestDistanceToTrimeshTraversalController@01@H@Z 000000018004d6e0 f i GuSDF.obj
 0001:0004cad0       ??$traverseBVH@VLineSegmentTrimeshIntersectionTraversalController@Gu@physx@@@Gu@physx@@YAXPEBUBVHNode@01@AEAVLineSegmentTrimeshIntersectionTraversalController@01@H@Z 000000018004dad0 f i GuSDF.obj
 0001:0004cfd0       ??1SDF@Gu@physx@@QEAA@XZ   000000018004dfd0 f   GuSDF.obj
 0001:0004d060       ??_E?$PxThreadT@V?$PxReflectionAllocator@VPxThreadImpl@physx@@@physx@@@physx@@UEAAPEAXI@Z 000000018004e060 f i GuSDF.obj
 0001:0004d060       ??_G?$PxThreadT@V?$PxReflectionAllocator@VPxThreadImpl@physx@@@physx@@@physx@@UEAAPEAXI@Z 000000018004e060 f i GuSDF.obj
 0001:0004d110       ??_EPxRunnable@physx@@UEAAPEAXI@Z 000000018004e110 f i GuSDF.obj
 0001:0004d110       ??_GPxRunnable@physx@@UEAAPEAXI@Z 000000018004e110 f i GuSDF.obj
 0001:0004d140       ?PxCreatePointOntoTriangleMeshProjector@Gu@physx@@YAPEAVPxPointOntoTriangleMeshProjector@12@PEBV?$PxVec3T@M@2@PEBII@Z 000000018004e140 f   GuSDF.obj
 0001:0004d240       ?SDFUsingWindingNumbers@Gu@physx@@YAXAEAV?$PxArray@UBVHNode@Gu@physx@@V?$PxReflectionAllocator@UBVHNode@Gu@physx@@@3@@2@AEAV?$PxHashMap@IU?$ClusterApproximationT@MV?$PxVec3T@M@physx@@@Gu@physx@@U?$PxHash@I@3@VPxAllocator@3@@2@PEBV?$PxVec3T@M@2@PEBIIIIIPEAMAEAVGridQueryPointSampler@12@PEAV52@I_N7@Z 000000018004e240 f   GuSDF.obj
 0001:0004d760       ?SDFUsingWindingNumbers@Gu@physx@@YAXPEBV?$PxVec3T@M@2@PEBIIIIIPEAMV32@3PEAV32@_NI@Z 000000018004e760 f   GuSDF.obj
 0001:0004dac0       ?SDFUsingWindingNumbersSparse@Gu@physx@@YAXPEBV?$PxVec3T@M@2@PEBIIIIIAEBV32@2MIAEAV?$PxArray@MV?$PxReflectionAllocator@M@physx@@@2@AEAV?$PxArray@IV?$PxReflectionAllocator@I@physx@@@2@33AEAM5I@Z 000000018004eac0 f   GuSDF.obj
 0001:0004e8d0       ?allocate@?$PxArray@HV?$PxInlineAllocator@$0EAA@V?$PxReflectionAllocator@H@physx@@@physx@@@physx@@IEAAPEAHI@Z 000000018004f8d0 f i GuSDF.obj
 0001:0004e990       ?allocate@?$PxArray@MV?$PxReflectionAllocator@M@physx@@@physx@@IEAAPEAMI@Z 000000018004f990 f i GuSDF.obj
 0001:0004ea20       ?allocateSdfs@SDF@Gu@physx@@QEAAPEAMAEBV?$PxVec3T@M@3@AEBMIIIIIIIMMI@Z 000000018004fa20 f   GuSDF.obj
 0001:0004ec30       ?analyzeAndFixMesh@Gu@physx@@YAXPEBV?$PxVec3T@M@2@PEBIIAEAV?$PxArray@IV?$PxReflectionAllocator@I@physx@@@2@@Z 000000018004fc30 f   GuSDF.obj
 0001:0004f490       ?buildTree@Gu@physx@@YAXPEBIIPEBV?$PxVec3T@M@2@AEAV?$PxArray@UBVHNode@Gu@physx@@V?$PxReflectionAllocator@UBVHNode@Gu@physx@@@3@@2@M@Z 0000000180050490 f   GuSDF.obj
 0001:0004f6c0       ?computeSDFThreadJob@Gu@physx@@YAPEAXPEAX@Z 00000001800506c0 f   GuSDF.obj
 0001:00050140       ?convertSparseSDFTo3DTextureLayout@Gu@physx@@YAXIIIIPEAIPEBMIAEAV?$PxArray@MV?$PxReflectionAllocator@M@physx@@@2@AEAI33@Z 0000000180051140 f   GuSDF.obj
 0001:000504f0       ?create@?$PxHashBase@V?$PxPair@$$CBUSortedTriangle@Gu@physx@@H@physx@@USortedTriangle@Gu@2@UTriangleHash@42@UGetKey@?$PxHashMapBase@USortedTriangle@Gu@physx@@HUTriangleHash@23@VPxAllocator@3@@2@VPxAllocator@2@$00@physx@@QEAAPEAV?$PxPair@$$CBUSortedTriangle@Gu@physx@@H@2@AEBUSortedTriangle@Gu@2@AEA_N@Z 00000001800514f0 f i GuSDF.obj
 0001:00050620       ?create@?$PxHashBase@V?$PxPair@$$CB_KH@physx@@_KU?$PxHash@_K@2@UGetKey@?$PxHashMapBase@_KHU?$PxHash@_K@physx@@VPxAllocator@2@@2@VPxAllocator@2@$00@physx@@QEAAPEAV?$PxPair@$$CB_KH@2@AEB_KAEA_N@Z 0000000180051620 f i GuMeshAnalysis.obj
 0001:00050620       ?create@?$PxHashBase@V?$PxPair@$$CB_KI@physx@@_KU?$PxHash@_K@2@UGetKey@?$PxHashMapBase@_KIU?$PxHash@_K@physx@@VPxAllocator@2@@2@VPxAllocator@2@$00@physx@@QEAAPEAV?$PxPair@$$CB_KI@2@AEB_KAEA_N@Z 0000000180051620 f i GuSDF.obj
 0001:000507b0       ?createTriangles@Gu@physx@@YAXHHHMQEAMAEBV?$PxHashMap@_KIU?$PxHash@_K@physx@@VPxAllocator@2@@2@AEBV?$PxArray@V?$PxVec3T@M@physx@@V?$PxReflectionAllocator@V?$PxVec3T@M@physx@@@2@@2@AEAV?$PxArray@IV?$PxReflectionAllocator@I@physx@@@2@@Z 00000001800517b0 f   GuSDF.obj
 0001:00051060       ?extractIsosurfaceFromSDF@Gu@physx@@YAXAEBVSDF@12@AEAV?$PxArray@V?$PxVec3T@M@physx@@V?$PxReflectionAllocator@V?$PxVec3T@M@physx@@@2@@2@AEAV?$PxArray@IV?$PxReflectionAllocator@I@physx@@@2@@Z 0000000180052060 f   GuSDF.obj
 0001:00052e30       ?fixSdfForNonClosedGeometry@Gu@physx@@YAXIIIPEAMAEBV?$PxVec3T@M@2@@Z 0000000180053e30 f   GuSDF.obj
 0001:00053f10       ?generatePointInCell@Gu@physx@@YA_NAEBVSDF@12@HHHAEAV?$PxVec3T@M@2@QEAY111M@Z 0000000180054f10 f   GuSDF.obj
 0001:00054360       ?growAndPushBack@?$PxArray@HV?$PxInlineAllocator@$0EAA@V?$PxReflectionAllocator@H@physx@@@physx@@@physx@@IEAAAEAHAEBH@Z 0000000180055360 f i GuSDF.obj
 0001:00054450       ?growAndPushBack@?$PxArray@MV?$PxReflectionAllocator@M@physx@@@physx@@IEAAAEAMAEBM@Z 0000000180055450 f i GuSDF.obj
 0001:00054530       ?growAndPushBack@?$PxArray@PEAV?$PxThreadT@V?$PxReflectionAllocator@VPxThreadImpl@physx@@@physx@@@physx@@V?$PxReflectionAllocator@PEAV?$PxThreadT@V?$PxReflectionAllocator@VPxThreadImpl@physx@@@physx@@@physx@@@2@@physx@@IEAAAEAPEAV?$PxThreadT@V?$PxReflectionAllocator@VPxThreadImpl@physx@@@physx@@@2@AEBQEAV32@@Z 0000000180055530 f i GuSDF.obj
 0001:00054650       ?growAndPushBack@?$PxArray@UMutation@Gu@physx@@V?$PxReflectionAllocator@UMutation@Gu@physx@@@3@@physx@@IEAAAEAUMutation@Gu@2@AEBU342@@Z 0000000180055650 f i GuSDF.obj
 0001:00054770       ?growAndPushBack@?$PxArray@URange@Gu@physx@@V?$PxReflectionAllocator@URange@Gu@physx@@@3@@physx@@IEAAAEAURange@Gu@2@AEBU342@@Z 0000000180055770 f i GuSDF.obj
 0001:000548a0       ?growAndPushBack@?$PxArray@URange@MeshAnalyzer@Gu@physx@@V?$PxReflectionAllocator@URange@MeshAnalyzer@Gu@physx@@@4@@physx@@IEAAAEAURange@MeshAnalyzer@Gu@2@AEBU3452@@Z 00000001800558a0 f i GuSDF.obj
 0001:000549c0       ?growAndPushBack@?$PxArray@USDFCalculationData@Gu@physx@@V?$PxReflectionAllocator@USDFCalculationData@Gu@physx@@@3@@physx@@IEAAAEAUSDFCalculationData@Gu@2@AEBU342@@Z 00000001800559c0 f i GuSDF.obj
 0001:00054b40       ?growAndPushBack@?$PxArray@V?$PxVec3T@M@physx@@V?$PxReflectionAllocator@V?$PxVec3T@M@physx@@@2@@physx@@IEAAAEAV?$PxVec3T@M@2@AEBV32@@Z 0000000180055b40 f i GuSDF.obj
 0001:00054d20       ?projectPoint@PointOntoTriangleMeshProjector@Gu@physx@@UEAA?AV?$PxVec3T@M@3@AEBV43@@Z 0000000180055d20 f i GuSDF.obj
 0001:00054d90       ?projectPoint@PointOntoTriangleMeshProjector@Gu@physx@@UEAA?AV?$PxVec3T@M@3@AEBV43@AEAI@Z 0000000180055d90 f i GuSDF.obj
 0001:00054e10       ?recreate@?$PxArray@HV?$PxReflectionAllocator@H@physx@@@physx@@IEAAXI@Z 0000000180055e10 f i GuSDF.obj
 0001:00054f00       ?recreate@?$PxArray@MV?$PxReflectionAllocator@M@physx@@@physx@@IEAAXI@Z 0000000180055f00 f i GuSDF.obj
 0001:00054fe0       ?recreate@?$PxArray@UBVHNode@Gu@physx@@V?$PxReflectionAllocator@UBVHNode@Gu@physx@@@3@@physx@@IEAAXI@Z 0000000180055fe0 f i GuSDF.obj
 0001:00055220       ?release@PointOntoTriangleMeshProjector@Gu@physx@@UEAAXXZ 0000000180056220 f i GuSDF.obj
 0001:00055270       ?reserveInternal@?$PxHashBase@V?$PxPair@$$CBIU?$ClusterApproximationT@MV?$PxVec3T@M@physx@@@Gu@physx@@@physx@@IU?$PxHash@I@2@UGetKey@?$PxHashMapBase@IU?$ClusterApproximationT@MV?$PxVec3T@M@physx@@@Gu@physx@@U?$PxHash@I@3@VPxAllocator@3@@2@VPxAllocator@2@$00@physx@@AEAAXI@Z 0000000180056270 f i GuSDF.obj
 0001:00055470       ?reserveInternal@?$PxHashBase@V?$PxPair@$$CBUSortedTriangle@Gu@physx@@H@physx@@USortedTriangle@Gu@2@UTriangleHash@42@UGetKey@?$PxHashMapBase@USortedTriangle@Gu@physx@@HUTriangleHash@23@VPxAllocator@3@@2@VPxAllocator@2@$00@physx@@AEAAXI@Z 0000000180056470 f i GuSDF.obj
 0001:00055610       ?reserveInternal@?$PxHashBase@V?$PxPair@$$CB_KH@physx@@_KU?$PxHash@_K@2@UGetKey@?$PxHashMapBase@_KHU?$PxHash@_K@physx@@VPxAllocator@2@@2@VPxAllocator@2@$00@physx@@AEAAXI@Z 0000000180056610 f i GuSDF.obj
 0001:00055610       ?reserveInternal@?$PxHashBase@V?$PxPair@$$CB_KI@physx@@_KU?$PxHash@_K@2@UGetKey@?$PxHashMapBase@_KIU?$PxHash@_K@physx@@VPxAllocator@2@@2@VPxAllocator@2@$00@physx@@AEAAXI@Z 0000000180056610 f i GuSDF.obj
 0001:000557f0       ?resize@?$PxArray@IV?$PxReflectionAllocator@I@physx@@@physx@@QEAAXIAEBI@Z 00000001800567f0 f i GuSDF.obj
 0001:000558b0       ?resize@?$PxArray@MV?$PxReflectionAllocator@M@physx@@@physx@@QEAAXIAEBM@Z 00000001800568b0 f i GuSDF.obj
 0001:000559b0       ?resize@?$PxArray@UBVHNode@Gu@physx@@V?$PxReflectionAllocator@UBVHNode@Gu@physx@@@3@@physx@@QEAAXIAEBUBVHNode@Gu@2@@Z 00000001800569b0 f i GuSDF.obj
 0001:00055b30       ?sampleSDFDirect@?$DenseSDF@M@Gu@physx@@QEAAMAEBV?$PxVec3T@M@3@@Z 0000000180056b30 f i GuSDF.obj
 0001:00055cc0       ?signedVolume@Gu@physx@@YAMPEBV?$PxVec3T@M@2@PEBII1I@Z 0000000180056cc0 f   GuSDF.obj
 0001:00056200       ?windingNumbers@Gu@physx@@YAXPEBV?$PxVec3T@M@2@PEBIIIIIPEAMV32@3PEAV32@@Z 0000000180057200 f   GuSDF.obj
 0001:00056650       ?windingNumbersInsideCheck@Gu@physx@@YAXPEBV?$PxVec3T@M@2@PEBIIIIIPEA_NV32@3PEAV32@@Z 0000000180057650 f   GuSDF.obj
 0001:00057010       ??0MeshData@physx@@QEAA@AEBVPxTriangleMeshDesc@1@@Z 0000000180058010 f i GuCookingSDF.obj
 0001:000570f0       ?GetBounds@MeshData@physx@@QEBAXAEAV?$PxVec3T@M@2@0@Z 00000001800580f0 f i GuCookingSDF.obj
 0001:00057390       ?buildSDF@physx@@YA_NAEAVPxTriangleMeshDesc@1@AEAV?$PxArray@MV?$PxReflectionAllocator@M@physx@@@1@AEAV?$PxArray@EV?$PxReflectionAllocator@E@physx@@@1@AEAV?$PxArray@IV?$PxReflectionAllocator@I@physx@@@1@@Z 0000000180058390 f   GuCookingSDF.obj
 0001:00057ec0       ?quantizeSparseSDF@physx@@YAXW4Enum@PxSdfBitsPerSubgridPixel@1@AEBV?$PxArray@MV?$PxReflectionAllocator@M@physx@@@1@AEAV?$PxArray@EV?$PxReflectionAllocator@E@physx@@@1@MM@Z 0000000180058ec0 f   GuCookingSDF.obj
 0001:00057fa0       ?recreate@?$PxArray@EV?$PxReflectionAllocator@E@physx@@@physx@@IEAAXI@Z 0000000180058fa0 f i GuCookingSDF.obj
 0001:00058090       ?recreate@?$PxArray@V?$PxVec3T@M@physx@@V?$PxReflectionAllocator@V?$PxVec3T@M@physx@@@2@@physx@@IEAAXI@Z 0000000180059090 f i GuCookingSDF.obj
 0001:00058230       ?resize@?$PxArray@EV?$PxReflectionAllocator@E@physx@@@physx@@QEAAXIAEBE@Z 0000000180059230 f i GuCookingSDF.obj
 0001:000582f0       ?resize@?$PxArray@V?$PxVec3T@M@physx@@V?$PxReflectionAllocator@V?$PxVec3T@M@physx@@@2@@physx@@QEAAXIAEBV?$PxVec3T@M@2@@Z 00000001800592f0 f i GuCookingSDF.obj
 0001:000583e0       ??$gjk@U?$RelativeConvex@UCustomConvexV@@@Gu@physx@@U?$LocalConvex@UCustomConvexV@@@23@@Gu@physx@@YA?AW4GjkStatus@01@AEBU?$RelativeConvex@UCustomConvexV@@@01@AEBU?$LocalConvex@UCustomConvexV@@@01@AEBT__m128@@2AEAT5@333@Z 00000001800593e0 f i GuGjkQuery.obj
 0001:00059170       ??$gjkPenetration@U?$RelativeConvex@UCustomConvexV@@@Gu@physx@@U?$LocalConvex@UCustomConvexV@@@23@@Gu@physx@@YA?AW4GjkStatus@01@AEBU?$RelativeConvex@UCustomConvexV@@@01@AEBU?$LocalConvex@UCustomConvexV@@@01@AEBT__m128@@2_NPEIAE4PEIAT5@5AEAEAEAUGjkOutput@01@@Z 000000018005a170 f i GuGjkQuery.obj
 0001:0005a6e0       ??$gjkPenetration@U?$RelativeConvex@UCustomConvexV@@@Gu@physx@@U?$LocalConvex@UCustomConvexV@@@23@@Gu@physx@@YA?AW4GjkStatus@01@AEBU?$RelativeConvex@UCustomConvexV@@@01@AEBU?$LocalConvex@UCustomConvexV@@@01@AEBT__m128@@2_NPEIAT5@4AEAEAEAUGjkOutput@01@@Z 000000018005b6e0 f i GuGjkQuery.obj
 0001:0005a740       ??$gjkRaycast@U?$RelativeConvex@UCustomConvexV@@@Gu@physx@@U?$LocalConvex@UCustomConvexV@@@23@@Gu@physx@@YA_NAEBU?$RelativeConvex@UCustomConvexV@@@01@AEBU?$LocalConvex@UCustomConvexV@@@01@AEBT__m128@@222AEAT4@33M@Z 000000018005b740 f i GuGjkQuery.obj
 0001:0005b4a0       ??$gjkRaycast@U?$RelativeConvex@UCustomConvexV@@@Gu@physx@@U?$LocalConvex@UPointConvexV@@@23@@Gu@physx@@YA_NAEBU?$RelativeConvex@UCustomConvexV@@@01@AEBU?$LocalConvex@UPointConvexV@@@01@AEBT__m128@@222AEAT4@33M@Z 000000018005c4a0 f i GuGjkQuery.obj
 0001:0005c0e0       ?overlap@PxGjkQuery@physx@@SA_NAEBUSupport@12@0AEBV?$PxTransformT@M@2@1@Z 000000018005d0e0 f   GuGjkQuery.obj
 0001:0005c470       ?proximityInfo@PxGjkQuery@physx@@SA_NAEBUSupport@12@0AEBV?$PxTransformT@M@2@1MMAEAV?$PxVec3T@M@2@22AEAM@Z 000000018005d470 f   GuGjkQuery.obj
 0001:0005d230       ?raycast@PxGjkQuery@physx@@SA_NAEBUSupport@12@AEBV?$PxTransformT@M@2@AEBV?$PxVec3T@M@2@2MAEAMAEAV52@4@Z 000000018005e230 f   GuGjkQuery.obj
 0001:0005d720       ?support@?$LocalConvex@UCustomConvexV@@@Gu@physx@@UEBA?AT__m128@@AEBT4@@Z 000000018005e720 f i GuGjkQuery.obj
 0001:0005d7a0       ?support@?$LocalConvex@UCustomConvexV@@@Gu@physx@@UEBA?AT__m128@@AEBT4@AEAH@Z 000000018005e7a0 f i GuGjkQuery.obj
 0001:0005d820       ?support@?$LocalConvex@UPointConvexV@@@Gu@physx@@UEBA?AT__m128@@AEBT4@@Z 000000018005e820 f i GuGjkQuery.obj
 0001:0005d820       ?supportPoint@?$LocalConvex@UPointConvexV@@@Gu@physx@@UEBA?AT__m128@@H@Z 000000018005e820 f i GuGjkQuery.obj
 0001:0005d830       ?support@?$LocalConvex@UPointConvexV@@@Gu@physx@@UEBA?AT__m128@@AEBT4@AEAH@Z 000000018005e830 f i GuGjkQuery.obj
 0001:0005d850       ?support@?$RelativeConvex@UCustomConvexV@@@Gu@physx@@UEBA?AT__m128@@AEBT4@@Z 000000018005e850 f i GuGjkQuery.obj
 0001:0005d920       ?support@?$RelativeConvex@UCustomConvexV@@@Gu@physx@@UEBA?AT__m128@@AEBT4@AEAH@Z 000000018005e920 f i GuGjkQuery.obj
 0001:0005da00       ?supportPoint@?$LocalConvex@UCustomConvexV@@@Gu@physx@@UEBA?AT__m128@@H@Z 000000018005ea00 f i GuGjkQuery.obj
 0001:0005da70       ?supportPoint@?$RelativeConvex@UCustomConvexV@@@Gu@physx@@UEBA?AT__m128@@H@Z 000000018005ea70 f i GuGjkQuery.obj
 0001:0005db10       ?sweep@PxGjkQuery@physx@@SA_NAEBUSupport@12@0AEBV?$PxTransformT@M@2@1AEBV?$PxVec3T@M@2@MAEAMAEAV52@4@Z 000000018005eb10 f   GuGjkQuery.obj
 0001:0005e2d0       ??$approximateCluster@MV?$PxVec3T@M@physx@@@Gu@physx@@YAXAEBV?$PxArray@HV?$PxReflectionAllocator@H@physx@@@1@IIPEBIPEBV?$PxVec3T@M@1@AEBV?$PxArray@MV?$PxReflectionAllocator@M@physx@@@1@AEBV?$PxArray@V?$PxVec3T@M@physx@@V?$PxReflectionAllocator@V?$PxVec3T@M@physx@@@2@@1@4AEAU?$ClusterApproximationT@MV?$PxVec3T@M@physx@@@01@@Z 000000018005f2d0 f i GuWindingNumber.obj
 0001:0005e910       ??$copy@V?$PxReflectionAllocator@M@physx@@@?$PxArray@MV?$PxReflectionAllocator@M@physx@@@physx@@IEAAXAEBV01@@Z 000000018005f910 f i GuWindingNumber.obj
 0001:0005e970       ??$precomputeClusterInformation@MV?$PxVec3T@M@physx@@@Gu@physx@@YAXHPEBUBVHNode@01@PEBIIPEBV?$PxVec3T@M@1@AEAV?$PxHashMap@IU?$ClusterApproximationT@MV?$PxVec3T@M@physx@@@Gu@physx@@U?$PxHash@I@3@VPxAllocator@3@@1@V?$PxArray@MV?$PxReflectionAllocator@M@physx@@@1@AEBV?$PxArray@V?$PxVec3T@M@physx@@V?$PxReflectionAllocator@V?$PxVec3T@M@physx@@@2@@1@5@Z 000000018005f970 f i GuWindingNumber.obj
 0001:0005ed40       ??$precomputeClusterInformation@MV?$PxVec3T@M@physx@@@Gu@physx@@YAXPEBUBVHNode@01@PEBIIPEBV?$PxVec3T@M@1@AEAV?$PxHashMap@IU?$ClusterApproximationT@MV?$PxVec3T@M@physx@@@Gu@physx@@U?$PxHash@I@3@VPxAllocator@3@@1@H@Z 000000018005fd40 f i GuWindingNumber.obj
 0001:0005f150       ??$traverseBVH@V?$WindingNumberTraversalController@MV?$PxVec3T@M@physx@@@Gu@physx@@@Gu@physx@@YAXPEBUBVHNode@01@AEAV?$WindingNumberTraversalController@MV?$PxVec3T@M@physx@@@01@H@Z 0000000180060150 f i GuWindingNumber.obj
 0001:0005f6a0       ?allocate@?$PxArray@HV?$PxReflectionAllocator@H@physx@@@physx@@IEAAPEAHI@Z 00000001800606a0 f i GuWindingNumber.obj
 0001:0005f730       ?computeWindingNumber@Gu@physx@@YAMPEBUBVHNode@12@AEBV?$PxVec3T@M@2@AEBV?$PxHashMap@IU?$ClusterApproximationT@MV?$PxVec3T@M@physx@@@Gu@physx@@U?$PxHash@I@3@VPxAllocator@3@@2@PEBIPEBV42@@Z 0000000180060730 f   GuWindingNumber.obj
 0001:0005f7a0       ?computeWindingNumber@Gu@physx@@YAMPEBUBVHNode@12@AEBV?$PxVec3T@M@2@MAEBV?$PxHashMap@IU?$ClusterApproximationT@MV?$PxVec3T@M@physx@@@Gu@physx@@U?$PxHash@I@3@VPxAllocator@3@@2@PEBIPEBV42@@Z 00000001800607a0 f   GuWindingNumber.obj
 0001:0005f810       ?copy@?$PxArray@MV?$PxReflectionAllocator@M@physx@@@physx@@KAXPEAM0PEBM@Z 0000000180060810 f i GuWindingNumber.obj
 0001:0005f870       ?create@?$PxHashBase@V?$PxPair@$$CBIU?$ClusterApproximationT@MV?$PxVec3T@M@physx@@@Gu@physx@@@physx@@IU?$PxHash@I@2@UGetKey@?$PxHashMapBase@IU?$ClusterApproximationT@MV?$PxVec3T@M@physx@@@Gu@physx@@U?$PxHash@I@3@VPxAllocator@3@@2@VPxAllocator@2@$00@physx@@QEAAPEAV?$PxPair@$$CBIU?$ClusterApproximationT@MV?$PxVec3T@M@physx@@@Gu@physx@@@2@AEBIAEA_N@Z 0000000180060870 f i GuWindingNumber.obj
 0001:0005f9c0       ?growAndPushBack@?$PxArray@HV?$PxReflectionAllocator@H@physx@@@physx@@IEAAAEAHAEBH@Z 00000001800609c0 f i GuWindingNumber.obj
 0001:0005fa80       ?growAndPushBack@?$PxArray@USection@Gu@physx@@V?$PxReflectionAllocator@USection@Gu@physx@@@3@@physx@@IEAAAEAUSection@Gu@2@AEBU342@@Z 0000000180060a80 f i GuWindingNumber.obj
 0001:0005fba0       ?precomputeClusterInformation@Gu@physx@@YAXPEBUBVHNode@12@PEBIIPEBV?$PxVec3T@M@2@AEAV?$PxHashMap@IU?$ClusterApproximationT@MV?$PxVec3T@M@physx@@@Gu@physx@@U?$PxHash@I@3@VPxAllocator@3@@2@H@Z 0000000180060ba0 f   GuWindingNumber.obj
 0001:0005fc40       ?SweepAnyShapeHeightfield@Gu@physx@@YAMAEBUCCDShape@12@0AEBUPxTransformPadded@2@111MAEAV?$PxVec3T@M@2@2MAEAIM@Z 0000000180060c40 f   GuCCDSweepConvexMesh.obj
 0001:000611b0       ?SweepAnyShapeMesh@Gu@physx@@YAMAEBUCCDShape@12@0AEBUPxTransformPadded@2@111MAEAV?$PxVec3T@M@2@2MAEAIM@Z 00000001800621b0 f   GuCCDSweepConvexMesh.obj
 0001:00062770       ?SweepEstimateAnyShapeHeightfield@Gu@physx@@YAMAEBUCCDShape@12@0MM@Z 0000000180063770 f   GuCCDSweepConvexMesh.obj
 0001:000633d0       ?SweepEstimateAnyShapeMesh@Gu@physx@@YAMAEBUCCDShape@12@0MM@Z 00000001800643d0 f   GuCCDSweepConvexMesh.obj
 0001:00063670       ?allocate@?$PxArray@IV?$PxInlineAllocator@$0BAA@V?$PxReflectionAllocator@I@physx@@@physx@@@physx@@IEAAPEAII@Z 0000000180064670 f i GuCCDSweepConvexMesh.obj
 0001:00064150       ?growAndPushBack@?$PxArray@IV?$PxInlineAllocator@$0BAA@V?$PxReflectionAllocator@I@physx@@@physx@@@physx@@IEAAAEAIAEBI@Z 0000000180065150 f i GuCCDSweepConvexMesh.obj
 0001:00064790       ?recreate@?$PxArray@IV?$PxInlineAllocator@$0BAA@V?$PxReflectionAllocator@I@physx@@@physx@@@physx@@IEAAXI@Z 0000000180065790 f i GuCCDSweepConvexMesh.obj
 0001:000648d0       ?resize@?$PxArray@IV?$PxInlineAllocator@$0BAA@V?$PxReflectionAllocator@I@physx@@@physx@@@physx@@QEAAXIAEBI@Z 00000001800658d0 f i GuCCDSweepConvexMesh.obj
 0001:000649a0       ?transformBoxOrthonormal@physx@@YA?AVBox@Gu@1@AEBV231@AEBV?$PxTransformT@M@1@@Z 00000001800659a0 f i GuCCDSweepConvexMesh.obj
 0001:00064e30       ?UnimplementedSweep@Gu@physx@@YAMAEBUCCDShape@12@0AEBUPxTransformPadded@2@111MAEAV?$PxVec3T@M@2@2MAEAIM@Z 0000000180065e30 f   GuCCDSweepPrimitives.obj
 0001:000689a0       ?UnimplementedTriangleSweep@Gu@physx@@YAMAEBVPxGeometry@2@0AEBUPxTransformPadded@2@111MAEAV?$PxVec3T@M@2@2AEBVFastVertex2ShapeScaling@Cm@2@AEAVTriangleV@12@M@Z 00000001800699a0 f   GuCCDSweepPrimitives.obj
 0001:000689b0       ??$SweepGeomTriangles@VCapsuleV@Gu@physx@@@Gu@physx@@YAMAEBVPxGeometry@1@0AEBUPxTransformPadded@1@111MAEAV?$PxVec3T@M@1@2AEBVFastVertex2ShapeScaling@Cm@1@AEAVTriangleV@01@M@Z 00000001800699b0 f i GuCCDSweepPrimitives.obj
 0001:000690e0       ??$SweepGeomTriangles@VBoxV@Gu@physx@@@Gu@physx@@YAMAEBVPxGeometry@1@0AEBUPxTransformPadded@1@111MAEAV?$PxVec3T@M@1@2AEBVFastVertex2ShapeScaling@Cm@1@AEAVTriangleV@01@M@Z 000000018006a0e0 f i GuCCDSweepPrimitives.obj
 0001:00069830       ??$SweepGeomTriangles@VConvexHullV@Gu@physx@@@Gu@physx@@YAMAEBVPxGeometry@1@0AEBUPxTransformPadded@1@111MAEAV?$PxVec3T@M@1@2AEBVFastVertex2ShapeScaling@Cm@1@AEAVTriangleV@01@M@Z 000000018006a830 f i GuCCDSweepPrimitives.obj
 0001:0006a310       ?supportPoint@?$RelativeConvex@VCapsuleV@Gu@physx@@@Gu@physx@@UEBA?AT__m128@@H@Z 000000018006b310 f i GuCCDSweepPrimitives.obj
 0001:0006a370       ?support@?$RelativeConvex@VCapsuleV@Gu@physx@@@Gu@physx@@UEBA?AT__m128@@AEBT4@@Z 000000018006b370 f i GuCCDSweepPrimitives.obj
 0001:0006a420       ?support@?$RelativeConvex@VCapsuleV@Gu@physx@@@Gu@physx@@UEBA?AT__m128@@AEBT4@AEAH@Z 000000018006b420 f i GuCCDSweepPrimitives.obj
 0001:0006a4e0       ?supportPoint@?$RelativeConvex@VTriangleV@Gu@physx@@@Gu@physx@@UEBA?AT__m128@@H@Z 000000018006b4e0 f i GuCCDSweepPrimitives.obj
 0001:0006a530       ?support@?$RelativeConvex@VTriangleV@Gu@physx@@@Gu@physx@@UEBA?AT__m128@@AEBT4@@Z 000000018006b530 f i GuCCDSweepPrimitives.obj
 0001:0006a630       ?support@?$RelativeConvex@VTriangleV@Gu@physx@@@Gu@physx@@UEBA?AT__m128@@AEBT4@AEAH@Z 000000018006b630 f i GuCCDSweepPrimitives.obj
 0001:0006a770       ??$gjkPenetration@U?$RelativeConvex@VCapsuleV@Gu@physx@@@Gu@physx@@U?$LocalConvex@VBoxV@Gu@physx@@@23@@Gu@physx@@YA?AW4GjkStatus@01@AEBU?$RelativeConvex@VCapsuleV@Gu@physx@@@01@AEBU?$LocalConvex@VBoxV@Gu@physx@@@01@AEBT__m128@@2_NPEIAE4AEAEAEAUGjkOutput@01@@Z 000000018006b770 f i GuCCDSweepPrimitives.obj
 0001:0006a7e0       ??$gjkPenetration@U?$RelativeConvex@VCapsuleV@Gu@physx@@@Gu@physx@@U?$LocalConvex@VBoxV@Gu@physx@@@23@@Gu@physx@@YA?AW4GjkStatus@01@AEBU?$RelativeConvex@VCapsuleV@Gu@physx@@@01@AEBU?$LocalConvex@VBoxV@Gu@physx@@@01@AEBT__m128@@2_NPEIAE4PEIAT5@5AEAEAEAUGjkOutput@01@@Z 000000018006b7e0 f i GuCCDSweepPrimitives.obj
 0001:0006bce0       ??$gjkPenetration@U?$RelativeConvex@VCapsuleV@Gu@physx@@@Gu@physx@@U?$LocalConvex@VCapsuleV@Gu@physx@@@23@@Gu@physx@@YA?AW4GjkStatus@01@AEBU?$RelativeConvex@VCapsuleV@Gu@physx@@@01@AEBU?$LocalConvex@VCapsuleV@Gu@physx@@@01@AEBT__m128@@2_NPEIAE4AEAEAEAUGjkOutput@01@@Z 000000018006cce0 f i GuCCDSweepPrimitives.obj
 0001:0006bd50       ??$gjkPenetration@U?$RelativeConvex@VCapsuleV@Gu@physx@@@Gu@physx@@U?$LocalConvex@VCapsuleV@Gu@physx@@@23@@Gu@physx@@YA?AW4GjkStatus@01@AEBU?$RelativeConvex@VCapsuleV@Gu@physx@@@01@AEBU?$LocalConvex@VCapsuleV@Gu@physx@@@01@AEBT__m128@@2_NPEIAE4PEIAT5@5AEAEAEAUGjkOutput@01@@Z 000000018006cd50 f i GuCCDSweepPrimitives.obj
 0001:0006d240       ??$gjkPenetration@U?$RelativeConvex@VCapsuleV@Gu@physx@@@Gu@physx@@U?$LocalConvex@VConvexHullV@Gu@physx@@@23@@Gu@physx@@YA?AW4GjkStatus@01@AEBU?$RelativeConvex@VCapsuleV@Gu@physx@@@01@AEBU?$LocalConvex@VConvexHullV@Gu@physx@@@01@AEBT__m128@@2_NPEIAE4AEAEAEAUGjkOutput@01@@Z 000000018006e240 f i GuCCDSweepPrimitives.obj
 0001:0006d2b0       ??$gjkPenetration@U?$RelativeConvex@VCapsuleV@Gu@physx@@@Gu@physx@@U?$LocalConvex@VConvexHullV@Gu@physx@@@23@@Gu@physx@@YA?AW4GjkStatus@01@AEBU?$RelativeConvex@VCapsuleV@Gu@physx@@@01@AEBU?$LocalConvex@VConvexHullV@Gu@physx@@@01@AEBT__m128@@2_NPEIAE4PEIAT5@5AEAEAEAUGjkOutput@01@@Z 000000018006e2b0 f i GuCCDSweepPrimitives.obj
 0001:0006e850       ??$gjkPenetration@U?$RelativeConvex@VTriangleV@Gu@physx@@@Gu@physx@@U?$LocalConvex@VBoxV@Gu@physx@@@23@@Gu@physx@@YA?AW4GjkStatus@01@AEBU?$RelativeConvex@VTriangleV@Gu@physx@@@01@AEBU?$LocalConvex@VBoxV@Gu@physx@@@01@AEBT__m128@@2_NPEIAE4AEAEAEAUGjkOutput@01@@Z 000000018006f850 f i GuCCDSweepPrimitives.obj
 0001:0006e8c0       ??$gjkPenetration@U?$RelativeConvex@VTriangleV@Gu@physx@@@Gu@physx@@U?$LocalConvex@VBoxV@Gu@physx@@@23@@Gu@physx@@YA?AW4GjkStatus@01@AEBU?$RelativeConvex@VTriangleV@Gu@physx@@@01@AEBU?$LocalConvex@VBoxV@Gu@physx@@@01@AEBT__m128@@2_NPEIAE4PEIAT5@5AEAEAEAUGjkOutput@01@@Z 000000018006f8c0 f i GuCCDSweepPrimitives.obj
 0001:0006fde0       ??$gjkPenetration@U?$RelativeConvex@VTriangleV@Gu@physx@@@Gu@physx@@U?$LocalConvex@VCapsuleV@Gu@physx@@@23@@Gu@physx@@YA?AW4GjkStatus@01@AEBU?$RelativeConvex@VTriangleV@Gu@physx@@@01@AEBU?$LocalConvex@VCapsuleV@Gu@physx@@@01@AEBT__m128@@2_NPEIAE4AEAEAEAUGjkOutput@01@@Z 0000000180070de0 f i GuCCDSweepPrimitives.obj
 0001:0006fe50       ??$gjkPenetration@U?$RelativeConvex@VTriangleV@Gu@physx@@@Gu@physx@@U?$LocalConvex@VCapsuleV@Gu@physx@@@23@@Gu@physx@@YA?AW4GjkStatus@01@AEBU?$RelativeConvex@VTriangleV@Gu@physx@@@01@AEBU?$LocalConvex@VCapsuleV@Gu@physx@@@01@AEBT__m128@@2_NPEIAE4PEIAT5@5AEAEAEAUGjkOutput@01@@Z 0000000180070e50 f i GuCCDSweepPrimitives.obj
 0001:00071360       ??$gjkPenetration@U?$RelativeConvex@VTriangleV@Gu@physx@@@Gu@physx@@U?$LocalConvex@VConvexHullV@Gu@physx@@@23@@Gu@physx@@YA?AW4GjkStatus@01@AEBU?$RelativeConvex@VTriangleV@Gu@physx@@@01@AEBU?$LocalConvex@VConvexHullV@Gu@physx@@@01@AEBT__m128@@2_NPEIAE4AEAEAEAUGjkOutput@01@@Z 0000000180072360 f i GuCCDSweepPrimitives.obj
 0001:000713d0       ??$gjkPenetration@U?$RelativeConvex@VTriangleV@Gu@physx@@@Gu@physx@@U?$LocalConvex@VConvexHullV@Gu@physx@@@23@@Gu@physx@@YA?AW4GjkStatus@01@AEBU?$RelativeConvex@VTriangleV@Gu@physx@@@01@AEBU?$LocalConvex@VConvexHullV@Gu@physx@@@01@AEBT__m128@@2_NPEIAE4PEIAT5@5AEAEAEAUGjkOutput@01@@Z 00000001800723d0 f i GuCCDSweepPrimitives.obj
 0001:00072980       ??$gjkRaycast@U?$RelativeConvex@VCapsuleV@Gu@physx@@@Gu@physx@@U?$LocalConvex@VBoxV@Gu@physx@@@23@@Gu@physx@@YA_NAEBU?$RelativeConvex@VCapsuleV@Gu@physx@@@01@AEBU?$LocalConvex@VBoxV@Gu@physx@@@01@AEBT__m128@@222AEAT4@33M@Z 0000000180073980 f i GuCCDSweepPrimitives.obj
 0001:000735f0       ??$gjkRaycast@U?$RelativeConvex@VCapsuleV@Gu@physx@@@Gu@physx@@U?$LocalConvex@VCapsuleV@Gu@physx@@@23@@Gu@physx@@YA_NAEBU?$RelativeConvex@VCapsuleV@Gu@physx@@@01@AEBU?$LocalConvex@VCapsuleV@Gu@physx@@@01@AEBT__m128@@222AEAT4@33M@Z 00000001800745f0 f i GuCCDSweepPrimitives.obj
 0001:000742e0       ??$gjkRaycast@U?$RelativeConvex@VCapsuleV@Gu@physx@@@Gu@physx@@U?$LocalConvex@VConvexHullV@Gu@physx@@@23@@Gu@physx@@YA_NAEBU?$RelativeConvex@VCapsuleV@Gu@physx@@@01@AEBU?$LocalConvex@VConvexHullV@Gu@physx@@@01@AEBT__m128@@222AEAT4@33M@Z 00000001800752e0 f i GuCCDSweepPrimitives.obj
 0001:000750e0       ??$gjkRaycast@U?$RelativeConvex@VTriangleV@Gu@physx@@@Gu@physx@@U?$LocalConvex@VBoxV@Gu@physx@@@23@@Gu@physx@@YA_NAEBU?$RelativeConvex@VTriangleV@Gu@physx@@@01@AEBU?$LocalConvex@VBoxV@Gu@physx@@@01@AEBT__m128@@222AEAT4@33M@Z 00000001800760e0 f i GuCCDSweepPrimitives.obj
 0001:00075df0       ??$gjkRaycast@U?$RelativeConvex@VTriangleV@Gu@physx@@@Gu@physx@@U?$LocalConvex@VCapsuleV@Gu@physx@@@23@@Gu@physx@@YA_NAEBU?$RelativeConvex@VTriangleV@Gu@physx@@@01@AEBU?$LocalConvex@VCapsuleV@Gu@physx@@@01@AEBT__m128@@222AEAT4@33M@Z 0000000180076df0 f i GuCCDSweepPrimitives.obj
 0001:00076b70       ??$gjkRaycast@U?$RelativeConvex@VTriangleV@Gu@physx@@@Gu@physx@@U?$LocalConvex@VConvexHullV@Gu@physx@@@23@@Gu@physx@@YA_NAEBU?$RelativeConvex@VTriangleV@Gu@physx@@@01@AEBU?$LocalConvex@VConvexHullV@Gu@physx@@@01@AEBT__m128@@222AEAT4@33M@Z 0000000180077b70 f i GuCCDSweepPrimitives.obj
 0001:00077a30       ?SweepShapeShape@Gu@physx@@YAMAEBUCCDShape@12@0AEBUPxTransformPadded@2@111MAEAV?$PxVec3T@M@2@2MAEAIM@Z 0000000180078a30 f   GuCCDSweepPrimitives.obj
 0001:00077a50       ?SweepShapeTriangle@Gu@physx@@YAMAEBVPxGeometry@2@0AEBUPxTransformPadded@2@111MAEAV?$PxVec3T@M@2@2AEBVFastVertex2ShapeScaling@Cm@2@AEAVTriangleV@12@M@Z 0000000180078a50 f   GuCCDSweepPrimitives.obj
 0001:00077a70       ?barycentricCoordinates@Gu@physx@@YAXAEBT__m128@@000AEAT3@1@Z 0000000180078a70 f   GuBarycentricCoordinates.obj
 0001:00077bb0       ?barycentricCoordinates@Gu@physx@@YAXAEBT__m128@@00AEAT3@@Z 0000000180078bb0 f   GuBarycentricCoordinates.obj
 0001:00077c20       ??$?_UV?$PxReflectionAllocator@VAdjTriangle@Gu@physx@@@physx@@@PxUserAllocated@physx@@SAPEAX_KV?$PxReflectionAllocator@VAdjTriangle@Gu@physx@@@1@PEBDH@Z 0000000180078c20 f i GuAdjacencies.obj
 0001:00077d00       ??0AdjacenciesBuilder@Gu@physx@@QEAA@XZ 0000000180078d00 f   GuAdjacencies.obj
 0001:00077d10       ??1AdjacenciesBuilder@Gu@physx@@QEAA@XZ 0000000180078d10 f   GuAdjacencies.obj
 0001:00077e60       ?ComputeNbBoundaryEdges@Adjacencies@Gu@physx@@QEBAIXZ 0000000180078e60 f   GuAdjacencies.obj
 0001:000780f0       ?Init@AdjacenciesBuilder@Gu@physx@@QEAA_NAEBUADJACENCIESCREATE@23@@Z 00000001800790f0 f   GuAdjacencies.obj
 0001:00078650       ??0EdgeList@Gu@physx@@QEAA@XZ 0000000180079650 f   GuEdgeList.obj
 0001:00078670       ??1EdgeList@Gu@physx@@QEAA@XZ 0000000180079670 f   GuEdgeList.obj
 0001:00078720       ?computeActiveEdges@EdgeList@Gu@physx@@AEAA_NIPEBIPEBGPEBV?$PxVec3T@M@3@M@Z 0000000180079720 f   GuEdgeList.obj
 0001:00079aa0       ?createEdgesToFaces@EdgeList@Gu@physx@@AEAA_NIPEBIPEBG@Z 000000018007aaa0 f   GuEdgeList.obj
 0001:00079d00       ?createFacesToEdges@EdgeList@Gu@physx@@AEAA_NIPEBIPEBG@Z 000000018007ad00 f   GuEdgeList.obj
 0001:0007a0d0       ?init@EdgeList@Gu@physx@@QEAA_NAEBUEDGELISTCREATE@23@@Z 000000018007b0d0 f   GuEdgeList.obj
 0001:0007a200       ?addAxis@SeparatingAxes@Gu@physx@@QEAA_NAEBV?$PxVec3T@M@3@@Z 000000018007b200 f   GuSeparatingAxes.obj
 0001:0007a2c0       ??$kmeans_cluster@V?$PxVec3T@M@physx@@M@@YAIPEBV?$PxVec3T@M@physx@@IIPEAV01@PEAIMM@Z 000000018007b2c0 f i GuQuantizer.obj
 0001:0007ac80       ??_EQuantizer@Gu@physx@@MEAAPEAXI@Z 000000018007bc80 f i GuQuantizer.obj
 0001:0007ac80       ??_GQuantizer@Gu@physx@@MEAAPEAXI@Z 000000018007bc80 f i GuQuantizer.obj
 0001:0007acb0       ??_EQuantizerImpl@@EEAAPEAXI@Z 000000018007bcb0 f i GuQuantizer.obj
 0001:0007acb0       ??_GQuantizerImpl@@EEAAPEAXI@Z 000000018007bcb0 f i GuQuantizer.obj
 0001:0007ad80       ?createQuantizer@Gu@physx@@YAPEAVQuantizer@12@XZ 000000018007bd80 f   GuQuantizer.obj
 0001:0007ae30       ?getDenormalizeCenter@QuantizerImpl@@UEBAAEBV?$PxVec3T@M@physx@@XZ 000000018007be30 f i GuQuantizer.obj
 0001:0007ae40       ?getCurrentAABBTreeBounds@PruningPool@Gu@physx@@QEBAAEBVAABBTreeBounds@23@XZ 000000018007be40 f i GuIncrementalAABBPrunerCore.obj
 0001:0007ae40       ?getDenormalizeScale@QuantizerImpl@@UEBAAEBV?$PxVec3T@M@physx@@XZ 000000018007be40 f i GuQuantizer.obj
 0001:0007ae50       ?kmeansQuantize3D@QuantizerImpl@@UEAAPEBV?$PxVec3T@M@physx@@IPEBV23@I_NIAEAI@Z 000000018007be50 f i GuQuantizer.obj
 0001:0007b0c0       ?normalizeInput@QuantizerImpl@@AEAAXIPEBV?$PxVec3T@M@physx@@I@Z 000000018007c0c0 f i GuQuantizer.obj
 0001:0007b510       ?release@QuantizerImpl@@UEAAXXZ 000000018007c510 f i GuQuantizer.obj
 0001:0007b530       ??0MeshCleaner@Gu@physx@@QEAA@IPEBV?$PxVec3T@M@2@IPEBIM@Z 000000018007c530 f   GuMeshCleaner.obj
 0001:0007bef0       ??1MeshCleaner@Gu@physx@@QEAA@XZ 000000018007cef0 f   GuMeshCleaner.obj
 0001:0007bf80       ??0ReducedVertexCloud@Gu@physx@@QEAA@PEBV?$PxVec3T@M@2@I@Z 000000018007cf80 f   GuVertexReducer.obj
 0001:0007bfa0       ??1ReducedVertexCloud@Gu@physx@@QEAA@XZ 000000018007cfa0 f   GuVertexReducer.obj
 0001:0007bfb0       ?clean@ReducedVertexCloud@Gu@physx@@QEAAAEAV123@XZ 000000018007cfb0 f   GuVertexReducer.obj
 0001:0007c020       ?reduce@ReducedVertexCloud@Gu@physx@@QEAA_NPEAUREDUCEDCLOUD@23@@Z 000000018007d020 f   GuVertexReducer.obj
 0001:0007c2c0       ??$copy@V?$PxReflectionAllocator@I@physx@@@?$PxArray@IV?$PxReflectionAllocator@I@physx@@@physx@@IEAAXAEBV01@@Z 000000018007d2c0 f i GuMeshAnalysis.obj
 0001:0007c330       ?buildConsistentTriangleOrientationMap@MeshAnalyzer@Gu@physx@@SA_NPEBU?$IndexedTriangleT@H@23@IAEAV?$PxArray@_NV?$PxReflectionAllocator@_N@physx@@@3@AEAV?$PxHashMap@_KHU?$PxHash@_K@physx@@VPxAllocator@2@@3@AEAV?$PxArray@V?$PxArray@IV?$PxReflectionAllocator@I@physx@@@physx@@V?$PxReflectionAllocator@V?$PxArray@IV?$PxReflectionAllocator@I@physx@@@physx@@@2@@3@@Z 000000018007d330 f   GuMeshAnalysis.obj
 0001:0007c870       ?buildTriangleAdjacency@MeshAnalyzer@Gu@physx@@SA_NPEBU?$IndexedTriangleT@H@23@IAEAV?$PxArray@HV?$PxReflectionAllocator@H@physx@@@3@AEAV?$PxHashMap@_KHU?$PxHash@_K@physx@@VPxAllocator@2@@3@@Z 000000018007d870 f   GuMeshAnalysis.obj
 0001:0007cb70       ?checkConsistentTriangleOrientation@MeshAnalyzer@Gu@physx@@SA_NPEBU?$IndexedTriangleT@H@23@I@Z 000000018007db70 f   GuMeshAnalysis.obj
 0001:0007ccc0       ?checkMeshWatertightness@MeshAnalyzer@Gu@physx@@SA_NPEBU?$IndexedTriangleT@H@23@I_N@Z 000000018007dcc0 f   GuMeshAnalysis.obj
 0001:0007ce90       ?destroy@?$PxArray@V?$PxArray@IV?$PxReflectionAllocator@I@physx@@@physx@@V?$PxReflectionAllocator@V?$PxArray@IV?$PxReflectionAllocator@I@physx@@@physx@@@2@@physx@@KAXPEAV?$PxArray@IV?$PxReflectionAllocator@I@physx@@@2@0@Z 000000018007de90 f i GuMeshAnalysis.obj
 0001:0007cf00       ?erase@?$PxHashBase@V?$PxPair@$$CB_KH@physx@@_KU?$PxHash@_K@2@UGetKey@?$PxHashMapBase@_KHU?$PxHash@_K@physx@@VPxAllocator@2@@2@VPxAllocator@2@$00@physx@@QEAA_NAEB_K@Z 000000018007df00 f i GuMeshAnalysis.obj
 0001:0007d0b0       ?growAndPushBack@?$PxArray@V?$PxArray@IV?$PxReflectionAllocator@I@physx@@@physx@@V?$PxReflectionAllocator@V?$PxArray@IV?$PxReflectionAllocator@I@physx@@@physx@@@2@@physx@@IEAAAEAV?$PxArray@IV?$PxReflectionAllocator@I@physx@@@2@AEBV32@@Z 000000018007e0b0 f i GuMeshAnalysis.obj
 0001:0007d200       ?makeTriOrientationConsistent@MeshAnalyzer@Gu@physx@@SA_NPEAU?$IndexedTriangleT@H@23@I_N@Z 000000018007e200 f   GuMeshAnalysis.obj
 0001:0007d370       ?recreate@?$PxArray@_NV?$PxReflectionAllocator@_N@physx@@@physx@@IEAAXI@Z 000000018007e370 f i GuMeshAnalysis.obj
 0001:0007d460       ?resize@?$PxArray@HV?$PxReflectionAllocator@H@physx@@@physx@@QEAAXIAEBH@Z 000000018007e460 f i GuMeshAnalysis.obj
 0001:0007d520       ?resize@?$PxArray@_NV?$PxReflectionAllocator@_N@physx@@@physx@@QEAAXIAEB_N@Z 000000018007e520 f i GuMeshAnalysis.obj
 0001:0007d5e0       ?contactBoxBox@Gu@physx@@YA_NAEBVPxGeometry@2@0AEBUPxTransformPadded@2@1AEBUNarrowPhaseParams@12@AEAUCache@12@AEAVPxContactBuffer@2@PEAVPxRenderOutput@2@@Z 000000018007e5e0 f   GuContactBoxBox.obj
 0001:00081770       ?contactCapsuleBox@Gu@physx@@YA_NAEBVPxGeometry@2@0AEBUPxTransformPadded@2@1AEBUNarrowPhaseParams@12@AEAUCache@12@AEAVPxContactBuffer@2@PEAVPxRenderOutput@2@@Z 0000000180082770 f   GuContactCapsuleBox.obj
 0001:00081f80       ?contactCapsuleCapsule@Gu@physx@@YA_NAEBVPxGeometry@2@0AEBUPxTransformPadded@2@1AEBUNarrowPhaseParams@12@AEAUCache@12@AEAVPxContactBuffer@2@PEAVPxRenderOutput@2@@Z 0000000180082f80 f   GuContactCapsuleCapsule.obj
 0001:00084970       ?contactCapsuleConvex@Gu@physx@@YA_NAEBVPxGeometry@2@0AEBUPxTransformPadded@2@1AEBUNarrowPhaseParams@12@AEAUCache@12@AEAVPxContactBuffer@2@PEAVPxRenderOutput@2@@Z 0000000180085970 f   GuContactCapsuleConvex.obj
 0001:00086eb0       ?contactCapsuleHeightfield@Gu@physx@@YA_NAEBVPxGeometry@2@0AEBUPxTransformPadded@2@1AEBUNarrowPhaseParams@12@AEAUCache@12@AEAVPxContactBuffer@2@PEAVPxRenderOutput@2@@Z 0000000180087eb0 f   GuContactCapsuleMesh.obj
 0001:000876c0       ?contactCapsuleMesh@Gu@physx@@YA_NAEBVPxGeometry@2@0AEBUPxTransformPadded@2@1AEBUNarrowPhaseParams@12@AEAUCache@12@AEAVPxContactBuffer@2@PEAVPxRenderOutput@2@@Z 00000001800886c0 f   GuContactCapsuleMesh.obj
 0001:00088aa0       ?transformQueryBounds@FastVertex2ShapeScaling@Cm@physx@@QEBAXAEAV?$PxVec3T@M@3@0AEAV?$PxMat33T@M@3@@Z 0000000180089aa0 f i GuContactCapsuleMesh.obj
 0001:0008cd40       ?contactBoxConvex@Gu@physx@@YA_NAEBVPxGeometry@2@0AEBUPxTransformPadded@2@1AEBUNarrowPhaseParams@12@AEAUCache@12@AEAVPxContactBuffer@2@PEAVPxRenderOutput@2@@Z 000000018008dd40 f   GuContactConvexConvex.obj
 0001:0008cf10       ?contactConvexConvex@Gu@physx@@YA_NAEBVPxGeometry@2@0AEBUPxTransformPadded@2@1AEBUNarrowPhaseParams@12@AEAUCache@12@AEAVPxContactBuffer@2@PEAVPxRenderOutput@2@@Z 000000018008df10 f   GuContactConvexConvex.obj
 0001:0008d390       ?transformPlaneToShapeSpace@FastVertex2ShapeScaling@Cm@physx@@QEBAXAEBV?$PxVec3T@M@3@MAEAV43@AEAM@Z 000000018008e390 f i GuContactConvexConvex.obj
 0001:0008d840       ??_EConvexMeshContactGenerationCallback@@UEAAPEAXI@Z 000000018008e840 f i GuContactConvexMesh.obj
 0001:0008d840       ??_GConvexMeshContactGenerationCallback@@UEAAPEAXI@Z 000000018008e840 f i GuContactConvexMesh.obj
 0001:0008d8a0       ?addData@?$CacheMap@UCachedEdge@Gu@physx@@$0IA@@Gu@physx@@QEAA_NAEBUCachedEdge@23@@Z 000000018008e8a0 f i GuContactConvexMesh.obj
 0001:0008d980       ?addData@?$CacheMap@UCachedVertex@Gu@physx@@$0IA@@Gu@physx@@QEAA_NAEBUCachedVertex@23@@Z 000000018008e980 f i GuContactConvexMesh.obj
 0001:0008da10       ?allocate@?$PxArray@IV?$PxInlineAllocator@$0BBAA@V?$PxReflectionAllocator@I@physx@@@physx@@@physx@@IEAAPEAII@Z 000000018008ea10 f i GuContactConvexMesh.obj
 0001:0008de10       ?contactBoxHeightfield@Gu@physx@@YA_NAEBVPxGeometry@2@0AEBUPxTransformPadded@2@1AEBUNarrowPhaseParams@12@AEAUCache@12@AEAVPxContactBuffer@2@PEAVPxRenderOutput@2@@Z 000000018008ee10 f   GuContactConvexMesh.obj
 0001:0008df90       ?contactBoxMesh@Gu@physx@@YA_NAEBVPxGeometry@2@0AEBUPxTransformPadded@2@1AEBUNarrowPhaseParams@12@AEAUCache@12@AEAVPxContactBuffer@2@PEAVPxRenderOutput@2@@Z 000000018008ef90 f   GuContactConvexMesh.obj
 0001:0008e160       ?contactConvexHeightfield@Gu@physx@@YA_NAEBVPxGeometry@2@0AEBUPxTransformPadded@2@1AEBUNarrowPhaseParams@12@AEAUCache@12@AEAVPxContactBuffer@2@PEAVPxRenderOutput@2@@Z 000000018008f160 f   GuContactConvexMesh.obj
 0001:0008e2b0       ?contactConvexMesh@Gu@physx@@YA_NAEBVPxGeometry@2@0AEBUPxTransformPadded@2@1AEBUNarrowPhaseParams@12@AEAUCache@12@AEAVPxContactBuffer@2@PEAVPxRenderOutput@2@@Z 000000018008f2b0 f   GuContactConvexMesh.obj
 0001:000919c0       ?processHit@ConvexMeshContactGenerationCallback@@UEAA_NAEBUPxGeomRaycastHit@physx@@AEBV?$PxVec3T@M@3@11AEAMPEBI@Z 00000001800929c0 f i GuContactConvexMesh.obj
 0001:00092380       ?recreate@?$PxArray@IV?$PxInlineAllocator@$0BBAA@V?$PxReflectionAllocator@I@physx@@@physx@@@physx@@IEAAXI@Z 0000000180093380 f i GuContactConvexMesh.obj
 0001:00093a60       ?contactPlaneBox@Gu@physx@@YA_NAEBVPxGeometry@2@0AEBUPxTransformPadded@2@1AEBUNarrowPhaseParams@12@AEAUCache@12@AEAVPxContactBuffer@2@PEAVPxRenderOutput@2@@Z 0000000180094a60 f   GuContactPlaneBox.obj
 0001:00094720       ?contactPlaneCapsule@Gu@physx@@YA_NAEBVPxGeometry@2@0AEBUPxTransformPadded@2@1AEBUNarrowPhaseParams@12@AEAUCache@12@AEAVPxContactBuffer@2@PEAVPxRenderOutput@2@@Z 0000000180095720 f   GuContactPlaneCapsule.obj
 0001:00094df0       ?contactPlaneConvex@Gu@physx@@YA_NAEBVPxGeometry@2@0AEBUPxTransformPadded@2@1AEBUNarrowPhaseParams@12@AEAUCache@12@AEAVPxContactBuffer@2@PEAVPxRenderOutput@2@@Z 0000000180095df0 f   GuContactPlaneConvex.obj
 0001:00096b30       ?contactPolygonPolygonExt@Gu@physx@@YA_NIPEBV?$PxVec3T@M@2@PEBEAEBV?$PxMat34T@M@2@AEBVPxPlane@2@AEBV?$PxMat33T@M@2@I01234AEBV32@22IIAEAVPxContactBuffer@2@_N5M@Z 0000000180097b30 f   GuContactPolygonPolygon.obj
 0001:000982a0       ?findRotationMatrixFromZ@Gu@physx@@YA?AV?$PxMat33T@M@2@AEBV?$PxVec3T@M@2@@Z 00000001800992a0 f   GuContactPolygonPolygon.obj
 0001:00098cc0       ?contactSphereBox@Gu@physx@@YA_NAEBVPxGeometry@2@0AEBUPxTransformPadded@2@1AEBUNarrowPhaseParams@12@AEAUCache@12@AEAVPxContactBuffer@2@PEAVPxRenderOutput@2@@Z 0000000180099cc0 f   GuContactSphereBox.obj
 0001:00099290       ?contactSphereCapsule@Gu@physx@@YA_NAEBVPxGeometry@2@0AEBUPxTransformPadded@2@1AEBUNarrowPhaseParams@12@AEAUCache@12@AEAVPxContactBuffer@2@PEAVPxRenderOutput@2@@Z 000000018009a290 f   GuContactSphereCapsule.obj
 0001:0009a070       ?contactSphereHeightfield@Gu@physx@@YA_NAEBVPxGeometry@2@0AEBUPxTransformPadded@2@1AEBUNarrowPhaseParams@12@AEAUCache@12@AEAVPxContactBuffer@2@PEAVPxRenderOutput@2@@Z 000000018009b070 f   GuContactSphereMesh.obj
 0001:0009aa70       ?contactSphereMesh@Gu@physx@@YA_NAEBVPxGeometry@2@0AEBUPxTransformPadded@2@1AEBUNarrowPhaseParams@12@AEAUCache@12@AEAVPxContactBuffer@2@PEAVPxRenderOutput@2@@Z 000000018009ba70 f   GuContactSphereMesh.obj
 0001:0009cdf0       ?contactSpherePlane@Gu@physx@@YA_NAEBVPxGeometry@2@0AEBUPxTransformPadded@2@1AEBUNarrowPhaseParams@12@AEAUCache@12@AEAVPxContactBuffer@2@PEAVPxRenderOutput@2@@Z 000000018009ddf0 f   GuContactSpherePlane.obj
 0001:0009d000       ?contactSphereSphere@Gu@physx@@YA_NAEBVPxGeometry@2@0AEBUPxTransformPadded@2@1AEBUNarrowPhaseParams@12@AEAUCache@12@AEAVPxContactBuffer@2@PEAVPxRenderOutput@2@@Z 000000018009e000 f   GuContactSphereSphere.obj
 0001:0009d180       ?contactCustomGeometryGeometry@Gu@physx@@YA_NAEBVPxGeometry@2@0AEBUPxTransformPadded@2@1AEBUNarrowPhaseParams@12@AEAUCache@12@AEAVPxContactBuffer@2@PEAVPxRenderOutput@2@@Z 000000018009e180 f   GuContactCustomGeometry.obj
 0001:0009d1e0       ?contactGeometryCustomGeometry@Gu@physx@@YA_NAEBVPxGeometry@2@0AEBUPxTransformPadded@2@1AEBUNarrowPhaseParams@12@AEAUCache@12@AEAVPxContactBuffer@2@PEAVPxRenderOutput@2@@Z 000000018009e1e0 f   GuContactCustomGeometry.obj
 0001:0009d2a0       ?selectNormal@Gu@physx@@YA_NEMM@Z 000000018009e2a0 f   GuFeatureCode.obj
 0001:0009d320       ??0BigConvexData@physx@@QEAA@XZ 000000018009e320 f   GuBigConvexData.obj
 0001:0009d340       ??1BigConvexData@physx@@QEAA@XZ 000000018009e340 f   GuBigConvexData.obj
 0001:0009d400       ?ComputeNearestOffset@BigConvexData@physx@@QEBAIAEBV?$PxVec3T@M@2@@Z 000000018009e400 f   GuBigConvexData.obj
 0001:0009d500       ?ComputeOffset@BigConvexData@physx@@QEBAIAEBV?$PxVec3T@M@2@@Z 000000018009e500 f   GuBigConvexData.obj
 0001:0009d600       ?CreateOffsets@BigConvexData@physx@@IEAAXXZ 000000018009e600 f   GuBigConvexData.obj
 0001:0009d650       ?Load@BigConvexData@physx@@QEAA_NAEAVPxInputStream@2@@Z 000000018009e650 f   GuBigConvexData.obj
 0001:0009d760       ?VLoad@BigConvexData@physx@@IEAA_NAEAVPxInputStream@2@@Z 000000018009e760 f   GuBigConvexData.obj
 0001:0009d900       ?exportExtraData@BigConvexData@physx@@QEAAXAEAVPxSerializationContext@2@@Z 000000018009e900 f   GuBigConvexData.obj
 0001:0009d980       ?importExtraData@BigConvexData@physx@@QEAAXAEAVPxDeserializationContext@2@@Z 000000018009e980 f   GuBigConvexData.obj
 0001:0009d9f0       ?findUniqueConvexEdges@Gu@physx@@YAIIPEIAUConvexEdge@12@IPEIBUHullPolygonData@12@PEIBE@Z 000000018009e9f0 f   GuConvexHelper.obj
 0001:0009db30       ?getConvexData@Gu@physx@@YA_NAEBVPxConvexMeshGeometry@2@AEAVFastVertex2ShapeScaling@Cm@2@AEAVPxBounds3@2@AEAUPolygonalData@12@@Z 000000018009eb30 f   GuConvexHelper.obj
 0001:0009ddb0       ?getScaledConvex@Gu@physx@@YAXAEAPEAV?$PxVec3T@M@2@AEAPEAEPEAV32@PEAE_NPEBV32@PEBEIAEBVFastVertex2ShapeScaling@Cm@2@@Z 000000018009edb0 f   GuConvexHelper.obj
 0001:0009dee0       ??0ConvexMesh@Gu@physx@@QEAA@PEAVMeshFactory@12@@Z 000000018009eee0 f   GuConvexMesh.obj
 0001:0009df70       ??0ConvexMesh@Gu@physx@@QEAA@PEAVMeshFactory@12@AEAUConvexHullInitData@12@@Z 000000018009ef70 f   GuConvexMesh.obj
 0001:0009e090       ??_EConvexMesh@Gu@physx@@UEAAPEAXI@Z 000000018009f090 f i GuConvexMesh.obj
 0001:0009e090       ??_GConvexMesh@Gu@physx@@UEAAPEAXI@Z 000000018009f090 f i GuConvexMesh.obj
 0001:0009e1a0       ??_EPxBVH@physx@@MEAAPEAXI@Z 000000018009f1a0 f i GuBVH.obj
 0001:0009e1a0       ??_EPxBase@physx@@MEAAPEAXI@Z 000000018009f1a0 f i GuConvexMesh.obj
 0001:0009e1a0       ??_GPxBVH@physx@@MEAAPEAXI@Z 000000018009f1a0 f i GuBVH.obj
 0001:0009e1a0       ??_GPxBase@physx@@MEAAPEAXI@Z 000000018009f1a0 f i GuConvexMesh.obj
 0001:0009e1d0       ?acquireReference@ConvexMesh@Gu@physx@@UEAAXXZ 000000018009f1d0 f   GuConvexMesh.obj
 0001:0009e1d0       ?acquireReference@HeightField@Gu@physx@@UEAAXXZ 000000018009f1d0 f   GuHeightField.obj
 0001:0009e1d0       ?acquireReference@SoftBodyAuxData@Gu@physx@@UEAAXXZ 000000018009f1d0 f   GuTetrahedronMesh.obj
 0001:0009e1d0       ?acquireReference@SoftBodyMesh@Gu@physx@@UEAAXXZ 000000018009f1d0 f   GuTetrahedronMesh.obj
 0001:0009e1d0       ?acquireReference@TetrahedronMesh@Gu@physx@@UEAAXXZ 000000018009f1d0 f   GuTetrahedronMesh.obj
 0001:0009e1d0       ?acquireReference@TriangleMesh@Gu@physx@@UEAAXXZ 000000018009f1d0 f   GuTriangleMesh.obj
 0001:0009e690       ?createObject@ConvexMesh@Gu@physx@@SAPEAV123@AEAPEAEAEAVPxDeserializationContext@3@@Z 000000018009f690 f   GuConvexMesh.obj
 0001:0009e770       ?exportExtraData@ConvexMesh@Gu@physx@@UEAAXAEAVPxSerializationContext@3@@Z 000000018009f770 f   GuConvexMesh.obj
 0001:0009e840       ?getConcreteTypeName@PxConvexMesh@physx@@UEBAPEBDXZ 000000018009f840 f i GuConvexMesh.obj
 0001:0009e850       ?getIndexBuffer@ConvexMesh@Gu@physx@@UEBAPEBEXZ 000000018009f850 f i GuConvexMesh.obj
 0001:0009e890       ?getLocalBounds@ConvexMesh@Gu@physx@@UEBA?AVPxBounds3@3@XZ 000000018009f890 f   GuConvexMesh.obj
 0001:0009e920       ?getMassInformation@ConvexMesh@Gu@physx@@UEBAXAEAMAEAV?$PxMat33T@M@3@AEAV?$PxVec3T@M@3@@Z 000000018009f920 f   GuConvexMesh.obj
 0001:0009e990       ?getNbPolygons@ConvexMesh@Gu@physx@@UEBAIXZ 000000018009f990 f i GuConvexMesh.obj
 0001:0009e9a0       ?getNbVertices@ConvexMesh@Gu@physx@@UEBAIXZ 000000018009f9a0 f i GuConvexMesh.obj
 0001:0009e9b0       ?getPolygonData@ConvexMesh@Gu@physx@@UEBA_NIAEAUPxHullPolygon@3@@Z 000000018009f9b0 f   GuConvexMesh.obj
 0001:0009ea00       ?getReferenceCount@ConvexMesh@Gu@physx@@UEBAIXZ 000000018009fa00 f   GuConvexMesh.obj
 0001:0009ea00       ?getReferenceCount@HeightField@Gu@physx@@UEBAIXZ 000000018009fa00 f   GuHeightField.obj
 0001:0009ea00       ?getReferenceCount@SoftBodyAuxData@Gu@physx@@UEBAIXZ 000000018009fa00 f   GuTetrahedronMesh.obj
 0001:0009ea00       ?getReferenceCount@SoftBodyMesh@Gu@physx@@UEBAIXZ 000000018009fa00 f   GuTetrahedronMesh.obj
 0001:0009ea00       ?getReferenceCount@TetrahedronMesh@Gu@physx@@UEBAIXZ 000000018009fa00 f   GuTetrahedronMesh.obj
 0001:0009ea00       ?getReferenceCount@TriangleMesh@Gu@physx@@UEBAIXZ 000000018009fa00 f   GuTriangleMesh.obj
 0001:0009ea00       ?length@DNameStatusNode@@UEBAHXZ 000000018009fa00 f   libvcruntime:undname.obj
 0001:0009ea00       ?raw_length@DNameStatusNode@@UEBAHXZ 000000018009fa00 f   libvcruntime:undname.obj
 0001:0009ea10       ?getSDF@ConvexMesh@Gu@physx@@UEBAPEBMXZ 000000018009fa10 f   GuConvexMesh.obj
 0001:0009ea20       ?getVertices@ConvexMesh@Gu@physx@@UEBAPEBV?$PxVec3T@M@3@XZ 000000018009fa20 f i GuConvexMesh.obj
 0001:0009ea40       ?isGpuCompatible@ConvexMesh@Gu@physx@@UEBA_NXZ 000000018009fa40 f   GuConvexMesh.obj
 0001:0009ea80       ?isKindOf@PxBase@physx@@MEBA_NPEBD@Z 000000018009fa80 f i GuConvexMesh.obj
 0001:0009eab0       ?isKindOf@PxConvexMesh@physx@@MEBA_NPEBD@Z 000000018009fab0 f i GuConvexMesh.obj
 0001:0009eb20       ?isReleasable@PxBase@physx@@UEBA_NXZ 000000018009fb20 f i GuConvexMesh.obj
 0001:0009eb30       ?load@ConvexMesh@Gu@physx@@QEAA_NAEAVPxInputStream@3@@Z 000000018009fb30 f   GuConvexMesh.obj
 0001:0009f080       ?onRefCountZero@ConvexMesh@Gu@physx@@UEAAXXZ 00000001800a0080 f   GuConvexMesh.obj
 0001:0009f1b0       ?release@ConvexMesh@Gu@physx@@UEAAXXZ 00000001800a01b0 f   GuConvexMesh.obj
 0001:0009f1b0       ?release@HeightField@Gu@physx@@UEAAXXZ 00000001800a01b0 f   GuHeightField.obj
 0001:0009f1b0       ?release@SoftBodyAuxData@Gu@physx@@UEAAXXZ 00000001800a01b0 f   GuTetrahedronMesh.obj
 0001:0009f1b0       ?release@SoftBodyMesh@Gu@physx@@UEAAXXZ 00000001800a01b0 f   GuTetrahedronMesh.obj
 0001:0009f1b0       ?release@TetrahedronMesh@Gu@physx@@UEAAXXZ 00000001800a01b0 f   GuTetrahedronMesh.obj
 0001:0009f1b0       ?release@TriangleMesh@Gu@physx@@UEAAXXZ 00000001800a01b0 f   GuTriangleMesh.obj
 0001:0009f1e0       ??Dphysx@@YA?AV?$PxMat34T@M@0@AEBVPxMeshScale@0@AEBV10@@Z 00000001800a01e0 f i GuConvexUtilsInternal.obj
 0001:0009f750       ?computeHullOBB@Gu@physx@@YAXAEAVBox@12@AEBVPxBounds3@2@MAEBV?$PxMat34T@M@2@2AEBVFastVertex2ShapeScaling@Cm@2@_N@Z 00000001800a0750 f   GuConvexUtilsInternal.obj
 0001:0009fc00       ?computeOBBAroundConvex@Gu@physx@@YAXAEAVBox@12@AEBVPxConvexMeshGeometry@2@PEBVPxConvexMesh@2@AEBV?$PxTransformT@M@2@@Z 00000001800a0c00 f   GuConvexUtilsInternal.obj
 0001:000a0450       ?computeVertexSpaceOBB@Gu@physx@@YAXAEAVBox@12@AEBV312@AEBV?$PxTransformT@M@2@AEBVPxMeshScale@2@@Z 00000001800a1450 f   GuConvexUtilsInternal.obj
 0001:000a0780       ?transform@physx@@YA?AVBox@Gu@1@AEBV?$PxMat34T@M@1@AEBV231@@Z 00000001800a1780 f i GuConvexUtilsInternal.obj
 0001:000a09d0       ?localSearch@physx@@YAXAEAIAEBV?$PxVec3T@M@1@PEBV21@PEBUBigConvexRawData@Gu@1@@Z 00000001800a19d0 f   GuHillClimbing.obj
 0001:000a0b10       ??0PCMPolygonalBox@Gu@physx@@QEAA@AEBV?$PxVec3T@M@2@@Z 00000001800a1b10 f   GuPCMShapeConvex.obj
 0001:000a0b10       ??0PolygonalBox@Gu@physx@@QEAA@AEBV?$PxVec3T@M@2@@Z 00000001800a1b10 f   GuShapeConvex.obj
 0001:000a1fd0       ?getPolygonalData@PolygonalBox@Gu@physx@@QEBAXPEIAUPolygonalData@23@@Z 00000001800a2fd0 f   GuShapeConvex.obj
 0001:000a2040       ?getPolygonalData_Convex@Gu@physx@@YAXPEIAUPolygonalData@12@PEIBUConvexHullData@12@AEBVFastVertex2ShapeScaling@Cm@2@@Z 00000001800a3040 f   GuShapeConvex.obj
 0001:000a21a0       ?distancePointBoxSquared@Gu@physx@@YAMAEBV?$PxVec3T@M@2@00AEBV?$PxMat33T@M@2@PEAV32@@Z 00000001800a31a0 f   GuDistancePointBox.obj
 0001:000a22f0       ?closestPtPointTriangle@Gu@physx@@YA?AV?$PxVec3T@M@2@AEBV32@000AEAM1@Z 00000001800a32f0 f   GuDistancePointTriangle.obj
 0001:000a2810       ?distancePointTriangleSquared@Gu@physx@@YA?AT__m128@@AEBT3@000AEAT3@11@Z 00000001800a3810 f   GuDistancePointTriangle.obj
 0001:000a3560       ?distanceSegmentBoxSquared@Gu@physx@@YAMAEBV?$PxVec3T@M@2@000AEBV?$PxMat33T@M@2@PEAMPEAV32@@Z 00000001800a4560 f   GuDistanceSegmentBox.obj
 0001:000a3de0       ?distanceSegmentSegmentSquared4@Gu@physx@@YA?AT__m128@@AEBT3@000000000AEAT3@1@Z 00000001800a4de0 f   GuDistanceSegmentSegment.obj
 0001:000a40f0       ?distanceSegmentSegmentSquared@Gu@physx@@YA?AT__m128@@AEBT3@000AEAT3@1@Z 00000001800a50f0 f   GuDistanceSegmentSegment.obj
 0001:000a42b0       ?distanceSegmentSegmentSquared@Gu@physx@@YAMAEBV?$PxVec3T@M@2@000PEAM1@Z 00000001800a52b0 f   GuDistanceSegmentSegment.obj
 0001:000a4540       ?distanceSegmentSegmentSquared@Gu@physx@@YAMAEBV?$PxVec3T@M@2@0M00MPEAM1@Z 00000001800a5540 f   GuDistanceSegmentSegment.obj
 0001:000a4c80       ?distanceSegmentTriangleSquared@Gu@physx@@YA?AT__m128@@AEBT3@0000AEAT3@1@Z 00000001800a5c80 f   GuDistanceSegmentTriangle.obj
 0001:000a53c0       ?distanceSegmentTriangleSquared@Gu@physx@@YAMAEBV?$PxVec3T@M@2@0000PEAM11@Z 00000001800a63c0 f   GuDistanceSegmentTriangle.obj
 0001:000a6a30       ?PointOutsideOfPlane4@Gu@physx@@YA?AV?$PxVec4T@M@2@AEBV?$PxVec3T@M@2@0000@Z 00000001800a7a30 f   GuDistancePointTetrahedron.obj
 0001:000a6ea0       ?closestPtPointTetrahedron@Gu@physx@@YA?AV?$PxVec3T@M@2@AEBV32@0000AEBV?$PxVec4T@M@2@@Z 00000001800a7ea0 f   GuDistancePointTetrahedron.obj
 0001:000a7f90       ?PenetrationDepth@EPA@Gu@physx@@QEAA?AW4GjkStatus@23@AEBUGjkConvex@23@0PEIBT__m128@@1E_NT6@AEAUGjkOutput@23@@Z 00000001800a8f90 f   GuEPA.obj
 0001:000a8a50       ?addFacet@EPA@Gu@physx@@QEAAPEAVFacet@23@IIIAEBT__m128@@@Z 00000001800a9a50 f   GuEPA.obj
 0001:000a8e80       ?epaPenetration@Gu@physx@@YA?AW4GjkStatus@12@AEBUGjkConvex@12@0PEIBE1E_NT__m128@@AEAUGjkOutput@12@@Z 00000001800a9e80 f   GuEPA.obj
 0001:000a8ff0       ?epaPenetration@Gu@physx@@YA?AW4GjkStatus@12@AEBUGjkConvex@12@0PEIBT__m128@@1E_NT5@AEAUGjkOutput@12@@Z 00000001800a9ff0 f   GuEPA.obj
 0001:000a90a0       ?silhouette@Facet@Gu@physx@@QEAAXAEBT__m128@@PEIBT4@1AEAVEdgeBuffer@23@AEAV?$InlineDeferredIDPool@$0EA@@Cm@3@@Z 00000001800aa0a0 f   GuEPA.obj
 0001:000a9270       ?closestPtPointTetrahedron@Gu@physx@@YA?AT__m128@@PEIAT3@00AEAI@Z 00000001800aa270 f   GuGJKSimplex.obj
 0001:000a99e0       ?closestPtPointTetrahedron@Gu@physx@@YA?AT__m128@@PEIAT3@00PEIAH1AEAI@Z 00000001800aa9e0 f   GuGJKSimplex.obj
 0001:000ab460       ??$gjk@UGjkConvex@Gu@physx@@U123@@Gu@physx@@YA?AW4GjkStatus@01@AEBUGjkConvex@01@0AEBT__m128@@1AEAT4@222@Z 00000001800ac460 f i GuGJKTest.obj
 0001:000ac080       ??$gjkPenetration@UGjkConvex@Gu@physx@@U123@@Gu@physx@@YA?AW4GjkStatus@01@AEBUGjkConvex@01@0AEBT__m128@@1_NPEIAE3AEAEAEAUGjkOutput@01@@Z 00000001800ad080 f i GuGJKTest.obj
 0001:000ac0f0       ??$gjkPenetration@UGjkConvex@Gu@physx@@U123@@Gu@physx@@YA?AW4GjkStatus@01@AEBUGjkConvex@01@0AEBT__m128@@1_NPEIAE3PEIAT4@4AEAEAEAUGjkOutput@01@@Z 00000001800ad0f0 f i GuGJKTest.obj
 0001:000ad540       ?testEpaPenetration@Gu@physx@@YA?AW4GjkStatus@12@AEBUGjkConvex@12@0PEBE1EAEAUGjkOutput@12@@Z 00000001800ae540 f   GuGJKTest.obj
 0001:000ad590       ?testGjk@Gu@physx@@YA?AW4GjkStatus@12@AEBUGjkConvex@12@0AEBT__m128@@1AEAT5@222@Z 00000001800ae590 f   GuGJKTest.obj
 0001:000ad5a0       ?testGjkPenetration@Gu@physx@@YA?AW4GjkStatus@12@AEBUGjkConvex@12@0AEBT__m128@@1PEAE2AEAEAEAUGjkOutput@12@@Z 00000001800ae5a0 f   GuGJKTest.obj
 0001:000ad5f0       ??0HeightField@Gu@physx@@QEAA@PEAVMeshFactory@12@@Z 00000001800ae5f0 f   GuHeightField.obj
 0001:000ad640       ??0HeightField@Gu@physx@@QEAA@PEAVMeshFactory@12@AEAUHeightFieldData@12@@Z 00000001800ae640 f   GuHeightField.obj
 0001:000ad6f0       ??1HeightField@Gu@physx@@UEAA@XZ 00000001800ae6f0 f   GuHeightField.obj
 0001:000ad770       ??_EHeightField@Gu@physx@@UEAAPEAXI@Z 00000001800ae770 f i GuHeightField.obj
 0001:000ad770       ??_GHeightField@Gu@physx@@UEAAPEAXI@Z 00000001800ae770 f i GuHeightField.obj
 0001:000ad820       ?computeCellCoordinates@HeightField@Gu@physx@@QEBAIMMAEAM0@Z 00000001800ae820 f   GuHeightField.obj
 0001:000ad940       ?createObject@HeightField@Gu@physx@@SAPEAV123@AEAPEAEAEAVPxDeserializationContext@3@@Z 00000001800ae940 f   GuHeightField.obj
 0001:000ad990       ?exportExtraData@HeightField@Gu@physx@@UEAAXAEAVPxSerializationContext@3@@Z 00000001800ae990 f   GuHeightField.obj
 0001:000ad9e0       ?getConcreteTypeName@PxHeightField@physx@@UEBAPEBDXZ 00000001800ae9e0 f i GuHeightField.obj
 0001:000ad9f0       ?getConvexEdgeThreshold@HeightField@Gu@physx@@UEBAMXZ 00000001800ae9f0 f i GuHeightField.obj
 0001:000ada00       ?getFlags@HeightField@Gu@physx@@UEBA?AV?$PxFlags@W4Enum@PxHeightFieldFlag@physx@@G@3@XZ 00000001800aea00 f i GuHeightField.obj
 0001:000ada10       ?getFormat@HeightField@Gu@physx@@UEBA?AW4Enum@PxHeightFieldFormat@3@XZ 00000001800aea10 f i GuHeightField.obj
 0001:000ada20       ?getHeight@HeightField@Gu@physx@@UEBAMMM@Z 00000001800aea20 f i GuHeightField.obj
 0001:000adb40       ?getNbColumns@HeightField@Gu@physx@@UEBAIXZ 00000001800aeb40 f i GuHeightField.obj
 0001:000adb50       ?getNbBounds@BVH@Gu@physx@@UEBAIXZ 00000001800aeb50 f i GuBVH.obj
 0001:000adb50       ?getNbPrimitives@SourceMesh@Gu@physx@@UEBAIXZ 00000001800aeb50 f i GuBV4.obj
 0001:000adb50       ?getNbPrimitives@TetrahedronSourceMesh@Gu@physx@@UEBAIXZ 00000001800aeb50 f i GuBV4.obj
 0001:000adb50       ?getNbRows@HeightField@Gu@physx@@UEBAIXZ 00000001800aeb50 f i GuHeightField.obj
 0001:000adb60       ?getSample@HeightField@Gu@physx@@UEBAAEBUPxHeightFieldSample@3@II@Z 00000001800aeb60 f i GuHeightField.obj
 0001:000adb70       ?getSampleStride@HeightField@Gu@physx@@UEBAIXZ 00000001800aeb70 f i GuHeightField.obj
 0001:000adb80       ?getTimestamp@HeightField@Gu@physx@@UEBAIXZ 00000001800aeb80 f i GuHeightField.obj
 0001:000adb90       ?getTriangleMaterialIndex@HeightField@Gu@physx@@UEBAGI@Z 00000001800aeb90 f i GuHeightField.obj
 0001:000adbc0       ?getTriangleNormal@HeightField@Gu@physx@@UEBA?AV?$PxVec3T@M@3@I@Z 00000001800aebc0 f i GuHeightField.obj
 0001:000adbe0       ?getTriangleNormalInternal@HeightField@Gu@physx@@QEBA?AV?$PxVec3T@M@3@I@Z 00000001800aebe0 f i GuHeightField.obj
 0001:000adf10       ?isCollisionVertexPreca@HeightField@Gu@physx@@QEBA_NIIIG@Z 00000001800aef10 f   GuHeightField.obj
 0001:000adfb0       ?isConvexVertex@HeightField@Gu@physx@@QEBA_NIII@Z 00000001800aefb0 f i GuHeightField.obj
 0001:000ae080       ?isKindOf@PxHeightField@physx@@MEBA_NPEBD@Z 00000001800af080 f i GuHeightField.obj
 0001:000ae0f0       ?isSolidVertex@HeightField@Gu@physx@@QEBA_NIIIGAEA_N@Z 00000001800af0f0 f   GuHeightField.obj
 0001:000ae390       ?load@HeightField@Gu@physx@@QEAA_NAEAVPxInputStream@3@@Z 00000001800af390 f   GuHeightField.obj
 0001:000ae6f0       ?loadFromDesc@HeightField@Gu@physx@@QEAA_NAEBVPxHeightFieldDesc@3@@Z 00000001800af6f0 f   GuHeightField.obj
 0001:000ae8f0       ?modifySamples@HeightField@Gu@physx@@UEAA_NHHAEBVPxHeightFieldDesc@3@_N@Z 00000001800af8f0 f   GuHeightField.obj
 0001:000aec60       ?onRefCountZero@HeightField@Gu@physx@@UEAAXXZ 00000001800afc60 f   GuHeightField.obj
 0001:000aed30       ?parseTrianglesForCollisionVertices@HeightField@Gu@physx@@QEAAXG@Z 00000001800afd30 f   GuHeightField.obj
 0001:000af240       ?releaseMemory@HeightField@Gu@physx@@QEAAXXZ 00000001800b0240 f   GuHeightField.obj
 0001:000af290       ?resizeAndClear@?$PxBitMapBase@VPxAllocator@physx@@@physx@@QEAAXI@Z 00000001800b0290 f i GuHeightField.obj
 0001:000af340       ?save@HeightField@Gu@physx@@QEAA_NAEAVPxOutputStream@3@_N@Z 00000001800b0340 f   GuHeightField.obj
 0001:000af580       ?saveCells@HeightField@Gu@physx@@UEBAIPEAXI@Z 00000001800b0580 f   GuHeightField.obj
 0001:000af5c0       ?computeLocalBounds@HeightFieldUtil@Gu@physx@@QEBAXAEAVPxBounds3@3@@Z 00000001800b05c0 f   GuHeightFieldUtil.obj
 0001:000afa80       ?getTriangle@HeightFieldUtil@Gu@physx@@QEBAIAEBV?$PxTransformT@M@3@AEAVPxTriangle@3@PEAI2I_N3@Z 00000001800b0a80 f   GuHeightFieldUtil.obj
 0001:000b0580       ?getTriangleAdjacencyIndices@HeightField@Gu@physx@@QEBAXIIIIAEAI00@Z 00000001800b1580 f i GuHeightFieldUtil.obj
 0001:000b0730       ?getTriangleVertexIndices@HeightField@Gu@physx@@QEBAXIAEAI00@Z 00000001800b1730 f i GuHeightFieldUtil.obj
 0001:000b07f0       ?overlapAABBTriangles@HeightFieldUtil@Gu@physx@@QEBAXAEBVPxBounds3@3@AEAVOverlapReport@23@I@Z 00000001800b17f0 f   GuHeightFieldUtil.obj
 0001:000b0c50       ??$gjk@U?$RelativeConvex@VTriangleV@Gu@physx@@@Gu@physx@@U?$LocalConvex@VConvexHullV@Gu@physx@@@23@@Gu@physx@@YA?AW4GjkStatus@01@AEBU?$RelativeConvex@VTriangleV@Gu@physx@@@01@AEBU?$LocalConvex@VConvexHullV@Gu@physx@@@01@AEBT__m128@@2AEAT5@333@Z 00000001800b1c50 f i GuOverlapTestsHF.obj
 0001:000b1b90       ?GeomOverlapCallback_BoxHeightfield@@YA_NAEBVPxGeometry@physx@@AEBV?$PxTransformT@M@2@01PEAUTriggerCache@Gu@2@PEAUPxQueryThreadContext@2@@Z 00000001800b2b90 f   GuOverlapTestsHF.obj
 0001:000b20f0       ?GeomOverlapCallback_CapsuleHeightfield@@YA_NAEBVPxGeometry@physx@@AEBV?$PxTransformT@M@2@01PEAUTriggerCache@Gu@2@PEAUPxQueryThreadContext@2@@Z 00000001800b30f0 f   GuOverlapTestsHF.obj
 0001:000b26f0       ?GeomOverlapCallback_ConvexHeightfield@@YA_NAEBVPxGeometry@physx@@AEBV?$PxTransformT@M@2@01PEAUTriggerCache@Gu@2@PEAUPxQueryThreadContext@2@@Z 00000001800b36f0 f   GuOverlapTestsHF.obj
 0001:000b3130       ?GeomOverlapCallback_SphereHeightfield@@YA_NAEBVPxGeometry@physx@@AEBV?$PxTransformT@M@2@01PEAUTriggerCache@Gu@2@PEAUPxQueryThreadContext@2@@Z 00000001800b4130 f   GuOverlapTestsHF.obj
 0001:000b3cf0       ??$gjkRaycast@U?$LocalConvex@VTriangleV@Gu@physx@@@Gu@physx@@U?$LocalConvex@VConvexHullV@Gu@physx@@@23@@Gu@physx@@YA_NAEBU?$LocalConvex@VTriangleV@Gu@physx@@@01@AEBU?$LocalConvex@VConvexHullV@Gu@physx@@@01@AEBT__m128@@222AEAT4@33M@Z 00000001800b4cf0 f i GuSweepsHF.obj
 0001:000b4af0       ??$traceSegment@VBoxTraceSegmentReport@@$0A@$00@HeightFieldTraceUtil@Gu@physx@@QEBAXAEBV?$PxVec3T@M@2@0MPEAVBoxTraceSegmentReport@@AEBVPxBounds3@2@_NPEBV32@@Z 00000001800b5af0 f i GuSweepsHF.obj
 0001:000b4af0       ??$traceSegment@VCapsuleTraceSegmentReport@@$0A@$00@HeightFieldTraceUtil@Gu@physx@@QEBAXAEBV?$PxVec3T@M@2@0MPEAVCapsuleTraceSegmentReport@@AEBVPxBounds3@2@_NPEBV32@@Z 00000001800b5af0 f i GuSweepsHF.obj
 0001:000b4af0       ??$traceSegment@VConvexTraceSegmentReport@@$0A@$00@HeightFieldTraceUtil@Gu@physx@@QEBAXAEBV?$PxVec3T@M@2@0MPEAVConvexTraceSegmentReport@@AEBVPxBounds3@2@_NPEBV32@@Z 00000001800b5af0 f i GuSweepsHF.obj
 0001:000b5310       ??0ConvexTraceSegmentReport@@QEAA@AEBVHeightFieldUtil@Gu@physx@@AEBUConvexHullData@23@AEBVPxMeshScale@3@AEBV?$PxTransformT@M@3@3AEBV?$PxVec3T@M@3@MV?$PxFlags@W4Enum@PxHitFlag@physx@@G@3@M@Z 00000001800b6310 f i GuSweepsHF.obj
 0001:000b5c90       ??_EBoxTraceSegmentReport@@UEAAPEAXI@Z 00000001800b6c90 f i GuSweepsHF.obj
 0001:000b5c90       ??_GBoxTraceSegmentReport@@UEAAPEAXI@Z 00000001800b6c90 f i GuSweepsHF.obj
 0001:000b5cc0       ??_ECapsuleTraceSegmentReport@@UEAAPEAXI@Z 00000001800b6cc0 f i GuSweepsHF.obj
 0001:000b5cc0       ??_GCapsuleTraceSegmentReport@@UEAAPEAXI@Z 00000001800b6cc0 f i GuSweepsHF.obj
 0001:000b5cf0       ??_EConvexTraceSegmentReport@@UEAAPEAXI@Z 00000001800b6cf0 f i GuSweepsHF.obj
 0001:000b5cf0       ??_GConvexTraceSegmentReport@@UEAAPEAXI@Z 00000001800b6cf0 f i GuSweepsHF.obj
 0001:000b5d20       ??_EHeightFieldTraceSegmentReport@@UEAAPEAXI@Z 00000001800b6d20 f i GuSweepsHF.obj
 0001:000b5d20       ??_GHeightFieldTraceSegmentReport@@UEAAPEAXI@Z 00000001800b6d20 f i GuSweepsHF.obj
 0001:000b5d50       ?finalizeHit@ConvexTraceSegmentReport@@QEAA_NAEAUPxGeomSweepHit@physx@@AEBVPxHeightFieldGeometry@3@AEBV?$PxTransformT@M@3@AEBVPxConvexMeshGeometry@3@2AEBV?$PxVec3T@M@3@M@Z 00000001800b6d50 f i GuSweepsHF.obj
 0001:000b5f70       ?onEvent@BoxTraceSegmentReport@@UEAA_NIPEBI@Z 00000001800b6f70 f i GuSweepsHF.obj
 0001:000b63c0       ?onEvent@CapsuleTraceSegmentReport@@UEAA_NIPEBI@Z 00000001800b73c0 f i GuSweepsHF.obj
 0001:000b65e0       ?onEvent@ConvexTraceSegmentReport@@UEAA_NIPEBI@Z 00000001800b75e0 f i GuSweepsHF.obj
 0001:000b6ba0       ?prepare@?$OverlapTraceSegment@VBoxTraceSegmentReport@@@HeightFieldTraceUtil@Gu@physx@@QEAAXAEBV?$PxVec3T@M@4@00AEAM1@Z 00000001800b7ba0 f i GuSweepsHF.obj
 0001:000b6ba0       ?prepare@?$OverlapTraceSegment@VCapsuleTraceSegmentReport@@@HeightFieldTraceUtil@Gu@physx@@QEAAXAEBV?$PxVec3T@M@4@00AEAM1@Z 00000001800b7ba0 f i GuSweepsHF.obj
 0001:000b6ba0       ?prepare@?$OverlapTraceSegment@VConvexTraceSegmentReport@@@HeightFieldTraceUtil@Gu@physx@@QEAAXAEBV?$PxVec3T@M@4@00AEAM1@Z 00000001800b7ba0 f i GuSweepsHF.obj
 0001:000b6e60       ?sweepBox_HeightFieldGeom@@YA_NAEBVPxGeometry@physx@@AEBV?$PxTransformT@M@2@AEBVPxBoxGeometry@2@1AEBVBox@Gu@2@AEBV?$PxVec3T@M@2@MAEAUPxGeomSweepHit@2@V?$PxFlags@W4Enum@PxHitFlag@physx@@G@2@MPEAUPxQueryThreadContext@2@@Z 00000001800b7e60 f   GuSweepsHF.obj
 0001:000b7ca0       ?sweepCapsule_HeightFieldGeom@@YA_NAEBVPxGeometry@physx@@AEBV?$PxTransformT@M@2@AEBVPxCapsuleGeometry@2@1AEBVCapsule@Gu@2@AEBV?$PxVec3T@M@2@MAEAUPxGeomSweepHit@2@V?$PxFlags@W4Enum@PxHitFlag@physx@@G@2@MPEAUPxQueryThreadContext@2@@Z 00000001800b8ca0 f   GuSweepsHF.obj
 0001:000b85f0       ?sweepConvex_HeightFieldGeom@@YA_NAEBVPxGeometry@physx@@AEBV?$PxTransformT@M@2@AEBVPxConvexMeshGeometry@2@1AEBV?$PxVec3T@M@2@MAEAUPxGeomSweepHit@2@V?$PxFlags@W4Enum@PxHitFlag@physx@@G@2@MPEAUPxQueryThreadContext@2@@Z 00000001800b95f0 f   GuSweepsHF.obj
 0001:000b8fb0       ?testVertexIndex@?$OverlapTraceSegment@VBoxTraceSegmentReport@@@HeightFieldTraceUtil@Gu@physx@@QEAA_NI@Z 00000001800b9fb0 f i GuSweepsHF.obj
 0001:000b8fb0       ?testVertexIndex@?$OverlapTraceSegment@VCapsuleTraceSegmentReport@@@HeightFieldTraceUtil@Gu@physx@@QEAA_NI@Z 00000001800b9fb0 f i GuSweepsHF.obj
 0001:000b8fb0       ?testVertexIndex@?$OverlapTraceSegment@VConvexTraceSegmentReport@@@HeightFieldTraceUtil@Gu@physx@@QEAA_NI@Z 00000001800b9fb0 f i GuSweepsHF.obj
 0001:000b9110       ?transformFast@PxBounds3@physx@@SA?AV12@AEBV?$PxTransformT@M@2@AEBV12@@Z 00000001800ba110 f i GuSweepsHF.obj
 0001:000b94f0       ?visitCells@?$OverlapTraceSegment@VBoxTraceSegmentReport@@@HeightFieldTraceUtil@Gu@physx@@QEAA_NAEBUOverlapRectangle@1234@@Z 00000001800ba4f0 f i GuSweepsHF.obj
 0001:000b94f0       ?visitCells@?$OverlapTraceSegment@VCapsuleTraceSegmentReport@@@HeightFieldTraceUtil@Gu@physx@@QEAA_NAEBUOverlapRectangle@1234@@Z 00000001800ba4f0 f i GuSweepsHF.obj
 0001:000b94f0       ?visitCells@?$OverlapTraceSegment@VConvexTraceSegmentReport@@@HeightFieldTraceUtil@Gu@physx@@QEAA_NAEBUOverlapRectangle@1234@@Z 00000001800ba4f0 f i GuSweepsHF.obj
 0001:000b96e0       ?intersectOBBOBB@Gu@physx@@YA_NAEBV?$PxVec3T@M@2@0AEBV?$PxMat33T@M@2@001_N@Z 00000001800ba6e0 f   GuIntersectionBoxBox.obj
 0001:000b9d30       ?intersectCapsuleTriangle@Gu@physx@@YA_NAEBV?$PxVec3T@M@2@000AEBVCapsule@12@AEBUCapsuleTriangleOverlapData@12@@Z 00000001800bad30 f   GuIntersectionCapsuleTriangle.obj
 0001:000ba920       ?intersectEdgeEdge@Gu@physx@@YA_NAEBV?$PxVec3T@M@2@0000AEAMAEAV32@@Z 00000001800bb920 f   GuIntersectionEdgeEdge.obj
 0001:000bac50       ?intersectRayAABB2@Gu@physx@@YA_NAEBT__m128@@0000AEAT3@1@Z 00000001800bbc50 f   GuIntersectionRayBox.obj
 0001:000bad10       ?intersectRayAABB2@Gu@physx@@YA_NAEBV?$PxVec3T@M@2@000MAEAM1@Z 00000001800bbd10 f   GuIntersectionRayBox.obj
 0001:000baec0       ?intersectRayAABB@Gu@physx@@YAHAEBV?$PxVec3T@M@2@000AEAM1@Z 00000001800bbec0 f   GuIntersectionRayBox.obj
 0001:000bafd0       ?rayAABBIntersect2@Gu@physx@@YAIAEBV?$PxVec3T@M@2@000AEAV32@AEAM@Z 00000001800bbfd0 f   GuIntersectionRayBox.obj
 0001:000bb1d0       ?intersectRayCapsuleInternal@Gu@physx@@YAIAEBV?$PxVec3T@M@2@000MQEAM@Z 00000001800bc1d0 f   GuIntersectionRayCapsule.obj
 0001:000bb690       ?intersectRaySphere@Gu@physx@@YA_NAEBV?$PxVec3T@M@2@0M0MAEAMPEAV32@@Z 00000001800bc690 f   GuIntersectionRaySphere.obj
 0001:000bb780       ?intersectRaySphereBasic@Gu@physx@@YA_NAEBV?$PxVec3T@M@2@0M0MAEAMPEAV32@@Z 00000001800bc780 f   GuIntersectionRaySphere.obj
 0001:000bb8e0       ?intersectSphereBox@Gu@physx@@YA_NAEBVSphere@12@AEBVBox@12@@Z 00000001800bc8e0 f   GuIntersectionSphereBox.obj
 0001:000bbb10       ?intersectTetrahedronBox@Gu@physx@@YA_NAEBV?$PxVec3T@M@2@000AEBVPxBounds3@2@@Z 00000001800bcb10 f   GuIntersectionTetrahedronBox.obj
 0001:000bbee0       ?intersectTriangleBox@Gu@physx@@YAHAEBVBoxPadded@12@AEBV?$PxVec3T@M@2@11@Z 00000001800bcee0 f   GuIntersectionTriangleBox.obj
 0001:000bc4b0       ?intersectTriangleBoxBV4@@YAHAEBV?$PxVec3T@M@physx@@00AEBV?$PxMat33T@M@2@00@Z 00000001800bd4b0 f   GuIntersectionTriangleBox.obj
 0001:000bc8f0       ?intersectTriangleBox_ReferenceCode@Gu@physx@@YAHAEBV?$PxVec3T@M@2@0000@Z 00000001800bd8f0 f   GuIntersectionTriangleBox.obj
 0001:000bd0c0       ?intersectTriangleBox_Unsafe@Gu@physx@@YAHAEBV?$PxVec3T@M@2@0000@Z 00000001800be0c0 f   GuIntersectionTriangleBox.obj
 0001:000bd770       ?trianglesIntersect@Gu@physx@@YA_NAEBV?$PxVec3T@M@2@00000PEAVSegment@12@@Z 00000001800be770 f   GuIntersectionTriangleTriangle.obj
 0001:000bdd60       ??0BV4Tree@Gu@physx@@QEAA@W4PxEMPTY@2@@Z 00000001800bed60 f   GuBV4.obj
 0001:000bdd70       ??0BV4Tree@Gu@physx@@QEAA@XZ 00000001800bed70 f   GuBV4.obj
 0001:000bdda0       ??0SourceMesh@Gu@physx@@QEAA@XZ 00000001800beda0 f   GuBV4.obj
 0001:000bddd0       ??0TetrahedronSourceMesh@Gu@physx@@QEAA@XZ 00000001800bedd0 f   GuBV4.obj
 0001:000bde00       ??1BV4Tree@Gu@physx@@QEAA@XZ 00000001800bee00 f   GuBV4.obj
 0001:000bde60       ??1SourceMesh@Gu@physx@@UEAA@XZ 00000001800bee60 f   GuBV4.obj
 0001:000bde60       ??1TetrahedronSourceMesh@Gu@physx@@UEAA@XZ 00000001800bee60 f   GuBV4.obj
 0001:000bdeb0       ??4BV4Tree@Gu@physx@@QEAAXAEAV012@@Z 00000001800beeb0 f   GuBV4.obj
 0001:000bdf40       ??4SourceMesh@Gu@physx@@QEAAXAEAV012@@Z 00000001800bef40 f   GuBV4.obj
 0001:000bdf90       ??_ESourceMesh@Gu@physx@@UEAAPEAXI@Z 00000001800bef90 f i GuBV4.obj
 0001:000bdf90       ??_ETetrahedronSourceMesh@Gu@physx@@UEAAPEAXI@Z 00000001800bef90 f i GuBV4.obj
 0001:000bdf90       ??_GSourceMesh@Gu@physx@@UEAAPEAXI@Z 00000001800bef90 f i GuBV4.obj
 0001:000bdf90       ??_GTetrahedronSourceMesh@Gu@physx@@UEAAPEAXI@Z 00000001800bef90 f i GuBV4.obj
 0001:000be030       ??_ESourceMeshBase@Gu@physx@@UEAAPEAXI@Z 00000001800bf030 f i GuBV4.obj
 0001:000be030       ??_GSourceMeshBase@Gu@physx@@UEAAPEAXI@Z 00000001800bf030 f i GuBV4.obj
 0001:000be0d0       ?exportExtraData@BV4Tree@Gu@physx@@QEAAXAEAVPxSerializationContext@3@@Z 00000001800bf0d0 f   GuBV4.obj
 0001:000be130       ?getPrimitiveBox@SourceMesh@Gu@physx@@UEAAXIAEAT__m128@@0@Z 00000001800bf130 f   GuBV4.obj
 0001:000be1d0       ?getPrimitiveBox@TetrahedronSourceMesh@Gu@physx@@UEAAXIAEAT__m128@@0@Z 00000001800bf1d0 f   GuBV4.obj
 0001:000be290       ?importExtraData@BV4Tree@Gu@physx@@QEAAXAEAVPxDeserializationContext@3@@Z 00000001800bf290 f   GuBV4.obj
 0001:000be2e0       ?init@BV32Tree@Gu@physx@@QEAA_NPEAVSourceMeshBase@23@AEBVPxBounds3@3@@Z 00000001800bf2e0 f   GuBV32.obj
 0001:000be2e0       ?init@BV4Tree@Gu@physx@@QEAA_NPEAVSourceMeshBase@23@AEBVPxBounds3@3@@Z 00000001800bf2e0 f   GuBV4.obj
 0001:000be380       ?load@BV4Tree@Gu@physx@@QEAA_NAEAVPxInputStream@3@_N@Z 00000001800bf380 f   GuBV4.obj
 0001:000be5c0       ?refit@BV4Tree@Gu@physx@@QEAA_NAEAVPxBounds3@3@M@Z 00000001800bf5c0 f   GuBV4.obj
 0001:000bec40       ?refit@SourceMesh@Gu@physx@@UEAAXIAEAVPxBounds3@3@@Z 00000001800bfc40 f   GuBV4.obj
 0001:000bede0       ?refit@TetrahedronSourceMesh@Gu@physx@@UEAAXIAEAVPxBounds3@3@@Z 00000001800bfde0 f   GuBV4.obj
 0001:000bf000       ?remapTopology@SourceMesh@Gu@physx@@UEAAXPEBI@Z 00000001800c0000 f   GuBV4.obj
 0001:000bf290       ?remapTopology@TetrahedronSourceMesh@Gu@physx@@UEAAXPEBI@Z 00000001800c0290 f   GuBV4.obj
 0001:000bf510       ??0BV4_AABBTree@Gu@physx@@QEAA@XZ 00000001800c0510 f   GuBV4Build.obj
 0001:000bf520       ??0BVData@@QEAA@XZ         00000001800c0520 f   GuBV4Build.obj
 0001:000bf550       ??0BuildStats@Gu@physx@@QEAA@XZ 00000001800c0550 f i GuBV4Build.obj
 0001:000bf560       ??1BV4_AABBTree@Gu@physx@@QEAA@XZ 00000001800c0560 f   GuBV4Build.obj
 0001:000bf570       ??4BuildStats@Gu@physx@@QEAAAEAU012@$$QEAU012@@Z 00000001800c0570 f i GuBV4Build.obj
 0001:000bf580       ??4BuildStats@Gu@physx@@QEAAAEAU012@AEBU012@@Z 00000001800c0580 f i GuBV4Build.obj
 0001:000bf590       ?BuildBV4Ex@Gu@physx@@YA_NAEAVBV4Tree@12@AEAVSourceMeshBase@12@MI_NW4BV4_BuildStrategy@12@@Z 00000001800c0590 f   GuBV4Build.obj
 0001:000c0480       ?allocateNode@BV4BuildParams@@QEAAPEAUBV4Node@@XZ 00000001800c1480 f   GuBV4Build.obj
 0001:000c08f0       ?buildFromMesh@BV4_AABBTree@Gu@physx@@QEAA_NAEAVSourceMeshBase@23@IW4BV4_BuildStrategy@23@@Z 00000001800c18f0 f   GuBV4Build.obj
 0001:000c1aa0       ?increaseCount@BuildStats@Gu@physx@@QEAAXI@Z 00000001800c2aa0 f i GuBV4Build.obj
 0001:000c24f0       ?release@BV4_AABBTree@Gu@physx@@QEAAXXZ 00000001800c34f0 f   GuBV4Build.obj
 0001:000c25a0       ?releaseNodes@BV4BuildParams@@QEAAXXZ 00000001800c35a0 f   GuBV4Build.obj
 0001:000c2610       ?reset@BuildStats@Gu@physx@@QEAAXXZ 00000001800c3610 f i GuBV4Build.obj
 0001:000c2620       ?setCount@BuildStats@Gu@physx@@QEAAXI@Z 00000001800c3620 f i GuBV4Build.obj
 0001:000c2c90       ?walk@BV4_AABBTree@Gu@physx@@QEBAIP6A_NPEBVAABBTreeNode@23@IPEAX@Z1@Z 00000001800c3c90 f   GuBV4Build.obj
 0001:000c2d50       ?walkDistance@BV4_AABBTree@Gu@physx@@QEBAIP6A_NPEBVAABBTreeNode@23@IPEAX@ZP6A_N01@Z1@Z 00000001800c3d50 f   GuBV4Build.obj
 0001:000c6d80       ?GenericSweep_AABB_CB@@YAXAEBVBox@Gu@physx@@AEBV?$PxVec3T@M@3@MAEBVBV4Tree@23@P6A_NPEAX111IAEAM@Z3I@Z 00000001800c7d80 f   GuBV4_AABBSweep.obj
 0001:000c6ee0       ?Sweep_AABB_BV4@@YAHAEBVBox@Gu@physx@@AEBV?$PxVec3T@M@3@MAEBVBV4Tree@23@PEIAVSweepHit@23@I@Z 00000001800c7ee0 f   GuBV4_AABBSweep.obj
 0001:000cfc60       ?BV4_OverlapBoxAll@@YAIAEBVBox@Gu@physx@@AEBVBV4Tree@23@PEIBV?$PxMat44T@M@3@PEAIIAEA_N@Z 00000001800d0c60 f   GuBV4_BoxOverlap.obj
 0001:000d0470       ?BV4_OverlapBoxAny@@YAHAEBVBox@Gu@physx@@AEBVBV4Tree@23@PEIBV?$PxMat44T@M@3@@Z 00000001800d1470 f   GuBV4_BoxOverlap.obj
 0001:000d0c70       ?BV4_OverlapBoxCB@@YAXAEBVBox@Gu@physx@@AEBVBV4Tree@23@P6A_NPEAXAEBV?$PxVec3T@M@3@333IPEBI@Z2@Z 00000001800d1c70 f   GuBV4_BoxOverlap.obj
 0001:000d1320       ?BV4_OverlapBoxCB@@YAXAEBVBox@Gu@physx@@AEBVBV4Tree@23@P6A_NPEAXAEBV?$PxVec3T@M@3@33IPEBI@Z2@Z 00000001800d2320 f   GuBV4_BoxOverlap.obj
 0001:000d17d0       ?BV4_OverlapCapsuleAll@@YAIAEBVCapsule@Gu@physx@@AEBVBV4Tree@23@PEIBV?$PxMat44T@M@3@PEAIIAEA_N@Z 00000001800d27d0 f   GuBV4_BoxOverlap.obj
 0001:000d1ef0       ?BV4_OverlapCapsuleAny@@YAHAEBVCapsule@Gu@physx@@AEBVBV4Tree@23@PEIBV?$PxMat44T@M@3@@Z 00000001800d2ef0 f   GuBV4_BoxOverlap.obj
 0001:000d4da0       ?BV4_CapsuleSweepSingle@@YAHAEBVCapsule@Gu@physx@@AEBV?$PxVec3T@M@3@MAEBVBV4Tree@23@PEIAVSweepHit@23@I@Z 00000001800d5da0 f   GuBV4_CapsuleSweep.obj
 0001:000d8e40       ?BV4_CapsuleSweepSingleAA@@YAHAEBVCapsule@Gu@physx@@AEBV?$PxVec3T@M@3@MAEBVBV4Tree@23@PEIAVSweepHit@23@I@Z 00000001800d9e40 f   GuBV4_CapsuleSweepAA.obj
 0001:000e8ab0       ?BV4_OverlapMeshVsMesh@@YA_NAEAV?$PxReportCallback@UPxGeomIndexPair@physx@@@physx@@AEBVBV4Tree@Gu@2@1PEBV?$PxMat44T@M@2@2AEBV?$PxTransformT@M@2@3AEBVPxMeshScale@2@4V?$PxFlags@W4Enum@PxMeshMeshQueryFlag@physx@@I@2@@Z 00000001800e9ab0 f   GuBV4_MeshMeshOverlap.obj
 0001:000e8cd0       ?BV4_OverlapMeshVsMesh@@YA_NAEAV?$PxReportCallback@UPxGeomIndexPair@physx@@@physx@@AEBVBV4Tree@Gu@2@1PEBV?$PxMat44T@M@2@2V?$PxFlags@W4Enum@PxMeshMeshQueryFlag@physx@@I@2@@Z 00000001800e9cd0 f   GuBV4_MeshMeshOverlap.obj
 0001:000f01e0       ??D?$PxMat33T@M@physx@@QEBA?BV?$PxVec3T@M@1@AEBV21@@Z 00000001800f11e0 f i GuBV4_OBBSweep.obj
 0001:000f0270       ?BV4_BoxSweepSingle@@YAHAEBVBox@Gu@physx@@AEBV?$PxVec3T@M@3@MAEBVBV4Tree@23@PEIBV?$PxMat44T@M@3@PEIAVSweepHit@23@I@Z 00000001800f1270 f   GuBV4_OBBSweep.obj
 0001:000f09a0       ?BV4_GenericSweepCB@@YAXAEBVBox@Gu@physx@@AEBV?$PxVec3T@M@3@MAEBVBV4Tree@23@P6A_NPEAX111IAEAM@Z3_N@Z 00000001800f19a0 f   GuBV4_OBBSweep.obj
 0001:000f0bd0       ?Sweep_OBB_BV4@@YAHAEBVBox@Gu@physx@@AEBV?$PxVec3T@M@3@MAEBVBV4Tree@23@PEIAVSweepHit@23@I@Z 00000001800f1bd0 f   GuBV4_OBBSweep.obj
 0001:000f3730       ?BV4_RaycastCB@@YAXAEBV?$PxVec3T@M@physx@@0AEBVBV4Tree@Gu@2@PEIBV?$PxMat44T@M@2@MMIP6A?AW4HitCode@42@PEAX000IMMM@Z3@Z 00000001800f4730 f   GuBV4_Raycast.obj
 0001:000f3b70       ?BV4_RaycastSingle@@YAHAEBV?$PxVec3T@M@physx@@0AEBVBV4Tree@Gu@2@PEIBV?$PxMat44T@M@2@PEIAUPxGeomRaycastHit@2@MMIV?$PxFlags@W4Enum@PxHitFlag@physx@@G@2@@Z 00000001800f4b70 f   GuBV4_Raycast.obj
 0001:000f60a0       ?BV4_OverlapSphereAll@@YAIAEBVSphere@Gu@physx@@AEBVBV4Tree@23@PEIBV?$PxMat44T@M@3@PEAIIAEA_N@Z 00000001800f70a0 f   GuBV4_SphereOverlap.obj
 0001:000f63c0       ?BV4_OverlapSphereAny@@YAHAEBVSphere@Gu@physx@@AEBVBV4Tree@23@PEIBV?$PxMat44T@M@3@@Z 00000001800f73c0 f   GuBV4_SphereOverlap.obj
 0001:000f66a0       ?BV4_PointDistance@@YAXAEBV?$PxVec3T@M@physx@@AEBVBV4Tree@Gu@2@MAEAIAEAMAEAV12@@Z 00000001800f76a0 f   GuBV4_SphereOverlap.obj
 0001:000fd050       ?BV4_GenericSweepCB_Old@@YAXAEBV?$PxVec3T@M@physx@@00MAEBVBV4Tree@Gu@2@PEIBV?$PxMat44T@M@2@P6A_NPEAX000IAEAM@Z3@Z 00000001800fe050 f   GuBV4_SphereSweep.obj
 0001:000fd450       ?BV4_SphereSweepSingle@@YAHAEBVSphere@Gu@physx@@AEBV?$PxVec3T@M@3@MAEBVBV4Tree@23@PEIBV?$PxMat44T@M@3@PEIAVSweepHit@23@I@Z 00000001800fe450 f   GuBV4_SphereSweep.obj
 0001:000fe750       ?computeSweepData@physx@@YAMAEBVPxTriangleMeshGeometry@1@AEAV?$PxVec3T@M@1@11M@Z 00000001800ff750 f i GuMidphaseBV4.obj
 0001:000ffb70       ?intersectBoxVsMesh_BV4@Gu@physx@@YA_NAEBVBox@12@AEBVTriangleMesh@12@AEBV?$PxTransformT@M@2@AEBVPxMeshScale@2@PEAULimitedResults@12@@Z 0000000180100b70 f   GuMidphaseBV4.obj
 0001:00100670       ?intersectCapsuleVsMesh_BV4@Gu@physx@@YA_NAEBVCapsule@12@AEBVTriangleMesh@12@AEBV?$PxTransformT@M@2@AEBVPxMeshScale@2@PEAULimitedResults@12@@Z 0000000180101670 f   GuMidphaseBV4.obj
 0001:00100eb0       ?intersectMeshVsMesh_BV4@Gu@physx@@YA_NAEAV?$PxReportCallback@UPxGeomIndexPair@physx@@@2@AEBVTriangleMesh@12@1AEBV?$PxTransformT@M@2@2AEBVPxMeshScale@2@3V?$PxFlags@W4Enum@PxMeshMeshQueryFlag@physx@@I@2@@Z 0000000180101eb0 f   GuMidphaseBV4.obj
 0001:00101790       ?intersectOBB_BV4@Gu@physx@@YAXPEBVTetrahedronMesh@12@AEBVBox@12@AEAU?$TetMeshHitCallback@UPxGeomRaycastHit@physx@@@12@@Z 0000000180102790 f   GuMidphaseBV4.obj
 0001:001017b0       ?intersectOBB_BV4@Gu@physx@@YAXPEBVTriangleMesh@12@AEBVBox@12@AEAU?$MeshHitCallback@UPxGeomRaycastHit@physx@@@12@_N3@Z 00000001801027b0 f   GuMidphaseBV4.obj
 0001:001017d0       ?intersectSphereVsMesh_BV4@Gu@physx@@YA_NAEBVSphere@12@AEBVTriangleMesh@12@AEBV?$PxTransformT@M@2@AEBVPxMeshScale@2@PEAULimitedResults@12@@Z 00000001801027d0 f   GuMidphaseBV4.obj
 0001:00101f00       ?pointMeshDistance_BV4@Gu@physx@@YAXPEBVTriangleMesh@12@AEBVPxTriangleMeshGeometry@2@AEBV?$PxTransformT@M@2@AEBV?$PxVec3T@M@2@MAEAIAEAMAEAV62@@Z 0000000180102f00 f   GuMidphaseBV4.obj
 0001:001025b0       ?raycast_triangleMesh_BV4@Gu@physx@@YAIPEBVTriangleMesh@12@AEBVPxTriangleMeshGeometry@2@AEBV?$PxTransformT@M@2@AEBV?$PxVec3T@M@2@3MV?$PxFlags@W4Enum@PxHitFlag@physx@@G@2@IPEIAUPxGeomRaycastHit@2@I@Z 00000001801035b0 f   GuMidphaseBV4.obj
 0001:001033c0       ?sweepBox_MeshGeom_BV4@Gu@physx@@YA_NPEBVTriangleMesh@12@AEBVPxTriangleMeshGeometry@2@AEBV?$PxTransformT@M@2@AEBVBox@12@AEBV?$PxVec3T@M@2@MAEAUPxGeomSweepHit@2@V?$PxFlags@W4Enum@PxHitFlag@physx@@G@2@M@Z 00000001801043c0 f   GuMidphaseBV4.obj
 0001:00104a20       ?sweepCapsule_MeshGeom_BV4@Gu@physx@@YA_NPEBVTriangleMesh@12@AEBVPxTriangleMeshGeometry@2@AEBV?$PxTransformT@M@2@AEBVCapsule@12@AEBV?$PxVec3T@M@2@MAEAUPxGeomSweepHit@2@V?$PxFlags@W4Enum@PxHitFlag@physx@@G@2@M@Z 0000000180105a20 f   GuMidphaseBV4.obj
 0001:00105530       ?sweepConvex_MeshGeom_BV4@Gu@physx@@YAXPEBVTriangleMesh@12@AEBVBox@12@AEBV?$PxVec3T@M@2@MAEAUSweepConvexMeshHitCallback@12@_N@Z 0000000180106530 f   GuMidphaseBV4.obj
 0001:00105570       ?transform@PxMeshScale@physx@@QEBA?AV?$PxVec3T@M@2@AEBV32@@Z 0000000180106570 f i GuMidphaseBV4.obj
 0001:001057b0       ?findOverlapHeightField@PxMeshQuery@physx@@SAIAEBVPxGeometry@2@AEBV?$PxTransformT@M@2@AEBVPxHeightFieldGeometry@2@1PEAIIIAEA_NV?$PxFlags@W4Enum@PxGeometryQueryFlag@physx@@I@2@@Z 00000001801067b0 f   GuMeshQuery.obj
 0001:00105f20       ?findOverlapTriangleMesh@PxMeshQuery@physx@@SAIAEBVPxGeometry@2@AEBV?$PxTransformT@M@2@AEBVPxTriangleMeshGeometry@2@1PEAIIIAEA_NV?$PxFlags@W4Enum@PxGeometryQueryFlag@physx@@I@2@@Z 0000000180106f20 f   GuMeshQuery.obj
 0001:00106240       ?findOverlapTriangleMesh@PxMeshQuery@physx@@SA_NAEAV?$PxReportCallback@UPxGeomIndexPair@physx@@@2@AEBVPxTriangleMeshGeometry@2@AEBV?$PxTransformT@M@2@12V?$PxFlags@W4Enum@PxGeometryQueryFlag@physx@@I@2@V?$PxFlags@W4Enum@PxMeshMeshQueryFlag@physx@@I@2@@Z 0000000180107240 f   GuMeshQuery.obj
 0001:00106350       ?getTriangle@PxMeshQuery@physx@@SAXAEBVPxHeightFieldGeometry@2@AEBV?$PxTransformT@M@2@IAEAVPxTriangle@2@PEAI3@Z 0000000180107350 f   GuMeshQuery.obj
 0001:001063d0       ?getTriangle@PxMeshQuery@physx@@SAXAEBVPxTriangleMeshGeometry@2@AEBV?$PxTransformT@M@2@IAEAVPxTriangle@2@PEAI3@Z 00000001801073d0 f   GuMeshQuery.obj
 0001:001068d0       ?sweep@PxMeshQuery@physx@@SA_NAEBV?$PxVec3T@M@2@MAEBVPxGeometry@2@AEBV?$PxTransformT@M@2@IPEBVPxTriangle@2@AEAUPxGeomSweepHit@2@V?$PxFlags@W4Enum@PxHitFlag@physx@@G@2@PEBIM_NV?$PxFlags@W4Enum@PxGeometryQueryFlag@physx@@I@2@@Z 00000001801078d0 f   GuMeshQuery.obj
 0001:00106b50       ??$collide@$00$00@MeshRayCollider@@SAXAEBV?$PxVec3T@M@physx@@0M_NPEBVRTreeTriangleMesh@Gu@2@AEAU?$MeshHitCallback@UPxGeomRaycastHit@physx@@@42@PEBV12@@Z 0000000180107b50 f i GuMidphaseRTree.obj
 0001:00106ec0       ??$collide@$00$0A@@MeshRayCollider@@SAXAEBV?$PxVec3T@M@physx@@0M_NPEBVRTreeTriangleMesh@Gu@2@AEAU?$MeshHitCallback@UPxGeomRaycastHit@physx@@@42@PEBV12@@Z 0000000180107ec0 f i GuMidphaseRTree.obj
 0001:00107100       ??$collide@$0A@$00@MeshRayCollider@@SAXAEBV?$PxVec3T@M@physx@@0M_NPEBVRTreeTriangleMesh@Gu@2@AEAU?$MeshHitCallback@UPxGeomRaycastHit@physx@@@42@PEBV12@@Z 0000000180108100 f i GuMidphaseRTree.obj
 0001:00109460       ??0?$RayRTreeCallback@$00$0A@@@QEAA@MAEAU?$MeshHitCallback@UPxGeomRaycastHit@physx@@@Gu@physx@@HPEBXPEBV?$PxVec3T@M@3@AEBV43@3M_N2@Z 000000018010a460 f i GuMidphaseRTree.obj
 0001:00109580       ??1?$RayRTreeCallback@$00$00@@UEAA@XZ 000000018010a580 f i GuMidphaseRTree.obj
 0001:00109610       ??1?$RayRTreeCallback@$00$0A@@@UEAA@XZ 000000018010a610 f i GuMidphaseRTree.obj
 0001:00109610       ??1?$RayRTreeCallback@$0A@$0A@@@UEAA@XZ 000000018010a610 f i GuMidphaseRTree.obj
 0001:001096a0       ??1?$RayRTreeCallback@$0A@$00@@UEAA@XZ 000000018010a6a0 f i GuMidphaseRTree.obj
 0001:00109728       ??_E?$RayRTreeCallback@$00$00@@W7EAAPEAXI@Z 000000018010a728 f i GuMidphaseRTree.obj
 0001:00109734       ??_E?$RayRTreeCallback@$00$0A@@@W7EAAPEAXI@Z 000000018010a734 f i GuMidphaseRTree.obj
 0001:00109734       ??_E?$RayRTreeCallback@$0A@$0A@@@W7EAAPEAXI@Z 000000018010a734 f i GuMidphaseRTree.obj
 0001:00109740       ??_E?$RayRTreeCallback@$0A@$00@@W7EAAPEAXI@Z 000000018010a740 f i GuMidphaseRTree.obj
 0001:001097b0       ??_E?$RayRTreeCallback@$00$00@@UEAAPEAXI@Z 000000018010a7b0 f i GuMidphaseRTree.obj
 0001:001097b0       ??_G?$RayRTreeCallback@$00$00@@UEAAPEAXI@Z 000000018010a7b0 f i GuMidphaseRTree.obj
 0001:001097f0       ??_E?$RayRTreeCallback@$00$0A@@@UEAAPEAXI@Z 000000018010a7f0 f i GuMidphaseRTree.obj
 0001:001097f0       ??_E?$RayRTreeCallback@$0A@$0A@@@UEAAPEAXI@Z 000000018010a7f0 f i GuMidphaseRTree.obj
 0001:001097f0       ??_G?$RayRTreeCallback@$00$0A@@@UEAAPEAXI@Z 000000018010a7f0 f i GuMidphaseRTree.obj
 0001:001097f0       ??_G?$RayRTreeCallback@$0A@$0A@@@UEAAPEAXI@Z 000000018010a7f0 f i GuMidphaseRTree.obj
 0001:00109830       ??_E?$RayRTreeCallback@$0A@$00@@UEAAPEAXI@Z 000000018010a830 f i GuMidphaseRTree.obj
 0001:00109830       ??_G?$RayRTreeCallback@$0A@$00@@UEAAPEAXI@Z 000000018010a830 f i GuMidphaseRTree.obj
 0001:00109870       ??_ECallback@RTree@Gu@physx@@UEAAPEAXI@Z 000000018010a870 f i GuMidphaseRTree.obj
 0001:00109870       ??_GCallback@RTree@Gu@physx@@UEAAPEAXI@Z 000000018010a870 f i GuMidphaseRTree.obj
 0001:001098a0       ??_ERayMeshColliderCallback@@UEAAPEAXI@Z 000000018010a8a0 f i GuMidphaseRTree.obj
 0001:001098a0       ??_ESweepCapsuleMeshHitCallback@Gu@physx@@UEAAPEAXI@Z 000000018010a8a0 f i GuSweepsMesh.obj
 0001:001098a0       ??_GRayMeshColliderCallback@@UEAAPEAXI@Z 000000018010a8a0 f i GuMidphaseRTree.obj
 0001:001098a0       ??_GSweepCapsuleMeshHitCallback@Gu@physx@@UEAAPEAXI@Z 000000018010a8a0 f i GuSweepsMesh.obj
 0001:001098d0       ?collideOBB@MeshRayCollider@@SAXAEBVBox@Gu@physx@@_NPEBVRTreeTriangleMesh@34@AEAU?$MeshHitCallback@UPxGeomRaycastHit@physx@@@34@1@Z 000000018010a8d0 f   GuMidphaseRTree.obj
 0001:00109da0       ?intersectBoxVsMesh_RTREE@Gu@physx@@YA_NAEBVBox@12@AEBVTriangleMesh@12@AEBV?$PxTransformT@M@2@AEBVPxMeshScale@2@PEAULimitedResults@12@@Z 000000018010ada0 f   GuMidphaseRTree.obj
 0001:00109e10       ?intersectCapsuleVsMesh_RTREE@Gu@physx@@YA_NAEBVCapsule@12@AEBVTriangleMesh@12@AEBV?$PxTransformT@M@2@AEBVPxMeshScale@2@PEAULimitedResults@12@@Z 000000018010ae10 f   GuMidphaseRTree.obj
 0001:00109e90       ?intersectOBB_RTREE@Gu@physx@@YAXPEBVTriangleMesh@12@AEBVBox@12@AEAU?$MeshHitCallback@UPxGeomRaycastHit@physx@@@12@_N3@Z 000000018010ae90 f   GuMidphaseRTree.obj
 0001:00109ec0       ?intersectSphereVsMesh_RTREE@Gu@physx@@YA_NAEBVSphere@12@AEBVTriangleMesh@12@AEBV?$PxTransformT@M@2@AEBVPxMeshScale@2@PEAULimitedResults@12@@Z 000000018010aec0 f   GuMidphaseRTree.obj
 0001:00109ef0       ?pointMeshDistance_RTREE@Gu@physx@@YAXPEBVTriangleMesh@12@AEBVPxTriangleMeshGeometry@2@AEBV?$PxTransformT@M@2@AEBV?$PxVec3T@M@2@MAEAIAEAMAEAV62@@Z 000000018010aef0 f   GuMidphaseRTree.obj
 0001:0010ace0       ?processHit@RayMeshColliderCallback@@UEAA_NAEBUPxGeomRaycastHit@physx@@AEBV?$PxVec3T@M@3@11AEAMPEBI@Z 000000018010bce0 f i GuMidphaseRTree.obj
 0001:0010b480       ?processResults@?$RayRTreeCallback@$00$00@@UEAA_NIPEAI@Z 000000018010c480 f i GuMidphaseRTree.obj
 0001:0010b800       ?processResults@?$RayRTreeCallback@$00$00@@UEAA_NIPEAIAEAM@Z 000000018010c800 f i GuMidphaseRTree.obj
 0001:0010bba0       ?processResults@?$RayRTreeCallback@$00$0A@@@UEAA_NIPEAI@Z 000000018010cba0 f i GuMidphaseRTree.obj
 0001:0010bba0       ?processResults@?$RayRTreeCallback@$0A@$0A@@@UEAA_NIPEAI@Z 000000018010cba0 f i GuMidphaseRTree.obj
 0001:0010be00       ?processResults@?$RayRTreeCallback@$00$0A@@@UEAA_NIPEAIAEAM@Z 000000018010ce00 f i GuMidphaseRTree.obj
 0001:0010be00       ?processResults@?$RayRTreeCallback@$0A@$0A@@@UEAA_NIPEAIAEAM@Z 000000018010ce00 f i GuMidphaseRTree.obj
 0001:0010c090       ?processResults@?$RayRTreeCallback@$0A@$00@@UEAA_NIPEAI@Z 000000018010d090 f i GuMidphaseRTree.obj
 0001:0010c6d0       ?processResults@?$RayRTreeCallback@$0A@$00@@UEAA_NIPEAIAEAM@Z 000000018010d6d0 f i GuMidphaseRTree.obj
 0001:0010cd20       ?raycast_triangleMesh_RTREE@Gu@physx@@YAIPEBVTriangleMesh@12@AEBVPxTriangleMeshGeometry@2@AEBV?$PxTransformT@M@2@AEBV?$PxVec3T@M@2@3MV?$PxFlags@W4Enum@PxHitFlag@physx@@G@2@IPEIAUPxGeomRaycastHit@2@I@Z 000000018010dd20 f   GuMidphaseRTree.obj
 0001:0010d4a0       ?sweepBox_MeshGeom_RTREE@Gu@physx@@YA_NPEBVTriangleMesh@12@AEBVPxTriangleMeshGeometry@2@AEBV?$PxTransformT@M@2@AEBVBox@12@AEBV?$PxVec3T@M@2@MAEAUPxGeomSweepHit@2@V?$PxFlags@W4Enum@PxHitFlag@physx@@G@2@M@Z 000000018010e4a0 f   GuMidphaseRTree.obj
 0001:0010e930       ?sweepCapsule_MeshGeom_RTREE@Gu@physx@@YA_NPEBVTriangleMesh@12@AEBVPxTriangleMeshGeometry@2@AEBV?$PxTransformT@M@2@AEBVCapsule@12@AEBV?$PxVec3T@M@2@MAEAUPxGeomSweepHit@2@V?$PxFlags@W4Enum@PxHitFlag@physx@@G@2@M@Z 000000018010f930 f   GuMidphaseRTree.obj
 0001:0010f0e0       ?sweepConvex_MeshGeom_RTREE@Gu@physx@@YAXPEBVTriangleMesh@12@AEBVBox@12@AEBV?$PxVec3T@M@2@MAEAUSweepConvexMeshHitCallback@12@_N@Z 00000001801100e0 f   GuMidphaseRTree.obj
 0001:0010fa90       ??_E?$PxReportCallback@UPxGeomIndexPair@physx@@@physx@@UEAAPEAXI@Z 0000000180110a90 f i GuOverlapTestsMesh.obj
 0001:0010fa90       ??_G?$PxReportCallback@UPxGeomIndexPair@physx@@@physx@@UEAAPEAXI@Z 0000000180110a90 f i GuOverlapTestsMesh.obj
 0001:0010fb20       ?GeomOverlapCallback_BoxMesh@@YA_NAEBVPxGeometry@physx@@AEBV?$PxTransformT@M@2@01PEAUTriggerCache@Gu@2@PEAUPxQueryThreadContext@2@@Z 0000000180110b20 f   GuOverlapTestsMesh.obj
 0001:0010fc30       ?GeomOverlapCallback_CapsuleMesh@@YA_NAEBVPxGeometry@physx@@AEBV?$PxTransformT@M@2@01PEAUTriggerCache@Gu@2@PEAUPxQueryThreadContext@2@@Z 0000000180110c30 f   GuOverlapTestsMesh.obj
 0001:0010fd40       ?GeomOverlapCallback_ConvexMesh@@YA_NAEBVPxGeometry@physx@@AEBV?$PxTransformT@M@2@01PEAUTriggerCache@Gu@2@PEAUPxQueryThreadContext@2@@Z 0000000180110d40 f   GuOverlapTestsMesh.obj
 0001:00110240       ?GeomOverlapCallback_MeshMesh@@YA_NAEBVPxGeometry@physx@@AEBV?$PxTransformT@M@2@01PEAUTriggerCache@Gu@2@PEAUPxQueryThreadContext@2@@Z 0000000180111240 f   GuOverlapTestsMesh.obj
 0001:00110300       ?GeomOverlapCallback_SphereMesh@@YA_NAEBVPxGeometry@physx@@AEBV?$PxTransformT@M@2@01PEAUTriggerCache@Gu@2@PEAUPxQueryThreadContext@2@@Z 0000000180111300 f   GuOverlapTestsMesh.obj
 0001:001106f0       ??0RTree@Gu@physx@@QEAA@W4PxEMPTY@2@@Z 00000001801116f0 f   GuRTree.obj
 0001:00110700       ?exportExtraData@RTree@Gu@physx@@QEAAXAEAVPxSerializationContext@3@@Z 0000000180111700 f   GuRTree.obj
 0001:00110740       ?importExtraData@RTree@Gu@physx@@QEAAXAEAVPxDeserializationContext@3@@Z 0000000180111740 f   GuRTree.obj
 0001:00110770       ?load@RTree@Gu@physx@@QEAA_NAEAVPxInputStream@3@I_N@Z 0000000180111770 f   GuRTree.obj
 0001:00110a70       ?refitAllStaticTree@RTree@Gu@physx@@QEAAXAEAUCallbackRefit@123@PEAVPxBounds3@3@@Z 0000000180111a70 f   GuRTree.obj
 0001:00110fc0       ?validate@RTree@Gu@physx@@QEAAXPEAUCallbackRefit@123@@Z 0000000180111fc0 f   GuRTree.obj
 0001:00111200       ?validateRecursive@RTree@Gu@physx@@IEAAXIURTreeNodeQ@23@PEAURTreePage@23@PEAUCallbackRefit@123@@Z 0000000180112200 f   GuRTree.obj
 0001:001113c0       ??$traverseRay@$00@RTree@Gu@physx@@QEBAXAEBV?$PxVec3T@M@2@0IPEAIPEAUCallbackRaycast@012@PEBV32@M@Z 00000001801123c0 f i GuRTreeQueries.obj
 0001:00111760       ??$traverseRay@$0A@@RTree@Gu@physx@@QEBAXAEBV?$PxVec3T@M@2@0IPEAIPEAUCallbackRaycast@012@PEBV32@M@Z 0000000180112760 f i GuRTreeQueries.obj
 0001:00111aa0       ?traverseAABB@RTree@Gu@physx@@QEBAXAEBV?$PxVec3T@M@3@0IPEAIPEAUCallback@123@@Z 0000000180112aa0 f   GuRTreeQueries.obj
 0001:00111c60       ?traverseOBB@RTree@Gu@physx@@QEBAXAEBVBox@23@IPEAIPEAUCallback@123@@Z 0000000180112c60 f   GuRTreeQueries.obj
 0001:00112530       ??0SweepBoxMeshHitCallback@Gu@physx@@QEAA@W4Enum@CallbackMode@12@AEBVPxMat34Padded@2@M_NAEBVBox@12@AEBV?$PxVec3T@M@2@44AEBV?$PxFlags@W4Enum@PxHitFlag@physx@@G@2@M2M@Z 0000000180113530 f   GuSweepsMesh.obj
 0001:00112640       ??0SweepCapsuleMeshHitCallback@Gu@physx@@QEAA@AEAUPxGeomSweepHit@2@AEBV?$PxMat34T@M@2@M_NAEBVCapsule@12@AEBV?$PxVec3T@M@2@AEBV?$PxFlags@W4Enum@PxHitFlag@physx@@G@2@2M@Z 0000000180113640 f   GuSweepsMesh.obj
 0001:00112710       ??0SweepConvexMeshHitCallback@Gu@physx@@QEAA@AEBUConvexHullData@12@AEBVPxMeshScale@2@AEBVFastVertex2ShapeScaling@Cm@2@AEBV?$PxTransformT@M@2@3AEBV?$PxVec3T@M@2@MV?$PxFlags@W4Enum@PxHitFlag@physx@@G@2@_NM6M@Z 0000000180113710 f   GuSweepsMesh.obj
 0001:00113070       ??_ESweepBoxMeshHitCallback@Gu@physx@@UEAAPEAXI@Z 0000000180114070 f i GuSweepsMesh.obj
 0001:00113070       ??_GSweepBoxMeshHitCallback@Gu@physx@@UEAAPEAXI@Z 0000000180114070 f i GuSweepsMesh.obj
 0001:001130a0       ??_ESweepConvexMeshHitCallback@Gu@physx@@UEAAPEAXI@Z 00000001801140a0 f i GuSweepsMesh.obj
 0001:001130a0       ??_GSweepConvexMeshHitCallback@Gu@physx@@UEAAPEAXI@Z 00000001801140a0 f i GuSweepsMesh.obj
 0001:001130d0       ??_ESweepShapeMeshHitCallback@Gu@physx@@UEAAPEAXI@Z 00000001801140d0 f i GuSweepsMesh.obj
 0001:001130d0       ??_GSweepShapeMeshHitCallback@Gu@physx@@UEAAPEAXI@Z 00000001801140d0 f i GuSweepsMesh.obj
 0001:00113100       ?finalizeHit@SweepBoxMeshHitCallback@Gu@physx@@QEBA_NAEAUPxGeomSweepHit@3@AEBVPxTriangleMeshGeometry@3@AEBV?$PxTransformT@M@3@2AEBV?$PxVec3T@M@3@_N4@Z 0000000180114100 f   GuSweepsMesh.obj
 0001:001137c0       ?finalizeHit@SweepCapsuleMeshHitCallback@Gu@physx@@QEBA_NAEAUPxGeomSweepHit@3@AEBVCapsule@23@AEBVPxTriangleMeshGeometry@3@AEBV?$PxTransformT@M@3@_N@Z 00000001801147c0 f   GuSweepsMesh.obj
 0001:00113970       ?finalizeHit@SweepConvexMeshHitCallback@Gu@physx@@QEAA_NAEAUPxGeomSweepHit@3@AEBVPxTriangleMeshGeometry@3@AEBV?$PxTransformT@M@3@AEBVPxConvexMeshGeometry@3@2AEBV?$PxVec3T@M@3@M_N555@Z 0000000180114970 f   GuSweepsMesh.obj
 0001:00113e40       ?processHit@SweepBoxMeshHitCallback@Gu@physx@@UEAA_NAEBUPxGeomRaycastHit@3@AEBV?$PxVec3T@M@3@11AEAMPEBI@Z 0000000180114e40 f   GuSweepsMesh.obj
 0001:00114620       ?processHit@SweepCapsuleMeshHitCallback@Gu@physx@@UEAA_NAEBUPxGeomRaycastHit@3@AEBV?$PxVec3T@M@3@11AEAMPEBI@Z 0000000180115620 f   GuSweepsMesh.obj
 0001:00114b80       ?processHit@SweepConvexMeshHitCallback@Gu@physx@@UEAA_NAEBUPxGeomRaycastHit@3@AEBV?$PxVec3T@M@3@11AEAMPEBI@Z 0000000180115b80 f   GuSweepsMesh.obj
 0001:001152d0       ?sweepBox_MeshGeom@@YA_NAEBVPxGeometry@physx@@AEBV?$PxTransformT@M@2@AEBVPxBoxGeometry@2@1AEBVBox@Gu@2@AEBV?$PxVec3T@M@2@MAEAUPxGeomSweepHit@2@V?$PxFlags@W4Enum@PxHitFlag@physx@@G@2@MPEAUPxQueryThreadContext@2@@Z 00000001801162d0 f   GuSweepsMesh.obj
 0001:00115360       ?sweepCapsule_MeshGeom@@YA_NAEBVPxGeometry@physx@@AEBV?$PxTransformT@M@2@AEBVPxCapsuleGeometry@2@1AEBVCapsule@Gu@2@AEBV?$PxVec3T@M@2@MAEAUPxGeomSweepHit@2@V?$PxFlags@W4Enum@PxHitFlag@physx@@G@2@MPEAUPxQueryThreadContext@2@@Z 0000000180116360 f   GuSweepsMesh.obj
 0001:001153f0       ?sweepConvex_MeshGeom@@YA_NAEBVPxGeometry@physx@@AEBV?$PxTransformT@M@2@AEBVPxConvexMeshGeometry@2@1AEBV?$PxVec3T@M@2@MAEAUPxGeomSweepHit@2@V?$PxFlags@W4Enum@PxHitFlag@physx@@G@2@MPEAUPxQueryThreadContext@2@@Z 00000001801163f0 f   GuSweepsMesh.obj
 0001:00115f30       ??0TriangleMesh@Gu@physx@@QEAA@AEBUPxTriangleMeshInternalData@2@@Z 0000000180116f30 f   GuTriangleMesh.obj
 0001:00116010       ??0TriangleMesh@Gu@physx@@QEAA@PEAVMeshFactory@12@AEAVTriangleMeshData@12@@Z 0000000180117010 f   GuTriangleMesh.obj
 0001:00116390       ??1TriangleMesh@Gu@physx@@UEAA@XZ 0000000180117390 f   GuTriangleMesh.obj
 0001:00116600       ??_ETriangleMesh@Gu@physx@@UEAAPEAXI@Z 0000000180117600 f i GuTriangleMesh.obj
 0001:00116600       ??_GTriangleMesh@Gu@physx@@UEAAPEAXI@Z 0000000180117600 f i GuTriangleMesh.obj
 0001:00116670       ?exportExtraData@TriangleMesh@Gu@physx@@UEAAXAEAVPxSerializationContext@3@@Z 0000000180117670 f   GuTriangleMesh.obj
 0001:00116840       ?getLocalBounds@TriangleMesh@Gu@physx@@UEBA?AVPxBounds3@3@XZ 0000000180117840 f i GuTriangleMesh.obj
 0001:001168d0       ?getMassInformation@TriangleMesh@Gu@physx@@UEBAXAEAMAEAV?$PxMat33T@M@3@AEAV?$PxVec3T@M@3@@Z 00000001801178d0 f i GuTriangleMesh.obj
 0001:00116950       ?getNbTriangles@TriangleMesh@Gu@physx@@UEBAIXZ 0000000180117950 f i GuTriangleMesh.obj
 0001:00116960       ?getPreferSDFProjection@TriangleMesh@Gu@physx@@UEBA_NXZ 0000000180117960 f i GuTriangleMesh.obj
 0001:00116970       ?getSDF@TriangleMesh@Gu@physx@@UEBAPEBMXZ 0000000180117970 f i GuTriangleMesh.obj
 0001:00116980       ?getSDFDimensions@TriangleMesh@Gu@physx@@UEBAXAEAI00@Z 0000000180117980 f i GuTriangleMesh.obj
 0001:001169b0       ?getTriangleMaterialIndex@TriangleMesh@Gu@physx@@UEBAGI@Z 00000001801179b0 f i GuTriangleMesh.obj
 0001:001169d0       ?getTriangleMeshFlags@TriangleMesh@Gu@physx@@UEBA?AV?$PxFlags@W4Enum@PxTriangleMeshFlag@physx@@E@3@XZ 00000001801179d0 f i GuTriangleMesh.obj
 0001:001169e0       ?getTrianglesRemap@TriangleMesh@Gu@physx@@UEBAPEBIXZ 00000001801179e0 f i GuTriangleMesh.obj
 0001:001169f0       ?getVerticesForModification@TriangleMesh@Gu@physx@@UEAAPEAV?$PxVec3T@M@3@XZ 00000001801179f0 f   GuTriangleMesh.obj
 0001:00116a30       ?importExtraData@TriangleMesh@Gu@physx@@QEAAXAEAVPxDeserializationContext@3@@Z 0000000180117a30 f   GuTriangleMesh.obj
 0001:00116bc0       ?isKindOf@PxTriangleMesh@physx@@MEBA_NPEBD@Z 0000000180117bc0 f i GuTriangleMesh.obj
 0001:00116c30       ?onRefCountZero@TriangleMesh@Gu@physx@@UEAAXXZ 0000000180117c30 f   GuTriangleMesh.obj
 0001:00116d00       ?refitBVH@TriangleMesh@Gu@physx@@UEAA?AVPxBounds3@3@XZ 0000000180117d00 f   GuTriangleMesh.obj
 0001:00116dd0       ?requestEdgeList@TriangleMesh@Gu@physx@@QEBAPEBVEdgeList@23@XZ 0000000180117dd0 f   GuTriangleMesh.obj
 0001:00116eb0       ?setAllEdgesActive@TriangleMesh@Gu@physx@@QEAAXXZ 0000000180117eb0 f   GuTriangleMesh.obj
 0001:00116fa0       ?setPreferSDFProjection@TriangleMesh@Gu@physx@@UEAAX_N@Z 0000000180117fa0 f i GuTriangleMesh.obj
 0001:00116fd0       ??0BV4TriangleMesh@Gu@physx@@QEAA@AEBUPxTriangleMeshInternalData@2@@Z 0000000180117fd0 f   GuTriangleMeshBV4.obj
 0001:00117130       ??0BV4TriangleMesh@Gu@physx@@QEAA@PEAVMeshFactory@12@AEAVTriangleMeshData@12@@Z 0000000180118130 f   GuTriangleMeshBV4.obj
 0001:001171c0       ??_EBV4TriangleMesh@Gu@physx@@UEAAPEAXI@Z 00000001801181c0 f i GuTriangleMeshBV4.obj
 0001:001171c0       ??_GBV4TriangleMesh@Gu@physx@@UEAAPEAXI@Z 00000001801181c0 f i GuTriangleMeshBV4.obj
 0001:00117250       ?createObject@BV4TriangleMesh@Gu@physx@@SAPEAVTriangleMesh@23@AEAPEAEAEAVPxDeserializationContext@3@@Z 0000000180118250 f   GuTriangleMeshBV4.obj
 0001:00117330       ?exportExtraData@BV4TriangleMesh@Gu@physx@@UEAAXAEAVPxSerializationContext@3@@Z 0000000180118330 f   GuTriangleMeshBV4.obj
 0001:00117370       ?getConcreteTypeName@BV4TriangleMesh@Gu@physx@@UEBAPEBDXZ 0000000180118370 f i GuTriangleMeshBV4.obj
 0001:00117380       ?getInternalData@BV4TriangleMesh@Gu@physx@@UEBA_NAEAUPxTriangleMeshInternalData@3@_N@Z 0000000180118380 f   GuTriangleMeshBV4.obj
 0001:00117470       ?getMidphaseID@BV4TriangleMesh@Gu@physx@@UEBA?AW4Enum@PxMeshMidPhase@3@XZ 0000000180118470 f i GuTriangleMeshBV4.obj
 0001:00117470       ?getMidphaseID@BV4TriangleMeshBuilder@physx@@UEBA?AW4Enum@PxMeshMidPhase@2@XZ 0000000180118470 f i GuCookingTriangleMesh.obj
 0001:00117470       ?length@charNode@@UEBAHXZ  0000000180118470 f i libvcruntime:undname.obj
 0001:00117470       ?raw_length@charNode@@UEBAHXZ 0000000180118470 f i libvcruntime:undname.obj
 0001:00117470       DllMain                    0000000180118470 f i LIBCMT:dll_dllmain_stub.obj
 0001:00117470       _get_startup_argv_mode     0000000180118470 f i LIBCMT:argv_mode.obj
 0001:00117480       ?getVerticesForModification@BV4TriangleMesh@Gu@physx@@UEAAPEAV?$PxVec3T@M@3@XZ 0000000180118480 f   GuTriangleMeshBV4.obj
 0001:00117480       ?getVerticesForModification@RTreeTriangleMesh@Gu@physx@@UEAAPEAV?$PxVec3T@M@3@XZ 0000000180118480 f   GuTriangleMeshRTree.obj
 0001:00117490       ?refitBVH@BV4TriangleMesh@Gu@physx@@UEAA?AVPxBounds3@3@XZ 0000000180118490 f   GuTriangleMeshBV4.obj
 0001:00117600       PxGetTriangleMeshInternalData 0000000180118600 f   GuTriangleMeshBV4.obj
 0001:00117620       ??0RTreeTriangleMesh@Gu@physx@@QEAA@PEAVMeshFactory@12@AEAVTriangleMeshData@12@@Z 0000000180118620 f   GuTriangleMeshRTree.obj
 0001:00117790       ??_E?$RefitCallback@G@physx@@UEAAPEAXI@Z 0000000180118790 f i GuTriangleMeshRTree.obj
 0001:00117790       ??_E?$RefitCallback@I@physx@@UEAAPEAXI@Z 0000000180118790 f i GuTriangleMeshRTree.obj
 0001:00117790       ??_G?$RefitCallback@G@physx@@UEAAPEAXI@Z 0000000180118790 f i GuTriangleMeshRTree.obj
 0001:00117790       ??_G?$RefitCallback@I@physx@@UEAAPEAXI@Z 0000000180118790 f i GuTriangleMeshRTree.obj
 0001:001177c0       ??_ERTreeTriangleMesh@Gu@physx@@UEAAPEAXI@Z 00000001801187c0 f i GuTriangleMeshRTree.obj
 0001:001177c0       ??_GRTreeTriangleMesh@Gu@physx@@UEAAPEAXI@Z 00000001801187c0 f i GuTriangleMeshRTree.obj
 0001:00117870       ?createObject@RTreeTriangleMesh@Gu@physx@@SAPEAVTriangleMesh@23@AEAPEAEAEAVPxDeserializationContext@3@@Z 0000000180118870 f   GuTriangleMeshRTree.obj
 0001:00117900       ?exportExtraData@RTreeTriangleMesh@Gu@physx@@UEAAXAEAVPxSerializationContext@3@@Z 0000000180118900 f   GuTriangleMeshRTree.obj
 0001:00117940       ?getConcreteTypeName@RTreeTriangleMesh@Gu@physx@@UEBAPEBDXZ 0000000180118940 f i GuTriangleMeshRTree.obj
 0001:00117950       ?recomputeBounds@?$RefitCallback@G@physx@@UEAAXIAEAT__m128@@0@Z 0000000180118950 f i GuTriangleMeshRTree.obj
 0001:00117c80       ?recomputeBounds@?$RefitCallback@I@physx@@UEAAXIAEAT__m128@@0@Z 0000000180118c80 f i GuTriangleMeshRTree.obj
 0001:00117fa0       ?refitBVH@RTreeTriangleMesh@Gu@physx@@UEAA?AVPxBounds3@3@XZ 0000000180118fa0 f   GuTriangleMeshRTree.obj
 0001:001180c0       ??0BV32Tree@Gu@physx@@QEAA@XZ 00000001801190c0 f   GuBV32.obj
 0001:001180f0       ??1BV32Tree@Gu@physx@@QEAA@XZ 00000001801190f0 f   GuBV32.obj
 0001:00118100       ?calculateLeafNode@BV32Tree@Gu@physx@@QEAAXAEAUBV32Data@23@@Z 0000000180119100 f   GuBV32.obj
 0001:00118320       ?createSOAformatNode@BV32Tree@Gu@physx@@QEAAXAEAUBV32DataPacked@23@AEBUBV32Data@23@IAEAI2@Z 0000000180119320 f   GuBV32.obj
 0001:00118780       ?load@BV32Tree@Gu@physx@@QEAA_NAEAVPxInputStream@3@_N@Z 0000000180119780 f   GuBV32.obj
 0001:00118ac0       ?release@BV32Tree@Gu@physx@@QEAAXXZ 0000000180119ac0 f   GuBV32.obj
 0001:00118b80       ??0BV32Node@@QEAA@XZ       0000000180119b80 f i GuBV32Build.obj
 0001:00119000       ?BuildBV32Ex@Gu@physx@@YA_NAEAVBV32Tree@12@AEAVSourceMeshBase@12@MI@Z 000000018011a000 f   GuBV32Build.obj
 0001:00119f70       ??0BVTetrahedronMesh@Gu@physx@@QEAA@AEAVTetrahedronMeshData@12@AEAVSoftBodyCollisionData@12@PEAVMeshFactory@12@@Z 000000018011af70 f   GuTetrahedronMesh.obj
 0001:0011a1d0       ??0SoftBodyMesh@Gu@physx@@QEAA@PEAVMeshFactory@12@AEAVSoftBodyMeshData@12@@Z 000000018011b1d0 f   GuTetrahedronMesh.obj
 0001:0011a570       ??0TetrahedronMesh@Gu@physx@@QEAA@PEAVMeshFactory@12@AEAVTetrahedronMeshData@12@@Z 000000018011b570 f   GuTetrahedronMesh.obj
 0001:0011a660       ??1SoftBodyAuxData@Gu@physx@@UEAA@XZ 000000018011b660 f   GuTetrahedronMesh.obj
 0001:0011a8e0       ??1TetrahedronMesh@Gu@physx@@UEAA@XZ 000000018011b8e0 f   GuTetrahedronMesh.obj
 0001:0011a980       ??_EBVTetrahedronMesh@Gu@physx@@UEAAPEAXI@Z 000000018011b980 f i GuTetrahedronMesh.obj
 0001:0011a980       ??_GBVTetrahedronMesh@Gu@physx@@UEAAPEAXI@Z 000000018011b980 f i GuTetrahedronMesh.obj
 0001:0011ab00       ??_ESoftBodyAuxData@Gu@physx@@UEAAPEAXI@Z 000000018011bb00 f i GuTetrahedronMesh.obj
 0001:0011ab00       ??_GSoftBodyAuxData@Gu@physx@@UEAAPEAXI@Z 000000018011bb00 f i GuTetrahedronMesh.obj
 0001:0011ab70       ??_ESoftBodyMesh@Gu@physx@@UEAAPEAXI@Z 000000018011bb70 f i GuTetrahedronMesh.obj
 0001:0011ab70       ??_GSoftBodyMesh@Gu@physx@@UEAAPEAXI@Z 000000018011bb70 f i GuTetrahedronMesh.obj
 0001:0011ac40       ??_ETetrahedronMesh@Gu@physx@@UEAAPEAXI@Z 000000018011bc40 f i GuTetrahedronMesh.obj
 0001:0011ac40       ??_GTetrahedronMesh@Gu@physx@@UEAAPEAXI@Z 000000018011bc40 f i GuTetrahedronMesh.obj
 0001:0011acb0       ?exportExtraData@SoftBodyMesh@Gu@physx@@UEAAXAEAVPxSerializationContext@3@@Z 000000018011bcb0 f   GuTetrahedronMesh.obj
 0001:0011ada0       ?getConcreteTypeName@SoftBodyAuxData@Gu@physx@@UEBAPEBDXZ 000000018011bda0 f i GuTetrahedronMesh.obj
 0001:0011adb0       ?getConcreteTypeName@SoftBodyMesh@Gu@physx@@UEBAPEBDXZ 000000018011bdb0 f i GuTetrahedronMesh.obj
 0001:0011adc0       ?getConcreteTypeName@TetrahedronMesh@Gu@physx@@UEBAPEBDXZ 000000018011bdc0 f i GuTetrahedronMesh.obj
 0001:0011add0       ?getLocalBounds@TetrahedronMesh@Gu@physx@@UEBA?AVPxBounds3@3@XZ 000000018011bdd0 f i GuTetrahedronMesh.obj
 0001:0011ae60       ?getNbTetrahedrons@TetrahedronMesh@Gu@physx@@UEBAIXZ 000000018011be60 f i GuTetrahedronMesh.obj
 0001:0011ae70       ?getBounds@BVH@Gu@physx@@UEBAPEBVPxBounds3@3@XZ 000000018011be70 f i GuBVH.obj
 0001:0011ae70       ?getTetrahedraRemap@BVTetrahedronMesh@Gu@physx@@UEBAPEBIXZ 000000018011be70 f i GuTetrahedronMesh.obj
 0001:0011ae80       ?getTetrahedronMeshFlags@TetrahedronMesh@Gu@physx@@UEBA?AV?$PxFlags@W4Enum@PxTetrahedronMeshFlag@physx@@E@3@XZ 000000018011be80 f i GuTetrahedronMesh.obj
 0001:0011ae90       ?getTetrahedrons@TetrahedronMesh@Gu@physx@@UEBAPEBXXZ 000000018011be90 f i GuTetrahedronMesh.obj
 0001:0011aea0       ?isKindOf@PxSoftBodyAuxData@physx@@MEBA_NPEBD@Z 000000018011bea0 f i GuTetrahedronMesh.obj
 0001:0011af10       ?isKindOf@PxSoftBodyMesh@physx@@MEBA_NPEBD@Z 000000018011bf10 f i GuTetrahedronMesh.obj
 0001:0011af80       ?isKindOf@PxTetrahedronMesh@physx@@MEBA_NPEBD@Z 000000018011bf80 f i GuTetrahedronMesh.obj
 0001:0011aff0       ?onRefCountZero@SoftBodyAuxData@Gu@physx@@UEAAXXZ 000000018011bff0 f i GuTetrahedronMesh.obj
 0001:0011aff0       ?release@SimulationTetrahedronMeshData@Gu@physx@@UEAAXXZ 000000018011bff0 f i GuCookingTetrahedronMesh.obj
 0001:0011b010       ?onRefCountZero@SoftBodyMesh@Gu@physx@@UEAAXXZ 000000018011c010 f   GuTetrahedronMesh.obj
 0001:0011b0b0       ?onRefCountZero@TetrahedronMesh@Gu@physx@@UEAAXXZ 000000018011c0b0 f   GuTetrahedronMesh.obj
 0001:0011b150       ?closestPtPointTetrahedron@Gu@physx@@YA?AV?$PxVec3T@M@2@AEBV32@0000@Z 000000018011c150 f i GuTetrahedronMeshUtils.obj
 0001:0011c290       ?computeBarycentric@physx@@YAXAEBV?$PxVec3T@M@1@0000AEAV?$PxVec4T@M@1@@Z 000000018011d290 f i GuTetrahedronMeshUtils.obj
 0001:0011c540       ?convertSoftbodyCollisionToSimMeshTets@Gu@physx@@YAXAEBVPxTetrahedronMesh@2@AEBVSoftBodyAuxData@12@AEBVBVTetrahedronMesh@12@IAEBV?$PxVec4T@M@2@AEAIAEAV62@@Z 000000018011d540 f   GuTetrahedronMeshUtils.obj
 0001:0011f120       ?pcmContactBoxBox@Gu@physx@@YA_NAEBVPxGeometry@2@0AEBUPxTransformPadded@2@1AEBUNarrowPhaseParams@12@AEAUCache@12@AEAVPxContactBuffer@2@PEAVPxRenderOutput@2@@Z 0000000180120120 f   GuPCMContactBoxBox.obj
 0001:0011ffc0       ??$gjkPenetration@U?$RelativeConvex@VBoxV@Gu@physx@@@Gu@physx@@U?$LocalConvex@VConvexHullNoScaleV@Gu@physx@@@23@@Gu@physx@@YA?AW4GjkStatus@01@AEBU?$RelativeConvex@VBoxV@Gu@physx@@@01@AEBU?$LocalConvex@VConvexHullNoScaleV@Gu@physx@@@01@AEBT__m128@@2_NPEIAE4AEAEAEAUGjkOutput@01@@Z 0000000180120fc0 f i GuPCMContactBoxConvex.obj
 0001:00120030       ??$gjkPenetration@U?$RelativeConvex@VBoxV@Gu@physx@@@Gu@physx@@U?$LocalConvex@VConvexHullNoScaleV@Gu@physx@@@23@@Gu@physx@@YA?AW4GjkStatus@01@AEBU?$RelativeConvex@VBoxV@Gu@physx@@@01@AEBU?$LocalConvex@VConvexHullNoScaleV@Gu@physx@@@01@AEBT__m128@@2_NPEIAE4PEIAT5@5AEAEAEAUGjkOutput@01@@Z 0000000180121030 f i GuPCMContactBoxConvex.obj
 0001:00121c10       ?pcmContactBoxConvex@Gu@physx@@YA_NAEBVPxGeometry@2@0AEBUPxTransformPadded@2@1AEBUNarrowPhaseParams@12@AEAUCache@12@AEAVPxContactBuffer@2@PEAVPxRenderOutput@2@@Z 0000000180122c10 f   GuPCMContactBoxConvex.obj
 0001:00122a10       ?support@?$LocalConvex@VConvexHullNoScaleV@Gu@physx@@@Gu@physx@@UEBA?AT__m128@@AEBT4@@Z 0000000180123a10 f i GuPCMContactBoxConvex.obj
 0001:00122a60       ?support@?$LocalConvex@VConvexHullNoScaleV@Gu@physx@@@Gu@physx@@UEBA?AT__m128@@AEBT4@AEAH@Z 0000000180123a60 f i GuPCMContactBoxConvex.obj
 0001:00122ac0       ?supportPoint@?$LocalConvex@VConvexHullNoScaleV@Gu@physx@@@Gu@physx@@UEBA?AT__m128@@H@Z 0000000180123ac0 f i GuPCMContactBoxConvex.obj
 0001:00122af0       ?pcmContactCapsuleBox@Gu@physx@@YA_NAEBVPxGeometry@2@0AEBUPxTransformPadded@2@1AEBUNarrowPhaseParams@12@AEAUCache@12@AEAVPxContactBuffer@2@PEAVPxRenderOutput@2@@Z 0000000180123af0 f   GuPCMContactCapsuleBox.obj
 0001:00123a80       ?pcmContactCapsuleCapsule@Gu@physx@@YA_NAEBVPxGeometry@2@0AEBUPxTransformPadded@2@1AEBUNarrowPhaseParams@12@AEAUCache@12@AEAVPxContactBuffer@2@PEAVPxRenderOutput@2@@Z 0000000180124a80 f   GuPCMContactCapsuleCapsule.obj
 0001:00124310       ??$gjkPenetration@U?$LocalConvex@VCapsuleV@Gu@physx@@@Gu@physx@@U?$LocalConvex@VConvexHullNoScaleV@Gu@physx@@@23@@Gu@physx@@YA?AW4GjkStatus@01@AEBU?$LocalConvex@VCapsuleV@Gu@physx@@@01@AEBU?$LocalConvex@VConvexHullNoScaleV@Gu@physx@@@01@AEBT__m128@@2_NPEIAE4AEAEAEAUGjkOutput@01@@Z 0000000180125310 f i GuPCMContactCapsuleConvex.obj
 0001:00124380       ??$gjkPenetration@U?$LocalConvex@VCapsuleV@Gu@physx@@@Gu@physx@@U?$LocalConvex@VConvexHullNoScaleV@Gu@physx@@@23@@Gu@physx@@YA?AW4GjkStatus@01@AEBU?$LocalConvex@VCapsuleV@Gu@physx@@@01@AEBU?$LocalConvex@VConvexHullNoScaleV@Gu@physx@@@01@AEBT__m128@@2_NPEIAE4PEIAT5@5AEAEAEAUGjkOutput@01@@Z 0000000180125380 f i GuPCMContactCapsuleConvex.obj
 0001:00125a40       ?pcmContactCapsuleConvex@Gu@physx@@YA_NAEBVPxGeometry@2@0AEBUPxTransformPadded@2@1AEBUNarrowPhaseParams@12@AEAUCache@12@AEAVPxContactBuffer@2@PEAVPxRenderOutput@2@@Z 0000000180126a40 f   GuPCMContactCapsuleConvex.obj
 0001:00126c30       ??_EPCMCapsuleVsHeightfieldContactGenerationCallback@@UEAAPEAXI@Z 0000000180127c30 f i GuPCMContactCapsuleHeightField.obj
 0001:00126c30       ??_EPCMConvexVsHeightfieldContactGenerationCallback@physx@@UEAAPEAXI@Z 0000000180127c30 f i GuPCMContactConvexHeightField.obj
 0001:00126c30       ??_GPCMCapsuleVsHeightfieldContactGenerationCallback@@UEAAPEAXI@Z 0000000180127c30 f i GuPCMContactCapsuleHeightField.obj
 0001:00126c30       ??_GPCMConvexVsHeightfieldContactGenerationCallback@physx@@UEAAPEAXI@Z 0000000180127c30 f i GuPCMContactConvexHeightField.obj
 0001:00126c60       ?pcmContactCapsuleHeightField@Gu@physx@@YA_NAEBVPxGeometry@2@0AEBUPxTransformPadded@2@1AEBUNarrowPhaseParams@12@AEAUCache@12@AEAVPxContactBuffer@2@PEAVPxRenderOutput@2@@Z 0000000180127c60 f   GuPCMContactCapsuleHeightField.obj
 0001:00127b70       ?reportTouchedTris@?$PCMHeightfieldContactGenerationCallback@UPCMCapsuleVsHeightfieldContactGenerationCallback@@@Gu@physx@@UEAA_NIPEBI@Z 0000000180128b70 f i GuPCMContactCapsuleHeightField.obj
 0001:001281e0       ?generateContacts@PCMCapsuleVsMeshContactGeneration@Gu@physx@@SAXAEBT__m128@@0000I000PEAVMeshPersistentContact@23@AEAI@Z 00000001801291e0 f   GuPCMContactCapsuleMesh.obj
 0001:00128600       ?generateEE@PCMCapsuleVsMeshContactGeneration@Gu@physx@@QEAAXAEBT__m128@@000I00PEAVMeshPersistentContact@23@AEAI@Z 0000000180129600 f   GuPCMContactCapsuleMesh.obj
 0001:00128870       ?generateEEMTD@PCMCapsuleVsMeshContactGeneration@Gu@physx@@SAXAEBT__m128@@000I00PEAVMeshPersistentContact@23@AEAI@Z 0000000180129870 f   GuPCMContactCapsuleMesh.obj
 0001:00128aa0       ?pcmContactCapsuleMesh@Gu@physx@@YA_NAEBVPxGeometry@2@0AEBUPxTransformPadded@2@1AEBUNarrowPhaseParams@12@AEAUCache@12@AEAVPxContactBuffer@2@PEAVPxRenderOutput@2@@Z 0000000180129aa0 f   GuPCMContactCapsuleMesh.obj
 0001:0012a310       ?pcmDistanceSegmentTriangleSquaredExported@@YA?AT__m128@@AEBT1@0000AEAT1@11@Z 000000018012b310 f   GuPCMContactCapsuleMesh.obj
 0001:0012a770       ?processTriangle@PCMCapsuleVsMeshContactGeneration@Gu@physx@@QEAA_NPEBV?$PxVec3T@M@3@IEPEBI@Z 000000018012b770 f   GuPCMContactCapsuleMesh.obj
 0001:0012b370       ?processTriangle@PCMCapsuleVsMeshContactGeneration@Gu@physx@@SA_NAEBVTriangleV@23@IAEBVCapsuleV@23@AEBT__m128@@EPEAVMeshPersistentContact@23@AEAI@Z 000000018012c370 f   GuPCMContactCapsuleMesh.obj
 0001:0012b6a0       ?addContactsToPatch@PCMConvexVsMeshContactGeneration@Gu@physx@@QEAAXAEBT__m128@@I@Z 000000018012c6a0 f   GuPCMContactConvexCommon.obj
 0001:0012bfe0       ?doSupport@?$SupportLocalImpl@VTriangleV@Gu@physx@@@Gu@physx@@UEBA?AT__m128@@AEBT4@@Z 000000018012cfe0 f i GuPCMContactConvexCommon.obj
 0001:0012c070       ?doSupport@?$SupportLocalImpl@VTriangleV@Gu@physx@@@Gu@physx@@UEBAXAEBT__m128@@AEAT4@1@Z 000000018012d070 f i GuPCMContactConvexCommon.obj
 0001:0012c0e0       ?generateLastContacts@PCMConvexVsMeshContactGeneration@Gu@physx@@QEAAXXZ 000000018012d0e0 f   GuPCMContactConvexCommon.obj
 0001:0012c640       ?populateVerts@?$SupportLocalImpl@VTriangleV@Gu@physx@@@Gu@physx@@UEBAXPEBEIPEBV?$PxVec3T@M@3@PEAT__m128@@@Z 000000018012d640 f i GuPCMContactConvexCommon.obj
 0001:0012c780       ?processTriangle@PCMConvexVsMeshContactGeneration@Gu@physx@@QEAA_NPEBV?$PxVec3T@M@3@IEPEBI@Z 000000018012d780 f   GuPCMContactConvexCommon.obj
 0001:0012ccd0       ?processTriangle@PCMConvexVsMeshContactGeneration@Gu@physx@@SA_NAEBUPolygonalData@23@PEBVSupportLocal@23@PEBV?$PxVec3T@M@3@IEAEBT__m128@@_NAEBVPxTransformV@aos@3@AEBVPxMatTransformV@93@PEAVMeshPersistentContact@23@AEAI@Z 000000018012dcd0 f   GuPCMContactConvexCommon.obj
 0001:0012cf50       ??$gjkPenetration@U?$RelativeConvex@VConvexHullNoScaleV@Gu@physx@@@Gu@physx@@U?$LocalConvex@VConvexHullNoScaleV@Gu@physx@@@23@@Gu@physx@@YA?AW4GjkStatus@01@AEBU?$RelativeConvex@VConvexHullNoScaleV@Gu@physx@@@01@AEBU?$LocalConvex@VConvexHullNoScaleV@Gu@physx@@@01@AEBT__m128@@2_NPEIAE4AEAEAEAUGjkOutput@01@@Z 000000018012df50 f i GuPCMContactConvexConvex.obj
 0001:0012cfc0       ??$gjkPenetration@U?$RelativeConvex@VConvexHullNoScaleV@Gu@physx@@@Gu@physx@@U?$LocalConvex@VConvexHullNoScaleV@Gu@physx@@@23@@Gu@physx@@YA?AW4GjkStatus@01@AEBU?$RelativeConvex@VConvexHullNoScaleV@Gu@physx@@@01@AEBU?$LocalConvex@VConvexHullNoScaleV@Gu@physx@@@01@AEBT__m128@@2_NPEIAE4PEIAT5@5AEAEAEAUGjkOutput@01@@Z 000000018012dfc0 f i GuPCMContactConvexConvex.obj
 0001:0012e4d0       ??$gjkPenetration@U?$RelativeConvex@VConvexHullNoScaleV@Gu@physx@@@Gu@physx@@U?$LocalConvex@VConvexHullV@Gu@physx@@@23@@Gu@physx@@YA?AW4GjkStatus@01@AEBU?$RelativeConvex@VConvexHullNoScaleV@Gu@physx@@@01@AEBU?$LocalConvex@VConvexHullV@Gu@physx@@@01@AEBT__m128@@2_NPEIAE4AEAEAEAUGjkOutput@01@@Z 000000018012f4d0 f i GuPCMContactConvexConvex.obj
 0001:0012e540       ??$gjkPenetration@U?$RelativeConvex@VConvexHullNoScaleV@Gu@physx@@@Gu@physx@@U?$LocalConvex@VConvexHullV@Gu@physx@@@23@@Gu@physx@@YA?AW4GjkStatus@01@AEBU?$RelativeConvex@VConvexHullNoScaleV@Gu@physx@@@01@AEBU?$LocalConvex@VConvexHullV@Gu@physx@@@01@AEBT__m128@@2_NPEIAE4PEIAT5@5AEAEAEAUGjkOutput@01@@Z 000000018012f540 f i GuPCMContactConvexConvex.obj
 0001:0012fae0       ??$gjkPenetration@U?$RelativeConvex@VConvexHullV@Gu@physx@@@Gu@physx@@U?$LocalConvex@VConvexHullNoScaleV@Gu@physx@@@23@@Gu@physx@@YA?AW4GjkStatus@01@AEBU?$RelativeConvex@VConvexHullV@Gu@physx@@@01@AEBU?$LocalConvex@VConvexHullNoScaleV@Gu@physx@@@01@AEBT__m128@@2_NPEIAE4AEAEAEAUGjkOutput@01@@Z 0000000180130ae0 f i GuPCMContactConvexConvex.obj
 0001:0012fb50       ??$gjkPenetration@U?$RelativeConvex@VConvexHullV@Gu@physx@@@Gu@physx@@U?$LocalConvex@VConvexHullNoScaleV@Gu@physx@@@23@@Gu@physx@@YA?AW4GjkStatus@01@AEBU?$RelativeConvex@VConvexHullV@Gu@physx@@@01@AEBU?$LocalConvex@VConvexHullNoScaleV@Gu@physx@@@01@AEBT__m128@@2_NPEIAE4PEIAT5@5AEAEAEAUGjkOutput@01@@Z 0000000180130b50 f i GuPCMContactConvexConvex.obj
 0001:00131b40       ?pcmContactConvexConvex@Gu@physx@@YA_NAEBVPxGeometry@2@0AEBUPxTransformPadded@2@1AEBUNarrowPhaseParams@12@AEAUCache@12@AEAVPxContactBuffer@2@PEAVPxRenderOutput@2@@Z 0000000180132b40 f   GuPCMContactConvexConvex.obj
 0001:00132c70       ?support@?$RelativeConvex@VConvexHullNoScaleV@Gu@physx@@@Gu@physx@@UEBA?AT__m128@@AEBT4@@Z 0000000180133c70 f i GuPCMContactConvexConvex.obj
 0001:00132d20       ?support@?$RelativeConvex@VConvexHullNoScaleV@Gu@physx@@@Gu@physx@@UEBA?AT__m128@@AEBT4@AEAH@Z 0000000180133d20 f i GuPCMContactConvexConvex.obj
 0001:00132de0       ?supportPoint@?$RelativeConvex@VConvexHullNoScaleV@Gu@physx@@@Gu@physx@@UEBA?AT__m128@@H@Z 0000000180133de0 f i GuPCMContactConvexConvex.obj
 0001:00132e40       ?PCMContactConvexHeightfield@Gu@physx@@YA_NAEBUPolygonalData@12@PEAVSupportLocal@12@AEBT__m128@@AEBVPxBounds3@2@AEBVPxHeightFieldGeometry@2@AEBV?$PxTransformT@M@2@5MAEAVPxContactBuffer@2@AEBVFastVertex2ShapeScaling@Cm@2@_NAEAVMultiplePersistentContactManifold@12@PEAVPxRenderOutput@2@@Z 0000000180133e40 f   GuPCMContactConvexHeightField.obj
 0001:00133cc0       ?pcmContactBoxHeightField@Gu@physx@@YA_NAEBVPxGeometry@2@0AEBUPxTransformPadded@2@1AEBUNarrowPhaseParams@12@AEAUCache@12@AEAVPxContactBuffer@2@PEAVPxRenderOutput@2@@Z 0000000180134cc0 f   GuPCMContactConvexHeightField.obj
 0001:00133f60       ?pcmContactConvexHeightField@Gu@physx@@YA_NAEBVPxGeometry@2@0AEBUPxTransformPadded@2@1AEBUNarrowPhaseParams@12@AEAUCache@12@AEAVPxContactBuffer@2@PEAVPxRenderOutput@2@@Z 0000000180134f60 f   GuPCMContactConvexHeightField.obj
 0001:00134640       ?reportTouchedTris@?$PCMHeightfieldContactGenerationCallback@UPCMConvexVsHeightfieldContactGenerationCallback@physx@@@Gu@physx@@UEAA_NIPEBI@Z 0000000180135640 f i GuPCMContactConvexHeightField.obj
 0001:00134bf0       ??$processTriangleCache@$0BA@@PCMConvexVsMeshContactGenerationCallback@physx@@QEAAXAEAU?$TriangleCache@$0BA@@Gu@1@@Z 0000000180135bf0 f i GuPCMContactConvexMesh.obj
 0001:00134c80       ??_EPCMConvexVsMeshContactGenerationCallback@physx@@UEAAPEAXI@Z 0000000180135c80 f i GuPCMContactConvexMesh.obj
 0001:00134c80       ??_GPCMConvexVsMeshContactGenerationCallback@physx@@UEAAPEAXI@Z 0000000180135c80 f i GuPCMContactConvexMesh.obj
 0001:00134cb0       ?PCMContactConvexMesh@Gu@physx@@YA_NAEBUPolygonalData@12@PEAVSupportLocal@12@AEBT__m128@@AEBVPxBounds3@2@AEBVPxTriangleMeshGeometry@2@AEBV?$PxTransformT@M@2@5MAEAVPxContactBuffer@2@AEBVFastVertex2ShapeScaling@Cm@2@7_N8AEAVMultiplePersistentContactManifold@12@PEAVPxRenderOutput@2@@Z 0000000180135cb0 f   GuPCMContactConvexMesh.obj
 0001:001357b0       ?pcmContactBoxMesh@Gu@physx@@YA_NAEBVPxGeometry@2@0AEBUPxTransformPadded@2@1AEBUNarrowPhaseParams@12@AEAUCache@12@AEAVPxContactBuffer@2@PEAVPxRenderOutput@2@@Z 00000001801367b0 f   GuPCMContactConvexMesh.obj
 0001:00135af0       ?pcmContactConvexMesh@Gu@physx@@YA_NAEBVPxGeometry@2@0AEBUPxTransformPadded@2@1AEBUNarrowPhaseParams@12@AEAUCache@12@AEAVPxContactBuffer@2@PEAVPxRenderOutput@2@@Z 0000000180136af0 f   GuPCMContactConvexMesh.obj
 0001:00136240       ?processHit@?$PCMMeshContactGenerationCallback@UPCMConvexVsMeshContactGenerationCallback@physx@@@Gu@physx@@UEAA_NAEBUPxGeomRaycastHit@3@AEBV?$PxVec3T@M@3@11AEAMPEBI@Z 0000000180137240 f i GuPCMContactConvexMesh.obj
 0001:00136700       ?addGJKEPAContacts@Gu@physx@@YA_NPEBUGjkConvex@12@0AEBVPxMatTransformV@aos@2@W4GjkStatus@12@PEAVPersistentContact@12@T__m128@@4AEAUGjkOutput@12@AEAVPersistentContactManifold@12@@Z 0000000180137700 f   GuPCMContactGenBoxConvex.obj
 0001:00136900       ?buildPartialHull@Gu@physx@@YAXAEBUPolygonalData@12@PEBVSupportLocal@12@AEAVSeparatingAxes@12@AEBT__m128@@3@Z 0000000180137900 f   GuPCMContactGenBoxConvex.obj
 0001:00136bb0       ?computeMTD@Gu@physx@@YA_NAEBUPolygonalData@12@0PEBVSupportLocal@12@1AEAT__m128@@2@Z 0000000180137bb0 f   GuPCMContactGenBoxConvex.obj
 0001:001371e0       ?generateFullContactManifold@Gu@physx@@YA_NAEBUPolygonalData@12@0PEBVSupportLocal@12@1PEAVPersistentContact@12@AEAIAEBT__m128@@444MM_NPEAVPxRenderOutput@2@M@Z 00000001801381e0 f   GuPCMContactGenBoxConvex.obj
 0001:00137cf0       ?generatedContacts@Gu@physx@@YAXAEBUPolygonalData@12@0AEBUHullPolygonData@12@1PEBVSupportLocal@12@2AEBVPxMatTransformV@aos@2@PEAVPersistentContact@12@AEAIAEBT__m128@@PEAVPxRenderOutput@2@@Z 0000000180138cf0 f   GuPCMContactGenBoxConvex.obj
 0001:00139150       ?computeMTD@Gu@physx@@YA_NAEBVCapsuleV@12@AEBUPolygonalData@12@PEBVSupportLocal@12@AEAT__m128@@3@Z 000000018013a150 f   GuPCMContactGenSphereCapsule.obj
 0001:00139240       ?generateCapsuleBoxFullContactManifold@Gu@physx@@YA_NAEBVCapsuleV@12@AEBUPolygonalData@12@PEBVSupportLocal@12@AEBVPxMatTransformV@aos@2@PEAVPersistentContact@12@AEAIAEBT__m128@@AEAT9@6M_NMPEAVPxRenderOutput@2@@Z 000000018013a240 f   GuPCMContactGenSphereCapsule.obj
 0001:001393e0       ?generateFullContactManifold@Gu@physx@@YA_NAEBVCapsuleV@12@AEBUPolygonalData@12@PEBVSupportLocal@12@AEBVPxMatTransformV@aos@2@PEAVPersistentContact@12@AEAIAEBT__m128@@AEAT9@6M_NM@Z 000000018013a3e0 f   GuPCMContactGenSphereCapsule.obj
 0001:001395d0       ?generateSphereFullContactManifold@Gu@physx@@YA_NAEBVCapsuleV@12@AEBUPolygonalData@12@PEBVSupportLocal@12@PEAVPersistentContact@12@AEAIAEBT__m128@@AEAT7@_N@Z 000000018013a5d0 f   GuPCMContactGenSphereCapsule.obj
 0001:0013aad0       ?pcmContactPlaneBox@Gu@physx@@YA_NAEBVPxGeometry@2@0AEBUPxTransformPadded@2@1AEBUNarrowPhaseParams@12@AEAUCache@12@AEAVPxContactBuffer@2@PEAVPxRenderOutput@2@@Z 000000018013bad0 f   GuPCMContactPlaneBox.obj
 0001:0013b690       ?pcmContactPlaneCapsule@Gu@physx@@YA_NAEBVPxGeometry@2@0AEBUPxTransformPadded@2@1AEBUNarrowPhaseParams@12@AEAUCache@12@AEAVPxContactBuffer@2@PEAVPxRenderOutput@2@@Z 000000018013c690 f   GuPCMContactPlaneCapsule.obj
 0001:0013be10       ?pcmContactPlaneConvex@Gu@physx@@YA_NAEBVPxGeometry@2@0AEBUPxTransformPadded@2@1AEBUNarrowPhaseParams@12@AEAUCache@12@AEAVPxContactBuffer@2@PEAVPxRenderOutput@2@@Z 000000018013ce10 f   GuPCMContactPlaneConvex.obj
 0001:0013ca90       ?pcmContactSphereBox@Gu@physx@@YA_NAEBVPxGeometry@2@0AEBUPxTransformPadded@2@1AEBUNarrowPhaseParams@12@AEAUCache@12@AEAVPxContactBuffer@2@PEAVPxRenderOutput@2@@Z 000000018013da90 f   GuPCMContactSphereBox.obj
 0001:0013cef0       ?pcmContactSphereCapsule@Gu@physx@@YA_NAEBVPxGeometry@2@0AEBUPxTransformPadded@2@1AEBUNarrowPhaseParams@12@AEAUCache@12@AEAVPxContactBuffer@2@PEAVPxRenderOutput@2@@Z 000000018013def0 f   GuPCMContactSphereCapsule.obj
 0001:0013d360       ?pcmContactSphereConvex@Gu@physx@@YA_NAEBVPxGeometry@2@0AEBUPxTransformPadded@2@1AEBUNarrowPhaseParams@12@AEAUCache@12@AEAVPxContactBuffer@2@PEAVPxRenderOutput@2@@Z 000000018013e360 f   GuPCMContactSphereConvex.obj
 0001:0013e030       ??1?$PxArray@USortedTriangle@Gu@physx@@V?$PxInlineAllocator@$0IAA@V?$PxReflectionAllocator@USortedTriangle@Gu@physx@@@physx@@@3@@physx@@QEAA@XZ 000000018013f030 f i GuPCMContactSphereHeightField.obj
 0001:0013e0a0       ??_EPCMSphereVsHeightfieldContactGenerationCallback@physx@@UEAAPEAXI@Z 000000018013f0a0 f i GuPCMContactSphereHeightField.obj
 0001:0013e0a0       ??_GPCMSphereVsHeightfieldContactGenerationCallback@physx@@UEAAPEAXI@Z 000000018013f0a0 f i GuPCMContactSphereHeightField.obj
 0001:0013e0f0       ?pcmContactSphereHeightField@Gu@physx@@YA_NAEBVPxGeometry@2@0AEBUPxTransformPadded@2@1AEBUNarrowPhaseParams@12@AEAUCache@12@AEAVPxContactBuffer@2@PEAVPxRenderOutput@2@@Z 000000018013f0f0 f   GuPCMContactSphereHeightField.obj
 0001:0013ebb0       ?reportTouchedTris@?$PCMHeightfieldContactGenerationCallback@UPCMSphereVsHeightfieldContactGenerationCallback@physx@@@Gu@physx@@UEAA_NIPEBI@Z 000000018013fbb0 f i GuPCMContactSphereHeightField.obj
 0001:0013f160       ??$PxSort@USortedTriangle@Gu@physx@@U?$PxLess@USortedTriangle@Gu@physx@@@3@V?$PxReflectionAllocator@USortedTriangle@Gu@physx@@@3@@physx@@YAXPEAUSortedTriangle@Gu@0@IAEBU?$PxLess@USortedTriangle@Gu@physx@@@0@AEBV?$PxReflectionAllocator@USortedTriangle@Gu@physx@@@0@I@Z 0000000180140160 f i GuPCMContactSphereMesh.obj
 0001:0013f680       ??$processTriangleCache@$0BA@VPCMSphereVsMeshContactGeneration@Gu@physx@@@PCMMeshContactGeneration@Gu@physx@@QEAA_NAEAU?$TriangleCache@$0BA@@12@@Z 0000000180140680 f i GuPCMContactSphereMesh.obj
 0001:0013fb50       ?addToPatch@PCMSphereVsMeshContactGeneration@Gu@physx@@QEAAXAEBT__m128@@0T4@I@Z 0000000180140b50 f   GuPCMContactSphereMesh.obj
 0001:00140210       ?allocate@?$PxArray@IV?$PxInlineAllocator@$0PAA@V?$PxReflectionAllocator@I@physx@@@physx@@@physx@@IEAAPEAII@Z 0000000180141210 f i GuPCMContactSphereMesh.obj
 0001:001402d0       ?allocate@?$PxArray@USortedTriangle@Gu@physx@@V?$PxInlineAllocator@$0IAA@V?$PxReflectionAllocator@USortedTriangle@Gu@physx@@@physx@@@3@@physx@@IEAAPEAUSortedTriangle@Gu@2@I@Z 00000001801412d0 f i GuPCMContactSphereMesh.obj
 0001:00140390       ?generateLastContacts@PCMSphereVsMeshContactGeneration@Gu@physx@@QEAAXXZ 0000000180141390 f   GuPCMContactSphereMesh.obj
 0001:001409c0       ?growAndPushBack@?$PxArray@USortedTriangle@Gu@physx@@V?$PxInlineAllocator@$0IAA@V?$PxReflectionAllocator@USortedTriangle@Gu@physx@@@physx@@@3@@physx@@IEAAAEAUSortedTriangle@Gu@2@AEBU342@@Z 00000001801419c0 f i GuPCMContactSphereMesh.obj
 0001:00140ad0       ?pcmContactSphereMesh@Gu@physx@@YA_NAEBVPxGeometry@2@0AEBUPxTransformPadded@2@1AEBUNarrowPhaseParams@12@AEAUCache@12@AEAVPxContactBuffer@2@PEAVPxRenderOutput@2@@Z 0000000180141ad0 f   GuPCMContactSphereMesh.obj
 0001:00142040       ?processTriangle@PCMSphereVsMeshContactGeneration@Gu@physx@@QEAA_NPEBV?$PxVec3T@M@3@IEPEBI@Z 0000000180143040 f   GuPCMContactSphereMesh.obj
 0001:00142430       ?recreate@?$PxArray@IV?$PxInlineAllocator@$0PAA@V?$PxReflectionAllocator@I@physx@@@physx@@@physx@@IEAAXI@Z 0000000180143430 f i GuPCMContactSphereMesh.obj
 0001:001424f0       ?pcmContactSpherePlane@Gu@physx@@YA_NAEBVPxGeometry@2@0AEBUPxTransformPadded@2@1AEBUNarrowPhaseParams@12@AEAUCache@12@AEAVPxContactBuffer@2@PEAVPxRenderOutput@2@@Z 00000001801434f0 f   GuPCMContactSpherePlane.obj
 0001:00142670       ?pcmContactSphereSphere@Gu@physx@@YA_NAEBVPxGeometry@2@0AEBUPxTransformPadded@2@1AEBUNarrowPhaseParams@12@AEAUCache@12@AEAVPxContactBuffer@2@PEAVPxRenderOutput@2@@Z 0000000180143670 f   GuPCMContactSphereSphere.obj
 0001:00142f40       ?pcmContactGeometryCustomGeometry@Gu@physx@@YA_NAEBVPxGeometry@2@0AEBUPxTransformPadded@2@1AEBUNarrowPhaseParams@12@AEAUCache@12@AEAVPxContactBuffer@2@PEAVPxRenderOutput@2@@Z 0000000180143f40 f   GuPCMContactCustomGeometry.obj
 0001:00142ff0       ?getPCMConvexData@Gu@physx@@YAXAEBVConvexHullV@12@_NAEAUPolygonalData@12@@Z 0000000180143ff0 f   GuPCMShapeConvex.obj
 0001:00143030       ?getPCMConvexData@Gu@physx@@YA_NAEBVPxConvexMeshGeometry@2@AEAVFastVertex2ShapeScaling@Cm@2@AEAVPxBounds3@2@AEAUPolygonalData@12@@Z 0000000180144030 f   GuPCMShapeConvex.obj
 0001:00143580       ?getPolygonalData@PCMPolygonalBox@Gu@physx@@QEBAXPEIAUPolygonalData@23@@Z 0000000180144580 f   GuPCMShapeConvex.obj
 0001:00143600       ?generatePolyDataContactManifold@PCMConvexVsMeshContactGeneration@Gu@physx@@QEAA_NAEBVTriangleV@23@IIEPEAVMeshPersistentContact@23@AEAIAEBT__m128@@AEAT6@@Z 0000000180144600 f   GuPCMTriangleContactGen.obj
 0001:00143720       ?generateTriangleFullContactManifold@PCMConvexVsMeshContactGeneration@Gu@physx@@QEAA_NAEBVTriangleV@23@IPEBIEAEBUPolygonalData@23@PEBV?$SupportLocalImpl@VTriangleV@Gu@physx@@@23@PEBVSupportLocal@23@PEAVMeshPersistentContact@23@AEAIAEBT__m128@@AEAT9@@Z 0000000180144720 f   GuPCMTriangleContactGen.obj
 0001:00143c50       ?generateTriangleFullContactManifold@PCMConvexVsMeshContactGeneration@Gu@physx@@SA_NAEBVTriangleV@23@IEAEBUPolygonalData@23@PEBV?$SupportLocalImpl@VTriangleV@Gu@physx@@@23@PEBVSupportLocal@23@PEAVMeshPersistentContact@23@AEAIAEBT__m128@@AEAT9@PEAVPxRenderOutput@3@@Z 0000000180144c50 f   GuPCMTriangleContactGen.obj
 0001:00145cd0       ?addBatchManifoldContacts2@PersistentContactManifold@Gu@physx@@QEAAXPEBVPersistentContact@23@I@Z 0000000180146cd0 f   GuPersistentContactManifold.obj
 0001:00145d40       ?addBatchManifoldContacts@PersistentContactManifold@Gu@physx@@QEAAXPEBVPersistentContact@23@IM@Z 0000000180146d40 f   GuPersistentContactManifold.obj
 0001:00145dc0       ?addBatchManifoldContactsCluster@PersistentContactManifold@Gu@physx@@QEAAXPEBVPersistentContact@23@I@Z 0000000180146dc0 f   GuPersistentContactManifold.obj
 0001:00146040       ?addManifoldContactPoints@MultiplePersistentContactManifold@Gu@physx@@QEAAXPEAVMeshPersistentContact@23@IPEAPEAUPCMContactPatch@23@IAEBT__m128@@2E@Z 0000000180147040 f   GuPersistentContactManifold.obj
 0001:00146430       ?addManifoldContactsToContactBuffer@MultiplePersistentContactManifold@Gu@physx@@QEAA_NAEAVPxContactBuffer@3@AEBVPxTransformV@aos@3@1AEBT__m128@@@Z 0000000180147430 f   GuPersistentContactManifold.obj
 0001:001466e0       ?addManifoldContactsToContactBuffer@MultiplePersistentContactManifold@Gu@physx@@QEAA_NAEAVPxContactBuffer@3@AEBVPxTransformV@aos@3@@Z 00000001801476e0 f   GuPersistentContactManifold.obj
 0001:00146970       ?addManifoldContactsToContactBuffer@PersistentContactManifold@Gu@physx@@QEAAXAEAVPxContactBuffer@3@AEBT__m128@@1AEBVPxTransformV@aos@3@11@Z 0000000180147970 f   GuPersistentContactManifold.obj
 0001:00146b00       ?addManifoldContactsToContactBuffer@PersistentContactManifold@Gu@physx@@QEAAXAEAVPxContactBuffer@3@AEBT__m128@@AEBVPxMatTransformV@aos@3@@Z 0000000180147b00 f   GuPersistentContactManifold.obj
 0001:00146bb0       ?addManifoldContactsToContactBuffer@PersistentContactManifold@Gu@physx@@QEAAXAEAVPxContactBuffer@3@AEBT__m128@@AEBVPxTransformV@aos@3@1@Z 0000000180147bb0 f   GuPersistentContactManifold.obj
 0001:00146d10       ?addManifoldPoint2@PersistentContactManifold@Gu@physx@@QEAAIAEBT__m128@@000@Z 0000000180147d10 f   GuPersistentContactManifold.obj
 0001:00146e40       ?addManifoldPoint@Gu@physx@@YAXPEAVPersistentContact@12@AEAVPersistentContactManifold@12@AEAUGjkOutput@12@AEBVPxMatTransformV@aos@2@T__m128@@@Z 0000000180147e40 f   GuPersistentContactManifold.obj
 0001:00146ff0       ?addManifoldPoint@PersistentContactManifold@Gu@physx@@QEAAIAEBT__m128@@000@Z 0000000180147ff0 f   GuPersistentContactManifold.obj
 0001:00147430       ?drawLine@MultiplePersistentContactManifold@Gu@physx@@SAXAEAVPxRenderOutput@3@AEBT__m128@@1I@Z 0000000180148430 f   GuPersistentContactManifold.obj
 0001:001474e0       ?drawLine@MultiplePersistentContactManifold@Gu@physx@@SAXAEAVPxRenderOutput@3@V?$PxVec3T@M@3@1I@Z 00000001801484e0 f   GuPersistentContactManifold.obj
 0001:00147550       ?drawManifold@MultiplePersistentContactManifold@Gu@physx@@QEAAXAEAVPxRenderOutput@3@AEBVPxTransformV@aos@3@1@Z 0000000180148550 f   GuPersistentContactManifold.obj
 0001:00147be0       ?drawPoint@MultiplePersistentContactManifold@Gu@physx@@SAXAEAVPxRenderOutput@3@AEBT__m128@@MI@Z 0000000180148be0 f   GuPersistentContactManifold.obj
 0001:00147df0       ?drawPolygon@MultiplePersistentContactManifold@Gu@physx@@SAXAEAVPxRenderOutput@3@AEBVPxTransformV@aos@3@PEAT__m128@@II@Z 0000000180148df0 f   GuPersistentContactManifold.obj
 0001:00148070       ?findRotationMatrixFromZAxis@Gu@physx@@YA?AUMat33V@aos@2@AEBT__m128@@@Z 0000000180149070 f   GuPersistentContactManifold.obj
 0001:001482f0       ?fromBuffer@MultiplePersistentContactManifold@Gu@physx@@QEAAXPEIAE@Z 00000001801492f0 f   GuPersistentContactManifold.obj
 0001:00148450       ?reduceBatchContacts2@PersistentContactManifold@Gu@physx@@QEAAXPEBVPersistentContact@23@I@Z 0000000180149450 f   GuPersistentContactManifold.obj
 0001:00148650       ?reduceBatchContacts@PersistentContactManifold@Gu@physx@@QEAAXPEBVPersistentContact@23@IM@Z 0000000180149650 f   GuPersistentContactManifold.obj
 0001:00148b10       ?reduceBatchContactsCapsule@SinglePersistentContactManifold@Gu@physx@@QEAA?AT__m128@@PEBVMeshPersistentContact@23@IAEAUPCMContactPatch@23@@Z 0000000180149b10 f   GuPersistentContactManifold.obj
 0001:00148da0       ?reduceBatchContactsCluster@PersistentContactManifold@Gu@physx@@QEAAXPEBVPersistentContact@23@I@Z 0000000180149da0 f   GuPersistentContactManifold.obj
 0001:00149230       ?reduceBatchContactsConvex@SinglePersistentContactManifold@Gu@physx@@QEAA?AT__m128@@PEBVMeshPersistentContact@23@IAEAUPCMContactPatch@23@@Z 000000018014a230 f   GuPersistentContactManifold.obj
 0001:00149820       ?reduceContacts@SinglePersistentContactManifold@Gu@physx@@SAIPEAVMeshPersistentContact@23@I@Z 000000018014a820 f   GuPersistentContactManifold.obj
 0001:00149da0       ?reduceContactsForPCM@PersistentContactManifold@Gu@physx@@QEAAIAEBT__m128@@00@Z 000000018014ada0 f   GuPersistentContactManifold.obj
 0001:0014a340       ?refreshContactPoints@SinglePersistentContactManifold@Gu@physx@@QEAA?AT__m128@@AEBVPxMatTransformV@aos@3@AEBT4@1@Z 000000018014b340 f   GuPersistentContactManifold.obj
 0001:0014a490       ?replaceManifoldPoint@PersistentContactManifold@Gu@physx@@QEAA_NAEBT__m128@@000@Z 000000018014b490 f   GuPersistentContactManifold.obj
 0001:0014a550       ?contains@Gu@physx@@YA_NPEAT__m128@@IAEBT3@11@Z 000000018014b550 f   GuPCMContactGenUtil.obj
 0001:0014a710       ?getPolygonIndex@Gu@physx@@YAHAEBUPolygonalData@12@PEBVSupportLocal@12@AEBT__m128@@AEAH@Z 000000018014b710 f   GuPCMContactGenUtil.obj
 0001:0014a9b0       ?getWitnessPolygonIndex@Gu@physx@@YAIAEBUPolygonalData@12@PEBVSupportLocal@12@AEBT__m128@@2M@Z 000000018014b9b0 f   GuPCMContactGenUtil.obj
 0001:0014af00       ?sweepBoxBox@Gu@physx@@YA_NAEBVBox@12@0AEBV?$PxVec3T@M@2@MV?$PxFlags@W4Enum@PxHitFlag@physx@@G@2@AEAUPxGeomSweepHit@2@@Z 000000018014bf00 f   GuSweepBoxBox.obj
 0001:0014c540       ?sweepBoxSphere@Gu@physx@@YA_NAEBVBox@12@MAEBV?$PxVec3T@M@2@1MAEAMAEAV42@V?$PxFlags@W4Enum@PxHitFlag@physx@@G@2@@Z 000000018014d540 f   GuSweepBoxSphere.obj
 0001:0014d1f0       ?sweepBoxTriangle@Gu@physx@@YA_NAEBVPxTriangle@2@AEBVPxBounds3@2@AEBV?$PxVec3T@M@2@2AEAV52@3AEAM_N@Z 000000018014e1f0 f   GuSweepBoxTriangle_FeatureBased.obj
 0001:0014e910       ?triBoxSweepTestBoxSpace@Gu@physx@@YAHAEBVPxTriangle@2@AEBV?$PxVec3T@M@2@11MAEAM_N@Z 000000018014f910 f   GuSweepBoxTriangle_SAT.obj
 0001:00150230       ?sweepCapsuleBox@Gu@physx@@YA_NAEBVCapsule@12@AEBV?$PxTransformT@M@2@AEBV?$PxVec3T@M@2@2MAEAV52@AEAM3V?$PxFlags@W4Enum@PxHitFlag@physx@@G@2@@Z 0000000180151230 f   GuSweepCapsuleBox.obj
 0001:00150580       ?distancePointSegmentSquared@Gu@physx@@YAMAEBVSegment@12@AEBV?$PxVec3T@M@2@PEAM@Z 0000000180151580 f i GuSweepCapsuleCapsule.obj
 0001:00150900       ?sweepCapsuleCapsule@Gu@physx@@YA_NAEBVCapsule@12@0AEBV?$PxVec3T@M@2@MAEAMAEAV42@3IAEAG@Z 0000000180151900 f   GuSweepCapsuleCapsule.obj
 0001:00151710       ?sweepCapsuleTriangles_Precise@Gu@physx@@YA_NIPEIBVPxTriangle@2@AEBVCapsule@12@AEBV?$PxVec3T@M@2@MPEIBIAEAUPxGeomSweepHit@2@AEAV52@V?$PxFlags@W4Enum@PxHitFlag@physx@@G@2@_NPEBVBoxPadded@12@@Z 0000000180152710 f   GuSweepCapsuleTriangle.obj
 0001:00153870       ?sweepSphereCapsule@Gu@physx@@YA_NAEBVSphere@12@AEBVCapsule@12@AEBV?$PxVec3T@M@2@MAEAMAEAV52@4V?$PxFlags@W4Enum@PxHitFlag@physx@@G@2@@Z 0000000180154870 f   GuSweepSphereCapsule.obj
 0001:00153f10       ?sweepSphereSphere@Gu@physx@@YA_NAEBV?$PxVec3T@M@2@M0M0AEAMAEAV32@@Z 0000000180154f10 f   GuSweepSphereSphere.obj
 0001:00154180       ?sweepSphereTriangles@Gu@physx@@YA_NIPEIBVPxTriangle@2@AEBV?$PxVec3T@M@2@M1MPEIBIAEAUPxGeomSweepHit@2@AEAV42@_N555@Z 0000000180155180 f   GuSweepSphereTriangle.obj
 0001:00154a50       ?sweepSphereVSQuad@Gu@physx@@YA_NPEIBV?$PxVec3T@M@2@AEBV32@1M1AEAM@Z 0000000180155a50 f   GuSweepSphereTriangle.obj
 0001:00155a30       ?sweepSphereVSTri@Gu@physx@@YA_NPEIBV?$PxVec3T@M@2@AEBV32@1M1AEAMAEA_N_N@Z 0000000180156a30 f   GuSweepSphereTriangle.obj
 0001:00156740       ??$gjk@U?$LocalConvex@VTriangleV@Gu@physx@@@Gu@physx@@U?$LocalConvex@VBoxV@Gu@physx@@@23@@Gu@physx@@YA?AW4GjkStatus@01@AEBU?$LocalConvex@VTriangleV@Gu@physx@@@01@AEBU?$LocalConvex@VBoxV@Gu@physx@@@01@AEBT__m128@@2AEAT5@333@Z 0000000180157740 f i GuSweepTriangleUtils.obj
 0001:00157420       ?computeBoxTriImpactData@Gu@physx@@YAXAEAV?$PxVec3T@M@2@0AEBV32@1AEBVPxTriangle@2@M@Z 0000000180158420 f   GuSweepTriangleUtils.obj
 0001:001576a0       ?computeEdgeEdgeNormal@Gu@physx@@YAXAEAV?$PxVec3T@M@2@AEBV32@1111M@Z 00000001801586a0 f   GuSweepTriangleUtils.obj
 0001:00157960       ?computeSphereTriImpactData@Gu@physx@@YAXAEAV?$PxVec3T@M@2@0AEBV32@1MAEBVPxTriangle@2@@Z 0000000180158960 f   GuSweepTriangleUtils.obj
 0001:00157e40       ??0ShapeData@Gu@physx@@QEAA@AEBVPxGeometry@2@AEBV?$PxTransformT@M@2@M@Z 0000000180158e40 f   GuBounds.obj
 0001:001583b0       ?computeBounds@Gu@physx@@YAXAEAVPxBounds3@2@AEBVPxGeometry@2@AEBV?$PxTransformT@M@2@MM@Z 00000001801593b0 f   GuBounds.obj
 0001:001590a0       ?computeBoundsAroundVertices@Gu@physx@@YAXAEAVPxBounds3@2@IPEIBV?$PxVec3T@M@2@@Z 000000018015a0a0 f   GuBounds.obj
 0001:00159130       ?computeGlobalBox@Gu@physx@@YAXAEAVPxBounds3@2@IPEIBV32@PEIBI@Z 000000018015a130 f   GuBounds.obj
 0001:001591a0       ?computeLocalBoundsAndGeomEpsilon@Gu@physx@@YAXPEBV?$PxVec3T@M@2@IAEAVPxBounds3@2@AEAM@Z 000000018015a1a0 f   GuBounds.obj
 0001:0015a570       ??0AABBTree@Gu@physx@@QEAA@XZ 000000018015b570 f   GuAABBTree.obj
 0001:0015a5a0       ??0BVHPartialRefitData@Gu@physx@@QEAA@XZ 000000018015b5a0 f   GuAABBTree.obj
 0001:0015a5d0       ??0NodeAllocator@Gu@physx@@QEAA@XZ 000000018015b5d0 f   GuAABBTree.obj
 0001:0015a5f0       ??1AABBTree@Gu@physx@@QEAA@XZ 000000018015b5f0 f   GuAABBTree.obj
 0001:0015a610       ??1BVHPartialRefitData@Gu@physx@@QEAA@XZ 000000018015b610 f   GuAABBTree.obj
 0001:0015a6b0       ??1NodeAllocator@Gu@physx@@QEAA@XZ 000000018015b6b0 f   GuAABBTree.obj
 0001:0015a700       ?_buildHierarchy@AABBTreeBuildNode@Gu@physx@@QEAAXAEBVAABBTreeBuildParams@23@AEAUBuildStats@23@AEAVNodeAllocator@23@QEAI@Z 000000018015b700 f   GuAABBTree.obj
 0001:0015a790       ?_buildHierarchySAH@AABBTreeBuildNode@Gu@physx@@QEAAXAEBVAABBTreeBuildParams@23@AEAUSAH_Buffers@23@AEAUBuildStats@23@AEAVNodeAllocator@23@QEAI@Z 000000018015b790 f   GuAABBTree.obj
 0001:0015a840       ?addRuntimeChilds@AABBTree@Gu@physx@@AEAAXAEAIAEBVAABBTreeMergeData@23@@Z 000000018015b840 f   GuAABBTree.obj
 0001:0015a940       ?build@AABBTree@Gu@physx@@QEAA_NAEBVAABBTreeBuildParams@23@AEAVNodeAllocator@23@@Z 000000018015b940 f   GuAABBTree.obj
 0001:0015ab60       ?buildAABBTree@Gu@physx@@YAPEAIAEBVAABBTreeBuildParams@12@AEAVNodeAllocator@12@AEAUBuildStats@12@@Z 000000018015bb60 f   GuAABBTree.obj
 0001:0015ac00       ?buildAABBTree@Gu@physx@@YAXIAEBVAABBTreeBounds@12@AEAV?$PxArray@UBVHNode@Gu@physx@@V?$PxReflectionAllocator@UBVHNode@Gu@physx@@@3@@2@@Z 000000018015bc00 f   GuAABBTree.obj
 0001:0015afd0       ?buildEnd@AABBTree@Gu@physx@@AEAAXAEBVAABBTreeBuildParams@23@AEAVNodeAllocator@23@AEBUBuildStats@23@@Z 000000018015bfd0 f   GuAABBTree.obj
 0001:0015b1f0       ?createUpdateMap@BVHPartialRefitData@Gu@physx@@QEAAXI@Z 000000018015c1f0 f   GuAABBTree.obj
 0001:0015b310       ?flattenTree@Gu@physx@@YAXAEBVNodeAllocator@12@PEAUBVHNode@12@PEBI@Z 000000018015c310 f   GuAABBTree.obj
 0001:0015b500       ?fullRefit@BVHCoreData@Gu@physx@@QEAAXPEBVPxBounds3@3@@Z 000000018015c500 f   GuAABBTree.obj
 0001:0015b6c0       ?getBiNode@NodeAllocator@Gu@physx@@QEAAPEAVAABBTreeBuildNode@23@XZ 000000018015c6c0 f   GuAABBTree.obj
 0001:0015b7f0       ?getParentIndices@BVHPartialRefitData@Gu@physx@@IEAAPEAIXZ 000000018015c7f0 f   GuAABBTree.obj
 0001:0015b880       ?growAndPushBack@?$PxArray@PEAVAABBTreeBuildNode@Gu@physx@@V?$PxReflectionAllocator@PEAVAABBTreeBuildNode@Gu@physx@@@3@@physx@@IEAAAEAPEAVAABBTreeBuildNode@Gu@2@AEBQEAV342@@Z 000000018015c880 f i GuAABBTree.obj
 0001:0015b9a0       ?growAndPushBack@?$PxArray@USlab@NodeAllocator@Gu@physx@@V?$PxReflectionAllocator@USlab@NodeAllocator@Gu@physx@@@4@@physx@@IEAAAEAUSlab@NodeAllocator@Gu@2@AEBU3452@@Z 000000018015c9a0 f i GuAABBTree.obj
 0001:0015ba60       ?init@AABBTreeBounds@Gu@physx@@QEAAXIPEBVPxBounds3@3@@Z 000000018015ca60 f   GuAABBTree.obj
 0001:0015bb20       ?init@NodeAllocator@Gu@physx@@QEAAXII@Z 000000018015cb20 f   GuAABBTree.obj
 0001:0015be60       ?initTree@AABBTree@Gu@physx@@QEAAXAEBVAABBTreeMergeData@23@@Z 000000018015ce60 f   GuAABBTree.obj
 0001:0015bf90       ?markNodeForRefit@BVHPartialRefitData@Gu@physx@@QEAAXI@Z 000000018015cf90 f   GuAABBTree.obj
 0001:0015c0a0       ?mergeRuntimeLeaf@AABBTree@Gu@physx@@AEAAXAEAUBVHNode@23@AEBVAABBTreeMergeData@23@I@Z 000000018015d0a0 f   GuAABBTree.obj
 0001:0015c2f0       ?mergeRuntimeNode@AABBTree@Gu@physx@@AEAAXAEAUBVHNode@23@AEBVAABBTreeMergeData@23@I@Z 000000018015d2f0 f   GuAABBTree.obj
 0001:0015c610       ?mergeTree@AABBTree@Gu@physx@@QEAAXAEBVAABBTreeMergeData@23@@Z 000000018015d610 f   GuAABBTree.obj
 0001:0015c8a0       ?progressiveBuild@AABBTree@Gu@physx@@QEAAIAEBVAABBTreeBuildParams@23@AEAVNodeAllocator@23@AEAUBuildStats@23@II@Z 000000018015d8a0 f   GuAABBTree.obj
 0001:0015cb50       ?refitMarkedNodes@BVHPartialRefitData@Gu@physx@@QEAAXPEBVPxBounds3@3@@Z 000000018015db50 f   GuAABBTree.obj
 0001:0015ccc0       ?release@AABBTree@Gu@physx@@QEAAX_N@Z 000000018015dcc0 f   GuAABBTree.obj
 0001:0015cdb0       ?release@AABBTreeBounds@Gu@physx@@QEAAXXZ 000000018015ddb0 f   GuAABBTree.obj
 0001:0015ce00       ?release@NodeAllocator@Gu@physx@@QEAAXXZ 000000018015de00 f   GuAABBTree.obj
 0001:0015ceb0       ?releasePartialRefitData@BVHPartialRefitData@Gu@physx@@QEAAX_N@Z 000000018015deb0 f   GuAABBTree.obj
 0001:0015cf40       ?reshuffle@Gu@physx@@YAIIQEIAIPEIBV?$PxVec3T@M@2@MI@Z 000000018015df40 f   GuAABBTree.obj
 0001:0015d080       ?resize@?$PxArray@USlab@NodeAllocator@Gu@physx@@V?$PxReflectionAllocator@USlab@NodeAllocator@Gu@physx@@@4@@physx@@QEAAXIAEBUSlab@NodeAllocator@Gu@2@@Z 000000018015e080 f i GuAABBTree.obj
 0001:0015d100       ?resize@AABBTreeBounds@Gu@physx@@QEAAXII@Z 000000018015e100 f   GuAABBTree.obj
 0001:0015d1a0       ?shiftIndices@AABBTree@Gu@physx@@QEAAXI@Z 000000018015e1a0 f   GuAABBTree.obj
 0001:0015d1c0       ?shiftOrigin@AABBTree@Gu@physx@@QEAAXAEBV?$PxVec3T@M@3@@Z 000000018015e1c0 f   GuAABBTree.obj
 0001:0015d450       ?subdivide@AABBTreeBuildNode@Gu@physx@@QEAAXAEBVAABBTreeBuildParams@23@AEAUBuildStats@23@AEAVNodeAllocator@23@QEAI@Z 000000018015e450 f   GuAABBTree.obj
 0001:0015d640       ?subdivideSAH@AABBTreeBuildNode@Gu@physx@@QEAAXAEBVAABBTreeBuildParams@23@AEAUSAH_Buffers@23@AEAUBuildStats@23@AEAVNodeAllocator@23@QEAI@Z 000000018015e640 f   GuAABBTree.obj
 0001:0015d730       ?traverseRuntimeNode@AABBTree@Gu@physx@@AEAAXAEAUBVHNode@23@AEBVAABBTreeMergeData@23@I@Z 000000018015e730 f   GuAABBTree.obj
 0001:0015d870       ?initMap@AABBTreeUpdateMap@Gu@physx@@QEAAXIAEBVAABBTree@23@@Z 000000018015e870 f   GuAABBTreeUpdateMap.obj
 0001:0015da00       ?invalidate@AABBTreeUpdateMap@Gu@physx@@QEAAXIIAEAVAABBTree@23@@Z 000000018015ea00 f   GuAABBTreeUpdateMap.obj
 0001:0015dca0       ?visualizeTree@@YAXAEAVPxRenderOutput@physx@@IPEBVAABBTree@Gu@2@@Z 000000018015eca0 f   GuSqInternal.obj
 0001:0015dd10       ?visualizeTree@@YAXAEAVPxRenderOutput@physx@@IPEBVBVH@Gu@2@@Z 000000018015ed10 f   GuSqInternal.obj
 0001:0015dd80       ?visualizeTree@@YAXAEAVPxRenderOutput@physx@@IPEBVIncrementalAABBTree@Gu@2@PEAVDebugVizCallback@2@@Z 000000018015ed80 f   GuSqInternal.obj
 0001:0015de00       ??$PxSort@PEAXU?$PxLess@PEAX@physx@@V?$PxReflectionAllocator@UAABBTreeIndices@Gu@physx@@@2@@physx@@YAXPEAPEAXIAEBU?$PxLess@PEAX@0@AEBV?$PxReflectionAllocator@UAABBTreeIndices@Gu@physx@@@0@I@Z 000000018015ee00 f i GuIncrementalAABBTree.obj
 0001:0015e260       ??$PxSort@PEAXU?$PxLess@PEAX@physx@@V?$PxReflectionAllocator@UIncrementalAABBTreeNodePair@Gu@physx@@@2@@physx@@YAXPEAPEAXIAEBU?$PxLess@PEAX@0@AEBV?$PxReflectionAllocator@UIncrementalAABBTreeNodePair@Gu@physx@@@0@I@Z 000000018015f260 f i GuIncrementalAABBTree.obj
 0001:0015e6c0       ??0IncrementalAABBTree@Gu@physx@@QEAA@XZ 000000018015f6c0 f   GuIncrementalAABBTree.obj
 0001:0015e740       ??1?$PxPoolBase@UAABBTreeIndices@Gu@physx@@V?$PxReflectionAllocator@UAABBTreeIndices@Gu@physx@@@3@@physx@@QEAA@XZ 000000018015f740 f i GuIncrementalAABBTree.obj
 0001:0015e8a0       ??1?$PxPoolBase@UIncrementalAABBTreeNodePair@Gu@physx@@V?$PxReflectionAllocator@UIncrementalAABBTreeNodePair@Gu@physx@@@3@@physx@@QEAA@XZ 000000018015f8a0 f i GuIncrementalAABBTree.obj
 0001:0015ea00       ??1IncrementalAABBTree@Gu@physx@@QEAA@XZ 000000018015fa00 f   GuIncrementalAABBTree.obj
 0001:0015ea40       ?allocate@?$PxArray@PEAXV?$PxReflectionAllocator@UAABBTreeIndices@Gu@physx@@@physx@@@physx@@IEAAPEAPEAXI@Z 000000018015fa40 f i GuIncrementalAABBTree.obj
 0001:0015ead0       ?allocate@?$PxArray@PEAXV?$PxReflectionAllocator@UIncrementalAABBTreeNodePair@Gu@physx@@@physx@@@physx@@IEAAPEAPEAXI@Z 000000018015fad0 f i GuIncrementalAABBTree.obj
 0001:0015eb60       ?allocate@?$PxPoolBase@UAABBTreeIndices@Gu@physx@@V?$PxReflectionAllocator@UAABBTreeIndices@Gu@physx@@@3@@physx@@QEAAPEAUAABBTreeIndices@Gu@2@XZ 000000018015fb60 f i GuIncrementalAABBTree.obj
 0001:0015ec50       ?allocate@?$PxPoolBase@UIncrementalAABBTreeNodePair@Gu@physx@@V?$PxReflectionAllocator@UIncrementalAABBTreeNodePair@Gu@physx@@@3@@physx@@QEAAPEAUIncrementalAABBTreeNodePair@Gu@2@XZ 000000018015fc50 f i GuIncrementalAABBTree.obj
 0001:0015ed40       ?build@IncrementalAABBTree@Gu@physx@@QEAA_NAEBVAABBTreeBuildParams@23@AEAV?$PxArray@PEAVIncrementalAABBTreeNode@Gu@physx@@V?$PxReflectionAllocator@PEAVIncrementalAABBTreeNode@Gu@physx@@@3@@3@@Z 000000018015fd40 f   GuIncrementalAABBTree.obj
 0001:0015ef20       ?clone@IncrementalAABBTree@Gu@physx@@AEAAXAEAV?$PxArray@PEAVIncrementalAABBTreeNode@Gu@physx@@V?$PxReflectionAllocator@PEAVIncrementalAABBTreeNode@Gu@physx@@@3@@3@PEBIPEAPEAVIncrementalAABBTreeNode@23@@Z 000000018015ff20 f   GuIncrementalAABBTree.obj
 0001:0015f410       ?copy@IncrementalAABBTree@Gu@physx@@QEAAXAEBVBVH@23@AEAV?$PxArray@PEAVIncrementalAABBTreeNode@Gu@physx@@V?$PxReflectionAllocator@PEAVIncrementalAABBTreeNode@Gu@physx@@@3@@3@@Z 0000000180160410 f   GuIncrementalAABBTree.obj
 0001:0015f4c0       ?copyNode@IncrementalAABBTree@Gu@physx@@AEAAXAEAVIncrementalAABBTreeNode@23@AEBUBVHNode@23@PEBU523@PEAV423@PEBIAEAV?$PxArray@PEAVIncrementalAABBTreeNode@Gu@physx@@V?$PxReflectionAllocator@PEAVIncrementalAABBTreeNode@Gu@physx@@@3@@3@@Z 00000001801604c0 f   GuIncrementalAABBTree.obj
 0001:0015f680       ?fixupTreeIndices@IncrementalAABBTree@Gu@physx@@QEAAXPEAVIncrementalAABBTreeNode@23@II@Z 0000000180160680 f   GuIncrementalAABBTree.obj
 0001:0015f6b0       ?getTreeLeafDepth@IncrementalAABBTree@Gu@physx@@QEAAIPEAVIncrementalAABBTreeNode@23@@Z 00000001801606b0 f   GuIncrementalAABBTree.obj
 0001:0015f6d0       ?growAndPushBack@?$PxArray@PEAVIncrementalAABBTreeNode@Gu@physx@@V?$PxReflectionAllocator@PEAVIncrementalAABBTreeNode@Gu@physx@@@3@@physx@@IEAAAEAPEAVIncrementalAABBTreeNode@Gu@2@AEBQEAV342@@Z 00000001801606d0 f i GuIncrementalAABBTree.obj
 0001:0015f7f0       ?growAndPushBack@?$PxArray@PEAXV?$PxReflectionAllocator@UAABBTreeIndices@Gu@physx@@@physx@@@physx@@IEAAAEAPEAXAEBQEAX@Z 00000001801607f0 f i GuIncrementalAABBTree.obj
 0001:0015f8b0       ?growAndPushBack@?$PxArray@PEAXV?$PxReflectionAllocator@UIncrementalAABBTreeNodePair@Gu@physx@@@physx@@@physx@@IEAAAEAPEAXAEBQEAX@Z 00000001801608b0 f i GuIncrementalAABBTree.obj
 0001:0015f970       ?hierarchyCheck@IncrementalAABBTree@Gu@physx@@QEAAXIPEBVPxBounds3@3@@Z 0000000180160970 f   GuIncrementalAABBTree.obj
 0001:0015fac0       ?hierarchyCheck@IncrementalAABBTree@Gu@physx@@QEAAXPEBVPxBounds3@3@@Z 0000000180160ac0 f   GuIncrementalAABBTree.obj
 0001:0015fc30       ?insert@IncrementalAABBTree@Gu@physx@@QEAAPEAVIncrementalAABBTreeNode@23@IPEBVPxBounds3@3@AEAV?$PxArray@PEAVIncrementalAABBTreeNode@Gu@physx@@V?$PxReflectionAllocator@PEAVIncrementalAABBTreeNode@Gu@physx@@@3@@3@@Z 0000000180160c30 f   GuIncrementalAABBTree.obj
 0001:00160310       ?recreate@?$PxArray@PEAXV?$PxReflectionAllocator@UAABBTreeIndices@Gu@physx@@@physx@@@physx@@IEAAXI@Z 0000000180161310 f i GuIncrementalAABBTree.obj
 0001:001603b0       ?recreate@?$PxArray@PEAXV?$PxReflectionAllocator@UIncrementalAABBTreeNodePair@Gu@physx@@@physx@@@physx@@IEAAXI@Z 00000001801613b0 f i GuIncrementalAABBTree.obj
 0001:00160450       ?release@IncrementalAABBTree@Gu@physx@@QEAAXXZ 0000000180161450 f   GuIncrementalAABBTree.obj
 0001:00160480       ?releaseNode@IncrementalAABBTree@Gu@physx@@AEAAXPEAVIncrementalAABBTreeNode@23@@Z 0000000180161480 f   GuIncrementalAABBTree.obj
 0001:00160510       ?remove@IncrementalAABBTree@Gu@physx@@QEAAPEAVIncrementalAABBTreeNode@23@PEAV423@IPEBVPxBounds3@3@@Z 0000000180161510 f   GuIncrementalAABBTree.obj
 0001:00160830       ?rotateTree@IncrementalAABBTree@Gu@physx@@AEAAXPEAVIncrementalAABBTreeNode@23@AEAV?$PxArray@PEAVIncrementalAABBTreeNode@Gu@physx@@V?$PxReflectionAllocator@PEAVIncrementalAABBTreeNode@Gu@physx@@@3@@3@IPEBVPxBounds3@3@_N@Z 0000000180161830 f   GuIncrementalAABBTree.obj
 0001:00161190       ?shiftOrigin@IncrementalAABBTree@Gu@physx@@QEAAXAEBV?$PxVec3T@M@3@@Z 0000000180162190 f   GuIncrementalAABBTree.obj
 0001:001611f0       ?splitLeafNode@IncrementalAABBTree@Gu@physx@@AEAAPEAVIncrementalAABBTreeNode@23@PEAV423@IAEBT__m128@@1PEBVPxBounds3@3@@Z 00000001801621f0 f   GuIncrementalAABBTree.obj
 0001:001614e0       ?update@IncrementalAABBTree@Gu@physx@@QEAAPEAVIncrementalAABBTreeNode@23@PEAV423@IPEBVPxBounds3@3@AEAV?$PxArray@PEAVIncrementalAABBTreeNode@Gu@physx@@V?$PxReflectionAllocator@PEAVIncrementalAABBTreeNode@Gu@physx@@@3@@3@@Z 00000001801624e0 f   GuIncrementalAABBTree.obj
 0001:001615a0       ?updateFast@IncrementalAABBTree@Gu@physx@@QEAAPEAVIncrementalAABBTreeNode@23@PEAV423@IPEBVPxBounds3@3@AEAV?$PxArray@PEAVIncrementalAABBTreeNode@Gu@physx@@V?$PxReflectionAllocator@PEAVIncrementalAABBTreeNode@Gu@physx@@@3@@3@@Z 00000001801625a0 f   GuIncrementalAABBTree.obj
 0001:001617c0       ??0SAH_Buffers@Gu@physx@@QEAA@I@Z 00000001801627c0 f   GuSAH.obj
 0001:001618c0       ??1SAH_Buffers@Gu@physx@@QEAA@XZ 00000001801628c0 f   GuSAH.obj
 0001:00161980       ?split@SAH_Buffers@Gu@physx@@QEAA_NAEAIIPEIBIPEIBVPxBounds3@3@PEIBV?$PxVec3T@M@3@@Z 0000000180162980 f   GuSAH.obj
 0001:00162070       ??0BVH@Gu@physx@@QEAA@AEBUPxBVHInternalData@2@@Z 0000000180163070 f   GuBVH.obj
 0001:00162130       ??0BVH@Gu@physx@@QEAA@PEAVMeshFactory@12@@Z 0000000180163130 f   GuBVH.obj
 0001:001621a0       ??0BVH@Gu@physx@@QEAA@PEAVMeshFactory@12@AEAVBVHData@12@@Z 00000001801631a0 f   GuBVH.obj
 0001:00162250       ??1BVHData@Gu@physx@@QEAA@XZ 0000000180163250 f i GuBVH.obj
 0001:00165a14       ??_EBVH@Gu@physx@@WBA@EAAPEAXI@Z 0000000180166a14 f i GuBVH.obj
 0001:00165a20       ??_EBVH@Gu@physx@@UEAAPEAXI@Z 0000000180166a20 f i GuBVH.obj
 0001:00165a20       ??_GBVH@Gu@physx@@UEAAPEAXI@Z 0000000180166a20 f i GuBVH.obj
 0001:00165ab0       ??_ERefCountable@Cm@physx@@UEAAPEAXI@Z 0000000180166ab0 f i GuBVH.obj
 0001:00165ab0       ??_GRefCountable@Cm@physx@@UEAAPEAXI@Z 0000000180166ab0 f i GuBVH.obj
 0001:00165ce0       ?allocate@?$PxArray@PEBUBVHNode@Gu@physx@@V?$PxInlineAllocator@$0IAA@V?$PxReflectionAllocator@PEBUBVHNode@Gu@physx@@@physx@@@3@@physx@@IEAAPEAPEBUBVHNode@Gu@2@I@Z 0000000180166ce0 f i GuBVH.obj
 0001:00165da0       ?build@BVHData@Gu@physx@@QEAA_NIPEBXIMIW4BVHBuildStrategy@23@@Z 0000000180166da0 f   GuBVH.obj
 0001:001661a0       ?cull@BVH@Gu@physx@@UEBA_NIPEBVPxPlane@3@AEAUOverlapCallback@PxBVH@3@V?$PxFlags@W4Enum@PxGeometryQueryFlag@physx@@I@3@@Z 00000001801671a0 f   GuBVH.obj
 0001:00166ae0       ?getConcreteTypeName@PxBVH@physx@@UEBAPEBDXZ 0000000180167ae0 f i GuBVH.obj
 0001:00166af0       ?init@BVH@Gu@physx@@QEAA_NIPEAVAABBTreeBounds@23@PEBXIW4BVHBuildStrategy@23@IM@Z 0000000180167af0 f   GuBVH.obj
 0001:00166f00       ?isKindOf@PxBVH@physx@@MEBA_NPEBD@Z 0000000180167f00 f i GuBVH.obj
 0001:00166f50       ?load@BVH@Gu@physx@@QEAA_NAEAVPxInputStream@3@@Z 0000000180167f50 f   GuBVH.obj
 0001:001670e0       ?onRefCountZero@BVH@Gu@physx@@UEAAXXZ 00000001801680e0 f   GuBVH.obj
 0001:001671c0       ?onRefCountZero@RefCountable@Cm@physx@@UEAAXXZ 00000001801681c0 f i GuBVH.obj
 0001:001671e0       ?overlap@BVH@Gu@physx@@QEBA_NAEBVShapeData@23@AEAUOverlapCallback@PxBVH@3@V?$PxFlags@W4Enum@PxGeometryQueryFlag@physx@@I@3@@Z 00000001801681e0 f   GuBVH.obj
 0001:00167a10       ?overlap@BVH@Gu@physx@@UEBA_NAEBVPxGeometry@3@AEBV?$PxTransformT@M@3@AEAUOverlapCallback@PxBVH@3@V?$PxFlags@W4Enum@PxGeometryQueryFlag@physx@@I@3@@Z 0000000180168a10 f   GuBVH.obj
 0001:00167a70       ?partialRefit@BVH@Gu@physx@@UEAAXXZ 0000000180168a70 f   GuBVH.obj
 0001:00167a80       ?raycast@BVH@Gu@physx@@UEBA_NAEBV?$PxVec3T@M@3@0MAEAURaycastCallback@PxBVH@3@V?$PxFlags@W4Enum@PxGeometryQueryFlag@physx@@I@3@@Z 0000000180168a80 f   GuBVH.obj
 0001:00167bb0       ?recreate@?$PxArray@PEBUBVHNode@Gu@physx@@V?$PxInlineAllocator@$0IAA@V?$PxReflectionAllocator@PEBUBVHNode@Gu@physx@@@physx@@@3@@physx@@IEAAXI@Z 0000000180168bb0 f i GuBVH.obj
 0001:00167c70       ?refit@BVH@Gu@physx@@UEAAXXZ 0000000180168c70 f   GuBVH.obj
 0001:00167c80       ?release@BVH@Gu@physx@@UEAAXXZ 0000000180168c80 f   GuBVH.obj
 0001:00167cb0       ?resizeUninitialized@?$PxArray@PEBUBVHNode@Gu@physx@@V?$PxInlineAllocator@$0IAA@V?$PxReflectionAllocator@PEBUBVHNode@Gu@physx@@@physx@@@3@@physx@@QEAAXI@Z 0000000180168cb0 f i GuBVH.obj
 0001:00167d00       ?save@BVHData@Gu@physx@@QEBA_NAEAVPxOutputStream@3@_N@Z 0000000180168d00 f   GuBVH.obj
 0001:00167e70       ?sweep@BVH@Gu@physx@@QEBA_NAEBVShapeData@23@AEBV?$PxVec3T@M@3@MAEAURaycastCallback@PxBVH@3@V?$PxFlags@W4Enum@PxGeometryQueryFlag@physx@@I@3@@Z 0000000180168e70 f   GuBVH.obj
 0001:00168060       ?sweep@BVH@Gu@physx@@UEBA_NAEBVPxGeometry@3@AEBV?$PxTransformT@M@3@AEBV?$PxVec3T@M@3@MAEAURaycastCallback@PxBVH@3@V?$PxFlags@W4Enum@PxGeometryQueryFlag@physx@@I@3@@Z 0000000180169060 f   GuBVH.obj
 0001:001680e0       ?traverse@BVH@Gu@physx@@UEBA_NAEAUTraversalCallback@PxBVH@3@@Z 00000001801690e0 f   GuBVH.obj
 0001:00168250       ?updateBounds@BVH@Gu@physx@@UEAA_NIAEBVPxBounds3@3@@Z 0000000180169250 f   GuBVH.obj
 0001:00168300       ?updateBoundsInternal@BVH@Gu@physx@@QEAA_NIAEBVPxBounds3@3@@Z 0000000180169300 f   GuBVH.obj
 0001:001683b0       PxFindOverlap              00000001801693b0 f   GuBVH.obj
 0001:001684a0       PxGetBVHInternalData       00000001801694a0 f   GuBVH.obj
 0001:001684e0       ??0IncrementalAABBPrunerCore@Gu@physx@@QEAA@PEBVPruningPool@12@@Z 00000001801694e0 f   GuIncrementalAABBPrunerCore.obj
 0001:001685f0       ??1IncrementalAABBPrunerCore@Gu@physx@@QEAA@XZ 00000001801695f0 f   GuIncrementalAABBPrunerCore.obj
 0001:00168760       ??R?$AABBTreeOverlap@$00U?$OBBAABBTests@$00@Gu@physx@@VIncrementalAABBTree@23@VIncrementalAABBTreeNode@23@UOverlapCallbackAdapter@23@@Gu@physx@@QEAA_NAEBVAABBTreeBounds@12@AEBVIncrementalAABBTree@12@AEBU?$OBBAABBTests@$00@12@AEAUOverlapCallbackAdapter@12@@Z 0000000180169760 f i GuIncrementalAABBPrunerCore.obj
 0001:00168d00       ??R?$AABBTreeOverlap@$00UAABBAABBTest@Gu@physx@@VIncrementalAABBTree@23@VIncrementalAABBTreeNode@23@UOverlapCallbackAdapter@23@@Gu@physx@@QEAA_NAEBVAABBTreeBounds@12@AEBVIncrementalAABBTree@12@AEBUAABBAABBTest@12@AEAUOverlapCallbackAdapter@12@@Z 0000000180169d00 f i GuIncrementalAABBPrunerCore.obj
 0001:00168f60       ??R?$AABBTreeOverlap@$00UCapsuleAABBTest@Gu@physx@@VIncrementalAABBTree@23@VIncrementalAABBTreeNode@23@UOverlapCallbackAdapter@23@@Gu@physx@@QEAA_NAEBVAABBTreeBounds@12@AEBVIncrementalAABBTree@12@AEBUCapsuleAABBTest@12@AEAUOverlapCallbackAdapter@12@@Z 0000000180169f60 f i GuIncrementalAABBPrunerCore.obj
 0001:001692a0       ??R?$AABBTreeRaycast@$00$00VIncrementalAABBTree@Gu@physx@@VIncrementalAABBTreeNode@23@URaycastCallbackAdapter@23@@Gu@physx@@QEAA_NAEBVAABBTreeBounds@12@AEBVIncrementalAABBTree@12@AEBV?$PxVec3T@M@2@2AEAM2AEAURaycastCallbackAdapter@12@@Z 000000018016a2a0 f i GuIncrementalAABBPrunerCore.obj
 0001:00169960       ??R?$AABBTreeRaycast@$0A@$00VIncrementalAABBTree@Gu@physx@@VIncrementalAABBTreeNode@23@URaycastCallbackAdapter@23@@Gu@physx@@QEAA_NAEBVAABBTreeBounds@12@AEBVIncrementalAABBTree@12@AEBV?$PxVec3T@M@2@2AEAM2AEAURaycastCallbackAdapter@12@@Z 000000018016a960 f i GuIncrementalAABBPrunerCore.obj
 0001:00169f90       ?addObject@IncrementalAABBPrunerCore@Gu@physx@@QEAA_NII@Z 000000018016af90 f   GuIncrementalAABBPrunerCore.obj
 0001:0016a080       ?allocate@?$PxArray@PEBVIncrementalAABBTreeNode@Gu@physx@@V?$PxInlineAllocator@$0IAA@V?$PxReflectionAllocator@PEBVIncrementalAABBTreeNode@Gu@physx@@@physx@@@3@@physx@@IEAAPEAPEBVIncrementalAABBTreeNode@Gu@2@I@Z 000000018016b080 f i GuIncrementalAABBPrunerCore.obj
 0001:0016a140       ?clear@?$PxHashMapBase@IPEAVIncrementalAABBTreeNode@Gu@physx@@U?$PxHash@I@3@VPxAllocator@3@@physx@@QEAAXXZ 000000018016b140 f i GuIncrementalAABBPrunerCore.obj
 0001:0016a140       ?clear@?$PxHashMapBase@UPrunerPayload@Gu@physx@@UExtendedBucketPrunerData@23@UExtendedBucketPrunerHash@23@VPxAllocator@3@@physx@@QEAAXXZ 000000018016b140 f i GuExtendedBucketPruner.obj
 0001:0016a1d0       ?create@?$PxHashBase@V?$PxPair@$$CBIPEAVIncrementalAABBTreeNode@Gu@physx@@@physx@@IU?$PxHash@I@2@UGetKey@?$PxHashMapBase@IPEAVIncrementalAABBTreeNode@Gu@physx@@U?$PxHash@I@3@VPxAllocator@3@@2@VPxAllocator@2@$00@physx@@QEAAPEAV?$PxPair@$$CBIPEAVIncrementalAABBTreeNode@Gu@physx@@@2@AEBIAEA_N@Z 000000018016b1d0 f i GuIncrementalAABBPrunerCore.obj
 0001:0016a320       ?erase@?$PxHashBase@V?$PxPair@$$CBIPEAVIncrementalAABBTreeNode@Gu@physx@@@physx@@IU?$PxHash@I@2@UGetKey@?$PxHashMapBase@IPEAVIncrementalAABBTreeNode@Gu@physx@@U?$PxHash@I@3@VPxAllocator@3@@2@VPxAllocator@2@$00@physx@@QEAA_NAEBIAEAV?$PxPair@$$CBIPEAVIncrementalAABBTreeNode@Gu@physx@@@2@@Z 000000018016b320 f i GuIncrementalAABBPrunerCore.obj
 0001:0016a490       ?getCurrentWorldBoxes@PruningPool@Gu@physx@@QEAAPEAVPxBounds3@3@XZ 000000018016b490 f i GuIncrementalAABBPrunerCore.obj
 0001:0016a490       ?getCurrentWorldBoxes@PruningPool@Gu@physx@@QEBAPEBVPxBounds3@3@XZ 000000018016b490 f i GuIncrementalAABBPrunerCore.obj
 0001:0016a490       ?getMesh@CollisionTetrahedronMeshData@Gu@physx@@UEAAPEAVPxTetrahedronMeshData@3@XZ 000000018016b490 f i GuCookingTetrahedronMesh.obj
 0001:0016a490       ?getMesh@CollisionTetrahedronMeshData@Gu@physx@@UEBAPEBVPxTetrahedronMeshData@3@XZ 000000018016b490 f i GuCookingTetrahedronMesh.obj
 0001:0016a490       ?getMesh@SimulationTetrahedronMeshData@Gu@physx@@UEAAPEAVPxTetrahedronMeshData@3@XZ 000000018016b490 f i GuCookingTetrahedronMesh.obj
 0001:0016a4a0       ?getGlobalBounds@IncrementalAABBPrunerCore@Gu@physx@@QEBAXAEAVPxBounds3@3@@Z 000000018016b4a0 f   GuIncrementalAABBPrunerCore.obj
 0001:0016a5d0       ?getIndex@PruningPool@Gu@physx@@QEBAII@Z 000000018016b5d0 f i GuIncrementalAABBPrunerCore.obj
 0001:0016a5e0       ?getPayloadData@PruningPool@Gu@physx@@QEBAAEBUPrunerPayload@23@IPEAUPrunerPayloadData@23@@Z 000000018016b5e0 f i GuIncrementalAABBPrunerCore.obj
 0001:0016a630       ?overlap@IncrementalAABBPrunerCore@Gu@physx@@QEBA_NAEBVShapeData@23@AEAUPrunerOverlapCallback@23@@Z 000000018016b630 f   GuIncrementalAABBPrunerCore.obj
 0001:0016b1a0       ?raycast@IncrementalAABBPrunerCore@Gu@physx@@QEBA_NAEBV?$PxVec3T@M@3@0AEAMAEAUPrunerRaycastCallback@23@@Z 000000018016c1a0 f   GuIncrementalAABBPrunerCore.obj
 0001:0016b2b0       ?recreate@?$PxArray@PEAVIncrementalAABBTreeNode@Gu@physx@@V?$PxReflectionAllocator@PEAVIncrementalAABBTreeNode@Gu@physx@@@3@@physx@@IEAAXI@Z 000000018016c2b0 f i GuIncrementalAABBPrunerCore.obj
 0001:0016b3a0       ?recreate@?$PxArray@PEBVIncrementalAABBTreeNode@Gu@physx@@V?$PxInlineAllocator@$0IAA@V?$PxReflectionAllocator@PEBVIncrementalAABBTreeNode@Gu@physx@@@physx@@@3@@physx@@IEAAXI@Z 000000018016c3a0 f i GuIncrementalAABBPrunerCore.obj
 0001:0016b460       ?release@IncrementalAABBPrunerCore@Gu@physx@@QEAAXXZ 000000018016c460 f   GuIncrementalAABBPrunerCore.obj
 0001:0016b560       ?removeMarkedObjects@IncrementalAABBPrunerCore@Gu@physx@@QEAAII@Z 000000018016c560 f   GuIncrementalAABBPrunerCore.obj
 0001:0016b5c0       ?removeObject@IncrementalAABBPrunerCore@Gu@physx@@QEAA_NIIAEAI@Z 000000018016c5c0 f   GuIncrementalAABBPrunerCore.obj
 0001:0016b7d0       ?reserveInternal@?$PxHashBase@V?$PxPair@$$CBIPEAVIncrementalAABBTreeNode@Gu@physx@@@physx@@IU?$PxHash@I@2@UGetKey@?$PxHashMapBase@IPEAVIncrementalAABBTreeNode@Gu@physx@@U?$PxHash@I@3@VPxAllocator@3@@2@VPxAllocator@2@$00@physx@@AEAAXI@Z 000000018016c7d0 f i GuIncrementalAABBPrunerCore.obj
 0001:0016b990       ?resizeUninitialized@?$PxArray@PEBVIncrementalAABBTreeNode@Gu@physx@@V?$PxInlineAllocator@$0IAA@V?$PxReflectionAllocator@PEBVIncrementalAABBTreeNode@Gu@physx@@@physx@@@3@@physx@@QEAAXI@Z 000000018016c990 f i GuIncrementalAABBPrunerCore.obj
 0001:0016b9e0       ?setTransform@PruningPool@Gu@physx@@QEAA_NIAEBV?$PxTransformT@M@3@@Z 000000018016c9e0 f i GuIncrementalAABBPrunerCore.obj
 0001:0016ba40       ?shiftOrigin@IncrementalAABBPrunerCore@Gu@physx@@QEAAXAEBV?$PxVec3T@M@3@@Z 000000018016ca40 f   GuIncrementalAABBPrunerCore.obj
 0001:0016ba80       ?swapIndex@IncrementalAABBPrunerCore@Gu@physx@@QEAAXII@Z 000000018016ca80 f   GuIncrementalAABBPrunerCore.obj
 0001:0016bb60       ?sweep@IncrementalAABBPrunerCore@Gu@physx@@QEBA_NAEBVShapeData@23@AEBV?$PxVec3T@M@3@AEAMAEAUPrunerRaycastCallback@23@@Z 000000018016cb60 f   GuIncrementalAABBPrunerCore.obj
 0001:0016bd80       ?updateMapping@IncrementalAABBPrunerCore@Gu@physx@@AEAAXAEAV?$PxHashMap@IPEAVIncrementalAABBTreeNode@Gu@physx@@U?$PxHash@I@3@VPxAllocator@3@@3@IPEAVIncrementalAABBTreeNode@23@@Z 000000018016cd80 f   GuIncrementalAABBPrunerCore.obj
 0001:0016bed0       ?updateObject@IncrementalAABBPrunerCore@Gu@physx@@QEAA_NI@Z 000000018016ced0 f   GuIncrementalAABBPrunerCore.obj
 0001:0016c070       ?visualize@IncrementalAABBPrunerCore@Gu@physx@@QEBAXAEAVPxRenderOutput@3@I@Z 000000018016d070 f   GuIncrementalAABBPrunerCore.obj
 0001:0016c0d0       ??0IncrementalAABBPruner@Gu@physx@@QEAA@I_K@Z 000000018016d0d0 f   GuIncrementalAABBPruner.obj
 0001:0016c180       ??R?$AABBTreeOverlap@$00USphereAABBTest@Gu@physx@@VIncrementalAABBTree@23@VIncrementalAABBTreeNode@23@UOverlapCallbackAdapter@23@@Gu@physx@@QEAA_NAEBVAABBTreeBounds@12@AEBVIncrementalAABBTree@12@AEBUSphereAABBTest@12@AEAUOverlapCallbackAdapter@12@@Z 000000018016d180 f i GuIncrementalAABBPruner.obj
 0001:0016c450       ??_EBasePruner@Gu@physx@@UEAAPEAXI@Z 000000018016d450 f i GuIncrementalAABBPruner.obj
 0001:0016c450       ??_GBasePruner@Gu@physx@@UEAAPEAXI@Z 000000018016d450 f i GuIncrementalAABBPruner.obj
 0001:0016c4a0       ??_EIncrementalAABBPruner@Gu@physx@@UEAAPEAXI@Z 000000018016d4a0 f i GuIncrementalAABBPruner.obj
 0001:0016c4a0       ??_GIncrementalAABBPruner@Gu@physx@@UEAAPEAXI@Z 000000018016d4a0 f i GuIncrementalAABBPruner.obj
 0001:0016c5b0       ?addObjects@IncrementalAABBPruner@Gu@physx@@UEAA_NPEAIPEBVPxBounds3@3@PEBUPrunerPayload@23@PEBV?$PxTransformT@M@3@I_N@Z 000000018016d5b0 f   GuIncrementalAABBPruner.obj
 0001:0016c750       ?commit@IncrementalAABBPruner@Gu@physx@@UEAAXXZ 000000018016d750 f   GuIncrementalAABBPruner.obj
 0001:0016c8a0       ?getGlobalBounds@IncrementalAABBPruner@Gu@physx@@UEBAXAEAVPxBounds3@3@@Z 000000018016d8a0 f   GuIncrementalAABBPruner.obj
 0001:0016c910       ?getPayloadData@IncrementalAABBPruner@Gu@physx@@UEBAAEBUPrunerPayload@23@IPEAUPrunerPayloadData@23@@Z 000000018016d910 f i GuIncrementalAABBPruner.obj
 0001:0016c960       ?overlap@IncrementalAABBPruner@Gu@physx@@UEBA_NAEBVShapeData@23@AEAUPrunerOverlapCallback@23@@Z 000000018016d960 f   GuIncrementalAABBPruner.obj
 0001:0016d070       ?preallocate@IncrementalAABBPruner@Gu@physx@@UEAAXI@Z 000000018016e070 f i GuIncrementalAABBPruner.obj
 0001:0016d080       ?purge@IncrementalAABBPruner@Gu@physx@@UEAAXXZ 000000018016e080 f   GuIncrementalAABBPruner.obj
 0001:0016d0d0       ?raycast@IncrementalAABBPruner@Gu@physx@@UEBA_NAEBV?$PxVec3T@M@3@0AEAMAEAUPrunerRaycastCallback@23@@Z 000000018016e0d0 f   GuIncrementalAABBPruner.obj
 0001:0016d150       ?removeObjects@IncrementalAABBPruner@Gu@physx@@UEAAXPEBIIPEAUPrunerPayloadRemovalCallback@23@@Z 000000018016e150 f   GuIncrementalAABBPruner.obj
 0001:0016d2a0       ?resize@?$PxArray@PEAVIncrementalAABBTreeNode@Gu@physx@@V?$PxReflectionAllocator@PEAVIncrementalAABBTreeNode@Gu@physx@@@3@@physx@@QEAAXIAEBQEAVIncrementalAABBTreeNode@Gu@2@@Z 000000018016e2a0 f i GuIncrementalAABBPruner.obj
 0001:0016d360       ?resizeUninitialized@?$PxArray@PEAVIncrementalAABBTreeNode@Gu@physx@@V?$PxReflectionAllocator@PEAVIncrementalAABBTreeNode@Gu@physx@@@3@@physx@@QEAAXI@Z 000000018016e360 f i GuIncrementalAABBPruner.obj
 0001:0016d3a0       ?setTransform@IncrementalAABBPruner@Gu@physx@@UEAA_NIAEBV?$PxTransformT@M@3@@Z 000000018016e3a0 f i GuIncrementalAABBPruner.obj
 0001:0016d400       ?shiftOrigin@IncrementalAABBPruner@Gu@physx@@UEAAXAEBV?$PxVec3T@M@3@@Z 000000018016e400 f   GuIncrementalAABBPruner.obj
 0001:0016d440       ?sweep@IncrementalAABBPruner@Gu@physx@@UEBA_NAEBVShapeData@23@AEBV?$PxVec3T@M@3@AEAMAEAUPrunerRaycastCallback@23@@Z 000000018016e440 f   GuIncrementalAABBPruner.obj
 0001:0016d560       ?updateObjects@IncrementalAABBPruner@Gu@physx@@UEAAXPEBIIM0PEBVPxBounds3@3@PEBUPxTransformPadded@3@@Z 000000018016e560 f   GuIncrementalAABBPruner.obj
 0001:0016d730       ?visualize@IncrementalAABBPruner@Gu@physx@@UEBAXAEAVPxRenderOutput@3@II@Z 000000018016e730 f   GuIncrementalAABBPruner.obj
 0001:0016d920       ??0PruningPool@Gu@physx@@QEAA@_KW4TransformCacheMode@12@@Z 000000018016e920 f   GuPruningPool.obj
 0001:0016d950       ??1PruningPool@Gu@physx@@QEAA@XZ 000000018016e950 f   GuPruningPool.obj
 0001:0016da20       ?addObjects@PruningPool@Gu@physx@@QEAAIPEAIPEBVPxBounds3@3@PEBUPrunerPayload@23@PEBV?$PxTransformT@M@3@I@Z 000000018016ea20 f   GuPruningPool.obj
 0001:0016dbc0       ?preallocate@PruningPool@Gu@physx@@QEAAXI@Z 000000018016ebc0 f   GuPruningPool.obj
 0001:0016dbd0       ?removeObject@PruningPool@Gu@physx@@QEAAIIPEAUPrunerPayloadRemovalCallback@23@@Z 000000018016ebd0 f   GuPruningPool.obj
 0001:0016dd10       ?resize@PruningPool@Gu@physx@@QEAA_NI@Z 000000018016ed10 f   GuPruningPool.obj
 0001:0016dff0       ?shiftOrigin@PruningPool@Gu@physx@@QEAAXAEBV?$PxVec3T@M@3@@Z 000000018016eff0 f   GuPruningPool.obj
 0001:0016e3c0       ?updateAndInflateBounds@PruningPool@Gu@physx@@QEAAXPEBI0PEBVPxBounds3@3@PEBUPxTransformPadded@3@IM@Z 000000018016f3c0 f   GuPruningPool.obj
 0001:0016fdf0       ??0BucketPruner@Gu@physx@@QEAA@_K@Z 0000000180170df0 f   GuBucketPruner.obj
 0001:0016fe40       ??0BucketPrunerCore@Gu@physx@@QEAA@_N@Z 0000000180170e40 f   GuBucketPruner.obj
 0001:001701c0       ??1BucketPrunerCore@Gu@physx@@QEAA@XZ 00000001801711c0 f   GuBucketPruner.obj
 0001:001701e0       ??R?$BucketPrunerOverlapTraversal@UBucketPrunerAABBAABBTest@@$00@@QEBA_NAEBVBucketPrunerCore@Gu@physx@@AEBUBucketPrunerAABBAABBTest@@AEAUPrunerOverlapCallback@23@AEBVPxBounds3@3@@Z 00000001801711e0 f i GuBucketPruner.obj
 0001:001707a0       ??R?$BucketPrunerOverlapTraversal@UOBBAABBTest_SIMD@@$0A@@@QEBA_NAEBVBucketPrunerCore@Gu@physx@@AEBUOBBAABBTest_SIMD@@AEAUPrunerOverlapCallback@23@AEBVPxBounds3@3@@Z 00000001801717a0 f i GuBucketPruner.obj
 0001:00171020       ??R?$BucketPrunerOverlapTraversal@USphereAABBTest_SIMD@@$00@@QEBA_NAEBVBucketPrunerCore@Gu@physx@@AEBUSphereAABBTest_SIMD@@AEAUPrunerOverlapCallback@23@AEBVPxBounds3@3@@Z 0000000180172020 f i GuBucketPruner.obj
 0001:00171600       ??_FBucketPrunerCore@Gu@physx@@QEAAXXZ 0000000180172600 f i GuBucketPruner.obj
 0001:00171610       ??_EBucketPruner@Gu@physx@@UEAAPEAXI@Z 0000000180172610 f i GuBucketPruner.obj
 0001:00171610       ??_GBucketPruner@Gu@physx@@UEAAPEAXI@Z 0000000180172610 f i GuBucketPruner.obj
 0001:001716b0       ?addObject@BucketPrunerCore@Gu@physx@@QEAA_NAEBUPrunerPayload@23@AEBVPxBounds3@3@AEBV?$PxTransformT@M@3@I@Z 00000001801726b0 f   GuBucketPruner.obj
 0001:001719c0       ?addObjects@BucketPruner@Gu@physx@@UEAA_NPEAIPEBVPxBounds3@3@PEBUPrunerPayload@23@PEBV?$PxTransformT@M@3@I_N@Z 00000001801729c0 f   GuBucketPruner.obj
 0001:00171a50       ?addPair@BucketPrunerMap@Gu@physx@@QEAAPEAUBucketPrunerPair@23@AEBUPrunerPayload@23@II@Z 0000000180172a50 f   GuBucketPruner.obj
 0001:00171c50       ?allocateSortedMemory@BucketPrunerCore@Gu@physx@@AEAAXI@Z 0000000180172c50 f   GuBucketPruner.obj
 0001:00171e10       ?classifyBoxes@BucketPrunerCore@Gu@physx@@AEAAXXZ 0000000180172e10 f   GuBucketPruner.obj
 0001:00172600       ?classifyBoxes@BucketPrunerNode@Gu@physx@@QEAAXMMIPEIAUBucketBox@23@PEIBUPrunerPayload@23@PEIBV?$PxTransformT@M@3@0PEIAU523@PEIAV63@_NI@Z 0000000180173600 f   GuBucketPruner.obj
 0001:00172e80       ?build@CompanionPrunerBucket@@UEAAXXZ 0000000180173e80 f   GuSecondaryPruner.obj
 0001:00172e80       ?commit@BucketPruner@Gu@physx@@UEAAXXZ 0000000180173e80 f   GuBucketPruner.obj
 0001:00172e90       ?findPair@BucketPrunerMap@Gu@physx@@QEBAPEBUBucketPrunerPair@23@AEBUPrunerPayload@23@@Z 0000000180173e90 f   GuBucketPruner.obj
 0001:00173270       ?getGlobalBounds@BucketPruner@Gu@physx@@UEBAXAEAVPxBounds3@3@@Z 0000000180174270 f   GuBucketPruner.obj
 0001:001732e0       ?getGlobalBounds@BucketPrunerCore@Gu@physx@@QEBAXAEAVPxBounds3@3@@Z 00000001801742e0 f   GuBucketPruner.obj
 0001:00173350       ?getPayloadData@BucketPruner@Gu@physx@@UEBAAEBUPrunerPayload@23@IPEAUPrunerPayloadData@23@@Z 0000000180174350 f i GuBucketPruner.obj
 0001:001733b0       ?overlap@BucketPruner@Gu@physx@@UEBA_NAEBVShapeData@23@AEAUPrunerOverlapCallback@23@@Z 00000001801743b0 f   GuBucketPruner.obj
 0001:001733d0       ?overlap@BucketPrunerCore@Gu@physx@@QEBA_NAEBVShapeData@23@AEAUPrunerOverlapCallback@23@@Z 00000001801743d0 f   GuBucketPruner.obj
 0001:001736b0       ?preallocate@BucketPruner@Gu@physx@@UEAAXI@Z 00000001801746b0 f i GuBucketPruner.obj
 0001:00173890       ?purge@BucketPrunerMap@Gu@physx@@QEAAXXZ 0000000180174890 f   GuBucketPruner.obj
 0001:00173920       ?raycast@BucketPruner@Gu@physx@@UEBA_NAEBV?$PxVec3T@M@3@0AEAMAEAUPrunerRaycastCallback@23@@Z 0000000180174920 f   GuBucketPruner.obj
 0001:00173970       ?raycast@BucketPrunerCore@Gu@physx@@QEBA_NAEBV?$PxVec3T@M@3@0AEAMAEAUPrunerRaycastCallback@23@@Z 0000000180174970 f   GuBucketPruner.obj
 0001:001739b0       ?reallocPairs@BucketPrunerMap@Gu@physx@@QEAAXXZ 00000001801749b0 f   GuBucketPruner.obj
 0001:00173bf0       ?release@BucketPrunerCore@Gu@physx@@QEAAXXZ 0000000180174bf0 f   GuBucketPruner.obj
 0001:00173d30       ?removeMarkedObjects@BucketPrunerCore@Gu@physx@@QEAAII@Z 0000000180174d30 f   GuBucketPruner.obj
 0001:00174100       ?removeObject@BucketPrunerCore@Gu@physx@@QEAA_NAEBUPrunerPayload@23@AEAI@Z 0000000180175100 f   GuBucketPruner.obj
 0001:001743c0       ?removeObjects@BucketPruner@Gu@physx@@UEAAXPEBIIPEAUPrunerPayloadRemovalCallback@23@@Z 00000001801753c0 f   GuBucketPruner.obj
 0001:00174470       ?removePair@BucketPrunerMap@Gu@physx@@QEAA_NAEBUPrunerPayload@23@AEAI1@Z 0000000180175470 f   GuBucketPruner.obj
 0001:001745f0       ?removePairInternal@BucketPrunerMap@Gu@physx@@QEAAXAEBUPrunerPayload@23@II@Z 00000001801755f0 f   GuBucketPruner.obj
 0001:00174780       ?resizeCore@BucketPrunerCore@Gu@physx@@AEAAXXZ 0000000180175780 f   GuBucketPruner.obj
 0001:001749d0       ?setTransform@BucketPruner@Gu@physx@@UEAA_NIAEBV?$PxTransformT@M@3@@Z 00000001801759d0 f i GuBucketPruner.obj
 0001:00174a30       ?shiftOrigin@BucketPruner@Gu@physx@@UEAAXAEBV?$PxVec3T@M@3@@Z 0000000180175a30 f   GuBucketPruner.obj
 0001:00174a30       ?shiftOrigin@CompanionPrunerBucket@@UEAAXAEBV?$PxVec3T@M@physx@@@Z 0000000180175a30 f   GuSecondaryPruner.obj
 0001:00174a40       ?shiftOrigin@BucketPrunerCore@Gu@physx@@QEAAXAEBV?$PxVec3T@M@3@@Z 0000000180175a40 f   GuBucketPruner.obj
 0001:00175870       ?sweep@BucketPruner@Gu@physx@@UEBA_NAEBVShapeData@23@AEBV?$PxVec3T@M@3@AEAMAEAUPrunerRaycastCallback@23@@Z 0000000180176870 f   GuBucketPruner.obj
 0001:00175890       ?sweep@BucketPrunerCore@Gu@physx@@QEBA_NAEBVShapeData@23@AEBV?$PxVec3T@M@3@AEAMAEAUPrunerRaycastCallback@23@@Z 0000000180176890 f   GuBucketPruner.obj
 0001:00175960       ?updateObject@BucketPrunerCore@Gu@physx@@QEAA_NAEBVPxBounds3@3@AEBUPrunerPayload@23@AEBV?$PxTransformT@M@3@@Z 0000000180176960 f   GuBucketPruner.obj
 0001:001759c0       ?updateObjects@BucketPruner@Gu@physx@@UEAAXPEBIIM0PEBVPxBounds3@3@PEBUPxTransformPadded@3@@Z 00000001801769c0 f   GuBucketPruner.obj
 0001:00175ad0       ?visualize@BucketPruner@Gu@physx@@UEBAXAEAVPxRenderOutput@3@II@Z 0000000180176ad0 f   GuBucketPruner.obj
 0001:00175ad0       ?visualize@CompanionPrunerBucket@@UEBAXAEAVPxRenderOutput@physx@@I@Z 0000000180176ad0 f   GuSecondaryPruner.obj
 0001:00175ae0       ?visualize@BucketPrunerCore@Gu@physx@@QEBAXAEAVPxRenderOutput@3@I@Z 0000000180176ae0 f   GuBucketPruner.obj
 0001:00175f60       ?addObject@MaverickNode@Gu@physx@@QEAA_NAEBUPrunerPayload@23@IAEBVPxBounds3@3@AEBV?$PxTransformT@M@3@I@Z 0000000180176f60 f   GuMaverickNode.obj
 0001:00176040       ?removeMarkedObjects@MaverickNode@Gu@physx@@QEAAII@Z 0000000180177040 f   GuMaverickNode.obj
 0001:001761d0       ?removeObject@MaverickNode@Gu@physx@@QEAA_NIAEAI@Z 00000001801771d0 f   GuMaverickNode.obj
 0001:00176360       ?shiftOrigin@MaverickNode@Gu@physx@@QEAAXAEBV?$PxVec3T@M@3@@Z 0000000180177360 f   GuMaverickNode.obj
 0001:00176450       ?updateObject@MaverickNode@Gu@physx@@QEAA_NIAEBVPxBounds3@3@AEBV?$PxTransformT@M@3@@Z 0000000180177450 f   GuMaverickNode.obj
 0001:00176530       ??0ExtendedBucketPruner@Gu@physx@@QEAA@_KW4CompanionPrunerType@12@PEBVPruningPool@12@@Z 0000000180177530 f   GuExtendedBucketPruner.obj
 0001:00176760       ??1ExtendedBucketPruner@Gu@physx@@QEAA@XZ 0000000180177760 f   GuExtendedBucketPruner.obj
 0001:001768d0       ??R?$AABBTreeOverlap@$00U?$OBBAABBTests@$00@Gu@physx@@VAABBTree@23@UBVHNode@23@U?$MainTreeOverlapPrunerCallback@U?$OBBAABBTests@$00@Gu@physx@@@@@Gu@physx@@QEAA_NAEBVAABBTreeBounds@12@AEBVAABBTree@12@AEBU?$OBBAABBTests@$00@12@AEAU?$MainTreeOverlapPrunerCallback@U?$OBBAABBTests@$00@Gu@physx@@@@@Z 00000001801778d0 f i GuExtendedBucketPruner.obj
 0001:00176eb0       ??R?$AABBTreeOverlap@$00U?$OBBAABBTests@$00@Gu@physx@@VAABBTree@23@UBVHNode@23@UOverlapCallbackAdapter@23@@Gu@physx@@QEAA_NAEBVAABBTreeBounds@12@AEBVAABBTree@12@AEBU?$OBBAABBTests@$00@12@AEAUOverlapCallbackAdapter@12@@Z 0000000180177eb0 f i GuExtendedBucketPruner.obj
 0001:00177460       ??R?$AABBTreeOverlap@$00UAABBAABBTest@Gu@physx@@VAABBTree@23@UBVHNode@23@U?$MainTreeOverlapPrunerCallback@UAABBAABBTest@Gu@physx@@@@@Gu@physx@@QEAA_NAEBVAABBTreeBounds@12@AEBVAABBTree@12@AEBUAABBAABBTest@12@AEAU?$MainTreeOverlapPrunerCallback@UAABBAABBTest@Gu@physx@@@@@Z 0000000180178460 f i GuExtendedBucketPruner.obj
 0001:00177700       ??R?$AABBTreeOverlap@$00UAABBAABBTest@Gu@physx@@VAABBTree@23@UBVHNode@23@UOverlapCallbackAdapter@23@@Gu@physx@@QEAA_NAEBVAABBTreeBounds@12@AEBVAABBTree@12@AEBUAABBAABBTest@12@AEAUOverlapCallbackAdapter@12@@Z 0000000180178700 f i GuExtendedBucketPruner.obj
 0001:00177990       ??R?$AABBTreeOverlap@$00UCapsuleAABBTest@Gu@physx@@VAABBTree@23@UBVHNode@23@U?$MainTreeOverlapPrunerCallback@UCapsuleAABBTest@Gu@physx@@@@@Gu@physx@@QEAA_NAEBVAABBTreeBounds@12@AEBVAABBTree@12@AEBUCapsuleAABBTest@12@AEAU?$MainTreeOverlapPrunerCallback@UCapsuleAABBTest@Gu@physx@@@@@Z 0000000180178990 f i GuExtendedBucketPruner.obj
 0001:00177d30       ??R?$AABBTreeOverlap@$00UCapsuleAABBTest@Gu@physx@@VAABBTree@23@UBVHNode@23@UOverlapCallbackAdapter@23@@Gu@physx@@QEAA_NAEBVAABBTreeBounds@12@AEBVAABBTree@12@AEBUCapsuleAABBTest@12@AEAUOverlapCallbackAdapter@12@@Z 0000000180178d30 f i GuExtendedBucketPruner.obj
 0001:001780c0       ??R?$AABBTreeOverlap@$00USphereAABBTest@Gu@physx@@VAABBTree@23@UBVHNode@23@U?$MainTreeOverlapPrunerCallback@USphereAABBTest@Gu@physx@@@@@Gu@physx@@QEAA_NAEBVAABBTreeBounds@12@AEBVAABBTree@12@AEBUSphereAABBTest@12@AEAU?$MainTreeOverlapPrunerCallback@USphereAABBTest@Gu@physx@@@@@Z 00000001801790c0 f i GuExtendedBucketPruner.obj
 0001:001783d0       ??R?$AABBTreeOverlap@$00USphereAABBTest@Gu@physx@@VAABBTree@23@UBVHNode@23@UOverlapCallbackAdapter@23@@Gu@physx@@QEAA_NAEBVAABBTreeBounds@12@AEBVAABBTree@12@AEBUSphereAABBTest@12@AEAUOverlapCallbackAdapter@12@@Z 00000001801793d0 f i GuExtendedBucketPruner.obj
 0001:001786c0       ??R?$AABBTreeRaycast@$00$00VAABBTree@Gu@physx@@UBVHNode@23@U?$MainTreeRaycastPrunerCallback@$00@@@Gu@physx@@QEAA_NAEBVAABBTreeBounds@12@AEBVAABBTree@12@AEBV?$PxVec3T@M@2@2AEAM2AEAU?$MainTreeRaycastPrunerCallback@$00@@@Z 00000001801796c0 f i GuExtendedBucketPruner.obj
 0001:00178de0       ??R?$AABBTreeRaycast@$00$00VAABBTree@Gu@physx@@UBVHNode@23@URaycastCallbackAdapter@23@@Gu@physx@@QEAA_NAEBVAABBTreeBounds@12@AEBVAABBTree@12@AEBV?$PxVec3T@M@2@2AEAM2AEAURaycastCallbackAdapter@12@@Z 0000000180179de0 f i GuExtendedBucketPruner.obj
 0001:001794c0       ??R?$AABBTreeRaycast@$0A@$00VAABBTree@Gu@physx@@UBVHNode@23@U?$MainTreeRaycastPrunerCallback@$0A@@@@Gu@physx@@QEAA_NAEBVAABBTreeBounds@12@AEBVAABBTree@12@AEBV?$PxVec3T@M@2@2AEAM2AEAU?$MainTreeRaycastPrunerCallback@$0A@@@@Z 000000018017a4c0 f i GuExtendedBucketPruner.obj
 0001:00179b70       ??R?$AABBTreeRaycast@$0A@$00VAABBTree@Gu@physx@@UBVHNode@23@URaycastCallbackAdapter@23@@Gu@physx@@QEAA_NAEBVAABBTreeBounds@12@AEBVAABBTree@12@AEBV?$PxVec3T@M@2@2AEAM2AEAURaycastCallbackAdapter@12@@Z 000000018017ab70 f i GuExtendedBucketPruner.obj
 0001:0017a1e0       ?addTree@ExtendedBucketPruner@Gu@physx@@QEAAXAEBVAABBTreeMergeData@23@I@Z 000000018017b1e0 f   GuExtendedBucketPruner.obj
 0001:0017a4c0       ?buildMainAABBTree@ExtendedBucketPruner@Gu@physx@@AEAAXXZ 000000018017b4c0 f   GuExtendedBucketPruner.obj
 0001:0017a570       ?create@?$PxHashBase@V?$PxPair@$$CBUPrunerPayload@Gu@physx@@UExtendedBucketPrunerData@23@@physx@@UPrunerPayload@Gu@2@UExtendedBucketPrunerHash@42@UGetKey@?$PxHashMapBase@UPrunerPayload@Gu@physx@@UExtendedBucketPrunerData@23@UExtendedBucketPrunerHash@23@VPxAllocator@3@@2@VPxAllocator@2@$00@physx@@QEAAPEAV?$PxPair@$$CBUPrunerPayload@Gu@physx@@UExtendedBucketPrunerData@23@@2@AEBUPrunerPayload@Gu@2@AEA_N@Z 000000018017b570 f i GuExtendedBucketPruner.obj
 0001:0017a740       ?eraseInternal@?$PxHashBase@V?$PxPair@$$CBUPrunerPayload@Gu@physx@@UExtendedBucketPrunerData@23@@physx@@UPrunerPayload@Gu@2@UExtendedBucketPrunerHash@42@UGetKey@?$PxHashMapBase@UPrunerPayload@Gu@physx@@UExtendedBucketPrunerData@23@UExtendedBucketPrunerHash@23@VPxAllocator@3@@2@VPxAllocator@2@$00@physx@@AEAA_NPEAI@Z 000000018017b740 f i GuExtendedBucketPruner.obj
 0001:0017a860       ?find@?$PxHashMapBase@UPrunerPayload@Gu@physx@@UExtendedBucketPrunerData@23@UExtendedBucketPrunerHash@23@VPxAllocator@3@@physx@@QEBAPEBV?$PxPair@$$CBUPrunerPayload@Gu@physx@@UExtendedBucketPrunerData@23@@2@AEBUPrunerPayload@Gu@2@@Z 000000018017b860 f i GuExtendedBucketPruner.obj
 0001:0017a950       ?getGlobalBounds@ExtendedBucketPruner@Gu@physx@@QEBAXAEAVPxBounds3@3@@Z 000000018017b950 f   GuExtendedBucketPruner.obj
 0001:0017aa20       ?invalidateObject@ExtendedBucketPruner@Gu@physx@@AEAAXAEBUExtendedBucketPrunerData@23@IAEBUPrunerPayload@23@I@Z 000000018017ba20 f   GuExtendedBucketPruner.obj
 0001:0017ab60       ?overlap@ExtendedBucketPruner@Gu@physx@@QEBA_NAEBVShapeData@23@AEAUPrunerOverlapCallback@23@@Z 000000018017bb60 f   GuExtendedBucketPruner.obj
 0001:0017b330       ?raycast@ExtendedBucketPruner@Gu@physx@@QEBA_NAEBV?$PxVec3T@M@3@0AEAMAEAUPrunerRaycastCallback@23@@Z 000000018017c330 f   GuExtendedBucketPruner.obj
 0001:0017b410       ?refitMarkedNodes@ExtendedBucketPruner@Gu@physx@@QEAAXPEBVPxBounds3@3@@Z 000000018017c410 f   GuExtendedBucketPruner.obj
 0001:0017b990       ?release@ExtendedBucketPruner@Gu@physx@@QEAAXXZ 000000018017c990 f   GuExtendedBucketPruner.obj
 0001:0017ba60       ?removeMarkedObjects@ExtendedBucketPruner@Gu@physx@@QEAAII@Z 000000018017ca60 f   GuExtendedBucketPruner.obj
 0001:0017bd80       ?removeObject@ExtendedBucketPruner@Gu@physx@@QEAA_NAEBUPrunerPayload@23@II0I@Z 000000018017cd80 f   GuExtendedBucketPruner.obj
 0001:0017bf70       ?reserveInternal@?$PxHashBase@V?$PxPair@$$CBUPrunerPayload@Gu@physx@@UExtendedBucketPrunerData@23@@physx@@UPrunerPayload@Gu@2@UExtendedBucketPrunerHash@42@UGetKey@?$PxHashMapBase@UPrunerPayload@Gu@physx@@UExtendedBucketPrunerData@23@UExtendedBucketPrunerHash@23@VPxAllocator@3@@2@VPxAllocator@2@$00@physx@@AEAAXI@Z 000000018017cf70 f i GuExtendedBucketPruner.obj
 0001:0017c170       ?shiftOrigin@ExtendedBucketPruner@Gu@physx@@QEAAXAEBV?$PxVec3T@M@3@@Z 000000018017d170 f   GuExtendedBucketPruner.obj
 0001:0017c1f0       ?swapIndex@ExtendedBucketPruner@Gu@physx@@QEAAXIAEBUPrunerPayload@23@I_N@Z 000000018017d1f0 f   GuExtendedBucketPruner.obj
 0001:0017c2c0       ?sweep@ExtendedBucketPruner@Gu@physx@@QEBA_NAEBVShapeData@23@AEBV?$PxVec3T@M@3@AEAMAEAUPrunerRaycastCallback@23@@Z 000000018017d2c0 f   GuExtendedBucketPruner.obj
 0001:0017c450       ?updateObject@ExtendedBucketPruner@Gu@physx@@QEAA_NAEBVPxBounds3@3@AEBV?$PxTransformT@M@3@AEBUPrunerPayload@23@II@Z 000000018017d450 f   GuExtendedBucketPruner.obj
 0001:0017c520       ?visualize@ExtendedBucketPruner@Gu@physx@@QEBAXAEAVPxRenderOutput@3@I@Z 000000018017d520 f   GuExtendedBucketPruner.obj
 0001:0017c5b0       ??0?$OBBAABBTests@$00@Gu@physx@@QEAA@AEBV?$PxVec3T@M@2@AEBV?$PxMat33T@M@2@0@Z 000000018017d5b0 f i GuSecondaryPruner.obj
 0001:0017e4e0       ??_ECompanionPruner@Gu@physx@@UEAAPEAXI@Z 000000018017f4e0 f i GuSecondaryPruner.obj
 0001:0017e4e0       ??_GCompanionPruner@Gu@physx@@UEAAPEAXI@Z 000000018017f4e0 f i GuSecondaryPruner.obj
 0001:0017e530       ??_ECompanionPrunerAABBTree@@UEAAPEAXI@Z 000000018017f530 f i GuSecondaryPruner.obj
 0001:0017e530       ??_GCompanionPrunerAABBTree@@UEAAPEAXI@Z 000000018017f530 f i GuSecondaryPruner.obj
 0001:0017e5e0       ??_ECompanionPrunerBucket@@UEAAPEAXI@Z 000000018017f5e0 f i GuSecondaryPruner.obj
 0001:0017e5e0       ??_GCompanionPrunerBucket@@UEAAPEAXI@Z 000000018017f5e0 f i GuSecondaryPruner.obj
 0001:0017e660       ??_ECompanionPrunerIncremental@@UEAAPEAXI@Z 000000018017f660 f i GuSecondaryPruner.obj
 0001:0017e660       ??_GCompanionPrunerIncremental@@UEAAPEAXI@Z 000000018017f660 f i GuSecondaryPruner.obj
 0001:0017e6e0       ?addObject@CompanionPrunerAABBTree@@UEAA_NAEBUPrunerPayload@Gu@physx@@IAEBVPxBounds3@4@AEBV?$PxTransformT@M@4@II@Z 000000018017f6e0 f   GuSecondaryPruner.obj
 0001:0017e920       ?addObject@CompanionPrunerBucket@@UEAA_NAEBUPrunerPayload@Gu@physx@@IAEBVPxBounds3@4@AEBV?$PxTransformT@M@4@II@Z 000000018017f920 f i GuSecondaryPruner.obj
 0001:0017e940       ?addObject@CompanionPrunerIncremental@@UEAA_NAEBUPrunerPayload@Gu@physx@@IAEBVPxBounds3@4@AEBV?$PxTransformT@M@4@II@Z 000000018017f940 f i GuSecondaryPruner.obj
 0001:0017e960       ?addObjectInternal@CompanionPrunerAABBTree@@QEAA_NII@Z 000000018017f960 f   GuSecondaryPruner.obj
 0001:0017eb00       ?build@CompanionPrunerAABBTree@@UEAAXXZ 000000018017fb00 f   GuSecondaryPruner.obj
 0001:0017efd0       ?createCompanionPruner@Gu@physx@@YAPEAVCompanionPruner@12@_KW4CompanionPrunerType@12@PEBVPruningPool@12@@Z 000000018017ffd0 f   GuSecondaryPruner.obj
 0001:0017f1d0       ?getGlobalBounds@CompanionPrunerAABBTree@@UEBAXAEAVPxBounds3@physx@@@Z 00000001801801d0 f   GuSecondaryPruner.obj
 0001:0017f2c0       ?getGlobalBounds@CompanionPrunerBucket@@UEBAXAEAVPxBounds3@physx@@@Z 00000001801802c0 f i GuSecondaryPruner.obj
 0001:0017f2d0       ?getGlobalBounds@CompanionPrunerIncremental@@UEBAXAEAVPxBounds3@physx@@@Z 00000001801802d0 f i GuSecondaryPruner.obj
 0001:0017f2e0       ?getNbObjects@CompanionPrunerAABBTree@@UEBAIXZ 00000001801802e0 f   GuSecondaryPruner.obj
 0001:0017f2f0       ?getNbObjects@CompanionPrunerBucket@@UEBAIXZ 00000001801802f0 f i GuSecondaryPruner.obj
 0001:0017f300       ?getNbObjects@CompanionPrunerIncremental@@UEBAIXZ 0000000180180300 f i GuSecondaryPruner.obj
 0001:0017f310       ?growAndPushBack@?$PxArray@ULocalData@CompanionPrunerAABBTree@@V?$PxReflectionAllocator@ULocalData@CompanionPrunerAABBTree@@@physx@@@physx@@IEAAAEAULocalData@CompanionPrunerAABBTree@@AEBU34@@Z 0000000180180310 f i GuSecondaryPruner.obj
 0001:0017f430       ?overlap@CompanionPrunerAABBTree@@UEBA_NAEBVShapeData@Gu@physx@@AEAUPrunerOverlapCallback@34@@Z 0000000180180430 f   GuSecondaryPruner.obj
 0001:001803b0       ?overlap@CompanionPrunerBucket@@UEBA_NAEBVShapeData@Gu@physx@@AEAUPrunerOverlapCallback@34@@Z 00000001801813b0 f i GuSecondaryPruner.obj
 0001:001803d0       ?overlap@CompanionPrunerIncremental@@UEBA_NAEBVShapeData@Gu@physx@@AEAUPrunerOverlapCallback@34@@Z 00000001801813d0 f i GuSecondaryPruner.obj
 0001:001803f0       ?raycast@CompanionPrunerAABBTree@@UEBA_NAEBV?$PxVec3T@M@physx@@0AEAMAEAUPrunerRaycastCallback@Gu@3@@Z 00000001801813f0 f   GuSecondaryPruner.obj
 0001:001807d0       ?raycast@CompanionPrunerBucket@@UEBA_NAEBV?$PxVec3T@M@physx@@0AEAMAEAUPrunerRaycastCallback@Gu@3@@Z 00000001801817d0 f i GuSecondaryPruner.obj
 0001:001807f0       ?raycast@CompanionPrunerIncremental@@UEBA_NAEBV?$PxVec3T@M@physx@@0AEAMAEAUPrunerRaycastCallback@Gu@3@@Z 00000001801817f0 f i GuSecondaryPruner.obj
 0001:00180810       ?release@CompanionPrunerAABBTree@@UEAAXXZ 0000000180181810 f   GuSecondaryPruner.obj
 0001:00180820       ?release@CompanionPrunerBucket@@UEAAXXZ 0000000180181820 f i GuSecondaryPruner.obj
 0001:00180830       ?release@CompanionPrunerIncremental@@UEAAXXZ 0000000180181830 f i GuSecondaryPruner.obj
 0001:00180840       ?releaseInternal@CompanionPrunerAABBTree@@QEAAXXZ 0000000180181840 f   GuSecondaryPruner.obj
 0001:001808c0       ?removeMarkedObjects@CompanionPrunerAABBTree@@UEAAII@Z 00000001801818c0 f   GuSecondaryPruner.obj
 0001:001808e0       ?removeMarkedObjects@CompanionPrunerBucket@@UEAAII@Z 00000001801818e0 f i GuSecondaryPruner.obj
 0001:001808f0       ?removeMarkedObjects@CompanionPrunerIncremental@@UEAAII@Z 00000001801818f0 f i GuSecondaryPruner.obj
 0001:00180900       ?removeObject@CompanionPrunerAABBTree@@UEAA_NAEBUPrunerPayload@Gu@physx@@III@Z 0000000180181900 f   GuSecondaryPruner.obj
 0001:001809a0       ?removeObject@CompanionPrunerBucket@@UEAA_NAEBUPrunerPayload@Gu@physx@@III@Z 00000001801819a0 f i GuSecondaryPruner.obj
 0001:001809c0       ?removeObject@CompanionPrunerIncremental@@UEAA_NAEBUPrunerPayload@Gu@physx@@III@Z 00000001801819c0 f i GuSecondaryPruner.obj
 0001:001809e0       ?shiftOrigin@CompanionPrunerAABBTree@@UEAAXAEBV?$PxVec3T@M@physx@@@Z 00000001801819e0 f   GuSecondaryPruner.obj
 0001:00180b10       ?shiftOrigin@CompanionPrunerIncremental@@UEAAXAEBV?$PxVec3T@M@physx@@@Z 0000000180181b10 f i GuSecondaryPruner.obj
 0001:00180b20       ?swapIndex@CompanionPrunerIncremental@@UEAAXII@Z 0000000180181b20 f i GuSecondaryPruner.obj
 0001:00180b30       ?sweep@CompanionPrunerAABBTree@@UEBA_NAEBVShapeData@Gu@physx@@AEBV?$PxVec3T@M@4@AEAMAEAUPrunerRaycastCallback@34@@Z 0000000180181b30 f   GuSecondaryPruner.obj
 0001:00181060       ?sweep@CompanionPrunerBucket@@UEBA_NAEBVShapeData@Gu@physx@@AEBV?$PxVec3T@M@4@AEAMAEAUPrunerRaycastCallback@34@@Z 0000000180182060 f i GuSecondaryPruner.obj
 0001:00181080       ?sweep@CompanionPrunerIncremental@@UEBA_NAEBVShapeData@Gu@physx@@AEBV?$PxVec3T@M@4@AEAMAEAUPrunerRaycastCallback@34@@Z 0000000180182080 f i GuSecondaryPruner.obj
 0001:001810a0       ?timeStampChange@CompanionPrunerIncremental@@UEAAXXZ 00000001801820a0 f i GuSecondaryPruner.obj
 0001:001810c0       ?updateObject@CompanionPrunerAABBTree@@UEAA_NAEBUPrunerPayload@Gu@physx@@IAEBVPxBounds3@4@AEBV?$PxTransformT@M@4@I@Z 00000001801820c0 f   GuSecondaryPruner.obj
 0001:00181140       ?updateObject@CompanionPrunerBucket@@UEAA_NAEBUPrunerPayload@Gu@physx@@IAEBVPxBounds3@4@AEBV?$PxTransformT@M@4@I@Z 0000000180182140 f i GuSecondaryPruner.obj
 0001:00181160       ?updateObject@CompanionPrunerIncremental@@UEAA_NAEBUPrunerPayload@Gu@physx@@IAEBVPxBounds3@4@AEBV?$PxTransformT@M@4@I@Z 0000000180182160 f i GuSecondaryPruner.obj
 0001:00181170       ?visualize@CompanionPrunerAABBTree@@UEBAXAEAVPxRenderOutput@physx@@I@Z 0000000180182170 f   GuSecondaryPruner.obj
 0001:00181190       ?visualize@CompanionPrunerIncremental@@UEBAXAEAVPxRenderOutput@physx@@I@Z 0000000180182190 f i GuSecondaryPruner.obj
 0001:001811a0       ??0AABBPruner@Gu@physx@@QEAA@_N_KW4CompanionPrunerType@12@W4BVHBuildStrategy@12@I@Z 00000001801821a0 f   GuAABBPruner.obj
 0001:001812d0       ??1AABBPruner@Gu@physx@@UEAA@XZ 00000001801822d0 f   GuAABBPruner.obj
 0001:00181430       ??_EAABBPruner@Gu@physx@@UEAAPEAXI@Z 0000000180182430 f i GuAABBPruner.obj
 0001:00181430       ??_GAABBPruner@Gu@physx@@UEAAPEAXI@Z 0000000180182430 f i GuAABBPruner.obj
 0001:001814a0       ?addObjects@AABBPruner@Gu@physx@@UEAA_NPEAIPEBVPxBounds3@3@PEBUPrunerPayload@23@PEBV?$PxTransformT@M@3@I_N@Z 00000001801824a0 f   GuAABBPruner.obj
 0001:00181600       ?buildStep@AABBPruner@Gu@physx@@UEAA_N_N@Z 0000000180182600 f   GuAABBPruner.obj
 0001:00181830       ?commit@AABBPruner@Gu@physx@@UEAAXXZ 0000000180182830 f   GuAABBPruner.obj
 0001:00181bf0       ?getGlobalBounds@AABBPruner@Gu@physx@@UEBAXAEAVPxBounds3@3@@Z 0000000180182bf0 f   GuAABBPruner.obj
 0001:00181d30       ?getPayloadData@AABBPruner@Gu@physx@@UEBAAEBUPrunerPayload@23@IPEAUPrunerPayloadData@23@@Z 0000000180182d30 f i GuAABBPruner.obj
 0001:00181d90       ?growAndPushBack@?$PxArray@UNewTreeFixup@AABBPruner@Gu@physx@@V?$PxReflectionAllocator@UNewTreeFixup@AABBPruner@Gu@physx@@@4@@physx@@IEAAAEAUNewTreeFixup@AABBPruner@Gu@2@AEBU3452@@Z 0000000180182d90 f i GuAABBPruner.obj
 0001:00181eb0       ?isDynamic@AABBPruner@Gu@physx@@UEBA_NXZ 0000000180182eb0 f i GuAABBPruner.obj
 0001:00181ec0       ?merge@AABBPruner@Gu@physx@@UEAAXPEBX@Z 0000000180182ec0 f   GuAABBPruner.obj
 0001:00181f40       ?overlap@AABBPruner@Gu@physx@@UEBA_NAEBVShapeData@23@AEAUPrunerOverlapCallback@23@@Z 0000000180182f40 f   GuAABBPruner.obj
 0001:00182510       ?preallocate@AABBPruner@Gu@physx@@UEAAXI@Z 0000000180183510 f i GuAABBPruner.obj
 0001:00182520       ?prepareBuild@AABBPruner@Gu@physx@@UEAA_NXZ 0000000180183520 f   GuAABBPruner.obj
 0001:001826b0       ?purge@AABBPruner@Gu@physx@@UEAAXXZ 00000001801836b0 f   GuAABBPruner.obj
 0001:001826d0       ?raycast@AABBPruner@Gu@physx@@UEBA_NAEBV?$PxVec3T@M@3@0AEAMAEAUPrunerRaycastCallback@23@@Z 00000001801836d0 f   GuAABBPruner.obj
 0001:001827c0       ?release@AABBPruner@Gu@physx@@QEAAXXZ 00000001801837c0 f   GuAABBPruner.obj
 0001:001828f0       ?removeObjects@AABBPruner@Gu@physx@@UEAAXPEBIIPEAUPrunerPayloadRemovalCallback@23@@Z 00000001801838f0 f   GuAABBPruner.obj
 0001:00182ae0       ?setRebuildRateHint@AABBPruner@Gu@physx@@UEAAXI@Z 0000000180183ae0 f   GuAABBPruner.obj
 0001:00182b00       ?setTransform@AABBPruner@Gu@physx@@UEAA_NIAEBV?$PxTransformT@M@3@@Z 0000000180183b00 f i GuAABBPruner.obj
 0001:00182b60       ?shiftOrigin@AABBPruner@Gu@physx@@UEAAXAEBV?$PxVec3T@M@3@@Z 0000000180183b60 f   GuAABBPruner.obj
 0001:00182bd0       ?sweep@AABBPruner@Gu@physx@@UEBA_NAEBVShapeData@23@AEBV?$PxVec3T@M@3@AEAMAEAUPrunerRaycastCallback@23@@Z 0000000180183bd0 f   GuAABBPruner.obj
 0001:00182d60       ?updateObjects@AABBPruner@Gu@physx@@UEAAXPEBIIM0PEBVPxBounds3@3@PEBUPxTransformPadded@3@@Z 0000000180183d60 f   GuAABBPruner.obj
 0001:00182f00       ?visualize@AABBPruner@Gu@physx@@UEBAXAEAVPxRenderOutput@3@II@Z 0000000180183f00 f   GuAABBPruner.obj
 0001:00182fb0       ??0ActorShapeMap@Gu@physx@@QEAA@XZ 0000000180183fb0 f   GuActorShapeMap.obj
 0001:00183010       ??1ActorShapeMap@Gu@physx@@QEAA@XZ 0000000180184010 f   GuActorShapeMap.obj
 0001:00183070       ?add@ActorShapeMap@Gu@physx@@QEAA_NIPEBX0_K@Z 0000000180184070 f   GuActorShapeMap.obj
 0001:00183210       ?create@?$PxHashBase@V?$PxPair@$$CBUActorShape@ActorShapeMap@Gu@physx@@_K@physx@@UActorShape@ActorShapeMap@Gu@2@U?$PxHash@UActorShape@ActorShapeMap@Gu@physx@@@2@UGetKey@?$PxHashMapBase@UActorShape@ActorShapeMap@Gu@physx@@_KU?$PxHash@UActorShape@ActorShapeMap@Gu@physx@@@4@VPxAllocator@4@@2@VPxAllocator@2@$00@physx@@QEAAPEAV?$PxPair@$$CBUActorShape@ActorShapeMap@Gu@physx@@_K@2@AEBUActorShape@ActorShapeMap@Gu@2@AEA_N@Z 0000000180184210 f i GuActorShapeMap.obj
 0001:00183400       ?eraseInternal@?$PxHashBase@V?$PxPair@$$CBUActorShape@ActorShapeMap@Gu@physx@@_K@physx@@UActorShape@ActorShapeMap@Gu@2@U?$PxHash@UActorShape@ActorShapeMap@Gu@physx@@@2@UGetKey@?$PxHashMapBase@UActorShape@ActorShapeMap@Gu@physx@@_KU?$PxHash@UActorShape@ActorShapeMap@Gu@physx@@@4@VPxAllocator@4@@2@VPxAllocator@2@$00@physx@@AEAA_NPEAI@Z 0000000180184400 f i GuActorShapeMap.obj
 0001:00183510       ?find@ActorShapeMap@Gu@physx@@QEBA_KIPEBX0@Z 0000000180184510 f   GuActorShapeMap.obj
 0001:00183600       ?remove@ActorShapeMap@Gu@physx@@QEAA_NIPEBX0PEA_K@Z 0000000180184600 f   GuActorShapeMap.obj
 0001:00183750       ?reserveInternal@?$PxHashBase@V?$PxPair@$$CBUActorShape@ActorShapeMap@Gu@physx@@_K@physx@@UActorShape@ActorShapeMap@Gu@2@U?$PxHash@UActorShape@ActorShapeMap@Gu@physx@@@2@UGetKey@?$PxHashMapBase@UActorShape@ActorShapeMap@Gu@physx@@_KU?$PxHash@UActorShape@ActorShapeMap@Gu@physx@@@4@VPxAllocator@4@@2@VPxAllocator@2@$00@physx@@AEAAXI@Z 0000000180184750 f i GuActorShapeMap.obj
 0001:00183960       ??0QuerySystem@Gu@physx@@QEAA@_KMAEBVAdapter@12@_N@Z 0000000180184960 f   GuQuerySystem.obj
 0001:00183a30       ??1QuerySystem@Gu@physx@@QEAA@XZ 0000000180184a30 f   GuQuerySystem.obj
 0001:00183c80       ??_GPrunerExt@QuerySystem@Gu@physx@@QEAAPEAXI@Z 0000000180184c80 f i GuQuerySystem.obj
 0001:00183d90       ?addPruner@QuerySystem@Gu@physx@@QEAAIPEAVPruner@23@I@Z 0000000180184d90 f   GuQuerySystem.obj
 0001:00183eb0       ?addPrunerShape@QuerySystem@Gu@physx@@QEAA_KAEBUPrunerPayload@23@I_NAEBV?$PxTransformT@M@3@PEBVPxBounds3@3@@Z 0000000180184eb0 f   GuQuerySystem.obj
 0001:00183ff0       ?addToDirtyList@PrunerExt@QuerySystem@Gu@physx@@QEAAXIIAEBV?$PxTransformT@M@4@PEBVPxBounds3@4@@Z 0000000180184ff0 f   GuQuerySystem.obj
 0001:00184240       ?commitUpdates@QuerySystem@Gu@physx@@QEAAXXZ 0000000180185240 f   GuQuerySystem.obj
 0001:001842f0       ?createTreeOfPruners@QuerySystem@Gu@physx@@QEAAXXZ 00000001801852f0 f   GuQuerySystem.obj
 0001:00184450       ?flushMemory@QuerySystem@Gu@physx@@QEAAXXZ 0000000180185450 f   GuQuerySystem.obj
 0001:001844e0       ?getPayloadData@QuerySystem@Gu@physx@@QEBAAEBUPrunerPayload@23@_KPEAUPrunerPayloadData@23@@Z 00000001801854e0 f   GuQuerySystem.obj
 0001:00184500       ?growAndPushBack@?$PxArray@PEAUPrunerExt@QuerySystem@Gu@physx@@V?$PxReflectionAllocator@PEAUPrunerExt@QuerySystem@Gu@physx@@@4@@physx@@IEAAAEAPEAUPrunerExt@QuerySystem@Gu@2@AEBQEAU3452@@Z 0000000180185500 f i GuQuerySystem.obj
 0001:00184620       ?overlap@QuerySystem@Gu@physx@@QEBAXAEBVShapeData@23@AEAUPrunerOverlapCallback@23@PEBVPrunerFilter@23@@Z 0000000180185620 f   GuQuerySystem.obj
 0001:00184720       ?processDirtyLists@QuerySystem@Gu@physx@@AEAAXXZ 0000000180185720 f   GuQuerySystem.obj
 0001:00184a00       ?raycast@QuerySystem@Gu@physx@@QEBAXAEBV?$PxVec3T@M@3@0AEAMAEAUPrunerRaycastCallback@23@PEBVPrunerFilter@23@@Z 0000000180185a00 f   GuQuerySystem.obj
 0001:00184b40       ?recreate@?$PxArray@UData@PrunerExt@QuerySystem@Gu@physx@@V?$PxReflectionAllocator@UData@PrunerExt@QuerySystem@Gu@physx@@@5@@physx@@IEAAXI@Z 0000000180185b40 f i GuQuerySystem.obj
 0001:00184e30       ?removePruner@QuerySystem@Gu@physx@@QEAAXI@Z 0000000180185e30 f   GuQuerySystem.obj
 0001:00184f10       ?removePrunerShape@QuerySystem@Gu@physx@@QEAAX_KPEAUPrunerPayloadRemovalCallback@23@@Z 0000000180185f10 f   GuQuerySystem.obj
 0001:00185140       ?sweep@QuerySystem@Gu@physx@@QEBAXAEBVShapeData@23@AEBV?$PxVec3T@M@3@AEAMAEAUPrunerRaycastCallback@23@PEBVPrunerFilter@23@@Z 0000000180186140 f   GuQuerySystem.obj
 0001:00185270       ?sync@QuerySystem@Gu@physx@@QEAAXIPEBI0PEBVPxBounds3@3@PEBUPxTransformPadded@3@I@Z 0000000180186270 f   GuQuerySystem.obj
 0001:00185320       ?update@QuerySystem@Gu@physx@@QEAAX_N0@Z 0000000180186320 f   GuQuerySystem.obj
 0001:001853f0       ?updatePrunerShape@QuerySystem@Gu@physx@@QEAAX_K_NAEBV?$PxTransformT@M@3@PEBVPxBounds3@3@@Z 00000001801863f0 f   GuQuerySystem.obj
 0001:001855e0       createAABBPruner           00000001801865e0 f   GuFactory.obj
 0001:001856a0       createBucketPruner         00000001801866a0 f   GuFactory.obj
 0001:00185730       createIncrementalPruner    0000000180186730 f   GuFactory.obj
 0001:001857c0       ??$PxSmallSort@I$$CBUSortBoundsPredicate@physx@@@physx@@YAXPEAIHHAEBUSortBoundsPredicate@0@@Z 00000001801867c0 f i GuRTreeCooking.obj
 0001:00185a60       ??$PxSort@IU?$PxLess@I@physx@@V?$PxReflectionAllocator@I@2@@physx@@YAXPEAIIAEBU?$PxLess@I@0@AEBV?$PxReflectionAllocator@I@0@I@Z 0000000180186a60 f i GuRTreeCooking.obj
 0001:00185eb0       ??$PxSort@IUSortBoundsPredicate@physx@@V?$PxReflectionAllocator@I@2@@physx@@YAXPEAIIAEBUSortBoundsPredicate@0@AEBV?$PxReflectionAllocator@I@0@I@Z 0000000180186eb0 f i GuRTreeCooking.obj
 0001:00186360       ??$quickSelectFirstK@UBoundsLTE@physx@@@quickSelect@physx@@YAXPEIAIIIIAEBUBoundsLTE@1@@Z 0000000180187360 f i GuRTreeCooking.obj
 0001:00186540       ?allocate@?$PxArray@UInterval@physx@@V?$PxInlineAllocator@$0CAAA@V?$PxReflectionAllocator@UInterval@physx@@@physx@@@2@@physx@@IEAAPEAUInterval@2@I@Z 0000000180187540 f i GuRTreeCooking.obj
 0001:00186600       ?allocate@?$PxArray@UPxBounds3V@physx@@V?$PxReflectionAllocator@UPxBounds3V@physx@@@2@@physx@@IEAAPEAUPxBounds3V@2@I@Z 0000000180187600 f i GuRTreeCooking.obj
 0001:00186690       ?allocate@?$PxArray@URTreeNodeNQ@physx@@V?$PxReflectionAllocator@URTreeNodeNQ@physx@@@2@@physx@@IEAAPEAURTreeNodeNQ@2@I@Z 0000000180187690 f i GuRTreeCooking.obj
 0001:00186720       ?allocate@?$PxArray@URTreeNodeQ@Gu@physx@@V?$PxReflectionAllocator@URTreeNodeQ@Gu@physx@@@3@@physx@@IEAAPEAURTreeNodeQ@Gu@2@I@Z 0000000180187720 f i GuRTreeCooking.obj
 0001:00187440       ?buildFromTriangles@RTreeCooker@physx@@SAXAEAURTree@Gu@2@PEBV?$PxVec3T@M@2@IPEBGPEBIIAEAV?$PxArray@IV?$PxReflectionAllocator@I@physx@@@2@PEAURemapCallback@12@MW4Enum@PxMeshCookingHint@2@@Z 0000000180188440 f   GuRTreeCooking.obj
 0001:00187700       ?copy@?$PxArray@URTreeNodeNQ@physx@@V?$PxReflectionAllocator@URTreeNodeNQ@physx@@@2@@physx@@KAXPEAURTreeNodeNQ@2@0PEBU32@@Z 0000000180188700 f i GuRTreeCooking.obj
 0001:001878c0       ?growAndPushBack@?$PxArray@UInterval@physx@@V?$PxInlineAllocator@$0CAAA@V?$PxReflectionAllocator@UInterval@physx@@@physx@@@2@@physx@@IEAAAEAUInterval@2@AEBU32@@Z 00000001801888c0 f i GuRTreeCooking.obj
 0001:001879a0       ?growAndPushBack@?$PxArray@UPxBounds3V@physx@@V?$PxReflectionAllocator@UPxBounds3V@physx@@@2@@physx@@IEAAAEAUPxBounds3V@2@AEBU32@@Z 00000001801889a0 f i GuRTreeCooking.obj
 0001:00187a80       ?growAndPushBack@?$PxArray@URTreeNodeNQ@physx@@V?$PxReflectionAllocator@URTreeNodeNQ@physx@@@2@@physx@@IEAAAEAURTreeNodeNQ@2@AEBU32@@Z 0000000180188a80 f i GuRTreeCooking.obj
 0001:00187b60       ?growAndPushBack@?$PxArray@URTreeNodeQ@Gu@physx@@V?$PxReflectionAllocator@URTreeNodeQ@Gu@physx@@@3@@physx@@IEAAAEAURTreeNodeQ@Gu@2@AEBU342@@Z 0000000180188b60 f i GuRTreeCooking.obj
 0001:00187c50       ?recreate@?$PxArray@UPxBounds3V@physx@@V?$PxReflectionAllocator@UPxBounds3V@physx@@@2@@physx@@IEAAXI@Z 0000000180188c50 f i GuRTreeCooking.obj
 0001:00187d00       ?recreate@?$PxArray@URTreeNodeNQ@physx@@V?$PxReflectionAllocator@URTreeNodeNQ@physx@@@2@@physx@@IEAAXI@Z 0000000180188d00 f i GuRTreeCooking.obj
 0001:00187d90       ?recreate@?$PxArray@URTreeNodeQ@Gu@physx@@V?$PxReflectionAllocator@URTreeNodeQ@Gu@physx@@@3@@physx@@IEAAXI@Z 0000000180188d90 f i GuRTreeCooking.obj
 0001:00187e50       ?resizeUninitialized@?$PxArray@URTreeNodeNQ@physx@@V?$PxReflectionAllocator@URTreeNodeNQ@physx@@@2@@physx@@QEAAXI@Z 0000000180188e50 f i GuRTreeCooking.obj
 0001:00187e90       ?sort4@SubSortQuick@physx@@QEAAXPEIAIIAEAV?$PxArray@URTreeNodeNQ@physx@@V?$PxReflectionAllocator@URTreeNodeNQ@physx@@@2@@2@AEAIAEAUPxBounds3V@2@I@Z 0000000180188e90 f i GuRTreeCooking.obj
 0001:00188220       ?sort4@SubSortSAH@physx@@QEAAXPEAIIAEAV?$PxArray@URTreeNodeNQ@physx@@V?$PxReflectionAllocator@URTreeNodeNQ@physx@@@2@@2@AEAIIPEAURTreeNodeNQ@2@@Z 0000000180189220 f i GuRTreeCooking.obj
 0001:00188af0       ?split@SubSortSAH@physx@@QEAAIPEAII@Z 0000000180189af0 f i GuRTreeCooking.obj
 0001:00189540       cookBVH                    000000018018a540 f   GuCookingBVH.obj
 0001:001896d0       createBVH                  000000018018a6d0 f   GuCookingBVH.obj
 0001:00189860       cookHeightField            000000018018a860 f   GuCookingHF.obj
 0001:00189970       createHeightField          000000018018a970 f   GuCookingHF.obj
 0001:00189fa0       ?isFinite@?$PxVec3T@M@physx@@QEBA_NXZ 000000018018afa0 f i GuCookingConvexMesh.obj
 0001:0018a000       computeHullPolygons        000000018018b000 f   GuCookingConvexMesh.obj
 0001:0018a1e0       cookConvexMesh             000000018018b1e0 f   GuCookingConvexMesh.obj
 0001:0018a350       createConvexMesh           000000018018b350 f   GuCookingConvexMesh.obj
 0001:0018a4f0       validateConvexMesh         000000018018b4f0 f   GuCookingConvexMesh.obj
 0001:0018a610       ??1BV4TriangleMeshBuilder@physx@@UEAA@XZ 000000018018b610 f   GuCookingTriangleMesh.obj
 0001:0018a6a0       ??1RTreeTriangleMeshBuilder@physx@@UEAA@XZ 000000018018b6a0 f   GuCookingTriangleMesh.obj
 0001:0018a710       ??_EBV4TriangleMeshBuilder@physx@@UEAAPEAXI@Z 000000018018b710 f i GuCookingTriangleMesh.obj
 0001:0018a710       ??_GBV4TriangleMeshBuilder@physx@@UEAAPEAXI@Z 000000018018b710 f i GuCookingTriangleMesh.obj
 0001:0018a750       ??_ERTreeTriangleMeshBuilder@physx@@UEAAPEAXI@Z 000000018018b750 f i GuCookingTriangleMesh.obj
 0001:0018a750       ??_GRTreeTriangleMeshBuilder@physx@@UEAAPEAXI@Z 000000018018b750 f i GuCookingTriangleMesh.obj
 0001:0018a790       ??_ETriangleMeshBuilder@physx@@UEAAPEAXI@Z 000000018018b790 f i GuCookingTriangleMesh.obj
 0001:0018a790       ??_GTriangleMeshBuilder@physx@@UEAAPEAXI@Z 000000018018b790 f i GuCookingTriangleMesh.obj
 0001:0018b140       ?buildInertiaTensor@TriangleMeshBuilder@physx@@IEAAX_N@Z 000000018018c140 f   GuCookingTriangleMesh.obj
 0001:0018b2a0       ?buildInertiaTensorFromSDF@TriangleMeshBuilder@physx@@IEAAXXZ 000000018018c2a0 f   GuCookingTriangleMesh.obj
 0001:0018b4e0       ?cleanMesh@TriangleMeshBuilder@physx@@QEAA_N_NPEAW4Enum@PxTriangleMeshCookingResult@2@@Z 000000018018c4e0 f   GuCookingTriangleMesh.obj
 0001:0018b980       ?createGRBMidPhaseAndData@TriangleMeshBuilder@physx@@QEAAXI@Z 000000018018c980 f   GuCookingTriangleMesh.obj
 0001:0018bb30       ?createMidPhaseStructure@BV32TriangleMeshBuilder@physx@@SAXAEBUPxCookingParams@2@AEAVTriangleMeshData@Gu@2@AEAVBV32Tree@52@@Z 000000018018cb30 f   GuCookingTriangleMesh.obj
 0001:0018bd70       ?createMidPhaseStructure@BV4TriangleMeshBuilder@physx@@UEAAXXZ 000000018018cd70 f   GuCookingTriangleMesh.obj
 0001:0018c030       ?createMidPhaseStructure@RTreeTriangleMeshBuilder@physx@@UEAAXXZ 000000018018d030 f   GuCookingTriangleMesh.obj
 0001:0018c120       ?createSharedEdgeData@TriangleMeshBuilder@physx@@QEAAX_N0@Z 000000018018d120 f   GuCookingTriangleMesh.obj
 0001:0018c7d0       ?createVertMapping@TriangleMeshBuilder@physx@@QEAAXXZ 000000018018d7d0 f   GuCookingTriangleMesh.obj
 0001:0018cb30       ?importMesh@TriangleMeshBuilder@physx@@IEAA_NAEBVPxTriangleMeshDesc@2@AEBUPxCookingParams@2@PEAW4Enum@PxTriangleMeshCookingResult@2@_N@Z 000000018018db30 f   GuCookingTriangleMesh.obj
 0001:0018d020       ?isValid@PxTriangleMeshDesc@physx@@QEBA_NXZ 000000018018e020 f i GuCookingTriangleMesh.obj
 0001:0018d0f0       ?loadFromDescInternal@TriangleMeshBuilder@physx@@IEAA_NAEAVPxTriangleMeshDesc@2@PEAW4Enum@PxTriangleMeshCookingResult@2@_N@Z 000000018018e0f0 f   GuCookingTriangleMesh.obj
 0001:0018d310       ?onMeshIndexFormatChange@BV4TriangleMeshBuilder@physx@@UEAAXXZ 000000018018e310 f   GuCookingTriangleMesh.obj
 0001:0018d350       ?remap@RTreeCookerRemap@@UEAAXPEAIII@Z 000000018018e350 f i GuCookingTriangleMesh.obj
 0001:0018d370       ?remapTopology@TriangleMeshBuilder@physx@@QEAAXPEBI@Z 000000018018e370 f   GuCookingTriangleMesh.obj
 0001:0018d610       ?save@TriangleMeshBuilder@physx@@QEBA_NAEAVPxOutputStream@2@_NAEBUPxCookingParams@2@@Z 000000018018e610 f   GuCookingTriangleMesh.obj
 0001:0018ddc0       ?saveMidPhaseStructure@BV32TriangleMeshBuilder@physx@@SAXPEAVBV32Tree@Gu@2@AEAVPxOutputStream@2@_N@Z 000000018018edc0 f   GuCookingTriangleMesh.obj
 0001:0018dfc0       ?saveMidPhaseStructure@BV4TriangleMeshBuilder@physx@@UEBAXAEAVPxOutputStream@2@_N@Z 000000018018efc0 f   GuCookingTriangleMesh.obj
 0001:0018e170       ?saveMidPhaseStructure@RTreeTriangleMeshBuilder@physx@@UEBAXAEAVPxOutputStream@2@_N@Z 000000018018f170 f   GuCookingTriangleMesh.obj
 0001:0018e3b0       cookTriangleMesh           000000018018f3b0 f   GuCookingTriangleMesh.obj
 0001:0018e6c0       createTriangleMesh         000000018018f6c0 f   GuCookingTriangleMesh.obj
 0001:0018e8e0       validateTriangleMesh       000000018018f8e0 f   GuCookingTriangleMesh.obj
 0001:0018eba0       ??0SoftBodyCollisionData@Gu@physx@@QEAA@XZ 000000018018fba0 f i GuCookingTetrahedronMesh.obj
 0001:0018ec00       ??_ECollisionTetrahedronMeshData@Gu@physx@@UEAAPEAXI@Z 000000018018fc00 f i GuCookingTetrahedronMesh.obj
 0001:0018ec00       ??_GCollisionTetrahedronMeshData@Gu@physx@@UEAAPEAXI@Z 000000018018fc00 f i GuCookingTetrahedronMesh.obj
 0001:0018ecd0       ??_EPxCollisionTetrahedronMeshData@physx@@UEAAPEAXI@Z 000000018018fcd0 f i GuCookingTetrahedronMesh.obj
 0001:0018ecd0       ??_GPxCollisionTetrahedronMeshData@physx@@UEAAPEAXI@Z 000000018018fcd0 f i GuCookingTetrahedronMesh.obj
 0001:0018ed20       ??_EPxSimulationTetrahedronMeshData@physx@@UEAAPEAXI@Z 000000018018fd20 f i GuCookingTetrahedronMesh.obj
 0001:0018ed20       ??_GPxSimulationTetrahedronMeshData@physx@@UEAAPEAXI@Z 000000018018fd20 f i GuCookingTetrahedronMesh.obj
 0001:0018ed70       ??_ESimulationTetrahedronMeshData@Gu@physx@@UEAAPEAXI@Z 000000018018fd70 f i GuCookingTetrahedronMesh.obj
 0001:0018ed70       ??_GSimulationTetrahedronMeshData@Gu@physx@@UEAAPEAXI@Z 000000018018fd70 f i GuCookingTetrahedronMesh.obj
 0001:0018ee40       ?combineGridModelPartitions@@YAXAEBVTetrahedronMeshData@Gu@physx@@AEAVSoftBodySimulationData@23@PEAPEAI@Z 000000018018fe40 f   GuCookingTetrahedronMesh.obj
 0001:0018f690       ?combineGridModelPartitionsHexMesh@@YAXAEBVTetrahedronMeshData@Gu@physx@@AEAVSoftBodySimulationData@23@PEAPEAI@Z 0000000180190690 f   GuCookingTetrahedronMesh.obj
 0001:0018ffd0       ?computeCollisionData@TetrahedronMeshBuilder@physx@@SA_NAEBVPxTetrahedronMeshDesc@2@AEAVTetrahedronMeshData@Gu@2@AEAVSoftBodyCollisionData@52@AEBUPxCookingParams@2@_N@Z 0000000180190fd0 f   GuCookingTetrahedronMesh.obj
 0001:00190200       ?computeGridModelTetrahedronPartitions@@YAPEAIAEBVTetrahedronMeshData@Gu@physx@@AEAVSoftBodySimulationData@23@@Z 0000000180191200 f   GuCookingTetrahedronMesh.obj
 0001:001906a0       ?computeModelsMapping@TetrahedronMeshBuilder@physx@@SAXAEAVTetrahedronMeshData@Gu@2@AEBV342@AEBVSoftBodyCollisionData@42@AEAVCollisionMeshMappingData@42@_NPEBUPxBoundedData@2@@Z 00000001801916a0 f   GuCookingTetrahedronMesh.obj
 0001:001912b0       ?computeRestPoseAndPointMass@@YAXPEAU?$TetrahedronT@I@Gu@physx@@IPEBV?$PxVec3T@M@3@PEAMPEAV?$PxMat33T@M@3@@Z 00000001801922b0 f   GuCookingTetrahedronMesh.obj
 0001:001917e0       ?computeSimData@TetrahedronMeshBuilder@physx@@SAXAEBVPxTetrahedronMeshDesc@2@AEAVTetrahedronMeshData@Gu@2@AEAVSoftBodySimulationData@52@AEBUPxCookingParams@2@@Z 00000001801927e0 f   GuCookingTetrahedronMesh.obj
 0001:00191eb0       ?computeTetData@TetrahedronMeshBuilder@physx@@SAXAEBVPxTetrahedronMeshDesc@2@AEAVTetrahedronMeshData@Gu@2@@Z 0000000180192eb0 f   GuCookingTetrahedronMesh.obj
 0001:00191fa0       ?computeTetrahedronPartition@@YAIPEBU?$TetrahedronT@I@Gu@physx@@IPEAII@Z 0000000180192fa0 f   GuCookingTetrahedronMesh.obj
 0001:00192090       ?createCollisionModelMapping@TetrahedronMeshBuilder@physx@@SAXAEBVTetrahedronMeshData@Gu@2@AEBVSoftBodyCollisionData@42@AEAVCollisionMeshMappingData@42@@Z 0000000180193090 f   GuCookingTetrahedronMesh.obj
 0001:00192670       ?createGRBMidPhaseAndData@TetrahedronMeshBuilder@physx@@SAXIAEAVTetrahedronMeshData@Gu@2@AEAVSoftBodyCollisionData@42@AEBUPxCookingParams@2@@Z 0000000180193670 f   GuCookingTetrahedronMesh.obj
 0001:001933b0       ?createMidPhaseStructure@BV32TetrahedronMeshBuilder@physx@@SAXAEBUPxCookingParams@2@AEAVTetrahedronMeshData@Gu@2@AEAVBV32Tree@52@AEAVSoftBodyCollisionData@52@@Z 00000001801943b0 f   GuCookingTetrahedronMesh.obj
 0001:00193680       ?createMidPhaseStructure@TetrahedronMeshBuilder@physx@@SAXAEAVTetrahedronMeshData@Gu@2@AEAVSoftBodyCollisionData@42@AEBUPxCookingParams@2@@Z 0000000180194680 f   GuCookingTetrahedronMesh.obj
 0001:00194350       ?getData@CollisionTetrahedronMeshData@Gu@physx@@UEAAPEAVPxSoftBodyCollisionData@3@XZ 0000000180195350 f i GuCookingTetrahedronMesh.obj
 0001:00194350       ?getData@CollisionTetrahedronMeshData@Gu@physx@@UEBAPEBVPxSoftBodyCollisionData@3@XZ 0000000180195350 f i GuCookingTetrahedronMesh.obj
 0001:00194350       ?getData@SimulationTetrahedronMeshData@Gu@physx@@UEAAPEAVPxSoftBodySimulationData@3@XZ 0000000180195350 f i GuCookingTetrahedronMesh.obj
 0001:00194370       ?importMesh@TetrahedronMeshBuilder@physx@@SA_NAEBVPxTetrahedronMeshDesc@2@AEBUPxCookingParams@2@AEAVTetrahedronMeshData@Gu@2@AEAVSoftBodyCollisionData@62@_N@Z 0000000180195370 f   GuCookingTetrahedronMesh.obj
 0001:00194670       ?isValid@PxTetrahedronMeshDesc@physx@@QEBA_NXZ 0000000180195670 f i GuCookingTetrahedronMesh.obj
 0001:001946e0       ?loadFromDesc@TetrahedronMeshBuilder@physx@@SA_NAEBVPxTetrahedronMeshDesc@2@0VPxSoftBodySimulationDataDesc@2@AEAVTetrahedronMeshData@Gu@2@AEAVSoftBodySimulationData@62@2AEAVSoftBodyCollisionData@62@AEAVCollisionMeshMappingData@62@AEBUPxCookingParams@2@_N@Z 00000001801956e0 f   GuCookingTetrahedronMesh.obj
 0001:00194850       ?release@CollisionTetrahedronMeshData@Gu@physx@@UEAAXXZ 0000000180195850 f i GuCookingTetrahedronMesh.obj
 0001:00194870       ?reserveInternal@?$PxHashBase@V?$PxPair@$$CBVSortedTriangleInds@@I@physx@@VSortedTriangleInds@@USortedTriangleIndsHash@@UGetKey@?$PxHashMapBase@VSortedTriangleInds@@IUSortedTriangleIndsHash@@VPxAllocator@physx@@@2@VPxAllocator@2@$00@physx@@AEAAXI@Z 0000000180195870 f i GuCookingTetrahedronMesh.obj
 0001:00194ab0       ?saveSoftBodyMeshData@TetrahedronMeshBuilder@physx@@SA_NAEAVPxOutputStream@2@_NAEBUPxCookingParams@2@AEBVTetrahedronMeshData@Gu@2@AEBVSoftBodySimulationData@62@3AEBVSoftBodyCollisionData@62@AEBVCollisionMeshMappingData@62@@Z 0000000180195ab0 f   GuCookingTetrahedronMesh.obj
 0001:001951c0       ?saveTetrahedronMeshData@TetrahedronMeshBuilder@physx@@SA_NAEAVPxOutputStream@2@_NAEBUPxCookingParams@2@AEBVTetrahedronMeshData@Gu@2@@Z 00000001801961c0 f   GuCookingTetrahedronMesh.obj
 0001:00195370       ?smoothMassRatiosWhilePreservingTotalMass@@YAXPEAMIPEBIHMM@Z 0000000180196370 f   GuCookingTetrahedronMesh.obj
 0001:00195810       ?support@?$LocalConvex@VTetrahedronV@Gu@physx@@@Gu@physx@@UEBA?AT__m128@@AEBT4@@Z 0000000180196810 f i GuCookingTetrahedronMesh.obj
 0001:001958d0       ?support@?$LocalConvex@VTetrahedronV@Gu@physx@@@Gu@physx@@UEBA?AT__m128@@AEBT4@AEAH@Z 00000001801968d0 f i GuCookingTetrahedronMesh.obj
 0001:00195a80       assembleSoftBodyMesh       0000000180196a80 f   GuCookingTetrahedronMesh.obj
 0001:00195ae0       assembleSoftBodyMesh_Sim   0000000180196ae0 f   GuCookingTetrahedronMesh.obj
 0001:00195b90       computeCollisionData       0000000180196b90 f   GuCookingTetrahedronMesh.obj
 0001:00195d90       computeModelsMapping       0000000180196d90 f   GuCookingTetrahedronMesh.obj
 0001:00195e90       computeSimulationData      0000000180196e90 f   GuCookingTetrahedronMesh.obj
 0001:00196060       cookSoftBodyMesh           0000000180197060 f   GuCookingTetrahedronMesh.obj
 0001:00196680       cookTetrahedronMesh        0000000180197680 f   GuCookingTetrahedronMesh.obj
 0001:00196770       createSoftBodyMesh         0000000180197770 f   GuCookingTetrahedronMesh.obj
 0001:00196e10       createTetrahedronMesh      0000000180197e10 f   GuCookingTetrahedronMesh.obj
 0001:00198af0       ?computeVolumeIntegrals@physx@@YA_NAEBVPxSimpleTriangleMesh@1@MAEAUPxIntegrals@1@@Z 0000000180199af0 f   GuCookingVolumeIntegration.obj
 0001:00198b30       ?computeVolumeIntegralsEberly@physx@@YA_NAEBVPxConvexMeshDesc@1@MAEAUPxIntegrals@1@AEBV?$PxVec3T@M@1@_N@Z 0000000180199b30 f   GuCookingVolumeIntegration.obj
 0001:00199190       ??0QuickHull@local@@QEAA@AEBUPxCookingParams@physx@@AEBVPxConvexMeshDesc@3@@Z 000000018019a190 f   GuCookingQuickHullConvexHullLib.obj
 0001:00199240       ??0QuickHullConvexHullLib@physx@@QEAA@AEBVPxConvexMeshDesc@1@AEBUPxCookingParams@1@@Z 000000018019a240 f   GuCookingQuickHullConvexHullLib.obj
 0001:00199320       ??1?$MemBlock@UQuickHullFace@local@@$00@local@@QEAA@XZ 000000018019a320 f i GuCookingQuickHullConvexHullLib.obj
 0001:00199320       ??1?$MemBlock@UQuickHullHalfEdge@local@@$0A@@local@@QEAA@XZ 000000018019a320 f i GuCookingQuickHullConvexHullLib.obj
 0001:001993e0       ??1QuickHull@local@@QEAA@XZ 000000018019a3e0 f   GuCookingQuickHullConvexHullLib.obj
 0001:00199540       ??_GConvexHull@physx@@QEAAPEAXI@Z 000000018019a540 f i GuCookingQuickHullConvexHullLib.obj
 0001:00199630       ??_EConvexHullLib@physx@@UEAAPEAXI@Z 000000018019a630 f i GuCookingQuickHullConvexHullLib.obj
 0001:00199630       ??_GConvexHullLib@physx@@UEAAPEAXI@Z 000000018019a630 f i GuCookingQuickHullConvexHullLib.obj
 0001:00199670       ??_EQuickHullConvexHullLib@physx@@UEAAPEAXI@Z 000000018019a670 f i GuCookingQuickHullConvexHullLib.obj
 0001:00199670       ??_GQuickHullConvexHullLib@physx@@UEAAPEAXI@Z 000000018019a670 f i GuCookingQuickHullConvexHullLib.obj
 0001:00199790       ?addPointToHull@QuickHull@local@@IEAA_NPEBUQuickHullVertex@2@AEAUQuickHullFace@2@AEA_N@Z 000000018019a790 f   GuCookingQuickHullConvexHullLib.obj
 0001:00199a60       ?addSimplex@QuickHull@local@@IEAAXPEAUQuickHullVertex@2@_N@Z 000000018019aa60 f   GuCookingQuickHullConvexHullLib.obj
 0001:00199fa0       ?allocate@?$PxArray@PEAUQuickHullFace@local@@V?$PxReflectionAllocator@PEAUQuickHullFace@local@@@physx@@@physx@@IEAAPEAPEAUQuickHullFace@local@@I@Z 000000018019afa0 f i GuCookingQuickHullConvexHullLib.obj
 0001:0019a030       ?allocate@?$PxArray@PEAUQuickHullHalfEdge@local@@V?$PxReflectionAllocator@PEAUQuickHullHalfEdge@local@@@physx@@@physx@@IEAAPEAPEAUQuickHullHalfEdge@local@@I@Z 000000018019b030 f i GuCookingQuickHullConvexHullLib.obj
 0001:0019a0c0       ?allocate@?$PxArray@PEAUQuickHullVertex@local@@V?$PxReflectionAllocator@PEAUQuickHullVertex@local@@@physx@@@physx@@IEAAPEAPEAUQuickHullVertex@local@@I@Z 000000018019b0c0 f i GuCookingQuickHullConvexHullLib.obj
 0001:0019a150       ?allocate@?$PxArray@UExpandPoint@local@@V?$PxReflectionAllocator@UExpandPoint@local@@@physx@@@physx@@IEAAPEAUExpandPoint@local@@I@Z 000000018019b150 f i GuCookingQuickHullConvexHullLib.obj
 0001:0019a1e0       ?allocate@?$PxArray@VPxPlane@physx@@V?$PxReflectionAllocator@VPxPlane@physx@@@2@@physx@@IEAAPEAVPxPlane@2@I@Z 000000018019b1e0 f i GuCookingQuickHullConvexHullLib.obj
 0001:0019a270       ?buildHull@QuickHull@local@@QEAA?AW4Enum@QuickHullResult@2@XZ 000000018019b270 f   GuCookingQuickHullConvexHullLib.obj
 0001:0019a4c0       ?calculateHorizon@QuickHull@local@@IEAAXAEBV?$PxVec3T@M@physx@@PEAUQuickHullHalfEdge@2@AEAUQuickHullFace@2@AEAV?$PxArray@PEAUQuickHullHalfEdge@local@@V?$PxReflectionAllocator@PEAUQuickHullHalfEdge@local@@@physx@@@4@AEAV?$PxArray@PEAUQuickHullFace@local@@V?$PxReflectionAllocator@PEAUQuickHullFace@local@@@physx@@@4@@Z 000000018019b4c0 f   GuCookingQuickHullConvexHullLib.obj
 0001:0019a670       ?canMergeFaces@QuickHull@local@@IEAA_NAEBUQuickHullHalfEdge@2@@Z 000000018019b670 f   GuCookingQuickHullConvexHullLib.obj
 0001:0019aea0       ?cleanupForSimplex@QuickHullConvexHullLib@physx@@IEAA_NPEAV?$PxVec3T@M@2@IPEAUQuickHullVertex@local@@1AEAM2@Z 000000018019bea0 f   GuCookingQuickHullConvexHullLib.obj
 0001:0019bac0       ?computeMinMaxVerts@QuickHull@local@@IEAAXXZ 000000018019cac0 f   GuCookingQuickHullConvexHullLib.obj
 0001:0019be90       ?connectHalfEdges@QuickHullFace@local@@AEAAPEAU12@PEAUQuickHullHalfEdge@2@0@Z 000000018019ce90 f   GuCookingQuickHullConvexHullLib.obj
 0001:0019c200       ?copy@?$PxArray@UExpandPoint@local@@V?$PxReflectionAllocator@UExpandPoint@local@@@physx@@@physx@@KAXPEAUExpandPoint@local@@0PEBU34@@Z 000000018019d200 f i GuCookingQuickHullConvexHullLib.obj
 0001:0019c2b0       ?copy@?$PxArray@VPxPlane@physx@@V?$PxReflectionAllocator@VPxPlane@physx@@@2@@physx@@KAXPEAVPxPlane@2@0PEBV32@@Z 000000018019d2b0 f i GuCookingQuickHullConvexHullLib.obj
 0001:0019c3b0       ?createConvexHull@QuickHullConvexHullLib@physx@@UEAA?AW4Enum@PxConvexMeshCookingResult@2@XZ 000000018019d3b0 f   GuCookingQuickHullConvexHullLib.obj
 0001:0019c7c0       ?createEdgeList@QuickHullConvexHullLib@physx@@UEAA_NIPEBEPEAPEAEPEAPEAG2@Z 000000018019d7c0 f   GuCookingQuickHullConvexHullLib.obj
 0001:0019c9e0       ?createTriangle@QuickHull@local@@IEAAPEAUQuickHullFace@2@AEBUQuickHullVertex@2@00@Z 000000018019d9e0 f   GuCookingQuickHullConvexHullLib.obj
 0001:0019cdc0       ?doAdjacentMerge@QuickHull@local@@IEAA_NAEAUQuickHullFace@2@_NAEA_N@Z 000000018019ddc0 f   GuCookingQuickHullConvexHullLib.obj
 0001:0019d110       ?expandHull@QuickHullConvexHullLib@physx@@IEAA?AW4Enum@PxConvexMeshCookingResult@2@XZ 000000018019e110 f   GuCookingQuickHullConvexHullLib.obj
 0001:0019da50       ?expandHullOBB@QuickHullConvexHullLib@physx@@IEAA?AW4Enum@PxConvexMeshCookingResult@2@XZ 000000018019ea50 f   GuCookingQuickHullConvexHullLib.obj
 0001:0019de90       ?fillConvexMeshDesc@QuickHullConvexHullLib@physx@@UEAAXAEAVPxConvexMeshDesc@2@@Z 000000018019ee90 f   GuCookingQuickHullConvexHullLib.obj
 0001:0019dee0       ?fillConvexMeshDescFromCroppedHull@QuickHullConvexHullLib@physx@@IEAAXAEAVPxConvexMeshDesc@2@@Z 000000018019eee0 f   GuCookingQuickHullConvexHullLib.obj
 0001:0019e0d0       ?fillConvexMeshDescFromQuickHull@QuickHullConvexHullLib@physx@@IEAAXAEAVPxConvexMeshDesc@2@@Z 000000018019f0d0 f   GuCookingQuickHullConvexHullLib.obj
 0001:0019e450       ?findSimplex@QuickHull@local@@IEAA_NXZ 000000018019f450 f   GuCookingQuickHullConvexHullLib.obj
 0001:0019f0d0       ?getFreeItem@?$MemBlock@UQuickHullFace@local@@$00@local@@QEAAPEAUQuickHullFace@2@XZ 00000001801a00d0 f i GuCookingQuickHullConvexHullLib.obj
 0001:0019f200       ?getFreeItem@?$MemBlock@UQuickHullHalfEdge@local@@$0A@@local@@QEAAPEAUQuickHullHalfEdge@2@XZ 00000001801a0200 f i GuCookingQuickHullConvexHullLib.obj
 0001:0019f2d0       ?growAndPushBack@?$PxArray@PEAUQuickHullFace@local@@V?$PxReflectionAllocator@PEAUQuickHullFace@local@@@physx@@@physx@@IEAAAEAPEAUQuickHullFace@local@@AEBQEAU34@@Z 00000001801a02d0 f i GuCookingQuickHullConvexHullLib.obj
 0001:0019f390       ?growAndPushBack@?$PxArray@PEAUQuickHullHalfEdge@local@@V?$PxReflectionAllocator@PEAUQuickHullHalfEdge@local@@@physx@@@physx@@IEAAAEAPEAUQuickHullHalfEdge@local@@AEBQEAU34@@Z 00000001801a0390 f i GuCookingQuickHullConvexHullLib.obj
 0001:0019f450       ?growAndPushBack@?$PxArray@PEAUQuickHullVertex@local@@V?$PxReflectionAllocator@PEAUQuickHullVertex@local@@@physx@@@physx@@IEAAAEAPEAUQuickHullVertex@local@@AEBQEAU34@@Z 00000001801a0450 f i GuCookingQuickHullConvexHullLib.obj
 0001:0019f510       ?growAndPushBack@?$PxArray@UExpandPoint@local@@V?$PxReflectionAllocator@UExpandPoint@local@@@physx@@@physx@@IEAAAEAUExpandPoint@local@@AEBU34@@Z 00000001801a0510 f i GuCookingQuickHullConvexHullLib.obj
 0001:0019f610       ?growAndPushBack@?$PxArray@VPxPlane@physx@@V?$PxReflectionAllocator@VPxPlane@physx@@@2@@physx@@IEAAAEAVPxPlane@2@AEBV32@@Z 00000001801a0610 f i GuCookingQuickHullConvexHullLib.obj
 0001:0019f6d0       ?init@?$MemBlock@UQuickHullFace@local@@$00@local@@QEAAXI@Z 00000001801a06d0 f i GuCookingQuickHullConvexHullLib.obj
 0001:0019f7d0       ?init@?$MemBlock@UQuickHullHalfEdge@local@@$0A@@local@@QEAAXI@Z 00000001801a07d0 f i GuCookingQuickHullConvexHullLib.obj
 0001:0019f870       ?mergeAdjacentFace@QuickHullFace@local@@QEAA_NPEAUQuickHullHalfEdge@2@AEAV?$PxArray@PEAUQuickHullFace@local@@V?$PxReflectionAllocator@PEAUQuickHullFace@local@@@physx@@@physx@@@Z 00000001801a0870 f   GuCookingQuickHullConvexHullLib.obj
 0001:0019fcd0       ?nextPointToAdd@QuickHull@local@@IEAAPEAUQuickHullVertex@2@AEAPEAUQuickHullFace@2@@Z 00000001801a0cd0 f   GuCookingQuickHullConvexHullLib.obj
 0001:0019fe50       ?parseInputVertices@QuickHull@local@@QEAAXPEBV?$PxVec3T@M@physx@@I@Z 00000001801a0e50 f   GuCookingQuickHullConvexHullLib.obj
 0001:0019ffd0       ?postMergeHull@QuickHull@local@@IEAAXXZ 00000001801a0fd0 f   GuCookingQuickHullConvexHullLib.obj
 0001:001a0230       ?preallocate@QuickHull@local@@QEAAXI@Z 00000001801a1230 f   GuCookingQuickHullConvexHullLib.obj
 0001:001a0370       ?recreate@?$PxArray@PEAUQuickHullFace@local@@V?$PxReflectionAllocator@PEAUQuickHullFace@local@@@physx@@@physx@@IEAAXI@Z 00000001801a1370 f i GuCookingQuickHullConvexHullLib.obj
 0001:001a0410       ?recreate@?$PxArray@PEAUQuickHullHalfEdge@local@@V?$PxReflectionAllocator@PEAUQuickHullHalfEdge@local@@@physx@@@physx@@IEAAXI@Z 00000001801a1410 f i GuCookingQuickHullConvexHullLib.obj
 0001:001a04b0       ?recreate@?$PxArray@PEAUQuickHullVertex@local@@V?$PxReflectionAllocator@PEAUQuickHullVertex@local@@@physx@@@physx@@IEAAXI@Z 00000001801a14b0 f i GuCookingQuickHullConvexHullLib.obj
 0001:001a0550       ?recreate@?$PxArray@UExpandPoint@local@@V?$PxReflectionAllocator@UExpandPoint@local@@@physx@@@physx@@IEAAXI@Z 00000001801a1550 f i GuCookingQuickHullConvexHullLib.obj
 0001:001a05e0       ?recreate@?$PxArray@VPxPlane@physx@@V?$PxReflectionAllocator@VPxPlane@physx@@@2@@physx@@IEAAXI@Z 00000001801a15e0 f i GuCookingQuickHullConvexHullLib.obj
 0001:001a0670       ?resolveUnclaimedPoints@QuickHull@local@@IEAAXAEBV?$PxArray@PEAUQuickHullFace@local@@V?$PxReflectionAllocator@PEAUQuickHullFace@local@@@physx@@@physx@@@Z 00000001801a1670 f   GuCookingQuickHullConvexHullLib.obj
 0001:001a08f0       ??$copy@V?$PxReflectionAllocator@VPair@@@physx@@@?$PxArray@VPair@@V?$PxReflectionAllocator@VPair@@@physx@@@physx@@IEAAXAEBV01@@Z 00000001801a18f0 f i GuCookingConvexPolygonsBuilder.obj
 0001:001a0970       ??0ConvexPolygonsBuilder@physx@@QEAA@PEAUConvexHullData@Gu@1@_N@Z 00000001801a1970 f   GuCookingConvexPolygonsBuilder.obj
 0001:001a0990       ??1ConvexPolygonsBuilder@physx@@QEAA@XZ 00000001801a1990 f   GuCookingConvexPolygonsBuilder.obj
 0001:001a11e0       ?allocate@?$PxArray@VPair@@V?$PxReflectionAllocator@VPair@@@physx@@@physx@@IEAAPEAVPair@@I@Z 00000001801a21e0 f i GuCookingConvexPolygonsBuilder.obj
 0001:001a1cc0       ?computeHullPolygons@ConvexPolygonsBuilder@physx@@QEAA_NAEBIPEBV?$PxVec3T@M@2@0PEBI@Z 00000001801a2cc0 f   GuCookingConvexPolygonsBuilder.obj
 0001:001a2f80       ?createPolygonData@ConvexPolygonsBuilder@physx@@AEAA_NXZ 00000001801a3f80 f   GuCookingConvexPolygonsBuilder.obj
 0001:001a39e0       ?createTrianglesFromPolygons@ConvexPolygonsBuilder@physx@@AEAA_NXZ 00000001801a49e0 f   GuCookingConvexPolygonsBuilder.obj
 0001:001a5060       ?growAndPushBack@?$PxArray@VPair@@V?$PxReflectionAllocator@VPair@@@physx@@@physx@@IEAAAEAVPair@@AEBV3@@Z 00000001801a6060 f i GuCookingConvexPolygonsBuilder.obj
 0001:001a51f0       ??0ConvexMeshBuilder@physx@@QEAA@_N@Z 00000001801a61f0 f   GuCookingConvexMeshBuilder.obj
 0001:001a5260       ??1ConvexMeshBuilder@physx@@QEAA@XZ 00000001801a6260 f   GuCookingConvexMeshBuilder.obj
 0001:001a56f0       ?build@ConvexMeshBuilder@physx@@QEAA_NAEBVPxConvexMeshDesc@2@I_NPEAVConvexHullLib@2@@Z 00000001801a66f0 f   GuCookingConvexMeshBuilder.obj
 0001:001a5a80       ?computeHullPolygons@ConvexMeshBuilder@physx@@QEAA_NAEBIPEBV?$PxVec3T@M@2@0PEBIAEAVPxAllocatorCallback@2@AEAIAEAPEAV32@4AEAPEAI4AEAPEAUPxHullPolygon@2@@Z 00000001801a6a80 f   GuCookingConvexMeshBuilder.obj
 0001:001a5c90       ?computeMassInfo@ConvexMeshBuilder@physx@@QEAAX_N@Z 00000001801a6c90 f   GuCookingConvexMeshBuilder.obj
 0001:001a6020       ?computeSDF@ConvexMeshBuilder@physx@@QEAAXAEBVPxConvexMeshDesc@2@@Z 00000001801a7020 f   GuCookingConvexMeshBuilder.obj
 0001:001a6430       ?copy@ConvexMeshBuilder@physx@@QEAA_NAEAUConvexHullInitData@Gu@2@@Z 00000001801a7430 f   GuCookingConvexMeshBuilder.obj
 0001:001a6590       ?loadConvexHull@ConvexMeshBuilder@physx@@QEAA_NAEBVPxConvexMeshDesc@2@PEAVConvexHullLib@2@@Z 00000001801a7590 f   GuCookingConvexMeshBuilder.obj
 0001:001a67e0       ?save@ConvexMeshBuilder@physx@@QEBA_NAEAVPxOutputStream@2@_N@Z 00000001801a77e0 f   GuCookingConvexMeshBuilder.obj
 0001:001a6c00       ??0ConvexHull@physx@@QEAA@AEBV?$PxVec3T@M@1@AEBV?$PxTransformT@M@1@AEBV?$PxArray@VPxPlane@physx@@V?$PxReflectionAllocator@VPxPlane@physx@@@2@@1@@Z 00000001801a7c00 f   GuCookingConvexHullUtils.obj
 0001:001a7d20       ?allocate@?$PxArray@VHalfEdge@ConvexHull@physx@@V?$PxReflectionAllocator@VHalfEdge@ConvexHull@physx@@@3@@physx@@IEAAPEAVHalfEdge@ConvexHull@2@I@Z 00000001801a8d20 f i GuCookingConvexHullUtils.obj
 0001:001a7db0       ?assertIntact@ConvexHull@physx@@QEBA_NM@Z 00000001801a8db0 f   GuCookingConvexHullUtils.obj
 0001:001a80d0       ?computeOBBFromConvex@physx@@YA_NAEBVPxConvexMeshDesc@1@AEAV?$PxVec3T@M@1@AEAV?$PxTransformT@M@1@@Z 00000001801a90d0 f   GuCookingConvexHullUtils.obj
 0001:001a8730       ?computeOBBSIMD@local@@YAXIPEBT__m128@@AEAT2@AEBT2@1@Z 00000001801a9730 f   GuCookingConvexHullUtils.obj
 0001:001a8ae0       ?convexHullCrop@physx@@YAPEAVConvexHull@1@AEBV21@AEBVPxPlane@1@M@Z 00000001801a9ae0 f   GuCookingConvexHullUtils.obj
 0001:001a98e0       ?findCandidatePlane@ConvexHull@physx@@QEBAHMM@Z 00000001801aa8e0 f   GuCookingConvexHullUtils.obj
 0001:001a9d30       ?growAndPushBack@?$PxArray@VHalfEdge@ConvexHull@physx@@V?$PxReflectionAllocator@VHalfEdge@ConvexHull@physx@@@3@@physx@@IEAAAEAVHalfEdge@ConvexHull@2@AEBV342@@Z 00000001801aad30 f i GuCookingConvexHullUtils.obj
 0001:001a9df0       ?maxNumVertsPerFace@ConvexHull@physx@@QEBAIXZ 00000001801aadf0 f   GuCookingConvexHullUtils.obj
 0001:001a9e60       ?recreate@?$PxArray@VHalfEdge@ConvexHull@physx@@V?$PxReflectionAllocator@VHalfEdge@ConvexHull@physx@@@3@@physx@@IEAAXI@Z 00000001801aae60 f i GuCookingConvexHullUtils.obj
 0001:001a9f00       ?resize@?$PxArray@VHalfEdge@ConvexHull@physx@@V?$PxReflectionAllocator@VHalfEdge@ConvexHull@physx@@@3@@physx@@QEAAXIAEBVHalfEdge@ConvexHull@2@@Z 00000001801aaf00 f i GuCookingConvexHullUtils.obj
 0001:001a9fc0       ?resize@?$PxArray@VPxPlane@physx@@V?$PxReflectionAllocator@VPxPlane@physx@@@2@@physx@@QEAAXIAEBVPxPlane@2@@Z 00000001801aafc0 f i GuCookingConvexHullUtils.obj
 0001:001aa0e0       ??1ConvexHullLib@physx@@UEAA@XZ 00000001801ab0e0 f   GuCookingConvexHullLib.obj
 0001:001aa6d0       ?cleanupVertices@ConvexHullLib@physx@@IEAA_NIPEBV?$PxVec3T@M@2@IAEAIPEAV32@@Z 00000001801ab6d0 f   GuCookingConvexHullLib.obj
 0001:001aa810       ?shiftAndcleanupVertices@ConvexHullLib@physx@@IEAA_NIPEBV?$PxVec3T@M@2@IAEAIPEAV32@@Z 00000001801ab810 f   GuCookingConvexHullLib.obj
 0001:001aadf0       ?shiftConvexMeshDesc@ConvexHullLib@physx@@IEAAXAEAVPxConvexMeshDesc@2@@Z 00000001801abdf0 f   GuCookingConvexHullLib.obj
 0001:001aaeb0       ?swapLargestFace@ConvexHullLib@physx@@IEAAXAEAVPxConvexMeshDesc@2@@Z 00000001801abeb0 f   GuCookingConvexHullLib.obj
 0001:001ab0e0       ??0ConvexHullBuilder@physx@@QEAA@PEAUConvexHullData@Gu@1@_N@Z 00000001801ac0e0 f   GuCookingConvexHullBuilder.obj
 0001:001ab110       ??1ConvexHullBuilder@physx@@QEAA@XZ 00000001801ac110 f   GuCookingConvexHullBuilder.obj
 0001:001ab220       ?calculateVertexMapTable@ConvexHullBuilder@physx@@QEAA_NI_N@Z 00000001801ac220 f   GuCookingConvexHullBuilder.obj
 0001:001ab3e0       ?checkHullPolygons@ConvexHullBuilder@physx@@QEBA_NXZ 00000001801ac3e0 f   GuCookingConvexHullBuilder.obj
 0001:001abb80       ?copy@ConvexHullBuilder@physx@@QEAA_NAEAUConvexHullData@Gu@2@AEAI@Z 00000001801acb80 f   GuCookingConvexHullBuilder.obj
 0001:001abdf0       ?createEdgeList@ConvexHullBuilder@physx@@QEAA_N_NI@Z 00000001801acdf0 f   GuCookingConvexHullBuilder.obj
 0001:001ac530       ?init@ConvexHullBuilder@physx@@QEAA_NIPEBV?$PxVec3T@M@2@PEBIIIPEBUPxHullPolygon@2@_NPEAVConvexHullLib@2@@Z 00000001801ad530 f   GuCookingConvexHullBuilder.obj
 0001:001ace80       ?save@ConvexHullBuilder@physx@@QEBA_NAEAVPxOutputStream@2@_N@Z 00000001801ade80 f   GuCookingConvexHullBuilder.obj
 0001:001ad1a0       ??0BigConvexDataBuilder@physx@@QEAA@PEBUConvexHullData@Gu@1@PEAVBigConvexData@1@PEBV?$PxVec3T@M@1@@Z 00000001801ae1a0 f   GuCookingBigConvexDataBuilder.obj
 0001:001ad1b0       ?computeValencies@BigConvexDataBuilder@physx@@QEAA_NAEBVConvexHullBuilder@2@@Z 00000001801ae1b0 f   GuCookingBigConvexDataBuilder.obj
 0001:001ad5a0       ?precompute@BigConvexDataBuilder@physx@@QEAA_NI@Z 00000001801ae5a0 f   GuCookingBigConvexDataBuilder.obj
 0001:001ae1a0       ?save@BigConvexDataBuilder@physx@@QEBA_NAEAVPxOutputStream@2@_N@Z 00000001801af1a0 f   GuCookingBigConvexDataBuilder.obj
 0001:001ae38e       __imp_load_PxGetFoundation 00000001801af38e f   PhysXFoundation_64:PhysXFoundation_64.dll
 0001:001ae39a       __tailMerge_physxfoundation_64_dll 00000001801af39a     PhysXFoundation_64:PhysXFoundation_64.dll
 0001:001ae413       __imp_load_PxGetBroadcastAllocator 00000001801af413 f   PhysXFoundation_64:PhysXFoundation_64.dll
 0001:001ae41f       __imp_load_?PxAtomicIncrement@physx@@YAHPECH@Z 00000001801af41f f   PhysXFoundation_64:PhysXFoundation_64.dll
 0001:001ae42b       __imp_load_??0PxMutexImpl@physx@@QEAA@XZ 00000001801af42b f   PhysXFoundation_64:PhysXFoundation_64.dll
 0001:001ae437       __imp_load_??1PxMutexImpl@physx@@QEAA@XZ 00000001801af437 f   PhysXFoundation_64:PhysXFoundation_64.dll
 0001:001ae443       __imp_load_?lock@PxMutexImpl@physx@@QEAAXXZ 00000001801af443 f   PhysXFoundation_64:PhysXFoundation_64.dll
 0001:001ae44f       __imp_load_?unlock@PxMutexImpl@physx@@QEAAXXZ 00000001801af44f f   PhysXFoundation_64:PhysXFoundation_64.dll
 0001:001ae45b       __imp_load_?getSize@PxMutexImpl@physx@@SAIXZ 00000001801af45b f   PhysXFoundation_64:PhysXFoundation_64.dll
 0001:001ae467       __imp_load_?PxAtomicDecrement@physx@@YAHPECH@Z 00000001801af467 f   PhysXFoundation_64:PhysXFoundation_64.dll
 0001:001ae473       __imp_load_?PxTransformFromSegment@physx@@YA?AV?$PxTransformT@M@1@AEBV?$PxVec3T@M@1@0PEAM@Z 00000001801af473 f   PhysXFoundation_64:PhysXFoundation_64.dll
 0001:001ae47f       __imp_load_?PxAtomicAdd@physx@@YAHPECHH@Z 00000001801af47f f   PhysXFoundation_64:PhysXFoundation_64.dll
 0001:001ae48b       __imp_load_?getDefaultStackSize@PxThreadImpl@physx@@SAIXZ 00000001801af48b f   PhysXFoundation_64:PhysXFoundation_64.dll
 0001:001ae497       __imp_load_??0PxThreadImpl@physx@@QEAA@P6APEAXPEAX@Z0PEBD@Z 00000001801af497 f   PhysXFoundation_64:PhysXFoundation_64.dll
 0001:001ae4a3       __imp_load_??1PxThreadImpl@physx@@QEAA@XZ 00000001801af4a3 f   PhysXFoundation_64:PhysXFoundation_64.dll
 0001:001ae4af       __imp_load_?start@PxThreadImpl@physx@@QEAAXIPEAVPxRunnable@2@@Z 00000001801af4af f   PhysXFoundation_64:PhysXFoundation_64.dll
 0001:001ae4bb       __imp_load_?waitForQuit@PxThreadImpl@physx@@QEAA_NXZ 00000001801af4bb f   PhysXFoundation_64:PhysXFoundation_64.dll
 0001:001ae4c7       __imp_load_?getSize@PxThreadImpl@physx@@SAIXZ 00000001801af4c7 f   PhysXFoundation_64:PhysXFoundation_64.dll
 0001:001ae4d3       __imp_load_?allocate@PxTempAllocator@physx@@QEAAPEAX_KPEBDH@Z 00000001801af4d3 f   PhysXFoundation_64:PhysXFoundation_64.dll
 0001:001ae4df       __imp_load_?deallocate@PxTempAllocator@physx@@QEAAXPEAX@Z 00000001801af4df f   PhysXFoundation_64:PhysXFoundation_64.dll
 0001:001ae4eb       __imp_load_?PxOptimizeBoundingBox@physx@@YA?AV?$PxVec3T@M@1@AEAV?$PxMat33T@M@1@@Z 00000001801af4eb f   PhysXFoundation_64:PhysXFoundation_64.dll
 0001:001ae4f7       __imp_load_??0PxFPUGuard@physx@@QEAA@XZ 00000001801af4f7 f   PhysXFoundation_64:PhysXFoundation_64.dll
 0001:001ae503       __imp_load_??1PxFPUGuard@physx@@QEAA@XZ 00000001801af503 f   PhysXFoundation_64:PhysXFoundation_64.dll
 0001:001ae50f       __imp_load_?PxDiagonalize@physx@@YA?AV?$PxVec3T@M@1@AEBV?$PxMat33T@M@1@AEAV?$PxQuatT@M@1@@Z 00000001801af50f f   PhysXFoundation_64:PhysXFoundation_64.dll
 0001:001ae51c       ?DloadAcquireSectionWriteAccess@@YAXXZ 00000001801af51c f i Delayimp:delayhlp.obj
 0001:001ae5c8       ?DloadGetSRWLockFunctionPointers@@YAEXZ 00000001801af5c8 f i Delayimp:delayhlp.obj
 0001:001ae668       ?DloadMakePermanentImageCommit@@YAXPEAX_K@Z 00000001801af668 f i Delayimp:delayhlp.obj
 0001:001ae700       ?DloadObtainSection@@YAPEAXPEAK0@Z 00000001801af700 f i Delayimp:delayhlp.obj
 0001:001ae79c       ?DloadProtectSection@@YAXKPEAK@Z 00000001801af79c f i Delayimp:delayhlp.obj
 0001:001ae82c       ?DloadReleaseSectionWriteAccess@@YAXXZ 00000001801af82c f i Delayimp:delayhlp.obj
 0001:001ae8c0       __delayLoadHelper2         00000001801af8c0 f   Delayimp:delayhlp.obj
 0001:001aeb98       ??3@YAXPEAX_K@Z            00000001801afb98 f   LIBCMT:delete_scalar_size.obj
 0001:001aeb98       ??_V@YAXPEAX@Z             00000001801afb98 f   LIBCMT:delete_array.obj
 0001:001aeba0       ??_Etype_info@@UEAAPEAXI@Z 00000001801afba0 f i LIBCMT:std_type_info_static.obj
 0001:001aeba0       ??_Gtype_info@@UEAAPEAXI@Z 00000001801afba0 f i LIBCMT:std_type_info_static.obj
 0001:001aebcc       ?__scrt_initialize_type_info@@YAXXZ 00000001801afbcc f   LIBCMT:tncleanup.obj
 0001:001aebdc       ?__scrt_uninitialize_type_info@@YAXXZ 00000001801afbdc f   LIBCMT:tncleanup.obj
 0001:001aec00       __chkstk                   00000001801afc00 f   LIBCMT:chkstk.obj
 0001:001aec00       _alloca_probe              00000001801afc00 f   LIBCMT:chkstk.obj
 0001:001aec50       __vdecl_sinf4              00000001801afc50 f   LIBCMT:svml_ssinf4_dispatch.obj
 0001:001aec70       __libm_sse2_sincosf_       00000001801afc70 f   LIBCMT:svml_ssinf4_dispatch.obj
 0001:001aecb3       __libm_sse2_sincosf4_      00000001801afcb3 f   LIBCMT:svml_ssinf4_dispatch.obj
 0001:001aecc0       ??3@YAXPEAX@Z              00000001801afcc0 f   LIBCMT:delete_scalar.obj
 0001:001aecc8       __scrt_acquire_startup_lock 00000001801afcc8 f   LIBCMT:utility.obj
 0001:001aed04       __scrt_dllmain_after_initialize_c 00000001801afd04 f   LIBCMT:utility.obj
 0001:001aed38       __scrt_dllmain_before_initialize_c 00000001801afd38 f   LIBCMT:utility.obj
 0001:001aed50       __scrt_dllmain_crt_thread_attach 00000001801afd50 f   LIBCMT:utility.obj
 0001:001aed78       __scrt_dllmain_crt_thread_detach 00000001801afd78 f   LIBCMT:utility.obj
 0001:001aed90       __scrt_dllmain_exception_filter 00000001801afd90 f   LIBCMT:utility.obj
 0001:001aedf0       __scrt_dllmain_uninitialize_c 00000001801afdf0 f   LIBCMT:utility.obj
 0001:001aee20       __scrt_dllmain_uninitialize_critical 00000001801afe20 f   LIBCMT:utility.obj
 0001:001aee34       __scrt_initialize_crt      00000001801afe34 f   LIBCMT:utility.obj
 0001:001aee80       __scrt_initialize_onexit_tables 00000001801afe80 f   LIBCMT:utility.obj
 0001:001aef0c       __scrt_is_nonwritable_in_current_image 00000001801aff0c f   LIBCMT:utility.obj
 0001:001aefa4       __scrt_release_startup_lock 00000001801affa4 f   LIBCMT:utility.obj
 0001:001aefc8       __scrt_uninitialize_crt    00000001801affc8 f   LIBCMT:utility.obj
 0001:001aeff4       _onexit                    00000001801afff4 f   LIBCMT:utility.obj
 0001:001af030       atexit                     00000001801b0030 f   LIBCMT:utility.obj
 0001:001af048       __isa_available_init       00000001801b0048 f   LIBCMT:cpu_disp.obj
 0001:001af514       _DllMainCRTStartup         00000001801b0514 f   LIBCMT:dll_dllmain.obj
 0001:001af560       __sse2_sinf4@@16           00000001801b0560 f   LIBCMT:svml_ssinf4_sse2.obj
 0001:001afea0       __sse4_sinf4@@16           00000001801b0ea0 f   LIBCMT:svml_ssinf4_sse4.obj
 0001:001b0614       __scrt_is_ucrt_dll_in_use  00000001801b1614 f   LIBCMT:ucrt_detection.obj
 0001:001b0620       __crt_debugger_hook        00000001801b1620 f   LIBCMT:utility_desktop.obj
 0001:001b0628       __scrt_fastfail            00000001801b1628 f   LIBCMT:utility_desktop.obj
 0001:001b0774       __security_init_cookie     00000001801b1774 f   LIBCMT:gs_support.obj
 0001:001b0820       __local_stdio_scanf_options 00000001801b1820 f i LIBCMT:default_local_stdio_options.obj
 0001:001b0828       __scrt_initialize_default_local_stdio_options 00000001801b1828 f   LIBCMT:default_local_stdio_options.obj
 0001:001b0844       __scrt_get_dyn_tls_init_callback 00000001801b1844 f   LIBCMT:dyn_tls_init.obj
 0001:001b084c       _RTC_Initialize            00000001801b184c f   LIBCMT:initsect.obj
 0001:001b0888       _RTC_Terminate             00000001801b1888 f   LIBCMT:initsect.obj
 0001:001b08d0       __common_ssin_cout_rare    00000001801b18d0 f   LIBCMT:svml_s_sin_cout.obj
 0001:001b0950       memcpy_repmovs             00000001801b1950 f   libvcruntime:memcpy.obj
 0001:001b0970       memcpy                     00000001801b1970 f   libvcruntime:memcpy.obj
 0001:001b0970       memmove                    00000001801b1970 f   libvcruntime:memcpy.obj
 0001:001b0fe0       _get_purecall_handler      00000001801b1fe0 f   libvcruntime:purevirt.obj
 0001:001b0fec       _purecall                  00000001801b1fec f   libvcruntime:purevirt.obj
 0001:001b1010       __std_type_info_compare    00000001801b2010 f   libvcruntime:std_type_info.obj
 0001:001b1038       __std_type_info_destroy_list 00000001801b2038 f   libvcruntime:std_type_info.obj
 0001:001b1064       __std_type_info_name       00000001801b2064 f   libvcruntime:std_type_info.obj
 0001:001b1190       memset_repstos             00000001801b2190 f   libvcruntime:memset.obj
 0001:001b11b0       memset                     00000001801b21b0 f   libvcruntime:memset.obj
 0001:001b1538       strstr                     00000001801b2538 f   libvcruntime:strstr.obj
 0001:001b1730       __vcrt_initialize          00000001801b2730 f   libvcruntime:initialization.obj
 0001:001b1758       __vcrt_thread_attach       00000001801b2758 f   libvcruntime:initialization.obj
 0001:001b176c       __vcrt_thread_detach       00000001801b276c f   libvcruntime:initialization.obj
 0001:001b177c       __vcrt_uninitialize        00000001801b277c f   libvcruntime:initialization.obj
 0001:001b1798       __vcrt_uninitialize_critical 00000001801b2798 f   libvcruntime:initialization.obj
 0001:001b17a8       __C_specific_handler       00000001801b27a8 f   libvcruntime:riscchandler.obj
 0001:001b19a0       __DestructExceptionObject  00000001801b29a0 f   libvcruntime:ehhelpers.obj
 0001:001b1a10       ?_CallMemberFunction0@@YAXQEAX0@Z 00000001801b2a10 f i libvcruntime:ehhelpers.obj
 0001:001b1a14       _IsExceptionObjectToBeDestroyed 00000001801b2a14 f   libvcruntime:ehhelpers.obj
 0001:001b1a44       __AdjustPointer            00000001801b2a44 f   libvcruntime:ehhelpers.obj
 0001:001b1a68       __FrameUnwindFilter        00000001801b2a68 f   libvcruntime:ehhelpers.obj
 0001:001b1ad0       __std_terminate            00000001801b2ad0 f   libvcruntime:ehhelpers.obj
 0001:001b1adc       ??$?0$00@DName@@QEAA@PEBDU?$StringLifeSelector@$00@@@Z 00000001801b2adc f i libvcruntime:undname.obj
 0001:001b1b1c       ??$?0$01@DName@@QEAA@PEBDU?$StringLifeSelector@$01@@@Z 00000001801b2b1c f i libvcruntime:undname.obj
 0001:001b1b1c       ??$?0$0A@@DName@@QEAA@PEBDU?$StringLifeSelector@$0A@@@@Z 00000001801b2b1c f i libvcruntime:undname.obj
 0001:001b1b5c       ??$?0$01@pcharNode@@QEAA@PEBDHU?$StringLifeSelector@$01@@@Z 00000001801b2b5c f i libvcruntime:undname.obj
 0001:001b1b5c       ??$?0$0A@@pcharNode@@QEAA@PEBDHU?$StringLifeSelector@$0A@@@@Z 00000001801b2b5c f i libvcruntime:undname.obj
 0001:001b1bd0       ??$append@VDNameNode@@@DName@@AEAAXPEBVDNameNode@@@Z 00000001801b2bd0 f i libvcruntime:undname.obj
 0001:001b1bd0       ??$append@VDNameStatusNode@@@DName@@AEAAXPEBVDNameStatusNode@@@Z 00000001801b2bd0 f i libvcruntime:undname.obj
 0001:001b1bd0       ??$append@VcharNode@@@DName@@AEAAXPEBVcharNode@@@Z 00000001801b2bd0 f i libvcruntime:undname.obj
 0001:001b1bd0       ??$append@VpcharNode@@@DName@@AEAAXPEBVpcharNode@@@Z 00000001801b2bd0 f i libvcruntime:undname.obj
 0001:001b1c34       ??$doPchar@$00@DName@@AEAAXPEBDH@Z 00000001801b2c34 f i libvcruntime:undname.obj
 0001:001b1cd8       ??$doPchar@$01@DName@@AEAAXPEBDH@Z 00000001801b2cd8 f i libvcruntime:undname.obj
 0001:001b1cd8       ??$doPchar@$0A@@DName@@AEAAXPEBDH@Z 00000001801b2cd8 f i libvcruntime:undname.obj
 0001:001b1d70       ??0DName@@QEAA@AEAPEBDD@Z  00000001801b2d70 f   libvcruntime:undname.obj
 0001:001b1e20       ??0DName@@QEAA@AEBUStringLiteral@@@Z 00000001801b2e20 f   libvcruntime:undname.obj
 0001:001b1e4c       ??0DName@@QEAA@PEAV0@@Z    00000001801b2e4c f   libvcruntime:undname.obj
 0001:001b1ed0       ??0DName@@QEAA@_J@Z        00000001801b2ed0 f   libvcruntime:undname.obj
 0001:001b1f78       ??0DName@@QEAA@_K@Z        00000001801b2f78 f   libvcruntime:undname.obj
 0001:001b2000       ??0UnDecorator@@QEAA@PEBDP6APEADJ@ZK@Z 00000001801b3000 f i libvcruntime:undname.obj
 0001:001b20b4       ??2@YAPEAX_KAEAV_HeapManager@@H@Z 00000001801b30b4 f   libvcruntime:undname.obj
 0001:001b20e0       ??4DName@@QEAAAEAV0@W4DNameStatus@@@Z 00000001801b30e0 f   libvcruntime:undname.obj
 0001:001b2110       ??AReplicator@@QEBA?AVDName@@H@Z 00000001801b3110 f   libvcruntime:undname.obj
 0001:001b2150       ??HDName@@QEBA?AV0@AEBUStringLiteral@@@Z 00000001801b3150 f   libvcruntime:undname.obj
 0001:001b217c       ??HDName@@QEBA?AV0@AEBV0@@Z 00000001801b317c f   libvcruntime:undname.obj
 0001:001b21a8       ??HDName@@QEBA?AV0@D@Z     00000001801b31a8 f   libvcruntime:undname.obj
 0001:001b21d4       ??HDName@@QEBA?AV0@W4DNameStatus@@@Z 00000001801b31d4 f   libvcruntime:undname.obj
 0001:001b2200       ??YDName@@QEAAAEAV0@AEBUStringLiteral@@@Z 00000001801b3200 f   libvcruntime:undname.obj
 0001:001b2280       ??YDName@@QEAAAEAV0@AEBV0@@Z 00000001801b3280 f   libvcruntime:undname.obj
 0001:001b22d8       ??YDName@@QEAAAEAV0@D@Z    00000001801b32d8 f   libvcruntime:undname.obj
 0001:001b2344       ??YDName@@QEAAAEAV0@W4DNameStatus@@@Z 00000001801b3344 f   libvcruntime:undname.obj
 0001:001b239c       ??YReplicator@@QEAAAEAV0@AEBVDName@@@Z 00000001801b339c f   libvcruntime:undname.obj
 0001:001b23f4       ?UScore@UnDecorator@@SA?AUStringLiteral@@W4Tokens@@@Z 00000001801b33f4 f   libvcruntime:undname.obj
 0001:001b2440       ?composeDeclaration@UnDecorator@@CA?AVDName@@AEBV2@@Z 00000001801b3440 f i libvcruntime:undname.obj
 0001:001b3334       ?doPchar@DName@@AEAAXD@Z   00000001801b4334 f   libvcruntime:undname.obj
 0001:001b3384       ?getAddressOf@UnDecorator@@CA?AVDName@@XZ 00000001801b4384 f   libvcruntime:undname.obj
 0001:001b3414       ?getArgumentList@UnDecorator@@CA?AVDName@@XZ 00000001801b4414 f   libvcruntime:undname.obj
 0001:001b35c8       ?getArgumentTypes@UnDecorator@@CA?AVDName@@XZ 00000001801b45c8 f   libvcruntime:undname.obj
 0001:001b3714       ?getArrayAccess@UnDecorator@@CA?AVDName@@XZ 00000001801b4714 f   libvcruntime:undname.obj
 0001:001b37b0       ?getArrayObject@UnDecorator@@CA?AVDName@@XZ 00000001801b47b0 f   libvcruntime:undname.obj
 0001:001b386c       ?getArrayType@UnDecorator@@CA?AVDName@@AEBV2@@Z 00000001801b486c f i libvcruntime:undname.obj
 0001:001b3ad8       ?getBasedType@UnDecorator@@CA?AVDName@@XZ 00000001801b4ad8 f   libvcruntime:undname.obj
 0001:001b3bd0       ?getBasicDataType@UnDecorator@@CA?AVDName@@AEBV2@@Z 00000001801b4bd0 f   libvcruntime:undname.obj
 0001:001b41d4       ?getCallingConvention@UnDecorator@@CA?AVDName@@XZ 00000001801b51d4 f   libvcruntime:undname.obj
 0001:001b430c       ?getDataIndirectType@UnDecorator@@CA?AVDName@@AEBV2@W4IndirectionKind@@0H@Z 00000001801b530c f   libvcruntime:undname.obj
 0001:001b4c30       ?getDataType@UnDecorator@@CA?AVDName@@PEAV2@@Z 00000001801b5c30 f   libvcruntime:undname.obj
 0001:001b4d44       ?getDecoratedName@UnDecorator@@CA?AVDName@@XZ 00000001801b5d44 f   libvcruntime:undname.obj
 0001:001b502c       ?getDimension@UnDecorator@@CA?AVDName@@_N@Z 00000001801b602c f   libvcruntime:undname.obj
 0001:001b5174       ?getDispatchTarget@UnDecorator@@CA?AVDName@@XZ 00000001801b6174 f   libvcruntime:undname.obj
 0001:001b51d4       ?getECSUDataType@UnDecorator@@CA?AVDName@@XZ 00000001801b61d4 f   libvcruntime:undname.obj
 0001:001b53d0       ?getEnumType@UnDecorator@@CA?AVDName@@XZ 00000001801b63d0 f i libvcruntime:undname.obj
 0001:001b5500       ?getExtendedDataIndirectType@UnDecorator@@CA?AVDName@@AEAW4IndirectionKind@@AEA_NH@Z 00000001801b6500 f   libvcruntime:undname.obj
 0001:001b5704       ?getExternalDataType@UnDecorator@@CA?AVDName@@AEBV2@@Z 00000001801b6704 f i libvcruntime:undname.obj
 0001:001b57c4       ?getFloatingPoint@UnDecorator@@CA?AVDName@@H@Z 00000001801b67c4 f   libvcruntime:undname.obj
 0001:001b592c       ?getFunctionIndirectType@UnDecorator@@CA?AVDName@@AEBV2@@Z 00000001801b692c f   libvcruntime:undname.obj
 0001:001b5e60       ?getLastChar@DNameStatusNode@@UEBADXZ 00000001801b6e60 f i libvcruntime:undname.obj
 0001:001b5e6c       ?getLastChar@charNode@@UEBADXZ 00000001801b6e6c f i libvcruntime:undname.obj
 0001:001b5e70       ?getLastChar@pDNameNode@@UEBADXZ 00000001801b6e70 f i libvcruntime:undname.obj
 0001:001b5e9c       ?getLastChar@pairNode@@UEBADXZ 00000001801b6e9c f i libvcruntime:undname.obj
 0001:001b5ed4       ?getLastChar@pcharNode@@UEBADXZ 00000001801b6ed4 f i libvcruntime:undname.obj
 0001:001b5ee8       ?getLexicalFrame@UnDecorator@@CA?AVDName@@XZ 00000001801b6ee8 f i libvcruntime:undname.obj
 0001:001b5f4c       ?getMemberAccess@UnDecorator@@CA?AVDName@@XZ 00000001801b6f4c f   libvcruntime:undname.obj
 0001:001b5fe0       ?getMemoryWithBuffer@_HeapManager@@QEAAPEAX_K@Z 00000001801b6fe0 f   libvcruntime:undname.obj
 0001:001b6070       ?getNoexcept@UnDecorator@@CA?AVDName@@XZ 00000001801b7070 f   libvcruntime:undname.obj
 0001:001b60d4       ?getNumberOfDimensions@UnDecorator@@CAHXZ 00000001801b70d4 f   libvcruntime:undname.obj
 0001:001b613c       ?getOperatorName@UnDecorator@@CA?AVDName@@_NPEA_N@Z 00000001801b713c f i libvcruntime:undname.obj
 0001:001b6aec       ?getPointerToMember@UnDecorator@@CA?AVDName@@XZ 00000001801b7aec f   libvcruntime:undname.obj
 0001:001b6be4       ?getPrimaryDataType@UnDecorator@@CA?AVDName@@AEBV2@@Z 00000001801b7be4 f   libvcruntime:undname.obj
 0001:001b6e9c       ?getPtrRefDataType@UnDecorator@@CA?AVDName@@AEBV2@H@Z 00000001801b7e9c f   libvcruntime:undname.obj
 0001:001b7068       ?getPtrRefType@UnDecorator@@CA?AVDName@@AEBV2@0W4IndirectionKind@@@Z 00000001801b8068 f   libvcruntime:undname.obj
 0001:001b7240       ?getRestrictionSpec@UnDecorator@@CA?AVDName@@XZ 00000001801b8240 f   libvcruntime:undname.obj
 0001:001b741c       ?getReturnType@UnDecorator@@CA?AVDName@@PEAV2@@Z 00000001801b841c f   libvcruntime:undname.obj
 0001:001b7450       ?getScope@UnDecorator@@CA?AVDName@@XZ 00000001801b8450 f   libvcruntime:undname.obj
 0001:001b7908       ?getScopedName@UnDecorator@@CA?AVDName@@XZ 00000001801b8908 f   libvcruntime:undname.obj
 0001:001b7a4c       ?getSignedDimension@UnDecorator@@CA?AVDName@@XZ 00000001801b8a4c f   libvcruntime:undname.obj
 0001:001b7ad4       ?getString@DNameStatusNode@@UEBAPEADPEAD0@Z 00000001801b8ad4 f i libvcruntime:undname.obj
 0001:001b7b1c       ?getString@charNode@@UEBAPEADPEAD0@Z 00000001801b8b1c f i libvcruntime:undname.obj
 0001:001b7b30       ?getString@pDNameNode@@UEBAPEADPEAD0@Z 00000001801b8b30 f i libvcruntime:undname.obj
 0001:001b7b60       ?getString@pairNode@@UEBAPEADPEAD0@Z 00000001801b8b60 f i libvcruntime:undname.obj
 0001:001b7bac       ?getString@pcharNode@@UEBAPEADPEAD0@Z 00000001801b8bac f i libvcruntime:undname.obj
 0001:001b7be4       ?getStringEncoding@UnDecorator@@CA?AVDName@@W4PrefixKind@@H@Z 00000001801b8be4 f   libvcruntime:undname.obj
 0001:001b7cf4       ?getStringObject@UnDecorator@@CA?AVDName@@XZ 00000001801b8cf4 f   libvcruntime:undname.obj
 0001:001b7d5c       ?getSymbolName@UnDecorator@@CA?AVDName@@XZ 00000001801b8d5c f i libvcruntime:undname.obj
 0001:001b7da8       ?getTemplateArgumentList@UnDecorator@@CA?AVDName@@XZ 00000001801b8da8 f   libvcruntime:undname.obj
 0001:001b7fc4       ?getTemplateName@UnDecorator@@CA?AVDName@@_N@Z 00000001801b8fc4 f   libvcruntime:undname.obj
 0001:001b828c       ?getTemplateNonTypeArgument@UnDecorator@@CA?AVDName@@XZ 00000001801b928c f   libvcruntime:undname.obj
 0001:001b87dc       ?getTemplateTypeArgument@UnDecorator@@CA?AVDName@@XZ 00000001801b97dc f   libvcruntime:undname.obj
 0001:001b8944       ?getThrowTypes@UnDecorator@@CA?AVDName@@XZ 00000001801b9944 f   libvcruntime:undname.obj
 0001:001b8968       ?getTypeEncoding@UnDecorator@@CAHXZ 00000001801b9968 f i libvcruntime:undname.obj
 0001:001b8d24       ?getUndecoratedName@UnDecorator@@QEAAPEADPEADH@Z 00000001801b9d24 f i libvcruntime:undname.obj
 0001:001b8e78       ?getUnionObject@UnDecorator@@CA?AVDName@@XZ 00000001801b9e78 f   libvcruntime:undname.obj
 0001:001b8f50       ?getVCallThunkType@UnDecorator@@CA?AVDName@@XZ 00000001801b9f50 f i libvcruntime:undname.obj
 0001:001b8fc8       ?getValue@UnDecorator@@CA?AV?$optional@_K@std@@XZ 00000001801b9fc8 f   libvcruntime:undname.obj
 0001:001b900c       ?getValueObject@UnDecorator@@CA?AVDName@@XZ 00000001801ba00c f   libvcruntime:undname.obj
 0001:001b914c       ?getVdispMapType@UnDecorator@@CA?AVDName@@AEBV2@@Z 00000001801ba14c f i libvcruntime:undname.obj
 0001:001b91c8       ?getVfTableType@UnDecorator@@CA?AVDName@@AEBV2@@Z 00000001801ba1c8 f i libvcruntime:undname.obj
 0001:001b93d4       ?getZName@UnDecorator@@CA?AVDName@@_N0@Z 00000001801ba3d4 f   libvcruntime:undname.obj
 0001:001b96a8       ?length@pDNameNode@@UEBAHXZ 00000001801ba6a8 f i libvcruntime:undname.obj
 0001:001b96d0       ?length@pairNode@@UEBAHXZ  00000001801ba6d0 f i libvcruntime:undname.obj
 0001:001b9718       ?parseDecoratedName@UnDecorator@@CA?AVDName@@XZ 00000001801ba718 f   libvcruntime:undname.obj
 0001:001b9830       ?raw_length@pDNameNode@@UEBAHXZ 00000001801ba830 f i libvcruntime:undname.obj
 0001:001b9834       ?raw_length@pairNode@@UEBAHXZ 00000001801ba834 f i libvcruntime:undname.obj
 0001:001b9838       __unDName                  00000001801ba838 f   libvcruntime:undname.obj
 0001:001b9860       __unDNameEx                00000001801ba860 f   libvcruntime:undname.obj
 0001:001b9950       snprintf                   00000001801ba950 f i libvcruntime:undname.obj
 0001:001b99a8       sprintf_s                  00000001801ba9a8 f i libvcruntime:undname.obj
 0001:001b99fc       __vcrt_freefls             00000001801ba9fc f   libvcruntime:per_thread_data.obj
 0001:001b9a1c       __vcrt_freeptd_for_this_thread 00000001801baa1c f   libvcruntime:per_thread_data.obj
 0001:001b9a64       __vcrt_getptd              00000001801baa64 f   libvcruntime:per_thread_data.obj
 0001:001b9a80       __vcrt_getptd_noexit       00000001801baa80 f   libvcruntime:per_thread_data.obj
 0001:001b9b40       __vcrt_initialize_ptd      00000001801bab40 f   libvcruntime:per_thread_data.obj
 0001:001b9b88       __vcrt_uninitialize_ptd    00000001801bab88 f   libvcruntime:per_thread_data.obj
 0001:001b9bac       __vcrt_initialize_locks    00000001801babac f   libvcruntime:locks.obj
 0001:001b9bf4       __vcrt_lock                00000001801babf4 f   libvcruntime:locks.obj
 0001:001b9c10       __vcrt_uninitialize_locks  00000001801bac10 f   libvcruntime:locks.obj
 0001:001b9c48       __vcrt_unlock              00000001801bac48 f   libvcruntime:locks.obj
 0001:001b9c80       _NLG_Notify                00000001801bac80 f   libvcruntime:notify.obj
 0001:001b9ca0       __NLG_Dispatch2            00000001801baca0 f   libvcruntime:notify.obj
 0001:001b9cb0       __NLG_Return2              00000001801bacb0 f   libvcruntime:notify.obj
 0001:001b9cb4       __except_validate_context_record 00000001801bacb4 f   libvcruntime:jbcxrval.obj
 0001:001b9cec       ??$_CallSETranslator@V__FrameHandler3@@@@YAHPEAUEHExceptionRecord@@PEA_KPEAU_CONTEXT@@PEAU_xDISPATCHER_CONTEXT@@PEBU_s_FuncInfo@@K1H@Z 00000001801bacec f i libvcruntime:risctrnsctrl.obj
 0001:001b9d40       ??$_CallSETranslator@V__FrameHandler4@@@@YAHPEAUEHExceptionRecord@@PEA_KPEAU_CONTEXT@@PEAU_xDISPATCHER_CONTEXT@@PEAUFuncInfo4@FH4@@K1H@Z 00000001801bad40 f i libvcruntime:risctrnsctrl.obj
 0001:001b9d94       ?CatchTryBlock@__FrameHandler3@@SAPEBU_s_TryBlockMapEntry@@PEBU_s_FuncInfo@@H@Z 00000001801bad94 f   libvcruntime:risctrnsctrl.obj
 0001:001b9df8       ?DecompFuncInfo@FH4@@YA_JPEAEAEAUFuncInfo4@1@_KH_N@Z 00000001801badf8 f i libvcruntime:risctrnsctrl.obj
 0001:001b9f2c       ?ExecutionInCatch@__FrameHandler3@@SA_NPEAU_xDISPATCHER_CONTEXT@@PEBU_s_FuncInfo@@@Z 00000001801baf2c f   libvcruntime:risctrnsctrl.obj
 0001:001b9f58       ?ExecutionInCatch@__FrameHandler4@@SA_NPEAU_xDISPATCHER_CONTEXT@@PEAUFuncInfo4@FH4@@@Z 00000001801baf58 f   libvcruntime:risctrnsctrl.obj
 0001:001b9f60       ?FrameUnwindToEmptyState@__FrameHandler3@@SAXPEA_KPEAU_xDISPATCHER_CONTEXT@@PEBU_s_FuncInfo@@@Z 00000001801baf60 f   libvcruntime:risctrnsctrl.obj
 0001:001b9fc4       ?FrameUnwindToEmptyState@__FrameHandler4@@SAXPEA_KPEAU_xDISPATCHER_CONTEXT@@PEAUFuncInfo4@FH4@@@Z 00000001801bafc4 f   libvcruntime:risctrnsctrl.obj
 0001:001b9ff8       ?GetEstablisherFrame@__FrameHandler3@@SAPEA_KPEA_KPEAU_xDISPATCHER_CONTEXT@@PEBU_s_FuncInfo@@0@Z 00000001801baff8 f   libvcruntime:risctrnsctrl.obj
 0001:001ba0c4       ?GetEstablisherFrame@__FrameHandler4@@SAPEA_KPEA_KPEAU_xDISPATCHER_CONTEXT@@PEAUFuncInfo4@FH4@@0@Z 00000001801bb0c4 f   libvcruntime:risctrnsctrl.obj
 0001:001ba0e8       ?GetRangeOfTrysToCheck@__FrameHandler3@@SA?AU?$pair@Viterator@TryBlockMap@__FrameHandler3@@V123@@std@@AEAVTryBlockMap@1@HPEAU_xDISPATCHER_CONTEXT@@PEBU_s_FuncInfo@@H@Z 00000001801bb0e8 f   libvcruntime:risctrnsctrl.obj
 0001:001ba228       ?GetRangeOfTrysToCheck@__FrameHandler4@@SA?AU?$pair@Viterator@TryBlockMap4@FH4@@V123@@std@@AEAVTryBlockMap4@FH4@@HPEAU_xDISPATCHER_CONTEXT@@PEAUFuncInfo4@5@H@Z 00000001801bb228 f   libvcruntime:risctrnsctrl.obj
 0001:001ba394       ?UnwindNestedFrames@__FrameHandler3@@SAXPEA_KPEAUEHExceptionRecord@@PEAU_CONTEXT@@0PEAXPEBU_s_FuncInfo@@HHPEBU_s_HandlerType@@PEAU_xDISPATCHER_CONTEXT@@E@Z 00000001801bb394 f   libvcruntime:risctrnsctrl.obj
 0001:001ba498       ?UnwindNestedFrames@__FrameHandler4@@SAXPEA_KPEAUEHExceptionRecord@@PEAU_CONTEXT@@0PEAXPEAUFuncInfo4@FH4@@HHPEAUHandlerType4@5@PEAU_xDISPATCHER_CONTEXT@@E@Z 00000001801bb498 f   libvcruntime:risctrnsctrl.obj
 0001:001ba5b8       ?setBuffer@TryBlockMap4@FH4@@QEAAXViterator@12@@Z 00000001801bb5b8 f i libvcruntime:risctrnsctrl.obj
 0001:001ba77c       _CreateFrameInfo           00000001801bb77c f   libvcruntime:risctrnsctrl.obj
 0001:001ba7b8       _FindAndUnlinkFrame        00000001801bb7b8 f   libvcruntime:risctrnsctrl.obj
 0001:001ba80c       _GetImageBase              00000001801bb80c f   libvcruntime:risctrnsctrl.obj
 0001:001ba820       _GetThrowImageBase         00000001801bb820 f   libvcruntime:risctrnsctrl.obj
 0001:001ba834       _SetImageBase              00000001801bb834 f   libvcruntime:risctrnsctrl.obj
 0001:001ba84c       _SetThrowImageBase         00000001801bb84c f   libvcruntime:risctrnsctrl.obj
 0001:001ba864       __CxxFrameHandler3         00000001801bb864 f   libvcruntime:risctrnsctrl.obj
 0001:001ba8ec       __CxxFrameHandler4         00000001801bb8ec f   libvcruntime:risctrnsctrl.obj
 0001:001baafc       __vcrt_FlsAlloc            00000001801bbafc f   libvcruntime:winapi_downlevel.obj
 0001:001bab44       __vcrt_FlsFree             00000001801bbb44 f   libvcruntime:winapi_downlevel.obj
 0001:001bab8c       __vcrt_FlsGetValue         00000001801bbb8c f   libvcruntime:winapi_downlevel.obj
 0001:001babd4       __vcrt_FlsSetValue         00000001801bbbd4 f   libvcruntime:winapi_downlevel.obj
 0001:001bac28       __vcrt_InitializeCriticalSectionEx 00000001801bbc28 f   libvcruntime:winapi_downlevel.obj
 0001:001bac8c       ?GetCurrentState@__FrameHandler3@@SAHPEA_KPEAU_xDISPATCHER_CONTEXT@@PEBU_s_FuncInfo@@@Z 00000001801bbc8c f   libvcruntime:ehstate.obj
 0001:001bacb4       ?GetUnwindTryBlock@__FrameHandler3@@SAHPEA_KPEAU_xDISPATCHER_CONTEXT@@PEBU_s_FuncInfo@@@Z 00000001801bbcb4 f   libvcruntime:ehstate.obj
 0001:001bace0       ?SetState@__FrameHandler3@@SAXPEA_KPEBU_s_FuncInfo@@H@Z 00000001801bbce0 f   libvcruntime:ehstate.obj
 0001:001bacec       ?SetUnwindTryBlock@__FrameHandler3@@SAXPEA_KPEAU_xDISPATCHER_CONTEXT@@PEBU_s_FuncInfo@@H@Z 00000001801bbcec f   libvcruntime:ehstate.obj
 0001:001bad28       ?StateFromControlPc@__FrameHandler3@@SAHPEBU_s_FuncInfo@@PEAU_xDISPATCHER_CONTEXT@@@Z 00000001801bbd28 f   libvcruntime:ehstate.obj
 0001:001bad30       ?StateFromControlPc@__FrameHandler4@@SAHPEAUFuncInfo4@FH4@@PEAU_xDISPATCHER_CONTEXT@@@Z 00000001801bbd30 f   libvcruntime:ehstate.obj
 0001:001bad38       ?StateFromIp@__FrameHandler3@@SAHPEBU_s_FuncInfo@@PEAU_xDISPATCHER_CONTEXT@@_K@Z 00000001801bbd38 f   libvcruntime:ehstate.obj
 0001:001bada0       ?StateFromIp@__FrameHandler4@@SAHPEAUFuncInfo4@FH4@@PEAU_xDISPATCHER_CONTEXT@@_K@Z 00000001801bbda0 f   libvcruntime:ehstate.obj
 0001:001bc4a0       ??$TypeMatchHelper@V__FrameHandler3@@@@YAHPEBU_s_HandlerType@@PEBU_s_CatchableType@@PEBU_s_ThrowInfo@@@Z 00000001801bd4a0 f i libvcruntime:frame.obj
 0001:001bc5e0       ??$TypeMatchHelper@V__FrameHandler4@@@@YAHPEAUHandlerType4@FH4@@PEBU_s_CatchableType@@PEBU_s_ThrowInfo@@@Z 00000001801bd5e0 f i libvcruntime:frame.obj
 0001:001bc724       ??$__InternalCxxFrameHandler@V__FrameHandler3@@@@YA?AW4_EXCEPTION_DISPOSITION@@PEAUEHExceptionRecord@@PEA_KPEAU_CONTEXT@@PEAU_xDISPATCHER_CONTEXT@@PEBU_s_FuncInfo@@H1E@Z 00000001801bd724 f i libvcruntime:frame.obj
 0001:001bc95c       ??$__InternalCxxFrameHandler@V__FrameHandler4@@@@YA?AW4_EXCEPTION_DISPOSITION@@PEAUEHExceptionRecord@@PEA_KPEAU_CONTEXT@@PEAU_xDISPATCHER_CONTEXT@@PEAUFuncInfo4@FH4@@H1E@Z 00000001801bd95c f i libvcruntime:frame.obj
 0001:001bcbf0       ??$__InternalCxxFrameHandlerWrapper@V__FrameHandler3@@@@YA?AW4_EXCEPTION_DISPOSITION@@PEAUEHExceptionRecord@@PEA_KPEAU_CONTEXT@@PEAU_xDISPATCHER_CONTEXT@@PEBU_s_FuncInfo@@H1E@Z 00000001801bdbf0 f i libvcruntime:frame.obj
 0001:001bcbf8       ??$__InternalCxxFrameHandlerWrapper@V__FrameHandler4@@@@YA?AW4_EXCEPTION_DISPOSITION@@PEAUEHExceptionRecord@@PEA_KPEAU_CONTEXT@@PEAU_xDISPATCHER_CONTEXT@@PEAUFuncInfo4@FH4@@H1E@Z 00000001801bdbf8 f i libvcruntime:frame.obj
 0001:001bcc44       ??0HandlerMap4@FH4@@QEAA@PEBUTryBlockMapEntry4@1@_KH@Z 00000001801bdc44 f i libvcruntime:frame.obj
 0001:001bccc8       ??0TryBlockMap4@FH4@@QEAA@PEBUFuncInfo4@1@_K@Z 00000001801bdcc8 f i libvcruntime:frame.obj
 0001:001bcdac       ??0bad_exception@std@@QEAA@AEBV01@@Z 00000001801bddac f i libvcruntime:frame.obj
 0001:001bcde8       ??0bad_exception@std@@QEAA@XZ 00000001801bdde8 f i libvcruntime:frame.obj
 0001:001bce08       ??0exception@std@@QEAA@AEBV01@@Z 00000001801bde08 f i libvcruntime:frame.obj
 0001:001bce3c       ??1bad_exception@std@@UEAA@XZ 00000001801bde3c f i libvcruntime:frame.obj
 0001:001bce50       ??_Ebad_exception@std@@UEAAPEAXI@Z 00000001801bde50 f i libvcruntime:frame.obj
 0001:001bce50       ??_Eexception@std@@UEAAPEAXI@Z 00000001801bde50 f i libvcruntime:frame.obj
 0001:001bce50       ??_Gbad_exception@std@@UEAAPEAXI@Z 00000001801bde50 f i libvcruntime:frame.obj
 0001:001bce50       ??_Gexception@std@@UEAAPEAXI@Z 00000001801bde50 f i libvcruntime:frame.obj
 0001:001bce94       ?CxxCallCatchBlock@__FrameHandler3@@SAPEAXPEAU_EXCEPTION_RECORD@@@Z 00000001801bde94 f   libvcruntime:frame.obj
 0001:001bd080       ?CxxCallCatchBlock@__FrameHandler4@@SAPEAXPEAU_EXCEPTION_RECORD@@@Z 00000001801be080 f   libvcruntime:frame.obj
 0001:001bd2d0       ?DecompHandler@HandlerMap4@FH4@@AEAAXXZ 00000001801be2d0 f i libvcruntime:frame.obj
 0001:001bd51c       ?FrameUnwindToState@__FrameHandler3@@SAXPEA_KPEAU_xDISPATCHER_CONTEXT@@PEBU_s_FuncInfo@@H@Z 00000001801be51c f   libvcruntime:frame.obj
 0001:001bd6a8       ?FrameUnwindToState@__FrameHandler4@@SAXPEA_KPEAU_xDISPATCHER_CONTEXT@@PEAUFuncInfo4@FH4@@H@Z 00000001801be6a8 f   libvcruntime:frame.obj
 0001:001bd9ac       ?GetHandlerSearchState@__FrameHandler3@@SAHPEA_KPEAU_xDISPATCHER_CONTEXT@@PEBU_s_FuncInfo@@@Z 00000001801be9ac f i libvcruntime:frame.obj
 0001:001bdbbc       ?ReadEntry@UWMap4@FH4@@AEAAXPEAPEAE@Z 00000001801bebbc f i libvcruntime:frame.obj
 0001:001bdc58       ?_CallMemberFunction1@@YAXQEAX00@Z 00000001801bec58 f i libvcruntime:frame.obj
 0001:001bdc64       ?_CallMemberFunction2@@YAXQEAX00H@Z 00000001801bec64 f i libvcruntime:frame.obj
 0001:001bdc74       ?getStartStop@UWMap4@FH4@@QEAAXHHAEAViterator@12@0@Z 00000001801bec74 f i libvcruntime:frame.obj
 0001:001bdd44       ?getStateFromIterators@UWMap4@FH4@@SAHAEBViterator@12@H0H0@Z 00000001801bed44 f i libvcruntime:frame.obj
 0001:001bddf4       ?what@exception@std@@UEBAPEBDXZ 00000001801bedf4 f i libvcruntime:frame.obj
 0001:001bde20       _CallSettingFrame          00000001801bee20 f   libvcruntime:handlers.obj
 0001:001bde70       _CallSettingFrame_LookupContinuationIndex 00000001801bee70 f   libvcruntime:handlers.obj
 0001:001bdea0       _CallSettingFrame_NotifyContinuationAddr 00000001801beea0 f   libvcruntime:handlers.obj
 0001:001bded0       _CallSettingFrameEncoded   00000001801beed0 f   libvcruntime:handlers.obj
 0001:001bdf18       __std_exception_copy       00000001801bef18 f   libvcruntime:std_exception.obj
 0001:001bdfa8       __std_exception_destroy    00000001801befa8 f   libvcruntime:std_exception.obj
 0001:001bdfd0       _CxxThrowException         00000001801befd0 f   libvcruntime:throw.obj
 0001:001be080       cosf                       00000001801bf080 f   libucrt:cosf.obj
 0001:001be580       sinf                       00000001801bf580 f   libucrt:sinf.obj
 0001:001bec80       tanf                       00000001801bfc80 f   libucrt:tanf.obj
 0001:001bf2f4       __acrt_initialize_stdio    00000001801c02f4 f   libucrt:_file.obj
 0001:001bf414       __acrt_iob_func            00000001801c0414 f   libucrt:_file.obj
 0001:001bf428       __acrt_uninitialize_stdio  00000001801c0428 f   libucrt:_file.obj
 0001:001bf484       _lock_file                 00000001801c0484 f   libucrt:_file.obj
 0001:001bf490       _unlock_file               00000001801c0490 f   libucrt:_file.obj
 0001:001bf68c       ??$ensure_buffer_is_big_enough@D@formatting_buffer@__crt_stdio_output@@QEAA_N_KAEAV__crt_cached_ptd_host@@@Z 00000001801c068c f i libucrt:output.obj
 0001:001bf734       ??$parse_integer@KV?$c_string_character_source@D@__crt_strtox@@$0A@@__crt_strtox@@YAKAEAV__crt_cached_ptd_host@@V?$c_string_character_source@D@0@H_N@Z 00000001801c0734 f i libucrt:output.obj
 0001:001bf9e4       ??$type_case_integer@$07@?$output_processor@DV?$stream_output_adapter@D@__crt_stdio_output@@V?$standard_base@DV?$stream_output_adapter@D@__crt_stdio_output@@@2@@__crt_stdio_output@@AEAA_N_N@Z 00000001801c09e4 f i libucrt:output.obj
 0001:001bf9e4       ??$type_case_integer@$07@?$output_processor@DV?$string_output_adapter@D@__crt_stdio_output@@V?$format_validation_base@DV?$string_output_adapter@D@__crt_stdio_output@@@2@@__crt_stdio_output@@AEAA_N_N@Z 00000001801c09e4 f i libucrt:output.obj
 0001:001bf9e4       ??$type_case_integer@$07@?$output_processor@DV?$string_output_adapter@D@__crt_stdio_output@@V?$standard_base@DV?$string_output_adapter@D@__crt_stdio_output@@@2@@__crt_stdio_output@@AEAA_N_N@Z 00000001801c09e4 f i libucrt:output.obj
 0001:001bfbcc       ??$type_case_integer@$09@?$output_processor@DV?$stream_output_adapter@D@__crt_stdio_output@@V?$standard_base@DV?$stream_output_adapter@D@__crt_stdio_output@@@2@@__crt_stdio_output@@AEAA_N_N@Z 00000001801c0bcc f i libucrt:output.obj
 0001:001bfbcc       ??$type_case_integer@$09@?$output_processor@DV?$string_output_adapter@D@__crt_stdio_output@@V?$format_validation_base@DV?$string_output_adapter@D@__crt_stdio_output@@@2@@__crt_stdio_output@@AEAA_N_N@Z 00000001801c0bcc f i libucrt:output.obj
 0001:001bfbcc       ??$type_case_integer@$09@?$output_processor@DV?$string_output_adapter@D@__crt_stdio_output@@V?$standard_base@DV?$string_output_adapter@D@__crt_stdio_output@@@2@@__crt_stdio_output@@AEAA_N_N@Z 00000001801c0bcc f i libucrt:output.obj
 0001:001bfdb4       ??$type_case_integer@$0BA@@?$output_processor@DV?$stream_output_adapter@D@__crt_stdio_output@@V?$standard_base@DV?$stream_output_adapter@D@__crt_stdio_output@@@2@@__crt_stdio_output@@AEAA_N_N@Z 00000001801c0db4 f i libucrt:output.obj
 0001:001bfdb4       ??$type_case_integer@$0BA@@?$output_processor@DV?$string_output_adapter@D@__crt_stdio_output@@V?$format_validation_base@DV?$string_output_adapter@D@__crt_stdio_output@@@2@@__crt_stdio_output@@AEAA_N_N@Z 00000001801c0db4 f i libucrt:output.obj
 0001:001bfdb4       ??$type_case_integer@$0BA@@?$output_processor@DV?$string_output_adapter@D@__crt_stdio_output@@V?$standard_base@DV?$string_output_adapter@D@__crt_stdio_output@@@2@@__crt_stdio_output@@AEAA_N_N@Z 00000001801c0db4 f i libucrt:output.obj
 0001:001bff9c       ??$type_case_integer_parse_into_buffer@I$07@?$output_processor@DV?$stream_output_adapter@D@__crt_stdio_output@@V?$standard_base@DV?$stream_output_adapter@D@__crt_stdio_output@@@2@@__crt_stdio_output@@AEAAXI_N@Z 00000001801c0f9c f i libucrt:output.obj
 0001:001bff9c       ??$type_case_integer_parse_into_buffer@I$07@?$output_processor@DV?$string_output_adapter@D@__crt_stdio_output@@V?$format_validation_base@DV?$string_output_adapter@D@__crt_stdio_output@@@2@@__crt_stdio_output@@AEAAXI_N@Z 00000001801c0f9c f i libucrt:output.obj
 0001:001bff9c       ??$type_case_integer_parse_into_buffer@I$07@?$output_processor@DV?$string_output_adapter@D@__crt_stdio_output@@V?$standard_base@DV?$string_output_adapter@D@__crt_stdio_output@@@2@@__crt_stdio_output@@AEAAXI_N@Z 00000001801c0f9c f i libucrt:output.obj
 0001:001c0018       ??$type_case_integer_parse_into_buffer@I$09@?$output_processor@DV?$stream_output_adapter@D@__crt_stdio_output@@V?$standard_base@DV?$stream_output_adapter@D@__crt_stdio_output@@@2@@__crt_stdio_output@@AEAAXI_N@Z 00000001801c1018 f i libucrt:output.obj
 0001:001c0018       ??$type_case_integer_parse_into_buffer@I$09@?$output_processor@DV?$string_output_adapter@D@__crt_stdio_output@@V?$format_validation_base@DV?$string_output_adapter@D@__crt_stdio_output@@@2@@__crt_stdio_output@@AEAAXI_N@Z 00000001801c1018 f i libucrt:output.obj
 0001:001c0018       ??$type_case_integer_parse_into_buffer@I$09@?$output_processor@DV?$string_output_adapter@D@__crt_stdio_output@@V?$standard_base@DV?$string_output_adapter@D@__crt_stdio_output@@@2@@__crt_stdio_output@@AEAAXI_N@Z 00000001801c1018 f i libucrt:output.obj
 0001:001c00c0       ??$type_case_integer_parse_into_buffer@I$0BA@@?$output_processor@DV?$stream_output_adapter@D@__crt_stdio_output@@V?$standard_base@DV?$stream_output_adapter@D@__crt_stdio_output@@@2@@__crt_stdio_output@@AEAAXI_N@Z 00000001801c10c0 f i libucrt:output.obj
 0001:001c00c0       ??$type_case_integer_parse_into_buffer@I$0BA@@?$output_processor@DV?$string_output_adapter@D@__crt_stdio_output@@V?$format_validation_base@DV?$string_output_adapter@D@__crt_stdio_output@@@2@@__crt_stdio_output@@AEAAXI_N@Z 00000001801c10c0 f i libucrt:output.obj
 0001:001c00c0       ??$type_case_integer_parse_into_buffer@I$0BA@@?$output_processor@DV?$string_output_adapter@D@__crt_stdio_output@@V?$standard_base@DV?$string_output_adapter@D@__crt_stdio_output@@@2@@__crt_stdio_output@@AEAAXI_N@Z 00000001801c10c0 f i libucrt:output.obj
 0001:001c014c       ??$type_case_integer_parse_into_buffer@_K$07@?$output_processor@DV?$stream_output_adapter@D@__crt_stdio_output@@V?$standard_base@DV?$stream_output_adapter@D@__crt_stdio_output@@@2@@__crt_stdio_output@@AEAAX_K_N@Z 00000001801c114c f i libucrt:output.obj
 0001:001c014c       ??$type_case_integer_parse_into_buffer@_K$07@?$output_processor@DV?$string_output_adapter@D@__crt_stdio_output@@V?$format_validation_base@DV?$string_output_adapter@D@__crt_stdio_output@@@2@@__crt_stdio_output@@AEAAX_K_N@Z 00000001801c114c f i libucrt:output.obj
 0001:001c014c       ??$type_case_integer_parse_into_buffer@_K$07@?$output_processor@DV?$string_output_adapter@D@__crt_stdio_output@@V?$standard_base@DV?$string_output_adapter@D@__crt_stdio_output@@@2@@__crt_stdio_output@@AEAAX_K_N@Z 00000001801c114c f i libucrt:output.obj
 0001:001c01c8       ??$type_case_integer_parse_into_buffer@_K$09@?$output_processor@DV?$stream_output_adapter@D@__crt_stdio_output@@V?$standard_base@DV?$stream_output_adapter@D@__crt_stdio_output@@@2@@__crt_stdio_output@@AEAAX_K_N@Z 00000001801c11c8 f i libucrt:output.obj
 0001:001c01c8       ??$type_case_integer_parse_into_buffer@_K$09@?$output_processor@DV?$string_output_adapter@D@__crt_stdio_output@@V?$format_validation_base@DV?$string_output_adapter@D@__crt_stdio_output@@@2@@__crt_stdio_output@@AEAAX_K_N@Z 00000001801c11c8 f i libucrt:output.obj
 0001:001c01c8       ??$type_case_integer_parse_into_buffer@_K$09@?$output_processor@DV?$string_output_adapter@D@__crt_stdio_output@@V?$standard_base@DV?$string_output_adapter@D@__crt_stdio_output@@@2@@__crt_stdio_output@@AEAAX_K_N@Z 00000001801c11c8 f i libucrt:output.obj
 0001:001c0274       ??$type_case_integer_parse_into_buffer@_K$0BA@@?$output_processor@DV?$stream_output_adapter@D@__crt_stdio_output@@V?$standard_base@DV?$stream_output_adapter@D@__crt_stdio_output@@@2@@__crt_stdio_output@@AEAAX_K_N@Z 00000001801c1274 f i libucrt:output.obj
 0001:001c0274       ??$type_case_integer_parse_into_buffer@_K$0BA@@?$output_processor@DV?$string_output_adapter@D@__crt_stdio_output@@V?$format_validation_base@DV?$string_output_adapter@D@__crt_stdio_output@@@2@@__crt_stdio_output@@AEAAX_K_N@Z 00000001801c1274 f i libucrt:output.obj
 0001:001c0274       ??$type_case_integer_parse_into_buffer@_K$0BA@@?$output_processor@DV?$string_output_adapter@D@__crt_stdio_output@@V?$standard_base@DV?$string_output_adapter@D@__crt_stdio_output@@@2@@__crt_stdio_output@@AEAAX_K_N@Z 00000001801c1274 f i libucrt:output.obj
 0001:001c041c       ?crop_zeroes@__crt_stdio_output@@YAXPEADQEAU__crt_locale_pointers@@@Z 00000001801c141c f i libucrt:output.obj
 0001:001c0490       ?get_raw_ptd@__crt_cached_ptd_host@@QEAAPEAU__acrt_ptd@@XZ 00000001801c1490 f i libucrt:output.obj
 0001:001c04f8       ?parse_int_from_format_string@?$output_processor@DV?$stream_output_adapter@D@__crt_stdio_output@@V?$standard_base@DV?$stream_output_adapter@D@__crt_stdio_output@@@2@@__crt_stdio_output@@AEAA_NQEAH@Z 00000001801c14f8 f i libucrt:output.obj
 0001:001c04f8       ?parse_int_from_format_string@?$output_processor@DV?$string_output_adapter@D@__crt_stdio_output@@V?$format_validation_base@DV?$string_output_adapter@D@__crt_stdio_output@@@2@@__crt_stdio_output@@AEAA_NQEAH@Z 00000001801c14f8 f i libucrt:output.obj
 0001:001c04f8       ?parse_int_from_format_string@?$output_processor@DV?$string_output_adapter@D@__crt_stdio_output@@V?$standard_base@DV?$string_output_adapter@D@__crt_stdio_output@@@2@@__crt_stdio_output@@AEAA_NQEAH@Z 00000001801c14f8 f i libucrt:output.obj
 0001:001c0588       ?process@?$output_processor@DV?$stream_output_adapter@D@__crt_stdio_output@@V?$standard_base@DV?$stream_output_adapter@D@__crt_stdio_output@@@2@@__crt_stdio_output@@QEAAHXZ 00000001801c1588 f i libucrt:output.obj
 0001:001c0914       ?process@?$output_processor@DV?$string_output_adapter@D@__crt_stdio_output@@V?$format_validation_base@DV?$string_output_adapter@D@__crt_stdio_output@@@2@@__crt_stdio_output@@QEAAHXZ 00000001801c1914 f i libucrt:output.obj
 0001:001c0ca4       ?process@?$output_processor@DV?$string_output_adapter@D@__crt_stdio_output@@V?$standard_base@DV?$string_output_adapter@D@__crt_stdio_output@@@2@@__crt_stdio_output@@QEAAHXZ 00000001801c1ca4 f i libucrt:output.obj
 0001:001c1028       ?state_case_size@?$output_processor@DV?$stream_output_adapter@D@__crt_stdio_output@@V?$standard_base@DV?$stream_output_adapter@D@__crt_stdio_output@@@2@@__crt_stdio_output@@AEAA_NXZ 00000001801c2028 f i libucrt:output.obj
 0001:001c11ac       ?state_case_size@?$output_processor@DV?$string_output_adapter@D@__crt_stdio_output@@V?$format_validation_base@DV?$string_output_adapter@D@__crt_stdio_output@@@2@@__crt_stdio_output@@AEAA_NXZ 00000001801c21ac f i libucrt:output.obj
 0001:001c11ac       ?state_case_size@?$output_processor@DV?$string_output_adapter@D@__crt_stdio_output@@V?$standard_base@DV?$string_output_adapter@D@__crt_stdio_output@@@2@@__crt_stdio_output@@AEAA_NXZ 00000001801c21ac f i libucrt:output.obj
 0001:001c1330       ?state_case_type@?$output_processor@DV?$stream_output_adapter@D@__crt_stdio_output@@V?$standard_base@DV?$stream_output_adapter@D@__crt_stdio_output@@@2@@__crt_stdio_output@@AEAA_NXZ 00000001801c2330 f i libucrt:output.obj
 0001:001c1764       ?state_case_type@?$output_processor@DV?$string_output_adapter@D@__crt_stdio_output@@V?$format_validation_base@DV?$string_output_adapter@D@__crt_stdio_output@@@2@@__crt_stdio_output@@AEAA_NXZ 00000001801c2764 f i libucrt:output.obj
 0001:001c1764       ?state_case_type@?$output_processor@DV?$string_output_adapter@D@__crt_stdio_output@@V?$standard_base@DV?$string_output_adapter@D@__crt_stdio_output@@@2@@__crt_stdio_output@@AEAA_NXZ 00000001801c2764 f i libucrt:output.obj
 0001:001c1b30       ?type_case_Z@?$output_processor@DV?$stream_output_adapter@D@__crt_stdio_output@@V?$standard_base@DV?$stream_output_adapter@D@__crt_stdio_output@@@2@@__crt_stdio_output@@AEAA_NXZ 00000001801c2b30 f i libucrt:output.obj
 0001:001c1b30       ?type_case_Z@?$output_processor@DV?$string_output_adapter@D@__crt_stdio_output@@V?$format_validation_base@DV?$string_output_adapter@D@__crt_stdio_output@@@2@@__crt_stdio_output@@AEAA_NXZ 00000001801c2b30 f i libucrt:output.obj
 0001:001c1b30       ?type_case_Z@?$output_processor@DV?$string_output_adapter@D@__crt_stdio_output@@V?$standard_base@DV?$string_output_adapter@D@__crt_stdio_output@@@2@@__crt_stdio_output@@AEAA_NXZ 00000001801c2b30 f i libucrt:output.obj
 0001:001c1ba8       ?type_case_a@?$output_processor@DV?$stream_output_adapter@D@__crt_stdio_output@@V?$standard_base@DV?$stream_output_adapter@D@__crt_stdio_output@@@2@@__crt_stdio_output@@AEAA_NXZ 00000001801c2ba8 f i libucrt:output.obj
 0001:001c1ba8       ?type_case_a@?$output_processor@DV?$string_output_adapter@D@__crt_stdio_output@@V?$format_validation_base@DV?$string_output_adapter@D@__crt_stdio_output@@@2@@__crt_stdio_output@@AEAA_NXZ 00000001801c2ba8 f i libucrt:output.obj
 0001:001c1ba8       ?type_case_a@?$output_processor@DV?$string_output_adapter@D@__crt_stdio_output@@V?$standard_base@DV?$string_output_adapter@D@__crt_stdio_output@@@2@@__crt_stdio_output@@AEAA_NXZ 00000001801c2ba8 f i libucrt:output.obj
 0001:001c1df4       ?type_case_c_tchar@?$output_processor@DV?$stream_output_adapter@D@__crt_stdio_output@@V?$standard_base@DV?$stream_output_adapter@D@__crt_stdio_output@@@2@@__crt_stdio_output@@AEAA_ND@Z 00000001801c2df4 f i libucrt:output.obj
 0001:001c1df4       ?type_case_c_tchar@?$output_processor@DV?$string_output_adapter@D@__crt_stdio_output@@V?$format_validation_base@DV?$string_output_adapter@D@__crt_stdio_output@@@2@@__crt_stdio_output@@AEAA_ND@Z 00000001801c2df4 f i libucrt:output.obj
 0001:001c1df4       ?type_case_c_tchar@?$output_processor@DV?$string_output_adapter@D@__crt_stdio_output@@V?$standard_base@DV?$string_output_adapter@D@__crt_stdio_output@@@2@@__crt_stdio_output@@AEAA_ND@Z 00000001801c2df4 f i libucrt:output.obj
 0001:001c1eb8       ?type_case_n@?$output_processor@DV?$stream_output_adapter@D@__crt_stdio_output@@V?$standard_base@DV?$stream_output_adapter@D@__crt_stdio_output@@@2@@__crt_stdio_output@@AEAA_NXZ 00000001801c2eb8 f i libucrt:output.obj
 0001:001c1eb8       ?type_case_n@?$output_processor@DV?$string_output_adapter@D@__crt_stdio_output@@V?$format_validation_base@DV?$string_output_adapter@D@__crt_stdio_output@@@2@@__crt_stdio_output@@AEAA_NXZ 00000001801c2eb8 f i libucrt:output.obj
 0001:001c1eb8       ?type_case_n@?$output_processor@DV?$string_output_adapter@D@__crt_stdio_output@@V?$standard_base@DV?$string_output_adapter@D@__crt_stdio_output@@@2@@__crt_stdio_output@@AEAA_NXZ 00000001801c2eb8 f i libucrt:output.obj
 0001:001c1f6c       ?type_case_s@?$output_processor@DV?$stream_output_adapter@D@__crt_stdio_output@@V?$standard_base@DV?$stream_output_adapter@D@__crt_stdio_output@@@2@@__crt_stdio_output@@AEAA_NXZ 00000001801c2f6c f i libucrt:output.obj
 0001:001c1f6c       ?type_case_s@?$output_processor@DV?$string_output_adapter@D@__crt_stdio_output@@V?$format_validation_base@DV?$string_output_adapter@D@__crt_stdio_output@@@2@@__crt_stdio_output@@AEAA_NXZ 00000001801c2f6c f i libucrt:output.obj
 0001:001c1f6c       ?type_case_s@?$output_processor@DV?$string_output_adapter@D@__crt_stdio_output@@V?$standard_base@DV?$string_output_adapter@D@__crt_stdio_output@@@2@@__crt_stdio_output@@AEAA_NXZ 00000001801c2f6c f i libucrt:output.obj
 0001:001c2010       ?update_locale_slow@__crt_cached_ptd_host@@AEAAXXZ 00000001801c3010 f i libucrt:output.obj
 0001:001c2088       ?validate_stream_is_ansi_if_required@?$__acrt_stdio_char_traits@D@@SA_NQEAU_iobuf@@@Z 00000001801c3088 f i libucrt:output.obj
 0001:001c2124       ?write_string@?$string_output_adapter@D@__crt_stdio_output@@QEBAXQEBDHQEAHAEAV__crt_cached_ptd_host@@@Z 00000001801c3124 f i libucrt:output.obj
 0001:001c21c8       ?write_string_impl@?$output_adapter_common@DV?$stream_output_adapter@D@__crt_stdio_output@@@__crt_stdio_output@@IEBAXQEBDHQEAHAEAV__crt_cached_ptd_host@@@Z 00000001801c31c8 f i libucrt:output.obj
 0001:001c2294       __stdio_common_vfprintf    00000001801c3294 f   libucrt:output.obj
 0001:001c23b8       __stdio_common_vsprintf    00000001801c33b8 f   libucrt:output.obj
 0001:001c260c       __stdio_common_vsprintf_s  00000001801c360c f   libucrt:output.obj
 0001:001c2720       _fpclass                   00000001801c3720 f   libucrt:ieeemisc.obj
 0001:001c27b0       powf                       00000001801c37b0 f   libucrt:powf.obj
 0001:001c3678       atan2f                     00000001801c4678 f   libucrt:atan2f.obj
 0001:001c3a80       strcmp                     00000001801c4a80 f   libucrt:strcmp.obj
 0001:001c3ae8       acosf                      00000001801c4ae8 f   libucrt:acosf.obj
 0001:001c3d14       free                       00000001801c4d14 f   libucrt:free.obj
 0001:001c3d28       _seh_filter_dll            00000001801c4d28 f   libucrt:exception_filter.obj
 0001:001c3d3c       _seh_filter_exe            00000001801c4d3c f   libucrt:exception_filter.obj
 0001:001c4160       __acrt_initialize_thread_local_exit_callback 00000001801c5160 f   libucrt:exit.obj
 0001:001c4168       _cexit                     00000001801c5168 f   libucrt:exit.obj
 0001:001c4178       _exit                      00000001801c5178 f   libucrt:exit.obj
 0001:001c4184       _is_c_termination_complete 00000001801c5184 f   libucrt:exit.obj
 0001:001c434c       __acrt_allocate_buffer_for_argv 00000001801c534c f   libucrt:argv_parsing.obj
 0001:001c43ac       _configure_narrow_argv     00000001801c53ac f   libucrt:argv_parsing.obj
 0001:001c4734       __dcrt_uninitialize_environments_nolock 00000001801c5734 f   libucrt:environment_initialization.obj
 0001:001c4778       _initialize_narrow_environment 00000001801c5778 f   libucrt:environment_initialization.obj
 0001:001c4ac8       _crt_atexit                00000001801c5ac8 f   libucrt:onexit.obj
 0001:001c4ad8       _execute_onexit_table      00000001801c5ad8 f   libucrt:onexit.obj
 0001:001c4b1c       _initialize_onexit_table   00000001801c5b1c f   libucrt:onexit.obj
 0001:001c4b44       _register_onexit_function  00000001801c5b44 f   libucrt:onexit.obj
 0001:001c4bc4       __acrt_uninitialize_command_line 00000001801c5bc4 f   libucrt:argv_data.obj
 0001:001c4cbc       __acrt_initialize          00000001801c5cbc f   libucrt:initialization.obj
 0001:001c4cd0       __acrt_thread_attach       00000001801c5cd0 f   libucrt:initialization.obj
 0001:001c4ce4       __acrt_thread_detach       00000001801c5ce4 f   libucrt:initialization.obj
 0001:001c4cf4       __acrt_uninitialize        00000001801c5cf4 f   libucrt:initialization.obj
 0001:001c4d2c       __acrt_uninitialize_critical 00000001801c5d2c f   libucrt:initialization.obj
 0001:001c4d3c       _initterm                  00000001801c5d3c f   libucrt:initterm.obj
 0001:001c4d80       _initterm_e                00000001801c5d80 f   libucrt:initterm.obj
 0001:001c4dc8       terminate                  00000001801c5dc8 f   libucrt:terminate.obj
 0001:001c4df4       abort                      00000001801c5df4 f   libucrt:abort.obj
 0001:001c4e4c       malloc                     00000001801c5e4c f   libucrt:malloc.obj
 0001:001c4e54       strcpy_s                   00000001801c5e54 f   libucrt:strcpy_s.obj
 0001:001c4eb4       ??$parse_integer@KV?$c_string_character_source@D@__crt_strtox@@$00@__crt_strtox@@YAKAEAV__crt_cached_ptd_host@@V?$c_string_character_source@D@0@H_N@Z 00000001801c5eb4 f i libucrt:atox.obj
 0001:001c5194       _ischartype_l              00000001801c6194 f i libucrt:atox.obj
 0001:001c520c       atol                       00000001801c620c f   libucrt:atox.obj
 0001:001c52d0       strncmp                    00000001801c62d0 f   libucrt:strncmp.obj
 0001:001c5350       calloc                     00000001801c6350 f   libucrt:calloc.obj
 0001:001c5358       wcsncmp                    00000001801c6358 f   libucrt:wcsncmp.obj
 0001:001c5390       __remainder_piby2d2f_forAsm 00000001801c6390 f   libucrt:remainder_piby2f_forasm.obj
 0001:001c54e0       __remainder_piby2_fma3     00000001801c64e0 f   libucrt:remainder_piby2_forfma3.obj
 0001:001c56d0       __remainder_piby2_fma3_bdl 00000001801c66d0 f   libucrt:remainder_piby2_forfma3.obj
 0001:001c5748       _cosf_special              00000001801c6748 f   libucrt:sincos_special.obj
 0001:001c57e8       _sinf_special              00000001801c67e8 f   libucrt:sincos_special.obj
 0001:001c57fc       _tanf_special              00000001801c67fc f   libucrt:sincos_special.obj
 0001:001c5810       _clrfp                     00000001801c6810 f   libucrt:fpctrl.obj
 0001:001c5830       _ctrlfp                    00000001801c6830 f   libucrt:fpctrl.obj
 0001:001c58ac       _set_statfp                00000001801c68ac f   libucrt:fpctrl.obj
 0001:001c58cc       _statfp                    00000001801c68cc f   libucrt:fpctrl.obj
 0001:001c58e0       __acrt_initialize_fma3     00000001801c68e0 f   libucrt:fma3_available.obj
 0001:001c5950       __remainder_piby2d2f_forC  00000001801c6950 f   libucrt:remainder_piby2f_forc.obj
 0001:001c5adc       ?get_raw_ptd_noexit@__crt_cached_ptd_host@@QEAAPEAU__acrt_ptd@@XZ 00000001801c6adc f i libucrt:invalid_parameter.obj
 0001:001c5b48       ?value@?$dual_state_global@P6AXPEB_W00I_K@Z@__crt_state_management@@QEAAAEAP6AXPEB_W00I_K@ZAEAV__crt_cached_ptd_host@@@Z 00000001801c6b48 f i libucrt:invalid_parameter.obj
 0001:001c5b94       __acrt_call_reportfault    00000001801c6b94 f   libucrt:invalid_parameter.obj
 0001:001c5cf0       __acrt_initialize_invalid_parameter_handler 00000001801c6cf0 f   libucrt:invalid_parameter.obj
 0001:001c5cf8       _invalid_parameter         00000001801c6cf8 f   libucrt:invalid_parameter.obj
 0001:001c5d94       _invalid_parameter_internal 00000001801c6d94 f   libucrt:invalid_parameter.obj
 0001:001c5e64       _invalid_parameter_noinfo  00000001801c6e64 f   libucrt:invalid_parameter.obj
 0001:001c5e84       _invoke_watson             00000001801c6e84 f   libucrt:invalid_parameter.obj
 0001:001c5ecc       __acrt_errno_from_os_error 00000001801c6ecc f   libucrt:errno.obj
 0001:001c5f14       __acrt_errno_map_os_error  00000001801c6f14 f   libucrt:errno.obj
 0001:001c5f5c       __acrt_errno_map_os_error_ptd 00000001801c6f5c f   libucrt:errno.obj
 0001:001c5f80       __doserrno                 00000001801c6f80 f   libucrt:errno.obj
 0001:001c5fa0       _errno                     00000001801c6fa0 f   libucrt:errno.obj
 0001:001c5fc0       _calloc_base               00000001801c6fc0 f   libucrt:calloc_base.obj
 0001:001c6038       _free_base                 00000001801c7038 f   libucrt:free_base.obj
 0001:001c6234       __acrt_AppPolicyGetProcessTerminationMethodInternal 00000001801c7234 f   libucrt:winapi_thunks.obj
 0001:001c628c       __acrt_AreFileApisANSI     00000001801c728c f   libucrt:winapi_thunks.obj
 0001:001c62d0       __acrt_FlsAlloc            00000001801c72d0 f   libucrt:winapi_thunks.obj
 0001:001c62d8       __acrt_FlsFree             00000001801c72d8 f   libucrt:winapi_thunks.obj
 0001:001c62e0       __acrt_FlsGetValue         00000001801c72e0 f   libucrt:winapi_thunks.obj
 0001:001c62e8       __acrt_FlsSetValue         00000001801c72e8 f   libucrt:winapi_thunks.obj
 0001:001c62f0       __acrt_InitializeCriticalSectionEx 00000001801c72f0 f   libucrt:winapi_thunks.obj
 0001:001c6360       __acrt_LCMapStringEx       00000001801c7360 f   libucrt:winapi_thunks.obj
 0001:001c644c       __acrt_LocaleNameToLCID    00000001801c744c f   libucrt:winapi_thunks.obj
 0001:001c64ac       __acrt_initialize_winapi_thunks 00000001801c74ac f   libucrt:winapi_thunks.obj
 0001:001c64d0       __acrt_uninitialize_winapi_thunks 00000001801c74d0 f   libucrt:winapi_thunks.obj
 0001:001c6514       _fcloseall                 00000001801c7514 f   libucrt:closeall.obj
 0001:001c67a4       __acrt_stdio_flush_nolock  00000001801c77a4 f   libucrt:fflush.obj
 0001:001c6830       _fflush_nolock             00000001801c7830 f   libucrt:fflush.obj
 0001:001c6904       _flushall                  00000001801c7904 f   libucrt:fflush.obj
 0001:001c690c       __acrt_stdio_free_buffer_nolock 00000001801c790c f   libucrt:_freebuf.obj
 0001:001c6b44       __acrt_initialize_lowio    00000001801c7b44 f   libucrt:ioinit.obj
 0001:001c6b80       __acrt_uninitialize_lowio  00000001801c7b80 f   libucrt:ioinit.obj
 0001:001c6bc0       _malloc_base               00000001801c7bc0 f   libucrt:malloc_base.obj
 0001:001c6c20       strnlen                    00000001801c7c20 f   libucrt:strnlen.obj
 0001:001c6d70       wcsnlen                    00000001801c7d70 f   libucrt:strnlen.obj
 0001:001c6f48       __acrt_update_locale_info  00000001801c7f48 f   libucrt:locale_update.obj
 0001:001c6f7c       __acrt_update_locale_info_explicit 00000001801c7f7c f   libucrt:locale_update.obj
 0001:001c6fb4       __acrt_update_multibyte_info 00000001801c7fb4 f   libucrt:locale_update.obj
 0001:001c6fe8       __acrt_update_multibyte_info_explicit 00000001801c7fe8 f   libucrt:locale_update.obj
 0001:001c7b50       __acrt_fp_format           00000001801c8b50 f   libucrt:cvt.obj
 0001:001c7e38       _wctomb_internal           00000001801c8e38 f   libucrt:wctomb.obj
 0001:001c7fe8       _mbtowc_internal           00000001801c8fe8 f   libucrt:mbtowc.obj
 0001:001c8160       _fileno                    00000001801c9160 f   libucrt:fileno.obj
 0001:001c8188       _get_printf_count_output   00000001801c9188 f   libucrt:printf_count_output.obj
 0001:001c81a0       _fputc_nolock_internal     00000001801c91a0 f   libucrt:fputc.obj
 0001:001c81b8       __acrt_should_use_temporary_buffer 00000001801c91b8 f   libucrt:_sftbuf.obj
 0001:001c8200       __acrt_stdio_begin_temporary_buffering_nolock 00000001801c9200 f   libucrt:_sftbuf.obj
 0001:001c82c8       __acrt_stdio_end_temporary_buffering_nolock 00000001801c92c8 f   libucrt:_sftbuf.obj
 0001:001c867c       __acrt_freeptd             00000001801c967c f   libucrt:per_thread_data.obj
 0001:001c86c0       __acrt_getptd              00000001801c96c0 f   libucrt:per_thread_data.obj
 0001:001c8794       __acrt_getptd_head         00000001801c9794 f   libucrt:per_thread_data.obj
 0001:001c8838       __acrt_getptd_noexit       00000001801c9838 f   libucrt:per_thread_data.obj
 0001:001c8900       __acrt_getptd_noexit_explicit 00000001801c9900 f   libucrt:per_thread_data.obj
 0001:001c89c0       __acrt_initialize_ptd      00000001801c99c0 f   libucrt:per_thread_data.obj
 0001:001c89fc       __acrt_uninitialize_ptd    00000001801c99fc f   libucrt:per_thread_data.obj
 0001:001c8a90       __acrt_set_locale_changed  00000001801c9a90 f   libucrt:wsetlocale.obj
 0001:001c8a9c       __acrt_uninitialize_locale 00000001801c9a9c f   libucrt:wsetlocale.obj
 0001:001c8bf0       _handle_error              00000001801c9bf0 f   libucrt:libm_error.obj
 0001:001c8d18       _handle_errorf             00000001801c9d18 f   libucrt:libm_error.obj
 0001:001c8e4c       _handle_nan                00000001801c9e4c f   libucrt:libm_error.obj
 0001:001c8e68       _handle_nanf               00000001801c9e68 f   libucrt:libm_error.obj
 0001:001c8e80       _powf_special              00000001801c9e80 f   libucrt:pow_special.obj
 0001:001c8fd0       __acrt_initialize_locks    00000001801c9fd0 f   libucrt:locks.obj
 0001:001c9018       __acrt_lock                00000001801ca018 f   libucrt:locks.obj
 0001:001c9034       __acrt_uninitialize_locks  00000001801ca034 f   libucrt:locks.obj
 0001:001c906c       __acrt_unlock              00000001801ca06c f   libucrt:locks.obj
 0001:001c9088       __acrt_get_process_end_policy 00000001801ca088 f   libucrt:win_policies.obj
 0001:001c90d8       ??$__acrt_convert_wcs_mbs_cp@D_WV<lambda_7c9dea7b4ca7285d2cdb541a38da6275>@@U__crt_win32_buffer_internal_dynamic_resizing@@@@YAHQEBDAEAV?$__crt_win32_buffer@_WU__crt_win32_buffer_internal_dynamic_resizing@@@@AEBV<lambda_7c9dea7b4ca7285d2cdb541a38da6275>@@I@Z 00000001801ca0d8 f i libucrt:argv_wildcards.obj
 0001:001c9254       ??$__acrt_convert_wcs_mbs_cp@_WDV<lambda_d8593a27d1aa8c02be35c86a17d324c4>@@U__crt_win32_buffer_internal_dynamic_resizing@@@@YAHQEB_WAEAV?$__crt_win32_buffer@DU__crt_win32_buffer_internal_dynamic_resizing@@@@AEBV<lambda_d8593a27d1aa8c02be35c86a17d324c4>@@I@Z 00000001801ca254 f i libucrt:argv_wildcards.obj
 0001:001c9afc       ??0_LocaleUpdate@@QEAA@QEAU__crt_locale_pointers@@@Z 00000001801caafc f i libucrt:argv_wildcards.obj
 0001:001c9b98       __acrt_expand_narrow_argv_wildcards 00000001801cab98 f   libucrt:argv_wildcards.obj
 0001:001c9ba0       ??$__acrt_convert_wcs_mbs_cp@_WDV<lambda_f788ae46380686e8b737efdd8c720d07>@@U__crt_win32_buffer_no_resizing@@@@YAHQEB_WAEAV?$__crt_win32_buffer@DU__crt_win32_buffer_no_resizing@@@@AEBV<lambda_f788ae46380686e8b737efdd8c720d07>@@I@Z 00000001801caba0 f i libucrt:getmodulefilenamea.obj
 0001:001c9cbc       __acrt_GetModuleFileNameA  00000001801cacbc f   libucrt:getmodulefilenamea.obj
 0001:001ca5d8       __acrt_initialize_multibyte 00000001801cb5d8 f   libucrt:mbctype.obj
 0001:001ca638       __acrt_update_thread_multibyte_data 00000001801cb638 f   libucrt:mbctype.obj
 0001:001ca654       _setmbcp_nolock            00000001801cb654 f   libucrt:mbctype.obj
 0001:001ca988       _ismbblead                 00000001801cb988 f   libucrt:ismbbyte.obj
 0001:001ca99c       __acrt_initialize_command_line 00000001801cb99c f   libucrt:argv_data.obj
 0001:001ca9c4       __acrt_MultiByteToWideChar 00000001801cb9c4 f   libucrt:multibytetowidechar.obj
 0001:001caa20       __acrt_WideCharToMultiByte 00000001801cba20 f   libucrt:widechartomultibyte.obj
 0001:001caad0       __dcrt_get_narrow_environment_from_os 00000001801cbad0 f   libucrt:get_environment_from_os.obj
 0001:001cabe0       _recalloc_base             00000001801cbbe0 f   libucrt:recalloc.obj
 0001:001cac78       __acrt_initialize_heap     00000001801cbc78 f   libucrt:heap_handle.obj
 0001:001cac94       __acrt_uninitialize_heap   00000001801cbc94 f   libucrt:heap_handle.obj
 0001:001caca0       __acrt_execute_initializers 00000001801cbca0 f   libucrt:shared_initialization.obj
 0001:001cad34       __acrt_execute_uninitializers 00000001801cbd34 f   libucrt:shared_initialization.obj
 0001:001cad7c       __acrt_initialize_new_handler 00000001801cbd7c f   libucrt:new_handler.obj
 0001:001cad84       _callnewh                  00000001801cbd84 f   libucrt:new_handler.obj
 0001:001cadc0       _query_new_handler         00000001801cbdc0 f   libucrt:new_handler.obj
 0001:001cae3c       __acrt_get_sigabrt_handler 00000001801cbe3c f   libucrt:signal.obj
 0001:001cae6c       __acrt_initialize_signal_handlers 00000001801cbe6c f   libucrt:signal.obj
 0001:001cae8c       raise                      00000001801cbe8c f   libucrt:signal.obj
 0001:001cb10c       __acrt_has_user_matherr    00000001801cc10c f   libucrt:matherr.obj
 0001:001cb12c       __acrt_initialize_user_matherr 00000001801cc12c f   libucrt:matherr.obj
 0001:001cb134       __acrt_invoke_user_matherr 00000001801cc134 f   libucrt:matherr.obj
 0001:001cb16c       __pctype_func              00000001801cc16c f   libucrt:ctype.obj
 0001:001cb19c       _isctype_l                 00000001801cc19c f   libucrt:isctype.obj
 0001:001cb2c0       _get_fpsr                  00000001801cc2c0 f   libucrt:fpsr.obj
 0001:001cb2d0       _set_fpsr                  00000001801cc2d0 f   libucrt:fpsr.obj
 0001:001cb2da       _fclrf                     00000001801cc2da f   libucrt:fpsr.obj
 0001:001cb2ee       _frnd                      00000001801cc2ee f   libucrt:fpsr.obj
 0001:001cb310       _query_new_mode            00000001801cc310 f   libucrt:new_mode.obj
 0001:001cb318       __acrt_DownlevelLocaleNameToLCID 00000001801cc318 f   libucrt:lcidtoname_downlevel.obj
 0001:001cb4e0       fclose                     00000001801cc4e0 f   libucrt:fclose.obj
 0001:001cb604       _commit                    00000001801cc604 f   libucrt:commit.obj
 0001:001cbeb4       _write_internal            00000001801cceb4 f   libucrt:write.obj
 0001:001cbfdc       _write_nolock              00000001801ccfdc f   libucrt:write.obj
 0001:001cc2ec       __acrt_lowio_create_handle_array 00000001801cd2ec f   libucrt:osfinfo.obj
 0001:001cc394       __acrt_lowio_destroy_handle_array 00000001801cd394 f   libucrt:osfinfo.obj
 0001:001cc3e4       __acrt_lowio_ensure_fh_exists 00000001801cd3e4 f   libucrt:osfinfo.obj
 0001:001cc48c       __acrt_lowio_lock_fh       00000001801cd48c f   libucrt:osfinfo.obj
 0001:001cc4b4       __acrt_lowio_unlock_fh     00000001801cd4b4 f   libucrt:osfinfo.obj
 0001:001cc4dc       _free_osfhnd               00000001801cd4dc f   libucrt:osfinfo.obj
 0001:001cc598       _get_osfhandle             00000001801cd598 f   libucrt:osfinfo.obj
 0001:001cc610       __acrt_add_locale_ref      00000001801cd610 f   libucrt:locale_refcounting.obj
 0001:001cc69c       __acrt_free_locale         00000001801cd69c f   libucrt:locale_refcounting.obj
 0001:001cc814       __acrt_locale_add_lc_time_reference 00000001801cd814 f   libucrt:locale_refcounting.obj
 0001:001cc83c       __acrt_locale_free_lc_time_if_unreferenced 00000001801cd83c f   libucrt:locale_refcounting.obj
 0001:001cc874       __acrt_locale_release_lc_time_reference 00000001801cd874 f   libucrt:locale_refcounting.obj
 0001:001cc89c       __acrt_release_locale_ref  00000001801cd89c f   libucrt:locale_refcounting.obj
 0001:001cc944       __acrt_update_thread_locale_data 00000001801cd944 f   libucrt:locale_refcounting.obj
 0001:001cc9b4       _updatetlocinfoEx_nolock   00000001801cd9b4 f   libucrt:locale_refcounting.obj
 0001:001cca1c       __acrt_fp_strflt_to_string 00000001801cda1c f   libucrt:_fptostr.obj
 0001:001ccba0       ?divide@__crt_strtox@@YA_KAEAUbig_integer@1@AEBU21@@Z 00000001801cdba0 f i libucrt:cfout.obj
 0001:001cd02c       __acrt_fltout              00000001801ce02c f   libucrt:cfout.obj
 0001:001ce2f4       fegetround                 00000001801cf2f4 f   libucrt:fegetround.obj
 0001:001ce308       ?__c32rtomb_utf8@__crt_mbstring@@YA_KPEAD_UPEAU_Mbstatet@@AEAV__crt_cached_ptd_host@@@Z 00000001801cf308 f   libucrt:c32rtomb.obj
 0001:001ce3ac       ?__mbrtowc_utf8@__crt_mbstring@@YA_KPEA_WPEBD_KPEAU_Mbstatet@@AEAV__crt_cached_ptd_host@@@Z 00000001801cf3ac f   libucrt:mbrtowc.obj
 0001:001ce3f0       ?__mbsrtowcs_utf8@__crt_mbstring@@YA_KPEA_WPEAPEBD_KPEAU_Mbstatet@@AEAV__crt_cached_ptd_host@@@Z 00000001801cf3f0 f   libucrt:mbrtowc.obj
 0001:001ce708       __acrt_stdio_flush_and_write_narrow_nolock 00000001801cf708 f   libucrt:_flsbuf.obj
 0001:001ce7cc       _isatty                    00000001801cf7cc f   libucrt:isatty.obj
 0001:001ce82c       __acrt_locale_free_monetary 00000001801cf82c f   libucrt:initmon.obj
 0001:001ce938       __acrt_locale_free_numeric 00000001801cf938 f   libucrt:initnum.obj
 0001:001ce9d8       __acrt_locale_free_time    00000001801cf9d8 f   libucrt:inittime.obj
 0001:001ceae0       __acrt_GetStringTypeA      00000001801cfae0 f   libucrt:getstringtypea.obj
 0001:001cec7c       _raise_exc                 00000001801cfc7c f   libucrt:fpexcept.obj
 0001:001ceca4       _raise_exc_ex              00000001801cfca4 f   libucrt:fpexcept.obj
 0001:001cefb4       _raise_excf                00000001801cffb4 f   libucrt:fpexcept.obj
 0001:001cefe0       _set_errno_from_matherr    00000001801cffe0 f   libucrt:fpexcept.obj
 0001:001cf010       qsort                      00000001801d0010 f   libucrt:qsort.obj
 0001:001cf420       strncpy_s                  00000001801d0420 f   libucrt:strncpy_s.obj
 0001:001cf5b0       strpbrk                    00000001801d05b0 f   libucrt:strpbrk.obj
 0001:001cf978       _mbsdec                    00000001801d0978 f   libucrt:mbsdec.obj
 0001:001cf980       _mbsdec_l                  00000001801d0980 f   libucrt:mbsdec.obj
 0001:001cfd34       __acrt_LCMapStringA        00000001801d0d34 f   libucrt:lcmapstringa.obj
 0001:001cfde4       _msize_base                00000001801d0de4 f   libucrt:msize.obj
 0001:001cfe20       _realloc_base              00000001801d0e20 f   libucrt:realloc_base.obj
 0001:001cfe9c       __ascii_wcsnicmp           00000001801d0e9c f   libucrt:wcsnicmp.obj
 0001:001cff60       _close_internal            00000001801d0f60 f   libucrt:close.obj
 0001:001d0024       _close_nolock_internal     00000001801d1024 f   libucrt:close.obj
 0001:001d00f4       ?__acrt_stdio_free_stream@@YAXV__crt_stdio_stream@@@Z 00000001801d10f4 f   libucrt:stream.obj
 0001:001d02e4       _lseeki64                  00000001801d12e4 f   libucrt:lseek.obj
 0001:001d0380       _lseeki64_nolock_internal  00000001801d1380 f   libucrt:lseek.obj
 0001:001d0388       _putwch_nolock             00000001801d1388 f   libucrt:putwch.obj
 0001:001d03c4       _query_app_type            00000001801d13c4 f   libucrt:report_runtime_error.obj
 0001:001d03cc       _controlfp_s               00000001801d13cc f   libucrt:contrlfp.obj
 0001:001d0430       fegetenv                   00000001801d1430 f   libucrt:fegetenv.obj
 0001:001d0450       fesetenv                   00000001801d1450 f   libucrt:fesetenv.obj
 0001:001d049c       feholdexcept               00000001801d149c f   libucrt:feholdexcept.obj
 0001:001d04ec       ceil                       00000001801d14ec f   libucrt:ceil.obj
 0001:001d05b0       log10                      00000001801d15b0 f   libucrt:log10.obj
 0001:001d0b5c       __acrt_fenv_get_common_round_control 00000001801d1b5c f   libucrt:_fenvutils.obj
 0001:001d0b68       __acrt_fenv_get_control    00000001801d1b68 f   libucrt:_fenvutils.obj
 0001:001d0c4c       __acrt_fenv_get_status     00000001801d1c4c f   libucrt:_fenvutils.obj
 0001:001d0ca4       __acrt_fenv_set_control    00000001801d1ca4 f   libucrt:_fenvutils.obj
 0001:001d0de0       __acrt_fenv_set_status     00000001801d1de0 f   libucrt:_fenvutils.obj
 0001:001d0e54       ?reset_and_return@__crt_mbstring@@YA_K_KPEAU_Mbstatet@@@Z 00000001801d1e54 f   libucrt:common_utf8.obj
 0001:001d0e5c       ?return_illegal_sequence@__crt_mbstring@@YA_KPEAU_Mbstatet@@AEAV__crt_cached_ptd_host@@@Z 00000001801d1e5c f   libucrt:common_utf8.obj
 0001:001d0e70       ?__mbrtoc32_utf8@__crt_mbstring@@YA_KPEA_UPEBD_KPEAU_Mbstatet@@AEAV__crt_cached_ptd_host@@@Z 00000001801d1e70 f   libucrt:mbrtoc32.obj
 0001:001d104c       __acrt_stdio_allocate_buffer_nolock 00000001801d204c f   libucrt:_getbuf.obj
 0001:001d10b8       __strncnt                  00000001801d20b8 f   libucrt:strncnt.obj
 0001:001d10d0       __dcrt_lowio_ensure_console_output_initialized 00000001801d20d0 f   libucrt:initcon.obj
 0001:001d1124       __dcrt_terminate_console_output 00000001801d2124 f   libucrt:initcon.obj
 0001:001d1140       __dcrt_write_console       00000001801d2140 f   libucrt:initcon.obj
 0001:001d1200       _clearfp                   00000001801d2200 f   libucrt:ieee.obj
 0001:001d1270       _control87                 00000001801d2270 f   libucrt:ieee.obj
 0001:001d1540       _log10_special             00000001801d2540 f   libucrt:log_special.obj
 0001:001d1600       _FindPESection             00000001801d2600 f   LIBCMT:pesect.obj
 0001:001d1650       _IsNonwritableInCurrentImage 00000001801d2650 f   LIBCMT:pesect.obj
 0001:001d16a0       _ValidateImageBase         00000001801d26a0 f   LIBCMT:pesect.obj
 0001:001d16cc       __GSHandlerCheck           00000001801d26cc f   LIBCMT:gshandler.obj
 0001:001d16ec       __GSHandlerCheckCommon     00000001801d26ec f   LIBCMT:gshandler.obj
 0001:001d1760       __security_check_cookie    00000001801d2760 f   LIBCMT:amdsecgs.obj
 0001:001d1780       __GSHandlerCheck_SEH       00000001801d2780 f   LIBCMT:gshandlerseh.obj
 0001:001d1808       __raise_securityfailure    00000001801d2808 f   LIBCMT:gs_report.obj
 0001:001d183c       __report_gsfailure         00000001801d283c f   LIBCMT:gs_report.obj
 0001:001d1910       __report_rangecheckfailure 00000001801d2910 f   LIBCMT:gs_report.obj
 0001:001d1924       __report_securityfailure   00000001801d2924 f   LIBCMT:gs_report.obj
 0001:001d1aa4       __GSHandlerCheck_EH        00000001801d2aa4 f   LIBCMT:gshandlereh.obj
 0001:001d1b24       __C_specific_handler_noexcept 00000001801d2b24 f   libvcruntime:chandler_noexcept.obj
 0001:001d1b70       strrchr                    00000001801d2b70 f   libvcruntime:strrchr.obj
 0001:001d1cc0       memcmp                     00000001801d2cc0 f   libvcruntime:memcmp.obj
 0001:001d1da0       _guard_dispatch_icall_nop  00000001801d2da0 f   LIBCMT:guard_dispatch.obj
 0001:001d1dc0       _guard_xfg_dispatch_icall_nop 00000001801d2dc0 f   LIBCMT:guard_xfg_dispatch.obj
 0002:00000000       __imp_GetLastError         00000001801d4000     kernel32:KERNEL32.dll
 0002:00000008       __imp_FreeLibrary          00000001801d4008     kernel32:KERNEL32.dll
 0002:00000010       __imp_GetProcAddress       00000001801d4010     kernel32:KERNEL32.dll
 0002:00000018       __imp_LoadLibraryA         00000001801d4018     kernel32:KERNEL32.dll
 0002:00000020       __imp_RaiseException       00000001801d4020     kernel32:KERNEL32.dll
 0002:00000028       __imp_GetSystemInfo        00000001801d4028     kernel32:KERNEL32.dll
 0002:00000030       __imp_VirtualProtect       00000001801d4030     kernel32:KERNEL32.dll
 0002:00000038       __imp_VirtualQuery         00000001801d4038     kernel32:KERNEL32.dll
 0002:00000040       __imp_GetModuleHandleW     00000001801d4040     kernel32:KERNEL32.dll
 0002:00000048       __imp_LoadLibraryExA       00000001801d4048     kernel32:KERNEL32.dll
 0002:00000050       __imp_InitializeSListHead  00000001801d4050     kernel32:KERNEL32.dll
 0002:00000058       __imp_RtlCaptureContext    00000001801d4058     kernel32:KERNEL32.dll
 0002:00000060       __imp_RtlLookupFunctionEntry 00000001801d4060     kernel32:KERNEL32.dll
 0002:00000068       __imp_RtlVirtualUnwind     00000001801d4068     kernel32:KERNEL32.dll
 0002:00000070       __imp_IsDebuggerPresent    00000001801d4070     kernel32:KERNEL32.dll
 0002:00000078       __imp_UnhandledExceptionFilter 00000001801d4078     kernel32:KERNEL32.dll
 0002:00000080       __imp_SetUnhandledExceptionFilter 00000001801d4080     kernel32:KERNEL32.dll
 0002:00000088       __imp_GetStartupInfoW      00000001801d4088     kernel32:KERNEL32.dll
 0002:00000090       __imp_IsProcessorFeaturePresent 00000001801d4090     kernel32:KERNEL32.dll
 0002:00000098       __imp_QueryPerformanceCounter 00000001801d4098     kernel32:KERNEL32.dll
 0002:000000a0       __imp_GetCurrentProcessId  00000001801d40a0     kernel32:KERNEL32.dll
 0002:000000a8       __imp_GetCurrentThreadId   00000001801d40a8     kernel32:KERNEL32.dll
 0002:000000b0       __imp_GetSystemTimeAsFileTime 00000001801d40b0     kernel32:KERNEL32.dll
 0002:000000b8       __imp_InterlockedPushEntrySList 00000001801d40b8     kernel32:KERNEL32.dll
 0002:000000c0       __imp_InterlockedFlushSList 00000001801d40c0     kernel32:KERNEL32.dll
 0002:000000c8       __imp_RtlUnwindEx          00000001801d40c8     kernel32:KERNEL32.dll
 0002:000000d0       __imp_SetLastError         00000001801d40d0     kernel32:KERNEL32.dll
 0002:000000d8       __imp_EnterCriticalSection 00000001801d40d8     kernel32:KERNEL32.dll
 0002:000000e0       __imp_LeaveCriticalSection 00000001801d40e0     kernel32:KERNEL32.dll
 0002:000000e8       __imp_DeleteCriticalSection 00000001801d40e8     kernel32:KERNEL32.dll
 0002:000000f0       __imp_InitializeCriticalSectionAndSpinCount 00000001801d40f0     kernel32:KERNEL32.dll
 0002:000000f8       __imp_TlsAlloc             00000001801d40f8     kernel32:KERNEL32.dll
 0002:00000100       __imp_TlsGetValue          00000001801d4100     kernel32:KERNEL32.dll
 0002:00000108       __imp_TlsSetValue          00000001801d4108     kernel32:KERNEL32.dll
 0002:00000110       __imp_TlsFree              00000001801d4110     kernel32:KERNEL32.dll
 0002:00000118       __imp_LoadLibraryExW       00000001801d4118     kernel32:KERNEL32.dll
 0002:00000120       __imp_EncodePointer        00000001801d4120     kernel32:KERNEL32.dll
 0002:00000128       __imp_RtlPcToFileHeader    00000001801d4128     kernel32:KERNEL32.dll
 0002:00000130       __imp_GetCurrentProcess    00000001801d4130     kernel32:KERNEL32.dll
 0002:00000138       __imp_ExitProcess          00000001801d4138     kernel32:KERNEL32.dll
 0002:00000140       __imp_TerminateProcess     00000001801d4140     kernel32:KERNEL32.dll
 0002:00000148       __imp_GetModuleHandleExW   00000001801d4148     kernel32:KERNEL32.dll
 0002:00000150       __imp_GetModuleFileNameW   00000001801d4150     kernel32:KERNEL32.dll
 0002:00000158       __imp_HeapAlloc            00000001801d4158     kernel32:KERNEL32.dll
 0002:00000160       __imp_HeapFree             00000001801d4160     kernel32:KERNEL32.dll
 0002:00000168       __imp_FlsAlloc             00000001801d4168     kernel32:KERNEL32.dll
 0002:00000170       __imp_FlsGetValue          00000001801d4170     kernel32:KERNEL32.dll
 0002:00000178       __imp_FlsSetValue          00000001801d4178     kernel32:KERNEL32.dll
 0002:00000180       __imp_FlsFree              00000001801d4180     kernel32:KERNEL32.dll
 0002:00000188       __imp_LCMapStringW         00000001801d4188     kernel32:KERNEL32.dll
 0002:00000190       __imp_GetStdHandle         00000001801d4190     kernel32:KERNEL32.dll
 0002:00000198       __imp_GetFileType          00000001801d4198     kernel32:KERNEL32.dll
 0002:000001a0       __imp_FindClose            00000001801d41a0     kernel32:KERNEL32.dll
 0002:000001a8       __imp_FindFirstFileExW     00000001801d41a8     kernel32:KERNEL32.dll
 0002:000001b0       __imp_FindNextFileW        00000001801d41b0     kernel32:KERNEL32.dll
 0002:000001b8       __imp_IsValidCodePage      00000001801d41b8     kernel32:KERNEL32.dll
 0002:000001c0       __imp_GetACP               00000001801d41c0     kernel32:KERNEL32.dll
 0002:000001c8       __imp_GetOEMCP             00000001801d41c8     kernel32:KERNEL32.dll
 0002:000001d0       __imp_GetCPInfo            00000001801d41d0     kernel32:KERNEL32.dll
 0002:000001d8       __imp_GetCommandLineA      00000001801d41d8     kernel32:KERNEL32.dll
 0002:000001e0       __imp_GetCommandLineW      00000001801d41e0     kernel32:KERNEL32.dll
 0002:000001e8       __imp_MultiByteToWideChar  00000001801d41e8     kernel32:KERNEL32.dll
 0002:000001f0       __imp_WideCharToMultiByte  00000001801d41f0     kernel32:KERNEL32.dll
 0002:000001f8       __imp_GetEnvironmentStringsW 00000001801d41f8     kernel32:KERNEL32.dll
 0002:00000200       __imp_FreeEnvironmentStringsW 00000001801d4200     kernel32:KERNEL32.dll
 0002:00000208       __imp_GetProcessHeap       00000001801d4208     kernel32:KERNEL32.dll
 0002:00000210       __imp_FlushFileBuffers     00000001801d4210     kernel32:KERNEL32.dll
 0002:00000218       __imp_WriteFile            00000001801d4218     kernel32:KERNEL32.dll
 0002:00000220       __imp_GetConsoleOutputCP   00000001801d4220     kernel32:KERNEL32.dll
 0002:00000228       __imp_GetConsoleMode       00000001801d4228     kernel32:KERNEL32.dll
 0002:00000230       __imp_SetStdHandle         00000001801d4230     kernel32:KERNEL32.dll
 0002:00000238       __imp_GetFileSizeEx        00000001801d4238     kernel32:KERNEL32.dll
 0002:00000240       __imp_SetFilePointerEx     00000001801d4240     kernel32:KERNEL32.dll
 0002:00000248       __imp_GetStringTypeW       00000001801d4248     kernel32:KERNEL32.dll
 0002:00000250       __imp_HeapSize             00000001801d4250     kernel32:KERNEL32.dll
 0002:00000258       __imp_HeapReAlloc          00000001801d4258     kernel32:KERNEL32.dll
 0002:00000260       __imp_CloseHandle          00000001801d4260     kernel32:KERNEL32.dll
 0002:00000268       __imp_CreateFileW          00000001801d4268     kernel32:KERNEL32.dll
 0002:00000270       __imp_WriteConsoleW        00000001801d4270     kernel32:KERNEL32.dll
 0002:00000278       \177KERNEL32_NULL_THUNK_DATA 00000001801d4278     kernel32:KERNEL32.dll
 0002:00000280       __guard_check_icall_fptr   00000001801d4280     LIBCMT:guard_support.obj
 0002:00000288       __guard_xfg_check_icall_fptr 00000001801d4288     LIBCMT:guard_support.obj
 0002:00000290       __guard_dispatch_icall_fptr 00000001801d4290     LIBCMT:guard_support.obj
 0002:00000298       __guard_xfg_dispatch_icall_fptr 00000001801d4298     LIBCMT:guard_support.obj
 0002:000002a0       __guard_xfg_table_dispatch_icall_fptr 00000001801d42a0     LIBCMT:guard_support.obj
 0002:000002a8       __castguard_check_failure_os_handled_fptr 00000001801d42a8     LIBCMT:guard_support.obj
 0002:000002b0       __guard_memcpy_fptr        00000001801d42b0     libvcruntime:softmemtag.obj
 0002:000002b8       __xc_a                     00000001801d42b8     LIBCMT:initializers.obj
 0002:00001c60       __xc_z                     00000001801d5c60     LIBCMT:initializers.obj
 0002:00001c68       __xi_a                     00000001801d5c68     LIBCMT:initializers.obj
 0002:00001c70       __acrt_stdio_initializer   00000001801d5c70     libucrt:stdio_initializer.obj
 0002:00001c78       __acrt_tran_fma3_initializer 00000001801d5c78     libucrt:fma3_initializer.obj
 0002:00001c80       __acrt_multibyte_initializer 00000001801d5c80     libucrt:multibyte_initializer.obj
 0002:00001c88       __xi_z                     00000001801d5c88     LIBCMT:initializers.obj
 0002:00001c90       __xp_a                     00000001801d5c90     LIBCMT:initializers.obj
 0002:00001c98       __acrt_locale_terminator   00000001801d5c98     libucrt:locale_initializer.obj
 0002:00001ca0       __dcrt_console_output_terminator 00000001801d5ca0     libucrt:console_output_initializer.obj
 0002:00001ca8       __acrt_stdio_terminator    00000001801d5ca8     libucrt:stdio_initializer.obj
 0002:00001cb0       __xp_z                     00000001801d5cb0     LIBCMT:initializers.obj
 0002:00001cb8       __xt_a                     00000001801d5cb8     LIBCMT:initializers.obj
 0002:00001cc0       __xt_z                     00000001801d5cc0     LIBCMT:initializers.obj
 0002:00001cd0       ??_C@_08MDGMHCHN@PtrTable@ 00000001801d5cd0     CmPtrTable.obj
 0002:00001cdc       ??_C@_04GKJNKENE@void@     00000001801d5cdc     CmPtrTable.obj
 0002:00001ce8       ??_C@_07DFEBJDHE@mSingle@  00000001801d5ce8     CmPtrTable.obj
 0002:00001cf0       ??_C@_05NLHHBMOH@PxU16@    00000001801d5cf0     CmPtrTable.obj
 0002:00001cf8       ??_C@_06EPKHJPIM@mCount@   00000001801d5cf8     CmPtrTable.obj
 0002:00001d00       ??_C@_04DDKJGDCM@bool@     00000001801d5d00     CmPtrTable.obj
 0002:00001d08       ??_C@_0M@DAGELID@mOwnsMemory@ 00000001801d5d08     CmPtrTable.obj
 0002:00001d18       ??_C@_0M@MMPOMMLP@mBufferUsed@ 00000001801d5d18     CmPtrTable.obj
 0002:00001d24       ??_C@_05LMJPANIN@PxU32@    00000001801d5d24     CmPtrTable.obj
 0002:00001d30       ??_C@_09PMLNMEMN@mFreeSlot@ 00000001801d5d30     CmPtrTable.obj
 0002:00001d40       ??_7PxCollection@physx@@6B@ 00000001801d5d40     CmCollection.obj
 0002:00001dc0       ??_C@_00CNPNBAHC@@         00000001801d5dc0     CmCollection.obj
 0002:00001dc8       ??_7Collection@Cm@physx@@6B@ 00000001801d5dc8     CmCollection.obj
 0002:00001e50       ??_C@_0GE@GBACBMOC@PxCollection?3?3add?5called?5for?5an@ 00000001801d5e50     CmCollection.obj
 0002:00001ec0       ??_C@_0EI@BDOANBDD@D?3?2Repositories?2External?2PhysX?2@ 00000001801d5ec0     CmCollection.obj
 0002:00001f10       ??_C@_0EM@OMMGDOMK@PxCollection?3?3add?5called?5with?5a@ 00000001801d5f10     CmCollection.obj
 0002:00001f60       ??_C@_0EK@JLHPOPNE@D?3?2Repositories?2External?2PhysX?2@ 00000001801d5f60     CmCollection.obj
 0002:00001fb0       ??_C@_0BM@OIFKLHDN@?$DMallocation?5names?5disabled?$DO@ 00000001801d5fb0     CmCollection.obj
 0002:00001fd0       ??_7RadixSort@Cm@physx@@6B@ 00000001801d5fd0     CmRadixSort.obj
 0002:00001fd8       ??_7RadixSortBuffered@Cm@physx@@6B@ 00000001801d5fd8     CmRadixSort.obj
 0002:00001fe0       ??_C@_0EH@FENJAHCJ@D?3?2Repositories?2External?2PhysX?2@ 00000001801d5fe0     CmRadixSort.obj
 0002:00002030       __xmm@00000001000000010000000100000001 00000001801d6030     CmRadixSort.obj
 0002:00002040       __xmm@00000003000000020000000100000000 00000001801d6040     CmRadixSort.obj
 0002:00002050       __real@3d4ccccd            00000001801d6050     CmVisualization.obj
 0002:00002054       __real@3e19999a            00000001801d6054     CmVisualization.obj
 0002:00002058       __real@3e490fdb            00000001801d6058     CmVisualization.obj
 0002:0000205c       __real@3e800000            00000001801d605c     CmVisualization.obj
 0002:00002060       __real@3e99999a            00000001801d6060     CmVisualization.obj
 0002:00002064       __real@3ea0d97c            00000001801d6064     CmVisualization.obj
 0002:00002068       __real@3eddb3d7            00000001801d6068     CmVisualization.obj
 0002:0000206c       __real@3f3504f3            00000001801d606c     CmVisualization.obj
 0002:00002070       __real@3f800000            00000001801d6070     CmVisualization.obj
 0002:00002074       __real@3fc00000            00000001801d6074     CmVisualization.obj
 0002:00002078       __real@3fddb3d7            00000001801d6078     CmVisualization.obj
 0002:0000207c       __real@40100000            00000001801d607c     CmVisualization.obj
 0002:00002080       __real@40c90fdb            00000001801d6080     CmVisualization.obj
 0002:00002084       __real@bfddb3d7            00000001801d6084     CmVisualization.obj
 0002:00002088       __real@c0000000            00000001801d6088     CmVisualization.obj
 0002:00002090       __xmm@3f800000000000000000000000000000 00000001801d6090     CmVisualization.obj
 0002:000020a0       __xmm@7fffffff7fffffff7fffffff7fffffff 00000001801d60a0     CmVisualization.obj
 0002:000020b0       __xmm@80000000800000008000000080000000 00000001801d60b0     CmVisualization.obj
 0002:000020c0       ??_C@_0BB@CPDDPFKD@GetUpdatedModule@ 00000001801d60c0     CmWindowsModuleUpdateLoader.obj
 0002:000020e0       ??_C@_0FP@FAOBDELJ@D?3?2Repositories?2External?2PhysX?2@ 00000001801d60e0     CmWindowsModuleUpdateLoader.obj
 0002:00002140       ??_C@_0CP@PGOIOJOO@?$CFs?3?$CFi?3?5loadLibrary?5error?5when?5l@ 00000001801d6140     CmWindowsModuleUpdateLoader.obj
 0002:00002170       ??_C@_0BA@EGLNOO@PhysXFoundation@ 00000001801d6170     CmWindowsDelayLoadHook.obj
 0002:00002180       ??_C@_0M@ILKNCJKN@PhysXCommon@ 00000001801d6180     CmWindowsDelayLoadHook.obj
 0002:000021b0       __real@3f000000            00000001801d61b0     GuBox.obj
 0002:000021b4       __real@3f7ff972            00000001801d61b4     GuBox.obj
 0002:000021c0       __xmm@000000003a83126f3a83126f3a83126f 00000001801d61c0     GuBox.obj
 0002:000021d0       __xmm@00000000ba83126fba83126fba83126f 00000001801d61d0     GuBox.obj
 0002:000021e0       __xmm@3a83126f3a83126f3a83126f3a83126f 00000001801d61e0     GuBox.obj
 0002:000021f0       __xmm@ba83126fba83126fba83126fba83126f 00000001801d61f0     GuBox.obj
 0002:00002220       ??_7EntityReport@Gu@physx@@6B@ 00000001801d6220     GuSweepsHF.obj
 0002:00002220       ??_7OverlapCallback@PxBVH@physx@@6B@ 00000001801d6220     GuQuerySystem.obj
 0002:00002220       ??_7OverlapReport@Gu@physx@@6B@ 00000001801d6220     GuCCTSweepTests.obj
 0002:00002220       ??_7RaycastCallback@PxBVH@physx@@6B@ 00000001801d6220     GuQuerySystem.obj
 0002:00002220       ??_7RemapCallback@RTreeCooker@physx@@6B@ 00000001801d6220     GuCookingTriangleMesh.obj
 0002:00002240       __real@3b03126f            00000001801d6240     GuCCTSweepTests.obj
 0002:00002244       __real@40000000            00000001801d6244     GuCCTSweepTests.obj
 0002:00002280       ??_7SupportLocal@Gu@physx@@6B@ 00000001801d6280     GuGeometryQuery.obj
 0002:000022a0       ??_7?$SupportLocalImpl@VBoxV@Gu@physx@@@Gu@physx@@6B@ 00000001801d62a0     GuGeometryQuery.obj
 0002:000022c0       ??_7?$SupportLocalImpl@VConvexHullV@Gu@physx@@@Gu@physx@@6B@ 00000001801d62c0     GuGeometryQuery.obj
 0002:000022e0       ??_C@_0EC@FLMFGDON@D?3?2Repositories?2External?2PhysX?2@ 00000001801d62e0     GuGeometryQuery.obj
 0002:00002324       __real@30d1b7e9            00000001801d6324     GuGeometryQuery.obj
 0002:00002328       __real@322bcc77            00000001801d6328     GuGeometryQuery.obj
 0002:0000232c       __real@358637bd            00000001801d632c     GuGeometryQuery.obj
 0002:00002330       __real@3a83126f            00000001801d6330     GuGeometryQuery.obj
 0002:00002334       __real@3ccccccd            00000001801d6334     GuGeometryQuery.obj
 0002:00002338       __real@3dcccccd            00000001801d6338     GuGeometryQuery.obj
 0002:0000233c       __real@49742400            00000001801d633c     GuGeometryQuery.obj
 0002:00002340       __real@7f7fffff            00000001801d6340     GuGeometryQuery.obj
 0002:00002344       __real@bf800000            00000001801d6344     GuGeometryQuery.obj
 0002:00002350       __xmm@0000000000000000000000003f800000 00000001801d6350     GuGeometryQuery.obj
 0002:00002360       __xmm@00000000000000003f80000000000000 00000001801d6360     GuGeometryQuery.obj
 0002:00002370       __xmm@00000000000000003f8000003f800000 00000001801d6370     GuGeometryQuery.obj
 0002:00002380       __xmm@000000003f8000000000000000000000 00000001801d6380     GuGeometryQuery.obj
 0002:00002390       __xmm@000000003f8000003f8000003f800000 00000001801d6390     GuGeometryQuery.obj
 0002:000023a0       __xmm@00000000ffffffffffffffffffffffff 00000001801d63a0     GuGeometryQuery.obj
 0002:000023b0       __xmm@3d4ccccd3d4ccccd3d4ccccd3d4ccccd 00000001801d63b0     GuGeometryQuery.obj
 0002:000023c0       __xmm@3e19999a3e19999a3e19999a3e19999a 00000001801d63c0     GuGeometryQuery.obj
 0002:000023d0       __xmm@3e4ccccd3e4ccccd3e4ccccd3e4ccccd 00000001801d63d0     GuGeometryQuery.obj
 0002:000023e0       __xmm@3e8000003e8000003e8000003e800000 00000001801d63e0     GuGeometryQuery.obj
 0002:000023f0       __xmm@3f7ef9db3f7ef9db3f7ef9db3f7ef9db 00000001801d63f0     GuGeometryQuery.obj
 0002:00002400       __xmm@3f7ff2e53f7ff2e53f7ff2e53f7ff2e5 00000001801d6400     GuGeometryQuery.obj
 0002:00002410       __xmm@3f8000003f8000003f8000003f800000 00000001801d6410     GuGeometryQuery.obj
 0002:00002420       __xmm@7f7fffff7f7fffff7f7fffff7f7fffff 00000001801d6420     GuGeometryQuery.obj
 0002:00002430       __xmm@bf000000bf000000bf000000bf000000 00000001801d6430     GuGeometryQuery.obj
 0002:00002460       ??_C@_0EM@FHJHGGFP@D?3?2Repositories?2External?2PhysX?2@ 00000001801d6460     GuMeshFactory.obj
 0002:000024c0       ??_C@_0EM@BDFDGBD@Inserting?5object?5failed?3?5Object@ 00000001801d64c0     GuMeshFactory.obj
 0002:00002530       ??_7CallbackRaycast@RTree@Gu@physx@@6B@ 00000001801d6530     GuMidphaseRTree.obj
 0002:00002530       ??_7CallbackRefit@RTree@Gu@physx@@6B@ 00000001801d6530     GuTriangleMeshRTree.obj
 0002:00002530       ??_7PxInsertionCallback@physx@@6B@ 00000001801d6530     GuMeshFactory.obj
 0002:00002540       ??_7PxCollisionMeshMappingData@physx@@6B@ 00000001801d6540     GuMeshFactory.obj
 0002:00002550       ??_7MeshFactory@Gu@physx@@6B@ 00000001801d6550     GuMeshFactory.obj
 0002:00002558       ??_7MeshDataBase@Gu@physx@@6B@ 00000001801d6558     GuMeshFactory.obj
 0002:00002560       ??_C@_0EM@LJEBGINI@D?3?2Repositories?2External?2PhysX?2@ 00000001801d6560     GuMeshFactory.obj
 0002:000025b0       ??_7TriangleMeshData@Gu@physx@@6B@ 00000001801d65b0     GuMeshFactory.obj
 0002:000025b8       ??_7RTreeTriangleData@Gu@physx@@6B@ 00000001801d65b8     GuMeshFactory.obj
 0002:000025c0       ??_7BV4TriangleData@Gu@physx@@6B@ 00000001801d65c0     GuMeshFactory.obj
 0002:000025c8       ??_7SoftBodyCollisionData@Gu@physx@@6B@ 00000001801d65c8     GuMeshFactory.obj
 0002:000025d0       ??_7CollisionMeshMappingData@Gu@physx@@6B@ 00000001801d65d0     GuMeshFactory.obj
 0002:000025e0       ??_7SoftBodySimulationData@Gu@physx@@6B@ 00000001801d65e0     GuMeshFactory.obj
 0002:000025f0       ??_C@_0GP@NHELMDAL@Loading?5triangle?5mesh?5failed?3?5D@ 00000001801d65f0     GuMeshFactory.obj
 0002:00002660       ??_C@_0BP@CDOKDACA@RTree?5binary?5image?5load?5error?4@ 00000001801d6660     GuMeshFactory.obj
 0002:00002680       ??_C@_0BN@MJPNIELF@BV4?5binary?5image?5load?5error?4@ 00000001801d6680     GuMeshFactory.obj
 0002:000026a0       ??_C@_0BO@JDPABAOF@BV32?5binary?5image?5load?5error?4@ 00000001801d66a0     GuMeshFactory.obj
 0002:000026c0       ??_C@_0EC@FCKIGKJE@D?3?2Repositories?2External?2PhysX?2@ 00000001801d66c0     GuMeshFactory.obj
 0002:00002710       __xmm@fe7fffff7e7fffff7e7fffff7e7fffff 00000001801d6710     GuMeshFactory.obj
 0002:00002740       ??_C@_06EJKDJEDO@PxBase@   00000001801d6740     GuMetaData.obj
 0002:00002748       ??_C@_07GFCEJNGM@Valency@  00000001801d6748     GuMetaData.obj
 0002:00002750       ??_C@_07NHGKEEIN@mOffset@  00000001801d6750     GuMetaData.obj
 0002:00002758       ??_C@_0BB@BAGHBMNJ@BigConvexRawData@ 00000001801d6758     GuMetaData.obj
 0002:00002770       ??_C@_07PBDEJAAC@mSubdiv@  00000001801d6770     GuMetaData.obj
 0002:00002778       ??_C@_0L@HNPACPGH@mNbSamples@ 00000001801d6778     GuMetaData.obj
 0002:00002784       ??_C@_04NCKNBPPK@PxU8@     00000001801d6784     GuMetaData.obj
 0002:00002790       ??_C@_08DEPEKJNI@mSamples@ 00000001801d6790     GuMetaData.obj
 0002:000027a0       ??_C@_08IJDNJBMI@mNbVerts@ 00000001801d67a0     GuMetaData.obj
 0002:000027b0       ??_C@_0M@MMKMIJAF@mNbAdjVerts@ 00000001801d67b0     GuMetaData.obj
 0002:000027c0       ??_C@_0L@EOKMNILC@mValencies@ 00000001801d67c0     GuMetaData.obj
 0002:000027d0       ??_C@_0P@DLGEAMHJ@mAdjacentVerts@ 00000001801d67d0     GuMetaData.obj
 0002:000027e0       ??_C@_03NGLDENDA@SDF@      00000001801d67e0     GuMetaData.obj
 0002:000027e4       ??_C@_06KDGGGLIJ@PxVec3@   00000001801d67e4     GuMetaData.obj
 0002:000027ec       ??_C@_06GIEBFILM@PxReal@   00000001801d67ec     GuMetaData.obj
 0002:000027f8       ??_C@_0O@PFOPBKAM@BigConvexData@ 00000001801d67f8     GuMetaData.obj
 0002:00002808       ??_C@_05PLKALGFN@mData@    00000001801d6808     GuMetaData.obj
 0002:00002810       ??_C@_08PEMCLHEM@mVBuffer@ 00000001801d6810     GuMetaData.obj
 0002:00002820       ??_C@_09FBMAGD@Alignment@  00000001801d6820     GuMetaData.obj
 0002:00002830       ??_C@_0BE@KFHIBEEA@InternalObjectsData@ 00000001801d6830     GuMetaData.obj
 0002:00002848       ??_C@_07NKGFFIBH@mRadius@  00000001801d6848     GuMetaData.obj
 0002:00002850       ??_C@_08EHFCACAE@mExtents@ 00000001801d6850     GuMetaData.obj
 0002:00002860       ??_C@_0BA@LFMGGCBK@HullPolygonData@ 00000001801d6860     GuMetaData.obj
 0002:00002870       ??_C@_06BOHHGLB@mPlane@    00000001801d6870     GuMetaData.obj
 0002:00002878       ??_C@_06EHMLHGLN@mVRef8@   00000001801d6878     GuMetaData.obj
 0002:00002880       ??_C@_09BAHHHINI@mMinIndex@ 00000001801d6880     GuMetaData.obj
 0002:00002890       ??_C@_0P@GBLBPIPB@ConvexHullData@ 00000001801d6890     GuMetaData.obj
 0002:000028a0       ??_C@_09JDCJAPKD@PxBounds3@ 00000001801d68a0     GuMetaData.obj
 0002:000028ac       ??_C@_05NDNHIFA@mAABB@     00000001801d68ac     GuMetaData.obj
 0002:000028b8       ??_C@_0O@LNOGEMJI@mCenterOfMass@ 00000001801d68b8     GuMetaData.obj
 0002:000028c8       ??_C@_09CNMCBBKH@mPolygons@ 00000001801d68c8     GuMetaData.obj
 0002:000028d8       ??_C@_0BC@KKPDCFJC@mBigConvexRawData@ 00000001801d68d8     GuMetaData.obj
 0002:000028f0       ??_C@_08MPNAAJLD@mSdfData@ 00000001801d68f0     GuMetaData.obj
 0002:00002900       ??_C@_08ELDMKGKH@mNbEdges@ 00000001801d6900     GuMetaData.obj
 0002:00002910       ??_C@_0BA@CGLOHBAC@mNbHullVertices@ 00000001801d6910     GuMetaData.obj
 0002:00002920       ??_C@_0M@HGFFLLDM@mNbPolygons@ 00000001801d6920     GuMetaData.obj
 0002:00002930       ??_C@_09BHJEMDGO@mInternal@ 00000001801d6930     GuMetaData.obj
 0002:00002940       ??_C@_0L@GMFHOMKA@ConvexMesh@ 00000001801d6940     GuMetaData.obj
 0002:00002950       ??_C@_09ILEBDLJH@mHullData@ 00000001801d6950     GuMetaData.obj
 0002:0000295c       ??_C@_03DKDIKGNC@mNb@      00000001801d695c     GuMetaData.obj
 0002:00002960       ??_C@_0P@ENLHFHMD@mBigConvexData@ 00000001801d6960     GuMetaData.obj
 0002:00002970       ??_C@_05ILALLCHK@mMass@    00000001801d6970     GuMetaData.obj
 0002:00002978       ??_C@_07DBPDADGB@PxMat33@  00000001801d6978     GuMetaData.obj
 0002:00002980       ??_C@_08FNBHNDBI@mInertia@ 00000001801d6980     GuMetaData.obj
 0002:00002990       ??_C@_0O@FCKNKLMJ@GuMeshFactory@ 00000001801d6990     GuMetaData.obj
 0002:000029a0       ??_C@_0N@EGBCLMAK@mMeshFactory@ 00000001801d69a0     GuMetaData.obj
 0002:000029b0       ??_C@_0BE@CJJAMAMK@PxHeightFieldSample@ 00000001801d69b0     GuMetaData.obj
 0002:000029c4       ??_C@_05MBLIPEMA@PxI16@    00000001801d69c4     GuMetaData.obj
 0002:000029cc       ??_C@_06LNLHEAAG@height@   00000001801d69cc     GuMetaData.obj
 0002:000029d8       ??_C@_0N@HHDGHJN@PxBitAndByte@ 00000001801d69d8     GuMetaData.obj
 0002:000029e8       ??_C@_0P@MBBMLBO@materialIndex0@ 00000001801d69e8     GuMetaData.obj
 0002:000029f8       ??_C@_0P@BFAKPKFP@materialIndex1@ 00000001801d69f8     GuMetaData.obj
 0002:00002a08       ??_C@_0BD@EBLPJEOE@PxHeightFieldFlags@ 00000001801d6a08     GuMetaData.obj
 0002:00002a20       ??_C@_0BK@FNNCFFCN@PxHeightFieldFormat?3?3Enum@ 00000001801d6a20     GuMetaData.obj
 0002:00002a40       ??_C@_0BA@CLNFMAAA@HeightFieldData@ 00000001801d6a40     GuMetaData.obj
 0002:00002a50       ??_C@_04IMCGAIPI@rows@     00000001801d6a50     GuMetaData.obj
 0002:00002a58       ??_C@_07HIFEPIJN@columns@  00000001801d6a58     GuMetaData.obj
 0002:00002a60       ??_C@_08MOAGOABI@rowLimit@ 00000001801d6a60     GuMetaData.obj
 0002:00002a70       ??_C@_08BAGEHOBO@colLimit@ 00000001801d6a70     GuMetaData.obj
 0002:00002a80       ??_C@_09LKDBLADF@nbColumns@ 00000001801d6a80     GuMetaData.obj
 0002:00002a90       ??_C@_07ODIFGGLK@samples@  00000001801d6a90     GuMetaData.obj
 0002:00002a98       ??_C@_0BE@POHEGOJG@convexEdgeThreshold@ 00000001801d6a98     GuMetaData.obj
 0002:00002aac       ??_C@_05GECEPKB@flags@     00000001801d6aac     GuMetaData.obj
 0002:00002ab4       ??_C@_06DLEPGFEF@format@   00000001801d6ab4     GuMetaData.obj
 0002:00002ac0       ??_C@_0BF@MOGDNMPL@PxMaterialTableIndex@ 00000001801d6ac0     GuMetaData.obj
 0002:00002ad8       ??_C@_0M@JMJICJJO@HeightField@ 00000001801d6ad8     GuMetaData.obj
 0002:00002ae8       ??_C@_0O@ENGHMLJP@mSampleStride@ 00000001801d6ae8     GuMetaData.obj
 0002:00002af8       ??_C@_0L@EBEEMFFB@mMinHeight@ 00000001801d6af8     GuMetaData.obj
 0002:00002b08       ??_C@_0L@EAEIFPOF@mMaxHeight@ 00000001801d6b08     GuMetaData.obj
 0002:00002b18       ??_C@_0N@FEFJOKKE@mModifyCount@ 00000001801d6b18     GuMetaData.obj
 0002:00002b28       ??_C@_09PHDKHCK@RTreePage@ 00000001801d6b28     GuMetaData.obj
 0002:00002b34       ??_C@_04LLPOBGED@minx@     00000001801d6b34     GuMetaData.obj
 0002:00002b3c       ??_C@_04KCOFCHAC@miny@     00000001801d6b3c     GuMetaData.obj
 0002:00002b44       ??_C@_04IJMIHEMB@minz@     00000001801d6b44     GuMetaData.obj
 0002:00002b4c       ??_C@_04GGOBOBGO@maxx@     00000001801d6b4c     GuMetaData.obj
 0002:00002b54       ??_C@_04HPPKNACP@maxy@     00000001801d6b54     GuMetaData.obj
 0002:00002b5c       ??_C@_04FENHIDOM@maxz@     00000001801d6b5c     GuMetaData.obj
 0002:00002b64       ??_C@_04HHDFEJON@ptrs@     00000001801d6b64     GuMetaData.obj
 0002:00002b6c       ??_C@_05FFEIGAJF@RTree@    00000001801d6b6c     GuMetaData.obj
 0002:00002b74       ??_C@_06OMCHPNEO@PxVec4@   00000001801d6b74     GuMetaData.obj
 0002:00002b80       ??_C@_0L@NBIFEFLN@mBoundsMin@ 00000001801d6b80     GuMetaData.obj
 0002:00002b90       ??_C@_0L@MDAOKBNC@mBoundsMax@ 00000001801d6b90     GuMetaData.obj
 0002:00002ba0       ??_C@_0N@NJEHLCOF@mInvDiagonal@ 00000001801d6ba0     GuMetaData.obj
 0002:00002bb0       ??_C@_0BA@BEFIGPFG@mDiagonalScaler@ 00000001801d6bb0     GuMetaData.obj
 0002:00002bc0       ??_C@_09DICGGKGO@mPageSize@ 00000001801d6bc0     GuMetaData.obj
 0002:00002bd0       ??_C@_0O@BOFFCNOL@mNumRootPages@ 00000001801d6bd0     GuMetaData.obj
 0002:00002be0       ??_C@_0L@JKLGBKAE@mNumLevels@ 00000001801d6be0     GuMetaData.obj
 0002:00002bf0       ??_C@_0M@PHDOHJGK@mTotalNodes@ 00000001801d6bf0     GuMetaData.obj
 0002:00002c00       ??_C@_0M@GDGHALAO@mTotalPages@ 00000001801d6c00     GuMetaData.obj
 0002:00002c0c       ??_C@_06MHCBBJGP@mFlags@   00000001801d6c0c     GuMetaData.obj
 0002:00002c14       ??_C@_06MMNBLHOK@mPages@   00000001801d6c14     GuMetaData.obj
 0002:00002c20       ??_C@_0P@JNLGHJNH@SourceMeshBase@ 00000001801d6c20     GuMetaData.obj
 0002:00002c30       ??_C@_06JFCLJMNN@mVerts@   00000001801d6c30     GuMetaData.obj
 0002:00002c38       ??_C@_05GNIIDDHH@mType@    00000001801d6c38     GuMetaData.obj
 0002:00002c40       ??_C@_06DHAAKLFK@mRemap@   00000001801d6c40     GuMetaData.obj
 0002:00002c48       ??_C@_0L@LEOGNOEC@SourceMesh@ 00000001801d6c48     GuMetaData.obj
 0002:00002c58       ??_C@_07MPIKOOAP@mNbTris@  00000001801d6c58     GuMetaData.obj
 0002:00002c60       ??_C@_0N@FBMOMEHF@mTriangles32@ 00000001801d6c60     GuMetaData.obj
 0002:00002c70       ??_C@_0N@DGCGNFBP@mTriangles16@ 00000001801d6c70     GuMetaData.obj
 0002:00002c80       ??_C@_0O@NLNHFNO@QuantizedAABB@ 00000001801d6c80     GuMetaData.obj
 0002:00002c90       ??_C@_0BC@OOGBEMHH@mData?$FL0?$FN?4mExtents@ 00000001801d6c90     GuMetaData.obj
 0002:00002ca8       ??_C@_0BB@OCEDKIEF@mData?$FL0?$FN?4mCenter@ 00000001801d6ca8     GuMetaData.obj
 0002:00002cc0       ??_C@_0BC@HFMEAABI@mData?$FL1?$FN?4mExtents@ 00000001801d6cc0     GuMetaData.obj
 0002:00002cd8       ??_C@_0BB@CDMNHHIF@mData?$FL1?$FN?4mCenter@ 00000001801d6cd8     GuMetaData.obj
 0002:00002cf0       ??_C@_0BC@CFKNCOI@mData?$FL2?$FN?4mExtents@ 00000001801d6cf0     GuMetaData.obj
 0002:00002d08       ??_C@_0BB@LKCPBBIE@mData?$FL2?$FN?4mCenter@ 00000001801d6d08     GuMetaData.obj
 0002:00002d20       ??_C@_0O@MJJKKPFN@BVDataPackedQ@ 00000001801d6d20     GuMetaData.obj
 0002:00002d30       ??_C@_0O@JFMLAIPJ@CenterExtents@ 00000001801d6d30     GuMetaData.obj
 0002:00002d40       ??_C@_07GNKDIIKJ@mCenter@  00000001801d6d40     GuMetaData.obj
 0002:00002d48       ??_C@_0P@KBMJDPLO@BVDataPackedNQ@ 00000001801d6d48     GuMetaData.obj
 0002:00002d58       ??_C@_0M@PNCEBOG@LocalBounds@ 00000001801d6d58     GuMetaData.obj
 0002:00002d64       ??_C@_05KNFBNCOH@float@    00000001801d6d64     GuMetaData.obj
 0002:00002d70       ??_C@_0BC@LADJKHPL@mExtentsMagnitude@ 00000001801d6d70     GuMetaData.obj
 0002:00002d88       ??_C@_07HELIOLAF@BV4Tree@  00000001801d6d88     GuMetaData.obj
 0002:00002d90       ??_C@_0P@EMMDNPMH@mMeshInterface@ 00000001801d6d90     GuMetaData.obj
 0002:00002da0       ??_C@_0N@DCKMHLCL@mLocalBounds@ 00000001801d6da0     GuMetaData.obj
 0002:00002db0       ??_C@_08EEJOMIJL@mNbNodes@ 00000001801d6db0     GuMetaData.obj
 0002:00002dbc       ??_C@_06FIIIMFIO@mNodes@   00000001801d6dbc     GuMetaData.obj
 0002:00002dc8       ??_C@_09FGKNPI@mInitData@  00000001801d6dc8     GuMetaData.obj
 0002:00002dd8       ??_C@_0BC@CLDEHKCO@mCenterOrMinCoeff@ 00000001801d6dd8     GuMetaData.obj
 0002:00002df0       ??_C@_0BD@LAOLBNJ@mExtentsOrMaxCoeff@ 00000001801d6df0     GuMetaData.obj
 0002:00002e08       ??_C@_0P@JEECKKBL@mUserAllocated@ 00000001801d6e08     GuMetaData.obj
 0002:00002e18       ??_C@_0L@GLIMNECG@mQuantized@ 00000001801d6e18     GuMetaData.obj
 0002:00002e28       ??_C@_0L@CCOJDAID@mIsEdgeSet@ 00000001801d6e28     GuMetaData.obj
 0002:00002e38       ??_C@_08BNDBAGDH@mPadding@ 00000001801d6e38     GuMetaData.obj
 0002:00002e48       ??_C@_0N@OJNNNLIB@TriangleMesh@ 00000001801d6e48     GuMetaData.obj
 0002:00002e58       ??_C@_0M@OGEDMEAL@mNbVertices@ 00000001801d6e58     GuMetaData.obj
 0002:00002e68       ??_C@_0N@MGGDNHNI@mNbTriangles@ 00000001801d6e68     GuMetaData.obj
 0002:00002e78       ??_C@_09LNNEGOJA@mVertices@ 00000001801d6e78     GuMetaData.obj
 0002:00002e88       ??_C@_0L@KBOFAKLO@mTriangles@ 00000001801d6e88     GuMetaData.obj
 0002:00002e98       ??_C@_0P@MHDFIHLD@mExtraTrigData@ 00000001801d6e98     GuMetaData.obj
 0002:00002ea8       ??_C@_0N@MGIKKCI@mGeomEpsilon@ 00000001801d6ea8     GuMetaData.obj
 0002:00002eb8       ??_C@_0BB@IFLOOCNA@mMaterialIndices@ 00000001801d6eb8     GuMetaData.obj
 0002:00002ed0       ??_C@_0L@OPJMBFMI@mFaceRemap@ 00000001801d6ed0     GuMetaData.obj
 0002:00002ee0       ??_C@_0N@BIOECAPM@mAdjacencies@ 00000001801d6ee0     GuMetaData.obj
 0002:00002ef0       ??_C@_09CICJHLPI@mEdgeList@ 00000001801d6ef0     GuMetaData.obj
 0002:00002f00       ??_C@_0BD@IPKCNNIK@mLocalCenterOfMass@ 00000001801d6f00     GuMetaData.obj
 0002:00002f18       ??_C@_0BA@OCOIGPII@mGRB_triIndices@ 00000001801d6f18     GuMetaData.obj
 0002:00002f28       ??_C@_0BE@JPINNDAH@mGRB_triAdjacencies@ 00000001801d6f28     GuMetaData.obj
 0002:00002f40       ??_C@_0P@EDFJJHEF@mGRB_faceRemap@ 00000001801d6f40     GuMetaData.obj
 0002:00002f50       ??_C@_0BG@EEALPPCP@mGRB_faceRemapInverse@ 00000001801d6f50     GuMetaData.obj
 0002:00002f68       ??_C@_0O@CKMBAIFN@mGRB_BV32Tree@ 00000001801d6f68     GuMetaData.obj
 0002:00002f78       ??_C@_0BE@MGIOIICI@mSdfData?4mMeshLower@ 00000001801d6f78     GuMetaData.obj
 0002:00002f90       ??_C@_0BC@NNEDELGI@mSdfData?4mSpacing@ 00000001801d6f90     GuMetaData.obj
 0002:00002fa8       ??_C@_0BB@OHOFDAIL@mSdfData?4mDims?4x@ 00000001801d6fa8     GuMetaData.obj
 0002:00002fc0       ??_C@_0BB@POPOABMK@mSdfData?4mDims?4y@ 00000001801d6fc0     GuMetaData.obj
 0002:00002fd8       ??_C@_0BB@NFNDFCAJ@mSdfData?4mDims?4z@ 00000001801d6fd8     GuMetaData.obj
 0002:00002ff0       ??_C@_0BC@GMPBGGPI@mSdfData?4mNumSdfs@ 00000001801d6ff0     GuMetaData.obj
 0002:00003008       ??_C@_0O@BCEBBLNE@mSdfData?4mSdf@ 00000001801d7008     GuMetaData.obj
 0002:00003018       ??_C@_0BG@HMHEFHIE@mSdfData?4mSubgridSize@ 00000001801d7018     GuMetaData.obj
 0002:00003030       ??_C@_0BI@OFJBKPGB@mSdfData?4mNumStartSlots@ 00000001801d7030     GuMetaData.obj
 0002:00003048       ??_C@_0BM@MGEPBEON@mSdfData?4mSubgridStartSlots@ 00000001801d7048     GuMetaData.obj
 0002:00003068       ??_C@_0BJ@PKKGJLNM@mSdfData?4mNumSubgridSdfs@ 00000001801d7068     GuMetaData.obj
 0002:00003088       ??_C@_0BF@HLMPGIBH@mSdfData?4mSubgridSdf@ 00000001801d7088     GuMetaData.obj
 0002:000030a0       ??_C@_0CF@GMJNHGOK@mSdfData?4mSdfSubgrids3DTexBlock@ 00000001801d70a0     GuMetaData.obj
 0002:000030c8       ??_C@_0CF@HFIGEHKL@mSdfData?4mSdfSubgrids3DTexBlock@ 00000001801d70c8     GuMetaData.obj
 0002:000030f0       ??_C@_0CF@FOKLBEGI@mSdfData?4mSdfSubgrids3DTexBlock@ 00000001801d70f0     GuMetaData.obj
 0002:00003118       ??_C@_0BO@EIPCIOJH@mSdfData?4mSubgridsMinSdfValue@ 00000001801d7118     GuMetaData.obj
 0002:00003138       ??_C@_0BO@NIIBJOHN@mSdfData?4mSubgridsMaxSdfValue@ 00000001801d7138     GuMetaData.obj
 0002:00003158       ??_C@_0BO@GKGODKFG@mSdfData?4mBytesPerSparsePixel@ 00000001801d7158     GuMetaData.obj
 0002:00003178       ??_C@_0BJ@LEBGJKBE@mAccumulatedTrianglesRef@ 00000001801d7178     GuMetaData.obj
 0002:00003198       ??_C@_0BF@OJMCNCDP@mTrianglesReferences@ 00000001801d7198     GuMetaData.obj
 0002:000031b0       ??_C@_0BH@LDGPOFA@mNbTrianglesReferences@ 00000001801d71b0     GuMetaData.obj
 0002:000031c8       ??_C@_0BC@IFGECKF@RTreeTriangleMesh@ 00000001801d71c8     GuMetaData.obj
 0002:000031dc       ??_C@_06JDIHDDGN@mRTree@   00000001801d71dc     GuMetaData.obj
 0002:000031e8       ??_C@_0BA@LNNFPOKA@BV4TriangleMesh@ 00000001801d71e8     GuMetaData.obj
 0002:000031f8       ??_C@_08FKLPEGDB@mBV4Tree@ 00000001801d71f8     GuMetaData.obj
 0002:00003208       ??_7?$SupportLocalImpl@VConvexHullNoScaleV@Gu@physx@@@Gu@physx@@6B@ 00000001801d7208     GuMTD.obj
 0002:00003250       ?absMask@?1??FAbs@aos@physx@@YA?AT__m128@@T4@@Z@4QBIB 00000001801d7250     GuMTD.obj
 0002:00003260       ??_7GjkConvex@Gu@physx@@6B@ 00000001801d7260     GuMTD.obj
 0002:00003290       ??_7?$LocalConvex@VCapsuleV@Gu@physx@@@Gu@physx@@6B@ 00000001801d7290     GuMTD.obj
 0002:000032c0       ??_7?$LocalConvex@VConvexHullV@Gu@physx@@@Gu@physx@@6B@ 00000001801d72c0     GuMTD.obj
 0002:000032f0       __real@2edbe6ff            00000001801d72f0     GuMTD.obj
 0002:000032f4       __real@34000000            00000001801d72f4     GuMTD.obj
 0002:000032f8       __real@ff7fffff            00000001801d72f8     GuMTD.obj
 0002:00003300       __xmm@34000000340000003400000034000000 00000001801d7300     GuMTD.obj
 0002:00003310       __xmm@358637bd358637bd358637bd358637bd 00000001801d7310     GuMTD.obj
 0002:00003320       __xmm@3dcccccd3dcccccd3dcccccd3dcccccd 00000001801d7320     GuMTD.obj
 0002:00003330       __xmm@3f7ff1413f7ff1413f7ff1413f7ff141 00000001801d7330     GuMTD.obj
 0002:00003360       ??_7?$RelativeConvex@VBoxV@Gu@physx@@@Gu@physx@@6B@ 00000001801d7360     GuOverlapTests.obj
 0002:00003390       ??_7?$RelativeConvex@VConvexHullV@Gu@physx@@@Gu@physx@@6B@ 00000001801d7390     GuOverlapTests.obj
 0002:000033f0       __real@1e3ce508            00000001801d73f0     GuRaycastTests.obj
 0002:000033f4       __real@28800000            00000001801d73f4     GuRaycastTests.obj
 0002:000033f8       __real@33d6bf95            00000001801d73f8     GuRaycastTests.obj
 0002:000033fc       __real@3727c5ac            00000001801d73fc     GuRaycastTests.obj
 0002:00003400       __real@38d1b717            00000001801d7400     GuRaycastTests.obj
 0002:00003404       __real@3f0147ae            00000001801d7404     GuRaycastTests.obj
 0002:00003408       __real@3f7ffffe            00000001801d7408     GuRaycastTests.obj
 0002:0000340c       __real@3f800347            00000001801d740c     GuRaycastTests.obj
 0002:00003410       __real@41200000            00000001801d7410     GuRaycastTests.obj
 0002:00003414       __real@80000000            00000001801d7414     GuRaycastTests.obj
 0002:00003418       __real@b3d6bf95            00000001801d7418     GuRaycastTests.obj
 0002:0000341c       __real@b8d1b717            00000001801d741c     GuRaycastTests.obj
 0002:00003420       __real@c1200000            00000001801d7420     GuRaycastTests.obj
 0002:00003460       ??_7?$MeshHitCallback@UPxGeomRaycastHit@physx@@@Gu@physx@@6B@ 00000001801d7460     GuSweepMTD.obj
 0002:00003470       ??_7MeshMTDGenerationCallback@@6B@ 00000001801d7470     GuSweepMTD.obj
 0002:00003480       ??_7MidPhaseQueryLocalReport@@6B@ 00000001801d7480     GuSweepMTD.obj
 0002:00003490       __real@3f8147ae            00000001801d7490     GuSweepMTD.obj
 0002:00003494       __real@3f933333            00000001801d7494     GuSweepMTD.obj
 0002:000034c0       __real@3c23d70a            00000001801d74c0     GuSweepSharedTests.obj
 0002:000034c4       __real@42c80000            00000001801d74c4     GuSweepSharedTests.obj
 0002:000034d0       __xmm@ffffffffffffffffffffffffffffffff 00000001801d74d0     GuSweepSharedTests.obj
 0002:00003500       ??_7?$LocalConvex@VBoxV@Gu@physx@@@Gu@physx@@6B@ 00000001801d7500     GuSweepTests.obj
 0002:00003530       ??_7?$LocalConvex@VTriangleV@Gu@physx@@@Gu@physx@@6B@ 00000001801d7530     GuSweepTests.obj
 0002:00003560       __xmm@00000002000000020000000200000002 00000001801d7560     GuSweepTests.obj
 0002:00003570       __xmm@3eaaaa9f3eaaaa9f3eaaaa9f3eaaaa9f 00000001801d7570     GuSweepTests.obj
 0002:00003628       ??_7PxRunnable@physx@@6B@  00000001801d7628     GuSDF.obj
 0002:00003640       ??_C@_0EE@EOMFAMLP@D?3?2Repositories?2External?2PhysX?2@ 00000001801d7640     GuSDF.obj
 0002:00003688       ??_7PointOntoTriangleMeshProjector@Gu@physx@@6B@ 00000001801d7688     GuSDF.obj
 0002:000036a0       ??_7?$PxThreadT@V?$PxReflectionAllocator@VPxThreadImpl@physx@@@physx@@@physx@@6B@ 00000001801d76a0     GuSDF.obj
 0002:000036b0       ??_C@_06FJHNOCKE@thread@   00000001801d76b0     GuSDF.obj
 0002:000036c0       ??_C@_0LB@PNCFCFJO@SDF?5creation?3?5Fixing?5of?5the?5inp@ 00000001801d76c0     GuSDF.obj
 0002:00003780       ??_C@_0GH@OCDHPNNL@SDF?5creation?3?5Input?5mesh?5is?5not@ 00000001801d7780     GuSDF.obj
 0002:000037f0       ??_C@_0ED@DDFHEHKK@D?3?2Repositories?2External?2PhysX?2@ 00000001801d77f0     GuSDF.obj
 0002:00003840       ??_C@_0EB@LPLKPCGM@D?3?2Repositories?2External?2PhysX?2@ 00000001801d7840     GuSDF.obj
 0002:00003890       ??_C@_0EK@HJECBMNF@D?3?2Repositories?2External?2PhysX?2@ 00000001801d7890     GuSDF.obj
 0002:000038dc       __real@37800080            00000001801d78dc     GuSDF.obj
 0002:000038e0       __real@3b808081            00000001801d78e0     GuSDF.obj
 0002:000038e4       __real@3e2aaaab            00000001801d78e4     GuSDF.obj
 0002:000038e8       __real@3eaaaaab            00000001801d78e8     GuSDF.obj
 0002:000038ec       __real@3f7d70a4            00000001801d78ec     GuSDF.obj
 0002:000038f0       __real@7e7fffff            00000001801d78f0     GuSDF.obj
 0002:000038f4       __real@bf000000            00000001801d78f4     GuSDF.obj
 0002:000038f8       __real@fe7fffff            00000001801d78f8     GuSDF.obj
 0002:00003900       __xmm@00000001000000000000000000000000 00000001801d7900     GuSDF.obj
 0002:00003910       __real@437f0000            00000001801d7910     GuCookingSDF.obj
 0002:00003914       __real@477fff00            00000001801d7914     GuCookingSDF.obj
 0002:00003940       ??_7?$RelativeConvex@UCustomConvexV@@@Gu@physx@@6B@ 00000001801d7940     GuGjkQuery.obj
 0002:00003970       ??_7?$LocalConvex@UCustomConvexV@@@Gu@physx@@6B@ 00000001801d7970     GuGjkQuery.obj
 0002:000039a0       ??_7?$LocalConvex@UPointConvexV@@@Gu@physx@@6B@ 00000001801d79a0     GuGjkQuery.obj
 0002:000039f0       __real@3da2f983            00000001801d79f0     GuWindingNumber.obj
 0002:000039f4       __real@3e22f983            00000001801d79f4     GuWindingNumber.obj
 0002:000039f8       __real@3f99999a            00000001801d79f8     GuWindingNumber.obj
 0002:00003a60       __real@3c343958            00000001801d7a60     GuCCDSweepConvexMesh.obj
 0002:00003a64       __real@3ca3d70a            00000001801d7a64     GuCCDSweepConvexMesh.obj
 0002:00003a68       __real@3f0ccccd            00000001801d7a68     GuCCDSweepConvexMesh.obj
 0002:00003a6c       __real@3f8ccccd            00000001801d7a6c     GuCCDSweepConvexMesh.obj
 0002:00003a70       __real@b58637bd            00000001801d7a70     GuCCDSweepConvexMesh.obj
 0002:00003aa0       ??_7?$RelativeConvex@VCapsuleV@Gu@physx@@@Gu@physx@@6B@ 00000001801d7aa0     GuCCDSweepPrimitives.obj
 0002:00003ad0       ??_7?$RelativeConvex@VTriangleV@Gu@physx@@@Gu@physx@@6B@ 00000001801d7ad0     GuCCDSweepPrimitives.obj
 0002:00003b00       __real@3ba3d70a            00000001801d7b00     GuCCDSweepPrimitives.obj
 0002:00003b04       __real@501502f9            00000001801d7b04     GuCCDSweepPrimitives.obj
 0002:00003b30       ??_C@_0FD@HMFJDFLM@D?3?2Repositories?2External?2PhysX?2@ 00000001801d7b30     GuAdjacencies.obj
 0002:00003b88       ??_C@_0DA@FMEHLBKI@Adjacencies?3?3UpdateLink?3?5invali@ 00000001801d7b88     GuAdjacencies.obj
 0002:00003bc0       ??_C@_0EA@CPHOACLK@Adjacencies?3?3CreateDatabase?3?5ca@ 00000001801d7bc0     GuAdjacencies.obj
 0002:00003c00       ??_C@_0FA@MGPBABFM@D?3?2Repositories?2External?2PhysX?2@ 00000001801d7c00     GuEdgeList.obj
 0002:00003c50       ??_C@_0CO@GBNJFPN@EdgeList?3?3CreateFacesToEdges?3?5N@ 00000001801d7c50     GuEdgeList.obj
 0002:00003c80       ??_C@_0CO@EHJBBMNK@EdgeList?3?3ComputeActiveEdges?3?5N@ 00000001801d7c80     GuEdgeList.obj
 0002:00003cb0       ??_C@_0DI@GBHLFOFP@ActiveEdges?3?3ComputeConvexEdges@ 00000001801d7cb0     GuEdgeList.obj
 0002:00003ce8       ??_C@_0DM@JOGBLHDI@ActiveEdges?3?3ComputeConvexEdges@ 00000001801d7ce8     GuEdgeList.obj
 0002:00003d30       ??_C@_0ED@FEMJKPEL@ActiveEdges?3?3ComputeConvexEdges@ 00000001801d7d30     GuEdgeList.obj
 0002:00003d80       ??_C@_0EB@BFDPMFCD@ActiveEdges?3?3ComputeConvexEdges@ 00000001801d7d80     GuEdgeList.obj
 0002:00003dc4       __real@bf7fbe77            00000001801d7dc4     GuEdgeList.obj
 0002:00003dc8       ??_7Quantizer@Gu@physx@@6B@ 00000001801d7dc8     GuQuantizer.obj
 0002:00003df0       ??_7QuantizerImpl@@6B@     00000001801d7df0     GuQuantizer.obj
 0002:00003e20       ??_C@_0FB@KLPGJJDM@D?3?2Repositories?2External?2PhysX?2@ 00000001801d7e20     GuQuantizer.obj
 0002:00003e74       __real@3f0020c5            00000001801d7e74     GuQuantizer.obj
 0002:00003e78       __real@3f8020c5            00000001801d7e78     GuQuantizer.obj
 0002:00003e80       ??_C@_0FD@FJACBIOI@D?3?2Repositories?2External?2PhysX?2@ 00000001801d7e80     GuMeshCleaner.obj
 0002:00003ee0       ??_C@_0FF@FDAEOIBK@D?3?2Repositories?2External?2PhysX?2@ 00000001801d7ee0     GuVertexReducer.obj
 0002:00004030       __real@3f7fbe77            00000001801d8030     GuContactBoxBox.obj
 0002:00004080       __real@3f7ff2e5            00000001801d8080     GuContactCapsuleCapsule.obj
 0002:00004084       __real@40800000            00000001801d8084     GuContactCapsuleCapsule.obj
 0002:00004110       __real@358637be            00000001801d8110     GuContactCapsuleMesh.obj
 0002:00004114       __real@ba83126f            00000001801d8114     GuContactCapsuleMesh.obj
 0002:00004170       ??_7ConvexMeshContactGenerationCallback@@6B@ 00000001801d8170     GuContactConvexMesh.obj
 0002:000041f0       __real@3ec90fdb            00000001801d81f0     GuContactPolygonPolygon.obj
 0002:000041f4       __real@3f490fdb            00000001801d81f4     GuContactPolygonPolygon.obj
 0002:000041f8       __real@3f96cbe4            00000001801d81f8     GuContactPolygonPolygon.obj
 0002:000041fc       __real@3fc90fdb            00000001801d81fc     GuContactPolygonPolygon.obj
 0002:00004200       __real@3ffb53d2            00000001801d8200     GuContactPolygonPolygon.obj
 0002:00004204       __real@4016cbe4            00000001801d8204     GuContactPolygonPolygon.obj
 0002:00004208       __real@402feddf            00000001801d8208     GuContactPolygonPolygon.obj
 0002:00004270       ??_C@_0FF@BIHIMDO@D?3?2Repositories?2External?2PhysX?2@ 00000001801d8270     GuBigConvexData.obj
 0002:000042f0       ??_C@_0N@CDGINLLF@PxConvexMesh@ 00000001801d82f0     GuConvexMesh.obj
 0002:00004300       ??_7PxBase@physx@@6B@      00000001801d8300     GuConvexMesh.obj
 0002:00004328       ??_C@_0N@OPPDBGAG@PxRefCounted@ 00000001801d8328     GuConvexMesh.obj
 0002:00004338       ??_7ConvexMesh@Gu@physx@@6B@ 00000001801d8338     GuConvexMesh.obj
 0002:000043d0       ??_C@_0FC@PAPIALGC@D?3?2Repositories?2External?2PhysX?2@ 00000001801d83d0     GuConvexMesh.obj
 0002:00004428       ??_C@_0DM@NEJKOFIP@Loading?5convex?5mesh?5failed?3?5Dep@ 00000001801d8428     GuConvexMesh.obj
 0002:00004468       ??_C@_0DB@PAHEPIEL@PxConvexMesh?3?3release?3?5double?5d@ 00000001801d8468     GuConvexMesh.obj
 0002:000044a0       ??_C@_0EK@GPOBKMFO@D?3?2Repositories?2External?2PhysX?2@ 00000001801d84a0     GuConvexMesh.obj
 0002:00004510       __xmm@000000000000000000000000ffffffff 00000001801d8510     GuConvexSupportTable.obj
 0002:00004520       __xmm@0000000000000000ffffffff00000000 00000001801d8520     GuConvexSupportTable.obj
 0002:00004530       __xmm@0000000000000000ffffffffffffffff 00000001801d8530     GuConvexSupportTable.obj
 0002:00004540       __xmm@00000000ffffffff0000000000000000 00000001801d8540     GuConvexSupportTable.obj
 0002:00004550       __xmm@00000000ffffffff00000000ffffffff 00000001801d8550     GuConvexSupportTable.obj
 0002:00004560       __xmm@00000000ffffffffffffffff00000000 00000001801d8560     GuConvexSupportTable.obj
 0002:00004630       __xmm@3f0000003f0000003f0000003f000000 00000001801d8630     GuDistanceSegmentSegment.obj
 0002:00004660       __real@2b8cbccc            00000001801d8660     GuDistanceSegmentTriangle.obj
 0002:00004670       __xmm@3f8000013f8000013f8000013f800001 00000001801d8670     GuDistanceSegmentTriangle.obj
 0002:00004680       __xmm@b4000000b4000000b4000000b4000000 00000001801d8680     GuDistanceSegmentTriangle.obj
 0002:00004700       __xmm@38d1b71738d1b71738d1b71738d1b717 00000001801d8700     GuGJKSimplex.obj
 0002:00004730       ??_C@_0O@PBAKPCEC@PxHeightField@ 00000001801d8730     GuHeightField.obj
 0002:00004740       ??_7HeightField@Gu@physx@@6B@ 00000001801d8740     GuHeightField.obj
 0002:000047f8       ??_C@_0DC@BDMMBOKH@PxHeightField?3?3release?3?5double?5@ 00000001801d87f8     GuHeightField.obj
 0002:00004830       ??_C@_0EP@GOGEDOCJ@D?3?2Repositories?2External?2PhysX?2@ 00000001801d8830     GuHeightField.obj
 0002:00004880       ??_C@_0CI@DMKEKGNK@Gu?3?3HeightField?3?3load?3?5PX_ALLOC@ 00000001801d8880     GuHeightField.obj
 0002:000048b0       ??_C@_0ED@HHHDAOGG@D?3?2Repositories?2External?2PhysX?2@ 00000001801d88b0     GuHeightField.obj
 0002:00004920       __real@3a03126f            00000001801d8920     GuHeightFieldUtil.obj
 0002:00004924       __real@3f19999a            00000001801d8924     GuHeightFieldUtil.obj
 0002:00004930       __xmm@40000000000000000000000000000000 00000001801d8930     GuHeightFieldUtil.obj
 0002:000049c0       ??_7HeightFieldTraceSegmentReport@@6B@ 00000001801d89c0     GuSweepsHF.obj
 0002:000049d0       ??_7CapsuleTraceSegmentReport@@6B@ 00000001801d89d0     GuSweepsHF.obj
 0002:000049e0       ??_7ConvexTraceSegmentReport@@6B@ 00000001801d89e0     GuSweepsHF.obj
 0002:000049f0       ??_7BoxTraceSegmentReport@@6B@ 00000001801d89f0     GuSweepsHF.obj
 0002:00004a00       __real@aedbe6ff            00000001801d8a00     GuSweepsHF.obj
 0002:00004a30       __real@3089705f            00000001801d8a30     GuIntersectionRayBox.obj
 0002:00004a34       __real@b4000000            00000001801d8a34     GuIntersectionRayBox.obj
 0002:00004a40       __xmm@000000003089705f3089705f3089705f 00000001801d8a40     GuIntersectionRayBox.obj
 0002:00004a50       __xmm@00000000bf800000bf800000bf800000 00000001801d8a50     GuIntersectionRayBox.obj
 0002:00004a80       __real@7fc00000            00000001801d8a80     GuIntersectionTriangleTriangle.obj
 0002:00004a90       __xmm@7fc000007fc000007fc000007fc00000 00000001801d8a90     GuIntersectionTriangleTriangle.obj
 0002:00004ac0       ??_7SourceMeshBase@Gu@physx@@6B@ 00000001801d8ac0     GuBV4.obj
 0002:00004ae8       ??_7SourceMesh@Gu@physx@@6B@ 00000001801d8ae8     GuBV4.obj
 0002:00004b10       ??_7TetrahedronSourceMesh@Gu@physx@@6B@ 00000001801d8b10     GuBV4.obj
 0002:00004b40       ??_C@_0EJ@GAFBPJAI@D?3?2Repositories?2External?2PhysX?2@ 00000001801d8b40     GuBV4.obj
 0002:00004b90       __xmm@ff7fffffff7fffffff7fffffff7fffff 00000001801d8b90     GuBV4.obj
 0002:00004bc0       ??_C@_0EO@KLNPKLBB@D?3?2Repositories?2External?2PhysX?2@ 00000001801d8bc0     GuBV4Build.obj
 0002:00004c10       __real@38000100            00000001801d8c10     GuBV4Build.obj
 0002:00004c14       __real@3e93cd3a            00000001801d8c14     GuBV4Build.obj
 0002:00004c18       __real@46fffe00            00000001801d8c18     GuBV4Build.obj
 0002:00004c1c       __real@be93cd3a            00000001801d8c1c     GuBV4Build.obj
 0002:00004c40       __xmm@0000ffff0000ffff0000ffff0000ffff 00000001801d8c40     GuBV4_AABBSweep.obj
 0002:00004c50       __xmm@3089705f3089705f3089705f3089705f 00000001801d8c50     GuBV4_AABBSweep.obj
 0002:00004c60       __xmm@33d6bf9533d6bf9533d6bf9533d6bf95 00000001801d8c60     GuBV4_AABBSweep.obj
 0002:00004c70       __xmm@40000000400000004000000040000000 00000001801d8c70     GuBV4_AABBSweep.obj
 0002:00004d40       __real@00000000            00000001801d8d40     GuBV4_Raycast.obj
 0002:00004d70       __real@4f7fffff            00000001801d8d70     GuBV4_SphereOverlap.obj
 0002:00004dc0       __xmm@000000007f7fffff0000000000000000 00000001801d8dc0     GuMidphaseBV4.obj
 0002:00004e30       ??_C@_0FD@EHCCILIF@Adjacency?5information?5not?5creat@ 00000001801d8e30     GuMeshQuery.obj
 0002:00004e90       ??_C@_0EP@GNIMMGEC@D?3?2Repositories?2External?2PhysX?2@ 00000001801d8e90     GuMeshQuery.obj
 0002:00004ee0       ??_C@_0FL@BKNMAHIA@PxMeshQuery?3?3findOverlapTriangl@ 00000001801d8ee0     GuMeshQuery.obj
 0002:00004f3c       __real@4cbebc20            00000001801d8f3c     GuMeshQuery.obj
 0002:00004f60       ??_7Callback@RTree@Gu@physx@@6B@ 00000001801d8f60     GuMidphaseRTree.obj
 0002:00004f78       ??_7?$RayRTreeCallback@$00$0A@@@6BCallbackRaycast@RTree@Gu@physx@@@ 00000001801d8f78     GuMidphaseRTree.obj
 0002:00004f78       ??_7?$RayRTreeCallback@$0A@$0A@@@6BCallbackRaycast@RTree@Gu@physx@@@ 00000001801d8f78     GuMidphaseRTree.obj
 0002:00004f88       ??_7?$RayRTreeCallback@$00$0A@@@6BCallback@RTree@Gu@physx@@@ 00000001801d8f88     GuMidphaseRTree.obj
 0002:00004f88       ??_7?$RayRTreeCallback@$0A@$0A@@@6BCallback@RTree@Gu@physx@@@ 00000001801d8f88     GuMidphaseRTree.obj
 0002:00004fa0       ??_7RayMeshColliderCallback@@6B@ 00000001801d8fa0     GuMidphaseRTree.obj
 0002:00004fb0       ??_C@_0EN@DPPFLBLF@Point?9mesh?5distance?5query?5not?5s@ 00000001801d8fb0     GuMidphaseRTree.obj
 0002:00005000       ??_C@_0FD@DIIBNLMO@D?3?2Repositories?2External?2PhysX?2@ 00000001801d9000     GuMidphaseRTree.obj
 0002:00005058       ??_7?$RayRTreeCallback@$0A@$00@@6BCallbackRaycast@RTree@Gu@physx@@@ 00000001801d9058     GuMidphaseRTree.obj
 0002:00005068       ??_7?$RayRTreeCallback@$0A@$00@@6BCallback@RTree@Gu@physx@@@ 00000001801d9068     GuMidphaseRTree.obj
 0002:00005080       ??_7?$RayRTreeCallback@$00$00@@6BCallbackRaycast@RTree@Gu@physx@@@ 00000001801d9080     GuMidphaseRTree.obj
 0002:00005090       ??_7?$RayRTreeCallback@$00$00@@6BCallback@RTree@Gu@physx@@@ 00000001801d9090     GuMidphaseRTree.obj
 0002:00005110       __xmm@7f7fffff000000000000000000000000 00000001801d9110     GuMidphaseRTree.obj
 0002:00005190       ??_7?$PxReportCallback@UPxGeomIndexPair@physx@@@physx@@6B@ 00000001801d9190     GuOverlapTestsMesh.obj
 0002:000051b0       ??_C@_0EP@CEFGCJKJ@PxGeometryQuery?3?3overlap?$CI?$CJ?3?5onl@ 00000001801d91b0     GuOverlapTestsMesh.obj
 0002:00005200       ??_C@_0FG@FJBIPFPD@D?3?2Repositories?2External?2PhysX?2@ 00000001801d9200     GuOverlapTestsMesh.obj
 0002:00005280       ?MN@RTreePage@Gu@physx@@2MB 00000001801d9280     GuRTree.obj
 0002:00005284       ?MX@RTreePage@Gu@physx@@2MB 00000001801d9284     GuRTree.obj
 0002:00005290       ??_C@_0EL@MEAGJIAG@D?3?2Repositories?2External?2PhysX?2@ 00000001801d9290     GuRTree.obj
 0002:00005350       ??_7SweepShapeMeshHitCallback@Gu@physx@@6B@ 00000001801d9350     GuSweepsMesh.obj
 0002:00005360       ??_7SweepCapsuleMeshHitCallback@Gu@physx@@6B@ 00000001801d9360     GuSweepsMesh.obj
 0002:00005370       ??_7SweepBoxMeshHitCallback@Gu@physx@@6B@ 00000001801d9370     GuSweepsMesh.obj
 0002:00005380       ??_7SweepConvexMeshHitCallback@Gu@physx@@6B@ 00000001801d9380     GuSweepsMesh.obj
 0002:000053b0       ??_C@_0P@GGNFNHKF@PxTriangleMesh@ 00000001801d93b0     GuTriangleMesh.obj
 0002:000053c0       ??_7TriangleMesh@Gu@physx@@6B@ 00000001801d93c0     GuTriangleMesh.obj
 0002:00005498       ??_C@_0DD@LOOPMCGG@PxTriangleMesh?3?3release?3?5double@ 00000001801d9498     GuTriangleMesh.obj
 0002:000054d0       ??_C@_0FH@PMPAJDGI@PxTriangleMesh?3?3getVerticesForM@ 00000001801d94d0     GuTriangleMesh.obj
 0002:00005530       ??_C@_0FC@MOKIKEID@D?3?2Repositories?2External?2PhysX?2@ 00000001801d9530     GuTriangleMesh.obj
 0002:00005590       ??_C@_0EF@GMNFLDH@PxTriangleMesh?3?3refitBVH?$CI?$CJ?5is?5n@ 00000001801d9590     GuTriangleMesh.obj
 0002:000055e0       __xmm@38383838383838383838383838383838 00000001801d95e0     GuTriangleMesh.obj
 0002:00005610       ??_C@_0BE@CNJKIINO@PxBVH34TriangleMesh@ 00000001801d9610     GuTriangleMeshBV4.obj
 0002:00005628       ??_7BV4TriangleMesh@Gu@physx@@6B@ 00000001801d9628     GuTriangleMeshBV4.obj
 0002:00005700       ??_C@_0EF@JLFNNPLP@BVH34?5trees?3?5refit?5operation?5on@ 00000001801d9700     GuTriangleMeshBV4.obj
 0002:00005750       ??_C@_0FF@MNLNLILK@D?3?2Repositories?2External?2PhysX?2@ 00000001801d9750     GuTriangleMeshBV4.obj
 0002:000057a8       __real@3951b717            00000001801d97a8     GuTriangleMeshBV4.obj
 0002:000057d0       ??_C@_0BE@EIFHCCBO@PxBVH33TriangleMesh@ 00000001801d97d0     GuTriangleMeshRTree.obj
 0002:000057e8       ??_7RTreeTriangleMesh@Gu@physx@@6B@ 00000001801d97e8     GuTriangleMeshRTree.obj
 0002:000058c0       ??_7?$RefitCallback@G@physx@@6B@ 00000001801d98c0     GuTriangleMeshRTree.obj
 0002:000058d0       ??_7?$RefitCallback@I@physx@@6B@ 00000001801d98d0     GuTriangleMeshRTree.obj
 0002:00005900       ??_C@_0EK@HCPIDINK@D?3?2Repositories?2External?2PhysX?2@ 00000001801d9900     GuBV32.obj
 0002:00005970       ??_C@_0EP@DIEGBIHH@D?3?2Repositories?2External?2PhysX?2@ 00000001801d9970     GuBV32Build.obj
 0002:000059e0       ??_C@_0BC@FDAIDHBP@PxTetrahedronMesh@ 00000001801d99e0     GuTetrahedronMesh.obj
 0002:000059f8       ??_C@_0BC@FBICGJIB@PxSoftBodyAuxData@ 00000001801d99f8     GuTetrahedronMesh.obj
 0002:00005a10       ??_C@_0P@CLLFGFAA@PxSoftBodyMesh@ 00000001801d9a10     GuTetrahedronMesh.obj
 0002:00005a20       ??_7SoftBodyAuxData@Gu@physx@@6B@ 00000001801d9a20     GuTetrahedronMesh.obj
 0002:00005a68       ??_7TetrahedronMesh@Gu@physx@@6B@ 00000001801d9a68     GuTetrahedronMesh.obj
 0002:00005ae0       ??_7BVTetrahedronMesh@Gu@physx@@6B@ 00000001801d9ae0     GuTetrahedronMesh.obj
 0002:00005b58       ??_7SoftBodyMesh@Gu@physx@@6B@ 00000001801d9b58     GuTetrahedronMesh.obj
 0002:00005bd8       ??_C@_0DG@JJNMDPMD@PxTetrahedronMesh?3?3release?3?5dou@ 00000001801d9bd8     GuTetrahedronMesh.obj
 0002:00005c10       ??_C@_0DD@GGFGEPII@PxSoftBodyMesh?3?3release?3?5double@ 00000001801d9c10     GuTetrahedronMesh.obj
 0002:00005c50       ??_C@_0FF@CPPOFCCO@D?3?2Repositories?2External?2PhysX?2@ 00000001801d9c50     GuTetrahedronMesh.obj
 0002:00005cf0       __xmm@00000000358637bd358637bd358637bd 00000001801d9cf0     GuPCMContactBoxBox.obj
 0002:00005d00       __xmm@3f4ccccd3f4ccccd3f4ccccd3f4ccccd 00000001801d9d00     GuPCMContactBoxBox.obj
 0002:00005d10       __xmm@3f8003473f8003473f8003473f800347 00000001801d9d10     GuPCMContactBoxBox.obj
 0002:00005d20       __xmm@ffffffff00000000ffffffffffffffff 00000001801d9d20     GuPCMContactBoxBox.obj
 0002:00005d50       ??_7?$LocalConvex@VConvexHullNoScaleV@Gu@physx@@@Gu@physx@@6B@ 00000001801d9d50     GuPCMContactBoxConvex.obj
 0002:00005d80       __xmm@3f3504f33f3504f33f3504f33f3504f3 00000001801d9d80     GuPCMContactBoxConvex.obj
 0002:00005dd0       __xmm@ffffffffffffffffffffffff00000000 00000001801d9dd0     GuPCMContactCapsuleCapsule.obj
 0002:00005e00       __xmm@3fa000003fa000003fa000003fa00000 00000001801d9e00     GuPCMContactCapsuleConvex.obj
 0002:00005e30       ??_7PCMCapsuleVsHeightfieldContactGenerationCallback@@6B@ 00000001801d9e30     GuPCMContactCapsuleHeightField.obj
 0002:00005e40       __real@3f7f3b64            00000001801d9e40     GuPCMContactCapsuleHeightField.obj
 0002:00005e90       __xmm@3f7ff9723f7ff9723f7ff9723f7ff972 00000001801d9e90     GuPCMContactCapsuleMesh.obj
 0002:00005ea0       __xmm@3f7fffef3f7fffef3f7fffef3f7fffef 00000001801d9ea0     GuPCMContactCapsuleMesh.obj
 0002:00005eb0       __xmm@60ad78ec60ad78ec60ad78ec60ad78ec 00000001801d9eb0     GuPCMContactCapsuleMesh.obj
 0002:00005ee0       ??_7?$SupportLocalImpl@VTriangleV@Gu@physx@@@Gu@physx@@6B@ 00000001801d9ee0     GuPCMContactConvexCommon.obj
 0002:00005f00       __xmm@3cf5c2803cf5c2803cf5c2803cf5c280 00000001801d9f00     GuPCMContactConvexCommon.obj
 0002:00005f10       __xmm@3f7851ec3f7851ec3f7851ec3f7851ec 00000001801d9f10     GuPCMContactConvexCommon.obj
 0002:00005f40       ??_7?$RelativeConvex@VConvexHullNoScaleV@Gu@physx@@@Gu@physx@@6B@ 00000001801d9f40     GuPCMContactConvexConvex.obj
 0002:00005f90       ??_7PCMConvexVsHeightfieldContactGenerationCallback@physx@@6B@ 00000001801d9f90     GuPCMContactConvexHeightField.obj
 0002:00005fa0       __xmm@3f19999a3f19999a3f19999a3f19999a 00000001801d9fa0     GuPCMContactConvexHeightField.obj
 0002:00005fe0       ??_7PCMConvexVsMeshContactGenerationCallback@physx@@6B@ 00000001801d9fe0     GuPCMContactConvexMesh.obj
 0002:00006010       __xmm@3f34fdf43f34fdf43f34fdf43f34fdf4 00000001801da010     GuPCMContactGenBoxConvex.obj
 0002:00006040       __xmm@3f80a3d73f80a3d73f80a3d73f80a3d7 00000001801da040     GuPCMContactGenSphereCapsule.obj
 0002:00006050       __xmm@bba3d70abba3d70abba3d70abba3d70a 00000001801da050     GuPCMContactGenSphereCapsule.obj
 0002:00006080       __xmm@3f7ffd613f7ffd613f7ffd613f7ffd61 00000001801da080     GuPCMContactPlaneBox.obj
 0002:000060b0       __real@3b23d70b            00000001801da0b0     GuPCMContactPlaneCapsule.obj
 0002:000060c0       __xmm@3ca3d70a3ca3d70a3ca3d70a3ca3d70a 00000001801da0c0     GuPCMContactPlaneCapsule.obj
 0002:000060f0       __xmm@3a03126f3a03126f3a03126f3a03126f 00000001801da0f0     GuPCMContactPlaneConvex.obj
 0002:00006180       ??_7PCMSphereVsHeightfieldContactGenerationCallback@physx@@6B@ 00000001801da180     GuPCMContactSphereHeightField.obj
 0002:00006210       __xmm@3727c5ac3727c5ac3727c5ac3727c5ac 00000001801da210     GuPCMContactSphereSphere.obj
 0002:00006240       __xmm@3f7f06f73f7f06f73f7f06f73f7f06f7 00000001801da240     GuPCMContactCustomGeometry.obj
 0002:00006250       ?gPCMBoxPolygonData@Gu@physx@@3QBEB 00000001801da250     GuPCMShapeConvex.obj
 0002:000062d0       ?invalidateThresholds@Gu@physx@@3QBMB 00000001801da2d0     GuPersistentContactManifold.obj
 0002:000062e8       ?invalidateQuatThresholds@Gu@physx@@3QBMB 00000001801da2e8     GuPersistentContactManifold.obj
 0002:00006300       ?invalidateThresholds2@Gu@physx@@3QBMB 00000001801da300     GuPersistentContactManifold.obj
 0002:00006310       ?invalidateQuatThresholds2@Gu@physx@@3QBMB 00000001801da310     GuPersistentContactManifold.obj
 0002:00006320       __xmm@00000000340000003400000034000000 00000001801da320     GuPersistentContactManifold.obj
 0002:00006330       __xmm@000000003f8000003f80000000000000 00000001801da330     GuPersistentContactManifold.obj
 0002:00006340       __xmm@00000000bf8000003f80000000000000 00000001801da340     GuPersistentContactManifold.obj
 0002:00006350       __xmm@ffffffffffffffff00000000ffffffff 00000001801da350     GuPersistentContactManifold.obj
 0002:00006380       __xmm@c1200000c1200000c1200000c1200000 00000001801da380     GuPCMContactGenUtil.obj
 0002:000063d0       __real@b727c5ac            00000001801da3d0     GuSweepBoxSphere.obj
 0002:00006440       ??_C@_0FG@JLDCJAKB@D?3?2Repositories?2External?2PhysX?2@ 00000001801da440     GuSweepCapsuleBox.obj
 0002:000064e0       __real@3f7fff58            00000001801da4e0     GuSweepCapsuleTriangle.obj
 0002:00006550       ??_C@_0CH@DHJGKCPD@Gu?3?3computeBounds?3?5Unknown?5shap@ 00000001801da550     GuBounds.obj
 0002:00006580       ??_C@_0EH@PJBAGJEH@D?3?2Repositories?2External?2PhysX?2@ 00000001801da580     GuBounds.obj
 0002:000065c8       __real@34800000            00000001801da5c8     GuBounds.obj
 0002:000065cc       __real@3f7fffef            00000001801da5cc     GuBounds.obj
 0002:000065d0       __xmm@3f8147ae3f8147ae3f8147ae3f8147ae 00000001801da5d0     GuBounds.obj
 0002:00006600       ??_C@_0EJ@FPCDLKGI@D?3?2Repositories?2External?2PhysX?2@ 00000001801da600     GuAABBTree.obj
 0002:00006650       __xmm@5a60b17f5a60b17f5a60b17f5a60b17f 00000001801da650     GuAABBTree.obj
 0002:00006660       __xmm@da60b17fda60b17fda60b17fda60b17f 00000001801da660     GuAABBTree.obj
 0002:000066d0       ??_C@_0FE@KHJBFKC@D?3?2Repositories?2External?2PhysX?2@ 00000001801da6d0     GuIncrementalAABBTree.obj
 0002:00006730       ??_C@_0EB@IDIPMELC@D?3?2Repositories?2External?2PhysX?2@ 00000001801da730     GuIncrementalAABBTree.obj
 0002:00006774       __real@40400000            00000001801da774     GuIncrementalAABBTree.obj
 0002:00006780       ??_C@_0EE@CGPHECGI@D?3?2Repositories?2External?2PhysX?2@ 00000001801da780     GuSAH.obj
 0002:000067f0       ??_7PxBVH@physx@@6B@       00000001801da7f0     GuBVH.obj
 0002:00006868       ??_C@_05OKJNPKBM@PxBVH@    00000001801da868     GuBVH.obj
 0002:00006870       ??_7RefCountable@Cm@physx@@6B@ 00000001801da870     GuBVH.obj
 0002:00006880       ??_7BVH@Gu@physx@@6BPxBVH@2@@ 00000001801da880     GuBVH.obj
 0002:000068f8       ??_7BVH@Gu@physx@@6BRefCountable@Cm@2@@ 00000001801da8f8     GuBVH.obj
 0002:00006910       ??_C@_0EE@DEJPNBJN@D?3?2Repositories?2External?2PhysX?2@ 00000001801da910     GuBVH.obj
 0002:00006958       ??_C@_0CK@HAIOEINI@PxBVH?3?3release?3?5double?5deletion@ 00000001801da958     GuBVH.obj
 0002:000069b0       ??_C@_0FK@CINNIJEI@D?3?2Repositories?2External?2PhysX?2@ 00000001801da9b0     GuIncrementalAABBPrunerCore.obj
 0002:00006a0c       __real@3f80a3d7            00000001801daa0c     GuIncrementalAABBPrunerCore.obj
 0002:00006a30       ??_7BasePruner@Gu@physx@@6B@ 00000001801daa30     GuIncrementalAABBPruner.obj
 0002:00006a48       ??_7IncrementalAABBPruner@Gu@physx@@6B@ 00000001801daa48     GuIncrementalAABBPruner.obj
 0002:00006ad0       ??_C@_0FG@IAFIHFJM@D?3?2Repositories?2External?2PhysX?2@ 00000001801daad0     GuIncrementalAABBPruner.obj
 0002:00006b50       ??_C@_0EM@EFAHLDBK@D?3?2Repositories?2External?2PhysX?2@ 00000001801dab50     GuPruningPool.obj
 0002:00006be0       ??_7BucketPruner@Gu@physx@@6B@ 00000001801dabe0     GuBucketPruner.obj
 0002:00006c70       ??_C@_0EN@MBIEEDJD@D?3?2Repositories?2External?2PhysX?2@ 00000001801dac70     GuBucketPruner.obj
 0002:00006cc0       __real@bf13cd3a            00000001801dacc0     GuBucketPruner.obj
 0002:00006cd0       __xmm@000000007e7fffff7e7fffff7e7fffff 00000001801dacd0     GuBucketPruner.obj
 0002:00006ce0       __xmm@00000000fe7ffffffe7ffffffe7fffff 00000001801dace0     GuBucketPruner.obj
 0002:00006cf0       __xmm@3f13cd3a3f13cd3a3f13cd3a3f13cd3a 00000001801dacf0     GuBucketPruner.obj
 0002:00006d00       __xmm@bf13cd3abf13cd3abf13cd3a3f13cd3a 00000001801dad00     GuBucketPruner.obj
 0002:00006d10       __xmm@bf8000003f8000003f800000bf800000 00000001801dad10     GuBucketPruner.obj
 0002:00006d20       __xmm@bf8000003f800000bf8000003f800000 00000001801dad20     GuBucketPruner.obj
 0002:00006d30       __xmm@bf800000bf8000003f8000003f800000 00000001801dad30     GuBucketPruner.obj
 0002:00006d40       __xmm@bf800000bf800000bf8000003f800000 00000001801dad40     GuBucketPruner.obj
 0002:00006d50       ?mIndices@MaverickNode@Gu@physx@@2QBIB 00000001801dad50     GuMaverickNode.obj
 0002:00006db0       ??_C@_0FF@HLLEJBMD@D?3?2Repositories?2External?2PhysX?2@ 00000001801dadb0     GuExtendedBucketPruner.obj
 0002:00006e30       ??_7CompanionPruner@Gu@physx@@6B@ 00000001801dae30     GuSecondaryPruner.obj
 0002:00006eb0       ??_7CompanionPrunerBucket@@6B@ 00000001801daeb0     GuSecondaryPruner.obj
 0002:00006f30       ??_7CompanionPrunerIncremental@@6B@ 00000001801daf30     GuSecondaryPruner.obj
 0002:00006fb0       ??_7CompanionPrunerAABBTree@@6B@ 00000001801dafb0     GuSecondaryPruner.obj
 0002:00007030       ??_C@_0FA@PKBHEPP@D?3?2Repositories?2External?2PhysX?2@ 00000001801db030     GuSecondaryPruner.obj
 0002:000070a0       ??_7AABBPruner@Gu@physx@@6B@ 00000001801db0a0     GuAABBPruner.obj
 0002:00007140       ??_C@_0LA@IHBEIKND@SceneQuery?5static?5AABB?5Tree?5reb@ 00000001801db140     GuAABBPruner.obj
 0002:000071f0       ??_C@_0EL@PHCEKBHL@D?3?2Repositories?2External?2PhysX?2@ 00000001801db1f0     GuAABBPruner.obj
 0002:00007240       ??_C@_0EO@KJGIPBMC@D?3?2Repositories?2External?2PhysX?2@ 00000001801db240     GuActorShapeMap.obj
 0002:000072b0       ??_C@_0BF@DNABLJAF@Invalid?5pruner?5index@ 00000001801db2b0     GuQuerySystem.obj
 0002:000072d0       ??_C@_0EM@BLGBELJA@D?3?2Repositories?2External?2PhysX?2@ 00000001801db2d0     GuQuerySystem.obj
 0002:00007370       ??_C@_0EI@INAJNPLB@D?3?2Repositories?2External?2PhysX?2@ 00000001801db370     GuFactory.obj
 0002:000073c0       ?reductionFactors@SubSortQuick@physx@@2QBMB 00000001801db3c0     GuRTreeCooking.obj
 0002:000073d0       ?stopAtTrisPerLeaf1@SubSortQuick@physx@@2QBIB 00000001801db3d0     GuRTreeCooking.obj
 0002:000074a0       ??_C@_0FF@JNGANLDG@D?3?2Repositories?2External?2PhysX?2@ 00000001801db4a0     GuRTreeCooking.obj
 0002:000074f8       __real@41100000            00000001801db4f8     GuRTreeCooking.obj
 0002:000074fc       __real@41700000            00000001801db4fc     GuRTreeCooking.obj
 0002:00007500       __real@42200000            00000001801db500     GuRTreeCooking.obj
 0002:00007510       __xmm@00000004000000030000000200000001 00000001801db510     GuRTreeCooking.obj
 0002:00007540       ??_C@_0FD@POPAKCLO@D?3?2Repositories?2External?2PhysX?2@ 00000001801db540     GuCookingBVH.obj
 0002:00007598       ??_C@_0DL@JHPKHGFA@Cooking?3?3cookBVH?3?5user?9provided@ 00000001801db598     GuCookingBVH.obj
 0002:000075d8       ??_C@_0DN@PLNPGFEB@Cooking?3?3createBVH?3?5user?9provid@ 00000001801db5d8     GuCookingBVH.obj
 0002:00007620       ??_C@_0EL@JCJBAPHL@Cooking?3?3cookHeightField?3?5user?9@ 00000001801db620     GuCookingHF.obj
 0002:00007670       ??_C@_0FC@LCHGPLFF@D?3?2Repositories?2External?2PhysX?2@ 00000001801db670     GuCookingHF.obj
 0002:000076d0       ??_C@_0EN@FCEPCAFC@Cooking?3?3createHeightField?3?5use@ 00000001801db6d0     GuCookingHF.obj
 0002:00007720       ??_C@_0EK@EKAIJEBL@Cooking?3?3cookConvexMesh?3?5user?9p@ 00000001801db720     GuCookingConvexMesh.obj
 0002:00007770       ??_C@_0FA@GFFGAPML@Cooking?3?3cookConvexMesh?3?5provid@ 00000001801db770     GuCookingConvexMesh.obj
 0002:000077c0       ??_C@_0EP@PKDCPNNO@Cooking?3?3cookConvexMesh?3?5provid@ 00000001801db7c0     GuCookingConvexMesh.obj
 0002:00007810       ??_C@_0EO@LKFMMDE@Cooking?3?3cookConvexMesh?3?5user?9p@ 00000001801db810     GuCookingConvexMesh.obj
 0002:00007860       ??_C@_0EL@KJEPJALG@Cooking?3?3cookConvexMesh?3?5user?9p@ 00000001801db860     GuCookingConvexMesh.obj
 0002:000078b0       ??_C@_0FM@LHMEBKMM@Cooking?3?3cookConvexMesh?3?5GPU?9co@ 00000001801db8b0     GuCookingConvexMesh.obj
 0002:00007910       ??_C@_0FJ@FHCFFABE@Cooking?3?3cookConvexMesh?3?5GPU?9co@ 00000001801db910     GuCookingConvexMesh.obj
 0002:00007970       ??_C@_0FK@DGBIPBFF@D?3?2Repositories?2External?2PhysX?2@ 00000001801db970     GuCookingConvexMesh.obj
 0002:000079f0       ??_7TriangleMeshBuilder@physx@@6B@ 00000001801db9f0     GuCookingTriangleMesh.obj
 0002:00007a18       ??_7RTreeTriangleMeshBuilder@physx@@6B@ 00000001801dba18     GuCookingTriangleMesh.obj
 0002:00007a40       ??_7BV4TriangleMeshBuilder@physx@@6B@ 00000001801dba40     GuCookingTriangleMesh.obj
 0002:00007a70       ??_C@_0FM@HIIDCOKF@D?3?2Repositories?2External?2PhysX?2@ 00000001801dba70     GuCookingTriangleMesh.obj
 0002:00007ad0       ??_C@_0DJ@IGODLHLP@TriangleMesh?3?5Enable?5mesh?5weldi@ 00000001801dbad0     GuCookingTriangleMesh.obj
 0002:00007b10       ??_C@_0FJ@HHJLKGDF@TriangleMesh?3?5triangles?5are?5too@ 00000001801dbb10     GuCookingTriangleMesh.obj
 0002:00007b70       ??_C@_0CN@KGPHHHLK@TriangleMesh?3?5mesh?5is?5too?5big?5f@ 00000001801dbb70     GuCookingTriangleMesh.obj
 0002:00007ba0       ??_C@_0DD@CMJGDCNN@TriangleMesh?3?3loadFromDesc?3?5des@ 00000001801dbba0     GuCookingTriangleMesh.obj
 0002:00007be0       ??_C@_0ED@ILJJNHIP@TriangleMesh?3?3loadFromDesc?3?5mPa@ 00000001801dbbe0     GuCookingTriangleMesh.obj
 0002:00007c28       ??_C@_0BJ@BKHDBBHO@cleaning?5the?5mesh?5failed@ 00000001801dbc28     GuCookingTriangleMesh.obj
 0002:00007c48       ??_C@_0BK@JIDHMMCE@BV4?5tree?5failed?5to?5build?4@ 00000001801dbc48     GuCookingTriangleMesh.obj
 0002:00007c68       ??_C@_0BL@DHNECNBE@BV32?5tree?5failed?5to?5build?4@ 00000001801dbc68     GuCookingTriangleMesh.obj
 0002:00007c88       ??_7RTreeCookerRemap@@6B@  00000001801dbc88     GuCookingTriangleMesh.obj
 0002:00007ca0       ??_C@_0FC@PJIHAFK@Cooking?3?3validateTriangleMesh?3?5@ 00000001801dbca0     GuCookingTriangleMesh.obj
 0002:00007cf4       __real@48742400            00000001801dbcf4     GuCookingTriangleMesh.obj
 0002:00007d20       ??_7PxCollisionTetrahedronMeshData@physx@@6B@ 00000001801dbd20     GuCookingTetrahedronMesh.obj
 0002:00007d50       ??_7PxSimulationTetrahedronMeshData@physx@@6B@ 00000001801dbd50     GuCookingTetrahedronMesh.obj
 0002:00007d70       ??_7CollisionTetrahedronMeshData@Gu@physx@@6B@ 00000001801dbd70     GuCookingTetrahedronMesh.obj
 0002:00007da0       ??_7SimulationTetrahedronMeshData@Gu@physx@@6B@ 00000001801dbda0     GuCookingTetrahedronMesh.obj
 0002:00007dc0       ??_C@_0FP@HOOOOBEL@D?3?2Repositories?2External?2PhysX?2@ 00000001801dbdc0     GuCookingTetrahedronMesh.obj
 0002:00007e20       ??_7?$LocalConvex@VTetrahedronV@Gu@physx@@@Gu@physx@@6B@ 00000001801dbe20     GuCookingTetrahedronMesh.obj
 0002:00007e50       ??_C@_0CD@OJGNHLOE@BV4_AABBTree?5tree?5failed?5to?5bui@ 00000001801dbe50     GuCookingTetrahedronMesh.obj
 0002:00007e78       ??_C@_0DG@NCNIEEHB@TetrahedronMesh?3?3loadFromDesc?3?5@ 00000001801dbe78     GuCookingTetrahedronMesh.obj
 0002:00007eb0       ??_C@_0EG@CJIFGLMC@TetrahedronMesh?3?3loadFromDesc?3?5@ 00000001801dbeb0     GuCookingTetrahedronMesh.obj
 0002:00007ef8       __real@be2aaaab            00000001801dbef8     GuCookingTetrahedronMesh.obj
 0002:00007f00       __xmm@00000003000000030000000300000003 00000001801dbf00     GuCookingTetrahedronMesh.obj
 0002:00007f30       __real@3bc79ca10c924223    00000001801dbf30     GuCookingVolumeIntegration.obj
 0002:00007f38       __real@3f91111111111111    00000001801dbf38     GuCookingVolumeIntegration.obj
 0002:00007f40       __real@3fa5555555555555    00000001801dbf40     GuCookingVolumeIntegration.obj
 0002:00007f48       __real@3fa999999999999a    00000001801dbf48     GuCookingVolumeIntegration.obj
 0002:00007f50       __real@3fb5555555555555    00000001801dbf50     GuCookingVolumeIntegration.obj
 0002:00007f58       __real@3fc5555555555555    00000001801dbf58     GuCookingVolumeIntegration.obj
 0002:00007f60       __real@3fe0000000000000    00000001801dbf60     GuCookingVolumeIntegration.obj
 0002:00007f68       __real@3ff0000000000000    00000001801dbf68     GuCookingVolumeIntegration.obj
 0002:00007f70       __real@4008000000000000    00000001801dbf70     GuCookingVolumeIntegration.obj
 0002:00007f78       __real@4010000000000000    00000001801dbf78     GuCookingVolumeIntegration.obj
 0002:00007f80       __real@bf91111111111111    00000001801dbf80     GuCookingVolumeIntegration.obj
 0002:00007f88       __real@bfa999999999999a    00000001801dbf88     GuCookingVolumeIntegration.obj
 0002:00007f90       __real@bfb5555555555555    00000001801dbf90     GuCookingVolumeIntegration.obj
 0002:00007f98       __real@bfc5555555555555    00000001801dbf98     GuCookingVolumeIntegration.obj
 0002:00007fa0       __xmm@3c0888893c0888893c0888893c088889 00000001801dbfa0     GuCookingVolumeIntegration.obj
 0002:00007fb0       __xmm@3c8888893c8888893c8888893c888889 00000001801dbfb0     GuCookingVolumeIntegration.obj
 0002:00007fc0       __xmm@3d2aaaab3d2aaaab3d2aaaab3d2aaaab 00000001801dbfc0     GuCookingVolumeIntegration.obj
 0002:00007fd0       __xmm@3e2aaaab3e2aaaab3e2aaaab3e2aaaab 00000001801dbfd0     GuCookingVolumeIntegration.obj
 0002:00007fe0       __xmm@3f811111111111113f81111111111111 00000001801dbfe0     GuCookingVolumeIntegration.obj
 0002:00007ff0       __xmm@3f811111111111113f91111111111111 00000001801dbff0     GuCookingVolumeIntegration.obj
 0002:00008000       __xmm@3f911111111111113f91111111111111 00000001801dc000     GuCookingVolumeIntegration.obj
 0002:00008010       __xmm@3fa55555555555553fa5555555555555 00000001801dc010     GuCookingVolumeIntegration.obj
 0002:00008020       __xmm@3fa55555555555553fc5555555555555 00000001801dc020     GuCookingVolumeIntegration.obj
 0002:00008030       __xmm@3fd55555555555553fd5555555555555 00000001801dc030     GuCookingVolumeIntegration.obj
 0002:00008040       __xmm@3fe00000000000003fe0000000000000 00000001801dc040     GuCookingVolumeIntegration.obj
 0002:00008050       __xmm@7fffffffffffffff7fffffffffffffff 00000001801dc050     GuCookingVolumeIntegration.obj
 0002:00008060       __xmm@80000000000000008000000000000000 00000001801dc060     GuCookingVolumeIntegration.obj
 0002:00008070       ??_7ConvexHullLib@physx@@6B@ 00000001801dc070     GuCookingQuickHullConvexHullLib.obj
 0002:00008090       ??_7QuickHullConvexHullLib@physx@@6B@ 00000001801dc090     GuCookingQuickHullConvexHullLib.obj
 0002:000080b0       ??_C@_0GG@LKBLKNHJ@D?3?2Repositories?2External?2PhysX?2@ 00000001801dc0b0     GuCookingQuickHullConvexHullLib.obj
 0002:00008120       ??_C@_0GA@EPPAEJPM@QuickHullConvexHullLib?3?3findSim@ 00000001801dc120     GuCookingQuickHullConvexHullLib.obj
 0002:00008180       ??_C@_0FB@NEBIJMML@QuickHullConvexHullLib?3?3findSim@ 00000001801dc180     GuCookingQuickHullConvexHullLib.obj
 0002:000081e0       ??_C@_0FB@CLLCBEMM@QuickHullConvexHullLib?3?3findSim@ 00000001801dc1e0     GuCookingQuickHullConvexHullLib.obj
 0002:00008234       __real@34c00000            00000001801dc234     GuCookingQuickHullConvexHullLib.obj
 0002:00008238       ??_C@_0DP@PJBJBEGF@Meshmerizer?3?3extractHullPolygon@ 00000001801dc238     GuCookingConvexPolygonsBuilder.obj
 0002:00008280       ??_C@_0GF@EEIGFHDB@D?3?2Repositories?2External?2PhysX?2@ 00000001801dc280     GuCookingConvexPolygonsBuilder.obj
 0002:000082e8       ??_C@_0DL@IAFKOCCK@ConvexHullBuilder?3?5convex?5hull?5@ 00000001801dc2e8     GuCookingConvexPolygonsBuilder.obj
 0002:00008330       ??_C@_0GF@OJLJHAMH@ConvexHullBuilder?3?3CreateTriang@ 00000001801dc330     GuCookingConvexPolygonsBuilder.obj
 0002:000083c0       ??_C@_0DF@LLFJIJGM@Gu?3?3ConvexMesh?3?3loadFromDesc?3?5d@ 00000001801dc3c0     GuCookingConvexMeshBuilder.obj
 0002:00008400       ??_C@_0HK@JOGKIEAA@Gu?3?3ConvexMesh?3?5Mesh?5has?5a?5nega@ 00000001801dc400     GuCookingConvexMeshBuilder.obj
 0002:00008480       ??_C@_0DH@NJPPHFFD@Gu?3?3ConvexMesh?3?5Error?5computing@ 00000001801dc480     GuCookingConvexMeshBuilder.obj
 0002:000084b8       ??_C@_0DJ@LJDLGLDJ@Gu?3?3ConvexMesh?3?3loadConvexHull?3@ 00000001801dc4b8     GuCookingConvexMeshBuilder.obj
 0002:00008500       ??_C@_0HJ@KJANPPOE@ConvexMeshBuilder?3?3computeHullP@ 00000001801dc500     GuCookingConvexMeshBuilder.obj
 0002:00008580       ??_C@_0GB@DHMOPKDD@D?3?2Repositories?2External?2PhysX?2@ 00000001801dc580     GuCookingConvexMeshBuilder.obj
 0002:000085e8       ??_C@_0O@JMAGMMGG@PxHullPolygon@ 00000001801dc5e8     GuCookingConvexMeshBuilder.obj
 0002:000085f8       __real@3f13cd3a            00000001801dc5f8     GuCookingConvexMeshBuilder.obj
 0002:00008620       ??_C@_0FP@PGJLBFA@D?3?2Repositories?2External?2PhysX?2@ 00000001801dc620     GuCookingConvexHullUtils.obj
 0002:00008680       __real@3e20d97c            00000001801dc680     GuCookingConvexHullUtils.obj
 0002:00008690       ??_C@_0FN@GEHOPPIM@D?3?2Repositories?2External?2PhysX?2@ 00000001801dc690     GuCookingConvexHullLib.obj
 0002:000086f0       ??_C@_0JE@PABBNGEL@ConvexHullLib?3?3cleanupVertices?3@ 00000001801dc6f0     GuCookingConvexHullLib.obj
 0002:000087b0       ??_C@_0GB@PJGKFKGG@D?3?2Repositories?2External?2PhysX?2@ 00000001801dc7b0     GuCookingConvexHullBuilder.obj
 0002:00008820       ??_C@_0EB@DCEIFDGC@ConvexHullBuilder?3?3init?3?5convex@ 00000001801dc820     GuCookingConvexHullBuilder.obj
 0002:00008870       ??_C@_0FM@KICBLCBH@Gu?3?3ConvexMesh?3?3checkHullPolygo@ 00000001801dc870     GuCookingConvexHullBuilder.obj
 0002:000088d0       ??_C@_0GO@HBFIOGLL@Gu?3?3ConvexMesh?3?3checkHullPolygo@ 00000001801dc8d0     GuCookingConvexHullBuilder.obj
 0002:00008940       ??_C@_0HF@OLJFBIEL@ConvexHullBuilder?3?5convex?5hull?5@ 00000001801dc940     GuCookingConvexHullBuilder.obj
 0002:000089c0       ??_C@_0OG@JNHFOIL@ConvexHullBuilder?3?5convex?5hull?5@ 00000001801dc9c0     GuCookingConvexHullBuilder.obj
 0002:00008ab0       ??_C@_0EJ@NIOIBAKH@Cooking?3?3cookConvexMesh?3?5non?9ma@ 00000001801dcab0     GuCookingConvexHullBuilder.obj
 0002:00008b20       ??_C@_0GE@JCIDNDHP@D?3?2Repositories?2External?2PhysX?2@ 00000001801dcb20     GuCookingBigConvexDataBuilder.obj
 0002:00008b90       __sz_PhysXFoundation_64_dll 00000001801dcb90     PhysXFoundation_64:PhysXFoundation_64.dll
 0002:00008ba8       ??_C@_1BK@DBDEIDLH@?$AAK?$AAE?$AAR?$AAN?$AAE?$AAL?$AA3?$AA2?$AA?4?$AAD?$AAL?$AAL@ 00000001801dcba8     Delayimp:delayhlp.obj
 0002:00008bc8       ??_C@_0BI@OMNLIJDB@AcquireSRWLockExclusive@ 00000001801dcbc8     Delayimp:delayhlp.obj
 0002:00008be0       ??_C@_0BI@HMIEPCNJ@ReleaseSRWLockExclusive@ 00000001801dcbe0     Delayimp:delayhlp.obj
 0002:00008bf8       __pfnDliFailureHook2       00000001801dcbf8     Delayimp:delayhk1.obj
 0002:00008c08       ??_7type_info@@6B@         00000001801dcc08     LIBCMT:std_type_info_static.obj
 0002:00008c70       _pDefaultRawDllMain        00000001801dcc70     LIBCMT:dll_dllmain.obj
 0002:00008c70       _pRawDllMain               00000001801dcc70     LIBCMT:dll_dllmain.obj
 0002:00008c80       _load_config_used          00000001801dcc80     LIBCMT:loadcfg.obj
 0002:00008dc0       _pDestructExceptionObject  00000001801dcdc0     libvcruntime:ehhelpers.obj
 0002:000094e0       ??_C@_08EHJDFFNH@__based?$CI@ 00000001801dd4e0     libvcruntime:undname.obj
 0002:000094f0       ??_C@_07KOLFKCDI@__cdecl@  00000001801dd4f0     libvcruntime:undname.obj
 0002:000094f8       ??_C@_08GHMPAG@__pascal@   00000001801dd4f8     libvcruntime:undname.obj
 0002:00009508       ??_C@_09IFJBGAPI@__stdcall@ 00000001801dd508     libvcruntime:undname.obj
 0002:00009518       ??_C@_0L@NPHFGOKO@__thiscall@ 00000001801dd518     libvcruntime:undname.obj
 0002:00009528       ??_C@_0L@JMKHOMEK@__fastcall@ 00000001801dd528     libvcruntime:undname.obj
 0002:00009538       ??_C@_0N@BCKKPABJ@__vectorcall@ 00000001801dd538     libvcruntime:undname.obj
 0002:00009548       ??_C@_09HIJEGCPM@__clrcall@ 00000001801dd548     libvcruntime:undname.obj
 0002:00009554       ??_C@_06GHPCKEAG@__eabi@   00000001801dd554     libvcruntime:undname.obj
 0002:00009560       ??_C@_09IOPIDJLG@__swift_1@ 00000001801dd560     libvcruntime:undname.obj
 0002:00009570       ??_C@_09KFNFGKHF@__swift_2@ 00000001801dd570     libvcruntime:undname.obj
 0002:00009580       ??_C@_09LMMOFLDE@__swift_3@ 00000001801dd580     libvcruntime:undname.obj
 0002:00009590       ??_C@_07JOMMBBKO@__ptr64@  00000001801dd590     libvcruntime:undname.obj
 0002:00009598       ??_C@_0L@PILCLIHE@__restrict@ 00000001801dd598     libvcruntime:undname.obj
 0002:000095a8       ??_C@_0M@GFIIJFMG@__unaligned@ 00000001801dd5a8     libvcruntime:undname.obj
 0002:000095b8       ??_C@_09DHDLOLLB@restrict?$CI@ 00000001801dd5b8     libvcruntime:undname.obj
 0002:000095c4       ??_C@_04NIHEBCM@?5new@     00000001801dd5c4     libvcruntime:undname.obj
 0002:000095d0       ??_C@_07FPCDHGMM@?5delete@ 00000001801dd5d0     libvcruntime:undname.obj
 0002:000095d8       ??_C@_01NEMOKFLO@?$DN@     00000001801dd5d8     libvcruntime:undname.obj
 0002:000095dc       ??_C@_02GPIOPFAK@?$DO?$DO@ 00000001801dd5dc     libvcruntime:undname.obj
 0002:000095e0       ??_C@_02FODMEDOG@?$DM?$DM@ 00000001801dd5e0     libvcruntime:undname.obj
 0002:000095e4       ??_C@_01DCLJPIOD@?$CB@     00000001801dd5e4     libvcruntime:undname.obj
 0002:000095e8       ??_C@_02EGOFBIJA@?$DN?$DN@ 00000001801dd5e8     libvcruntime:undname.obj
 0002:000095ec       ??_C@_02FDNJECIE@?$CB?$DN@ 00000001801dd5ec     libvcruntime:undname.obj
 0002:000095f0       ??_C@_02GPECMEKF@?$FL?$FN@ 00000001801dd5f0     libvcruntime:undname.obj
 0002:000095f8       ??_C@_08LHJFAFGD@operator@ 00000001801dd5f8     libvcruntime:undname.obj
 0002:00009604       ??_C@_02HBOOOICD@?9?$DO@   00000001801dd604     libvcruntime:undname.obj
 0002:00009608       ??_C@_01NBENCBCI@?$CK@     00000001801dd608     libvcruntime:undname.obj
 0002:0000960c       ??_C@_02ECNGHCIF@?$CL?$CL@ 00000001801dd60c     libvcruntime:undname.obj
 0002:00009610       ??_C@_02BAABKJLB@?9?9@     00000001801dd610     libvcruntime:undname.obj
 0002:00009614       ??_C@_01JOAMLHOP@?9@       00000001801dd614     libvcruntime:undname.obj
 0002:00009618       ??_C@_01MIFGBAGJ@?$CL@     00000001801dd618     libvcruntime:undname.obj
 0002:0000961c       ??_C@_01HNPIGOCE@?$CG@     00000001801dd61c     libvcruntime:undname.obj
 0002:00009620       ??_C@_03MNHNFDLC@?9?$DO?$CK@ 00000001801dd620     libvcruntime:undname.obj
 0002:00009624       ??_C@_01KMDKNFGN@?1@       00000001801dd624     libvcruntime:undname.obj
 0002:00009628       ??_C@_01FGNFDNOH@?$CF@     00000001801dd628     libvcruntime:undname.obj
 0002:0000962c       ??_C@_01MNNFJEPP@?$DM@     00000001801dd62c     libvcruntime:undname.obj
 0002:00009630       ??_C@_02EHCHHCKH@?$DM?$DN@ 00000001801dd630     libvcruntime:undname.obj
 0002:00009634       ??_C@_01PPODPGHN@?$DO@     00000001801dd634     libvcruntime:undname.obj
 0002:00009638       ??_C@_02EEKDKGMJ@?$DO?$DN@ 00000001801dd638     libvcruntime:undname.obj
 0002:0000963c       ??_C@_01IHBHIGKO@?0@       00000001801dd63c     libvcruntime:undname.obj
 0002:00009640       ??_C@_02HCKGKOFO@?$CI?$CJ@ 00000001801dd640     libvcruntime:undname.obj
 0002:00009644       ??_C@_01PJKLJHI@?$HO@      00000001801dd644     libvcruntime:undname.obj
 0002:00009648       ??_C@_01JKBOJNNK@?$FO@     00000001801dd648     libvcruntime:undname.obj
 0002:0000964c       ??_C@_01DNKMNLPK@?$HM@     00000001801dd64c     libvcruntime:undname.obj
 0002:00009650       ??_C@_02PPKAJPJL@?$CG?$CG@ 00000001801dd650     libvcruntime:undname.obj
 0002:00009654       ??_C@_02NONPIBCD@?$HM?$HM@ 00000001801dd654     libvcruntime:undname.obj
 0002:00009658       ??_C@_02FPIMKNGF@?$CK?$DN@ 00000001801dd658     libvcruntime:undname.obj
 0002:0000965c       ??_C@_02FOEOMHFC@?$CL?$DN@ 00000001801dd65c     libvcruntime:undname.obj
 0002:00009660       ??_C@_02FKMDLLOA@?9?$DN@   00000001801dd660     libvcruntime:undname.obj
 0002:00009664       ??_C@_02FJEHGPIO@?1?$DN@   00000001801dd664     libvcruntime:undname.obj
 0002:00009668       ??_C@_02FENAOKFI@?$CF?$DN@ 00000001801dd668     libvcruntime:undname.obj
 0002:0000966c       ??_C@_03IKFCCPFF@?$DO?$DO?$DN@ 00000001801dd66c     libvcruntime:undname.obj
 0002:00009670       ??_C@_03CDNPDDLA@?$DM?$DM?$DN@ 00000001801dd670     libvcruntime:undname.obj
 0002:00009674       ??_C@_02FGJGFEAB@?$CG?$DN@ 00000001801dd674     libvcruntime:undname.obj
 0002:00009678       ??_C@_02DHLNPPGH@?$HM?$DN@ 00000001801dd678     libvcruntime:undname.obj
 0002:0000967c       ??_C@_02MHEGNOJ@?$FO?$DN@  00000001801dd67c     libvcruntime:undname.obj
 0002:00009680       ??_C@_09IFPLHPGF@?$GAvftable?8@ 00000001801dd680     libvcruntime:undname.obj
 0002:00009690       ??_C@_09BLBHBJP@?$GAvbtable?8@ 00000001801dd690     libvcruntime:undname.obj
 0002:000096a0       ??_C@_07FEEIOKP@?$GAvcall?8@ 00000001801dd6a0     libvcruntime:undname.obj
 0002:000096a8       ??_C@_08LLFFHHDJ@?$GAtypeof?8@ 00000001801dd6a8     libvcruntime:undname.obj
 0002:000096b8       ??_C@_0BF@KDPPACIK@?$GAlocal?5static?5guard?8@ 00000001801dd6b8     libvcruntime:undname.obj
 0002:000096d0       ??_C@_08OBABFOLI@?$GAstring?8@ 00000001801dd6d0     libvcruntime:undname.obj
 0002:000096e0       ??_C@_0BD@JDLKDPAB@?$GAvbase?5destructor?8@ 00000001801dd6e0     libvcruntime:undname.obj
 0002:000096f8       ??_C@_0BN@DEGPLNFK@?$GAvector?5deleting?5destructor?8@ 00000001801dd6f8     libvcruntime:undname.obj
 0002:00009718       ??_C@_0BO@OBMKPJIG@?$GAdefault?5constructor?5closure?8@ 00000001801dd718     libvcruntime:undname.obj
 0002:00009738       ??_C@_0BN@IMDCHIKM@?$GAscalar?5deleting?5destructor?8@ 00000001801dd738     libvcruntime:undname.obj
 0002:00009758       ??_C@_0BO@PFGOCPJJ@?$GAvector?5constructor?5iterator?8@ 00000001801dd758     libvcruntime:undname.obj
 0002:00009778       ??_C@_0BN@LFPFMEDL@?$GAvector?5destructor?5iterator?8@ 00000001801dd778     libvcruntime:undname.obj
 0002:00009798       ??_C@_0CE@IKBNEHA@?$GAvector?5vbase?5constructor?5itera@ 00000001801dd798     libvcruntime:undname.obj
 0002:000097c0       ??_C@_0BL@NILFHHPC@?$GAvirtual?5displacement?5map?8@ 00000001801dd7c0     libvcruntime:undname.obj
 0002:000097e0       ??_C@_0CB@JONCMFFK@?$GAeh?5vector?5constructor?5iterator@ 00000001801dd7e0     libvcruntime:undname.obj
 0002:00009808       ??_C@_0CA@GCEOPDGL@?$GAeh?5vector?5destructor?5iterator?8@ 00000001801dd808     libvcruntime:undname.obj
 0002:00009828       ??_C@_0CH@OOJPLCPH@?$GAeh?5vector?5vbase?5constructor?5it@ 00000001801dd828     libvcruntime:undname.obj
 0002:00009850       ??_C@_0BL@LLKPOHJI@?$GAcopy?5constructor?5closure?8@ 00000001801dd850     libvcruntime:undname.obj
 0002:00009870       ??_C@_0BA@KBCDOMBN@?$GAudt?5returning?8@ 00000001801dd870     libvcruntime:undname.obj
 0002:00009880       ??_C@_03KLGMFNMG@?$GAEH@   00000001801dd880     libvcruntime:undname.obj
 0002:00009884       ??_C@_05KHLCHHI@?$GARTTI@  00000001801dd884     libvcruntime:undname.obj
 0002:00009890       ??_C@_0BA@KKLDJDLB@?$GAlocal?5vftable?8@ 00000001801dd890     libvcruntime:undname.obj
 0002:000098a0       ??_C@_0CE@IIHCMGGL@?$GAlocal?5vftable?5constructor?5clos@ 00000001801dd8a0     libvcruntime:undname.obj
 0002:000098c4       ??_C@_06FHBGPFGH@?5new?$FL?$FN@ 00000001801dd8c4     libvcruntime:undname.obj
 0002:000098d0       ??_C@_09LBNFPBCA@?5delete?$FL?$FN@ 00000001801dd8d0     libvcruntime:undname.obj
 0002:000098e0       ??_C@_0P@HJKNJFNN@?$GAomni?5callsig?8@ 00000001801dd8e0     libvcruntime:undname.obj
 0002:000098f0       ??_C@_0BL@CNOONJFP@?$GAplacement?5delete?5closure?8@ 00000001801dd8f0     libvcruntime:undname.obj
 0002:00009910       ??_C@_0BN@CKNJLHMB@?$GAplacement?5delete?$FL?$FN?5closure?8@ 00000001801dd910     libvcruntime:undname.obj
 0002:00009930       ??_C@_0CG@CFDHKGGD@?$GAmanaged?5vector?5constructor?5ite@ 00000001801dd930     libvcruntime:undname.obj
 0002:00009958       ??_C@_0CF@IMGKMJNO@?$GAmanaged?5vector?5destructor?5iter@ 00000001801dd958     libvcruntime:undname.obj
 0002:00009980       ??_C@_0CG@HLDDJMAG@?$GAeh?5vector?5copy?5constructor?5ite@ 00000001801dd980     libvcruntime:undname.obj
 0002:000099a8       ??_C@_0CM@FCBBDIGB@?$GAeh?5vector?5vbase?5copy?5construct@ 00000001801dd9a8     libvcruntime:undname.obj
 0002:000099d8       ??_C@_0BL@CLIPGLGB@?$GAdynamic?5initializer?5for?5?8@ 00000001801dd9d8     libvcruntime:undname.obj
 0002:000099f8       ??_C@_0CB@PDBIFEP@?$GAdynamic?5atexit?5destructor?5for?5@ 00000001801dd9f8     libvcruntime:undname.obj
 0002:00009a20       ??_C@_0CD@CGAJBKEJ@?$GAvector?5copy?5constructor?5iterat@ 00000001801dda20     libvcruntime:undname.obj
 0002:00009a48       ??_C@_0CJ@GJELGAMM@?$GAvector?5vbase?5copy?5constructor?5@ 00000001801dda48     libvcruntime:undname.obj
 0002:00009a78       ??_C@_0CL@FGIJHLCE@?$GAmanaged?5vector?5copy?5constructo@ 00000001801dda78     libvcruntime:undname.obj
 0002:00009aa8       ??_C@_0BM@PMGGMLDN@?$GAlocal?5static?5thread?5guard?8@ 00000001801ddaa8     libvcruntime:undname.obj
 0002:00009ac8       ??_C@_0N@BDNMDMOL@operator?5?$CC?$CC?5@ 00000001801ddac8     libvcruntime:undname.obj
 0002:00009ad8       ??_C@_0BC@GGEBGALA@operator?5co_await@ 00000001801ddad8     libvcruntime:undname.obj
 0002:00009af0       ??_C@_0M@GAAIMMOH@operator?$DM?$DN?$DO@ 00000001801ddaf0     libvcruntime:undname.obj
 0002:00009b00       ??_C@_0BC@DAFEJGAK@?5Type?5Descriptor?8@ 00000001801ddb00     libvcruntime:undname.obj
 0002:00009b18       ??_C@_0BM@LDKODKLH@?5Base?5Class?5Descriptor?5at?5?$CI@ 00000001801ddb18     libvcruntime:undname.obj
 0002:00009b38       ??_C@_0BD@LGICGFMM@?5Base?5Class?5Array?8@ 00000001801ddb38     libvcruntime:undname.obj
 0002:00009b50       ??_C@_0BN@MECKDCOJ@?5Class?5Hierarchy?5Descriptor?8@ 00000001801ddb50     libvcruntime:undname.obj
 0002:00009b70       ??_C@_0BK@CFCOFLF@?5Complete?5Object?5Locator?8@ 00000001801ddb70     libvcruntime:undname.obj
 0002:00009b90       ??_C@_0BG@JNJLAMPM@?$GAanonymous?5namespace?8@ 00000001801ddb90     libvcruntime:undname.obj
 0002:00009ba8       ??_C@_04HEJADOOB@CV?3?5@   00000001801ddba8     libvcruntime:undname.obj
 0002:00009bb0       ??_C@_02MOLJINC@?3?3@      00000001801ddbb0     libvcruntime:undname.obj
 0002:00009bb8       ??_C@_0BE@JAEOCHPE@template?9parameter?9@ 00000001801ddbb8     libvcruntime:undname.obj
 0002:00009bd0       ??_C@_0BF@LNLGBBNL@?$GAtemplate?9parameter?9@ 00000001801ddbd0     libvcruntime:undname.obj
 0002:00009be8       ??_C@_0O@KHGCOMHP@generic?9type?9@ 00000001801ddbe8     libvcruntime:undname.obj
 0002:00009bf8       ??_C@_0P@ODDENDLM@?$GAgeneric?9type?9@ 00000001801ddbf8     libvcruntime:undname.obj
 0002:00009c08       ??_C@_02OHHJMEON@?8?8@     00000001801ddc08     libvcruntime:undname.obj
 0002:00009c10       ??_C@_0BN@IBLMMFAP@?$GAnon?9type?9template?9parameter@ 00000001801ddc10     libvcruntime:undname.obj
 0002:00009c30       ??_C@_03DLDNIBIK@?$CFlf@   00000001801ddc30     libvcruntime:undname.obj
 0002:00009c34       ??_C@_04OFALKAJ@?$DP?$DP_C@ 00000001801ddc34     libvcruntime:undname.obj
 0002:00009c3c       ??_C@_03KHICJKCI@?4?4?4@   00000001801ddc3c     libvcruntime:undname.obj
 0002:00009c40       ??_C@_04HIBGFPH@NULL@      00000001801ddc40     libvcruntime:undname.obj
 0002:00009c48       ??_C@_02DPKJAMEF@?$CFd@    00000001801ddc48     libvcruntime:undname.obj
 0002:00009c50       ??_C@_0BK@IHCCFNEL@?$GAtemplate?9type?9parameter?9@ 00000001801ddc50     libvcruntime:undname.obj
 0002:00009c70       ??_C@_0BK@OFCNNNKO@?$GAgeneric?9class?9parameter?9@ 00000001801ddc70     libvcruntime:undname.obj
 0002:00009c90       ??_C@_0BL@NGJBLFIL@?$GAgeneric?9method?9parameter?9@ 00000001801ddc90     libvcruntime:undname.obj
 0002:00009cb0       ??_C@_07OHNGEDJK@nullptr@  00000001801ddcb0     libvcruntime:undname.obj
 0002:00009cb8       ??_C@_06COJIGPIB@lambda@   00000001801ddcb8     libvcruntime:undname.obj
 0002:00009cc0       ??_C@_0BE@EODMJLIF@?$GAtemplate?9parameter@ 00000001801ddcc0     libvcruntime:undname.obj
 0002:00009cd4       ??_C@_03OPGICMGF@?$HN?8?5@ 00000001801ddcd4     libvcruntime:undname.obj
 0002:00009cd8       ??_C@_02IGFCGPIL@?$HN?8@   00000001801ddcd8     libvcruntime:undname.obj
 0002:00009ce0       ??_C@_0N@CBHHHENL@?$GAvtordispex?$HL@ 00000001801ddce0     libvcruntime:undname.obj
 0002:00009cf0       ??_C@_0L@GHPFDFH@?$GAvtordisp?$HL@ 00000001801ddcf0     libvcruntime:undname.obj
 0002:00009d00       ??_C@_0L@HNGCOGAE@?$GAadjustor?$HL@ 00000001801ddd00     libvcruntime:undname.obj
 0002:00009d10       ??_C@_0CB@KJDOOODE@?$GAlocal?5static?5destructor?5helper@ 00000001801ddd10     libvcruntime:undname.obj
 0002:00009d38       ??_C@_0DB@ILEFOCIJ@?$GAtemplate?5static?5data?5member?5co@ 00000001801ddd38     libvcruntime:undname.obj
 0002:00009d70       ??_C@_0DA@HGFJFBBE@?$GAtemplate?5static?5data?5member?5de@ 00000001801ddd70     libvcruntime:undname.obj
 0002:00009da0       ??_C@_07PGOEDBHP@static?5@ 00000001801ddda0     libvcruntime:undname.obj
 0002:00009da8       ??_C@_08NIEOINHE@virtual?5@ 00000001801ddda8     libvcruntime:undname.obj
 0002:00009db8       ??_C@_09LAPHOOG@private?3?5@ 00000001801dddb8     libvcruntime:undname.obj
 0002:00009dc8       ??_C@_0M@GAIFPFIP@protected?3?5@ 00000001801dddc8     libvcruntime:undname.obj
 0002:00009dd8       ??_C@_08GPDDCMKI@public?3?5@ 00000001801dddd8     libvcruntime:undname.obj
 0002:00009de8       ??_C@_08KJLFOPNE@?$FLthunk?$FN?3@ 00000001801ddde8     libvcruntime:undname.obj
 0002:00009df8       ??_C@_0M@DHNBOJMP@extern?5?$CCC?$CC?5@ 00000001801dddf8     libvcruntime:undname.obj
 0002:00009e04       ??_C@_02KCKGHPCA@?$CJ?5@   00000001801dde04     libvcruntime:undname.obj
 0002:00009e08       ??_C@_05CIHEBHNO@char?5@   00000001801dde08     libvcruntime:undname.obj
 0002:00009e10       ??_C@_06EHJMALKF@short?5@  00000001801dde10     libvcruntime:undname.obj
 0002:00009e18       ??_C@_04LAHKHJMA@int?5@    00000001801dde18     libvcruntime:undname.obj
 0002:00009e20       ??_C@_05CJIMAING@long?5@   00000001801dde20     libvcruntime:undname.obj
 0002:00009e28       ??_C@_09EBBEKKIH@unsigned?5@ 00000001801dde28     libvcruntime:undname.obj
 0002:00009e34       ??_C@_05BEFAKPML@void?5@   00000001801dde34     libvcruntime:undname.obj
 0002:00009e40       ??_C@_09GAIEOBLP@volatile?5@ 00000001801dde40     libvcruntime:undname.obj
 0002:00009e50       ??_C@_08PABEKFH@volatile@  00000001801dde50     libvcruntime:undname.obj
 0002:00009e60       ??_C@_0BA@LKIJLKPP@std?3?3nullptr_t?5@ 00000001801dde60     libvcruntime:undname.obj
 0002:00009e70       ??_C@_0P@GCOCNKDM@std?3?3nullptr_t@ 00000001801dde70     libvcruntime:undname.obj
 0002:00009e80       ??_C@_0L@EGPHHEKN@?$DMellipsis?$DO@ 00000001801dde80     libvcruntime:undname.obj
 0002:00009e8c       ??_C@_04EENFHACM@?0?4?4?4@ 00000001801dde8c     libvcruntime:undname.obj
 0002:00009e98       ??_C@_0M@ELJOJFFH@?0?$DMellipsis?$DO@ 00000001801dde98     libvcruntime:undname.obj
 0002:00009ea8       ??_C@_09DNHFEOJI@?5noexcept@ 00000001801ddea8     libvcruntime:undname.obj
 0002:00009eb4       ??_C@_03PBJBJNON@cpu@      00000001801ddeb4     libvcruntime:undname.obj
 0002:00009eb8       ??_C@_03DCBBJBAA@amp@      00000001801ddeb8     libvcruntime:undname.obj
 0002:00009ebc       ??_C@_02KEGNLNML@?0?5@     00000001801ddebc     libvcruntime:undname.obj
 0002:00009ec0       ??_C@_04ENMBGAPA@char@     00000001801ddec0     libvcruntime:undname.obj
 0002:00009ec8       ??_C@_05BFKKPKCG@short@    00000001801ddec8     libvcruntime:undname.obj
 0002:00009ed0       ??_C@_03JBIPMCLC@int@      00000001801dded0     libvcruntime:undname.obj
 0002:00009ed4       ??_C@_04GOKPGOLB@long@     00000001801dded4     libvcruntime:undname.obj
 0002:00009edc       ??_C@_06BNJCAIGJ@double@   00000001801ddedc     libvcruntime:undname.obj
 0002:00009ee4       ??_C@_06EBGKOKIG@__int8@   00000001801ddee4     libvcruntime:undname.obj
 0002:00009ef0       ??_C@_07ICFHOGAF@__int16@  00000001801ddef0     libvcruntime:undname.obj
 0002:00009ef8       ??_C@_07OFLPPHGP@__int32@  00000001801ddef8     libvcruntime:undname.obj
 0002:00009f00       ??_C@_07LFCOJCAC@__int64@  00000001801ddf00     libvcruntime:undname.obj
 0002:00009f08       ??_C@_08GAHOLHEO@__int128@ 00000001801ddf08     libvcruntime:undname.obj
 0002:00009f18       ??_C@_09EEKGDCPH@?$DMunknown?$DO@ 00000001801ddf18     libvcruntime:undname.obj
 0002:00009f28       ??_C@_07CFHGOPCN@char8_t@  00000001801ddf28     libvcruntime:undname.obj
 0002:00009f30       ??_C@_08HBIPOFJB@char16_t@ 00000001801ddf30     libvcruntime:undname.obj
 0002:00009f40       ??_C@_08IECNCBKG@char32_t@ 00000001801ddf40     libvcruntime:undname.obj
 0002:00009f50       ??_C@_07CLGGIAMF@wchar_t@  00000001801ddf50     libvcruntime:undname.obj
 0002:00009f58       ??_C@_04HAPDLBFF@auto@     00000001801ddf58     libvcruntime:undname.obj
 0002:00009f60       ??_C@_0P@LHCGKIGK@decltype?$CIauto?$CJ@ 00000001801ddf60     libvcruntime:undname.obj
 0002:00009f70       ??_C@_05PCNBGHCF@this?5@   00000001801ddf70     libvcruntime:undname.obj
 0002:00009f78       ??_C@_06GCICPBLB@__w64?5@  00000001801ddf78     libvcruntime:undname.obj
 0002:00009f80       ??_C@_07NFANNNEC@UNKNOWN@  00000001801ddf80     libvcruntime:undname.obj
 0002:00009f88       ??_C@_07EDHNAJHC@signed?5@ 00000001801ddf88     libvcruntime:undname.obj
 0002:00009f90       ??_C@_05BNCCCJPP@const@    00000001801ddf90     libvcruntime:undname.obj
 0002:00009f98       ??_C@_09EFNPDFFP@?5volatile@ 00000001801ddf98     libvcruntime:undname.obj
 0002:00009fa8       ??_C@_0P@GCIFDJCJ@?$GAunknown?5ecsu?8@ 00000001801ddfa8     libvcruntime:undname.obj
 0002:00009fb8       ??_C@_06MOJHIBMG@union?5@  00000001801ddfb8     libvcruntime:undname.obj
 0002:00009fc0       ??_C@_07DIBCDNGL@struct?5@ 00000001801ddfc0     libvcruntime:undname.obj
 0002:00009fc8       ??_C@_06LJBABKPM@class?5@  00000001801ddfc8     libvcruntime:undname.obj
 0002:00009fd0       ??_C@_08KOFANOFK@coclass?5@ 00000001801ddfd0     libvcruntime:undname.obj
 0002:00009fe0       ??_C@_0N@DLIEFKNA@cointerface?5@ 00000001801ddfe0     libvcruntime:undname.obj
 0002:00009ff0       ??_C@_05LJGMCFOG@enum?5@   00000001801ddff0     libvcruntime:undname.obj
 0002:00009ff8       ??_C@_06LIJLOJAG@const?5@  00000001801ddff8     libvcruntime:undname.obj
 0002:0000a000       ??_C@_02KJPKDIBN@?$CG?5@   00000001801de000     libvcruntime:undname.obj
 0002:0000a004       ??_C@_03PCKGMOPB@?$CG?$CG?5@ 00000001801de004     libvcruntime:undname.obj
 0002:0000a008       ??_C@_0M@EALIELKG@cli?3?3array?$DM@ 00000001801de008     libvcruntime:undname.obj
 0002:0000a018       ??_C@_0O@GKABPPIF@cli?3?3pin_ptr?$DM@ 00000001801de018     libvcruntime:undname.obj
 0002:0000a028       ??_C@_02GOGNNPBN@?$CJ?$FL@ 00000001801de028     libvcruntime:undname.obj
 0002:0000a02c       ??_C@_06EEGAIFAK@?$HLflat?$HN@ 00000001801de02c     libvcruntime:undname.obj
 0002:0000a034       ??_C@_05JIBOFOHK@?$HLfor?5@ 00000001801de034     libvcruntime:undname.obj
 0002:0000a03c       ??_C@_02MDINNEEG@s?5@      00000001801de03c     libvcruntime:undname.obj
 0002:0000a048       ??_7charNode@@6B@          00000001801de048     libvcruntime:undname.obj
 0002:0000a070       ??_7pcharNode@@6B@         00000001801de070     libvcruntime:undname.obj
 0002:0000a098       ??_7pDNameNode@@6B@        00000001801de098     libvcruntime:undname.obj
 0002:0000a0c0       ??_7DNameStatusNode@@6B@   00000001801de0c0     libvcruntime:undname.obj
 0002:0000a0e8       ??_7pairNode@@6B@          00000001801de0e8     libvcruntime:undname.obj
 0002:0000a210       ??_C@_04OKOHEJBO@?5?$DP?$DP?5@ 00000001801de210     libvcruntime:undname.obj
 0002:0000a220       ?nodes@?1??make@DNameStatusNode@@SAPEBV2@W4DNameStatus@@@Z@4QBV2@B 00000001801de220     libvcruntime:undname.obj
 0002:0000a260       ?s_negLengthTab@FH4@@3QBCB 00000001801de260     libvcruntime:risctrnsctrl.obj
 0002:0000a270       ?s_shiftTab@FH4@@3QBEB     00000001801de270     libvcruntime:risctrnsctrl.obj
 0002:0000a3d0       ??_C@_1DM@KHCHBNEB@?$AAa?$AAp?$AAi?$AA?9?$AAm?$AAs?$AA?9?$AAw?$AAi?$AAn?$AA?9?$AAc?$AAo?$AAr?$AAe@ 00000001801de3d0     libvcruntime:winapi_downlevel.obj
 0002:0000a410       ??_C@_1DK@LPPGFMPP@?$AAa?$AAp?$AAi?$AA?9?$AAm?$AAs?$AA?9?$AAw?$AAi?$AAn?$AA?9?$AAc?$AAo?$AAr?$AAe@ 00000001801de410     libvcruntime:winapi_downlevel.obj
 0002:0000a450       ??_C@_1BC@GDMECMAK@?$AAk?$AAe?$AAr?$AAn?$AAe?$AAl?$AA3?$AA2@ 00000001801de450     libvcruntime:winapi_downlevel.obj
 0002:0000a468       ??_C@_1BA@PFFKHIOG@?$AAa?$AAp?$AAi?$AA?9?$AAm?$AAs?$AA?9@ 00000001801de468     libvcruntime:winapi_downlevel.obj
 0002:0000a480       ??_C@_08KNHFBNJ@FlsAlloc@  00000001801de480     libvcruntime:winapi_downlevel.obj
 0002:0000a498       ??_C@_07PEJMOBNF@FlsFree@  00000001801de498     libvcruntime:winapi_downlevel.obj
 0002:0000a4a8       ??_C@_0M@GDNOONDI@FlsGetValue@ 00000001801de4a8     libvcruntime:winapi_downlevel.obj
 0002:0000a4c0       ??_C@_0M@JCPCPOEF@FlsSetValue@ 00000001801de4c0     libvcruntime:winapi_downlevel.obj
 0002:0000a4d8       ??_C@_0BM@HCFOFFN@InitializeCriticalSectionEx@ 00000001801de4d8     libvcruntime:winapi_downlevel.obj
 0002:0000a500       ??_7exception@std@@6B@     00000001801de500     libvcruntime:frame.obj
 0002:0000a510       ??_C@_0BC@EOODALEL@Unknown?5exception@ 00000001801de510     libvcruntime:frame.obj
 0002:0000a530       ??_7bad_exception@std@@6B@ 00000001801de530     libvcruntime:frame.obj
 0002:0000a540       ??_C@_0O@DPKOEFFH@bad?5exception@ 00000001801de540     libvcruntime:frame.obj
 0002:0000a890       ?standard_lookup_table_spectre@__crt_stdio_output@@3V?$spectre_mitigated_lookup_table@Ustate_transition_pair@__crt_stdio_output@@$0IA@@1@B 00000001801de890     libucrt:output.obj
 0002:0000a990       ?format_validation_lookup_table_spectre@__crt_stdio_output@@3V?$spectre_mitigated_lookup_table@Ustate_transition_pair@__crt_stdio_output@@$0IA@@1@B 00000001801de990     libucrt:output.obj
 0002:0000aa90       ??_C@_1O@CEDCILHN@?$AA?$CI?$AAn?$AAu?$AAl?$AAl?$AA?$CJ@ 00000001801dea90     libucrt:output.obj
 0002:0000aaa0       ??_C@_06OJHGLDPL@?$CInull?$CJ@ 00000001801deaa0     libucrt:output.obj
 0002:0000bb38       __real@3f1a36e2eb1c432d    00000001801dfb38     libucrt:atan2f.obj
 0002:0000bb40       __real@3fb0000000000000    00000001801dfb40     libucrt:atan2f.obj
 0002:0000bb48       __real@3fc2492482bd6be1    00000001801dfb48     libucrt:atan2f.obj
 0002:0000bb50       __real@3fc99999999643a3    00000001801dfb50     libucrt:atan2f.obj
 0002:0000bb58       __real@3fd5555555550877    00000001801dfb58     libucrt:atan2f.obj
 0002:0000bb60       __real@3fd5555555555538    00000001801dfb60     libucrt:atan2f.obj
 0002:0000bb68       __real@3ff921fb54442d18    00000001801dfb68     libucrt:atan2f.obj
 0002:0000bb70       __real@400921fb54442d18    00000001801dfb70     libucrt:atan2f.obj
 0002:0000bb78       __real@40490fdb            00000001801dfb78     libucrt:atan2f.obj
 0002:0000bb80       __real@4070000000000000    00000001801dfb80     libucrt:atan2f.obj
 0002:0000bb88       __real@bf490fdb            00000001801dfb88     libucrt:atan2f.obj
 0002:0000bb8c       __real@bfc90fdb            00000001801dfb8c     libucrt:atan2f.obj
 0002:0000bb90       __real@c016cbe4            00000001801dfb90     libucrt:atan2f.obj
 0002:0000bb94       __real@c0490fdb            00000001801dfb94     libucrt:atan2f.obj
 0002:0000bb98       ??_C@_05FFFCHCED@acosf@    00000001801dfb98     libucrt:acosf.obj
 0002:0000bba0       __real@3b81ce6b            00000001801dfba0     libucrt:acosf.obj
 0002:0000bba8       __real@3c91a62633145c07    00000001801dfba8     libucrt:acosf.obj
 0002:0000bbb0       __real@3d678bdd            00000001801dfbb0     libucrt:acosf.obj
 0002:0000bbb4       __real@3e3c94dc            00000001801dfbb4     libucrt:acosf.obj
 0002:0000bbb8       __real@3f561f0d            00000001801dfbb8     libucrt:acosf.obj
 0002:0000bbbc       __real@3f8d6fa5            00000001801dfbbc     libucrt:acosf.obj
 0002:0000bbc0       __real@bc5b3fe1            00000001801dfbc0     libucrt:acosf.obj
 0002:0000bbd0       __acrt_exception_action_table 00000001801dfbd0     libucrt:exception_filter.obj
 0002:0000bc90       __acrt_signal_action_table_count 00000001801dfc90     libucrt:exception_filter.obj
 0002:0000bc98       __acrt_signal_action_first_fpe_index 00000001801dfc98     libucrt:exception_filter.obj
 0002:0000bca0       __acrt_signal_action_fpe_count 00000001801dfca0     libucrt:exception_filter.obj
 0002:0000bcf8       ??_C@_1BI@BGOHAHKC@?$AAm?$AAs?$AAc?$AAo?$AAr?$AAe?$AAe?$AA?4?$AAd?$AAl?$AAl@ 00000001801dfcf8     libucrt:exit.obj
 0002:0000bd10       ??_C@_0P@MIGLKIOC@CorExitProcess@ 00000001801dfd10     libucrt:exit.obj
 0002:0000bfe0       ??_C@_04LAGPAAHP@sinf@     00000001801dffe0     libucrt:sincos_special.obj
 0002:0000bfe8       ??_C@_04OBBKPIAC@cosf@     00000001801dffe8     libucrt:sincos_special.obj
 0002:0000bff0       ??_C@_04MHPLPEIA@tanf@     00000001801dfff0     libucrt:sincos_special.obj
 0002:0000c000       __Lcosfarray               00000001801e0000     libucrt:lsincosf_array.obj
 0002:0000c030       __Lsinfarray               00000001801e0030     libucrt:lsincosf_array.obj
 0002:0000c050       __L_2_by_pi_bits           00000001801e0050     libucrt:l2_by_pi_bits.obj
 0002:0000c3b0       ??_C@_1EA@JGEFHKEI@?$AAa?$AAp?$AAi?$AA?9?$AAm?$AAs?$AA?9?$AAw?$AAi?$AAn?$AA?9?$AAc?$AAo?$AAr?$AAe@ 00000001801e03b0     libucrt:winapi_thunks.obj
 0002:0000c3f0       ??_C@_1DI@IJCEHOCB@?$AAa?$AAp?$AAi?$AA?9?$AAm?$AAs?$AA?9?$AAw?$AAi?$AAn?$AA?9?$AAc?$AAo?$AAr?$AAe@ 00000001801e03f0     libucrt:winapi_thunks.obj
 0002:0000c430       ??_C@_1EI@MPIAOHOC@?$AAa?$AAp?$AAi?$AA?9?$AAm?$AAs?$AA?9?$AAw?$AAi?$AAn?$AA?9?$AAc?$AAo?$AAr?$AAe@ 00000001801e0430     libucrt:winapi_thunks.obj
 0002:0000c480       ??_C@_1FK@FPHCKFIE@?$AAa?$AAp?$AAi?$AA?9?$AAm?$AAs?$AA?9?$AAw?$AAi?$AAn?$AA?9?$AAc?$AAo?$AAr?$AAe@ 00000001801e0480     libucrt:winapi_thunks.obj
 0002:0000c4e0       ??_C@_1EM@DILCGIIO@?$AAa?$AAp?$AAi?$AA?9?$AAm?$AAs?$AA?9?$AAw?$AAi?$AAn?$AA?9?$AAc?$AAo?$AAr?$AAe@ 00000001801e04e0     libucrt:winapi_thunks.obj
 0002:0000c530       ??_C@_1DM@LNCGDDPN@?$AAa?$AAp?$AAi?$AA?9?$AAm?$AAs?$AA?9?$AAw?$AAi?$AAn?$AA?9?$AAc?$AAo?$AAr?$AAe@ 00000001801e0530     libucrt:winapi_thunks.obj
 0002:0000c570       ??_C@_1DO@FPAPJEMD@?$AAa?$AAp?$AAi?$AA?9?$AAm?$AAs?$AA?9?$AAw?$AAi?$AAn?$AA?9?$AAc?$AAo?$AAr?$AAe@ 00000001801e0570     libucrt:winapi_thunks.obj
 0002:0000c5b0       ??_C@_1DK@NDHNAHIO@?$AAa?$AAp?$AAi?$AA?9?$AAm?$AAs?$AA?9?$AAw?$AAi?$AAn?$AA?9?$AAc?$AAo?$AAr?$AAe@ 00000001801e05b0     libucrt:winapi_thunks.obj
 0002:0000c5f0       ??_C@_1DM@KGHDGBCM@?$AAa?$AAp?$AAi?$AA?9?$AAm?$AAs?$AA?9?$AAw?$AAi?$AAn?$AA?9?$AAc?$AAo?$AAr?$AAe@ 00000001801e05f0     libucrt:winapi_thunks.obj
 0002:0000c630       ??_C@_1EO@IJIOEFOH@?$AAa?$AAp?$AAi?$AA?9?$AAm?$AAs?$AA?9?$AAw?$AAi?$AAn?$AA?9?$AAr?$AAt?$AAc?$AAo@ 00000001801e0630     libucrt:winapi_thunks.obj
