 PhysXCommon_64

 Timestamp is 64bdff2d (Mon Jul 24 10:03:49 2023)

 Preferred load address is 0000000180000000

 Start         Length     Name                   Class
 0001:00000000 000034d0H .text$di                CODE
 0001:000034d0 001cf9c0H .text$mn                CODE
 0001:001d2e90 00000040H .text$mn$00             CODE
 0001:001d2ed0 00000680H .text$x                 CODE
 0001:001d3550 0000000fH .text$yd                CODE
 0002:00000000 00000288H .idata$5                DATA
 0002:00000288 00000038H .00cfg                  DATA
 0002:000002c0 00000008H .CRT$XCA                DATA
 0002:000002c8 000019a0H .CRT$XCU                DATA
 0002:00001c68 00000008H .CRT$XCZ                DATA
 0002:00001c70 00000008H .CRT$XIA                DATA
 0002:00001c78 00000018H .CRT$XIC                DATA
 0002:00001c90 00000008H .CRT$XIZ                DATA
 0002:00001c98 00000008H .CRT$XPA                DATA
 0002:00001ca0 00000010H .CRT$XPX                DATA
 0002:00001cb0 00000008H .CRT$XPXA               DATA
 0002:00001cb8 00000008H .CRT$XPZ                DATA
 0002:00001cc0 00000008H .CRT$XTA                DATA
 0002:00001cc8 00000008H .CRT$XTZ                DATA
 0002:00001cd0 00000000H .gehcont$y              DATA
 0002:00001cd0 00000000H .gfids$y                DATA
 0002:00001cd0 00011b30H .rdata                  DATA
 0002:00013800 00000000H .rdata$CastGuardVftablesA DATA
 0002:00013800 00000000H .rdata$CastGuardVftablesC DATA
 0002:00013800 0000043cH .rdata$r                DATA
 0002:00013c3c 0000022cH .rdata$voltmd           DATA
 0002:00013e68 00000438H .rdata$zzzdbg           DATA
 0002:000142a0 00000008H .rtc$IAA                DATA
 0002:000142a8 00000008H .rtc$IZZ                DATA
 0002:000142b0 00000008H .rtc$TAA                DATA
 0002:000142b8 00000008H .rtc$TZZ                DATA
 0002:000142c0 00014db0H .xdata                  DATA
 0002:00029070 00000084H .xdata$x                DATA
 0002:000290f4 00000020H .didat$2                DATA
 0002:00029114 00000024H .didat$3                DATA
 0002:00029138 000000c8H .didat$4                DATA
 0002:00029200 00000410H .didat$6                DATA
 0002:00029610 000000d0H .didat$7                DATA
 0002:000296e0 0000c3a4H .edata                  DATA
 0002:00035a84 00000014H .idata$2                DATA
 0002:00035a98 00000018H .idata$3                DATA
 0002:00035ab0 00000288H .idata$4                DATA
 0002:00035d38 000005caH .idata$6                DATA
 0003:00000000 00001c40H .data                   DATA
 0003:00001c40 00001158H .data$r                 DATA
 0003:00002d98 000000f0H .data$rs                DATA
 0003:00002e88 000000c8H .didat$5                DATA
 0003:00002f50 000045bcH .bss                    DATA
 0004:00000000 0000c450H .pdata                  DATA
 0005:00000000 0000236cH _RDATA                  DATA
 0006:00000000 000000a0H .rsrc$01                DATA
 0006:000000a0 000004b0H .rsrc$02                DATA

  Address         Publics by Value              Rva+Base               Lib:Object

 0000:00000000       __AbsoluteZero             0000000000000000     <absolute>
 0000:00000000       ___safe_se_handler_count   0000000000000000     <absolute>
 0000:00000000       ___safe_se_handler_table   0000000000000000     <absolute>
 0000:00000000       __arm64x_extra_rfe_table   0000000000000000     <absolute>
 0000:00000000       __arm64x_extra_rfe_table_size 0000000000000000     <absolute>
 0000:00000000       __arm64x_native_entrypoint 0000000000000000     <absolute>
 0000:00000000       __arm64x_redirection_metadata 0000000000000000     <absolute>
 0000:00000000       __arm64x_redirection_metadata_count 0000000000000000     <absolute>
 0000:00000000       __dynamic_value_reloc_table 0000000000000000     <absolute>
 0000:00000000       __enclave_config           0000000000000000     <absolute>
 0000:00000000       __guard_check_icall_a64n_fptr 0000000000000000     <absolute>
 0000:00000000       __guard_eh_cont_count      0000000000000000     <absolute>
 0000:00000000       __guard_eh_cont_table      0000000000000000     <absolute>
 0000:00000000       __guard_fids_count         0000000000000000     <absolute>
 0000:00000000       __guard_fids_table         0000000000000000     <absolute>
 0000:00000000       __guard_iat_count          0000000000000000     <absolute>
 0000:00000000       __guard_iat_table          0000000000000000     <absolute>
 0000:00000000       __guard_longjmp_count      0000000000000000     <absolute>
 0000:00000000       __guard_longjmp_table      0000000000000000     <absolute>
 0000:00000000       __hybrid_auxiliary_delayload_iat 0000000000000000     <absolute>
 0000:00000000       __hybrid_auxiliary_delayload_iat_copy 0000000000000000     <absolute>
 0000:00000000       __hybrid_auxiliary_iat     0000000000000000     <absolute>
 0000:00000000       __hybrid_auxiliary_iat_copy 0000000000000000     <absolute>
 0000:00000000       __hybrid_code_map          0000000000000000     <absolute>
 0000:00000000       __hybrid_code_map_count    0000000000000000     <absolute>
 0000:00000000       __x64_code_ranges_to_entry_points 0000000000000000     <absolute>
 0000:00000000       __x64_code_ranges_to_entry_points_count 0000000000000000     <absolute>
 0000:00000100       __guard_flags              0000000000000100     <absolute>
 0000:00000000       __ImageBase                0000000180000000     <linker-defined>
 0001:000034d0       ??0PtrTable@Cm@physx@@QEAA@W4PxEMPTY@2@@Z 00000001800044d0 f i CmPtrTable.obj
 0001:000034f0       ??0PtrTable@Cm@physx@@QEAA@XZ 00000001800044f0 f   CmPtrTable.obj
 0001:00003500       ??1AABBTreeBuildNode@Gu@physx@@QEAA@XZ 0000000180004500 f   GuMeshFactory.obj
 0001:00003500       ??1BigConvexDataBuilder@physx@@QEAA@XZ 0000000180004500 f   GuCookingBigConvexDataBuilder.obj
 0001:00003500       ??1Box@Gu@physx@@QEAA@XZ   0000000180004500 f   GuBox.obj
 0001:00003500       ??1HeightFieldData@Gu@physx@@QEAA@XZ 0000000180004500 f   GuCCTSweepTests.obj
 0001:00003500       ??1PtrTable@Cm@physx@@QEAA@XZ 0000000180004500 f   CmPtrTable.obj
 0001:00003500       ?build@CompanionPrunerIncremental@@UEAAXXZ 0000000180004500 f   GuSecondaryPruner.obj
 0001:00003500       ?checkTreeLeaf@IncrementalAABBTree@Gu@physx@@QEAAXPEAVIncrementalAABBTreeNode@23@I@Z 0000000180004500 f   GuIncrementalAABBTree.obj
 0001:00003500       ?execute@?$PxThreadT@V?$PxReflectionAllocator@VPxThreadImpl@physx@@@physx@@@physx@@UEAAXXZ 0000000180004500 f   GuSDF.obj
 0001:00003500       ?execute@PxRunnable@physx@@UEAAXXZ 0000000180004500 f   GuSDF.obj
 0001:00003500       ?merge@BucketPruner@Gu@physx@@UEAAXPEBX@Z 0000000180004500 f   GuBucketPruner.obj
 0001:00003500       ?merge@IncrementalAABBPruner@Gu@physx@@UEAAXPEBX@Z 0000000180004500 f   GuIncrementalAABBPruner.obj
 0001:00003500       ?onMeshIndexFormatChange@TriangleMeshBuilder@physx@@UEAAXXZ 0000000180004500 f   GuCookingTriangleMesh.obj
 0001:00003500       ?profile@Callback@RTree@Gu@physx@@UEAAXXZ 0000000180004500 f   GuMidphaseRTree.obj
 0001:00003500       ?purge@BucketPruner@Gu@physx@@UEAAXXZ 0000000180004500 f   GuBucketPruner.obj
 0001:00003500       ?requiresObjects@ConvexMesh@Gu@physx@@UEAAXAEAVPxProcessPxBaseCallback@3@@Z 0000000180004500 f   GuConvexMesh.obj
 0001:00003500       ?requiresObjects@HeightField@Gu@physx@@UEAAXAEAVPxProcessPxBaseCallback@3@@Z 0000000180004500 f   GuHeightField.obj
 0001:00003500       ?requiresObjects@SoftBodyMesh@Gu@physx@@UEAAXAEAVPxProcessPxBaseCallback@3@@Z 0000000180004500 f   GuTetrahedronMesh.obj
 0001:00003500       ?requiresObjects@TriangleMesh@Gu@physx@@UEAAXAEAVPxProcessPxBaseCallback@3@@Z 0000000180004500 f   GuTriangleMesh.obj
 0001:00003500       ?swapIndex@CompanionPrunerAABBTree@@UEAAXII@Z 0000000180004500 f   GuSecondaryPruner.obj
 0001:00003500       ?swapIndex@CompanionPrunerBucket@@UEAAXII@Z 0000000180004500 f   GuSecondaryPruner.obj
 0001:00003500       ?timeStampChange@CompanionPrunerAABBTree@@UEAAXXZ 0000000180004500 f   GuSecondaryPruner.obj
 0001:00003500       ?timeStampChange@CompanionPrunerBucket@@UEAAXXZ 0000000180004500 f   GuSecondaryPruner.obj
 0001:00003500       ?visualize@BasePruner@Gu@physx@@UEBAXAEAVPxRenderOutput@3@II@Z 0000000180004500 f   GuIncrementalAABBPruner.obj
 0001:00003500       _guard_check_icall_nop     0000000180004500 f   LIBCMT:guard_support.obj
 0001:00003510       ??4AABBTreeBounds@Gu@physx@@QEAAAEAV012@AEBV012@@Z 0000000180004510 f i GuMeshFactory.obj
 0001:00003510       ??4CmModuleUpdateLoader@Cm@physx@@QEAAAEAV012@AEBV012@@Z 0000000180004510 f i CmWindowsModuleUpdateLoader.obj
 0001:00003510       ??4PtrTable@Cm@physx@@QEAAAEAU012@AEBU012@@Z 0000000180004510 f i CmPtrTable.obj
 0001:00003520       ?add@PtrTable@Cm@physx@@QEAAXPEAXAEAVPtrTableStorageManager@23@@Z 0000000180004520 f   CmPtrTable.obj
 0001:00003630       ?clear@PtrTable@Cm@physx@@QEAAXAEAVPtrTableStorageManager@23@@Z 0000000180004630 f   CmPtrTable.obj
 0001:000036a0       ?exportExtraData@PtrTable@Cm@physx@@QEAAXAEAVPxSerializationContext@3@@Z 00000001800046a0 f   CmPtrTable.obj
 0001:000036f0       ?find@PtrTable@Cm@physx@@QEBAIPEBX@Z 00000001800046f0 f   CmPtrTable.obj
 0001:00003720       ?getBinaryMetaData@PtrTable@Cm@physx@@SAXAEAVPxOutputStream@3@@Z 0000000180004720 f   CmPtrTable.obj
 0001:00003910       ?getCount@PtrTable@Cm@physx@@QEBAIXZ 0000000180004910 f i CmPtrTable.obj
 0001:00003920       ?getPtrs@PtrTable@Cm@physx@@QEAAPEAPEAXXZ 0000000180004920 f i CmPtrTable.obj
 0001:00003920       ?getPtrs@PtrTable@Cm@physx@@QEBAPEBQEAXXZ 0000000180004920 f i CmPtrTable.obj
 0001:00003930       ?importExtraData@PtrTable@Cm@physx@@QEAAXAEAVPxDeserializationContext@3@@Z 0000000180004930 f   CmPtrTable.obj
 0001:00003960       ?realloc@PtrTable@Cm@physx@@AEAAXIIAEAVPtrTableStorageManager@23@@Z 0000000180004960 f   CmPtrTable.obj
 0001:000039f0       ?replaceWithLast@PtrTable@Cm@physx@@QEAAXIAEAVPtrTableStorageManager@23@@Z 00000001800049f0 f   CmPtrTable.obj
 0001:00003af0       ??_ECollection@Cm@physx@@UEAAPEAXI@Z 0000000180004af0 f i CmCollection.obj
 0001:00003af0       ??_GCollection@Cm@physx@@UEAAPEAXI@Z 0000000180004af0 f i CmCollection.obj
 0001:00003ba0       ??_EPxCollection@physx@@MEAAPEAXI@Z 0000000180004ba0 f i CmCollection.obj
 0001:00003ba0       ??_GPxCollection@physx@@MEAAPEAXI@Z 0000000180004ba0 f i CmCollection.obj
 0001:00003bd0       ?add@Collection@Cm@physx@@UEAAXAEAVPxBase@3@_K@Z 0000000180004bd0 f   CmCollection.obj
 0001:00003cc0       ?add@Collection@Cm@physx@@UEAAXAEAVPxCollection@3@@Z 0000000180004cc0 f   CmCollection.obj
 0001:00003e60       ?addId@Collection@Cm@physx@@UEAAXAEAVPxBase@3@_K@Z 0000000180004e60 f   CmCollection.obj
 0001:00003f90       ?contains@Collection@Cm@physx@@UEBA_NAEAVPxBase@3@@Z 0000000180004f90 f   CmCollection.obj
 0001:00004040       ?create@?$PxHashBase@V?$PxPair@$$CB_KPEAVPxBase@physx@@@physx@@_KU?$PxHash@_K@2@UGetKey@?$PxHashMapBase@_KPEAVPxBase@physx@@U?$PxHash@_K@2@VPxAllocator@2@@2@VPxAllocator@2@$00@physx@@QEAAPEAV?$PxPair@$$CB_KPEAVPxBase@physx@@@2@AEB_KAEA_N@Z 0000000180005040 f i CmCollection.obj
 0001:00004040       ?create@?$PxHashBase@V?$PxPair@QEAVPxBase@physx@@_K@physx@@PEAVPxBase@2@U?$PxHash@PEAVPxBase@physx@@@2@UGetKey@?$PxHashMapBase@PEAVPxBase@physx@@_KU?$PxHash@PEAVPxBase@physx@@@2@VPxAllocator@2@@2@VPxAllocator@2@$00@physx@@QEAAPEAV?$PxPair@QEAVPxBase@physx@@_K@2@AEBQEAVPxBase@2@AEA_N@Z 0000000180005040 f i CmCollection.obj
 0001:000041d0       ?erase@?$PxHashBase@V?$PxPair@$$CB_KPEAVPxBase@physx@@@physx@@_KU?$PxHash@_K@2@UGetKey@?$PxHashMapBase@_KPEAVPxBase@physx@@U?$PxHash@_K@2@VPxAllocator@2@@2@VPxAllocator@2@$00@physx@@QEAA_NAEB_K@Z 00000001800051d0 f i CmCollection.obj
 0001:000041d0       ?erase@?$PxHashBase@V?$PxPair@QEAVPxBase@physx@@_K@physx@@PEAVPxBase@2@U?$PxHash@PEAVPxBase@physx@@@2@UGetKey@?$PxHashMapBase@PEAVPxBase@physx@@_KU?$PxHash@PEAVPxBase@physx@@@2@VPxAllocator@2@@2@VPxAllocator@2@$00@physx@@QEAA_NAEBQEAVPxBase@2@@Z 00000001800051d0 f i CmCollection.obj
 0001:00004380       ?find@?$PxHashMapBase@_KPEAVPxBase@physx@@U?$PxHash@_K@2@VPxAllocator@2@@physx@@QEBAPEBV?$PxPair@$$CB_KPEAVPxBase@physx@@@2@AEB_K@Z 0000000180005380 f i CmCollection.obj
 0001:00004420       ?find@Collection@Cm@physx@@UEBAPEAVPxBase@3@_K@Z 0000000180005420 f   CmCollection.obj
 0001:00004450       ?getId@Collection@Cm@physx@@UEBA_KAEBVPxBase@3@@Z 0000000180005450 f   CmCollection.obj
 0001:00004500       ?getIds@Collection@Cm@physx@@UEBAIPEA_KII@Z 0000000180005500 f   CmCollection.obj
 0001:000045d0       ?getNbIds@Collection@Cm@physx@@UEBAIXZ 00000001800055d0 f   CmCollection.obj
 0001:000045e0       ?getNbObjects@Collection@Cm@physx@@UEBAIXZ 00000001800055e0 f   CmCollection.obj
 0001:000045f0       ?getObject@Collection@Cm@physx@@UEBAAEAVPxBase@3@I@Z 00000001800055f0 f   CmCollection.obj
 0001:00004600       ?getObjects@Collection@Cm@physx@@UEBAIPEAPEAVPxBase@3@II@Z 0000000180005600 f   CmCollection.obj
 0001:00004640       ?release@Collection@Cm@physx@@UEAAXXZ 0000000180005640 f i CmCollection.obj
 0001:00004660       ?remove@Collection@Cm@physx@@UEAAXAEAVPxBase@3@@Z 0000000180005660 f   CmCollection.obj
 0001:00004750       ?remove@Collection@Cm@physx@@UEAAXAEAVPxCollection@3@@Z 0000000180005750 f   CmCollection.obj
 0001:00004860       ?removeId@Collection@Cm@physx@@UEAAX_K@Z 0000000180005860 f   CmCollection.obj
 0001:000048e0       ?reserveInternal@?$PxHashBase@V?$PxPair@$$CB_KPEAVPxBase@physx@@@physx@@_KU?$PxHash@_K@2@UGetKey@?$PxHashMapBase@_KPEAVPxBase@physx@@U?$PxHash@_K@2@VPxAllocator@2@@2@VPxAllocator@2@$00@physx@@AEAAXI@Z 00000001800058e0 f i CmCollection.obj
 0001:000048e0       ?reserveInternal@?$PxHashBase@V?$PxPair@QEAVPxBase@physx@@_K@physx@@PEAVPxBase@2@U?$PxHash@PEAVPxBase@physx@@@2@UGetKey@?$PxHashMapBase@PEAVPxBase@physx@@_KU?$PxHash@PEAVPxBase@physx@@@2@VPxAllocator@2@@2@VPxAllocator@2@$00@physx@@AEAAXI@Z 00000001800058e0 f i CmCollection.obj
 0001:00004ac0       PxCreateCollection         0000000180005ac0 f   CmCollection.obj
 0001:00004bb0       ??0RadixSort@Cm@physx@@QEAA@XZ 0000000180005bb0 f   CmRadixSort.obj
 0001:00004be0       ??0RadixSortBuffered@Cm@physx@@QEAA@XZ 0000000180005be0 f   CmRadixSort.obj
 0001:00004c10       ??1RadixSort@Cm@physx@@UEAA@XZ 0000000180005c10 f   CmRadixSort.obj
 0001:00004c20       ??1RadixSortBuffered@Cm@physx@@UEAA@XZ 0000000180005c20 f   CmRadixSort.obj
 0001:00004c50       ??_ERadixSort@Cm@physx@@UEAAPEAXI@Z 0000000180005c50 f i CmRadixSort.obj
 0001:00004ce0       ??_ERadixSortBuffered@Cm@physx@@UEAAPEAXI@Z 0000000180005ce0 f i CmRadixSort.obj
 0001:00004dd0       ?CheckResize@RadixSortBuffered@Cm@physx@@AEAAXI@Z 0000000180005dd0 f i CmRadixSort.obj
 0001:00004e10       ?GetNbHits@RadixSort@Cm@physx@@QEBAIXZ 0000000180005e10 f i CmRadixSort.obj
 0001:00004e20       ?GetNbTotalCalls@RadixSort@Cm@physx@@QEBAIXZ 0000000180005e20 f i CmRadixSort.obj
 0001:00004e30       ?GetRanks@RadixSort@Cm@physx@@QEBAPEBIXZ 0000000180005e30 f i CmRadixSort.obj
 0001:00004e30       ?getGridModelInvMass@SoftBodyAuxData@Gu@physx@@UEAAPEAMXZ 0000000180005e30 f i GuTetrahedronMesh.obj
 0001:00004e30       ?getHeightField@HeightFieldUtil@Gu@physx@@QEBAAEBVHeightField@23@XZ 0000000180005e30 f i GuCCTSweepTests.obj
 0001:00004e30       ?getSimulationMesh@SoftBodyMesh@Gu@physx@@UEAAPEAVPxTetrahedronMesh@3@XZ 0000000180005e30 f i GuTetrahedronMesh.obj
 0001:00004e30       ?getSimulationMesh@SoftBodyMesh@Gu@physx@@UEBAPEBVPxTetrahedronMesh@3@XZ 0000000180005e30 f i GuTetrahedronMesh.obj
 0001:00004e40       ?GetRecyclable@RadixSort@Cm@physx@@QEBAPEAIXZ 0000000180005e40 f i CmRadixSort.obj
 0001:00004e40       ?GetValencies@BigConvexData@physx@@QEBAPEBUValency@Gu@2@XZ 0000000180005e40 f i GuMetaData.obj
 0001:00004e40       ?getCollisionMesh@SoftBodyMesh@Gu@physx@@UEAAPEAVPxTetrahedronMesh@3@XZ 0000000180005e40 f i GuTetrahedronMesh.obj
 0001:00004e40       ?getCollisionMesh@SoftBodyMesh@Gu@physx@@UEBAPEBVPxTetrahedronMesh@3@XZ 0000000180005e40 f i GuTetrahedronMesh.obj
 0001:00004e40       ?getHeightFieldGeometry@HeightFieldUtil@Gu@physx@@QEBAAEBVPxHeightFieldGeometry@3@XZ 0000000180005e40 f i GuCCTSweepTests.obj
 0001:00004e40       ?getObjects@PruningPool@Gu@physx@@QEBAPEAUPrunerPayload@23@XZ 0000000180005e40 f i GuIncrementalAABBPrunerCore.obj
 0001:00004e40       ?getPos@AABBTreeBuildNode@Gu@physx@@QEBAPEBV123@XZ 0000000180005e40 f i GuMeshFactory.obj
 0001:00004e40       ?getVertices@TetrahedronMesh@Gu@physx@@UEBAPEBV?$PxVec3T@M@3@XZ 0000000180005e40 f i GuTetrahedronMesh.obj
 0001:00004e40       ?getVertices@TriangleMesh@Gu@physx@@UEBAPEBV?$PxVec3T@M@3@XZ 0000000180005e40 f i GuTriangleMesh.obj
 0001:00004e50       ?Resize@RadixSortBuffered@Cm@physx@@AEAA_NI@Z 0000000180005e50 f   CmRadixSort.obj
 0001:00004f50       ?SetBuffers@RadixSort@Cm@physx@@QEAA_NPEAI00PEAPEAI@Z 0000000180005f50 f   CmRadixSort.obj
 0001:00004f90       ?Sort@RadixSort@Cm@physx@@QEAAAEAV123@PEBIIW4RadixHint@23@@Z 0000000180005f90 f   CmRadixSort.obj
 0001:00005640       ?Sort@RadixSort@Cm@physx@@QEAAAEAV123@PEBMI@Z 0000000180006640 f   CmRadixSort.obj
 0001:00005de0       ?Sort@RadixSortBuffered@Cm@physx@@QEAAAEAV123@PEBIIW4RadixHint@23@@Z 0000000180006de0 f   CmRadixSort.obj
 0001:00005e80       ?Sort@RadixSortBuffered@Cm@physx@@QEAAAEAV123@PEBMI@Z 0000000180006e80 f   CmRadixSort.obj
 0001:00005f10       ?invalidateRanks@RadixSort@Cm@physx@@QEAAXXZ 0000000180006f10 f i CmRadixSort.obj
 0001:00005f20       ?reset@RadixSortBuffered@Cm@physx@@QEAAXXZ 0000000180006f20 f   CmRadixSort.obj
 0001:00005fa0       ?ReadHeader@Cm@physx@@YA_NEEEEAEAIAEA_NAEAVPxInputStream@2@@Z 0000000180006fa0 f   CmSerialize.obj
 0001:00006100       ?ReadIndices@Cm@physx@@YAXGIPEAGAEAVPxInputStream@2@_N@Z 0000000180007100 f   CmSerialize.obj
 0001:00006290       ?StoreIndices@Cm@physx@@YAXGIPEBGAEAVPxOutputStream@2@_N@Z 0000000180007290 f   CmSerialize.obj
 0001:00006380       ?WriteHeader@Cm@physx@@YA_NEEEEI_NAEAVPxOutputStream@2@@Z 0000000180007380 f   CmSerialize.obj
 0001:000064b0       ?computeMaxIndex@physx@@YAGPEBGI@Z 00000001800074b0 f   CmSerialize.obj
 0001:000064e0       ?computeMaxIndex@physx@@YAIPEBII@Z 00000001800074e0 f   CmSerialize.obj
 0001:00006510       ?readByteBuffer@physx@@YAXPEAEIAEAVPxInputStream@1@@Z 0000000180007510 f   CmSerialize.obj
 0001:00006510       ?writeByteBuffer@physx@@YAXPEBEIAEAVPxOutputStream@1@@Z 0000000180007510 f   CmSerialize.obj
 0001:00006530       ?readChunk@physx@@YAXAEAC000AEAVPxInputStream@1@@Z 0000000180007530 f   CmSerialize.obj
 0001:000065b0       ?readDword@physx@@YAI_NAEAVPxInputStream@1@@Z 00000001800075b0 f   CmSerialize.obj
 0001:00006610       ?readFloat@physx@@YAM_NAEAVPxInputStream@1@@Z 0000000180007610 f   CmSerialize.obj
 0001:00006670       ?readFloatBuffer@physx@@YA_NPEAMI_NAEAVPxInputStream@1@@Z 0000000180007670 f   CmSerialize.obj
 0001:000066f0       ?readHeader@physx@@YA_NCCCCAEAIAEA_NAEAVPxInputStream@1@@Z 00000001800076f0 f   CmSerialize.obj
 0001:00006840       ?readIndices@physx@@YAXIIPEAIAEAVPxInputStream@1@_N@Z 0000000180007840 f   CmSerialize.obj
 0001:00006970       ?readWord@physx@@YAG_NAEAVPxInputStream@1@@Z 0000000180007970 f   CmSerialize.obj
 0001:000069b0       ?readWordBuffer@physx@@YAXPEAGI_NAEAVPxInputStream@1@@Z 00000001800079b0 f   CmSerialize.obj
 0001:00006a20       ?storeIndices@physx@@YAXIIPEBIAEAVPxOutputStream@1@_N@Z 0000000180007a20 f   CmSerialize.obj
 0001:00006bb0       ?writeDword@physx@@YAXI_NAEAVPxOutputStream@1@@Z 0000000180007bb0 f   CmSerialize.obj
 0001:00006c00       ?writeFloat@physx@@YAXM_NAEAVPxOutputStream@1@@Z 0000000180007c00 f   CmSerialize.obj
 0001:00006c50       ?writeFloatBuffer@physx@@YAXPEBMI_NAEAVPxOutputStream@1@@Z 0000000180007c50 f   CmSerialize.obj
 0001:00006cf0       ?writeHeader@physx@@YA_NCCCCI_NAEAVPxOutputStream@1@@Z 0000000180007cf0 f   CmSerialize.obj
 0001:00006e20       ?writeWord@physx@@YAXG_NAEAVPxOutputStream@1@@Z 0000000180007e20 f   CmSerialize.obj
 0001:00006e60       ?writeWordBuffer@physx@@YAXPEBGI_NAEAVPxOutputStream@1@@Z 0000000180007e60 f   CmSerialize.obj
 0001:00006ee0       ??6PxRenderOutput@physx@@QEAAAEAV01@AEBV?$PxTransformT@M@1@@Z 0000000180007ee0 f i CmVisualization.obj
 0001:00007060       ??6PxRenderOutput@physx@@QEAAAEAV01@AEBV?$PxVec3T@M@1@@Z 0000000180008060 f i CmVisualization.obj
 0001:00007350       ?renderOutputDebugArrow@Cm@physx@@YAXAEAVPxRenderOutput@2@AEBUPxDebugArrow@2@@Z 0000000180008350 f   CmVisualization.obj
 0001:000076f0       ?renderOutputDebugBasis@Cm@physx@@YAXAEAVPxRenderOutput@2@AEBUPxDebugBasis@2@@Z 00000001800086f0 f   CmVisualization.obj
 0001:00007c80       ?renderOutputDebugBox@Cm@physx@@YAXAEAVPxRenderOutput@2@AEBVPxBounds3@2@@Z 0000000180008c80 f   CmVisualization.obj
 0001:00007ef0       ?renderOutputDebugCircle@Cm@physx@@YAXAEAVPxRenderOutput@2@IM@Z 0000000180008ef0 f   CmVisualization.obj
 0001:00007fd0       ?visualizeAngularLimit@Cm@physx@@YAXAEAVPxRenderOutput@2@MAEBV?$PxTransformT@M@2@MM@Z 0000000180008fd0 f   CmVisualization.obj
 0001:00008160       ?visualizeDoubleCone@Cm@physx@@YAXAEAVPxRenderOutput@2@MAEBV?$PxTransformT@M@2@M@Z 0000000180009160 f   CmVisualization.obj
 0001:00008380       ?visualizeJointFrames@Cm@physx@@YAXAEAVPxRenderOutput@2@MAEBV?$PxTransformT@M@2@1@Z 0000000180009380 f   CmVisualization.obj
 0001:00008e80       ?visualizeLimitCone@Cm@physx@@YAXAEAVPxRenderOutput@2@MAEBV?$PxTransformT@M@2@MM@Z 0000000180009e80 f   CmVisualization.obj
 0001:000090b0       ?visualizeLinearLimit@Cm@physx@@YAXAEAVPxRenderOutput@2@MAEBV?$PxTransformT@M@2@1M@Z 000000018000a0b0 f   CmVisualization.obj
 0001:000096a0       ??0CmModuleUpdateLoader@Cm@physx@@QEAA@PEBD@Z 000000018000a6a0 f   CmWindowsModuleUpdateLoader.obj
 0001:000096e0       ??1CmModuleUpdateLoader@Cm@physx@@QEAA@XZ 000000018000a6e0 f   CmWindowsModuleUpdateLoader.obj
 0001:00009710       ?LoadModule@CmModuleUpdateLoader@Cm@physx@@QEAAPEAUHINSTANCE__@@PEBD0@Z 000000018000a710 f   CmWindowsModuleUpdateLoader.obj
 0001:00009780       __local_stdio_printf_options 000000018000a780 f i CmWindowsModuleUpdateLoader.obj
 0001:00009790       printf                     000000018000a790 f i CmWindowsModuleUpdateLoader.obj
 0001:000097f0       ?commonDelayHook@@YAP6A_JXZIPEAUDelayLoadInfo@@@Z 000000018000a7f0 f   CmWindowsDelayLoadHook.obj
 0001:000098d0       PxSetPhysXCommonDelayLoadHook 000000018000a8d0 f   CmWindowsDelayLoadHook.obj
 0001:000098e0       ??0?$PxQuatT@M@physx@@QEAA@AEBV?$PxMat33T@M@1@@Z 000000018000a8e0 f i GuBox.obj
 0001:00009ae0       ??0Box@Gu@physx@@QEAA@AEBV012@@Z 000000018000aae0 f i GuBox.obj
 0001:00009ae0       ??4Box@Gu@physx@@QEAAAEBV012@AEBV012@@Z 000000018000aae0 f i GuBox.obj
 0001:00009b40       ??0Box@Gu@physx@@QEAA@AEBV?$PxVec3T@M@2@0AEBV?$PxMat33T@M@2@@Z 000000018000ab40 f i GuBox.obj
 0001:00009bb0       ??0AABBTreeBuildNode@Gu@physx@@QEAA@XZ 000000018000abb0 f i GuMeshFactory.obj
 0001:00009bb0       ??0BigConvexData@physx@@QEAA@W4PxEMPTY@1@@Z 000000018000abb0 f i GuMetaData.obj
 0001:00009bb0       ??0Box@Gu@physx@@QEAA@XZ   000000018000abb0 f i GuBox.obj
 0001:00009bb0       ??0HeightFieldData@Gu@physx@@QEAA@W4PxEMPTY@2@@Z 000000018000abb0 f i GuCCTSweepTests.obj
 0001:00009bb0       ?getAABB@AABBTreeBuildNode@Gu@physx@@QEBAAEBVPxBounds3@3@XZ 000000018000abb0 f i GuMeshFactory.obj
 0001:00009bb0       ?getPaddedBounds@HeightFieldData@Gu@physx@@QEBAAEBVCenterExtentsPadded@23@XZ 000000018000abb0 f i GuCCTSweepTests.obj
 0001:00009bc0       ?computeAABBExtent@Box@Gu@physx@@QEBA?AV?$PxVec3T@M@3@XZ 000000018000abc0 f i GuBox.obj
 0001:00009c80       ?computeBoxPoints@Box@Gu@physx@@QEBAXPEIAV?$PxVec3T@M@3@@Z 000000018000ac80 f i GuBox.obj
 0001:00009cc0       ?computeOBBPoints@Gu@physx@@YAXPEIAV?$PxVec3T@M@2@AEBV32@1111@Z 000000018000acc0 f   GuBox.obj
 0001:00009f40       ?create@Box@Gu@physx@@QEAAXAEBVCapsule@23@@Z 000000018000af40 f   GuBox.obj
 0001:0000a170       ?getBoxEdges@Gu@physx@@YAPEBEXZ 000000018000b170 f   GuBox.obj
 0001:0000a180       ?getTransform@Box@Gu@physx@@QEBA?AV?$PxTransformT@M@3@XZ 000000018000b180 f i GuBox.obj
 0001:0000a1e0       ?isValid@Box@Gu@physx@@QEBA_NXZ 000000018000b1e0 f i GuBox.obj
 0001:0000a200       ?rotate@Box@Gu@physx@@QEBA?AV?$PxVec3T@M@3@AEBV43@@Z 000000018000b200 f i GuBox.obj
 0001:0000a290       ?rotateInv@Box@Gu@physx@@QEBA?AV?$PxVec3T@M@3@AEBV43@@Z 000000018000b290 f i GuBox.obj
 0001:0000a320       ?setAxes@Box@Gu@physx@@QEAAXAEBV?$PxVec3T@M@3@00@Z 000000018000b320 f i GuBox.obj
 0001:0000a360       ?setEmpty@Box@Gu@physx@@QEAAXXZ 000000018000b360 f i GuBox.obj
 0001:0000a3a0       ?transform@Box@Gu@physx@@QEBA?AV?$PxVec3T@M@3@AEBV43@@Z 000000018000b3a0 f i GuBox.obj
 0001:0000a440       ?PxComputeBasisVectors@physx@@YAXAEBV?$PxVec3T@M@1@0AEAV21@11@Z 000000018000b440 f i GuCapsule.obj
 0001:0000a5e0       ?computeBoxAroundCapsule@Gu@physx@@YAXAEBVCapsule@12@AEAVBox@12@@Z 000000018000b5e0 f   GuCapsule.obj
 0001:0000a730       ??0HeightFieldData@Gu@physx@@QEAA@$$QEAU012@@Z 000000018000b730 f i GuCCTSweepTests.obj
 0001:0000a730       ??0HeightFieldData@Gu@physx@@QEAA@AEBU012@@Z 000000018000b730 f i GuCCTSweepTests.obj
 0001:0000a730       ??4HeightFieldData@Gu@physx@@QEAAAEAU012@$$QEAU012@@Z 000000018000b730 f i GuCCTSweepTests.obj
 0001:0000a730       ??4HeightFieldData@Gu@physx@@QEAAAEAU012@AEBU012@@Z 000000018000b730 f i GuCCTSweepTests.obj
 0001:0000a790       ??0HeightFieldData@Gu@physx@@QEAA@XZ 000000018000b790 f i GuCCTSweepTests.obj
 0001:0000a7a0       ??0HeightFieldTraceUtil@Gu@physx@@QEAA@AEBVPxHeightFieldGeometry@2@@Z 000000018000b7a0 f i GuCCTSweepTests.obj
 0001:0000a7a0       ??0HeightFieldUtil@Gu@physx@@QEAA@AEBVPxHeightFieldGeometry@2@@Z 000000018000b7a0 f i GuCCTSweepTests.obj
 0001:0000a7e0       ??4AABBTreeBuildParams@Gu@physx@@QEAAAEAV012@AEBV012@@Z 000000018000b7e0 f i GuMeshFactory.obj
 0001:0000a7e0       ??4HeightFieldTraceUtil@Gu@physx@@QEAAAEAV012@$$QEAV012@@Z 000000018000b7e0 f i GuCCTSweepTests.obj
 0001:0000a7e0       ??4HeightFieldTraceUtil@Gu@physx@@QEAAAEAV012@AEBV012@@Z 000000018000b7e0 f i GuCCTSweepTests.obj
 0001:0000a7e0       ??4HeightFieldUtil@Gu@physx@@QEAAAEAV012@AEBV012@@Z 000000018000b7e0 f i GuCCTSweepTests.obj
 0001:0000a800       ??4HeightFieldUtil@Gu@physx@@QEAAAEAV012@$$QEAV012@@Z 000000018000b800 f i GuCCTSweepTests.obj
 0001:0000a860       ??_EEntityReport@Gu@physx@@UEAAPEAXI@Z 000000018000b860 f i GuSweepsHF.obj
 0001:0000a860       ??_EOverlapCallback@PxBVH@physx@@UEAAPEAXI@Z 000000018000b860 f i GuQuerySystem.obj
 0001:0000a860       ??_EOverlapReport@Gu@physx@@UEAAPEAXI@Z 000000018000b860 f i GuCCTSweepTests.obj
 0001:0000a860       ??_ERaycastCallback@PxBVH@physx@@UEAAPEAXI@Z 000000018000b860 f i GuQuerySystem.obj
 0001:0000a860       ??_ERemapCallback@RTreeCooker@physx@@UEAAPEAXI@Z 000000018000b860 f i GuCookingTriangleMesh.obj
 0001:0000a860       ??_GEntityReport@Gu@physx@@UEAAPEAXI@Z 000000018000b860 f i GuSweepsHF.obj
 0001:0000a860       ??_GOverlapCallback@PxBVH@physx@@UEAAPEAXI@Z 000000018000b860 f i GuQuerySystem.obj
 0001:0000a860       ??_GOverlapReport@Gu@physx@@UEAAPEAXI@Z 000000018000b860 f i GuCCTSweepTests.obj
 0001:0000a860       ??_GRaycastCallback@PxBVH@physx@@UEAAPEAXI@Z 000000018000b860 f i GuQuerySystem.obj
 0001:0000a860       ??_GRemapCallback@RTreeCooker@physx@@UEAAPEAXI@Z 000000018000b860 f i GuCookingTriangleMesh.obj
 0001:0000a890       ??_H@YAXPEAX_K1P6APEAX0@Z@Z 000000018000b890 f i GuCCTSweepTests.obj
 0001:0000a8e0       ?ceilUp@HeightFieldTraceUtil@Gu@physx@@SAMM@Z 000000018000b8e0 f i GuCCTSweepTests.obj
 0001:0000a920       ?floorDown@HeightFieldTraceUtil@Gu@physx@@SAMM@Z 000000018000b920 f i GuCCTSweepTests.obj
 0001:0000a960       ?getHeightAtShapePoint@HeightFieldUtil@Gu@physx@@QEBAMMM@Z 000000018000b960 f i GuCCTSweepTests.obj
 0001:0000a9c0       ?getHeightInternal2@HeightField@Gu@physx@@QEBAMIMM@Z 000000018000b9c0 f i GuCCTSweepTests.obj
 0001:0000ab30       ?getNormalAtShapePoint@HeightFieldUtil@Gu@physx@@QEBA?AV?$PxVec3T@M@3@MM@Z 000000018000bb30 f i GuCCTSweepTests.obj
 0001:0000abf0       ?getNormal_2@HeightField@Gu@physx@@QEBA?AV?$PxVec3T@M@3@IMMMMM@Z 000000018000bbf0 f i GuCCTSweepTests.obj
 0001:0000ad10       ?getOneOverColumnScale@HeightFieldUtil@Gu@physx@@QEBAMXZ 000000018000bd10 f i GuCCTSweepTests.obj
 0001:0000ad20       ?getOneOverHeightScale@HeightFieldUtil@Gu@physx@@QEBAMXZ 000000018000bd20 f i GuCCTSweepTests.obj
 0001:0000ad30       ?getOneOverRowScale@HeightFieldUtil@Gu@physx@@QEBAMXZ 000000018000bd30 f i GuCCTSweepTests.obj
 0001:0000ad40       ?hf2shapen@HeightFieldUtil@Gu@physx@@QEBA?AV?$PxVec3T@M@3@AEBV43@@Z 000000018000bd40 f i GuCCTSweepTests.obj
 0001:0000ad40       ?shape2hfp@HeightFieldUtil@Gu@physx@@QEBA?AV?$PxVec3T@M@3@AEBV43@@Z 000000018000bd40 f i GuCCTSweepTests.obj
 0001:0000ad80       ?hf2shapep@HeightFieldUtil@Gu@physx@@QEBA?AV?$PxVec3T@M@3@AEBV43@@Z 000000018000bd80 f i GuCCTSweepTests.obj
 0001:0000adc0       ?hf2worldn@HeightFieldUtil@Gu@physx@@QEBA?AV?$PxVec3T@M@3@AEBV?$PxTransformT@M@3@AEBV43@@Z 000000018000bdc0 f i GuCCTSweepTests.obj
 0001:0000af30       ?hf2worldp@HeightFieldUtil@Gu@physx@@QEBA?AV?$PxVec3T@M@3@AEBV?$PxTransformT@M@3@AEBV43@@Z 000000018000bf30 f i GuCCTSweepTests.obj
 0001:0000b0b0       ?overlapAABBTriangles0to1@HeightFieldUtil@Gu@physx@@QEBAXAEBV?$PxTransformT@M@3@AEBVPxBounds3@3@AEAVOverlapReport@23@I@Z 000000018000c0b0 f i GuCCTSweepTests.obj
 0001:0000b450       ?overlapAABBTriangles@HeightFieldUtil@Gu@physx@@QEBAXAEBV?$PxTransformT@M@3@0AEBVPxBounds3@3@AEAVOverlapReport@23@I@Z 000000018000c450 f i GuCCTSweepTests.obj
 0001:0000ba70       ?overlapAABBTriangles@HeightFieldUtil@Gu@physx@@QEBAXAEBV?$PxTransformT@M@3@AEBVPxBounds3@3@AEAVOverlapReport@23@I@Z 000000018000ca70 f i GuCCTSweepTests.obj
 0001:0000c150       ?sweepBoxTriangles_Precise@Gu@physx@@YA_NIPEBVPxTriangle@2@_NAEBVPxBoxGeometry@2@AEBV?$PxTransformT@M@2@AEBV?$PxVec3T@M@2@MAEAUPxGeomSweepHit@2@PEBIMV?$PxFlags@W4Enum@PxHitFlag@physx@@G@2@@Z 000000018000d150 f   GuCCTSweepTests.obj
 0001:0000ced0       ?sweepBox_BoxGeom_Precise@@YA_NAEBVPxGeometry@physx@@AEBV?$PxTransformT@M@2@AEBVPxBoxGeometry@2@1AEBVBox@Gu@2@AEBV?$PxVec3T@M@2@MAEAUPxGeomSweepHit@2@V?$PxFlags@W4Enum@PxHitFlag@physx@@G@2@MPEAUPxQueryThreadContext@2@@Z 000000018000ded0 f   GuCCTSweepTests.obj
 0001:0000d090       ?sweepBox_CapsuleGeom_Precise@@YA_NAEBVPxGeometry@physx@@AEBV?$PxTransformT@M@2@AEBVPxBoxGeometry@2@1AEBVBox@Gu@2@AEBV?$PxVec3T@M@2@MAEAUPxGeomSweepHit@2@V?$PxFlags@W4Enum@PxHitFlag@physx@@G@2@MPEAUPxQueryThreadContext@2@@Z 000000018000e090 f   GuCCTSweepTests.obj
 0001:0000d460       ?sweepBox_HeightFieldGeom_Precise@@YA_NAEBVPxGeometry@physx@@AEBV?$PxTransformT@M@2@AEBVPxBoxGeometry@2@1AEBVBox@Gu@2@AEBV?$PxVec3T@M@2@MAEAUPxGeomSweepHit@2@V?$PxFlags@W4Enum@PxHitFlag@physx@@G@2@MPEAUPxQueryThreadContext@2@@Z 000000018000e460 f   GuCCTSweepTests.obj
 0001:0000dc80       ?sweepBox_SphereGeom_Precise@@YA_NAEBVPxGeometry@physx@@AEBV?$PxTransformT@M@2@AEBVPxBoxGeometry@2@1AEBVBox@Gu@2@AEBV?$PxVec3T@M@2@MAEAUPxGeomSweepHit@2@V?$PxFlags@W4Enum@PxHitFlag@physx@@G@2@MPEAUPxQueryThreadContext@2@@Z 000000018000ec80 f   GuCCTSweepTests.obj
 0001:0000df60       ?sweepCapsule_BoxGeom_Precise@@YA_NAEBVPxGeometry@physx@@AEBV?$PxTransformT@M@2@AEBVPxCapsuleGeometry@2@1AEBVCapsule@Gu@2@AEBV?$PxVec3T@M@2@MAEAUPxGeomSweepHit@2@V?$PxFlags@W4Enum@PxHitFlag@physx@@G@2@MPEAUPxQueryThreadContext@2@@Z 000000018000ef60 f   GuCCTSweepTests.obj
 0001:0000e5f0       ??0?$CacheMap@UCachedEdge@Gu@physx@@$0IA@@Gu@physx@@QEAA@XZ 000000018000f5f0 f i GuGeometryQuery.obj
 0001:0000e6b0       ??0?$CacheMap@UCachedVertex@Gu@physx@@$0IA@@Gu@physx@@QEAA@XZ 000000018000f6b0 f i GuGeometryQuery.obj
 0001:0000e770       ??0MultiplePersistentContactManifold@Gu@physx@@QEAA@XZ 000000018000f770 f i GuGeometryQuery.obj
 0001:0000e7d0       ??0PCMMeshContactGeneration@Gu@physx@@QEAA@AEBT__m128@@0AEBVPxTransformV@aos@2@1AEAVMultiplePersistentContactManifold@12@AEAVPxContactBuffer@2@PEAV?$PxInlineArray@I$0DMA@V?$PxReflectionAllocator@I@physx@@@2@PEAVPxRenderOutput@2@@Z 000000018000f7d0 f i GuGeometryQuery.obj
 0001:0000f100       ??0PolygonalBox@Gu@physx@@QEAA@AEBV012@@Z 0000000180010100 f i GuGeometryQuery.obj
 0001:0000f380       ??4MultiplePersistentContactManifold@Gu@physx@@QEAAAEAV012@$$QEAV012@@Z 0000000180010380 f i GuGeometryQuery.obj
 0001:0000f690       ??4MultiplePersistentContactManifold@Gu@physx@@QEAAAEAV012@AEBV012@@Z 0000000180010690 f i GuGeometryQuery.obj
 0001:0000f6b0       ??_E?$SupportLocalImpl@VBoxV@Gu@physx@@@Gu@physx@@UEAAPEAXI@Z 00000001800106b0 f i GuGeometryQuery.obj
 0001:0000f6b0       ??_E?$SupportLocalImpl@VConvexHullNoScaleV@Gu@physx@@@Gu@physx@@UEAAPEAXI@Z 00000001800106b0 f i GuMTD.obj
 0001:0000f6b0       ??_E?$SupportLocalImpl@VConvexHullV@Gu@physx@@@Gu@physx@@UEAAPEAXI@Z 00000001800106b0 f i GuGeometryQuery.obj
 0001:0000f6b0       ??_E?$SupportLocalImpl@VTriangleV@Gu@physx@@@Gu@physx@@UEAAPEAXI@Z 00000001800106b0 f i GuPCMContactConvexCommon.obj
 0001:0000f6b0       ??_G?$SupportLocalImpl@VBoxV@Gu@physx@@@Gu@physx@@UEAAPEAXI@Z 00000001800106b0 f i GuGeometryQuery.obj
 0001:0000f6b0       ??_G?$SupportLocalImpl@VConvexHullNoScaleV@Gu@physx@@@Gu@physx@@UEAAPEAXI@Z 00000001800106b0 f i GuMTD.obj
 0001:0000f6b0       ??_G?$SupportLocalImpl@VConvexHullV@Gu@physx@@@Gu@physx@@UEAAPEAXI@Z 00000001800106b0 f i GuGeometryQuery.obj
 0001:0000f6b0       ??_G?$SupportLocalImpl@VTriangleV@Gu@physx@@@Gu@physx@@UEAAPEAXI@Z 00000001800106b0 f i GuPCMContactConvexCommon.obj
 0001:0000f6e0       ??_ESupportLocal@Gu@physx@@UEAAPEAXI@Z 00000001800106e0 f i GuGeometryQuery.obj
 0001:0000f6e0       ??_GSupportLocal@Gu@physx@@UEAAPEAXI@Z 00000001800106e0 f i GuGeometryQuery.obj
 0001:0000f710       ?clearManifold@MultiplePersistentContactManifold@Gu@physx@@QEAAXXZ 0000000180010710 f i GuGeometryQuery.obj
 0001:0000f770       ?computeGeomBounds@PxGeometryQuery@physx@@SAXAEAVPxBounds3@2@AEBVPxGeometry@2@AEBV?$PxTransformT@M@2@MMV?$PxFlags@W4Enum@PxGeometryQueryFlag@physx@@I@2@@Z 0000000180010770 f   GuGeometryQuery.obj
 0001:0000f7f0       ?computePenetration@PxGeometryQuery@physx@@SA_NAEAV?$PxVec3T@M@2@AEAMAEBVPxGeometry@2@AEBV?$PxTransformT@M@2@23V?$PxFlags@W4Enum@PxGeometryQueryFlag@physx@@I@2@@Z 00000001800107f0 f   GuGeometryQuery.obj
 0001:0000f970       ?doSupport@?$SupportLocalImpl@VBoxV@Gu@physx@@@Gu@physx@@UEBA?AT__m128@@AEBT4@@Z 0000000180010970 f i GuGeometryQuery.obj
 0001:0000f9a0       ?doSupport@?$SupportLocalImpl@VBoxV@Gu@physx@@@Gu@physx@@UEBAXAEBT__m128@@AEAT4@1@Z 00000001800109a0 f i GuGeometryQuery.obj
 0001:0000f9f0       ?doSupport@?$SupportLocalImpl@VConvexHullV@Gu@physx@@@Gu@physx@@UEBA?AT__m128@@AEBT4@@Z 00000001800109f0 f i GuGeometryQuery.obj
 0001:0000fad0       ?doSupport@?$SupportLocalImpl@VConvexHullV@Gu@physx@@@Gu@physx@@UEBAXAEBT__m128@@AEAT4@1@Z 0000000180010ad0 f i GuGeometryQuery.obj
 0001:0000fe30       ?generateTriangleContacts@PxGeometryQuery@physx@@SA_NAEBVPxGeometry@2@AEBV?$PxTransformT@M@2@QEBV?$PxVec3T@M@2@IMMMAEAVPxContactBuffer@2@@Z 0000000180010e30 f   GuGeometryQuery.obj
 0001:000117d0       ?getEmptyManifold@MultiplePersistentContactManifold@Gu@physx@@QEAAPEAVSinglePersistentContactManifold@23@XZ 00000001800127d0 f i GuGeometryQuery.obj
 0001:000117f0       ?getManifold@MultiplePersistentContactManifold@Gu@physx@@QEAAPEAVSinglePersistentContactManifold@23@I@Z 00000001800127f0 f i GuGeometryQuery.obj
 0001:00011810       ?getUniqueID@PxCustomGeometry@physx@@SAIXZ 0000000180012810 f   GuGeometryQuery.obj
 0001:00011830       ?hillClimbing@ConvexHullV@Gu@physx@@QEBAIAEBT__m128@@@Z 0000000180012830 f i GuGeometryQuery.obj
 0001:00011a60       ?initialize@MultiplePersistentContactManifold@Gu@physx@@QEAAXXZ 0000000180012a60 f i GuGeometryQuery.obj
 0001:00011ac0       ?invalidate@MultiplePersistentContactManifold@Gu@physx@@QEAAIAEBVPxTransformV@aos@3@AEBT__m128@@1@Z 0000000180012ac0 f i GuGeometryQuery.obj
 0001:00011b30       ?invalidate@MultiplePersistentContactManifold@Gu@physx@@QEAAIAEBVPxTransformV@aos@3@AEBT__m128@@@Z 0000000180012b30 f i GuGeometryQuery.obj
 0001:00011ba0       ?isUnit@?$PxQuatT@M@physx@@QEBA_NXZ 0000000180012ba0 f i GuGeometryQuery.obj
 0001:00011c60       ?isValid@PxGeometryQuery@physx@@SA_NAEBVPxGeometry@2@@Z 0000000180012c60 f   GuGeometryQuery.obj
 0001:00011f50       ?maxTransformPositionDelta@MultiplePersistentContactManifold@Gu@physx@@QEAA?AT__m128@@AEBT4@@Z 0000000180012f50 f i GuGeometryQuery.obj
 0001:00011f90       ?maxTransformQuatDelta@MultiplePersistentContactManifold@Gu@physx@@QEAA?AT__m128@@AEBT4@@Z 0000000180012f90 f i GuGeometryQuery.obj
 0001:00011fd0       ?overlap@PxGeometryQuery@physx@@SA_NAEBVPxGeometry@2@AEBV?$PxTransformT@M@2@01V?$PxFlags@W4Enum@PxGeometryQueryFlag@physx@@I@2@PEAUPxQueryThreadContext@2@@Z 0000000180012fd0 f   GuGeometryQuery.obj
 0001:000120a0       ?pointDistance@PxGeometryQuery@physx@@SAMAEBV?$PxVec3T@M@2@AEBVPxGeometry@2@AEBV?$PxTransformT@M@2@PEAV32@PEAIV?$PxFlags@W4Enum@PxGeometryQueryFlag@physx@@I@2@@Z 00000001800130a0 f   GuGeometryQuery.obj
 0001:00012830       ?populateVerts@?$SupportLocalImpl@VBoxV@Gu@physx@@@Gu@physx@@UEBAXPEBEIPEBV?$PxVec3T@M@3@PEAT__m128@@@Z 0000000180013830 f i GuGeometryQuery.obj
 0001:00012870       ?populateVerts@?$SupportLocalImpl@VConvexHullV@Gu@physx@@@Gu@physx@@UEBAXPEBEIPEBV?$PxVec3T@M@3@PEAT__m128@@@Z 0000000180013870 f i GuGeometryQuery.obj
 0001:000128d0       ?raycast@PxGeometryQuery@physx@@SAIAEBV?$PxVec3T@M@2@0AEBVPxGeometry@2@AEBV?$PxTransformT@M@2@MV?$PxFlags@W4Enum@PxHitFlag@physx@@G@2@IPEIAUPxGeomRaycastHit@2@IV?$PxFlags@W4Enum@PxGeometryQueryFlag@physx@@I@2@PEAUPxQueryThreadContext@2@@Z 00000001800138d0 f   GuGeometryQuery.obj
 0001:000129d0       ?reduceManifoldContactsInDifferentPatches@MultiplePersistentContactManifold@Gu@physx@@QEAAIPEAPEAUPCMContactPatch@23@IPEAVMeshPersistentContact@23@IAEBT__m128@@@Z 00000001800139d0 f i GuGeometryQuery.obj
 0001:00012b40       ?refineContactPatchConnective@MultiplePersistentContactManifold@Gu@physx@@QEAAXPEAPEAUPCMContactPatch@23@IPEAVMeshPersistentContact@23@AEBT__m128@@@Z 0000000180013b40 f i GuGeometryQuery.obj
 0001:00012c30       ?refreshManifold@MultiplePersistentContactManifold@Gu@physx@@QEAAXAEBVPxMatTransformV@aos@3@AEBT__m128@@1@Z 0000000180013c30 f i GuGeometryQuery.obj
 0001:00012d30       ?setRelativeTransform@MultiplePersistentContactManifold@Gu@physx@@QEAAXAEBVPxTransformV@aos@3@@Z 0000000180013d30 f i GuGeometryQuery.obj
 0001:00012d40       ?supportVertexIndex@ConvexHullV@Gu@physx@@QEBAIAEBT__m128@@@Z 0000000180013d40 f i GuGeometryQuery.obj
 0001:00012fc0       ?sweep@PxGeometryQuery@physx@@SA_NAEBV?$PxVec3T@M@2@MAEBVPxGeometry@2@AEBV?$PxTransformT@M@2@12AEAUPxGeomSweepHit@2@V?$PxFlags@W4Enum@PxHitFlag@physx@@G@2@MV?$PxFlags@W4Enum@PxGeometryQueryFlag@physx@@I@2@PEAUPxQueryThreadContext@2@@Z 0000000180013fc0 f   GuGeometryQuery.obj
 0001:00013450       ?toBuffer@MultiplePersistentContactManifold@Gu@physx@@QEAAXPEIAE@Z 0000000180014450 f i GuGeometryQuery.obj
 0001:00013530       ?computeBoxPoints@Gu@physx@@YAXAEBVPxBounds3@2@PEIAV?$PxVec3T@M@2@@Z 0000000180014530 f   GuInternal.obj
 0001:000135d0       ?computeSweptBox@Gu@physx@@YAXAEAVBox@12@AEBV?$PxVec3T@M@2@1AEBV?$PxMat33T@M@2@1M@Z 00000001800145d0 f   GuInternal.obj
 0001:00013b10       ?getPlane@Gu@physx@@YA?AVPxPlane@2@AEBV?$PxTransformT@M@2@@Z 0000000180014b10 f   GuInternal.obj
 0001:00013f60       ??_ECallbackRaycast@RTree@Gu@physx@@UEAAPEAXI@Z 0000000180014f60 f i GuMidphaseRTree.obj
 0001:00013f60       ??_ECallbackRefit@RTree@Gu@physx@@UEAAPEAXI@Z 0000000180014f60 f i GuTriangleMeshRTree.obj
 0001:00013f60       ??_EPxInsertionCallback@physx@@MEAAPEAXI@Z 0000000180014f60 f i GuMeshFactory.obj
 0001:00013f60       ??_GCallbackRaycast@RTree@Gu@physx@@UEAAPEAXI@Z 0000000180014f60 f i GuMidphaseRTree.obj
 0001:00013f60       ??_GCallbackRefit@RTree@Gu@physx@@UEAAPEAXI@Z 0000000180014f60 f i GuTriangleMeshRTree.obj
 0001:00013f60       ??_GPxInsertionCallback@physx@@MEAAPEAXI@Z 0000000180014f60 f i GuMeshFactory.obj
 0001:00013f90       ??$copy@V?$PxReflectionAllocator@USlab@NodeAllocator@Gu@physx@@@physx@@@?$PxArray@USlab@NodeAllocator@Gu@physx@@V?$PxReflectionAllocator@USlab@NodeAllocator@Gu@physx@@@4@@physx@@IEAAXAEBV01@@Z 0000000180014f90 f i GuMeshFactory.obj
 0001:00014050       ??0AABBTreeBounds@Gu@physx@@QEAA@XZ 0000000180015050 f i GuMeshFactory.obj
 0001:00014060       ??0AABBTreeBuildNode@Gu@physx@@QEAA@AEBV012@@Z 0000000180015060 f i GuMeshFactory.obj
 0001:00014060       ??4AABBTreeBuildNode@Gu@physx@@QEAAAEAV012@AEBV012@@Z 0000000180015060 f i GuMeshFactory.obj
 0001:000140a0       ??0AABBTreeBuildParams@Gu@physx@@QEAA@IIPEBVAABBTreeBounds@12@W4BVHBuildStrategy@12@@Z 00000001800150a0 f i GuMeshFactory.obj
 0001:000140c0       ??0MeshFactory@Gu@physx@@QEAA@XZ 00000001800150c0 f   GuMeshFactory.obj
 0001:000142c0       ??0NodeAllocator@Gu@physx@@QEAA@AEBV012@@Z 00000001800152c0 f i GuMeshFactory.obj
 0001:00014300       ??0TriangleMeshData@Gu@physx@@QEAA@XZ 0000000180015300 f i GuMeshFactory.obj
 0001:00014410       ??1AABBTreeBounds@Gu@physx@@QEAA@XZ 0000000180015410 f i GuMeshFactory.obj
 0001:00014420       ??1AABBTreeBuildParams@Gu@physx@@QEAA@XZ 0000000180015420 f i GuMeshFactory.obj
 0001:00014420       ?reset@AABBTreeBuildParams@Gu@physx@@QEAAXXZ 0000000180015420 f i GuMeshFactory.obj
 0001:00014470       ??1CollisionMeshMappingData@Gu@physx@@UEAA@XZ 0000000180015470 f i GuMeshFactory.obj
 0001:000145c0       ??1MeshDataBase@Gu@physx@@UEAA@XZ 00000001800155c0 f i GuMeshFactory.obj
 0001:00014700       ??1MeshFactory@Gu@physx@@MEAA@XZ 0000000180015700 f   GuMeshFactory.obj
 0001:00014840       ??1RTreeTriangleData@Gu@physx@@UEAA@XZ 0000000180015840 f i GuMeshFactory.obj
 0001:000148b0       ??1SoftBodyCollisionData@Gu@physx@@UEAA@XZ 00000001800158b0 f i GuMeshFactory.obj
 0001:000149f0       ??1SoftBodySimulationData@Gu@physx@@UEAA@XZ 00000001800159f0 f i GuMeshFactory.obj
 0001:00014b10       ??1TetrahedronMeshData@Gu@physx@@QEAA@XZ 0000000180015b10 f i GuMeshFactory.obj
 0001:00014ba0       ??1TriangleMeshData@Gu@physx@@UEAA@XZ 0000000180015ba0 f i GuMeshFactory.obj
 0001:00014cd0       ??4NodeAllocator@Gu@physx@@QEAAAEAV012@AEBV012@@Z 0000000180015cd0 f i GuMeshFactory.obj
 0001:00014d80       ??_EMeshFactory@Gu@physx@@MEAAPEAXI@Z 0000000180015d80 f i GuMeshFactory.obj
 0001:00014ea0       ??_FAABBTreeBuildParams@Gu@physx@@QEAAXXZ 0000000180015ea0 f i GuMeshFactory.obj
 0001:00014ec0       ??_EBV4TriangleData@Gu@physx@@UEAAPEAXI@Z 0000000180015ec0 f i GuMeshFactory.obj
 0001:00014ec0       ??_GBV4TriangleData@Gu@physx@@UEAAPEAXI@Z 0000000180015ec0 f i GuMeshFactory.obj
 0001:00014f50       ??_ECollisionMeshMappingData@Gu@physx@@UEAAPEAXI@Z 0000000180015f50 f i GuMeshFactory.obj
 0001:00014f50       ??_GCollisionMeshMappingData@Gu@physx@@UEAAPEAXI@Z 0000000180015f50 f i GuMeshFactory.obj
 0001:00014fc0       ??_EMeshDataBase@Gu@physx@@UEAAPEAXI@Z 0000000180015fc0 f i GuMeshFactory.obj
 0001:00014fc0       ??_GMeshDataBase@Gu@physx@@UEAAPEAXI@Z 0000000180015fc0 f i GuMeshFactory.obj
 0001:00015030       ??_EPxCollisionMeshMappingData@physx@@UEAAPEAXI@Z 0000000180016030 f i GuMeshFactory.obj
 0001:00015030       ??_GPxCollisionMeshMappingData@physx@@UEAAPEAXI@Z 0000000180016030 f i GuMeshFactory.obj
 0001:00015080       ??_ERTreeTriangleData@Gu@physx@@UEAAPEAXI@Z 0000000180016080 f i GuMeshFactory.obj
 0001:00015080       ??_GRTreeTriangleData@Gu@physx@@UEAAPEAXI@Z 0000000180016080 f i GuMeshFactory.obj
 0001:00015130       ??_ESoftBodyCollisionData@Gu@physx@@UEAAPEAXI@Z 0000000180016130 f i GuMeshFactory.obj
 0001:00015130       ??_GSoftBodyCollisionData@Gu@physx@@UEAAPEAXI@Z 0000000180016130 f i GuMeshFactory.obj
 0001:000151a0       ??_ESoftBodySimulationData@Gu@physx@@UEAAPEAXI@Z 00000001800161a0 f i GuMeshFactory.obj
 0001:000151a0       ??_GSoftBodySimulationData@Gu@physx@@UEAAPEAXI@Z 00000001800161a0 f i GuMeshFactory.obj
 0001:00015210       ??_ETriangleMeshData@Gu@physx@@UEAAPEAXI@Z 0000000180016210 f i GuMeshFactory.obj
 0001:00015210       ??_GTriangleMeshData@Gu@physx@@UEAAPEAXI@Z 0000000180016210 f i GuMeshFactory.obj
 0001:00015280       ??_V@YAXPEAX_K@Z           0000000180016280 f i LIBCMT:delete_array_size.obj
 0001:00015280       ?__global_delete@@YAXPEAX_K@Z 0000000180016280 f i GuMeshFactory.obj
 0001:00015290       ?addBVH@MeshFactory@Gu@physx@@QEAAXPEAVBVH@23@_N@Z 0000000180016290 f   GuMeshFactory.obj
 0001:00015330       ?addConvexMesh@MeshFactory@Gu@physx@@QEAAXPEAVConvexMesh@23@_N@Z 0000000180016330 f   GuMeshFactory.obj
 0001:000153d0       ?addFactoryListener@MeshFactory@Gu@physx@@QEAAXAEAVMeshFactoryListener@23@@Z 00000001800163d0 f   GuMeshFactory.obj
 0001:00015440       ?addHeightField@MeshFactory@Gu@physx@@QEAAXPEAVHeightField@23@_N@Z 0000000180016440 f   GuMeshFactory.obj
 0001:000154e0       ?addSoftBodyMesh@MeshFactory@Gu@physx@@QEAAXPEAVSoftBodyMesh@23@_N@Z 00000001800164e0 f   GuMeshFactory.obj
 0001:00015580       ?addTetrahedronMesh@MeshFactory@Gu@physx@@QEAAXPEAVTetrahedronMesh@23@_N@Z 0000000180016580 f   GuMeshFactory.obj
 0001:00015620       ?addTriangleMesh@MeshFactory@Gu@physx@@QEAAXPEAVTriangleMesh@23@_N@Z 0000000180016620 f   GuMeshFactory.obj
 0001:000156c0       ?allocate@?$PxArray@USlab@NodeAllocator@Gu@physx@@V?$PxReflectionAllocator@USlab@NodeAllocator@Gu@physx@@@4@@physx@@IEAAPEAUSlab@NodeAllocator@Gu@2@I@Z 00000001800166c0 f i GuMeshFactory.obj
 0001:00015750       ?allocateAdjacencies@TriangleMeshData@Gu@physx@@QEAAPEAIXZ 0000000180016750 f i GuMeshFactory.obj
 0001:000157c0       ?allocateExtraTrigData@TriangleMeshData@Gu@physx@@QEAAPEAEXZ 00000001800167c0 f i GuMeshFactory.obj
 0001:00015830       ?allocateFaceRemap@TriangleMeshData@Gu@physx@@QEAAPEAIXZ 0000000180016830 f i GuMeshFactory.obj
 0001:000158a0       ?allocateGridModelData@SoftBodySimulationData@Gu@physx@@QEAAXIIIIIII@Z 00000001800168a0 f i GuMeshFactory.obj
 0001:00015b10       ?allocateMaterials@TetrahedronMeshData@Gu@physx@@QEAAPEAGXZ 0000000180016b10 f i GuMeshFactory.obj
 0001:00015b80       ?allocateMaterials@TriangleMeshData@Gu@physx@@QEAAPEAGXZ 0000000180016b80 f i GuMeshFactory.obj
 0001:00015bf0       ?allocateTetrahedrons@TetrahedronMeshData@Gu@physx@@QEAAXII@Z 0000000180016bf0 f i GuMeshFactory.obj
 0001:00015c80       ?allocateTriangles@TriangleMeshData@Gu@physx@@QEAAPEAXI_NI@Z 0000000180016c80 f i GuMeshFactory.obj
 0001:00015d70       ?allocateVertices@MeshDataBase@Gu@physx@@QEAAPEAV?$PxVec3T@M@3@I@Z 0000000180016d70 f i GuMeshFactory.obj
 0001:00015de0       ?allocateVertices@TetrahedronMeshData@Gu@physx@@QEAAPEAV?$PxVec3T@M@3@II@Z 0000000180016de0 f i GuMeshFactory.obj
 0001:00015e80       ?allocatemappingData@CollisionMeshMappingData@Gu@physx@@QEAAXIIII@Z 0000000180016e80 f i GuMeshFactory.obj
 0001:00016060       ?create@?$PxHashBase@PEAVBVH@Gu@physx@@PEAV123@U?$PxHash@PEAVBVH@Gu@physx@@@3@UGetKey@?$PxHashSetBase@PEAVBVH@Gu@physx@@U?$PxHash@PEAVBVH@Gu@physx@@@3@VPxAllocator@3@$00@3@VPxAllocator@3@$00@physx@@QEAAPEAPEAVBVH@Gu@2@AEBQEAV342@AEA_N@Z 0000000180017060 f i GuMeshFactory.obj
 0001:00016060       ?create@?$PxHashBase@PEAVConvexMesh@Gu@physx@@PEAV123@U?$PxHash@PEAVConvexMesh@Gu@physx@@@3@UGetKey@?$PxHashSetBase@PEAVConvexMesh@Gu@physx@@U?$PxHash@PEAVConvexMesh@Gu@physx@@@3@VPxAllocator@3@$00@3@VPxAllocator@3@$00@physx@@QEAAPEAPEAVConvexMesh@Gu@2@AEBQEAV342@AEA_N@Z 0000000180017060 f i GuMeshFactory.obj
 0001:00016060       ?create@?$PxHashBase@PEAVHeightField@Gu@physx@@PEAV123@U?$PxHash@PEAVHeightField@Gu@physx@@@3@UGetKey@?$PxHashSetBase@PEAVHeightField@Gu@physx@@U?$PxHash@PEAVHeightField@Gu@physx@@@3@VPxAllocator@3@$00@3@VPxAllocator@3@$00@physx@@QEAAPEAPEAVHeightField@Gu@2@AEBQEAV342@AEA_N@Z 0000000180017060 f i GuMeshFactory.obj
 0001:00016060       ?create@?$PxHashBase@PEAVSoftBodyMesh@Gu@physx@@PEAV123@U?$PxHash@PEAVSoftBodyMesh@Gu@physx@@@3@UGetKey@?$PxHashSetBase@PEAVSoftBodyMesh@Gu@physx@@U?$PxHash@PEAVSoftBodyMesh@Gu@physx@@@3@VPxAllocator@3@$00@3@VPxAllocator@3@$00@physx@@QEAAPEAPEAVSoftBodyMesh@Gu@2@AEBQEAV342@AEA_N@Z 0000000180017060 f i GuMeshFactory.obj
 0001:00016060       ?create@?$PxHashBase@PEAVTetrahedronMesh@Gu@physx@@PEAV123@U?$PxHash@PEAVTetrahedronMesh@Gu@physx@@@3@UGetKey@?$PxHashSetBase@PEAVTetrahedronMesh@Gu@physx@@U?$PxHash@PEAVTetrahedronMesh@Gu@physx@@@3@VPxAllocator@3@$00@3@VPxAllocator@3@$00@physx@@QEAAPEAPEAVTetrahedronMesh@Gu@2@AEBQEAV342@AEA_N@Z 0000000180017060 f i GuMeshFactory.obj
 0001:00016060       ?create@?$PxHashBase@PEAVTriangleMesh@Gu@physx@@PEAV123@U?$PxHash@PEAVTriangleMesh@Gu@physx@@@3@UGetKey@?$PxHashSetBase@PEAVTriangleMesh@Gu@physx@@U?$PxHash@PEAVTriangleMesh@Gu@physx@@@3@VPxAllocator@3@$00@3@VPxAllocator@3@$00@physx@@QEAAPEAPEAVTriangleMesh@Gu@2@AEBQEAV342@AEA_N@Z 0000000180017060 f i GuMeshFactory.obj
 0001:000161f0       ?createBVH@MeshFactory@Gu@physx@@IEAAPEAVPxBVH@3@AEAVBVHData@23@@Z 00000001800171f0 f   GuMeshFactory.obj
 0001:00016320       ?createBVH@MeshFactory@Gu@physx@@QEAAPEAVPxBVH@3@AEAVPxInputStream@3@@Z 0000000180017320 f   GuMeshFactory.obj
 0001:00016470       ?createBVH@MeshFactory@Gu@physx@@QEAAPEAVPxBVH@3@PEAX@Z 0000000180017470 f   GuMeshFactory.obj
 0001:00016480       ?createConvexMesh@MeshFactory@Gu@physx@@IEAAPEAVPxConvexMesh@3@AEAUConvexHullInitData@23@@Z 0000000180017480 f   GuMeshFactory.obj
 0001:000165b0       ?createConvexMesh@MeshFactory@Gu@physx@@QEAAPEAVPxConvexMesh@3@AEAVPxInputStream@3@@Z 00000001800175b0 f   GuMeshFactory.obj
 0001:00016700       ?createConvexMesh@MeshFactory@Gu@physx@@QEAAPEAVPxConvexMesh@3@PEAX@Z 0000000180017700 f   GuMeshFactory.obj
 0001:00016710       ?createHeightField@MeshFactory@Gu@physx@@QEAAPEAVPxHeightField@3@AEAVPxInputStream@3@@Z 0000000180017710 f   GuMeshFactory.obj
 0001:00016860       ?createHeightField@MeshFactory@Gu@physx@@QEAAPEAVPxHeightField@3@PEAX@Z 0000000180017860 f   GuMeshFactory.obj
 0001:00016990       ?createSoftBodyMesh@MeshFactory@Gu@physx@@IEAAPEAVPxSoftBodyMesh@3@AEAVSoftBodyMeshData@23@@Z 0000000180017990 f   GuMeshFactory.obj
 0001:00016ac0       ?createSoftBodyMesh@MeshFactory@Gu@physx@@QEAAPEAVPxSoftBodyMesh@3@AEAVPxInputStream@3@@Z 0000000180017ac0 f   GuMeshFactory.obj
 0001:000170c0       ?createSoftBodyMesh@MeshFactory@Gu@physx@@QEAAPEAVPxSoftBodyMesh@3@PEAX@Z 00000001800180c0 f   GuMeshFactory.obj
 0001:000170d0       ?createTetrahedronMesh@MeshFactory@Gu@physx@@IEAAPEAVPxTetrahedronMesh@3@AEAVTetrahedronMeshData@23@@Z 00000001800180d0 f   GuMeshFactory.obj
 0001:00017200       ?createTetrahedronMesh@MeshFactory@Gu@physx@@QEAAPEAVPxTetrahedronMesh@3@AEAVPxInputStream@3@@Z 0000000180018200 f   GuMeshFactory.obj
 0001:00017270       ?createTetrahedronMesh@MeshFactory@Gu@physx@@QEAAPEAVPxTetrahedronMesh@3@PEAX@Z 0000000180018270 f   GuMeshFactory.obj
 0001:00017280       ?createTriangleMesh@MeshFactory@Gu@physx@@IEAAPEAVPxTriangleMesh@3@AEAVTriangleMeshData@23@@Z 0000000180018280 f   GuMeshFactory.obj
 0001:00017430       ?createTriangleMesh@MeshFactory@Gu@physx@@QEAAPEAVPxTriangleMesh@3@AEAVPxInputStream@3@@Z 0000000180018430 f   GuMeshFactory.obj
 0001:00017490       ?createTriangleMesh@MeshFactory@Gu@physx@@QEAAPEAVPxTriangleMesh@3@PEAX@Z 0000000180018490 f   GuMeshFactory.obj
 0001:000174a0       ?erase@?$PxHashBase@PEAVBVH@Gu@physx@@PEAV123@U?$PxHash@PEAVBVH@Gu@physx@@@3@UGetKey@?$PxHashSetBase@PEAVBVH@Gu@physx@@U?$PxHash@PEAVBVH@Gu@physx@@@3@VPxAllocator@3@$00@3@VPxAllocator@3@$00@physx@@QEAA_NAEBQEAVBVH@Gu@2@@Z 00000001800184a0 f i GuMeshFactory.obj
 0001:000174a0       ?erase@?$PxHashBase@PEAVConvexMesh@Gu@physx@@PEAV123@U?$PxHash@PEAVConvexMesh@Gu@physx@@@3@UGetKey@?$PxHashSetBase@PEAVConvexMesh@Gu@physx@@U?$PxHash@PEAVConvexMesh@Gu@physx@@@3@VPxAllocator@3@$00@3@VPxAllocator@3@$00@physx@@QEAA_NAEBQEAVConvexMesh@Gu@2@@Z 00000001800184a0 f i GuMeshFactory.obj
 0001:000174a0       ?erase@?$PxHashBase@PEAVHeightField@Gu@physx@@PEAV123@U?$PxHash@PEAVHeightField@Gu@physx@@@3@UGetKey@?$PxHashSetBase@PEAVHeightField@Gu@physx@@U?$PxHash@PEAVHeightField@Gu@physx@@@3@VPxAllocator@3@$00@3@VPxAllocator@3@$00@physx@@QEAA_NAEBQEAVHeightField@Gu@2@@Z 00000001800184a0 f i GuMeshFactory.obj
 0001:000174a0       ?erase@?$PxHashBase@PEAVSoftBodyMesh@Gu@physx@@PEAV123@U?$PxHash@PEAVSoftBodyMesh@Gu@physx@@@3@UGetKey@?$PxHashSetBase@PEAVSoftBodyMesh@Gu@physx@@U?$PxHash@PEAVSoftBodyMesh@Gu@physx@@@3@VPxAllocator@3@$00@3@VPxAllocator@3@$00@physx@@QEAA_NAEBQEAVSoftBodyMesh@Gu@2@@Z 00000001800184a0 f i GuMeshFactory.obj
 0001:000174a0       ?erase@?$PxHashBase@PEAVTetrahedronMesh@Gu@physx@@PEAV123@U?$PxHash@PEAVTetrahedronMesh@Gu@physx@@@3@UGetKey@?$PxHashSetBase@PEAVTetrahedronMesh@Gu@physx@@U?$PxHash@PEAVTetrahedronMesh@Gu@physx@@@3@VPxAllocator@3@$00@3@VPxAllocator@3@$00@physx@@QEAA_NAEBQEAVTetrahedronMesh@Gu@2@@Z 00000001800184a0 f i GuMeshFactory.obj
 0001:000174a0       ?erase@?$PxHashBase@PEAVTriangleMesh@Gu@physx@@PEAV123@U?$PxHash@PEAVTriangleMesh@Gu@physx@@@3@UGetKey@?$PxHashSetBase@PEAVTriangleMesh@Gu@physx@@U?$PxHash@PEAVTriangleMesh@Gu@physx@@@3@VPxAllocator@3@$00@3@VPxAllocator@3@$00@physx@@QEAA_NAEBQEAVTriangleMesh@Gu@2@@Z 00000001800184a0 f i GuMeshFactory.obj
 0001:00017620       ?getBVHs@MeshFactory@Gu@physx@@QEBAIPEAPEAVPxBVH@3@II@Z 0000000180018620 f   GuMeshFactory.obj
 0001:000176c0       ?getBounds@AABBTreeBounds@Gu@physx@@QEAAPEAVPxBounds3@3@XZ 00000001800186c0 f i GuMeshFactory.obj
 0001:000176c0       ?getBounds@AABBTreeBounds@Gu@physx@@QEBAPEBVPxBounds3@3@XZ 00000001800186c0 f i GuMeshFactory.obj
 0001:000176d0       ?getConvexMeshes@MeshFactory@Gu@physx@@QEBAIPEAPEAVPxConvexMesh@3@II@Z 00000001800186d0 f   GuMeshFactory.obj
 0001:00017770       ?getHeightFields@MeshFactory@Gu@physx@@QEBAIPEAPEAVPxHeightField@3@II@Z 0000000180018770 f   GuMeshFactory.obj
 0001:00017810       ?getNbBVHs@MeshFactory@Gu@physx@@QEBAIXZ 0000000180018810 f   GuMeshFactory.obj
 0001:00017850       ?getNbConvexMeshes@MeshFactory@Gu@physx@@QEBAIXZ 0000000180018850 f   GuMeshFactory.obj
 0001:00017890       ?getNbHeightFields@MeshFactory@Gu@physx@@QEBAIXZ 0000000180018890 f   GuMeshFactory.obj
 0001:000178d0       ?getNbPrimitives@AABBTreeBuildNode@Gu@physx@@QEBAIXZ 00000001800188d0 f i GuMeshFactory.obj
 0001:000178d0       ?getNbRuntimePrimitives@AABBTreeBuildNode@Gu@physx@@QEBAIXZ 00000001800188d0 f i GuMeshFactory.obj
 0001:000178e0       ?getNbSoftBodyMeshes@MeshFactory@Gu@physx@@QEBAIXZ 00000001800188e0 f   GuMeshFactory.obj
 0001:00017920       ?getNbTetrahedronMeshes@MeshFactory@Gu@physx@@QEBAIXZ 0000000180018920 f   GuMeshFactory.obj
 0001:00017960       ?getNbTriangleMeshes@MeshFactory@Gu@physx@@QEBAIXZ 0000000180018960 f   GuMeshFactory.obj
 0001:000179a0       ?getNeg@AABBTreeBuildNode@Gu@physx@@QEBAPEBV123@XZ 00000001800189a0 f i GuMeshFactory.obj
 0001:000179c0       ?getPrimitives@AABBTreeBuildNode@Gu@physx@@QEAAPEAIPEAI@Z 00000001800189c0 f i GuMeshFactory.obj
 0001:000179c0       ?getPrimitives@AABBTreeBuildNode@Gu@physx@@QEBAPEBIPEBI@Z 00000001800189c0 f i GuMeshFactory.obj
 0001:000179d0       ?getSoftBodyMeshes@MeshFactory@Gu@physx@@QEBAIPEAPEAVPxSoftBodyMesh@3@II@Z 00000001800189d0 f   GuMeshFactory.obj
 0001:00017a70       ?getTetrahedronMeshes@MeshFactory@Gu@physx@@QEBAIPEAPEAVPxTetrahedronMesh@3@II@Z 0000000180018a70 f   GuMeshFactory.obj
 0001:00017b00       ?getTriangleMeshes@MeshFactory@Gu@physx@@QEBAIPEAPEAVPxTriangleMesh@3@II@Z 0000000180018b00 f   GuMeshFactory.obj
 0001:00017b90       ?growAndPushBack@?$PxArray@PEAVMeshFactoryListener@Gu@physx@@V?$PxReflectionAllocator@PEAVMeshFactoryListener@Gu@physx@@@3@@physx@@IEAAAEAPEAVMeshFactoryListener@Gu@2@AEBQEAV342@@Z 0000000180018b90 f i GuMeshFactory.obj
 0001:00017cb0       ?isLeaf@AABBTreeBuildNode@Gu@physx@@QEBA_NXZ 0000000180018cb0 f i GuMeshFactory.obj
 0001:000196c0       ?moveFrom@AABBTreeBounds@Gu@physx@@QEAAXAEAV123@@Z 000000018001a6c0 f i GuMeshFactory.obj
 0001:000196d0       ?notifyFactoryListener@MeshFactory@Gu@physx@@QEAAXPEBVPxBase@3@G@Z 000000018001a6d0 f   GuMeshFactory.obj
 0001:00019740       ?notifyListenersAdd@MeshFactory@Gu@physx@@IEAAXPEBVPxBase@3@@Z 000000018001a740 f   GuMeshFactory.obj
 0001:00019790       ?notifyListenersRemove@MeshFactory@Gu@physx@@IEAAXPEBVPxBase@3@@Z 000000018001a790 f   GuMeshFactory.obj
 0001:000197e0       ?ownsMemory@AABBTreeBounds@Gu@physx@@QEBA_NXZ 000000018001a7e0 f i GuMeshFactory.obj
 0001:00019ac0       ?recreate@?$PxArray@USlab@NodeAllocator@Gu@physx@@V?$PxReflectionAllocator@USlab@NodeAllocator@Gu@physx@@@4@@physx@@IEAAXI@Z 000000018001aac0 f i GuMeshFactory.obj
 0001:00019b70       ?release@CollisionMeshMappingData@Gu@physx@@UEAAXXZ 000000018001ab70 f i GuMeshFactory.obj
 0001:00019b90       ?release@MeshFactory@Gu@physx@@QEAAXXZ 000000018001ab90 f   GuMeshFactory.obj
 0001:00019c90       ?remove@MeshFactory@Gu@physx@@QEAA_NAEAVPxBase@3@@Z 000000018001ac90 f   GuMeshFactory.obj
 0001:00019ce0       ?removeBVH@MeshFactory@Gu@physx@@QEAA_NAEAVPxBVH@3@@Z 000000018001ace0 f   GuMeshFactory.obj
 0001:00019d70       ?removeConvexMesh@MeshFactory@Gu@physx@@QEAA_NAEAVPxConvexMesh@3@@Z 000000018001ad70 f   GuMeshFactory.obj
 0001:00019e00       ?removeFactoryListener@MeshFactory@Gu@physx@@QEAAXAEAVMeshFactoryListener@23@@Z 000000018001ae00 f   GuMeshFactory.obj
 0001:00019e90       ?removeHeightField@MeshFactory@Gu@physx@@QEAA_NAEAVPxHeightField@3@@Z 000000018001ae90 f   GuMeshFactory.obj
 0001:00019f20       ?removeSoftBodyMesh@MeshFactory@Gu@physx@@QEAA_NAEAVPxSoftBodyMesh@3@@Z 000000018001af20 f   GuMeshFactory.obj
 0001:00019fb0       ?removeTetrahedronMesh@MeshFactory@Gu@physx@@QEAA_NAEAVPxTetrahedronMesh@3@@Z 000000018001afb0 f   GuMeshFactory.obj
 0001:0001a040       ?removeTriangleMesh@MeshFactory@Gu@physx@@QEAA_NAEAVPxTriangleMesh@3@@Z 000000018001b040 f   GuMeshFactory.obj
 0001:0001a0d0       ?reserveInternal@?$PxHashBase@PEAVBVH@Gu@physx@@PEAV123@U?$PxHash@PEAVBVH@Gu@physx@@@3@UGetKey@?$PxHashSetBase@PEAVBVH@Gu@physx@@U?$PxHash@PEAVBVH@Gu@physx@@@3@VPxAllocator@3@$00@3@VPxAllocator@3@$00@physx@@AEAAXI@Z 000000018001b0d0 f i GuMeshFactory.obj
 0001:0001a0d0       ?reserveInternal@?$PxHashBase@PEAVConvexMesh@Gu@physx@@PEAV123@U?$PxHash@PEAVConvexMesh@Gu@physx@@@3@UGetKey@?$PxHashSetBase@PEAVConvexMesh@Gu@physx@@U?$PxHash@PEAVConvexMesh@Gu@physx@@@3@VPxAllocator@3@$00@3@VPxAllocator@3@$00@physx@@AEAAXI@Z 000000018001b0d0 f i GuMeshFactory.obj
 0001:0001a0d0       ?reserveInternal@?$PxHashBase@PEAVHeightField@Gu@physx@@PEAV123@U?$PxHash@PEAVHeightField@Gu@physx@@@3@UGetKey@?$PxHashSetBase@PEAVHeightField@Gu@physx@@U?$PxHash@PEAVHeightField@Gu@physx@@@3@VPxAllocator@3@$00@3@VPxAllocator@3@$00@physx@@AEAAXI@Z 000000018001b0d0 f i GuMeshFactory.obj
 0001:0001a0d0       ?reserveInternal@?$PxHashBase@PEAVSoftBodyMesh@Gu@physx@@PEAV123@U?$PxHash@PEAVSoftBodyMesh@Gu@physx@@@3@UGetKey@?$PxHashSetBase@PEAVSoftBodyMesh@Gu@physx@@U?$PxHash@PEAVSoftBodyMesh@Gu@physx@@@3@VPxAllocator@3@$00@3@VPxAllocator@3@$00@physx@@AEAAXI@Z 000000018001b0d0 f i GuMeshFactory.obj
 0001:0001a0d0       ?reserveInternal@?$PxHashBase@PEAVTetrahedronMesh@Gu@physx@@PEAV123@U?$PxHash@PEAVTetrahedronMesh@Gu@physx@@@3@UGetKey@?$PxHashSetBase@PEAVTetrahedronMesh@Gu@physx@@U?$PxHash@PEAVTetrahedronMesh@Gu@physx@@@3@VPxAllocator@3@$00@3@VPxAllocator@3@$00@physx@@AEAAXI@Z 000000018001b0d0 f i GuMeshFactory.obj
 0001:0001a0d0       ?reserveInternal@?$PxHashBase@PEAVTriangleMesh@Gu@physx@@PEAV123@U?$PxHash@PEAVTriangleMesh@Gu@physx@@@3@UGetKey@?$PxHashSetBase@PEAVTriangleMesh@Gu@physx@@U?$PxHash@PEAVTriangleMesh@Gu@physx@@@3@VPxAllocator@3@$00@3@VPxAllocator@3@$00@physx@@AEAAXI@Z 000000018001b0d0 f i GuMeshFactory.obj
 0001:0001a2a0       ?setBounds@AABBTreeBounds@Gu@physx@@QEAAXPEAVPxBounds3@3@@Z 000000018001b2a0 f i GuMeshFactory.obj
 0001:0001a2b0       ?setNbRunTimePrimitives@AABBTreeBuildNode@Gu@physx@@QEAAXI@Z 000000018001b2b0 f i GuMeshFactory.obj
 0001:0001a2c0       ?takeOwnership@AABBTreeBounds@Gu@physx@@QEAAXXZ 000000018001b2c0 f i GuMeshFactory.obj
 0001:0001a2d0       getInsertionCallback       000000018001b2d0 f   GuMeshFactory.obj
 0001:0001a2e0       ??4BigConvexData@physx@@QEAAAEAV01@AEBV01@@Z 000000018001b2e0 f i GuMetaData.obj
 0001:0001a300       ?GetAdjacentVerts@BigConvexData@physx@@QEBAPEBEXZ 000000018001b300 f i GuMetaData.obj
 0001:0001a300       ?getSoftBodyAuxData@SoftBodyMesh@Gu@physx@@UEAAPEAVPxSoftBodyAuxData@3@XZ 000000018001b300 f i GuTetrahedronMesh.obj
 0001:0001a300       ?getSoftBodyAuxData@SoftBodyMesh@Gu@physx@@UEBAPEBVPxSoftBodyAuxData@3@XZ 000000018001b300 f i GuTetrahedronMesh.obj
 0001:0001a300       ?getTransforms@PruningPool@Gu@physx@@QEAAPEAV?$PxTransformT@M@3@XZ 000000018001b300 f i GuIncrementalAABBPrunerCore.obj
 0001:0001a300       ?getTransforms@PruningPool@Gu@physx@@QEBAPEBV?$PxTransformT@M@3@XZ 000000018001b300 f i GuIncrementalAABBPrunerCore.obj
 0001:0001a300       ?getTriangles@TriangleMesh@Gu@physx@@UEBAPEBXXZ 000000018001b300 f i GuTriangleMesh.obj
 0001:0001a310       ?GetNbNeighbors@BigConvexData@physx@@QEBAGI@Z 000000018001b310 f i GuMetaData.obj
 0001:0001a310       ?GetValency@BigConvexData@physx@@QEBAGI@Z 000000018001b310 f i GuMetaData.obj
 0001:0001a320       ?GetNbSamples@BigConvexData@physx@@QEBAIXZ 000000018001b320 f i GuMetaData.obj
 0001:0001a330       ?GetNbVerts@BigConvexData@physx@@QEBAIXZ 000000018001b330 f i GuMetaData.obj
 0001:0001a330       ?getNbVertices@TetrahedronMesh@Gu@physx@@UEBAIXZ 000000018001b330 f i GuTetrahedronMesh.obj
 0001:0001a330       ?getNbVertices@TriangleMesh@Gu@physx@@UEBAIXZ 000000018001b330 f i GuTriangleMesh.obj
 0001:0001a330       ?length@pcharNode@@UEBAHXZ 000000018001b330 f i libvcruntime:undname.obj
 0001:0001a330       ?raw_length@pcharNode@@UEBAHXZ 000000018001b330 f i libvcruntime:undname.obj
 0001:0001a340       ?GetNeighbors@BigConvexData@physx@@QEBAPEBEI@Z 000000018001b340 f i GuMetaData.obj
 0001:0001a350       ?GetOffset@BigConvexData@physx@@QEBAGI@Z 000000018001b350 f i GuMetaData.obj
 0001:0001a360       ?GetSubdiv@BigConvexData@physx@@QEBAIXZ 000000018001b360 f i GuMetaData.obj
 0001:0001a370       ?getBinaryMetaData@BV4Tree@Gu@physx@@SAXAEAVPxOutputStream@3@@Z 000000018001b370 f   GuMetaData.obj
 0001:0001a910       ?getBinaryMetaData@BV4TriangleMesh@Gu@physx@@SAXAEAVPxOutputStream@3@@Z 000000018001b910 f   GuMetaData.obj
 0001:0001ac90       ?getBinaryMetaData@BigConvexData@physx@@SAXAEAVPxOutputStream@2@@Z 000000018001bc90 f   GuMetaData.obj
 0001:0001af50       ?getBinaryMetaData@ConvexMesh@Gu@physx@@SAXAEAVPxOutputStream@3@@Z 000000018001bf50 f   GuMetaData.obj
 0001:0001b5e0       ?getBinaryMetaData@HeightField@Gu@physx@@SAXAEAVPxOutputStream@3@@Z 000000018001c5e0 f   GuMetaData.obj
 0001:0001b9d0       ?getBinaryMetaData@RTree@Gu@physx@@SAXAEAVPxOutputStream@3@@Z 000000018001c9d0 f   GuMetaData.obj
 0001:0001bd00       ?getBinaryMetaData@RTreeTriangleMesh@Gu@physx@@SAXAEAVPxOutputStream@3@@Z 000000018001cd00 f   GuMetaData.obj
 0001:0001bde0       ?getBinaryMetaData@TriangleMesh@Gu@physx@@SAXAEAVPxOutputStream@3@@Z 000000018001cde0 f   GuMetaData.obj
 0001:0001d920       ?doSupport@?$SupportLocalImpl@VConvexHullNoScaleV@Gu@physx@@@Gu@physx@@UEBA?AT__m128@@AEBT4@@Z 000000018001e920 f i GuMTD.obj
 0001:0001d970       ?doSupport@?$SupportLocalImpl@VConvexHullNoScaleV@Gu@physx@@@Gu@physx@@UEBAXAEBT__m128@@AEAT4@1@Z 000000018001e970 f i GuMTD.obj
 0001:0001daf0       ?populateVerts@?$SupportLocalImpl@VConvexHullNoScaleV@Gu@physx@@@Gu@physx@@UEBAXPEBEIPEBV?$PxVec3T@M@3@PEAT__m128@@@Z 000000018001eaf0 f i GuMTD.obj
 0001:0001db30       ?getInternalData@TriangleMesh@Gu@physx@@UEBA_NAEAUPxTriangleMeshInternalData@3@_N@Z 000000018001eb30 f   GuTriangleMesh.obj
 0001:0001db30       ?isDynamic@Pruner@Gu@physx@@UEBA_NXZ 000000018001eb30 f   GuIncrementalAABBPruner.obj
 0001:0001f970       ??$gjk@U?$LocalConvex@VCapsuleV@Gu@physx@@@Gu@physx@@U?$LocalConvex@VConvexHullV@Gu@physx@@@23@@Gu@physx@@YA?AW4GjkStatus@01@AEBU?$LocalConvex@VCapsuleV@Gu@physx@@@01@AEBU?$LocalConvex@VConvexHullV@Gu@physx@@@01@AEBT__m128@@2AEAT5@333@Z 0000000180020970 f i GuMTD.obj
 0001:000206d0       ??0SeparatingAxes@Gu@physx@@QEAA@$$QEAV012@@Z 00000001800216d0 f i GuMTD.obj
 0001:000206d0       ??0SeparatingAxes@Gu@physx@@QEAA@AEBV012@@Z 00000001800216d0 f i GuMTD.obj
 0001:000207e0       ??0SeparatingAxes@Gu@physx@@QEAA@XZ 00000001800217e0 f i GuMTD.obj
 0001:000207f0       ??4SeparatingAxes@Gu@physx@@QEAAAEAV012@$$QEAV012@@Z 00000001800217f0 f i GuMTD.obj
 0001:000207f0       ??4SeparatingAxes@Gu@physx@@QEAAAEAV012@AEBV012@@Z 00000001800217f0 f i GuMTD.obj
 0001:00020900       ??_E?$LocalConvex@UCustomConvexV@@@Gu@physx@@UEAAPEAXI@Z 0000000180021900 f i GuGjkQuery.obj
 0001:00020900       ??_E?$LocalConvex@UPointConvexV@@@Gu@physx@@UEAAPEAXI@Z 0000000180021900 f i GuGjkQuery.obj
 0001:00020900       ??_E?$LocalConvex@VBoxV@Gu@physx@@@Gu@physx@@UEAAPEAXI@Z 0000000180021900 f i GuSweepTests.obj
 0001:00020900       ??_E?$LocalConvex@VCapsuleV@Gu@physx@@@Gu@physx@@UEAAPEAXI@Z 0000000180021900 f i GuMTD.obj
 0001:00020900       ??_E?$LocalConvex@VConvexHullNoScaleV@Gu@physx@@@Gu@physx@@UEAAPEAXI@Z 0000000180021900 f i GuPCMContactBoxConvex.obj
 0001:00020900       ??_E?$LocalConvex@VConvexHullV@Gu@physx@@@Gu@physx@@UEAAPEAXI@Z 0000000180021900 f i GuMTD.obj
 0001:00020900       ??_E?$LocalConvex@VTetrahedronV@Gu@physx@@@Gu@physx@@UEAAPEAXI@Z 0000000180021900 f i GuCookingTetrahedronMesh.obj
 0001:00020900       ??_E?$LocalConvex@VTriangleV@Gu@physx@@@Gu@physx@@UEAAPEAXI@Z 0000000180021900 f i GuSweepTests.obj
 0001:00020900       ??_EGjkConvex@Gu@physx@@UEAAPEAXI@Z 0000000180021900 f i GuMTD.obj
 0001:00020900       ??_G?$LocalConvex@UCustomConvexV@@@Gu@physx@@UEAAPEAXI@Z 0000000180021900 f i GuGjkQuery.obj
 0001:00020900       ??_G?$LocalConvex@UPointConvexV@@@Gu@physx@@UEAAPEAXI@Z 0000000180021900 f i GuGjkQuery.obj
 0001:00020900       ??_G?$LocalConvex@VBoxV@Gu@physx@@@Gu@physx@@UEAAPEAXI@Z 0000000180021900 f i GuSweepTests.obj
 0001:00020900       ??_G?$LocalConvex@VCapsuleV@Gu@physx@@@Gu@physx@@UEAAPEAXI@Z 0000000180021900 f i GuMTD.obj
 0001:00020900       ??_G?$LocalConvex@VConvexHullNoScaleV@Gu@physx@@@Gu@physx@@UEAAPEAXI@Z 0000000180021900 f i GuPCMContactBoxConvex.obj
 0001:00020900       ??_G?$LocalConvex@VConvexHullV@Gu@physx@@@Gu@physx@@UEAAPEAXI@Z 0000000180021900 f i GuMTD.obj
 0001:00020900       ??_G?$LocalConvex@VTetrahedronV@Gu@physx@@@Gu@physx@@UEAAPEAXI@Z 0000000180021900 f i GuCookingTetrahedronMesh.obj
 0001:00020900       ??_G?$LocalConvex@VTriangleV@Gu@physx@@@Gu@physx@@UEAAPEAXI@Z 0000000180021900 f i GuSweepTests.obj
 0001:00020900       ??_GGjkConvex@Gu@physx@@UEAAPEAXI@Z 0000000180021900 f i GuMTD.obj
 0001:00024a70       ?getAxes@SeparatingAxes@Gu@physx@@QEBAPEBV?$PxVec3T@M@3@XZ 0000000180025a70 f i GuMTD.obj
 0001:00024a80       ?getCenter@?$LocalConvex@UCustomConvexV@@@Gu@physx@@UEBA?AT__m128@@XZ 0000000180025a80 f i GuGjkQuery.obj
 0001:00024a80       ?getCenter@?$LocalConvex@UPointConvexV@@@Gu@physx@@UEBA?AT__m128@@XZ 0000000180025a80 f i GuGjkQuery.obj
 0001:00024a80       ?getCenter@?$LocalConvex@VBoxV@Gu@physx@@@Gu@physx@@UEBA?AT__m128@@XZ 0000000180025a80 f i GuSweepTests.obj
 0001:00024a80       ?getCenter@?$LocalConvex@VCapsuleV@Gu@physx@@@Gu@physx@@UEBA?AT__m128@@XZ 0000000180025a80 f i GuMTD.obj
 0001:00024a80       ?getCenter@?$LocalConvex@VConvexHullNoScaleV@Gu@physx@@@Gu@physx@@UEBA?AT__m128@@XZ 0000000180025a80 f i GuPCMContactBoxConvex.obj
 0001:00024a80       ?getCenter@?$LocalConvex@VConvexHullV@Gu@physx@@@Gu@physx@@UEBA?AT__m128@@XZ 0000000180025a80 f i GuMTD.obj
 0001:00024a80       ?getCenter@?$LocalConvex@VTetrahedronV@Gu@physx@@@Gu@physx@@UEBA?AT__m128@@XZ 0000000180025a80 f i GuCookingTetrahedronMesh.obj
 0001:00024a80       ?getCenter@?$LocalConvex@VTriangleV@Gu@physx@@@Gu@physx@@UEBA?AT__m128@@XZ 0000000180025a80 f i GuSweepTests.obj
 0001:00024a90       ?getCount@BuildStats@Gu@physx@@QEBAIXZ 0000000180025a90 f i GuBV4Build.obj
 0001:00024a90       ?getNbActiveObjects@PruningPool@Gu@physx@@QEBAIXZ 0000000180025a90 f i GuIncrementalAABBPrunerCore.obj
 0001:00024a90       ?getNumAxes@SeparatingAxes@Gu@physx@@QEBAIXZ 0000000180025a90 f i GuMTD.obj
 0001:00024aa0       ?getSweepMargin@?$LocalConvex@VCapsuleV@Gu@physx@@@Gu@physx@@UEBA?AT__m128@@XZ 0000000180025aa0 f i GuMTD.obj
 0001:00024aa0       ?getSweepMargin@?$RelativeConvex@VCapsuleV@Gu@physx@@@Gu@physx@@UEBA?AT__m128@@XZ 0000000180025aa0 f i GuCCDSweepPrimitives.obj
 0001:00024ab0       ?getSweepMargin@?$LocalConvex@UCustomConvexV@@@Gu@physx@@UEBA?AT__m128@@XZ 0000000180025ab0 f i GuGjkQuery.obj
 0001:00024ab0       ?getSweepMargin@?$LocalConvex@UPointConvexV@@@Gu@physx@@UEBA?AT__m128@@XZ 0000000180025ab0 f i GuGjkQuery.obj
 0001:00024ab0       ?getSweepMargin@?$LocalConvex@VBoxV@Gu@physx@@@Gu@physx@@UEBA?AT__m128@@XZ 0000000180025ab0 f i GuSweepTests.obj
 0001:00024ab0       ?getSweepMargin@?$LocalConvex@VConvexHullNoScaleV@Gu@physx@@@Gu@physx@@UEBA?AT__m128@@XZ 0000000180025ab0 f i GuPCMContactBoxConvex.obj
 0001:00024ab0       ?getSweepMargin@?$LocalConvex@VConvexHullV@Gu@physx@@@Gu@physx@@UEBA?AT__m128@@XZ 0000000180025ab0 f i GuMTD.obj
 0001:00024ab0       ?getSweepMargin@?$RelativeConvex@UCustomConvexV@@@Gu@physx@@UEBA?AT__m128@@XZ 0000000180025ab0 f i GuGjkQuery.obj
 0001:00024ab0       ?getSweepMargin@?$RelativeConvex@VBoxV@Gu@physx@@@Gu@physx@@UEBA?AT__m128@@XZ 0000000180025ab0 f i GuOverlapTests.obj
 0001:00024ab0       ?getSweepMargin@?$RelativeConvex@VConvexHullNoScaleV@Gu@physx@@@Gu@physx@@UEBA?AT__m128@@XZ 0000000180025ab0 f i GuPCMContactConvexConvex.obj
 0001:00024ab0       ?getSweepMargin@?$RelativeConvex@VConvexHullV@Gu@physx@@@Gu@physx@@UEBA?AT__m128@@XZ 0000000180025ab0 f i GuOverlapTests.obj
 0001:00024ad0       ?getSweepMargin@GjkConvex@Gu@physx@@UEBA?AT__m128@@XZ 0000000180025ad0 f i GuMTD.obj
 0001:00024af0       ?pointConvexDistance@@YA_NAEAV?$PxVec3T@M@physx@@0AEAMAEBV12@PEBVConvexMesh@Gu@2@AEBVPxMeshScale@2@AEBUPxTransformPadded@2@@Z 0000000180025af0 f   GuMTD.obj
 0001:00025850       ?reset@SeparatingAxes@Gu@physx@@QEAAXXZ 0000000180026850 f i GuMTD.obj
 0001:00025860       ?support@?$LocalConvex@VCapsuleV@Gu@physx@@@Gu@physx@@UEBA?AT__m128@@AEBT4@@Z 0000000180026860 f i GuMTD.obj
 0001:000258c0       ?support@?$LocalConvex@VCapsuleV@Gu@physx@@@Gu@physx@@UEBA?AT__m128@@AEBT4@AEAH@Z 00000001800268c0 f i GuMTD.obj
 0001:00025930       ?support@?$LocalConvex@VConvexHullV@Gu@physx@@@Gu@physx@@UEBA?AT__m128@@AEBT4@@Z 0000000180026930 f i GuMTD.obj
 0001:00025a10       ?support@?$LocalConvex@VConvexHullV@Gu@physx@@@Gu@physx@@UEBA?AT__m128@@AEBT4@AEAH@Z 0000000180026a10 f i GuMTD.obj
 0001:00025ae0       ?support@GjkConvex@Gu@physx@@UEBA?AT__m128@@AEBT4@@Z 0000000180026ae0 f i GuMTD.obj
 0001:00025b00       ?support@GjkConvex@Gu@physx@@UEBA?AT__m128@@AEBT4@AEAH@Z 0000000180026b00 f i GuMTD.obj
 0001:00025b20       ?supportPoint@?$LocalConvex@VCapsuleV@Gu@physx@@@Gu@physx@@UEBA?AT__m128@@H@Z 0000000180026b20 f i GuMTD.obj
 0001:00025b50       ?supportPoint@?$LocalConvex@VConvexHullV@Gu@physx@@@Gu@physx@@UEBA?AT__m128@@H@Z 0000000180026b50 f i GuMTD.obj
 0001:00025ba0       ?supportPoint@GjkConvex@Gu@physx@@UEBA?AT__m128@@H@Z 0000000180026ba0 f i GuMTD.obj
 0001:00025bc0       ?supportPoint@?$RelativeConvex@VBoxV@Gu@physx@@@Gu@physx@@UEBA?AT__m128@@H@Z 0000000180026bc0 f i GuOverlapTests.obj
 0001:00025c30       ?support@?$RelativeConvex@VBoxV@Gu@physx@@@Gu@physx@@UEBA?AT__m128@@AEBT4@@Z 0000000180026c30 f i GuOverlapTests.obj
 0001:00025cb0       ?support@?$RelativeConvex@VBoxV@Gu@physx@@@Gu@physx@@UEBA?AT__m128@@AEBT4@AEAH@Z 0000000180026cb0 f i GuOverlapTests.obj
 0001:00025d40       ?getCenter@?$RelativeConvex@UCustomConvexV@@@Gu@physx@@UEBA?AT__m128@@XZ 0000000180026d40 f i GuGjkQuery.obj
 0001:00025d40       ?getCenter@?$RelativeConvex@VBoxV@Gu@physx@@@Gu@physx@@UEBA?AT__m128@@XZ 0000000180026d40 f i GuOverlapTests.obj
 0001:00025d40       ?getCenter@?$RelativeConvex@VCapsuleV@Gu@physx@@@Gu@physx@@UEBA?AT__m128@@XZ 0000000180026d40 f i GuCCDSweepPrimitives.obj
 0001:00025d40       ?getCenter@?$RelativeConvex@VConvexHullNoScaleV@Gu@physx@@@Gu@physx@@UEBA?AT__m128@@XZ 0000000180026d40 f i GuPCMContactConvexConvex.obj
 0001:00025d40       ?getCenter@?$RelativeConvex@VConvexHullV@Gu@physx@@@Gu@physx@@UEBA?AT__m128@@XZ 0000000180026d40 f i GuOverlapTests.obj
 0001:00025d40       ?getCenter@?$RelativeConvex@VTriangleV@Gu@physx@@@Gu@physx@@UEBA?AT__m128@@XZ 0000000180026d40 f i GuCCDSweepPrimitives.obj
 0001:00025d80       ??_E?$RelativeConvex@UCustomConvexV@@@Gu@physx@@UEAAPEAXI@Z 0000000180026d80 f i GuGjkQuery.obj
 0001:00025d80       ??_E?$RelativeConvex@VBoxV@Gu@physx@@@Gu@physx@@UEAAPEAXI@Z 0000000180026d80 f i GuOverlapTests.obj
 0001:00025d80       ??_E?$RelativeConvex@VCapsuleV@Gu@physx@@@Gu@physx@@UEAAPEAXI@Z 0000000180026d80 f i GuCCDSweepPrimitives.obj
 0001:00025d80       ??_E?$RelativeConvex@VConvexHullNoScaleV@Gu@physx@@@Gu@physx@@UEAAPEAXI@Z 0000000180026d80 f i GuPCMContactConvexConvex.obj
 0001:00025d80       ??_E?$RelativeConvex@VConvexHullV@Gu@physx@@@Gu@physx@@UEAAPEAXI@Z 0000000180026d80 f i GuOverlapTests.obj
 0001:00025d80       ??_E?$RelativeConvex@VTriangleV@Gu@physx@@@Gu@physx@@UEAAPEAXI@Z 0000000180026d80 f i GuCCDSweepPrimitives.obj
 0001:00025d80       ??_G?$RelativeConvex@UCustomConvexV@@@Gu@physx@@UEAAPEAXI@Z 0000000180026d80 f i GuGjkQuery.obj
 0001:00025d80       ??_G?$RelativeConvex@VBoxV@Gu@physx@@@Gu@physx@@UEAAPEAXI@Z 0000000180026d80 f i GuOverlapTests.obj
 0001:00025d80       ??_G?$RelativeConvex@VCapsuleV@Gu@physx@@@Gu@physx@@UEAAPEAXI@Z 0000000180026d80 f i GuCCDSweepPrimitives.obj
 0001:00025d80       ??_G?$RelativeConvex@VConvexHullNoScaleV@Gu@physx@@@Gu@physx@@UEAAPEAXI@Z 0000000180026d80 f i GuPCMContactConvexConvex.obj
 0001:00025d80       ??_G?$RelativeConvex@VConvexHullV@Gu@physx@@@Gu@physx@@UEAAPEAXI@Z 0000000180026d80 f i GuOverlapTests.obj
 0001:00025d80       ??_G?$RelativeConvex@VTriangleV@Gu@physx@@@Gu@physx@@UEAAPEAXI@Z 0000000180026d80 f i GuCCDSweepPrimitives.obj
 0001:00027f00       ?supportPoint@?$RelativeConvex@VConvexHullV@Gu@physx@@@Gu@physx@@UEBA?AT__m128@@H@Z 0000000180028f00 f i GuOverlapTests.obj
 0001:00027f80       ?support@?$RelativeConvex@VConvexHullV@Gu@physx@@@Gu@physx@@UEBA?AT__m128@@AEBT4@@Z 0000000180028f80 f i GuOverlapTests.obj
 0001:000280b0       ?support@?$RelativeConvex@VConvexHullV@Gu@physx@@@Gu@physx@@UEBA?AT__m128@@AEBT4@AEAH@Z 00000001800290b0 f i GuOverlapTests.obj
 0001:00028240       ??$gjk@U?$RelativeConvex@VBoxV@Gu@physx@@@Gu@physx@@U?$LocalConvex@VConvexHullV@Gu@physx@@@23@@Gu@physx@@YA?AW4GjkStatus@01@AEBU?$RelativeConvex@VBoxV@Gu@physx@@@01@AEBU?$LocalConvex@VConvexHullV@Gu@physx@@@01@AEBT__m128@@2AEAT5@333@Z 0000000180029240 f i GuOverlapTests.obj
 0001:00028ff0       ??$gjk@U?$RelativeConvex@VConvexHullV@Gu@physx@@@Gu@physx@@U?$LocalConvex@VConvexHullV@Gu@physx@@@23@@Gu@physx@@YA?AW4GjkStatus@01@AEBU?$RelativeConvex@VConvexHullV@Gu@physx@@@01@AEBU?$LocalConvex@VConvexHullV@Gu@physx@@@01@AEBT__m128@@2AEAT5@333@Z 0000000180029ff0 f i GuOverlapTests.obj
 0001:00029e70       ?ComputeCubemapNearestOffset@physx@@YAIAEBV?$PxVec3T@M@1@I@Z 000000018002ae70 f i GuOverlapTests.obj
 0001:00029f70       ?getOverlapFuncTable@Gu@physx@@YAPEAY0L@Q6A_NAEBVPxGeometry@2@AEBV?$PxTransformT@M@2@01PEAUTriggerCache@12@PEAUPxQueryThreadContext@2@@ZXZ 000000018002af70 f   GuOverlapTests.obj
 0001:0002bb30       ?raycast_box@@YAIAEBVPxGeometry@physx@@AEBV?$PxTransformT@M@2@AEBV?$PxVec3T@M@2@2MV?$PxFlags@W4Enum@PxHitFlag@physx@@G@2@IPEIAUPxGeomRaycastHit@2@IPEAUPxQueryThreadContext@2@@Z 000000018002cb30 f   GuRaycastTests.obj
 0001:0002c160       ?raycast_sphere@@YAIAEBVPxGeometry@physx@@AEBV?$PxTransformT@M@2@AEBV?$PxVec3T@M@2@2MV?$PxFlags@W4Enum@PxHitFlag@physx@@G@2@IPEIAUPxGeomRaycastHit@2@IPEAUPxQueryThreadContext@2@@Z 000000018002d160 f   GuRaycastTests.obj
 0001:0002c2f0       ?raycast_capsule@@YAIAEBVPxGeometry@physx@@AEBV?$PxTransformT@M@2@AEBV?$PxVec3T@M@2@2MV?$PxFlags@W4Enum@PxHitFlag@physx@@G@2@IPEIAUPxGeomRaycastHit@2@IPEAUPxQueryThreadContext@2@@Z 000000018002d2f0 f   GuRaycastTests.obj
 0001:0002c850       ?raycast_plane@@YAIAEBVPxGeometry@physx@@AEBV?$PxTransformT@M@2@AEBV?$PxVec3T@M@2@2MV?$PxFlags@W4Enum@PxHitFlag@physx@@G@2@IPEIAUPxGeomRaycastHit@2@IPEAUPxQueryThreadContext@2@@Z 000000018002d850 f   GuRaycastTests.obj
 0001:0002c9c0       ?raycast_convexMesh@@YAIAEBVPxGeometry@physx@@AEBV?$PxTransformT@M@2@AEBV?$PxVec3T@M@2@2MV?$PxFlags@W4Enum@PxHitFlag@physx@@G@2@IPEIAUPxGeomRaycastHit@2@IPEAUPxQueryThreadContext@2@@Z 000000018002d9c0 f   GuRaycastTests.obj
 0001:0002d4c0       ?getMidphaseID@RTreeTriangleMesh@Gu@physx@@UEBA?AW4Enum@PxMeshMidPhase@3@XZ 000000018002e4c0 f   GuTriangleMeshRTree.obj
 0001:0002d4c0       ?getMidphaseID@RTreeTriangleMeshBuilder@physx@@UEBA?AW4Enum@PxMeshMidPhase@2@XZ 000000018002e4c0 f   GuCookingTriangleMesh.obj
 0001:0002d4c0       ?getTetrahedraRemap@TetrahedronMesh@Gu@physx@@UEBAPEBIXZ 000000018002e4c0 f   GuTetrahedronMesh.obj
 0001:0002d4c0       ?raycast_hairsystem@@YAIAEBVPxGeometry@physx@@AEBV?$PxTransformT@M@2@AEBV?$PxVec3T@M@2@2MV?$PxFlags@W4Enum@PxHitFlag@physx@@G@2@IPEIAUPxGeomRaycastHit@2@IPEAUPxQueryThreadContext@2@@Z 000000018002e4c0 f   GuRaycastTests.obj
 0001:0002d4c0       ?raycast_particlesystem@@YAIAEBVPxGeometry@physx@@AEBV?$PxTransformT@M@2@AEBV?$PxVec3T@M@2@2MV?$PxFlags@W4Enum@PxHitFlag@physx@@G@2@IPEIAUPxGeomRaycastHit@2@IPEAUPxQueryThreadContext@2@@Z 000000018002e4c0 f   GuRaycastTests.obj
 0001:0002d4c0       ?raycast_softbody@@YAIAEBVPxGeometry@physx@@AEBV?$PxTransformT@M@2@AEBV?$PxVec3T@M@2@2MV?$PxFlags@W4Enum@PxHitFlag@physx@@G@2@IPEIAUPxGeomRaycastHit@2@IPEAUPxQueryThreadContext@2@@Z 000000018002e4c0 f   GuRaycastTests.obj
 0001:0002d4d0       ?raycast_triangleMesh@@YAIAEBVPxGeometry@physx@@AEBV?$PxTransformT@M@2@AEBV?$PxVec3T@M@2@2MV?$PxFlags@W4Enum@PxHitFlag@physx@@G@2@IPEIAUPxGeomRaycastHit@2@IPEAUPxQueryThreadContext@2@@Z 000000018002e4d0 f   GuRaycastTests.obj
 0001:0002d560       ?raycast_heightField@@YAIAEBVPxGeometry@physx@@AEBV?$PxTransformT@M@2@AEBV?$PxVec3T@M@2@2MV?$PxFlags@W4Enum@PxHitFlag@physx@@G@2@IPEIAUPxGeomRaycastHit@2@IPEAUPxQueryThreadContext@2@@Z 000000018002e560 f   GuRaycastTests.obj
 0001:0002efb0       ??Dphysx@@YA?AV?$PxMat34T@M@0@AEBVPxMeshScale@0@AEBV?$PxTransformT@M@0@@Z 000000018002ffb0 f i GuRaycastTests.obj
 0001:0002faa0       ?getRaycastFuncTable@Gu@physx@@YAAEAY0L@Q6AIAEBVPxGeometry@2@AEBV?$PxTransformT@M@2@AEBV?$PxVec3T@M@2@2MV?$PxFlags@W4Enum@PxHitFlag@physx@@G@2@IPEIAUPxGeomRaycastHit@2@IPEAUPxQueryThreadContext@2@@ZXZ 0000000180030aa0 f   GuRaycastTests.obj
 0001:0002fab0       ??Dphysx@@YA?AV?$PxMat34T@M@0@AEBV?$PxTransformT@M@0@AEBVPxMeshScale@0@@Z 0000000180030ab0 f i GuSweepMTD.obj
 0001:00030000       ??_E?$MeshHitCallback@UPxGeomRaycastHit@physx@@@Gu@physx@@UEAAPEAXI@Z 0000000180031000 f i GuSweepMTD.obj
 0001:00030000       ??_G?$MeshHitCallback@UPxGeomRaycastHit@physx@@@Gu@physx@@UEAAPEAXI@Z 0000000180031000 f i GuSweepMTD.obj
 0001:00030030       ??_EMeshMTDGenerationCallback@@UEAAPEAXI@Z 0000000180031030 f i GuSweepMTD.obj
 0001:00030030       ??_GMeshMTDGenerationCallback@@UEAAPEAXI@Z 0000000180031030 f i GuSweepMTD.obj
 0001:00030060       ??_EMidPhaseQueryLocalReport@@UEAAPEAXI@Z 0000000180031060 f i GuSweepMTD.obj
 0001:00030060       ??_ERTreeCookerRemap@@UEAAPEAXI@Z 0000000180031060 f i GuCookingTriangleMesh.obj
 0001:00030060       ??_GMidPhaseQueryLocalReport@@UEAAPEAXI@Z 0000000180031060 f i GuSweepMTD.obj
 0001:00030060       ??_GRTreeCookerRemap@@UEAAPEAXI@Z 0000000180031060 f i GuCookingTriangleMesh.obj
 0001:00030090       ?allocate@?$PxArray@IV?$PxReflectionAllocator@I@physx@@@physx@@IEAAPEAII@Z 0000000180031090 f i GuSweepMTD.obj
 0001:00030120       ?computeBox_HeightFieldMTD@Gu@physx@@YA_NAEBVPxHeightFieldGeometry@2@AEBV?$PxTransformT@M@2@AEBVBox@12@1M_NAEAUPxGeomSweepHit@2@@Z 0000000180031120 f   GuSweepMTD.obj
 0001:00030ee0       ?computeBox_TriangleMeshMTD@Gu@physx@@YA_NAEBVPxTriangleMeshGeometry@2@AEBV?$PxTransformT@M@2@AEBVBox@12@1M_NAEAUPxGeomSweepHit@2@@Z 0000000180031ee0 f   GuSweepMTD.obj
 0001:00031f20       ?computeCapsule_CapsuleMTD@Gu@physx@@YA_NAEBVCapsule@12@0AEAUPxGeomSweepHit@2@@Z 0000000180032f20 f   GuSweepMTD.obj
 0001:00032160       ?computeCapsule_HeightFieldMTD@Gu@physx@@YA_NAEBVPxHeightFieldGeometry@2@AEBV?$PxTransformT@M@2@AEAVCapsuleV@12@M_NAEAUPxGeomSweepHit@2@@Z 0000000180033160 f   GuSweepMTD.obj
 0001:00032930       ?computeCapsule_TriangleMeshMTD@Gu@physx@@YA_NAEBVPxTriangleMeshGeometry@2@AEBV?$PxTransformT@M@2@AEAVCapsuleV@12@M_NAEAUPxGeomSweepHit@2@@Z 0000000180033930 f   GuSweepMTD.obj
 0001:000331e0       ?computeConvex_HeightFieldMTD@Gu@physx@@YA_NAEBVPxHeightFieldGeometry@2@AEBV?$PxTransformT@M@2@AEBVPxConvexMeshGeometry@2@1M_NAEAUPxGeomSweepHit@2@@Z 00000001800341e0 f   GuSweepMTD.obj
 0001:000344b0       ?computeConvex_TriangleMeshMTD@Gu@physx@@YA_NAEBVPxTriangleMeshGeometry@2@AEBV?$PxTransformT@M@2@AEBVPxConvexMeshGeometry@2@1M_NAEAUPxGeomSweepHit@2@@Z 00000001800354b0 f   GuSweepMTD.obj
 0001:00035ab0       ?computePlane_BoxMTD@Gu@physx@@YA_NAEBVPxPlane@2@AEBVBox@12@AEAUPxGeomSweepHit@2@@Z 0000000180036ab0 f   GuSweepMTD.obj
 0001:00035d50       ?computePlane_CapsuleMTD@Gu@physx@@YA_NAEBVPxPlane@2@AEBVCapsule@12@AEAUPxGeomSweepHit@2@@Z 0000000180036d50 f   GuSweepMTD.obj
 0001:00035e60       ?computePlane_ConvexMTD@Gu@physx@@YA_NAEBVPxPlane@2@AEBVPxConvexMeshGeometry@2@AEBV?$PxTransformT@M@2@AEAUPxGeomSweepHit@2@@Z 0000000180036e60 f   GuSweepMTD.obj
 0001:00036a20       ?computeSphere_CapsuleMTD@Gu@physx@@YA_NAEBVSphere@12@AEBVCapsule@12@AEAUPxGeomSweepHit@2@@Z 0000000180037a20 f   GuSweepMTD.obj
 0001:00036bd0       ?computeSphere_SphereMTD@Gu@physx@@YA_NAEBVSphere@12@0AEAUPxGeomSweepHit@2@@Z 0000000180037bd0 f   GuSweepMTD.obj
 0001:00036cc0       ?getInverse@?$PxMat33T@M@physx@@QEBA?BV12@XZ 0000000180037cc0 f i GuSweepMTD.obj
 0001:00036f10       ?growAndPushBack@?$PxArray@IV?$PxReflectionAllocator@I@physx@@@physx@@IEAAAEAIAEBI@Z 0000000180037f10 f i GuSweepMTD.obj
 0001:00036fd0       ?init@FastVertex2ShapeScaling@Cm@physx@@QEAAXAEBV?$PxVec3T@M@3@AEBV?$PxQuatT@M@3@@Z 0000000180037fd0 f i GuSweepMTD.obj
 0001:000378e0       ?processHit@MeshMTDGenerationCallback@@UEAA_NAEBUPxGeomRaycastHit@physx@@AEBV?$PxVec3T@M@3@11AEAMPEBI@Z 00000001800388e0 f i GuSweepMTD.obj
 0001:00037930       ?recreate@?$PxArray@IV?$PxReflectionAllocator@I@physx@@@physx@@IEAAXI@Z 0000000180038930 f i GuSweepMTD.obj
 0001:000379d0       ?reportTouchedTris@MidPhaseQueryLocalReport@@UEAA_NIPEBI@Z 00000001800389d0 f i GuSweepMTD.obj
 0001:00037a40       ??$gjkPenetration@U?$LocalConvex@VCapsuleV@Gu@physx@@@Gu@physx@@U?$LocalConvex@VConvexHullV@Gu@physx@@@23@@Gu@physx@@YA?AW4GjkStatus@01@AEBU?$LocalConvex@VCapsuleV@Gu@physx@@@01@AEBU?$LocalConvex@VConvexHullV@Gu@physx@@@01@AEBT__m128@@2_NPEIAE4AEAEAEAUGjkOutput@01@@Z 0000000180038a40 f i GuSweepSharedTests.obj
 0001:00037ab0       ??$gjkPenetration@U?$LocalConvex@VCapsuleV@Gu@physx@@@Gu@physx@@U?$LocalConvex@VConvexHullV@Gu@physx@@@23@@Gu@physx@@YA?AW4GjkStatus@01@AEBU?$LocalConvex@VCapsuleV@Gu@physx@@@01@AEBU?$LocalConvex@VConvexHullV@Gu@physx@@@01@AEBT__m128@@2_NPEIAE4PEIAT5@5AEAEAEAUGjkOutput@01@@Z 0000000180038ab0 f i GuSweepSharedTests.obj
 0001:00038fe0       ??$gjkPenetration@U?$RelativeConvex@VBoxV@Gu@physx@@@Gu@physx@@U?$LocalConvex@VConvexHullV@Gu@physx@@@23@@Gu@physx@@YA?AW4GjkStatus@01@AEBU?$RelativeConvex@VBoxV@Gu@physx@@@01@AEBU?$LocalConvex@VConvexHullV@Gu@physx@@@01@AEBT__m128@@2_NPEIAE4AEAEAEAUGjkOutput@01@@Z 0000000180039fe0 f i GuSweepSharedTests.obj
 0001:00039050       ??$gjkPenetration@U?$RelativeConvex@VBoxV@Gu@physx@@@Gu@physx@@U?$LocalConvex@VConvexHullV@Gu@physx@@@23@@Gu@physx@@YA?AW4GjkStatus@01@AEBU?$RelativeConvex@VBoxV@Gu@physx@@@01@AEBU?$LocalConvex@VConvexHullV@Gu@physx@@@01@AEBT__m128@@2_NPEIAE4PEIAT5@5AEAEAEAUGjkOutput@01@@Z 000000018003a050 f i GuSweepSharedTests.obj
 0001:0003a5c0       ??$gjkPenetration@U?$RelativeConvex@VConvexHullV@Gu@physx@@@Gu@physx@@U?$LocalConvex@VConvexHullV@Gu@physx@@@23@@Gu@physx@@YA?AW4GjkStatus@01@AEBU?$RelativeConvex@VConvexHullV@Gu@physx@@@01@AEBU?$LocalConvex@VConvexHullV@Gu@physx@@@01@AEBT__m128@@2_NPEIAE4AEAEAEAUGjkOutput@01@@Z 000000018003b5c0 f i GuSweepSharedTests.obj
 0001:0003a630       ??$gjkPenetration@U?$RelativeConvex@VConvexHullV@Gu@physx@@@Gu@physx@@U?$LocalConvex@VConvexHullV@Gu@physx@@@23@@Gu@physx@@YA?AW4GjkStatus@01@AEBU?$RelativeConvex@VConvexHullV@Gu@physx@@@01@AEBU?$LocalConvex@VConvexHullV@Gu@physx@@@01@AEBT__m128@@2_NPEIAE4PEIAT5@5AEAEAEAUGjkOutput@01@@Z 000000018003b630 f i GuSweepSharedTests.obj
 0001:0003bc50       ??$gjkRaycast@U?$LocalConvex@VCapsuleV@Gu@physx@@@Gu@physx@@U?$LocalConvex@VConvexHullV@Gu@physx@@@23@@Gu@physx@@YA_NAEBU?$LocalConvex@VCapsuleV@Gu@physx@@@01@AEBU?$LocalConvex@VConvexHullV@Gu@physx@@@01@AEBT__m128@@222AEAT4@33M@Z 000000018003cc50 f i GuSweepSharedTests.obj
 0001:0003c9a0       ??$gjkRaycast@U?$RelativeConvex@VBoxV@Gu@physx@@@Gu@physx@@U?$LocalConvex@VConvexHullV@Gu@physx@@@23@@Gu@physx@@YA_NAEBU?$RelativeConvex@VBoxV@Gu@physx@@@01@AEBU?$LocalConvex@VConvexHullV@Gu@physx@@@01@AEBT__m128@@222AEAT4@33M@Z 000000018003d9a0 f i GuSweepSharedTests.obj
 0001:0003d790       ??$gjkRaycast@U?$RelativeConvex@VConvexHullV@Gu@physx@@@Gu@physx@@U?$LocalConvex@VConvexHullV@Gu@physx@@@23@@Gu@physx@@YA_NAEBU?$RelativeConvex@VConvexHullV@Gu@physx@@@01@AEBU?$LocalConvex@VConvexHullV@Gu@physx@@@01@AEBT__m128@@222AEAT4@33M@Z 000000018003e790 f i GuSweepSharedTests.obj
 0001:0003e570       ??$gjkRaycastPenetration@U?$RelativeConvex@VConvexHullV@Gu@physx@@@Gu@physx@@U?$LocalConvex@VConvexHullV@Gu@physx@@@23@@Gu@physx@@YA_NAEBU?$RelativeConvex@VConvexHullV@Gu@physx@@@01@AEBU?$LocalConvex@VConvexHullV@Gu@physx@@@01@AEBT__m128@@222AEAT4@33M_N@Z 000000018003f570 f i GuSweepSharedTests.obj
 0001:0003f140       ?sweepBox_ConvexGeom@@YA_NAEBVPxGeometry@physx@@AEBV?$PxTransformT@M@2@AEBVPxBoxGeometry@2@1AEBVBox@Gu@2@AEBV?$PxVec3T@M@2@MAEAUPxGeomSweepHit@2@V?$PxFlags@W4Enum@PxHitFlag@physx@@G@2@MPEAUPxQueryThreadContext@2@@Z 0000000180040140 f   GuSweepSharedTests.obj
 0001:0003ff60       ?sweepBox_PlaneGeom@@YA_NAEBVPxGeometry@physx@@AEBV?$PxTransformT@M@2@AEBVPxBoxGeometry@2@1AEBVBox@Gu@2@AEBV?$PxVec3T@M@2@MAEAUPxGeomSweepHit@2@V?$PxFlags@W4Enum@PxHitFlag@physx@@G@2@MPEAUPxQueryThreadContext@2@@Z 0000000180040f60 f   GuSweepSharedTests.obj
 0001:00040330       ?sweepCapsuleTriangles@Gu@physx@@YA_NIPEBVPxTriangle@2@_NAEBVPxCapsuleGeometry@2@AEBV?$PxTransformT@M@2@AEBV?$PxVec3T@M@2@MAEAUPxGeomSweepHit@2@PEBIMV?$PxFlags@W4Enum@PxHitFlag@physx@@G@2@@Z 0000000180041330 f   GuSweepSharedTests.obj
 0001:00040520       ?sweepCapsule_CapsuleGeom@@YA_NAEBVPxGeometry@physx@@AEBV?$PxTransformT@M@2@AEBVPxCapsuleGeometry@2@1AEBVCapsule@Gu@2@AEBV?$PxVec3T@M@2@MAEAUPxGeomSweepHit@2@V?$PxFlags@W4Enum@PxHitFlag@physx@@G@2@MPEAUPxQueryThreadContext@2@@Z 0000000180041520 f   GuSweepSharedTests.obj
 0001:00040700       ?sweepCapsule_ConvexGeom@@YA_NAEBVPxGeometry@physx@@AEBV?$PxTransformT@M@2@AEBVPxCapsuleGeometry@2@1AEBVCapsule@Gu@2@AEBV?$PxVec3T@M@2@MAEAUPxGeomSweepHit@2@V?$PxFlags@W4Enum@PxHitFlag@physx@@G@2@MPEAUPxQueryThreadContext@2@@Z 0000000180041700 f   GuSweepSharedTests.obj
 0001:00041430       ?sweepCapsule_PlaneGeom@@YA_NAEBVPxGeometry@physx@@AEBV?$PxTransformT@M@2@AEBVPxCapsuleGeometry@2@1AEBVCapsule@Gu@2@AEBV?$PxVec3T@M@2@MAEAUPxGeomSweepHit@2@V?$PxFlags@W4Enum@PxHitFlag@physx@@G@2@MPEAUPxQueryThreadContext@2@@Z 0000000180042430 f   GuSweepSharedTests.obj
 0001:00041710       ?sweepCapsule_SphereGeom@@YA_NAEBVPxGeometry@physx@@AEBV?$PxTransformT@M@2@AEBVPxCapsuleGeometry@2@1AEBVCapsule@Gu@2@AEBV?$PxVec3T@M@2@MAEAUPxGeomSweepHit@2@V?$PxFlags@W4Enum@PxHitFlag@physx@@G@2@MPEAUPxQueryThreadContext@2@@Z 0000000180042710 f   GuSweepSharedTests.obj
 0001:000418b0       ?sweepConvex_BoxGeom@@YA_NAEBVPxGeometry@physx@@AEBV?$PxTransformT@M@2@AEBVPxConvexMeshGeometry@2@1AEBV?$PxVec3T@M@2@MAEAUPxGeomSweepHit@2@V?$PxFlags@W4Enum@PxHitFlag@physx@@G@2@MPEAUPxQueryThreadContext@2@@Z 00000001800428b0 f   GuSweepSharedTests.obj
 0001:00041ad0       ?sweepConvex_CapsuleGeom@@YA_NAEBVPxGeometry@physx@@AEBV?$PxTransformT@M@2@AEBVPxConvexMeshGeometry@2@1AEBV?$PxVec3T@M@2@MAEAUPxGeomSweepHit@2@V?$PxFlags@W4Enum@PxHitFlag@physx@@G@2@MPEAUPxQueryThreadContext@2@@Z 0000000180042ad0 f   GuSweepSharedTests.obj
 0001:00041d00       ?sweepConvex_ConvexGeom@@YA_NAEBVPxGeometry@physx@@AEBV?$PxTransformT@M@2@AEBVPxConvexMeshGeometry@2@1AEBV?$PxVec3T@M@2@MAEAUPxGeomSweepHit@2@V?$PxFlags@W4Enum@PxHitFlag@physx@@G@2@MPEAUPxQueryThreadContext@2@@Z 0000000180042d00 f   GuSweepSharedTests.obj
 0001:00042ce0       ?sweepConvex_PlaneGeom@@YA_NAEBVPxGeometry@physx@@AEBV?$PxTransformT@M@2@AEBVPxConvexMeshGeometry@2@1AEBV?$PxVec3T@M@2@MAEAUPxGeomSweepHit@2@V?$PxFlags@W4Enum@PxHitFlag@physx@@G@2@MPEAUPxQueryThreadContext@2@@Z 0000000180043ce0 f   GuSweepSharedTests.obj
 0001:00043120       ?sweepConvex_SphereGeom@@YA_NAEBVPxGeometry@physx@@AEBV?$PxTransformT@M@2@AEBVPxConvexMeshGeometry@2@1AEBV?$PxVec3T@M@2@MAEAUPxGeomSweepHit@2@V?$PxFlags@W4Enum@PxHitFlag@physx@@G@2@MPEAUPxQueryThreadContext@2@@Z 0000000180044120 f   GuSweepSharedTests.obj
 0001:00043d20       ?sweepCapsule_BoxGeom@@YA_NAEBVPxGeometry@physx@@AEBV?$PxTransformT@M@2@AEBVPxCapsuleGeometry@2@1AEBVCapsule@Gu@2@AEBV?$PxVec3T@M@2@MAEAUPxGeomSweepHit@2@V?$PxFlags@W4Enum@PxHitFlag@physx@@G@2@MPEAUPxQueryThreadContext@2@@Z 0000000180044d20 f   GuSweepTests.obj
 0001:000445e0       ?sweepBox_SphereGeom@@YA_NAEBVPxGeometry@physx@@AEBV?$PxTransformT@M@2@AEBVPxBoxGeometry@2@1AEBVBox@Gu@2@AEBV?$PxVec3T@M@2@MAEAUPxGeomSweepHit@2@V?$PxFlags@W4Enum@PxHitFlag@physx@@G@2@MPEAUPxQueryThreadContext@2@@Z 00000001800455e0 f   GuSweepTests.obj
 0001:00044cc0       ?sweepBox_CapsuleGeom@@YA_NAEBVPxGeometry@physx@@AEBV?$PxTransformT@M@2@AEBVPxBoxGeometry@2@1AEBVBox@Gu@2@AEBV?$PxVec3T@M@2@MAEAUPxGeomSweepHit@2@V?$PxFlags@W4Enum@PxHitFlag@physx@@G@2@MPEAUPxQueryThreadContext@2@@Z 0000000180045cc0 f   GuSweepTests.obj
 0001:00045590       ?sweepBox_BoxGeom@@YA_NAEBVPxGeometry@physx@@AEBV?$PxTransformT@M@2@AEBVPxBoxGeometry@2@1AEBVBox@Gu@2@AEBV?$PxVec3T@M@2@MAEAUPxGeomSweepHit@2@V?$PxFlags@W4Enum@PxHitFlag@physx@@G@2@MPEAUPxQueryThreadContext@2@@Z 0000000180046590 f   GuSweepTests.obj
 0001:00045f90       ??$gjkPenetration@U?$LocalConvex@VCapsuleV@Gu@physx@@@Gu@physx@@U?$LocalConvex@VBoxV@Gu@physx@@@23@@Gu@physx@@YA?AW4GjkStatus@01@AEBU?$LocalConvex@VCapsuleV@Gu@physx@@@01@AEBU?$LocalConvex@VBoxV@Gu@physx@@@01@AEBT__m128@@2_NPEIAE4AEAEAEAUGjkOutput@01@@Z 0000000180046f90 f i GuSweepTests.obj
 0001:00046000       ??$gjkPenetration@U?$LocalConvex@VCapsuleV@Gu@physx@@@Gu@physx@@U?$LocalConvex@VBoxV@Gu@physx@@@23@@Gu@physx@@YA?AW4GjkStatus@01@AEBU?$LocalConvex@VCapsuleV@Gu@physx@@@01@AEBU?$LocalConvex@VBoxV@Gu@physx@@@01@AEBT__m128@@2_NPEIAE4PEIAT5@5AEAEAEAUGjkOutput@01@@Z 0000000180047000 f i GuSweepTests.obj
 0001:00047480       ??$gjkPenetration@U?$RelativeConvex@VBoxV@Gu@physx@@@Gu@physx@@U?$LocalConvex@VBoxV@Gu@physx@@@23@@Gu@physx@@YA?AW4GjkStatus@01@AEBU?$RelativeConvex@VBoxV@Gu@physx@@@01@AEBU?$LocalConvex@VBoxV@Gu@physx@@@01@AEBT__m128@@2_NPEIAE4AEAEAEAUGjkOutput@01@@Z 0000000180048480 f i GuSweepTests.obj
 0001:000474f0       ??$gjkPenetration@U?$RelativeConvex@VBoxV@Gu@physx@@@Gu@physx@@U?$LocalConvex@VBoxV@Gu@physx@@@23@@Gu@physx@@YA?AW4GjkStatus@01@AEBU?$RelativeConvex@VBoxV@Gu@physx@@@01@AEBU?$LocalConvex@VBoxV@Gu@physx@@@01@AEBT__m128@@2_NPEIAE4PEIAT5@5AEAEAEAUGjkOutput@01@@Z 00000001800484f0 f i GuSweepTests.obj
 0001:000489a0       ??$gjkRaycast@U?$LocalConvex@VCapsuleV@Gu@physx@@@Gu@physx@@U?$LocalConvex@VBoxV@Gu@physx@@@23@@Gu@physx@@YA_NAEBU?$LocalConvex@VCapsuleV@Gu@physx@@@01@AEBU?$LocalConvex@VBoxV@Gu@physx@@@01@AEBT__m128@@222AEAT4@33M@Z 00000001800499a0 f i GuSweepTests.obj
 0001:00049570       ??$gjkRaycast@U?$LocalConvex@VTriangleV@Gu@physx@@@Gu@physx@@U?$LocalConvex@VBoxV@Gu@physx@@@23@@Gu@physx@@YA_NAEBU?$LocalConvex@VTriangleV@Gu@physx@@@01@AEBU?$LocalConvex@VBoxV@Gu@physx@@@01@AEBT__m128@@222AEAT4@33M@Z 000000018004a570 f i GuSweepTests.obj
 0001:0004a1c0       ??$gjkRaycast@U?$RelativeConvex@VBoxV@Gu@physx@@@Gu@physx@@U?$LocalConvex@VBoxV@Gu@physx@@@23@@Gu@physx@@YA_NAEBU?$RelativeConvex@VBoxV@Gu@physx@@@01@AEBU?$LocalConvex@VBoxV@Gu@physx@@@01@AEBT__m128@@222AEAT4@33M@Z 000000018004b1c0 f i GuSweepTests.obj
 0001:0004adf0       ?getSweepFuncTable@Gu@physx@@YAAEBUGeomSweepFuncs@12@XZ 000000018004bdf0 f   GuSweepTests.obj
 0001:0004ae00       ?getSweepMargin@?$LocalConvex@VTetrahedronV@Gu@physx@@@Gu@physx@@UEBA?AT__m128@@XZ 000000018004be00 f i GuCookingTetrahedronMesh.obj
 0001:0004ae00       ?getSweepMargin@?$LocalConvex@VTriangleV@Gu@physx@@@Gu@physx@@UEBA?AT__m128@@XZ 000000018004be00 f i GuSweepTests.obj
 0001:0004ae00       ?getSweepMargin@?$RelativeConvex@VTriangleV@Gu@physx@@@Gu@physx@@UEBA?AT__m128@@XZ 000000018004be00 f i GuCCDSweepPrimitives.obj
 0001:0004ae10       ?support@?$LocalConvex@VBoxV@Gu@physx@@@Gu@physx@@UEBA?AT__m128@@AEBT4@@Z 000000018004be10 f i GuSweepTests.obj
 0001:0004ae40       ?support@?$LocalConvex@VBoxV@Gu@physx@@@Gu@physx@@UEBA?AT__m128@@AEBT4@AEAH@Z 000000018004be40 f i GuSweepTests.obj
 0001:0004ae80       ?support@?$LocalConvex@VTriangleV@Gu@physx@@@Gu@physx@@UEBA?AT__m128@@AEBT4@@Z 000000018004be80 f i GuSweepTests.obj
 0001:0004af10       ?support@?$LocalConvex@VTriangleV@Gu@physx@@@Gu@physx@@UEBA?AT__m128@@AEBT4@AEAH@Z 000000018004bf10 f i GuSweepTests.obj
 0001:0004aff0       ?supportPoint@?$LocalConvex@VBoxV@Gu@physx@@@Gu@physx@@UEBA?AT__m128@@H@Z 000000018004bff0 f i GuSweepTests.obj
 0001:0004b030       ?supportPoint@?$LocalConvex@VTetrahedronV@Gu@physx@@@Gu@physx@@UEBA?AT__m128@@H@Z 000000018004c030 f i GuCookingTetrahedronMesh.obj
 0001:0004b030       ?supportPoint@?$LocalConvex@VTriangleV@Gu@physx@@@Gu@physx@@UEBA?AT__m128@@H@Z 000000018004c030 f i GuSweepTests.obj
 0001:0004b050       ?sweepBoxTriangles@Gu@physx@@YA_NIPEBVPxTriangle@2@_NAEBVPxBoxGeometry@2@AEBV?$PxTransformT@M@2@AEBV?$PxVec3T@M@2@MAEAUPxGeomSweepHit@2@PEBIMV?$PxFlags@W4Enum@PxHitFlag@physx@@G@2@@Z 000000018004c050 f   GuSweepTests.obj
 0001:0004bad0       ??$PxSmallSort@H$$CBU?$Comparer@V?$PxVec3T@M@physx@@@MeshAnalyzer@Gu@physx@@@physx@@YAXPEAHHHAEBU?$Comparer@V?$PxVec3T@M@physx@@@MeshAnalyzer@Gu@0@@Z 000000018004cad0 f i GuSDF.obj
 0001:0004bcf0       ??$PxSort@HU?$Comparer@V?$PxVec3T@M@physx@@@MeshAnalyzer@Gu@physx@@V?$PxReflectionAllocator@H@4@@physx@@YAXPEAHIAEBU?$Comparer@V?$PxVec3T@M@physx@@@MeshAnalyzer@Gu@0@AEBV?$PxReflectionAllocator@H@0@I@Z 000000018004ccf0 f i GuSDF.obj
 0001:0004c170       ??$PxSort@HU?$PxLess@H@physx@@V?$PxReflectionAllocator@H@2@@physx@@YAXPEAHIAEBU?$PxLess@H@0@AEBV?$PxReflectionAllocator@H@0@I@Z 000000018004d170 f i GuSDF.obj
 0001:0004c5c0       ??$mapDuplicatePoints@V?$PxVec3T@M@physx@@M@MeshAnalyzer@Gu@physx@@SAXPEBV?$PxVec3T@M@2@IAEAV?$PxArray@HV?$PxReflectionAllocator@H@physx@@@2@M@Z 000000018004d5c0 f i GuSDF.obj
 0001:0004c940       ??$splitRanges@V?$PxVec3T@M@physx@@M@MeshAnalyzer@Gu@physx@@CAXAEAV?$PxArray@URange@MeshAnalyzer@Gu@physx@@V?$PxReflectionAllocator@URange@MeshAnalyzer@Gu@physx@@@4@@2@AEBV?$PxArray@HV?$PxReflectionAllocator@H@physx@@@2@PEBV?$PxVec3T@M@2@HM@Z 000000018004d940 f i GuSDF.obj
 0001:0004cbb0       ??$traverseBVH@VClosestDistanceToTrimeshTraversalController@Gu@physx@@@Gu@physx@@YAXPEBUBVHNode@01@AEAVClosestDistanceToTrimeshTraversalController@01@H@Z 000000018004dbb0 f i GuSDF.obj
 0001:0004cfb0       ??$traverseBVH@VLineSegmentTrimeshIntersectionTraversalController@Gu@physx@@@Gu@physx@@YAXPEBUBVHNode@01@AEAVLineSegmentTrimeshIntersectionTraversalController@01@H@Z 000000018004dfb0 f i GuSDF.obj
 0001:0004d4b0       ??1SDF@Gu@physx@@QEAA@XZ   000000018004e4b0 f   GuSDF.obj
 0001:0004d540       ??_E?$PxThreadT@V?$PxReflectionAllocator@VPxThreadImpl@physx@@@physx@@@physx@@UEAAPEAXI@Z 000000018004e540 f i GuSDF.obj
 0001:0004d540       ??_G?$PxThreadT@V?$PxReflectionAllocator@VPxThreadImpl@physx@@@physx@@@physx@@UEAAPEAXI@Z 000000018004e540 f i GuSDF.obj
 0001:0004d5f0       ??_EPxRunnable@physx@@UEAAPEAXI@Z 000000018004e5f0 f i GuSDF.obj
 0001:0004d5f0       ??_GPxRunnable@physx@@UEAAPEAXI@Z 000000018004e5f0 f i GuSDF.obj
 0001:0004d620       ?PxCreatePointOntoTriangleMeshProjector@Gu@physx@@YAPEAVPxPointOntoTriangleMeshProjector@12@PEBV?$PxVec3T@M@2@PEBII@Z 000000018004e620 f   GuSDF.obj
 0001:0004d720       ?SDFUsingWindingNumbers@Gu@physx@@YAXAEAV?$PxArray@UBVHNode@Gu@physx@@V?$PxReflectionAllocator@UBVHNode@Gu@physx@@@3@@2@AEAV?$PxHashMap@IU?$ClusterApproximationT@MV?$PxVec3T@M@physx@@@Gu@physx@@U?$PxHash@I@3@VPxAllocator@3@@2@PEBV?$PxVec3T@M@2@PEBIIIIIPEAMAEAVGridQueryPointSampler@12@PEAV52@I_N7@Z 000000018004e720 f   GuSDF.obj
 0001:0004dc40       ?SDFUsingWindingNumbers@Gu@physx@@YAXPEBV?$PxVec3T@M@2@PEBIIIIIPEAMV32@3PEAV32@_NI@Z 000000018004ec40 f   GuSDF.obj
 0001:0004dfa0       ?SDFUsingWindingNumbersSparse@Gu@physx@@YAXPEBV?$PxVec3T@M@2@PEBIIIIIAEBV32@2MIAEAV?$PxArray@MV?$PxReflectionAllocator@M@physx@@@2@AEAV?$PxArray@IV?$PxReflectionAllocator@I@physx@@@2@33AEAM5I@Z 000000018004efa0 f   GuSDF.obj
 0001:0004edb0       ?allocate@?$PxArray@HV?$PxInlineAllocator@$0EAA@V?$PxReflectionAllocator@H@physx@@@physx@@@physx@@IEAAPEAHI@Z 000000018004fdb0 f i GuSDF.obj
 0001:0004ee70       ?allocate@?$PxArray@MV?$PxReflectionAllocator@M@physx@@@physx@@IEAAPEAMI@Z 000000018004fe70 f i GuSDF.obj
 0001:0004ef00       ?allocateSdfs@SDF@Gu@physx@@QEAAPEAMAEBV?$PxVec3T@M@3@AEBMIIIIIIIMMI@Z 000000018004ff00 f   GuSDF.obj
 0001:0004f110       ?analyzeAndFixMesh@Gu@physx@@YAXPEBV?$PxVec3T@M@2@PEBIIAEAV?$PxArray@IV?$PxReflectionAllocator@I@physx@@@2@@Z 0000000180050110 f   GuSDF.obj
 0001:0004f970       ?buildTree@Gu@physx@@YAXPEBIIPEBV?$PxVec3T@M@2@AEAV?$PxArray@UBVHNode@Gu@physx@@V?$PxReflectionAllocator@UBVHNode@Gu@physx@@@3@@2@M@Z 0000000180050970 f   GuSDF.obj
 0001:0004fba0       ?computeSDFThreadJob@Gu@physx@@YAPEAXPEAX@Z 0000000180050ba0 f   GuSDF.obj
 0001:00050620       ?convertSparseSDFTo3DTextureLayout@Gu@physx@@YAXIIIIPEAIPEBMIAEAV?$PxArray@MV?$PxReflectionAllocator@M@physx@@@2@AEAI33@Z 0000000180051620 f   GuSDF.obj
 0001:000509d0       ?create@?$PxHashBase@V?$PxPair@$$CBUSortedTriangle@Gu@physx@@H@physx@@USortedTriangle@Gu@2@UTriangleHash@42@UGetKey@?$PxHashMapBase@USortedTriangle@Gu@physx@@HUTriangleHash@23@VPxAllocator@3@@2@VPxAllocator@2@$00@physx@@QEAAPEAV?$PxPair@$$CBUSortedTriangle@Gu@physx@@H@2@AEBUSortedTriangle@Gu@2@AEA_N@Z 00000001800519d0 f i GuSDF.obj
 0001:00050b00       ?create@?$PxHashBase@V?$PxPair@$$CB_KH@physx@@_KU?$PxHash@_K@2@UGetKey@?$PxHashMapBase@_KHU?$PxHash@_K@physx@@VPxAllocator@2@@2@VPxAllocator@2@$00@physx@@QEAAPEAV?$PxPair@$$CB_KH@2@AEB_KAEA_N@Z 0000000180051b00 f i GuMeshAnalysis.obj
 0001:00050b00       ?create@?$PxHashBase@V?$PxPair@$$CB_KI@physx@@_KU?$PxHash@_K@2@UGetKey@?$PxHashMapBase@_KIU?$PxHash@_K@physx@@VPxAllocator@2@@2@VPxAllocator@2@$00@physx@@QEAAPEAV?$PxPair@$$CB_KI@2@AEB_KAEA_N@Z 0000000180051b00 f i GuSDF.obj
 0001:00050c90       ?createTriangles@Gu@physx@@YAXHHHMQEAMAEBV?$PxHashMap@_KIU?$PxHash@_K@physx@@VPxAllocator@2@@2@AEBV?$PxArray@V?$PxVec3T@M@physx@@V?$PxReflectionAllocator@V?$PxVec3T@M@physx@@@2@@2@AEAV?$PxArray@IV?$PxReflectionAllocator@I@physx@@@2@@Z 0000000180051c90 f   GuSDF.obj
 0001:000514f0       ?extractIsosurfaceFromSDF@Gu@physx@@YAXAEBVSDF@12@AEAV?$PxArray@V?$PxVec3T@M@physx@@V?$PxReflectionAllocator@V?$PxVec3T@M@physx@@@2@@2@AEAV?$PxArray@IV?$PxReflectionAllocator@I@physx@@@2@@Z 00000001800524f0 f   GuSDF.obj
 0001:000532c0       ?fixSdfForNonClosedGeometry@Gu@physx@@YAXIIIPEAMAEBV?$PxVec3T@M@2@@Z 00000001800542c0 f   GuSDF.obj
 0001:000543a0       ?generatePointInCell@Gu@physx@@YA_NAEBVSDF@12@HHHAEAV?$PxVec3T@M@2@QEAY111M@Z 00000001800553a0 f   GuSDF.obj
 0001:000547f0       ?growAndPushBack@?$PxArray@HV?$PxInlineAllocator@$0EAA@V?$PxReflectionAllocator@H@physx@@@physx@@@physx@@IEAAAEAHAEBH@Z 00000001800557f0 f i GuSDF.obj
 0001:000548e0       ?growAndPushBack@?$PxArray@MV?$PxReflectionAllocator@M@physx@@@physx@@IEAAAEAMAEBM@Z 00000001800558e0 f i GuSDF.obj
 0001:000549c0       ?growAndPushBack@?$PxArray@PEAV?$PxThreadT@V?$PxReflectionAllocator@VPxThreadImpl@physx@@@physx@@@physx@@V?$PxReflectionAllocator@PEAV?$PxThreadT@V?$PxReflectionAllocator@VPxThreadImpl@physx@@@physx@@@physx@@@2@@physx@@IEAAAEAPEAV?$PxThreadT@V?$PxReflectionAllocator@VPxThreadImpl@physx@@@physx@@@2@AEBQEAV32@@Z 00000001800559c0 f i GuSDF.obj
 0001:00054ae0       ?growAndPushBack@?$PxArray@UMutation@Gu@physx@@V?$PxReflectionAllocator@UMutation@Gu@physx@@@3@@physx@@IEAAAEAUMutation@Gu@2@AEBU342@@Z 0000000180055ae0 f i GuSDF.obj
 0001:00054c00       ?growAndPushBack@?$PxArray@URange@Gu@physx@@V?$PxReflectionAllocator@URange@Gu@physx@@@3@@physx@@IEAAAEAURange@Gu@2@AEBU342@@Z 0000000180055c00 f i GuSDF.obj
 0001:00054d30       ?growAndPushBack@?$PxArray@URange@MeshAnalyzer@Gu@physx@@V?$PxReflectionAllocator@URange@MeshAnalyzer@Gu@physx@@@4@@physx@@IEAAAEAURange@MeshAnalyzer@Gu@2@AEBU3452@@Z 0000000180055d30 f i GuSDF.obj
 0001:00054e50       ?growAndPushBack@?$PxArray@USDFCalculationData@Gu@physx@@V?$PxReflectionAllocator@USDFCalculationData@Gu@physx@@@3@@physx@@IEAAAEAUSDFCalculationData@Gu@2@AEBU342@@Z 0000000180055e50 f i GuSDF.obj
 0001:00054fd0       ?growAndPushBack@?$PxArray@V?$PxVec3T@M@physx@@V?$PxReflectionAllocator@V?$PxVec3T@M@physx@@@2@@physx@@IEAAAEAV?$PxVec3T@M@2@AEBV32@@Z 0000000180055fd0 f i GuSDF.obj
 0001:000551b0       ?projectPoint@PointOntoTriangleMeshProjector@Gu@physx@@UEAA?AV?$PxVec3T@M@3@AEBV43@@Z 00000001800561b0 f i GuSDF.obj
 0001:00055220       ?projectPoint@PointOntoTriangleMeshProjector@Gu@physx@@UEAA?AV?$PxVec3T@M@3@AEBV43@AEAI@Z 0000000180056220 f i GuSDF.obj
 0001:000552a0       ?recreate@?$PxArray@HV?$PxReflectionAllocator@H@physx@@@physx@@IEAAXI@Z 00000001800562a0 f i GuSDF.obj
 0001:00055390       ?recreate@?$PxArray@MV?$PxReflectionAllocator@M@physx@@@physx@@IEAAXI@Z 0000000180056390 f i GuSDF.obj
 0001:00055470       ?recreate@?$PxArray@UBVHNode@Gu@physx@@V?$PxReflectionAllocator@UBVHNode@Gu@physx@@@3@@physx@@IEAAXI@Z 0000000180056470 f i GuSDF.obj
 0001:000556b0       ?release@PointOntoTriangleMeshProjector@Gu@physx@@UEAAXXZ 00000001800566b0 f i GuSDF.obj
 0001:00055700       ?reserveInternal@?$PxHashBase@V?$PxPair@$$CBIU?$ClusterApproximationT@MV?$PxVec3T@M@physx@@@Gu@physx@@@physx@@IU?$PxHash@I@2@UGetKey@?$PxHashMapBase@IU?$ClusterApproximationT@MV?$PxVec3T@M@physx@@@Gu@physx@@U?$PxHash@I@3@VPxAllocator@3@@2@VPxAllocator@2@$00@physx@@AEAAXI@Z 0000000180056700 f i GuSDF.obj
 0001:00055900       ?reserveInternal@?$PxHashBase@V?$PxPair@$$CBUSortedTriangle@Gu@physx@@H@physx@@USortedTriangle@Gu@2@UTriangleHash@42@UGetKey@?$PxHashMapBase@USortedTriangle@Gu@physx@@HUTriangleHash@23@VPxAllocator@3@@2@VPxAllocator@2@$00@physx@@AEAAXI@Z 0000000180056900 f i GuSDF.obj
 0001:00055aa0       ?reserveInternal@?$PxHashBase@V?$PxPair@$$CB_KH@physx@@_KU?$PxHash@_K@2@UGetKey@?$PxHashMapBase@_KHU?$PxHash@_K@physx@@VPxAllocator@2@@2@VPxAllocator@2@$00@physx@@AEAAXI@Z 0000000180056aa0 f i GuSDF.obj
 0001:00055aa0       ?reserveInternal@?$PxHashBase@V?$PxPair@$$CB_KI@physx@@_KU?$PxHash@_K@2@UGetKey@?$PxHashMapBase@_KIU?$PxHash@_K@physx@@VPxAllocator@2@@2@VPxAllocator@2@$00@physx@@AEAAXI@Z 0000000180056aa0 f i GuSDF.obj
 0001:00055c80       ?resize@?$PxArray@IV?$PxReflectionAllocator@I@physx@@@physx@@QEAAXIAEBI@Z 0000000180056c80 f i GuSDF.obj
 0001:00055d40       ?resize@?$PxArray@MV?$PxReflectionAllocator@M@physx@@@physx@@QEAAXIAEBM@Z 0000000180056d40 f i GuSDF.obj
 0001:00055e50       ?resize@?$PxArray@UBVHNode@Gu@physx@@V?$PxReflectionAllocator@UBVHNode@Gu@physx@@@3@@physx@@QEAAXIAEBUBVHNode@Gu@2@@Z 0000000180056e50 f i GuSDF.obj
 0001:00055fd0       ?sampleSDFDirect@?$DenseSDF@M@Gu@physx@@QEAAMAEBV?$PxVec3T@M@3@@Z 0000000180056fd0 f i GuSDF.obj
 0001:00056160       ?signedVolume@Gu@physx@@YAMPEBV?$PxVec3T@M@2@PEBII1I@Z 0000000180057160 f   GuSDF.obj
 0001:000566a0       ?windingNumbers@Gu@physx@@YAXPEBV?$PxVec3T@M@2@PEBIIIIIPEAMV32@3PEAV32@@Z 00000001800576a0 f   GuSDF.obj
 0001:00056af0       ?windingNumbersInsideCheck@Gu@physx@@YAXPEBV?$PxVec3T@M@2@PEBIIIIIPEA_NV32@3PEAV32@@Z 0000000180057af0 f   GuSDF.obj
 0001:000574c0       ??0MeshData@physx@@QEAA@AEBVPxTriangleMeshDesc@1@@Z 00000001800584c0 f i GuCookingSDF.obj
 0001:000575a0       ?GetBounds@MeshData@physx@@QEBAXAEAV?$PxVec3T@M@2@0@Z 00000001800585a0 f i GuCookingSDF.obj
 0001:00057840       ?buildSDF@physx@@YA_NAEAVPxTriangleMeshDesc@1@AEAV?$PxArray@MV?$PxReflectionAllocator@M@physx@@@1@AEAV?$PxArray@EV?$PxReflectionAllocator@E@physx@@@1@AEAV?$PxArray@IV?$PxReflectionAllocator@I@physx@@@1@@Z 0000000180058840 f   GuCookingSDF.obj
 0001:00058350       ?quantizeSparseSDF@physx@@YAXW4Enum@PxSdfBitsPerSubgridPixel@1@AEBV?$PxArray@MV?$PxReflectionAllocator@M@physx@@@1@AEAV?$PxArray@EV?$PxReflectionAllocator@E@physx@@@1@MM@Z 0000000180059350 f   GuCookingSDF.obj
 0001:00058430       ?recreate@?$PxArray@EV?$PxReflectionAllocator@E@physx@@@physx@@IEAAXI@Z 0000000180059430 f i GuCookingSDF.obj
 0001:00058520       ?recreate@?$PxArray@V?$PxVec3T@M@physx@@V?$PxReflectionAllocator@V?$PxVec3T@M@physx@@@2@@physx@@IEAAXI@Z 0000000180059520 f i GuCookingSDF.obj
 0001:000586c0       ?resize@?$PxArray@EV?$PxReflectionAllocator@E@physx@@@physx@@QEAAXIAEBE@Z 00000001800596c0 f i GuCookingSDF.obj
 0001:00058780       ?resize@?$PxArray@V?$PxVec3T@M@physx@@V?$PxReflectionAllocator@V?$PxVec3T@M@physx@@@2@@physx@@QEAAXIAEBV?$PxVec3T@M@2@@Z 0000000180059780 f i GuCookingSDF.obj
 0001:00058870       ??$gjk@U?$RelativeConvex@UCustomConvexV@@@Gu@physx@@U?$LocalConvex@UCustomConvexV@@@23@@Gu@physx@@YA?AW4GjkStatus@01@AEBU?$RelativeConvex@UCustomConvexV@@@01@AEBU?$LocalConvex@UCustomConvexV@@@01@AEBT__m128@@2AEAT5@333@Z 0000000180059870 f i GuGjkQuery.obj
 0001:00059600       ??$gjkPenetration@U?$RelativeConvex@UCustomConvexV@@@Gu@physx@@U?$LocalConvex@UCustomConvexV@@@23@@Gu@physx@@YA?AW4GjkStatus@01@AEBU?$RelativeConvex@UCustomConvexV@@@01@AEBU?$LocalConvex@UCustomConvexV@@@01@AEBT__m128@@2_NPEIAE4PEIAT5@5AEAEAEAUGjkOutput@01@@Z 000000018005a600 f i GuGjkQuery.obj
 0001:0005ab70       ??$gjkPenetration@U?$RelativeConvex@UCustomConvexV@@@Gu@physx@@U?$LocalConvex@UCustomConvexV@@@23@@Gu@physx@@YA?AW4GjkStatus@01@AEBU?$RelativeConvex@UCustomConvexV@@@01@AEBU?$LocalConvex@UCustomConvexV@@@01@AEBT__m128@@2_NPEIAT5@4AEAEAEAUGjkOutput@01@@Z 000000018005bb70 f i GuGjkQuery.obj
 0001:0005abd0       ??$gjkRaycast@U?$RelativeConvex@UCustomConvexV@@@Gu@physx@@U?$LocalConvex@UCustomConvexV@@@23@@Gu@physx@@YA_NAEBU?$RelativeConvex@UCustomConvexV@@@01@AEBU?$LocalConvex@UCustomConvexV@@@01@AEBT__m128@@222AEAT4@33M@Z 000000018005bbd0 f i GuGjkQuery.obj
 0001:0005b930       ??$gjkRaycast@U?$RelativeConvex@UCustomConvexV@@@Gu@physx@@U?$LocalConvex@UPointConvexV@@@23@@Gu@physx@@YA_NAEBU?$RelativeConvex@UCustomConvexV@@@01@AEBU?$LocalConvex@UPointConvexV@@@01@AEBT__m128@@222AEAT4@33M@Z 000000018005c930 f i GuGjkQuery.obj
 0001:0005c570       ?overlap@PxGjkQuery@physx@@SA_NAEBUSupport@12@0AEBV?$PxTransformT@M@2@1@Z 000000018005d570 f   GuGjkQuery.obj
 0001:0005c900       ?proximityInfo@PxGjkQuery@physx@@SA_NAEBUSupport@12@0AEBV?$PxTransformT@M@2@1MMAEAV?$PxVec3T@M@2@22AEAM@Z 000000018005d900 f   GuGjkQuery.obj
 0001:0005d6c0       ?raycast@PxGjkQuery@physx@@SA_NAEBUSupport@12@AEBV?$PxTransformT@M@2@AEBV?$PxVec3T@M@2@2MAEAMAEAV52@4@Z 000000018005e6c0 f   GuGjkQuery.obj
 0001:0005dbb0       ?support@?$LocalConvex@UCustomConvexV@@@Gu@physx@@UEBA?AT__m128@@AEBT4@@Z 000000018005ebb0 f i GuGjkQuery.obj
 0001:0005dc30       ?support@?$LocalConvex@UCustomConvexV@@@Gu@physx@@UEBA?AT__m128@@AEBT4@AEAH@Z 000000018005ec30 f i GuGjkQuery.obj
 0001:0005dcb0       ?support@?$LocalConvex@UPointConvexV@@@Gu@physx@@UEBA?AT__m128@@AEBT4@@Z 000000018005ecb0 f i GuGjkQuery.obj
 0001:0005dcb0       ?supportPoint@?$LocalConvex@UPointConvexV@@@Gu@physx@@UEBA?AT__m128@@H@Z 000000018005ecb0 f i GuGjkQuery.obj
 0001:0005dcc0       ?support@?$LocalConvex@UPointConvexV@@@Gu@physx@@UEBA?AT__m128@@AEBT4@AEAH@Z 000000018005ecc0 f i GuGjkQuery.obj
 0001:0005dce0       ?support@?$RelativeConvex@UCustomConvexV@@@Gu@physx@@UEBA?AT__m128@@AEBT4@@Z 000000018005ece0 f i GuGjkQuery.obj
 0001:0005ddb0       ?support@?$RelativeConvex@UCustomConvexV@@@Gu@physx@@UEBA?AT__m128@@AEBT4@AEAH@Z 000000018005edb0 f i GuGjkQuery.obj
 0001:0005de90       ?supportPoint@?$LocalConvex@UCustomConvexV@@@Gu@physx@@UEBA?AT__m128@@H@Z 000000018005ee90 f i GuGjkQuery.obj
 0001:0005df00       ?supportPoint@?$RelativeConvex@UCustomConvexV@@@Gu@physx@@UEBA?AT__m128@@H@Z 000000018005ef00 f i GuGjkQuery.obj
 0001:0005dfa0       ?sweep@PxGjkQuery@physx@@SA_NAEBUSupport@12@0AEBV?$PxTransformT@M@2@1AEBV?$PxVec3T@M@2@MAEAMAEAV52@4@Z 000000018005efa0 f   GuGjkQuery.obj
 0001:0005e760       ??$approximateCluster@MV?$PxVec3T@M@physx@@@Gu@physx@@YAXAEBV?$PxArray@HV?$PxReflectionAllocator@H@physx@@@1@IIPEBIPEBV?$PxVec3T@M@1@AEBV?$PxArray@MV?$PxReflectionAllocator@M@physx@@@1@AEBV?$PxArray@V?$PxVec3T@M@physx@@V?$PxReflectionAllocator@V?$PxVec3T@M@physx@@@2@@1@4AEAU?$ClusterApproximationT@MV?$PxVec3T@M@physx@@@01@@Z 000000018005f760 f i GuWindingNumber.obj
 0001:0005eda0       ??$copy@V?$PxReflectionAllocator@M@physx@@@?$PxArray@MV?$PxReflectionAllocator@M@physx@@@physx@@IEAAXAEBV01@@Z 000000018005fda0 f i GuWindingNumber.obj
 0001:0005ee00       ??$precomputeClusterInformation@MV?$PxVec3T@M@physx@@@Gu@physx@@YAXHPEBUBVHNode@01@PEBIIPEBV?$PxVec3T@M@1@AEAV?$PxHashMap@IU?$ClusterApproximationT@MV?$PxVec3T@M@physx@@@Gu@physx@@U?$PxHash@I@3@VPxAllocator@3@@1@V?$PxArray@MV?$PxReflectionAllocator@M@physx@@@1@AEBV?$PxArray@V?$PxVec3T@M@physx@@V?$PxReflectionAllocator@V?$PxVec3T@M@physx@@@2@@1@5@Z 000000018005fe00 f i GuWindingNumber.obj
 0001:0005f1e0       ??$precomputeClusterInformation@MV?$PxVec3T@M@physx@@@Gu@physx@@YAXPEBUBVHNode@01@PEBIIPEBV?$PxVec3T@M@1@AEAV?$PxHashMap@IU?$ClusterApproximationT@MV?$PxVec3T@M@physx@@@Gu@physx@@U?$PxHash@I@3@VPxAllocator@3@@1@H@Z 00000001800601e0 f i GuWindingNumber.obj
 0001:0005f5f0       ??$traverseBVH@V?$WindingNumberTraversalController@MV?$PxVec3T@M@physx@@@Gu@physx@@@Gu@physx@@YAXPEBUBVHNode@01@AEAV?$WindingNumberTraversalController@MV?$PxVec3T@M@physx@@@01@H@Z 00000001800605f0 f i GuWindingNumber.obj
 0001:0005fb40       ?allocate@?$PxArray@HV?$PxReflectionAllocator@H@physx@@@physx@@IEAAPEAHI@Z 0000000180060b40 f i GuWindingNumber.obj
 0001:0005fbd0       ?computeWindingNumber@Gu@physx@@YAMPEBUBVHNode@12@AEBV?$PxVec3T@M@2@AEBV?$PxHashMap@IU?$ClusterApproximationT@MV?$PxVec3T@M@physx@@@Gu@physx@@U?$PxHash@I@3@VPxAllocator@3@@2@PEBIPEBV42@@Z 0000000180060bd0 f   GuWindingNumber.obj
 0001:0005fc40       ?computeWindingNumber@Gu@physx@@YAMPEBUBVHNode@12@AEBV?$PxVec3T@M@2@MAEBV?$PxHashMap@IU?$ClusterApproximationT@MV?$PxVec3T@M@physx@@@Gu@physx@@U?$PxHash@I@3@VPxAllocator@3@@2@PEBIPEBV42@@Z 0000000180060c40 f   GuWindingNumber.obj
 0001:0005fcb0       ?copy@?$PxArray@MV?$PxReflectionAllocator@M@physx@@@physx@@KAXPEAM0PEBM@Z 0000000180060cb0 f i GuWindingNumber.obj
 0001:0005fd10       ?create@?$PxHashBase@V?$PxPair@$$CBIU?$ClusterApproximationT@MV?$PxVec3T@M@physx@@@Gu@physx@@@physx@@IU?$PxHash@I@2@UGetKey@?$PxHashMapBase@IU?$ClusterApproximationT@MV?$PxVec3T@M@physx@@@Gu@physx@@U?$PxHash@I@3@VPxAllocator@3@@2@VPxAllocator@2@$00@physx@@QEAAPEAV?$PxPair@$$CBIU?$ClusterApproximationT@MV?$PxVec3T@M@physx@@@Gu@physx@@@2@AEBIAEA_N@Z 0000000180060d10 f i GuWindingNumber.obj
 0001:0005fe60       ?growAndPushBack@?$PxArray@HV?$PxReflectionAllocator@H@physx@@@physx@@IEAAAEAHAEBH@Z 0000000180060e60 f i GuWindingNumber.obj
 0001:0005ff20       ?growAndPushBack@?$PxArray@USection@Gu@physx@@V?$PxReflectionAllocator@USection@Gu@physx@@@3@@physx@@IEAAAEAUSection@Gu@2@AEBU342@@Z 0000000180060f20 f i GuWindingNumber.obj
 0001:00060040       ?precomputeClusterInformation@Gu@physx@@YAXPEBUBVHNode@12@PEBIIPEBV?$PxVec3T@M@2@AEAV?$PxHashMap@IU?$ClusterApproximationT@MV?$PxVec3T@M@physx@@@Gu@physx@@U?$PxHash@I@3@VPxAllocator@3@@2@H@Z 0000000180061040 f   GuWindingNumber.obj
 0001:000600e0       ?SweepAnyShapeHeightfield@Gu@physx@@YAMAEBUCCDShape@12@0AEBUPxTransformPadded@2@111MAEAV?$PxVec3T@M@2@2MAEAIM@Z 00000001800610e0 f   GuCCDSweepConvexMesh.obj
 0001:00061680       ?SweepAnyShapeMesh@Gu@physx@@YAMAEBUCCDShape@12@0AEBUPxTransformPadded@2@111MAEAV?$PxVec3T@M@2@2MAEAIM@Z 0000000180062680 f   GuCCDSweepConvexMesh.obj
 0001:00062c40       ?SweepEstimateAnyShapeHeightfield@Gu@physx@@YAMAEBUCCDShape@12@0MM@Z 0000000180063c40 f   GuCCDSweepConvexMesh.obj
 0001:000638b0       ?SweepEstimateAnyShapeMesh@Gu@physx@@YAMAEBUCCDShape@12@0MM@Z 00000001800648b0 f   GuCCDSweepConvexMesh.obj
 0001:00063b50       ?allocate@?$PxArray@IV?$PxInlineAllocator@$0BAA@V?$PxReflectionAllocator@I@physx@@@physx@@@physx@@IEAAPEAII@Z 0000000180064b50 f i GuCCDSweepConvexMesh.obj
 0001:00064630       ?growAndPushBack@?$PxArray@IV?$PxInlineAllocator@$0BAA@V?$PxReflectionAllocator@I@physx@@@physx@@@physx@@IEAAAEAIAEBI@Z 0000000180065630 f i GuCCDSweepConvexMesh.obj
 0001:00064c70       ?recreate@?$PxArray@IV?$PxInlineAllocator@$0BAA@V?$PxReflectionAllocator@I@physx@@@physx@@@physx@@IEAAXI@Z 0000000180065c70 f i GuCCDSweepConvexMesh.obj
 0001:00064db0       ?resize@?$PxArray@IV?$PxInlineAllocator@$0BAA@V?$PxReflectionAllocator@I@physx@@@physx@@@physx@@QEAAXIAEBI@Z 0000000180065db0 f i GuCCDSweepConvexMesh.obj
 0001:00064e80       ?transformBoxOrthonormal@physx@@YA?AVBox@Gu@1@AEBV231@AEBV?$PxTransformT@M@1@@Z 0000000180065e80 f i GuCCDSweepConvexMesh.obj
 0001:00065310       ?UnimplementedSweep@Gu@physx@@YAMAEBUCCDShape@12@0AEBUPxTransformPadded@2@111MAEAV?$PxVec3T@M@2@2MAEAIM@Z 0000000180066310 f   GuCCDSweepPrimitives.obj
 0001:00068e80       ?UnimplementedTriangleSweep@Gu@physx@@YAMAEBVPxGeometry@2@0AEBUPxTransformPadded@2@111MAEAV?$PxVec3T@M@2@2AEBVFastVertex2ShapeScaling@Cm@2@AEAVTriangleV@12@M@Z 0000000180069e80 f   GuCCDSweepPrimitives.obj
 0001:00068e90       ??$SweepGeomTriangles@VCapsuleV@Gu@physx@@@Gu@physx@@YAMAEBVPxGeometry@1@0AEBUPxTransformPadded@1@111MAEAV?$PxVec3T@M@1@2AEBVFastVertex2ShapeScaling@Cm@1@AEAVTriangleV@01@M@Z 0000000180069e90 f i GuCCDSweepPrimitives.obj
 0001:000695c0       ??$SweepGeomTriangles@VBoxV@Gu@physx@@@Gu@physx@@YAMAEBVPxGeometry@1@0AEBUPxTransformPadded@1@111MAEAV?$PxVec3T@M@1@2AEBVFastVertex2ShapeScaling@Cm@1@AEAVTriangleV@01@M@Z 000000018006a5c0 f i GuCCDSweepPrimitives.obj
 0001:00069d10       ??$SweepGeomTriangles@VConvexHullV@Gu@physx@@@Gu@physx@@YAMAEBVPxGeometry@1@0AEBUPxTransformPadded@1@111MAEAV?$PxVec3T@M@1@2AEBVFastVertex2ShapeScaling@Cm@1@AEAVTriangleV@01@M@Z 000000018006ad10 f i GuCCDSweepPrimitives.obj
 0001:0006a7f0       ?supportPoint@?$RelativeConvex@VCapsuleV@Gu@physx@@@Gu@physx@@UEBA?AT__m128@@H@Z 000000018006b7f0 f i GuCCDSweepPrimitives.obj
 0001:0006a850       ?support@?$RelativeConvex@VCapsuleV@Gu@physx@@@Gu@physx@@UEBA?AT__m128@@AEBT4@@Z 000000018006b850 f i GuCCDSweepPrimitives.obj
 0001:0006a900       ?support@?$RelativeConvex@VCapsuleV@Gu@physx@@@Gu@physx@@UEBA?AT__m128@@AEBT4@AEAH@Z 000000018006b900 f i GuCCDSweepPrimitives.obj
 0001:0006a9c0       ?supportPoint@?$RelativeConvex@VTriangleV@Gu@physx@@@Gu@physx@@UEBA?AT__m128@@H@Z 000000018006b9c0 f i GuCCDSweepPrimitives.obj
 0001:0006aa10       ?support@?$RelativeConvex@VTriangleV@Gu@physx@@@Gu@physx@@UEBA?AT__m128@@AEBT4@@Z 000000018006ba10 f i GuCCDSweepPrimitives.obj
 0001:0006ab10       ?support@?$RelativeConvex@VTriangleV@Gu@physx@@@Gu@physx@@UEBA?AT__m128@@AEBT4@AEAH@Z 000000018006bb10 f i GuCCDSweepPrimitives.obj
 0001:0006ac50       ??$gjkPenetration@U?$RelativeConvex@VCapsuleV@Gu@physx@@@Gu@physx@@U?$LocalConvex@VBoxV@Gu@physx@@@23@@Gu@physx@@YA?AW4GjkStatus@01@AEBU?$RelativeConvex@VCapsuleV@Gu@physx@@@01@AEBU?$LocalConvex@VBoxV@Gu@physx@@@01@AEBT__m128@@2_NPEIAE4AEAEAEAUGjkOutput@01@@Z 000000018006bc50 f i GuCCDSweepPrimitives.obj
 0001:0006acc0       ??$gjkPenetration@U?$RelativeConvex@VCapsuleV@Gu@physx@@@Gu@physx@@U?$LocalConvex@VBoxV@Gu@physx@@@23@@Gu@physx@@YA?AW4GjkStatus@01@AEBU?$RelativeConvex@VCapsuleV@Gu@physx@@@01@AEBU?$LocalConvex@VBoxV@Gu@physx@@@01@AEBT__m128@@2_NPEIAE4PEIAT5@5AEAEAEAUGjkOutput@01@@Z 000000018006bcc0 f i GuCCDSweepPrimitives.obj
 0001:0006c1c0       ??$gjkPenetration@U?$RelativeConvex@VCapsuleV@Gu@physx@@@Gu@physx@@U?$LocalConvex@VCapsuleV@Gu@physx@@@23@@Gu@physx@@YA?AW4GjkStatus@01@AEBU?$RelativeConvex@VCapsuleV@Gu@physx@@@01@AEBU?$LocalConvex@VCapsuleV@Gu@physx@@@01@AEBT__m128@@2_NPEIAE4AEAEAEAUGjkOutput@01@@Z 000000018006d1c0 f i GuCCDSweepPrimitives.obj
 0001:0006c230       ??$gjkPenetration@U?$RelativeConvex@VCapsuleV@Gu@physx@@@Gu@physx@@U?$LocalConvex@VCapsuleV@Gu@physx@@@23@@Gu@physx@@YA?AW4GjkStatus@01@AEBU?$RelativeConvex@VCapsuleV@Gu@physx@@@01@AEBU?$LocalConvex@VCapsuleV@Gu@physx@@@01@AEBT__m128@@2_NPEIAE4PEIAT5@5AEAEAEAUGjkOutput@01@@Z 000000018006d230 f i GuCCDSweepPrimitives.obj
 0001:0006d720       ??$gjkPenetration@U?$RelativeConvex@VCapsuleV@Gu@physx@@@Gu@physx@@U?$LocalConvex@VConvexHullV@Gu@physx@@@23@@Gu@physx@@YA?AW4GjkStatus@01@AEBU?$RelativeConvex@VCapsuleV@Gu@physx@@@01@AEBU?$LocalConvex@VConvexHullV@Gu@physx@@@01@AEBT__m128@@2_NPEIAE4AEAEAEAUGjkOutput@01@@Z 000000018006e720 f i GuCCDSweepPrimitives.obj
 0001:0006d790       ??$gjkPenetration@U?$RelativeConvex@VCapsuleV@Gu@physx@@@Gu@physx@@U?$LocalConvex@VConvexHullV@Gu@physx@@@23@@Gu@physx@@YA?AW4GjkStatus@01@AEBU?$RelativeConvex@VCapsuleV@Gu@physx@@@01@AEBU?$LocalConvex@VConvexHullV@Gu@physx@@@01@AEBT__m128@@2_NPEIAE4PEIAT5@5AEAEAEAUGjkOutput@01@@Z 000000018006e790 f i GuCCDSweepPrimitives.obj
 0001:0006ed30       ??$gjkPenetration@U?$RelativeConvex@VTriangleV@Gu@physx@@@Gu@physx@@U?$LocalConvex@VBoxV@Gu@physx@@@23@@Gu@physx@@YA?AW4GjkStatus@01@AEBU?$RelativeConvex@VTriangleV@Gu@physx@@@01@AEBU?$LocalConvex@VBoxV@Gu@physx@@@01@AEBT__m128@@2_NPEIAE4AEAEAEAUGjkOutput@01@@Z 000000018006fd30 f i GuCCDSweepPrimitives.obj
 0001:0006eda0       ??$gjkPenetration@U?$RelativeConvex@VTriangleV@Gu@physx@@@Gu@physx@@U?$LocalConvex@VBoxV@Gu@physx@@@23@@Gu@physx@@YA?AW4GjkStatus@01@AEBU?$RelativeConvex@VTriangleV@Gu@physx@@@01@AEBU?$LocalConvex@VBoxV@Gu@physx@@@01@AEBT__m128@@2_NPEIAE4PEIAT5@5AEAEAEAUGjkOutput@01@@Z 000000018006fda0 f i GuCCDSweepPrimitives.obj
 0001:000702c0       ??$gjkPenetration@U?$RelativeConvex@VTriangleV@Gu@physx@@@Gu@physx@@U?$LocalConvex@VCapsuleV@Gu@physx@@@23@@Gu@physx@@YA?AW4GjkStatus@01@AEBU?$RelativeConvex@VTriangleV@Gu@physx@@@01@AEBU?$LocalConvex@VCapsuleV@Gu@physx@@@01@AEBT__m128@@2_NPEIAE4AEAEAEAUGjkOutput@01@@Z 00000001800712c0 f i GuCCDSweepPrimitives.obj
 0001:00070330       ??$gjkPenetration@U?$RelativeConvex@VTriangleV@Gu@physx@@@Gu@physx@@U?$LocalConvex@VCapsuleV@Gu@physx@@@23@@Gu@physx@@YA?AW4GjkStatus@01@AEBU?$RelativeConvex@VTriangleV@Gu@physx@@@01@AEBU?$LocalConvex@VCapsuleV@Gu@physx@@@01@AEBT__m128@@2_NPEIAE4PEIAT5@5AEAEAEAUGjkOutput@01@@Z 0000000180071330 f i GuCCDSweepPrimitives.obj
 0001:00071850       ??$gjkPenetration@U?$RelativeConvex@VTriangleV@Gu@physx@@@Gu@physx@@U?$LocalConvex@VConvexHullV@Gu@physx@@@23@@Gu@physx@@YA?AW4GjkStatus@01@AEBU?$RelativeConvex@VTriangleV@Gu@physx@@@01@AEBU?$LocalConvex@VConvexHullV@Gu@physx@@@01@AEBT__m128@@2_NPEIAE4AEAEAEAUGjkOutput@01@@Z 0000000180072850 f i GuCCDSweepPrimitives.obj
 0001:000718c0       ??$gjkPenetration@U?$RelativeConvex@VTriangleV@Gu@physx@@@Gu@physx@@U?$LocalConvex@VConvexHullV@Gu@physx@@@23@@Gu@physx@@YA?AW4GjkStatus@01@AEBU?$RelativeConvex@VTriangleV@Gu@physx@@@01@AEBU?$LocalConvex@VConvexHullV@Gu@physx@@@01@AEBT__m128@@2_NPEIAE4PEIAT5@5AEAEAEAUGjkOutput@01@@Z 00000001800728c0 f i GuCCDSweepPrimitives.obj
 0001:00072e70       ??$gjkRaycast@U?$RelativeConvex@VCapsuleV@Gu@physx@@@Gu@physx@@U?$LocalConvex@VBoxV@Gu@physx@@@23@@Gu@physx@@YA_NAEBU?$RelativeConvex@VCapsuleV@Gu@physx@@@01@AEBU?$LocalConvex@VBoxV@Gu@physx@@@01@AEBT__m128@@222AEAT4@33M@Z 0000000180073e70 f i GuCCDSweepPrimitives.obj
 0001:00073ae0       ??$gjkRaycast@U?$RelativeConvex@VCapsuleV@Gu@physx@@@Gu@physx@@U?$LocalConvex@VCapsuleV@Gu@physx@@@23@@Gu@physx@@YA_NAEBU?$RelativeConvex@VCapsuleV@Gu@physx@@@01@AEBU?$LocalConvex@VCapsuleV@Gu@physx@@@01@AEBT__m128@@222AEAT4@33M@Z 0000000180074ae0 f i GuCCDSweepPrimitives.obj
 0001:000747d0       ??$gjkRaycast@U?$RelativeConvex@VCapsuleV@Gu@physx@@@Gu@physx@@U?$LocalConvex@VConvexHullV@Gu@physx@@@23@@Gu@physx@@YA_NAEBU?$RelativeConvex@VCapsuleV@Gu@physx@@@01@AEBU?$LocalConvex@VConvexHullV@Gu@physx@@@01@AEBT__m128@@222AEAT4@33M@Z 00000001800757d0 f i GuCCDSweepPrimitives.obj
 0001:000755d0       ??$gjkRaycast@U?$RelativeConvex@VTriangleV@Gu@physx@@@Gu@physx@@U?$LocalConvex@VBoxV@Gu@physx@@@23@@Gu@physx@@YA_NAEBU?$RelativeConvex@VTriangleV@Gu@physx@@@01@AEBU?$LocalConvex@VBoxV@Gu@physx@@@01@AEBT__m128@@222AEAT4@33M@Z 00000001800765d0 f i GuCCDSweepPrimitives.obj
 0001:000762e0       ??$gjkRaycast@U?$RelativeConvex@VTriangleV@Gu@physx@@@Gu@physx@@U?$LocalConvex@VCapsuleV@Gu@physx@@@23@@Gu@physx@@YA_NAEBU?$RelativeConvex@VTriangleV@Gu@physx@@@01@AEBU?$LocalConvex@VCapsuleV@Gu@physx@@@01@AEBT__m128@@222AEAT4@33M@Z 00000001800772e0 f i GuCCDSweepPrimitives.obj
 0001:00077060       ??$gjkRaycast@U?$RelativeConvex@VTriangleV@Gu@physx@@@Gu@physx@@U?$LocalConvex@VConvexHullV@Gu@physx@@@23@@Gu@physx@@YA_NAEBU?$RelativeConvex@VTriangleV@Gu@physx@@@01@AEBU?$LocalConvex@VConvexHullV@Gu@physx@@@01@AEBT__m128@@222AEAT4@33M@Z 0000000180078060 f i GuCCDSweepPrimitives.obj
 0001:00077f20       ?SweepShapeShape@Gu@physx@@YAMAEBUCCDShape@12@0AEBUPxTransformPadded@2@111MAEAV?$PxVec3T@M@2@2MAEAIM@Z 0000000180078f20 f   GuCCDSweepPrimitives.obj
 0001:00077f40       ?SweepShapeTriangle@Gu@physx@@YAMAEBVPxGeometry@2@0AEBUPxTransformPadded@2@111MAEAV?$PxVec3T@M@2@2AEBVFastVertex2ShapeScaling@Cm@2@AEAVTriangleV@12@M@Z 0000000180078f40 f   GuCCDSweepPrimitives.obj
 0001:00077f60       ?barycentricCoordinates@Gu@physx@@YAXAEBT__m128@@000AEAT3@1@Z 0000000180078f60 f   GuBarycentricCoordinates.obj
 0001:000780a0       ?barycentricCoordinates@Gu@physx@@YAXAEBT__m128@@00AEAT3@@Z 00000001800790a0 f   GuBarycentricCoordinates.obj
 0001:00078110       ??$?_UV?$PxReflectionAllocator@VAdjTriangle@Gu@physx@@@physx@@@PxUserAllocated@physx@@SAPEAX_KV?$PxReflectionAllocator@VAdjTriangle@Gu@physx@@@1@PEBDH@Z 0000000180079110 f i GuAdjacencies.obj
 0001:000781f0       ??0AdjacenciesBuilder@Gu@physx@@QEAA@XZ 00000001800791f0 f   GuAdjacencies.obj
 0001:00078200       ??1AdjacenciesBuilder@Gu@physx@@QEAA@XZ 0000000180079200 f   GuAdjacencies.obj
 0001:00078350       ?ComputeNbBoundaryEdges@Adjacencies@Gu@physx@@QEBAIXZ 0000000180079350 f   GuAdjacencies.obj
 0001:000785e0       ?Init@AdjacenciesBuilder@Gu@physx@@QEAA_NAEBUADJACENCIESCREATE@23@@Z 00000001800795e0 f   GuAdjacencies.obj
 0001:00078b40       ??0EdgeList@Gu@physx@@QEAA@XZ 0000000180079b40 f   GuEdgeList.obj
 0001:00078b60       ??1EdgeList@Gu@physx@@QEAA@XZ 0000000180079b60 f   GuEdgeList.obj
 0001:00078c10       ?computeActiveEdges@EdgeList@Gu@physx@@AEAA_NIPEBIPEBGPEBV?$PxVec3T@M@3@M@Z 0000000180079c10 f   GuEdgeList.obj
 0001:00079f90       ?createEdgesToFaces@EdgeList@Gu@physx@@AEAA_NIPEBIPEBG@Z 000000018007af90 f   GuEdgeList.obj
 0001:0007a1f0       ?createFacesToEdges@EdgeList@Gu@physx@@AEAA_NIPEBIPEBG@Z 000000018007b1f0 f   GuEdgeList.obj
 0001:0007a5c0       ?init@EdgeList@Gu@physx@@QEAA_NAEBUEDGELISTCREATE@23@@Z 000000018007b5c0 f   GuEdgeList.obj
 0001:0007a6f0       ?addAxis@SeparatingAxes@Gu@physx@@QEAA_NAEBV?$PxVec3T@M@3@@Z 000000018007b6f0 f   GuSeparatingAxes.obj
 0001:0007a7b0       ??$kmeans_cluster@V?$PxVec3T@M@physx@@M@@YAIPEBV?$PxVec3T@M@physx@@IIPEAV01@PEAIMM@Z 000000018007b7b0 f i GuQuantizer.obj
 0001:0007b170       ??_EQuantizer@Gu@physx@@MEAAPEAXI@Z 000000018007c170 f i GuQuantizer.obj
 0001:0007b170       ??_GQuantizer@Gu@physx@@MEAAPEAXI@Z 000000018007c170 f i GuQuantizer.obj
 0001:0007b1a0       ??_EQuantizerImpl@@EEAAPEAXI@Z 000000018007c1a0 f i GuQuantizer.obj
 0001:0007b1a0       ??_GQuantizerImpl@@EEAAPEAXI@Z 000000018007c1a0 f i GuQuantizer.obj
 0001:0007b270       ?createQuantizer@Gu@physx@@YAPEAVQuantizer@12@XZ 000000018007c270 f   GuQuantizer.obj
 0001:0007b320       ?getDenormalizeCenter@QuantizerImpl@@UEBAAEBV?$PxVec3T@M@physx@@XZ 000000018007c320 f i GuQuantizer.obj
 0001:0007b330       ?getCurrentAABBTreeBounds@PruningPool@Gu@physx@@QEBAAEBVAABBTreeBounds@23@XZ 000000018007c330 f i GuIncrementalAABBPrunerCore.obj
 0001:0007b330       ?getDenormalizeScale@QuantizerImpl@@UEBAAEBV?$PxVec3T@M@physx@@XZ 000000018007c330 f i GuQuantizer.obj
 0001:0007b340       ?kmeansQuantize3D@QuantizerImpl@@UEAAPEBV?$PxVec3T@M@physx@@IPEBV23@I_NIAEAI@Z 000000018007c340 f i GuQuantizer.obj
 0001:0007b5b0       ?normalizeInput@QuantizerImpl@@AEAAXIPEBV?$PxVec3T@M@physx@@I@Z 000000018007c5b0 f i GuQuantizer.obj
 0001:0007ba00       ?release@QuantizerImpl@@UEAAXXZ 000000018007ca00 f i GuQuantizer.obj
 0001:0007ba20       ??0MeshCleaner@Gu@physx@@QEAA@IPEBV?$PxVec3T@M@2@IPEBIM@Z 000000018007ca20 f   GuMeshCleaner.obj
 0001:0007c3e0       ??1MeshCleaner@Gu@physx@@QEAA@XZ 000000018007d3e0 f   GuMeshCleaner.obj
 0001:0007c470       ??0ReducedVertexCloud@Gu@physx@@QEAA@PEBV?$PxVec3T@M@2@I@Z 000000018007d470 f   GuVertexReducer.obj
 0001:0007c490       ??1ReducedVertexCloud@Gu@physx@@QEAA@XZ 000000018007d490 f   GuVertexReducer.obj
 0001:0007c4a0       ?clean@ReducedVertexCloud@Gu@physx@@QEAAAEAV123@XZ 000000018007d4a0 f   GuVertexReducer.obj
 0001:0007c510       ?reduce@ReducedVertexCloud@Gu@physx@@QEAA_NPEAUREDUCEDCLOUD@23@@Z 000000018007d510 f   GuVertexReducer.obj
 0001:0007c7b0       ??$copy@V?$PxReflectionAllocator@I@physx@@@?$PxArray@IV?$PxReflectionAllocator@I@physx@@@physx@@IEAAXAEBV01@@Z 000000018007d7b0 f i GuMeshAnalysis.obj
 0001:0007c820       ?buildConsistentTriangleOrientationMap@MeshAnalyzer@Gu@physx@@SA_NPEBU?$IndexedTriangleT@H@23@IAEAV?$PxArray@_NV?$PxReflectionAllocator@_N@physx@@@3@AEAV?$PxHashMap@_KHU?$PxHash@_K@physx@@VPxAllocator@2@@3@AEAV?$PxArray@V?$PxArray@IV?$PxReflectionAllocator@I@physx@@@physx@@V?$PxReflectionAllocator@V?$PxArray@IV?$PxReflectionAllocator@I@physx@@@physx@@@2@@3@@Z 000000018007d820 f   GuMeshAnalysis.obj
 0001:0007cbd0       ?buildTriangleAdjacency@MeshAnalyzer@Gu@physx@@SA_NPEBU?$IndexedTriangleT@H@23@IAEAV?$PxArray@HV?$PxReflectionAllocator@H@physx@@@3@AEAV?$PxHashMap@_KHU?$PxHash@_K@physx@@VPxAllocator@2@@3@@Z 000000018007dbd0 f   GuMeshAnalysis.obj
 0001:0007ced0       ?checkConsistentTriangleOrientation@MeshAnalyzer@Gu@physx@@SA_NPEBU?$IndexedTriangleT@H@23@I@Z 000000018007ded0 f   GuMeshAnalysis.obj
 0001:0007d020       ?checkMeshWatertightness@MeshAnalyzer@Gu@physx@@SA_NPEBU?$IndexedTriangleT@H@23@I_N@Z 000000018007e020 f   GuMeshAnalysis.obj
 0001:0007d1f0       ?destroy@?$PxArray@V?$PxArray@IV?$PxReflectionAllocator@I@physx@@@physx@@V?$PxReflectionAllocator@V?$PxArray@IV?$PxReflectionAllocator@I@physx@@@physx@@@2@@physx@@KAXPEAV?$PxArray@IV?$PxReflectionAllocator@I@physx@@@2@0@Z 000000018007e1f0 f i GuMeshAnalysis.obj
 0001:0007d260       ?erase@?$PxHashBase@V?$PxPair@$$CB_KH@physx@@_KU?$PxHash@_K@2@UGetKey@?$PxHashMapBase@_KHU?$PxHash@_K@physx@@VPxAllocator@2@@2@VPxAllocator@2@$00@physx@@QEAA_NAEB_K@Z 000000018007e260 f i GuMeshAnalysis.obj
 0001:0007d410       ?growAndPushBack@?$PxArray@V?$PxArray@IV?$PxReflectionAllocator@I@physx@@@physx@@V?$PxReflectionAllocator@V?$PxArray@IV?$PxReflectionAllocator@I@physx@@@physx@@@2@@physx@@IEAAAEAV?$PxArray@IV?$PxReflectionAllocator@I@physx@@@2@AEBV32@@Z 000000018007e410 f i GuMeshAnalysis.obj
 0001:0007d560       ?makeTriOrientationConsistent@MeshAnalyzer@Gu@physx@@SA_NPEAU?$IndexedTriangleT@H@23@I_N@Z 000000018007e560 f   GuMeshAnalysis.obj
 0001:0007d6d0       ?recreate@?$PxArray@_NV?$PxReflectionAllocator@_N@physx@@@physx@@IEAAXI@Z 000000018007e6d0 f i GuMeshAnalysis.obj
 0001:0007d7c0       ?resize@?$PxArray@HV?$PxReflectionAllocator@H@physx@@@physx@@QEAAXIAEBH@Z 000000018007e7c0 f i GuMeshAnalysis.obj
 0001:0007d880       ?resize@?$PxArray@_NV?$PxReflectionAllocator@_N@physx@@@physx@@QEAAXIAEB_N@Z 000000018007e880 f i GuMeshAnalysis.obj
 0001:0007d940       ?contactBoxBox@Gu@physx@@YA_NAEBVPxGeometry@2@0AEBUPxTransformPadded@2@1AEBUNarrowPhaseParams@12@AEAUCache@12@AEAVPxContactBuffer@2@PEAVPxRenderOutput@2@@Z 000000018007e940 f   GuContactBoxBox.obj
 0001:00081770       ?contactCapsuleBox@Gu@physx@@YA_NAEBVPxGeometry@2@0AEBUPxTransformPadded@2@1AEBUNarrowPhaseParams@12@AEAUCache@12@AEAVPxContactBuffer@2@PEAVPxRenderOutput@2@@Z 0000000180082770 f   GuContactCapsuleBox.obj
 0001:00081f80       ?contactCapsuleCapsule@Gu@physx@@YA_NAEBVPxGeometry@2@0AEBUPxTransformPadded@2@1AEBUNarrowPhaseParams@12@AEAUCache@12@AEAVPxContactBuffer@2@PEAVPxRenderOutput@2@@Z 0000000180082f80 f   GuContactCapsuleCapsule.obj
 0001:00084970       ?contactCapsuleConvex@Gu@physx@@YA_NAEBVPxGeometry@2@0AEBUPxTransformPadded@2@1AEBUNarrowPhaseParams@12@AEAUCache@12@AEAVPxContactBuffer@2@PEAVPxRenderOutput@2@@Z 0000000180085970 f   GuContactCapsuleConvex.obj
 0001:00086ea0       ?contactCapsuleHeightfield@Gu@physx@@YA_NAEBVPxGeometry@2@0AEBUPxTransformPadded@2@1AEBUNarrowPhaseParams@12@AEAUCache@12@AEAVPxContactBuffer@2@PEAVPxRenderOutput@2@@Z 0000000180087ea0 f   GuContactCapsuleMesh.obj
 0001:000876d0       ?contactCapsuleMesh@Gu@physx@@YA_NAEBVPxGeometry@2@0AEBUPxTransformPadded@2@1AEBUNarrowPhaseParams@12@AEAUCache@12@AEAVPxContactBuffer@2@PEAVPxRenderOutput@2@@Z 00000001800886d0 f   GuContactCapsuleMesh.obj
 0001:00088850       ?transformQueryBounds@FastVertex2ShapeScaling@Cm@physx@@QEBAXAEAV?$PxVec3T@M@3@0AEAV?$PxMat33T@M@3@@Z 0000000180089850 f i GuContactCapsuleMesh.obj
 0001:0008cae0       ?contactBoxConvex@Gu@physx@@YA_NAEBVPxGeometry@2@0AEBUPxTransformPadded@2@1AEBUNarrowPhaseParams@12@AEAUCache@12@AEAVPxContactBuffer@2@PEAVPxRenderOutput@2@@Z 000000018008dae0 f   GuContactConvexConvex.obj
 0001:0008ccb0       ?contactConvexConvex@Gu@physx@@YA_NAEBVPxGeometry@2@0AEBUPxTransformPadded@2@1AEBUNarrowPhaseParams@12@AEAUCache@12@AEAVPxContactBuffer@2@PEAVPxRenderOutput@2@@Z 000000018008dcb0 f   GuContactConvexConvex.obj
 0001:0008d130       ?transformPlaneToShapeSpace@FastVertex2ShapeScaling@Cm@physx@@QEBAXAEBV?$PxVec3T@M@3@MAEAV43@AEAM@Z 000000018008e130 f i GuContactConvexConvex.obj
 0001:0008d5e0       ??_EConvexMeshContactGenerationCallback@@UEAAPEAXI@Z 000000018008e5e0 f i GuContactConvexMesh.obj
 0001:0008d5e0       ??_GConvexMeshContactGenerationCallback@@UEAAPEAXI@Z 000000018008e5e0 f i GuContactConvexMesh.obj
 0001:0008d640       ?addData@?$CacheMap@UCachedEdge@Gu@physx@@$0IA@@Gu@physx@@QEAA_NAEBUCachedEdge@23@@Z 000000018008e640 f i GuContactConvexMesh.obj
 0001:0008d720       ?addData@?$CacheMap@UCachedVertex@Gu@physx@@$0IA@@Gu@physx@@QEAA_NAEBUCachedVertex@23@@Z 000000018008e720 f i GuContactConvexMesh.obj
 0001:0008d7b0       ?allocate@?$PxArray@IV?$PxInlineAllocator@$0BBAA@V?$PxReflectionAllocator@I@physx@@@physx@@@physx@@IEAAPEAII@Z 000000018008e7b0 f i GuContactConvexMesh.obj
 0001:0008dbb0       ?contactBoxHeightfield@Gu@physx@@YA_NAEBVPxGeometry@2@0AEBUPxTransformPadded@2@1AEBUNarrowPhaseParams@12@AEAUCache@12@AEAVPxContactBuffer@2@PEAVPxRenderOutput@2@@Z 000000018008ebb0 f   GuContactConvexMesh.obj
 0001:0008dd30       ?contactBoxMesh@Gu@physx@@YA_NAEBVPxGeometry@2@0AEBUPxTransformPadded@2@1AEBUNarrowPhaseParams@12@AEAUCache@12@AEAVPxContactBuffer@2@PEAVPxRenderOutput@2@@Z 000000018008ed30 f   GuContactConvexMesh.obj
 0001:0008df00       ?contactConvexHeightfield@Gu@physx@@YA_NAEBVPxGeometry@2@0AEBUPxTransformPadded@2@1AEBUNarrowPhaseParams@12@AEAUCache@12@AEAVPxContactBuffer@2@PEAVPxRenderOutput@2@@Z 000000018008ef00 f   GuContactConvexMesh.obj
 0001:0008e050       ?contactConvexMesh@Gu@physx@@YA_NAEBVPxGeometry@2@0AEBUPxTransformPadded@2@1AEBUNarrowPhaseParams@12@AEAUCache@12@AEAVPxContactBuffer@2@PEAVPxRenderOutput@2@@Z 000000018008f050 f   GuContactConvexMesh.obj
 0001:00091770       ?processHit@ConvexMeshContactGenerationCallback@@UEAA_NAEBUPxGeomRaycastHit@physx@@AEBV?$PxVec3T@M@3@11AEAMPEBI@Z 0000000180092770 f i GuContactConvexMesh.obj
 0001:00092130       ?recreate@?$PxArray@IV?$PxInlineAllocator@$0BBAA@V?$PxReflectionAllocator@I@physx@@@physx@@@physx@@IEAAXI@Z 0000000180093130 f i GuContactConvexMesh.obj
 0001:000935a0       ?contactPlaneBox@Gu@physx@@YA_NAEBVPxGeometry@2@0AEBUPxTransformPadded@2@1AEBUNarrowPhaseParams@12@AEAUCache@12@AEAVPxContactBuffer@2@PEAVPxRenderOutput@2@@Z 00000001800945a0 f   GuContactPlaneBox.obj
 0001:00094240       ?contactPlaneCapsule@Gu@physx@@YA_NAEBVPxGeometry@2@0AEBUPxTransformPadded@2@1AEBUNarrowPhaseParams@12@AEAUCache@12@AEAVPxContactBuffer@2@PEAVPxRenderOutput@2@@Z 0000000180095240 f   GuContactPlaneCapsule.obj
 0001:00094910       ?contactPlaneConvex@Gu@physx@@YA_NAEBVPxGeometry@2@0AEBUPxTransformPadded@2@1AEBUNarrowPhaseParams@12@AEAUCache@12@AEAVPxContactBuffer@2@PEAVPxRenderOutput@2@@Z 0000000180095910 f   GuContactPlaneConvex.obj
 0001:00096640       ?contactPolygonPolygonExt@Gu@physx@@YA_NIPEBV?$PxVec3T@M@2@PEBEAEBV?$PxMat34T@M@2@AEBVPxPlane@2@AEBV?$PxMat33T@M@2@I01234AEBV32@22IIAEAVPxContactBuffer@2@_N5M@Z 0000000180097640 f   GuContactPolygonPolygon.obj
 0001:00097db0       ?findRotationMatrixFromZ@Gu@physx@@YA?AV?$PxMat33T@M@2@AEBV?$PxVec3T@M@2@@Z 0000000180098db0 f   GuContactPolygonPolygon.obj
 0001:000987d0       ?contactSphereBox@Gu@physx@@YA_NAEBVPxGeometry@2@0AEBUPxTransformPadded@2@1AEBUNarrowPhaseParams@12@AEAUCache@12@AEAVPxContactBuffer@2@PEAVPxRenderOutput@2@@Z 00000001800997d0 f   GuContactSphereBox.obj
 0001:00098da0       ?contactSphereCapsule@Gu@physx@@YA_NAEBVPxGeometry@2@0AEBUPxTransformPadded@2@1AEBUNarrowPhaseParams@12@AEAUCache@12@AEAVPxContactBuffer@2@PEAVPxRenderOutput@2@@Z 0000000180099da0 f   GuContactSphereCapsule.obj
 0001:00099b80       ?contactSphereHeightfield@Gu@physx@@YA_NAEBVPxGeometry@2@0AEBUPxTransformPadded@2@1AEBUNarrowPhaseParams@12@AEAUCache@12@AEAVPxContactBuffer@2@PEAVPxRenderOutput@2@@Z 000000018009ab80 f   GuContactSphereMesh.obj
 0001:0009a570       ?contactSphereMesh@Gu@physx@@YA_NAEBVPxGeometry@2@0AEBUPxTransformPadded@2@1AEBUNarrowPhaseParams@12@AEAUCache@12@AEAVPxContactBuffer@2@PEAVPxRenderOutput@2@@Z 000000018009b570 f   GuContactSphereMesh.obj
 0001:0009c920       ?contactSpherePlane@Gu@physx@@YA_NAEBVPxGeometry@2@0AEBUPxTransformPadded@2@1AEBUNarrowPhaseParams@12@AEAUCache@12@AEAVPxContactBuffer@2@PEAVPxRenderOutput@2@@Z 000000018009d920 f   GuContactSpherePlane.obj
 0001:0009cb30       ?contactSphereSphere@Gu@physx@@YA_NAEBVPxGeometry@2@0AEBUPxTransformPadded@2@1AEBUNarrowPhaseParams@12@AEAUCache@12@AEAVPxContactBuffer@2@PEAVPxRenderOutput@2@@Z 000000018009db30 f   GuContactSphereSphere.obj
 0001:0009ccb0       ?contactCustomGeometryGeometry@Gu@physx@@YA_NAEBVPxGeometry@2@0AEBUPxTransformPadded@2@1AEBUNarrowPhaseParams@12@AEAUCache@12@AEAVPxContactBuffer@2@PEAVPxRenderOutput@2@@Z 000000018009dcb0 f   GuContactCustomGeometry.obj
 0001:0009cd10       ?contactGeometryCustomGeometry@Gu@physx@@YA_NAEBVPxGeometry@2@0AEBUPxTransformPadded@2@1AEBUNarrowPhaseParams@12@AEAUCache@12@AEAVPxContactBuffer@2@PEAVPxRenderOutput@2@@Z 000000018009dd10 f   GuContactCustomGeometry.obj
 0001:0009cdd0       ?selectNormal@Gu@physx@@YA_NEMM@Z 000000018009ddd0 f   GuFeatureCode.obj
 0001:0009ce50       ??0BigConvexData@physx@@QEAA@XZ 000000018009de50 f   GuBigConvexData.obj
 0001:0009ce70       ??1BigConvexData@physx@@QEAA@XZ 000000018009de70 f   GuBigConvexData.obj
 0001:0009cf30       ?ComputeNearestOffset@BigConvexData@physx@@QEBAIAEBV?$PxVec3T@M@2@@Z 000000018009df30 f   GuBigConvexData.obj
 0001:0009d030       ?ComputeOffset@BigConvexData@physx@@QEBAIAEBV?$PxVec3T@M@2@@Z 000000018009e030 f   GuBigConvexData.obj
 0001:0009d130       ?CreateOffsets@BigConvexData@physx@@IEAAXXZ 000000018009e130 f   GuBigConvexData.obj
 0001:0009d180       ?Load@BigConvexData@physx@@QEAA_NAEAVPxInputStream@2@@Z 000000018009e180 f   GuBigConvexData.obj
 0001:0009d290       ?VLoad@BigConvexData@physx@@IEAA_NAEAVPxInputStream@2@@Z 000000018009e290 f   GuBigConvexData.obj
 0001:0009d430       ?exportExtraData@BigConvexData@physx@@QEAAXAEAVPxSerializationContext@2@@Z 000000018009e430 f   GuBigConvexData.obj
 0001:0009d4b0       ?importExtraData@BigConvexData@physx@@QEAAXAEAVPxDeserializationContext@2@@Z 000000018009e4b0 f   GuBigConvexData.obj
 0001:0009d520       ?findUniqueConvexEdges@Gu@physx@@YAIIPEIAUConvexEdge@12@IPEIBUHullPolygonData@12@PEIBE@Z 000000018009e520 f   GuConvexHelper.obj
 0001:0009d660       ?getConvexData@Gu@physx@@YA_NAEBVPxConvexMeshGeometry@2@AEAVFastVertex2ShapeScaling@Cm@2@AEAVPxBounds3@2@AEAUPolygonalData@12@@Z 000000018009e660 f   GuConvexHelper.obj
 0001:0009d8f0       ?getScaledConvex@Gu@physx@@YAXAEAPEAV?$PxVec3T@M@2@AEAPEAEPEAV32@PEAE_NPEBV32@PEBEIAEBVFastVertex2ShapeScaling@Cm@2@@Z 000000018009e8f0 f   GuConvexHelper.obj
 0001:0009da20       ??0ConvexMesh@Gu@physx@@QEAA@PEAVMeshFactory@12@@Z 000000018009ea20 f   GuConvexMesh.obj
 0001:0009dab0       ??0ConvexMesh@Gu@physx@@QEAA@PEAVMeshFactory@12@AEAUConvexHullInitData@12@@Z 000000018009eab0 f   GuConvexMesh.obj
 0001:0009dbd0       ??_EConvexMesh@Gu@physx@@UEAAPEAXI@Z 000000018009ebd0 f i GuConvexMesh.obj
 0001:0009dbd0       ??_GConvexMesh@Gu@physx@@UEAAPEAXI@Z 000000018009ebd0 f i GuConvexMesh.obj
 0001:0009dce0       ??_EPxBVH@physx@@MEAAPEAXI@Z 000000018009ece0 f i GuBVH.obj
 0001:0009dce0       ??_EPxBase@physx@@MEAAPEAXI@Z 000000018009ece0 f i GuConvexMesh.obj
 0001:0009dce0       ??_GPxBVH@physx@@MEAAPEAXI@Z 000000018009ece0 f i GuBVH.obj
 0001:0009dce0       ??_GPxBase@physx@@MEAAPEAXI@Z 000000018009ece0 f i GuConvexMesh.obj
 0001:0009dd10       ?acquireReference@ConvexMesh@Gu@physx@@UEAAXXZ 000000018009ed10 f   GuConvexMesh.obj
 0001:0009dd10       ?acquireReference@HeightField@Gu@physx@@UEAAXXZ 000000018009ed10 f   GuHeightField.obj
 0001:0009dd10       ?acquireReference@SoftBodyAuxData@Gu@physx@@UEAAXXZ 000000018009ed10 f   GuTetrahedronMesh.obj
 0001:0009dd10       ?acquireReference@SoftBodyMesh@Gu@physx@@UEAAXXZ 000000018009ed10 f   GuTetrahedronMesh.obj
 0001:0009dd10       ?acquireReference@TetrahedronMesh@Gu@physx@@UEAAXXZ 000000018009ed10 f   GuTetrahedronMesh.obj
 0001:0009dd10       ?acquireReference@TriangleMesh@Gu@physx@@UEAAXXZ 000000018009ed10 f   GuTriangleMesh.obj
 0001:0009e1e0       ?createObject@ConvexMesh@Gu@physx@@SAPEAV123@AEAPEAEAEAVPxDeserializationContext@3@@Z 000000018009f1e0 f   GuConvexMesh.obj
 0001:0009e2d0       ?exportExtraData@ConvexMesh@Gu@physx@@UEAAXAEAVPxSerializationContext@3@@Z 000000018009f2d0 f   GuConvexMesh.obj
 0001:0009e3a0       ?getConcreteTypeName@PxConvexMesh@physx@@UEBAPEBDXZ 000000018009f3a0 f i GuConvexMesh.obj
 0001:0009e3b0       ?getIndexBuffer@ConvexMesh@Gu@physx@@UEBAPEBEXZ 000000018009f3b0 f i GuConvexMesh.obj
 0001:0009e3f0       ?getLocalBounds@ConvexMesh@Gu@physx@@UEBA?AVPxBounds3@3@XZ 000000018009f3f0 f   GuConvexMesh.obj
 0001:0009e480       ?getMassInformation@ConvexMesh@Gu@physx@@UEBAXAEAMAEAV?$PxMat33T@M@3@AEAV?$PxVec3T@M@3@@Z 000000018009f480 f   GuConvexMesh.obj
 0001:0009e4f0       ?getNbPolygons@ConvexMesh@Gu@physx@@UEBAIXZ 000000018009f4f0 f i GuConvexMesh.obj
 0001:0009e500       ?getNbVertices@ConvexMesh@Gu@physx@@UEBAIXZ 000000018009f500 f i GuConvexMesh.obj
 0001:0009e510       ?getPolygonData@ConvexMesh@Gu@physx@@UEBA_NIAEAUPxHullPolygon@3@@Z 000000018009f510 f   GuConvexMesh.obj
 0001:0009e560       ?getReferenceCount@ConvexMesh@Gu@physx@@UEBAIXZ 000000018009f560 f   GuConvexMesh.obj
 0001:0009e560       ?getReferenceCount@HeightField@Gu@physx@@UEBAIXZ 000000018009f560 f   GuHeightField.obj
 0001:0009e560       ?getReferenceCount@SoftBodyAuxData@Gu@physx@@UEBAIXZ 000000018009f560 f   GuTetrahedronMesh.obj
 0001:0009e560       ?getReferenceCount@SoftBodyMesh@Gu@physx@@UEBAIXZ 000000018009f560 f   GuTetrahedronMesh.obj
 0001:0009e560       ?getReferenceCount@TetrahedronMesh@Gu@physx@@UEBAIXZ 000000018009f560 f   GuTetrahedronMesh.obj
 0001:0009e560       ?getReferenceCount@TriangleMesh@Gu@physx@@UEBAIXZ 000000018009f560 f   GuTriangleMesh.obj
 0001:0009e560       ?length@DNameStatusNode@@UEBAHXZ 000000018009f560 f   libvcruntime:undname.obj
 0001:0009e560       ?raw_length@DNameStatusNode@@UEBAHXZ 000000018009f560 f   libvcruntime:undname.obj
 0001:0009e570       ?getSDF@ConvexMesh@Gu@physx@@UEBAPEBMXZ 000000018009f570 f   GuConvexMesh.obj
 0001:0009e580       ?getVertices@ConvexMesh@Gu@physx@@UEBAPEBV?$PxVec3T@M@3@XZ 000000018009f580 f i GuConvexMesh.obj
 0001:0009e5a0       ?isGpuCompatible@ConvexMesh@Gu@physx@@UEBA_NXZ 000000018009f5a0 f   GuConvexMesh.obj
 0001:0009e5e0       ?isKindOf@PxBase@physx@@MEBA_NPEBD@Z 000000018009f5e0 f i GuConvexMesh.obj
 0001:0009e610       ?isKindOf@PxConvexMesh@physx@@MEBA_NPEBD@Z 000000018009f610 f i GuConvexMesh.obj
 0001:0009e680       ?isReleasable@PxBase@physx@@UEBA_NXZ 000000018009f680 f i GuConvexMesh.obj
 0001:0009e690       ?load@ConvexMesh@Gu@physx@@QEAA_NAEAVPxInputStream@3@@Z 000000018009f690 f   GuConvexMesh.obj
 0001:0009ebe0       ?onRefCountZero@ConvexMesh@Gu@physx@@UEAAXXZ 000000018009fbe0 f   GuConvexMesh.obj
 0001:0009ed10       ?release@ConvexMesh@Gu@physx@@UEAAXXZ 000000018009fd10 f   GuConvexMesh.obj
 0001:0009ed10       ?release@HeightField@Gu@physx@@UEAAXXZ 000000018009fd10 f   GuHeightField.obj
 0001:0009ed10       ?release@SoftBodyAuxData@Gu@physx@@UEAAXXZ 000000018009fd10 f   GuTetrahedronMesh.obj
 0001:0009ed10       ?release@SoftBodyMesh@Gu@physx@@UEAAXXZ 000000018009fd10 f   GuTetrahedronMesh.obj
 0001:0009ed10       ?release@TetrahedronMesh@Gu@physx@@UEAAXXZ 000000018009fd10 f   GuTetrahedronMesh.obj
 0001:0009ed10       ?release@TriangleMesh@Gu@physx@@UEAAXXZ 000000018009fd10 f   GuTriangleMesh.obj
 0001:0009ed40       ??Dphysx@@YA?AV?$PxMat34T@M@0@AEBVPxMeshScale@0@AEBV10@@Z 000000018009fd40 f i GuConvexUtilsInternal.obj
 0001:0009f2e0       ?computeHullOBB@Gu@physx@@YAXAEAVBox@12@AEBVPxBounds3@2@MAEBV?$PxMat34T@M@2@2AEBVFastVertex2ShapeScaling@Cm@2@_N@Z 00000001800a02e0 f   GuConvexUtilsInternal.obj
 0001:0009f790       ?computeOBBAroundConvex@Gu@physx@@YAXAEAVBox@12@AEBVPxConvexMeshGeometry@2@PEBVPxConvexMesh@2@AEBV?$PxTransformT@M@2@@Z 00000001800a0790 f   GuConvexUtilsInternal.obj
 0001:0009ffe0       ?computeVertexSpaceOBB@Gu@physx@@YAXAEAVBox@12@AEBV312@AEBV?$PxTransformT@M@2@AEBVPxMeshScale@2@@Z 00000001800a0fe0 f   GuConvexUtilsInternal.obj
 0001:000a0310       ?transform@physx@@YA?AVBox@Gu@1@AEBV?$PxMat34T@M@1@AEBV231@@Z 00000001800a1310 f i GuConvexUtilsInternal.obj
 0001:000a0560       ?localSearch@physx@@YAXAEAIAEBV?$PxVec3T@M@1@PEBV21@PEBUBigConvexRawData@Gu@1@@Z 00000001800a1560 f   GuHillClimbing.obj
 0001:000a0690       ??0PCMPolygonalBox@Gu@physx@@QEAA@AEBV?$PxVec3T@M@2@@Z 00000001800a1690 f   GuPCMShapeConvex.obj
 0001:000a0690       ??0PolygonalBox@Gu@physx@@QEAA@AEBV?$PxVec3T@M@2@@Z 00000001800a1690 f   GuShapeConvex.obj
 0001:000a1b50       ?getPolygonalData@PolygonalBox@Gu@physx@@QEBAXPEIAUPolygonalData@23@@Z 00000001800a2b50 f   GuShapeConvex.obj
 0001:000a1bc0       ?getPolygonalData_Convex@Gu@physx@@YAXPEIAUPolygonalData@12@PEIBUConvexHullData@12@AEBVFastVertex2ShapeScaling@Cm@2@@Z 00000001800a2bc0 f   GuShapeConvex.obj
 0001:000a1d20       ?distancePointBoxSquared@Gu@physx@@YAMAEBV?$PxVec3T@M@2@00AEBV?$PxMat33T@M@2@PEAV32@@Z 00000001800a2d20 f   GuDistancePointBox.obj
 0001:000a1e70       ?closestPtPointTriangle@Gu@physx@@YA?AV?$PxVec3T@M@2@AEBV32@000AEAM1@Z 00000001800a2e70 f   GuDistancePointTriangle.obj
 0001:000a2390       ?distancePointTriangleSquared@Gu@physx@@YA?AT__m128@@AEBT3@000AEAT3@11@Z 00000001800a3390 f   GuDistancePointTriangle.obj
 0001:000a30e0       ?distanceSegmentBoxSquared@Gu@physx@@YAMAEBV?$PxVec3T@M@2@000AEBV?$PxMat33T@M@2@PEAMPEAV32@@Z 00000001800a40e0 f   GuDistanceSegmentBox.obj
 0001:000a3960       ?distanceSegmentSegmentSquared4@Gu@physx@@YA?AT__m128@@AEBT3@000000000AEAT3@1@Z 00000001800a4960 f   GuDistanceSegmentSegment.obj
 0001:000a3c70       ?distanceSegmentSegmentSquared@Gu@physx@@YA?AT__m128@@AEBT3@000AEAT3@1@Z 00000001800a4c70 f   GuDistanceSegmentSegment.obj
 0001:000a3e30       ?distanceSegmentSegmentSquared@Gu@physx@@YAMAEBV?$PxVec3T@M@2@000PEAM1@Z 00000001800a4e30 f   GuDistanceSegmentSegment.obj
 0001:000a40c0       ?distanceSegmentSegmentSquared@Gu@physx@@YAMAEBV?$PxVec3T@M@2@0M00MPEAM1@Z 00000001800a50c0 f   GuDistanceSegmentSegment.obj
 0001:000a4800       ?distanceSegmentTriangleSquared@Gu@physx@@YA?AT__m128@@AEBT3@0000AEAT3@1@Z 00000001800a5800 f   GuDistanceSegmentTriangle.obj
 0001:000a4f40       ?distanceSegmentTriangleSquared@Gu@physx@@YAMAEBV?$PxVec3T@M@2@0000PEAM11@Z 00000001800a5f40 f   GuDistanceSegmentTriangle.obj
 0001:000a65b0       ?PointOutsideOfPlane4@Gu@physx@@YA?AV?$PxVec4T@M@2@AEBV?$PxVec3T@M@2@0000@Z 00000001800a75b0 f   GuDistancePointTetrahedron.obj
 0001:000a6a20       ?closestPtPointTetrahedron@Gu@physx@@YA?AV?$PxVec3T@M@2@AEBV32@0000AEBV?$PxVec4T@M@2@@Z 00000001800a7a20 f   GuDistancePointTetrahedron.obj
 0001:000a7b10       ?PenetrationDepth@EPA@Gu@physx@@QEAA?AW4GjkStatus@23@AEBUGjkConvex@23@0PEIBT__m128@@1E_NT6@AEAUGjkOutput@23@@Z 00000001800a8b10 f   GuEPA.obj
 0001:000a85d0       ?addFacet@EPA@Gu@physx@@QEAAPEAVFacet@23@IIIAEBT__m128@@@Z 00000001800a95d0 f   GuEPA.obj
 0001:000a8a00       ?epaPenetration@Gu@physx@@YA?AW4GjkStatus@12@AEBUGjkConvex@12@0PEIBE1E_NT__m128@@AEAUGjkOutput@12@@Z 00000001800a9a00 f   GuEPA.obj
 0001:000a8b70       ?epaPenetration@Gu@physx@@YA?AW4GjkStatus@12@AEBUGjkConvex@12@0PEIBT__m128@@1E_NT5@AEAUGjkOutput@12@@Z 00000001800a9b70 f   GuEPA.obj
 0001:000a8c20       ?silhouette@Facet@Gu@physx@@QEAAXAEBT__m128@@PEIBT4@1AEAVEdgeBuffer@23@AEAV?$InlineDeferredIDPool@$0EA@@Cm@3@@Z 00000001800a9c20 f   GuEPA.obj
 0001:000a8df0       ?closestPtPointTetrahedron@Gu@physx@@YA?AT__m128@@PEIAT3@00AEAI@Z 00000001800a9df0 f   GuGJKSimplex.obj
 0001:000a9560       ?closestPtPointTetrahedron@Gu@physx@@YA?AT__m128@@PEIAT3@00PEIAH1AEAI@Z 00000001800aa560 f   GuGJKSimplex.obj
 0001:000aafe0       ??$gjk@UGjkConvex@Gu@physx@@U123@@Gu@physx@@YA?AW4GjkStatus@01@AEBUGjkConvex@01@0AEBT__m128@@1AEAT4@222@Z 00000001800abfe0 f i GuGJKTest.obj
 0001:000abc00       ??$gjkPenetration@UGjkConvex@Gu@physx@@U123@@Gu@physx@@YA?AW4GjkStatus@01@AEBUGjkConvex@01@0AEBT__m128@@1_NPEIAE3AEAEAEAUGjkOutput@01@@Z 00000001800acc00 f i GuGJKTest.obj
 0001:000abc70       ??$gjkPenetration@UGjkConvex@Gu@physx@@U123@@Gu@physx@@YA?AW4GjkStatus@01@AEBUGjkConvex@01@0AEBT__m128@@1_NPEIAE3PEIAT4@4AEAEAEAUGjkOutput@01@@Z 00000001800acc70 f i GuGJKTest.obj
 0001:000ad0c0       ?testEpaPenetration@Gu@physx@@YA?AW4GjkStatus@12@AEBUGjkConvex@12@0PEBE1EAEAUGjkOutput@12@@Z 00000001800ae0c0 f   GuGJKTest.obj
 0001:000ad110       ?testGjk@Gu@physx@@YA?AW4GjkStatus@12@AEBUGjkConvex@12@0AEBT__m128@@1AEAT5@222@Z 00000001800ae110 f   GuGJKTest.obj
 0001:000ad120       ?testGjkPenetration@Gu@physx@@YA?AW4GjkStatus@12@AEBUGjkConvex@12@0AEBT__m128@@1PEAE2AEAEAEAUGjkOutput@12@@Z 00000001800ae120 f   GuGJKTest.obj
 0001:000ad170       ??0HeightField@Gu@physx@@QEAA@PEAVMeshFactory@12@@Z 00000001800ae170 f   GuHeightField.obj
 0001:000ad1c0       ??0HeightField@Gu@physx@@QEAA@PEAVMeshFactory@12@AEAUHeightFieldData@12@@Z 00000001800ae1c0 f   GuHeightField.obj
 0001:000ad270       ??1HeightField@Gu@physx@@UEAA@XZ 00000001800ae270 f   GuHeightField.obj
 0001:000ad2f0       ??_EHeightField@Gu@physx@@UEAAPEAXI@Z 00000001800ae2f0 f i GuHeightField.obj
 0001:000ad2f0       ??_GHeightField@Gu@physx@@UEAAPEAXI@Z 00000001800ae2f0 f i GuHeightField.obj
 0001:000ad3a0       ?computeCellCoordinates@HeightField@Gu@physx@@QEBAIMMAEAM0@Z 00000001800ae3a0 f   GuHeightField.obj
 0001:000ad4c0       ?createObject@HeightField@Gu@physx@@SAPEAV123@AEAPEAEAEAVPxDeserializationContext@3@@Z 00000001800ae4c0 f   GuHeightField.obj
 0001:000ad510       ?exportExtraData@HeightField@Gu@physx@@UEAAXAEAVPxSerializationContext@3@@Z 00000001800ae510 f   GuHeightField.obj
 0001:000ad560       ?getConcreteTypeName@PxHeightField@physx@@UEBAPEBDXZ 00000001800ae560 f i GuHeightField.obj
 0001:000ad570       ?getConvexEdgeThreshold@HeightField@Gu@physx@@UEBAMXZ 00000001800ae570 f i GuHeightField.obj
 0001:000ad580       ?getFlags@HeightField@Gu@physx@@UEBA?AV?$PxFlags@W4Enum@PxHeightFieldFlag@physx@@G@3@XZ 00000001800ae580 f i GuHeightField.obj
 0001:000ad590       ?getFormat@HeightField@Gu@physx@@UEBA?AW4Enum@PxHeightFieldFormat@3@XZ 00000001800ae590 f i GuHeightField.obj
 0001:000ad5a0       ?getHeight@HeightField@Gu@physx@@UEBAMMM@Z 00000001800ae5a0 f i GuHeightField.obj
 0001:000ad6c0       ?getNbColumns@HeightField@Gu@physx@@UEBAIXZ 00000001800ae6c0 f i GuHeightField.obj
 0001:000ad6d0       ?getNbBounds@BVH@Gu@physx@@UEBAIXZ 00000001800ae6d0 f i GuBVH.obj
 0001:000ad6d0       ?getNbPrimitives@SourceMesh@Gu@physx@@UEBAIXZ 00000001800ae6d0 f i GuBV4.obj
 0001:000ad6d0       ?getNbPrimitives@TetrahedronSourceMesh@Gu@physx@@UEBAIXZ 00000001800ae6d0 f i GuBV4.obj
 0001:000ad6d0       ?getNbRows@HeightField@Gu@physx@@UEBAIXZ 00000001800ae6d0 f i GuHeightField.obj
 0001:000ad6e0       ?getSample@HeightField@Gu@physx@@UEBAAEBUPxHeightFieldSample@3@II@Z 00000001800ae6e0 f i GuHeightField.obj
 0001:000ad6f0       ?getSampleStride@HeightField@Gu@physx@@UEBAIXZ 00000001800ae6f0 f i GuHeightField.obj
 0001:000ad700       ?getTimestamp@HeightField@Gu@physx@@UEBAIXZ 00000001800ae700 f i GuHeightField.obj
 0001:000ad710       ?getTriangleMaterialIndex@HeightField@Gu@physx@@UEBAGI@Z 00000001800ae710 f i GuHeightField.obj
 0001:000ad740       ?getTriangleNormal@HeightField@Gu@physx@@UEBA?AV?$PxVec3T@M@3@I@Z 00000001800ae740 f i GuHeightField.obj
 0001:000ad760       ?getTriangleNormalInternal@HeightField@Gu@physx@@QEBA?AV?$PxVec3T@M@3@I@Z 00000001800ae760 f i GuHeightField.obj
 0001:000ada90       ?isCollisionVertexPreca@HeightField@Gu@physx@@QEBA_NIIIG@Z 00000001800aea90 f   GuHeightField.obj
 0001:000adb30       ?isConvexVertex@HeightField@Gu@physx@@QEBA_NIII@Z 00000001800aeb30 f i GuHeightField.obj
 0001:000adc00       ?isKindOf@PxHeightField@physx@@MEBA_NPEBD@Z 00000001800aec00 f i GuHeightField.obj
 0001:000adc70       ?isSolidVertex@HeightField@Gu@physx@@QEBA_NIIIGAEA_N@Z 00000001800aec70 f   GuHeightField.obj
 0001:000adf00       ?load@HeightField@Gu@physx@@QEAA_NAEAVPxInputStream@3@@Z 00000001800aef00 f   GuHeightField.obj
 0001:000ae260       ?loadFromDesc@HeightField@Gu@physx@@QEAA_NAEBVPxHeightFieldDesc@3@@Z 00000001800af260 f   GuHeightField.obj
 0001:000ae460       ?modifySamples@HeightField@Gu@physx@@UEAA_NHHAEBVPxHeightFieldDesc@3@_N@Z 00000001800af460 f   GuHeightField.obj
 0001:000ae7d0       ?onRefCountZero@HeightField@Gu@physx@@UEAAXXZ 00000001800af7d0 f   GuHeightField.obj
 0001:000ae8a0       ?parseTrianglesForCollisionVertices@HeightField@Gu@physx@@QEAAXG@Z 00000001800af8a0 f   GuHeightField.obj
 0001:000aedb0       ?releaseMemory@HeightField@Gu@physx@@QEAAXXZ 00000001800afdb0 f   GuHeightField.obj
 0001:000aee00       ?resizeAndClear@?$PxBitMapBase@VPxAllocator@physx@@@physx@@QEAAXI@Z 00000001800afe00 f i GuHeightField.obj
 0001:000aeeb0       ?save@HeightField@Gu@physx@@QEAA_NAEAVPxOutputStream@3@_N@Z 00000001800afeb0 f   GuHeightField.obj
 0001:000af0f0       ?saveCells@HeightField@Gu@physx@@UEBAIPEAXI@Z 00000001800b00f0 f   GuHeightField.obj
 0001:000af130       ?computeLocalBounds@HeightFieldUtil@Gu@physx@@QEBAXAEAVPxBounds3@3@@Z 00000001800b0130 f   GuHeightFieldUtil.obj
 0001:000af600       ?getTriangle@HeightFieldUtil@Gu@physx@@QEBAIAEBV?$PxTransformT@M@3@AEAVPxTriangle@3@PEAI2I_N3@Z 00000001800b0600 f   GuHeightFieldUtil.obj
 0001:000b0100       ?getTriangleAdjacencyIndices@HeightField@Gu@physx@@QEBAXIIIIAEAI00@Z 00000001800b1100 f i GuHeightFieldUtil.obj
 0001:000b02b0       ?getTriangleVertexIndices@HeightField@Gu@physx@@QEBAXIAEAI00@Z 00000001800b12b0 f i GuHeightFieldUtil.obj
 0001:000b0370       ?overlapAABBTriangles@HeightFieldUtil@Gu@physx@@QEBAXAEBVPxBounds3@3@AEAVOverlapReport@23@I@Z 00000001800b1370 f   GuHeightFieldUtil.obj
 0001:000b07d0       ??$gjk@U?$RelativeConvex@VTriangleV@Gu@physx@@@Gu@physx@@U?$LocalConvex@VConvexHullV@Gu@physx@@@23@@Gu@physx@@YA?AW4GjkStatus@01@AEBU?$RelativeConvex@VTriangleV@Gu@physx@@@01@AEBU?$LocalConvex@VConvexHullV@Gu@physx@@@01@AEBT__m128@@2AEAT5@333@Z 00000001800b17d0 f i GuOverlapTestsHF.obj
 0001:000b1710       ?GeomOverlapCallback_BoxHeightfield@@YA_NAEBVPxGeometry@physx@@AEBV?$PxTransformT@M@2@01PEAUTriggerCache@Gu@2@PEAUPxQueryThreadContext@2@@Z 00000001800b2710 f   GuOverlapTestsHF.obj
 0001:000b1c70       ?GeomOverlapCallback_CapsuleHeightfield@@YA_NAEBVPxGeometry@physx@@AEBV?$PxTransformT@M@2@01PEAUTriggerCache@Gu@2@PEAUPxQueryThreadContext@2@@Z 00000001800b2c70 f   GuOverlapTestsHF.obj
 0001:000b2270       ?GeomOverlapCallback_ConvexHeightfield@@YA_NAEBVPxGeometry@physx@@AEBV?$PxTransformT@M@2@01PEAUTriggerCache@Gu@2@PEAUPxQueryThreadContext@2@@Z 00000001800b3270 f   GuOverlapTestsHF.obj
 0001:000b2cb0       ?GeomOverlapCallback_SphereHeightfield@@YA_NAEBVPxGeometry@physx@@AEBV?$PxTransformT@M@2@01PEAUTriggerCache@Gu@2@PEAUPxQueryThreadContext@2@@Z 00000001800b3cb0 f   GuOverlapTestsHF.obj
 0001:000b3870       ??$gjkRaycast@U?$LocalConvex@VTriangleV@Gu@physx@@@Gu@physx@@U?$LocalConvex@VConvexHullV@Gu@physx@@@23@@Gu@physx@@YA_NAEBU?$LocalConvex@VTriangleV@Gu@physx@@@01@AEBU?$LocalConvex@VConvexHullV@Gu@physx@@@01@AEBT__m128@@222AEAT4@33M@Z 00000001800b4870 f i GuSweepsHF.obj
 0001:000b4670       ??$traceSegment@VBoxTraceSegmentReport@@$0A@$00@HeightFieldTraceUtil@Gu@physx@@QEBAXAEBV?$PxVec3T@M@2@0MPEAVBoxTraceSegmentReport@@AEBVPxBounds3@2@_NPEBV32@@Z 00000001800b5670 f i GuSweepsHF.obj
 0001:000b4670       ??$traceSegment@VCapsuleTraceSegmentReport@@$0A@$00@HeightFieldTraceUtil@Gu@physx@@QEBAXAEBV?$PxVec3T@M@2@0MPEAVCapsuleTraceSegmentReport@@AEBVPxBounds3@2@_NPEBV32@@Z 00000001800b5670 f i GuSweepsHF.obj
 0001:000b4670       ??$traceSegment@VConvexTraceSegmentReport@@$0A@$00@HeightFieldTraceUtil@Gu@physx@@QEBAXAEBV?$PxVec3T@M@2@0MPEAVConvexTraceSegmentReport@@AEBVPxBounds3@2@_NPEBV32@@Z 00000001800b5670 f i GuSweepsHF.obj
 0001:000b4e90       ??0ConvexTraceSegmentReport@@QEAA@AEBVHeightFieldUtil@Gu@physx@@AEBUConvexHullData@23@AEBVPxMeshScale@3@AEBV?$PxTransformT@M@3@3AEBV?$PxVec3T@M@3@MV?$PxFlags@W4Enum@PxHitFlag@physx@@G@3@M@Z 00000001800b5e90 f i GuSweepsHF.obj
 0001:000b5810       ??_EBoxTraceSegmentReport@@UEAAPEAXI@Z 00000001800b6810 f i GuSweepsHF.obj
 0001:000b5810       ??_GBoxTraceSegmentReport@@UEAAPEAXI@Z 00000001800b6810 f i GuSweepsHF.obj
 0001:000b5840       ??_ECapsuleTraceSegmentReport@@UEAAPEAXI@Z 00000001800b6840 f i GuSweepsHF.obj
 0001:000b5840       ??_GCapsuleTraceSegmentReport@@UEAAPEAXI@Z 00000001800b6840 f i GuSweepsHF.obj
 0001:000b5870       ??_EConvexTraceSegmentReport@@UEAAPEAXI@Z 00000001800b6870 f i GuSweepsHF.obj
 0001:000b5870       ??_GConvexTraceSegmentReport@@UEAAPEAXI@Z 00000001800b6870 f i GuSweepsHF.obj
 0001:000b58a0       ??_EHeightFieldTraceSegmentReport@@UEAAPEAXI@Z 00000001800b68a0 f i GuSweepsHF.obj
 0001:000b58a0       ??_GHeightFieldTraceSegmentReport@@UEAAPEAXI@Z 00000001800b68a0 f i GuSweepsHF.obj
 0001:000b58d0       ?finalizeHit@ConvexTraceSegmentReport@@QEAA_NAEAUPxGeomSweepHit@physx@@AEBVPxHeightFieldGeometry@3@AEBV?$PxTransformT@M@3@AEBVPxConvexMeshGeometry@3@2AEBV?$PxVec3T@M@3@M@Z 00000001800b68d0 f i GuSweepsHF.obj
 0001:000b5b00       ?onEvent@BoxTraceSegmentReport@@UEAA_NIPEBI@Z 00000001800b6b00 f i GuSweepsHF.obj
 0001:000b5f50       ?onEvent@CapsuleTraceSegmentReport@@UEAA_NIPEBI@Z 00000001800b6f50 f i GuSweepsHF.obj
 0001:000b6170       ?onEvent@ConvexTraceSegmentReport@@UEAA_NIPEBI@Z 00000001800b7170 f i GuSweepsHF.obj
 0001:000b6730       ?prepare@?$OverlapTraceSegment@VBoxTraceSegmentReport@@@HeightFieldTraceUtil@Gu@physx@@QEAAXAEBV?$PxVec3T@M@4@00AEAM1@Z 00000001800b7730 f i GuSweepsHF.obj
 0001:000b6730       ?prepare@?$OverlapTraceSegment@VCapsuleTraceSegmentReport@@@HeightFieldTraceUtil@Gu@physx@@QEAAXAEBV?$PxVec3T@M@4@00AEAM1@Z 00000001800b7730 f i GuSweepsHF.obj
 0001:000b6730       ?prepare@?$OverlapTraceSegment@VConvexTraceSegmentReport@@@HeightFieldTraceUtil@Gu@physx@@QEAAXAEBV?$PxVec3T@M@4@00AEAM1@Z 00000001800b7730 f i GuSweepsHF.obj
 0001:000b69f0       ?sweepBox_HeightFieldGeom@@YA_NAEBVPxGeometry@physx@@AEBV?$PxTransformT@M@2@AEBVPxBoxGeometry@2@1AEBVBox@Gu@2@AEBV?$PxVec3T@M@2@MAEAUPxGeomSweepHit@2@V?$PxFlags@W4Enum@PxHitFlag@physx@@G@2@MPEAUPxQueryThreadContext@2@@Z 00000001800b79f0 f   GuSweepsHF.obj
 0001:000b7840       ?sweepCapsule_HeightFieldGeom@@YA_NAEBVPxGeometry@physx@@AEBV?$PxTransformT@M@2@AEBVPxCapsuleGeometry@2@1AEBVCapsule@Gu@2@AEBV?$PxVec3T@M@2@MAEAUPxGeomSweepHit@2@V?$PxFlags@W4Enum@PxHitFlag@physx@@G@2@MPEAUPxQueryThreadContext@2@@Z 00000001800b8840 f   GuSweepsHF.obj
 0001:000b8190       ?sweepConvex_HeightFieldGeom@@YA_NAEBVPxGeometry@physx@@AEBV?$PxTransformT@M@2@AEBVPxConvexMeshGeometry@2@1AEBV?$PxVec3T@M@2@MAEAUPxGeomSweepHit@2@V?$PxFlags@W4Enum@PxHitFlag@physx@@G@2@MPEAUPxQueryThreadContext@2@@Z 00000001800b9190 f   GuSweepsHF.obj
 0001:000b8b60       ?testVertexIndex@?$OverlapTraceSegment@VBoxTraceSegmentReport@@@HeightFieldTraceUtil@Gu@physx@@QEAA_NI@Z 00000001800b9b60 f i GuSweepsHF.obj
 0001:000b8b60       ?testVertexIndex@?$OverlapTraceSegment@VCapsuleTraceSegmentReport@@@HeightFieldTraceUtil@Gu@physx@@QEAA_NI@Z 00000001800b9b60 f i GuSweepsHF.obj
 0001:000b8b60       ?testVertexIndex@?$OverlapTraceSegment@VConvexTraceSegmentReport@@@HeightFieldTraceUtil@Gu@physx@@QEAA_NI@Z 00000001800b9b60 f i GuSweepsHF.obj
 0001:000b8cc0       ?transformFast@PxBounds3@physx@@SA?AV12@AEBV?$PxTransformT@M@2@AEBV12@@Z 00000001800b9cc0 f i GuSweepsHF.obj
 0001:000b90a0       ?visitCells@?$OverlapTraceSegment@VBoxTraceSegmentReport@@@HeightFieldTraceUtil@Gu@physx@@QEAA_NAEBUOverlapRectangle@1234@@Z 00000001800ba0a0 f i GuSweepsHF.obj
 0001:000b90a0       ?visitCells@?$OverlapTraceSegment@VCapsuleTraceSegmentReport@@@HeightFieldTraceUtil@Gu@physx@@QEAA_NAEBUOverlapRectangle@1234@@Z 00000001800ba0a0 f i GuSweepsHF.obj
 0001:000b90a0       ?visitCells@?$OverlapTraceSegment@VConvexTraceSegmentReport@@@HeightFieldTraceUtil@Gu@physx@@QEAA_NAEBUOverlapRectangle@1234@@Z 00000001800ba0a0 f i GuSweepsHF.obj
 0001:000b9290       ?intersectOBBOBB@Gu@physx@@YA_NAEBV?$PxVec3T@M@2@0AEBV?$PxMat33T@M@2@001_N@Z 00000001800ba290 f   GuIntersectionBoxBox.obj
 0001:000b98e0       ?intersectCapsuleTriangle@Gu@physx@@YA_NAEBV?$PxVec3T@M@2@000AEBVCapsule@12@AEBUCapsuleTriangleOverlapData@12@@Z 00000001800ba8e0 f   GuIntersectionCapsuleTriangle.obj
 0001:000ba4d0       ?intersectEdgeEdge@Gu@physx@@YA_NAEBV?$PxVec3T@M@2@0000AEAMAEAV32@@Z 00000001800bb4d0 f   GuIntersectionEdgeEdge.obj
 0001:000ba7f0       ?intersectRayAABB2@Gu@physx@@YA_NAEBT__m128@@0000AEAT3@1@Z 00000001800bb7f0 f   GuIntersectionRayBox.obj
 0001:000ba8b0       ?intersectRayAABB2@Gu@physx@@YA_NAEBV?$PxVec3T@M@2@000MAEAM1@Z 00000001800bb8b0 f   GuIntersectionRayBox.obj
 0001:000baa60       ?intersectRayAABB@Gu@physx@@YAHAEBV?$PxVec3T@M@2@000AEAM1@Z 00000001800bba60 f   GuIntersectionRayBox.obj
 0001:000bab70       ?rayAABBIntersect2@Gu@physx@@YAIAEBV?$PxVec3T@M@2@000AEAV32@AEAM@Z 00000001800bbb70 f   GuIntersectionRayBox.obj
 0001:000bad70       ?intersectRayCapsuleInternal@Gu@physx@@YAIAEBV?$PxVec3T@M@2@000MQEAM@Z 00000001800bbd70 f   GuIntersectionRayCapsule.obj
 0001:000bb230       ?intersectRaySphere@Gu@physx@@YA_NAEBV?$PxVec3T@M@2@0M0MAEAMPEAV32@@Z 00000001800bc230 f   GuIntersectionRaySphere.obj
 0001:000bb320       ?intersectRaySphereBasic@Gu@physx@@YA_NAEBV?$PxVec3T@M@2@0M0MAEAMPEAV32@@Z 00000001800bc320 f   GuIntersectionRaySphere.obj
 0001:000bb480       ?intersectSphereBox@Gu@physx@@YA_NAEBVSphere@12@AEBVBox@12@@Z 00000001800bc480 f   GuIntersectionSphereBox.obj
 0001:000bb6b0       ?intersectTetrahedronBox@Gu@physx@@YA_NAEBV?$PxVec3T@M@2@000AEBVPxBounds3@2@@Z 00000001800bc6b0 f   GuIntersectionTetrahedronBox.obj
 0001:000bba80       ?intersectTriangleBox@Gu@physx@@YAHAEBVBoxPadded@12@AEBV?$PxVec3T@M@2@11@Z 00000001800bca80 f   GuIntersectionTriangleBox.obj
 0001:000bc050       ?intersectTriangleBoxBV4@@YAHAEBV?$PxVec3T@M@physx@@00AEBV?$PxMat33T@M@2@00@Z 00000001800bd050 f   GuIntersectionTriangleBox.obj
 0001:000bc490       ?intersectTriangleBox_ReferenceCode@Gu@physx@@YAHAEBV?$PxVec3T@M@2@0000@Z 00000001800bd490 f   GuIntersectionTriangleBox.obj
 0001:000bcc60       ?intersectTriangleBox_Unsafe@Gu@physx@@YAHAEBV?$PxVec3T@M@2@0000@Z 00000001800bdc60 f   GuIntersectionTriangleBox.obj
 0001:000bd310       ?trianglesIntersect@Gu@physx@@YA_NAEBV?$PxVec3T@M@2@00000PEAVSegment@12@@Z 00000001800be310 f   GuIntersectionTriangleTriangle.obj
 0001:000bd900       ??0BV4Tree@Gu@physx@@QEAA@W4PxEMPTY@2@@Z 00000001800be900 f   GuBV4.obj
 0001:000bd910       ??0BV4Tree@Gu@physx@@QEAA@XZ 00000001800be910 f   GuBV4.obj
 0001:000bd940       ??0SourceMesh@Gu@physx@@QEAA@XZ 00000001800be940 f   GuBV4.obj
 0001:000bd970       ??0TetrahedronSourceMesh@Gu@physx@@QEAA@XZ 00000001800be970 f   GuBV4.obj
 0001:000bd9a0       ??1BV4Tree@Gu@physx@@QEAA@XZ 00000001800be9a0 f   GuBV4.obj
 0001:000bda00       ??1SourceMesh@Gu@physx@@UEAA@XZ 00000001800bea00 f   GuBV4.obj
 0001:000bda00       ??1TetrahedronSourceMesh@Gu@physx@@UEAA@XZ 00000001800bea00 f   GuBV4.obj
 0001:000bda50       ??4BV4Tree@Gu@physx@@QEAAXAEAV012@@Z 00000001800bea50 f   GuBV4.obj
 0001:000bdae0       ??4SourceMesh@Gu@physx@@QEAAXAEAV012@@Z 00000001800beae0 f   GuBV4.obj
 0001:000bdb30       ??_ESourceMesh@Gu@physx@@UEAAPEAXI@Z 00000001800beb30 f i GuBV4.obj
 0001:000bdb30       ??_ETetrahedronSourceMesh@Gu@physx@@UEAAPEAXI@Z 00000001800beb30 f i GuBV4.obj
 0001:000bdb30       ??_GSourceMesh@Gu@physx@@UEAAPEAXI@Z 00000001800beb30 f i GuBV4.obj
 0001:000bdb30       ??_GTetrahedronSourceMesh@Gu@physx@@UEAAPEAXI@Z 00000001800beb30 f i GuBV4.obj
 0001:000bdbd0       ??_ESourceMeshBase@Gu@physx@@UEAAPEAXI@Z 00000001800bebd0 f i GuBV4.obj
 0001:000bdbd0       ??_GSourceMeshBase@Gu@physx@@UEAAPEAXI@Z 00000001800bebd0 f i GuBV4.obj
 0001:000bdc70       ?exportExtraData@BV4Tree@Gu@physx@@QEAAXAEAVPxSerializationContext@3@@Z 00000001800bec70 f   GuBV4.obj
 0001:000bdcd0       ?getPrimitiveBox@SourceMesh@Gu@physx@@UEAAXIAEAT__m128@@0@Z 00000001800becd0 f   GuBV4.obj
 0001:000bdd70       ?getPrimitiveBox@TetrahedronSourceMesh@Gu@physx@@UEAAXIAEAT__m128@@0@Z 00000001800bed70 f   GuBV4.obj
 0001:000bde30       ?importExtraData@BV4Tree@Gu@physx@@QEAAXAEAVPxDeserializationContext@3@@Z 00000001800bee30 f   GuBV4.obj
 0001:000bde80       ?init@BV32Tree@Gu@physx@@QEAA_NPEAVSourceMeshBase@23@AEBVPxBounds3@3@@Z 00000001800bee80 f   GuBV32.obj
 0001:000bde80       ?init@BV4Tree@Gu@physx@@QEAA_NPEAVSourceMeshBase@23@AEBVPxBounds3@3@@Z 00000001800bee80 f   GuBV4.obj
 0001:000bdf20       ?load@BV4Tree@Gu@physx@@QEAA_NAEAVPxInputStream@3@_N@Z 00000001800bef20 f   GuBV4.obj
 0001:000be160       ?refit@BV4Tree@Gu@physx@@QEAA_NAEAVPxBounds3@3@M@Z 00000001800bf160 f   GuBV4.obj
 0001:000be7d0       ?refit@SourceMesh@Gu@physx@@UEAAXIAEAVPxBounds3@3@@Z 00000001800bf7d0 f   GuBV4.obj
 0001:000be970       ?refit@TetrahedronSourceMesh@Gu@physx@@UEAAXIAEAVPxBounds3@3@@Z 00000001800bf970 f   GuBV4.obj
 0001:000beb90       ?remapTopology@SourceMesh@Gu@physx@@UEAAXPEBI@Z 00000001800bfb90 f   GuBV4.obj
 0001:000bee20       ?remapTopology@TetrahedronSourceMesh@Gu@physx@@UEAAXPEBI@Z 00000001800bfe20 f   GuBV4.obj
 0001:000bf0a0       ??0BV4_AABBTree@Gu@physx@@QEAA@XZ 00000001800c00a0 f   GuBV4Build.obj
 0001:000bf0b0       ??0BVData@@QEAA@XZ         00000001800c00b0 f   GuBV4Build.obj
 0001:000bf0e0       ??0BuildStats@Gu@physx@@QEAA@XZ 00000001800c00e0 f i GuBV4Build.obj
 0001:000bf0f0       ??1BV4_AABBTree@Gu@physx@@QEAA@XZ 00000001800c00f0 f   GuBV4Build.obj
 0001:000bf100       ??4BuildStats@Gu@physx@@QEAAAEAU012@$$QEAU012@@Z 00000001800c0100 f i GuBV4Build.obj
 0001:000bf110       ??4BuildStats@Gu@physx@@QEAAAEAU012@AEBU012@@Z 00000001800c0110 f i GuBV4Build.obj
 0001:000bf120       ?BuildBV4Ex@Gu@physx@@YA_NAEAVBV4Tree@12@AEAVSourceMeshBase@12@MI_NW4BV4_BuildStrategy@12@@Z 00000001800c0120 f   GuBV4Build.obj
 0001:000c0010       ?allocateNode@BV4BuildParams@@QEAAPEAUBV4Node@@XZ 00000001800c1010 f   GuBV4Build.obj
 0001:000c0480       ?buildFromMesh@BV4_AABBTree@Gu@physx@@QEAA_NAEAVSourceMeshBase@23@IW4BV4_BuildStrategy@23@@Z 00000001800c1480 f   GuBV4Build.obj
 0001:000c1630       ?increaseCount@BuildStats@Gu@physx@@QEAAXI@Z 00000001800c2630 f i GuBV4Build.obj
 0001:000c2090       ?release@BV4_AABBTree@Gu@physx@@QEAAXXZ 00000001800c3090 f   GuBV4Build.obj
 0001:000c2140       ?releaseNodes@BV4BuildParams@@QEAAXXZ 00000001800c3140 f   GuBV4Build.obj
 0001:000c21b0       ?reset@BuildStats@Gu@physx@@QEAAXXZ 00000001800c31b0 f i GuBV4Build.obj
 0001:000c21c0       ?setCount@BuildStats@Gu@physx@@QEAAXI@Z 00000001800c31c0 f i GuBV4Build.obj
 0001:000c2830       ?walk@BV4_AABBTree@Gu@physx@@QEBAIP6A_NPEBVAABBTreeNode@23@IPEAX@Z1@Z 00000001800c3830 f   GuBV4Build.obj
 0001:000c28f0       ?walkDistance@BV4_AABBTree@Gu@physx@@QEBAIP6A_NPEBVAABBTreeNode@23@IPEAX@ZP6A_N01@Z1@Z 00000001800c38f0 f   GuBV4Build.obj
 0001:000c6910       ?GenericSweep_AABB_CB@@YAXAEBVBox@Gu@physx@@AEBV?$PxVec3T@M@3@MAEBVBV4Tree@23@P6A_NPEAX111IAEAM@Z3I@Z 00000001800c7910 f   GuBV4_AABBSweep.obj
 0001:000c6a70       ?Sweep_AABB_BV4@@YAHAEBVBox@Gu@physx@@AEBV?$PxVec3T@M@3@MAEBVBV4Tree@23@PEIAVSweepHit@23@I@Z 00000001800c7a70 f   GuBV4_AABBSweep.obj
 0001:000cf7b0       ?BV4_OverlapBoxAll@@YAIAEBVBox@Gu@physx@@AEBVBV4Tree@23@PEIBV?$PxMat44T@M@3@PEAIIAEA_N@Z 00000001800d07b0 f   GuBV4_BoxOverlap.obj
 0001:000cffc0       ?BV4_OverlapBoxAny@@YAHAEBVBox@Gu@physx@@AEBVBV4Tree@23@PEIBV?$PxMat44T@M@3@@Z 00000001800d0fc0 f   GuBV4_BoxOverlap.obj
 0001:000d07c0       ?BV4_OverlapBoxCB@@YAXAEBVBox@Gu@physx@@AEBVBV4Tree@23@P6A_NPEAXAEBV?$PxVec3T@M@3@333IPEBI@Z2@Z 00000001800d17c0 f   GuBV4_BoxOverlap.obj
 0001:000d0e80       ?BV4_OverlapBoxCB@@YAXAEBVBox@Gu@physx@@AEBVBV4Tree@23@P6A_NPEAXAEBV?$PxVec3T@M@3@33IPEBI@Z2@Z 00000001800d1e80 f   GuBV4_BoxOverlap.obj
 0001:000d1330       ?BV4_OverlapCapsuleAll@@YAIAEBVCapsule@Gu@physx@@AEBVBV4Tree@23@PEIBV?$PxMat44T@M@3@PEAIIAEA_N@Z 00000001800d2330 f   GuBV4_BoxOverlap.obj
 0001:000d1a50       ?BV4_OverlapCapsuleAny@@YAHAEBVCapsule@Gu@physx@@AEBVBV4Tree@23@PEIBV?$PxMat44T@M@3@@Z 00000001800d2a50 f   GuBV4_BoxOverlap.obj
 0001:000d4900       ?BV4_CapsuleSweepSingle@@YAHAEBVCapsule@Gu@physx@@AEBV?$PxVec3T@M@3@MAEBVBV4Tree@23@PEIAVSweepHit@23@I@Z 00000001800d5900 f   GuBV4_CapsuleSweep.obj
 0001:000d89c0       ?BV4_CapsuleSweepSingleAA@@YAHAEBVCapsule@Gu@physx@@AEBV?$PxVec3T@M@3@MAEBVBV4Tree@23@PEIAVSweepHit@23@I@Z 00000001800d99c0 f   GuBV4_CapsuleSweepAA.obj
 0001:000e8890       ?BV4_OverlapMeshVsMesh@@YA_NAEAV?$PxReportCallback@UPxGeomIndexPair@physx@@@physx@@AEBVBV4Tree@Gu@2@1PEBV?$PxMat44T@M@2@2AEBV?$PxTransformT@M@2@3AEBVPxMeshScale@2@4V?$PxFlags@W4Enum@PxMeshMeshQueryFlag@physx@@I@2@@Z 00000001800e9890 f   GuBV4_MeshMeshOverlap.obj
 0001:000e8ab0       ?BV4_OverlapMeshVsMesh@@YA_NAEAV?$PxReportCallback@UPxGeomIndexPair@physx@@@physx@@AEBVBV4Tree@Gu@2@1PEBV?$PxMat44T@M@2@2V?$PxFlags@W4Enum@PxMeshMeshQueryFlag@physx@@I@2@@Z 00000001800e9ab0 f   GuBV4_MeshMeshOverlap.obj
 0001:000f0020       ??D?$PxMat33T@M@physx@@QEBA?BV?$PxVec3T@M@1@AEBV21@@Z 00000001800f1020 f i GuBV4_OBBSweep.obj
 0001:000f00b0       ?BV4_BoxSweepSingle@@YAHAEBVBox@Gu@physx@@AEBV?$PxVec3T@M@3@MAEBVBV4Tree@23@PEIBV?$PxMat44T@M@3@PEIAVSweepHit@23@I@Z 00000001800f10b0 f   GuBV4_OBBSweep.obj
 0001:000f07e0       ?BV4_GenericSweepCB@@YAXAEBVBox@Gu@physx@@AEBV?$PxVec3T@M@3@MAEBVBV4Tree@23@P6A_NPEAX111IAEAM@Z3_N@Z 00000001800f17e0 f   GuBV4_OBBSweep.obj
 0001:000f0a10       ?Sweep_OBB_BV4@@YAHAEBVBox@Gu@physx@@AEBV?$PxVec3T@M@3@MAEBVBV4Tree@23@PEIAVSweepHit@23@I@Z 00000001800f1a10 f   GuBV4_OBBSweep.obj
 0001:000f3550       ?BV4_RaycastCB@@YAXAEBV?$PxVec3T@M@physx@@0AEBVBV4Tree@Gu@2@PEIBV?$PxMat44T@M@2@MMIP6A?AW4HitCode@42@PEAX000IMMM@Z3@Z 00000001800f4550 f   GuBV4_Raycast.obj
 0001:000f3990       ?BV4_RaycastSingle@@YAHAEBV?$PxVec3T@M@physx@@0AEBVBV4Tree@Gu@2@PEIBV?$PxMat44T@M@2@PEIAUPxGeomRaycastHit@2@MMIV?$PxFlags@W4Enum@PxHitFlag@physx@@G@2@@Z 00000001800f4990 f   GuBV4_Raycast.obj
 0001:000f5ec0       ?BV4_OverlapSphereAll@@YAIAEBVSphere@Gu@physx@@AEBVBV4Tree@23@PEIBV?$PxMat44T@M@3@PEAIIAEA_N@Z 00000001800f6ec0 f   GuBV4_SphereOverlap.obj
 0001:000f61e0       ?BV4_OverlapSphereAny@@YAHAEBVSphere@Gu@physx@@AEBVBV4Tree@23@PEIBV?$PxMat44T@M@3@@Z 00000001800f71e0 f   GuBV4_SphereOverlap.obj
 0001:000f64c0       ?BV4_PointDistance@@YAXAEBV?$PxVec3T@M@physx@@AEBVBV4Tree@Gu@2@MAEAIAEAMAEAV12@@Z 00000001800f74c0 f   GuBV4_SphereOverlap.obj
 0001:000fceb0       ?BV4_GenericSweepCB_Old@@YAXAEBV?$PxVec3T@M@physx@@00MAEBVBV4Tree@Gu@2@PEIBV?$PxMat44T@M@2@P6A_NPEAX000IAEAM@Z3@Z 00000001800fdeb0 f   GuBV4_SphereSweep.obj
 0001:000fd2c0       ?BV4_SphereSweepSingle@@YAHAEBVSphere@Gu@physx@@AEBV?$PxVec3T@M@3@MAEBVBV4Tree@23@PEIBV?$PxMat44T@M@3@PEIAVSweepHit@23@I@Z 00000001800fe2c0 f   GuBV4_SphereSweep.obj
 0001:000fe5c0       ?computeSweepData@physx@@YAMAEBVPxTriangleMeshGeometry@1@AEAV?$PxVec3T@M@1@11M@Z 00000001800ff5c0 f i GuMidphaseBV4.obj
 0001:000ffa00       ?intersectBoxVsMesh_BV4@Gu@physx@@YA_NAEBVBox@12@AEBVTriangleMesh@12@AEBV?$PxTransformT@M@2@AEBVPxMeshScale@2@PEAULimitedResults@12@@Z 0000000180100a00 f   GuMidphaseBV4.obj
 0001:00100510       ?intersectCapsuleVsMesh_BV4@Gu@physx@@YA_NAEBVCapsule@12@AEBVTriangleMesh@12@AEBV?$PxTransformT@M@2@AEBVPxMeshScale@2@PEAULimitedResults@12@@Z 0000000180101510 f   GuMidphaseBV4.obj
 0001:00100d50       ?intersectMeshVsMesh_BV4@Gu@physx@@YA_NAEAV?$PxReportCallback@UPxGeomIndexPair@physx@@@2@AEBVTriangleMesh@12@1AEBV?$PxTransformT@M@2@2AEBVPxMeshScale@2@3V?$PxFlags@W4Enum@PxMeshMeshQueryFlag@physx@@I@2@@Z 0000000180101d50 f   GuMidphaseBV4.obj
 0001:00101650       ?intersectOBB_BV4@Gu@physx@@YAXPEBVTetrahedronMesh@12@AEBVBox@12@AEAU?$TetMeshHitCallback@UPxGeomRaycastHit@physx@@@12@@Z 0000000180102650 f   GuMidphaseBV4.obj
 0001:00101670       ?intersectOBB_BV4@Gu@physx@@YAXPEBVTriangleMesh@12@AEBVBox@12@AEAU?$MeshHitCallback@UPxGeomRaycastHit@physx@@@12@_N3@Z 0000000180102670 f   GuMidphaseBV4.obj
 0001:00101690       ?intersectSphereVsMesh_BV4@Gu@physx@@YA_NAEBVSphere@12@AEBVTriangleMesh@12@AEBV?$PxTransformT@M@2@AEBVPxMeshScale@2@PEAULimitedResults@12@@Z 0000000180102690 f   GuMidphaseBV4.obj
 0001:00101dc0       ?pointMeshDistance_BV4@Gu@physx@@YAXPEBVTriangleMesh@12@AEBVPxTriangleMeshGeometry@2@AEBV?$PxTransformT@M@2@AEBV?$PxVec3T@M@2@MAEAIAEAMAEAV62@@Z 0000000180102dc0 f   GuMidphaseBV4.obj
 0001:00102470       ?raycast_triangleMesh_BV4@Gu@physx@@YAIPEBVTriangleMesh@12@AEBVPxTriangleMeshGeometry@2@AEBV?$PxTransformT@M@2@AEBV?$PxVec3T@M@2@3MV?$PxFlags@W4Enum@PxHitFlag@physx@@G@2@IPEIAUPxGeomRaycastHit@2@I@Z 0000000180103470 f   GuMidphaseBV4.obj
 0001:00103280       ?sweepBox_MeshGeom_BV4@Gu@physx@@YA_NPEBVTriangleMesh@12@AEBVPxTriangleMeshGeometry@2@AEBV?$PxTransformT@M@2@AEBVBox@12@AEBV?$PxVec3T@M@2@MAEAUPxGeomSweepHit@2@V?$PxFlags@W4Enum@PxHitFlag@physx@@G@2@M@Z 0000000180104280 f   GuMidphaseBV4.obj
 0001:001049a0       ?sweepCapsule_MeshGeom_BV4@Gu@physx@@YA_NPEBVTriangleMesh@12@AEBVPxTriangleMeshGeometry@2@AEBV?$PxTransformT@M@2@AEBVCapsule@12@AEBV?$PxVec3T@M@2@MAEAUPxGeomSweepHit@2@V?$PxFlags@W4Enum@PxHitFlag@physx@@G@2@M@Z 00000001801059a0 f   GuMidphaseBV4.obj
 0001:001054b0       ?sweepConvex_MeshGeom_BV4@Gu@physx@@YAXPEBVTriangleMesh@12@AEBVBox@12@AEBV?$PxVec3T@M@2@MAEAUSweepConvexMeshHitCallback@12@_N@Z 00000001801064b0 f   GuMidphaseBV4.obj
 0001:001054f0       ?transform@PxMeshScale@physx@@QEBA?AV?$PxVec3T@M@2@AEBV32@@Z 00000001801064f0 f i GuMidphaseBV4.obj
 0001:00105730       ?findOverlapHeightField@PxMeshQuery@physx@@SAIAEBVPxGeometry@2@AEBV?$PxTransformT@M@2@AEBVPxHeightFieldGeometry@2@1PEAIIIAEA_NV?$PxFlags@W4Enum@PxGeometryQueryFlag@physx@@I@2@@Z 0000000180106730 f   GuMeshQuery.obj
 0001:00105ea0       ?findOverlapTriangleMesh@PxMeshQuery@physx@@SAIAEBVPxGeometry@2@AEBV?$PxTransformT@M@2@AEBVPxTriangleMeshGeometry@2@1PEAIIIAEA_NV?$PxFlags@W4Enum@PxGeometryQueryFlag@physx@@I@2@@Z 0000000180106ea0 f   GuMeshQuery.obj
 0001:001061c0       ?findOverlapTriangleMesh@PxMeshQuery@physx@@SA_NAEAV?$PxReportCallback@UPxGeomIndexPair@physx@@@2@AEBVPxTriangleMeshGeometry@2@AEBV?$PxTransformT@M@2@12V?$PxFlags@W4Enum@PxGeometryQueryFlag@physx@@I@2@V?$PxFlags@W4Enum@PxMeshMeshQueryFlag@physx@@I@2@@Z 00000001801071c0 f   GuMeshQuery.obj
 0001:001062d0       ?getTriangle@PxMeshQuery@physx@@SAXAEBVPxHeightFieldGeometry@2@AEBV?$PxTransformT@M@2@IAEAVPxTriangle@2@PEAI3@Z 00000001801072d0 f   GuMeshQuery.obj
 0001:00106350       ?getTriangle@PxMeshQuery@physx@@SAXAEBVPxTriangleMeshGeometry@2@AEBV?$PxTransformT@M@2@IAEAVPxTriangle@2@PEAI3@Z 0000000180107350 f   GuMeshQuery.obj
 0001:00106850       ?sweep@PxMeshQuery@physx@@SA_NAEBV?$PxVec3T@M@2@MAEBVPxGeometry@2@AEBV?$PxTransformT@M@2@IPEBVPxTriangle@2@AEAUPxGeomSweepHit@2@V?$PxFlags@W4Enum@PxHitFlag@physx@@G@2@PEBIM_NV?$PxFlags@W4Enum@PxGeometryQueryFlag@physx@@I@2@@Z 0000000180107850 f   GuMeshQuery.obj
 0001:00106ae0       ??$collide@$00$00@MeshRayCollider@@SAXAEBV?$PxVec3T@M@physx@@0M_NPEBVRTreeTriangleMesh@Gu@2@AEAU?$MeshHitCallback@UPxGeomRaycastHit@physx@@@42@PEBV12@@Z 0000000180107ae0 f i GuMidphaseRTree.obj
 0001:00106e50       ??$collide@$00$0A@@MeshRayCollider@@SAXAEBV?$PxVec3T@M@physx@@0M_NPEBVRTreeTriangleMesh@Gu@2@AEAU?$MeshHitCallback@UPxGeomRaycastHit@physx@@@42@PEBV12@@Z 0000000180107e50 f i GuMidphaseRTree.obj
 0001:00107090       ??$collide@$0A@$00@MeshRayCollider@@SAXAEBV?$PxVec3T@M@physx@@0M_NPEBVRTreeTriangleMesh@Gu@2@AEAU?$MeshHitCallback@UPxGeomRaycastHit@physx@@@42@PEBV12@@Z 0000000180108090 f i GuMidphaseRTree.obj
 0001:001093f0       ??0?$RayRTreeCallback@$00$0A@@@QEAA@MAEAU?$MeshHitCallback@UPxGeomRaycastHit@physx@@@Gu@physx@@HPEBXPEBV?$PxVec3T@M@3@AEBV43@3M_N2@Z 000000018010a3f0 f i GuMidphaseRTree.obj
 0001:00109510       ??1?$RayRTreeCallback@$00$00@@UEAA@XZ 000000018010a510 f i GuMidphaseRTree.obj
 0001:001095a0       ??1?$RayRTreeCallback@$00$0A@@@UEAA@XZ 000000018010a5a0 f i GuMidphaseRTree.obj
 0001:001095a0       ??1?$RayRTreeCallback@$0A@$0A@@@UEAA@XZ 000000018010a5a0 f i GuMidphaseRTree.obj
 0001:00109630       ??1?$RayRTreeCallback@$0A@$00@@UEAA@XZ 000000018010a630 f i GuMidphaseRTree.obj
 0001:001096b8       ??_E?$RayRTreeCallback@$00$00@@W7EAAPEAXI@Z 000000018010a6b8 f i GuMidphaseRTree.obj
 0001:001096c4       ??_E?$RayRTreeCallback@$00$0A@@@W7EAAPEAXI@Z 000000018010a6c4 f i GuMidphaseRTree.obj
 0001:001096c4       ??_E?$RayRTreeCallback@$0A@$0A@@@W7EAAPEAXI@Z 000000018010a6c4 f i GuMidphaseRTree.obj
 0001:001096d0       ??_E?$RayRTreeCallback@$0A@$00@@W7EAAPEAXI@Z 000000018010a6d0 f i GuMidphaseRTree.obj
 0001:00109740       ??_E?$RayRTreeCallback@$00$00@@UEAAPEAXI@Z 000000018010a740 f i GuMidphaseRTree.obj
 0001:00109740       ??_G?$RayRTreeCallback@$00$00@@UEAAPEAXI@Z 000000018010a740 f i GuMidphaseRTree.obj
 0001:00109780       ??_E?$RayRTreeCallback@$00$0A@@@UEAAPEAXI@Z 000000018010a780 f i GuMidphaseRTree.obj
 0001:00109780       ??_E?$RayRTreeCallback@$0A@$0A@@@UEAAPEAXI@Z 000000018010a780 f i GuMidphaseRTree.obj
 0001:00109780       ??_G?$RayRTreeCallback@$00$0A@@@UEAAPEAXI@Z 000000018010a780 f i GuMidphaseRTree.obj
 0001:00109780       ??_G?$RayRTreeCallback@$0A@$0A@@@UEAAPEAXI@Z 000000018010a780 f i GuMidphaseRTree.obj
 0001:001097c0       ??_E?$RayRTreeCallback@$0A@$00@@UEAAPEAXI@Z 000000018010a7c0 f i GuMidphaseRTree.obj
 0001:001097c0       ??_G?$RayRTreeCallback@$0A@$00@@UEAAPEAXI@Z 000000018010a7c0 f i GuMidphaseRTree.obj
 0001:00109800       ??_ECallback@RTree@Gu@physx@@UEAAPEAXI@Z 000000018010a800 f i GuMidphaseRTree.obj
 0001:00109800       ??_GCallback@RTree@Gu@physx@@UEAAPEAXI@Z 000000018010a800 f i GuMidphaseRTree.obj
 0001:00109830       ??_ERayMeshColliderCallback@@UEAAPEAXI@Z 000000018010a830 f i GuMidphaseRTree.obj
 0001:00109830       ??_ESweepCapsuleMeshHitCallback@Gu@physx@@UEAAPEAXI@Z 000000018010a830 f i GuSweepsMesh.obj
 0001:00109830       ??_GRayMeshColliderCallback@@UEAAPEAXI@Z 000000018010a830 f i GuMidphaseRTree.obj
 0001:00109830       ??_GSweepCapsuleMeshHitCallback@Gu@physx@@UEAAPEAXI@Z 000000018010a830 f i GuSweepsMesh.obj
 0001:00109860       ?collideOBB@MeshRayCollider@@SAXAEBVBox@Gu@physx@@_NPEBVRTreeTriangleMesh@34@AEAU?$MeshHitCallback@UPxGeomRaycastHit@physx@@@34@1@Z 000000018010a860 f   GuMidphaseRTree.obj
 0001:00109d30       ?intersectBoxVsMesh_RTREE@Gu@physx@@YA_NAEBVBox@12@AEBVTriangleMesh@12@AEBV?$PxTransformT@M@2@AEBVPxMeshScale@2@PEAULimitedResults@12@@Z 000000018010ad30 f   GuMidphaseRTree.obj
 0001:00109da0       ?intersectCapsuleVsMesh_RTREE@Gu@physx@@YA_NAEBVCapsule@12@AEBVTriangleMesh@12@AEBV?$PxTransformT@M@2@AEBVPxMeshScale@2@PEAULimitedResults@12@@Z 000000018010ada0 f   GuMidphaseRTree.obj
 0001:00109e20       ?intersectOBB_RTREE@Gu@physx@@YAXPEBVTriangleMesh@12@AEBVBox@12@AEAU?$MeshHitCallback@UPxGeomRaycastHit@physx@@@12@_N3@Z 000000018010ae20 f   GuMidphaseRTree.obj
 0001:00109e50       ?intersectSphereVsMesh_RTREE@Gu@physx@@YA_NAEBVSphere@12@AEBVTriangleMesh@12@AEBV?$PxTransformT@M@2@AEBVPxMeshScale@2@PEAULimitedResults@12@@Z 000000018010ae50 f   GuMidphaseRTree.obj
 0001:00109e80       ?pointMeshDistance_RTREE@Gu@physx@@YAXPEBVTriangleMesh@12@AEBVPxTriangleMeshGeometry@2@AEBV?$PxTransformT@M@2@AEBV?$PxVec3T@M@2@MAEAIAEAMAEAV62@@Z 000000018010ae80 f   GuMidphaseRTree.obj
 0001:0010ac70       ?processHit@RayMeshColliderCallback@@UEAA_NAEBUPxGeomRaycastHit@physx@@AEBV?$PxVec3T@M@3@11AEAMPEBI@Z 000000018010bc70 f i GuMidphaseRTree.obj
 0001:0010b410       ?processResults@?$RayRTreeCallback@$00$00@@UEAA_NIPEAI@Z 000000018010c410 f i GuMidphaseRTree.obj
 0001:0010b780       ?processResults@?$RayRTreeCallback@$00$00@@UEAA_NIPEAIAEAM@Z 000000018010c780 f i GuMidphaseRTree.obj
 0001:0010bb00       ?processResults@?$RayRTreeCallback@$00$0A@@@UEAA_NIPEAI@Z 000000018010cb00 f i GuMidphaseRTree.obj
 0001:0010bb00       ?processResults@?$RayRTreeCallback@$0A@$0A@@@UEAA_NIPEAI@Z 000000018010cb00 f i GuMidphaseRTree.obj
 0001:0010bd60       ?processResults@?$RayRTreeCallback@$00$0A@@@UEAA_NIPEAIAEAM@Z 000000018010cd60 f i GuMidphaseRTree.obj
 0001:0010bd60       ?processResults@?$RayRTreeCallback@$0A@$0A@@@UEAA_NIPEAIAEAM@Z 000000018010cd60 f i GuMidphaseRTree.obj
 0001:0010bff0       ?processResults@?$RayRTreeCallback@$0A@$00@@UEAA_NIPEAI@Z 000000018010cff0 f i GuMidphaseRTree.obj
 0001:0010c630       ?processResults@?$RayRTreeCallback@$0A@$00@@UEAA_NIPEAIAEAM@Z 000000018010d630 f i GuMidphaseRTree.obj
 0001:0010cc80       ?raycast_triangleMesh_RTREE@Gu@physx@@YAIPEBVTriangleMesh@12@AEBVPxTriangleMeshGeometry@2@AEBV?$PxTransformT@M@2@AEBV?$PxVec3T@M@2@3MV?$PxFlags@W4Enum@PxHitFlag@physx@@G@2@IPEIAUPxGeomRaycastHit@2@I@Z 000000018010dc80 f   GuMidphaseRTree.obj
 0001:0010d400       ?sweepBox_MeshGeom_RTREE@Gu@physx@@YA_NPEBVTriangleMesh@12@AEBVPxTriangleMeshGeometry@2@AEBV?$PxTransformT@M@2@AEBVBox@12@AEBV?$PxVec3T@M@2@MAEAUPxGeomSweepHit@2@V?$PxFlags@W4Enum@PxHitFlag@physx@@G@2@M@Z 000000018010e400 f   GuMidphaseRTree.obj
 0001:0010e940       ?sweepCapsule_MeshGeom_RTREE@Gu@physx@@YA_NPEBVTriangleMesh@12@AEBVPxTriangleMeshGeometry@2@AEBV?$PxTransformT@M@2@AEBVCapsule@12@AEBV?$PxVec3T@M@2@MAEAUPxGeomSweepHit@2@V?$PxFlags@W4Enum@PxHitFlag@physx@@G@2@M@Z 000000018010f940 f   GuMidphaseRTree.obj
 0001:0010f0f0       ?sweepConvex_MeshGeom_RTREE@Gu@physx@@YAXPEBVTriangleMesh@12@AEBVBox@12@AEBV?$PxVec3T@M@2@MAEAUSweepConvexMeshHitCallback@12@_N@Z 00000001801100f0 f   GuMidphaseRTree.obj
 0001:0010faa0       ??_E?$PxReportCallback@UPxGeomIndexPair@physx@@@physx@@UEAAPEAXI@Z 0000000180110aa0 f i GuOverlapTestsMesh.obj
 0001:0010faa0       ??_G?$PxReportCallback@UPxGeomIndexPair@physx@@@physx@@UEAAPEAXI@Z 0000000180110aa0 f i GuOverlapTestsMesh.obj
 0001:0010fb30       ?GeomOverlapCallback_BoxMesh@@YA_NAEBVPxGeometry@physx@@AEBV?$PxTransformT@M@2@01PEAUTriggerCache@Gu@2@PEAUPxQueryThreadContext@2@@Z 0000000180110b30 f   GuOverlapTestsMesh.obj
 0001:0010fc40       ?GeomOverlapCallback_CapsuleMesh@@YA_NAEBVPxGeometry@physx@@AEBV?$PxTransformT@M@2@01PEAUTriggerCache@Gu@2@PEAUPxQueryThreadContext@2@@Z 0000000180110c40 f   GuOverlapTestsMesh.obj
 0001:0010fd50       ?GeomOverlapCallback_ConvexMesh@@YA_NAEBVPxGeometry@physx@@AEBV?$PxTransformT@M@2@01PEAUTriggerCache@Gu@2@PEAUPxQueryThreadContext@2@@Z 0000000180110d50 f   GuOverlapTestsMesh.obj
 0001:00110250       ?GeomOverlapCallback_MeshMesh@@YA_NAEBVPxGeometry@physx@@AEBV?$PxTransformT@M@2@01PEAUTriggerCache@Gu@2@PEAUPxQueryThreadContext@2@@Z 0000000180111250 f   GuOverlapTestsMesh.obj
 0001:00110310       ?GeomOverlapCallback_SphereMesh@@YA_NAEBVPxGeometry@physx@@AEBV?$PxTransformT@M@2@01PEAUTriggerCache@Gu@2@PEAUPxQueryThreadContext@2@@Z 0000000180111310 f   GuOverlapTestsMesh.obj
 0001:00110700       ??0RTree@Gu@physx@@QEAA@W4PxEMPTY@2@@Z 0000000180111700 f   GuRTree.obj
 0001:00110710       ?exportExtraData@RTree@Gu@physx@@QEAAXAEAVPxSerializationContext@3@@Z 0000000180111710 f   GuRTree.obj
 0001:00110750       ?importExtraData@RTree@Gu@physx@@QEAAXAEAVPxDeserializationContext@3@@Z 0000000180111750 f   GuRTree.obj
 0001:00110780       ?load@RTree@Gu@physx@@QEAA_NAEAVPxInputStream@3@I_N@Z 0000000180111780 f   GuRTree.obj
 0001:00110a80       ?refitAllStaticTree@RTree@Gu@physx@@QEAAXAEAUCallbackRefit@123@PEAVPxBounds3@3@@Z 0000000180111a80 f   GuRTree.obj
 0001:00110fd0       ?validate@RTree@Gu@physx@@QEAAXPEAUCallbackRefit@123@@Z 0000000180111fd0 f   GuRTree.obj
 0001:00111210       ?validateRecursive@RTree@Gu@physx@@IEAAXIURTreeNodeQ@23@PEAURTreePage@23@PEAUCallbackRefit@123@@Z 0000000180112210 f   GuRTree.obj
 0001:001113d0       ??$traverseRay@$00@RTree@Gu@physx@@QEBAXAEBV?$PxVec3T@M@2@0IPEAIPEAUCallbackRaycast@012@PEBV32@M@Z 00000001801123d0 f i GuRTreeQueries.obj
 0001:00111770       ??$traverseRay@$0A@@RTree@Gu@physx@@QEBAXAEBV?$PxVec3T@M@2@0IPEAIPEAUCallbackRaycast@012@PEBV32@M@Z 0000000180112770 f i GuRTreeQueries.obj
 0001:00111ac0       ?traverseAABB@RTree@Gu@physx@@QEBAXAEBV?$PxVec3T@M@3@0IPEAIPEAUCallback@123@@Z 0000000180112ac0 f   GuRTreeQueries.obj
 0001:00111c80       ?traverseOBB@RTree@Gu@physx@@QEBAXAEBVBox@23@IPEAIPEAUCallback@123@@Z 0000000180112c80 f   GuRTreeQueries.obj
 0001:00112560       ??0SweepBoxMeshHitCallback@Gu@physx@@QEAA@W4Enum@CallbackMode@12@AEBVPxMat34Padded@2@M_NAEBVBox@12@AEBV?$PxVec3T@M@2@44AEBV?$PxFlags@W4Enum@PxHitFlag@physx@@G@2@M2M@Z 0000000180113560 f   GuSweepsMesh.obj
 0001:00112670       ??0SweepCapsuleMeshHitCallback@Gu@physx@@QEAA@AEAUPxGeomSweepHit@2@AEBV?$PxMat34T@M@2@M_NAEBVCapsule@12@AEBV?$PxVec3T@M@2@AEBV?$PxFlags@W4Enum@PxHitFlag@physx@@G@2@2M@Z 0000000180113670 f   GuSweepsMesh.obj
 0001:00112740       ??0SweepConvexMeshHitCallback@Gu@physx@@QEAA@AEBUConvexHullData@12@AEBVPxMeshScale@2@AEBVFastVertex2ShapeScaling@Cm@2@AEBV?$PxTransformT@M@2@3AEBV?$PxVec3T@M@2@MV?$PxFlags@W4Enum@PxHitFlag@physx@@G@2@_NM6M@Z 0000000180113740 f   GuSweepsMesh.obj
 0001:001130a0       ??_ESweepBoxMeshHitCallback@Gu@physx@@UEAAPEAXI@Z 00000001801140a0 f i GuSweepsMesh.obj
 0001:001130a0       ??_GSweepBoxMeshHitCallback@Gu@physx@@UEAAPEAXI@Z 00000001801140a0 f i GuSweepsMesh.obj
 0001:001130d0       ??_ESweepConvexMeshHitCallback@Gu@physx@@UEAAPEAXI@Z 00000001801140d0 f i GuSweepsMesh.obj
 0001:001130d0       ??_GSweepConvexMeshHitCallback@Gu@physx@@UEAAPEAXI@Z 00000001801140d0 f i GuSweepsMesh.obj
 0001:00113100       ??_ESweepShapeMeshHitCallback@Gu@physx@@UEAAPEAXI@Z 0000000180114100 f i GuSweepsMesh.obj
 0001:00113100       ??_GSweepShapeMeshHitCallback@Gu@physx@@UEAAPEAXI@Z 0000000180114100 f i GuSweepsMesh.obj
 0001:00113130       ?finalizeHit@SweepBoxMeshHitCallback@Gu@physx@@QEBA_NAEAUPxGeomSweepHit@3@AEBVPxTriangleMeshGeometry@3@AEBV?$PxTransformT@M@3@2AEBV?$PxVec3T@M@3@_N4@Z 0000000180114130 f   GuSweepsMesh.obj
 0001:001137f0       ?finalizeHit@SweepCapsuleMeshHitCallback@Gu@physx@@QEBA_NAEAUPxGeomSweepHit@3@AEBVCapsule@23@AEBVPxTriangleMeshGeometry@3@AEBV?$PxTransformT@M@3@_N@Z 00000001801147f0 f   GuSweepsMesh.obj
 0001:001139a0       ?finalizeHit@SweepConvexMeshHitCallback@Gu@physx@@QEAA_NAEAUPxGeomSweepHit@3@AEBVPxTriangleMeshGeometry@3@AEBV?$PxTransformT@M@3@AEBVPxConvexMeshGeometry@3@2AEBV?$PxVec3T@M@3@M_N555@Z 00000001801149a0 f   GuSweepsMesh.obj
 0001:00113e70       ?processHit@SweepBoxMeshHitCallback@Gu@physx@@UEAA_NAEBUPxGeomRaycastHit@3@AEBV?$PxVec3T@M@3@11AEAMPEBI@Z 0000000180114e70 f   GuSweepsMesh.obj
 0001:00114660       ?processHit@SweepCapsuleMeshHitCallback@Gu@physx@@UEAA_NAEBUPxGeomRaycastHit@3@AEBV?$PxVec3T@M@3@11AEAMPEBI@Z 0000000180115660 f   GuSweepsMesh.obj
 0001:00114bc0       ?processHit@SweepConvexMeshHitCallback@Gu@physx@@UEAA_NAEBUPxGeomRaycastHit@3@AEBV?$PxVec3T@M@3@11AEAMPEBI@Z 0000000180115bc0 f   GuSweepsMesh.obj
 0001:00115310       ?sweepBox_MeshGeom@@YA_NAEBVPxGeometry@physx@@AEBV?$PxTransformT@M@2@AEBVPxBoxGeometry@2@1AEBVBox@Gu@2@AEBV?$PxVec3T@M@2@MAEAUPxGeomSweepHit@2@V?$PxFlags@W4Enum@PxHitFlag@physx@@G@2@MPEAUPxQueryThreadContext@2@@Z 0000000180116310 f   GuSweepsMesh.obj
 0001:001153a0       ?sweepCapsule_MeshGeom@@YA_NAEBVPxGeometry@physx@@AEBV?$PxTransformT@M@2@AEBVPxCapsuleGeometry@2@1AEBVCapsule@Gu@2@AEBV?$PxVec3T@M@2@MAEAUPxGeomSweepHit@2@V?$PxFlags@W4Enum@PxHitFlag@physx@@G@2@MPEAUPxQueryThreadContext@2@@Z 00000001801163a0 f   GuSweepsMesh.obj
 0001:00115430       ?sweepConvex_MeshGeom@@YA_NAEBVPxGeometry@physx@@AEBV?$PxTransformT@M@2@AEBVPxConvexMeshGeometry@2@1AEBV?$PxVec3T@M@2@MAEAUPxGeomSweepHit@2@V?$PxFlags@W4Enum@PxHitFlag@physx@@G@2@MPEAUPxQueryThreadContext@2@@Z 0000000180116430 f   GuSweepsMesh.obj
 0001:00115f70       ??0TriangleMesh@Gu@physx@@QEAA@AEBUPxTriangleMeshInternalData@2@@Z 0000000180116f70 f   GuTriangleMesh.obj
 0001:00116050       ??0TriangleMesh@Gu@physx@@QEAA@PEAVMeshFactory@12@AEAVTriangleMeshData@12@@Z 0000000180117050 f   GuTriangleMesh.obj
 0001:001163d0       ??1TriangleMesh@Gu@physx@@UEAA@XZ 00000001801173d0 f   GuTriangleMesh.obj
 0001:00116640       ??_ETriangleMesh@Gu@physx@@UEAAPEAXI@Z 0000000180117640 f i GuTriangleMesh.obj
 0001:00116640       ??_GTriangleMesh@Gu@physx@@UEAAPEAXI@Z 0000000180117640 f i GuTriangleMesh.obj
 0001:001166b0       ?exportExtraData@TriangleMesh@Gu@physx@@UEAAXAEAVPxSerializationContext@3@@Z 00000001801176b0 f   GuTriangleMesh.obj
 0001:00116880       ?getLocalBounds@TriangleMesh@Gu@physx@@UEBA?AVPxBounds3@3@XZ 0000000180117880 f i GuTriangleMesh.obj
 0001:00116910       ?getMassInformation@TriangleMesh@Gu@physx@@UEBAXAEAMAEAV?$PxMat33T@M@3@AEAV?$PxVec3T@M@3@@Z 0000000180117910 f i GuTriangleMesh.obj
 0001:00116990       ?getNbTriangles@TriangleMesh@Gu@physx@@UEBAIXZ 0000000180117990 f i GuTriangleMesh.obj
 0001:001169a0       ?getPreferSDFProjection@TriangleMesh@Gu@physx@@UEBA_NXZ 00000001801179a0 f i GuTriangleMesh.obj
 0001:001169b0       ?getSDF@TriangleMesh@Gu@physx@@UEBAPEBMXZ 00000001801179b0 f i GuTriangleMesh.obj
 0001:001169c0       ?getSDFDimensions@TriangleMesh@Gu@physx@@UEBAXAEAI00@Z 00000001801179c0 f i GuTriangleMesh.obj
 0001:001169f0       ?getTriangleMaterialIndex@TriangleMesh@Gu@physx@@UEBAGI@Z 00000001801179f0 f i GuTriangleMesh.obj
 0001:00116a10       ?getTriangleMeshFlags@TriangleMesh@Gu@physx@@UEBA?AV?$PxFlags@W4Enum@PxTriangleMeshFlag@physx@@E@3@XZ 0000000180117a10 f i GuTriangleMesh.obj
 0001:00116a20       ?getTrianglesRemap@TriangleMesh@Gu@physx@@UEBAPEBIXZ 0000000180117a20 f i GuTriangleMesh.obj
 0001:00116a30       ?getVerticesForModification@TriangleMesh@Gu@physx@@UEAAPEAV?$PxVec3T@M@3@XZ 0000000180117a30 f   GuTriangleMesh.obj
 0001:00116a70       ?importExtraData@TriangleMesh@Gu@physx@@QEAAXAEAVPxDeserializationContext@3@@Z 0000000180117a70 f   GuTriangleMesh.obj
 0001:00116c00       ?isKindOf@PxTriangleMesh@physx@@MEBA_NPEBD@Z 0000000180117c00 f i GuTriangleMesh.obj
 0001:00116c70       ?onRefCountZero@TriangleMesh@Gu@physx@@UEAAXXZ 0000000180117c70 f   GuTriangleMesh.obj
 0001:00116d40       ?refitBVH@TriangleMesh@Gu@physx@@UEAA?AVPxBounds3@3@XZ 0000000180117d40 f   GuTriangleMesh.obj
 0001:00116e10       ?requestEdgeList@TriangleMesh@Gu@physx@@QEBAPEBVEdgeList@23@XZ 0000000180117e10 f   GuTriangleMesh.obj
 0001:00116ef0       ?setAllEdgesActive@TriangleMesh@Gu@physx@@QEAAXXZ 0000000180117ef0 f   GuTriangleMesh.obj
 0001:00116fe0       ?setPreferSDFProjection@TriangleMesh@Gu@physx@@UEAAX_N@Z 0000000180117fe0 f i GuTriangleMesh.obj
 0001:00117010       ??0BV4TriangleMesh@Gu@physx@@QEAA@AEBUPxTriangleMeshInternalData@2@@Z 0000000180118010 f   GuTriangleMeshBV4.obj
 0001:00117170       ??0BV4TriangleMesh@Gu@physx@@QEAA@PEAVMeshFactory@12@AEAVTriangleMeshData@12@@Z 0000000180118170 f   GuTriangleMeshBV4.obj
 0001:00117200       ??_EBV4TriangleMesh@Gu@physx@@UEAAPEAXI@Z 0000000180118200 f i GuTriangleMeshBV4.obj
 0001:00117200       ??_GBV4TriangleMesh@Gu@physx@@UEAAPEAXI@Z 0000000180118200 f i GuTriangleMeshBV4.obj
 0001:00117290       ?createObject@BV4TriangleMesh@Gu@physx@@SAPEAVTriangleMesh@23@AEAPEAEAEAVPxDeserializationContext@3@@Z 0000000180118290 f   GuTriangleMeshBV4.obj
 0001:00117370       ?exportExtraData@BV4TriangleMesh@Gu@physx@@UEAAXAEAVPxSerializationContext@3@@Z 0000000180118370 f   GuTriangleMeshBV4.obj
 0001:001173b0       ?getConcreteTypeName@BV4TriangleMesh@Gu@physx@@UEBAPEBDXZ 00000001801183b0 f i GuTriangleMeshBV4.obj
 0001:001173c0       ?getInternalData@BV4TriangleMesh@Gu@physx@@UEBA_NAEAUPxTriangleMeshInternalData@3@_N@Z 00000001801183c0 f   GuTriangleMeshBV4.obj
 0001:001174b0       ?getMidphaseID@BV4TriangleMesh@Gu@physx@@UEBA?AW4Enum@PxMeshMidPhase@3@XZ 00000001801184b0 f i GuTriangleMeshBV4.obj
 0001:001174b0       ?getMidphaseID@BV4TriangleMeshBuilder@physx@@UEBA?AW4Enum@PxMeshMidPhase@2@XZ 00000001801184b0 f i GuCookingTriangleMesh.obj
 0001:001174b0       ?length@charNode@@UEBAHXZ  00000001801184b0 f i libvcruntime:undname.obj
 0001:001174b0       ?raw_length@charNode@@UEBAHXZ 00000001801184b0 f i libvcruntime:undname.obj
 0001:001174b0       DllMain                    00000001801184b0 f i LIBCMT:dll_dllmain_stub.obj
 0001:001174b0       _get_startup_argv_mode     00000001801184b0 f i LIBCMT:argv_mode.obj
 0001:001174c0       ?getVerticesForModification@BV4TriangleMesh@Gu@physx@@UEAAPEAV?$PxVec3T@M@3@XZ 00000001801184c0 f   GuTriangleMeshBV4.obj
 0001:001174c0       ?getVerticesForModification@RTreeTriangleMesh@Gu@physx@@UEAAPEAV?$PxVec3T@M@3@XZ 00000001801184c0 f   GuTriangleMeshRTree.obj
 0001:001174d0       ?refitBVH@BV4TriangleMesh@Gu@physx@@UEAA?AVPxBounds3@3@XZ 00000001801184d0 f   GuTriangleMeshBV4.obj
 0001:00117640       PxGetTriangleMeshInternalData 0000000180118640 f   GuTriangleMeshBV4.obj
 0001:00117660       ??0RTreeTriangleMesh@Gu@physx@@QEAA@PEAVMeshFactory@12@AEAVTriangleMeshData@12@@Z 0000000180118660 f   GuTriangleMeshRTree.obj
 0001:001177d0       ??_E?$RefitCallback@G@physx@@UEAAPEAXI@Z 00000001801187d0 f i GuTriangleMeshRTree.obj
 0001:001177d0       ??_E?$RefitCallback@I@physx@@UEAAPEAXI@Z 00000001801187d0 f i GuTriangleMeshRTree.obj
 0001:001177d0       ??_G?$RefitCallback@G@physx@@UEAAPEAXI@Z 00000001801187d0 f i GuTriangleMeshRTree.obj
 0001:001177d0       ??_G?$RefitCallback@I@physx@@UEAAPEAXI@Z 00000001801187d0 f i GuTriangleMeshRTree.obj
 0001:00117800       ??_ERTreeTriangleMesh@Gu@physx@@UEAAPEAXI@Z 0000000180118800 f i GuTriangleMeshRTree.obj
 0001:00117800       ??_GRTreeTriangleMesh@Gu@physx@@UEAAPEAXI@Z 0000000180118800 f i GuTriangleMeshRTree.obj
 0001:001178b0       ?createObject@RTreeTriangleMesh@Gu@physx@@SAPEAVTriangleMesh@23@AEAPEAEAEAVPxDeserializationContext@3@@Z 00000001801188b0 f   GuTriangleMeshRTree.obj
 0001:00117940       ?exportExtraData@RTreeTriangleMesh@Gu@physx@@UEAAXAEAVPxSerializationContext@3@@Z 0000000180118940 f   GuTriangleMeshRTree.obj
 0001:00117980       ?getConcreteTypeName@RTreeTriangleMesh@Gu@physx@@UEBAPEBDXZ 0000000180118980 f i GuTriangleMeshRTree.obj
 0001:00117990       ?recomputeBounds@?$RefitCallback@G@physx@@UEAAXIAEAT__m128@@0@Z 0000000180118990 f i GuTriangleMeshRTree.obj
 0001:00117cc0       ?recomputeBounds@?$RefitCallback@I@physx@@UEAAXIAEAT__m128@@0@Z 0000000180118cc0 f i GuTriangleMeshRTree.obj
 0001:00117fe0       ?refitBVH@RTreeTriangleMesh@Gu@physx@@UEAA?AVPxBounds3@3@XZ 0000000180118fe0 f   GuTriangleMeshRTree.obj
 0001:00118100       ??0BV32Tree@Gu@physx@@QEAA@XZ 0000000180119100 f   GuBV32.obj
 0001:00118130       ??1BV32Tree@Gu@physx@@QEAA@XZ 0000000180119130 f   GuBV32.obj
 0001:00118140       ?calculateLeafNode@BV32Tree@Gu@physx@@QEAAXAEAUBV32Data@23@@Z 0000000180119140 f   GuBV32.obj
 0001:00118360       ?createSOAformatNode@BV32Tree@Gu@physx@@QEAAXAEAUBV32DataPacked@23@AEBUBV32Data@23@IAEAI2@Z 0000000180119360 f   GuBV32.obj
 0001:001187c0       ?load@BV32Tree@Gu@physx@@QEAA_NAEAVPxInputStream@3@_N@Z 00000001801197c0 f   GuBV32.obj
 0001:00118b00       ?release@BV32Tree@Gu@physx@@QEAAXXZ 0000000180119b00 f   GuBV32.obj
 0001:00118bc0       ??0BV32Node@@QEAA@XZ       0000000180119bc0 f i GuBV32Build.obj
 0001:00119040       ?BuildBV32Ex@Gu@physx@@YA_NAEAVBV32Tree@12@AEAVSourceMeshBase@12@MI@Z 000000018011a040 f   GuBV32Build.obj
 0001:00119fd0       ??0BVTetrahedronMesh@Gu@physx@@QEAA@AEAVTetrahedronMeshData@12@AEAVSoftBodyCollisionData@12@PEAVMeshFactory@12@@Z 000000018011afd0 f   GuTetrahedronMesh.obj
 0001:0011a230       ??0SoftBodyMesh@Gu@physx@@QEAA@PEAVMeshFactory@12@AEAVSoftBodyMeshData@12@@Z 000000018011b230 f   GuTetrahedronMesh.obj
 0001:0011a5d0       ??0TetrahedronMesh@Gu@physx@@QEAA@PEAVMeshFactory@12@AEAVTetrahedronMeshData@12@@Z 000000018011b5d0 f   GuTetrahedronMesh.obj
 0001:0011a6c0       ??1SoftBodyAuxData@Gu@physx@@UEAA@XZ 000000018011b6c0 f   GuTetrahedronMesh.obj
 0001:0011a940       ??1TetrahedronMesh@Gu@physx@@UEAA@XZ 000000018011b940 f   GuTetrahedronMesh.obj
 0001:0011a9e0       ??_EBVTetrahedronMesh@Gu@physx@@UEAAPEAXI@Z 000000018011b9e0 f i GuTetrahedronMesh.obj
 0001:0011a9e0       ??_GBVTetrahedronMesh@Gu@physx@@UEAAPEAXI@Z 000000018011b9e0 f i GuTetrahedronMesh.obj
 0001:0011ab60       ??_ESoftBodyAuxData@Gu@physx@@UEAAPEAXI@Z 000000018011bb60 f i GuTetrahedronMesh.obj
 0001:0011ab60       ??_GSoftBodyAuxData@Gu@physx@@UEAAPEAXI@Z 000000018011bb60 f i GuTetrahedronMesh.obj
 0001:0011abd0       ??_ESoftBodyMesh@Gu@physx@@UEAAPEAXI@Z 000000018011bbd0 f i GuTetrahedronMesh.obj
 0001:0011abd0       ??_GSoftBodyMesh@Gu@physx@@UEAAPEAXI@Z 000000018011bbd0 f i GuTetrahedronMesh.obj
 0001:0011aca0       ??_ETetrahedronMesh@Gu@physx@@UEAAPEAXI@Z 000000018011bca0 f i GuTetrahedronMesh.obj
 0001:0011aca0       ??_GTetrahedronMesh@Gu@physx@@UEAAPEAXI@Z 000000018011bca0 f i GuTetrahedronMesh.obj
 0001:0011ad10       ?exportExtraData@SoftBodyMesh@Gu@physx@@UEAAXAEAVPxSerializationContext@3@@Z 000000018011bd10 f   GuTetrahedronMesh.obj
 0001:0011ae00       ?getConcreteTypeName@SoftBodyAuxData@Gu@physx@@UEBAPEBDXZ 000000018011be00 f i GuTetrahedronMesh.obj
 0001:0011ae10       ?getConcreteTypeName@SoftBodyMesh@Gu@physx@@UEBAPEBDXZ 000000018011be10 f i GuTetrahedronMesh.obj
 0001:0011ae20       ?getConcreteTypeName@TetrahedronMesh@Gu@physx@@UEBAPEBDXZ 000000018011be20 f i GuTetrahedronMesh.obj
 0001:0011ae30       ?getLocalBounds@TetrahedronMesh@Gu@physx@@UEBA?AVPxBounds3@3@XZ 000000018011be30 f i GuTetrahedronMesh.obj
 0001:0011aec0       ?getNbTetrahedrons@TetrahedronMesh@Gu@physx@@UEBAIXZ 000000018011bec0 f i GuTetrahedronMesh.obj
 0001:0011aed0       ?getBounds@BVH@Gu@physx@@UEBAPEBVPxBounds3@3@XZ 000000018011bed0 f i GuBVH.obj
 0001:0011aed0       ?getTetrahedraRemap@BVTetrahedronMesh@Gu@physx@@UEBAPEBIXZ 000000018011bed0 f i GuTetrahedronMesh.obj
 0001:0011aee0       ?getTetrahedronMeshFlags@TetrahedronMesh@Gu@physx@@UEBA?AV?$PxFlags@W4Enum@PxTetrahedronMeshFlag@physx@@E@3@XZ 000000018011bee0 f i GuTetrahedronMesh.obj
 0001:0011aef0       ?getTetrahedrons@TetrahedronMesh@Gu@physx@@UEBAPEBXXZ 000000018011bef0 f i GuTetrahedronMesh.obj
 0001:0011af00       ?isKindOf@PxSoftBodyAuxData@physx@@MEBA_NPEBD@Z 000000018011bf00 f i GuTetrahedronMesh.obj
 0001:0011af70       ?isKindOf@PxSoftBodyMesh@physx@@MEBA_NPEBD@Z 000000018011bf70 f i GuTetrahedronMesh.obj
 0001:0011afe0       ?isKindOf@PxTetrahedronMesh@physx@@MEBA_NPEBD@Z 000000018011bfe0 f i GuTetrahedronMesh.obj
 0001:0011b050       ?onRefCountZero@SoftBodyAuxData@Gu@physx@@UEAAXXZ 000000018011c050 f i GuTetrahedronMesh.obj
 0001:0011b050       ?release@SimulationTetrahedronMeshData@Gu@physx@@UEAAXXZ 000000018011c050 f i GuCookingTetrahedronMesh.obj
 0001:0011b070       ?onRefCountZero@SoftBodyMesh@Gu@physx@@UEAAXXZ 000000018011c070 f   GuTetrahedronMesh.obj
 0001:0011b110       ?onRefCountZero@TetrahedronMesh@Gu@physx@@UEAAXXZ 000000018011c110 f   GuTetrahedronMesh.obj
 0001:0011b1b0       ?closestPtPointTetrahedron@Gu@physx@@YA?AV?$PxVec3T@M@2@AEBV32@0000@Z 000000018011c1b0 f i GuTetrahedronMeshUtils.obj
 0001:0011c2f0       ?computeBarycentric@physx@@YAXAEBV?$PxVec3T@M@1@0000AEAV?$PxVec4T@M@1@@Z 000000018011d2f0 f i GuTetrahedronMeshUtils.obj
 0001:0011c5a0       ?convertSoftbodyCollisionToSimMeshTets@Gu@physx@@YAXAEBVPxTetrahedronMesh@2@AEBVSoftBodyAuxData@12@AEBVBVTetrahedronMesh@12@IAEBV?$PxVec4T@M@2@AEAIAEAV62@@Z 000000018011d5a0 f   GuTetrahedronMeshUtils.obj
 0001:0011f180       ?pcmContactBoxBox@Gu@physx@@YA_NAEBVPxGeometry@2@0AEBUPxTransformPadded@2@1AEBUNarrowPhaseParams@12@AEAUCache@12@AEAVPxContactBuffer@2@PEAVPxRenderOutput@2@@Z 0000000180120180 f   GuPCMContactBoxBox.obj
 0001:00120020       ??$gjkPenetration@U?$RelativeConvex@VBoxV@Gu@physx@@@Gu@physx@@U?$LocalConvex@VConvexHullNoScaleV@Gu@physx@@@23@@Gu@physx@@YA?AW4GjkStatus@01@AEBU?$RelativeConvex@VBoxV@Gu@physx@@@01@AEBU?$LocalConvex@VConvexHullNoScaleV@Gu@physx@@@01@AEBT__m128@@2_NPEIAE4AEAEAEAUGjkOutput@01@@Z 0000000180121020 f i GuPCMContactBoxConvex.obj
 0001:00120090       ??$gjkPenetration@U?$RelativeConvex@VBoxV@Gu@physx@@@Gu@physx@@U?$LocalConvex@VConvexHullNoScaleV@Gu@physx@@@23@@Gu@physx@@YA?AW4GjkStatus@01@AEBU?$RelativeConvex@VBoxV@Gu@physx@@@01@AEBU?$LocalConvex@VConvexHullNoScaleV@Gu@physx@@@01@AEBT__m128@@2_NPEIAE4PEIAT5@5AEAEAEAUGjkOutput@01@@Z 0000000180121090 f i GuPCMContactBoxConvex.obj
 0001:00121c70       ?pcmContactBoxConvex@Gu@physx@@YA_NAEBVPxGeometry@2@0AEBUPxTransformPadded@2@1AEBUNarrowPhaseParams@12@AEAUCache@12@AEAVPxContactBuffer@2@PEAVPxRenderOutput@2@@Z 0000000180122c70 f   GuPCMContactBoxConvex.obj
 0001:00122a70       ?support@?$LocalConvex@VConvexHullNoScaleV@Gu@physx@@@Gu@physx@@UEBA?AT__m128@@AEBT4@@Z 0000000180123a70 f i GuPCMContactBoxConvex.obj
 0001:00122ac0       ?support@?$LocalConvex@VConvexHullNoScaleV@Gu@physx@@@Gu@physx@@UEBA?AT__m128@@AEBT4@AEAH@Z 0000000180123ac0 f i GuPCMContactBoxConvex.obj
 0001:00122b20       ?supportPoint@?$LocalConvex@VConvexHullNoScaleV@Gu@physx@@@Gu@physx@@UEBA?AT__m128@@H@Z 0000000180123b20 f i GuPCMContactBoxConvex.obj
 0001:00122b50       ?pcmContactCapsuleBox@Gu@physx@@YA_NAEBVPxGeometry@2@0AEBUPxTransformPadded@2@1AEBUNarrowPhaseParams@12@AEAUCache@12@AEAVPxContactBuffer@2@PEAVPxRenderOutput@2@@Z 0000000180123b50 f   GuPCMContactCapsuleBox.obj
 0001:00123ae0       ?pcmContactCapsuleCapsule@Gu@physx@@YA_NAEBVPxGeometry@2@0AEBUPxTransformPadded@2@1AEBUNarrowPhaseParams@12@AEAUCache@12@AEAVPxContactBuffer@2@PEAVPxRenderOutput@2@@Z 0000000180124ae0 f   GuPCMContactCapsuleCapsule.obj
 0001:00124370       ??$gjkPenetration@U?$LocalConvex@VCapsuleV@Gu@physx@@@Gu@physx@@U?$LocalConvex@VConvexHullNoScaleV@Gu@physx@@@23@@Gu@physx@@YA?AW4GjkStatus@01@AEBU?$LocalConvex@VCapsuleV@Gu@physx@@@01@AEBU?$LocalConvex@VConvexHullNoScaleV@Gu@physx@@@01@AEBT__m128@@2_NPEIAE4AEAEAEAUGjkOutput@01@@Z 0000000180125370 f i GuPCMContactCapsuleConvex.obj
 0001:001243e0       ??$gjkPenetration@U?$LocalConvex@VCapsuleV@Gu@physx@@@Gu@physx@@U?$LocalConvex@VConvexHullNoScaleV@Gu@physx@@@23@@Gu@physx@@YA?AW4GjkStatus@01@AEBU?$LocalConvex@VCapsuleV@Gu@physx@@@01@AEBU?$LocalConvex@VConvexHullNoScaleV@Gu@physx@@@01@AEBT__m128@@2_NPEIAE4PEIAT5@5AEAEAEAUGjkOutput@01@@Z 00000001801253e0 f i GuPCMContactCapsuleConvex.obj
 0001:00125aa0       ?pcmContactCapsuleConvex@Gu@physx@@YA_NAEBVPxGeometry@2@0AEBUPxTransformPadded@2@1AEBUNarrowPhaseParams@12@AEAUCache@12@AEAVPxContactBuffer@2@PEAVPxRenderOutput@2@@Z 0000000180126aa0 f   GuPCMContactCapsuleConvex.obj
 0001:00126c90       ??_EPCMCapsuleVsHeightfieldContactGenerationCallback@@UEAAPEAXI@Z 0000000180127c90 f i GuPCMContactCapsuleHeightField.obj
 0001:00126c90       ??_EPCMConvexVsHeightfieldContactGenerationCallback@physx@@UEAAPEAXI@Z 0000000180127c90 f i GuPCMContactConvexHeightField.obj
 0001:00126c90       ??_GPCMCapsuleVsHeightfieldContactGenerationCallback@@UEAAPEAXI@Z 0000000180127c90 f i GuPCMContactCapsuleHeightField.obj
 0001:00126c90       ??_GPCMConvexVsHeightfieldContactGenerationCallback@physx@@UEAAPEAXI@Z 0000000180127c90 f i GuPCMContactConvexHeightField.obj
 0001:00126cc0       ?pcmContactCapsuleHeightField@Gu@physx@@YA_NAEBVPxGeometry@2@0AEBUPxTransformPadded@2@1AEBUNarrowPhaseParams@12@AEAUCache@12@AEAVPxContactBuffer@2@PEAVPxRenderOutput@2@@Z 0000000180127cc0 f   GuPCMContactCapsuleHeightField.obj
 0001:00127bd0       ?reportTouchedTris@?$PCMHeightfieldContactGenerationCallback@UPCMCapsuleVsHeightfieldContactGenerationCallback@@@Gu@physx@@UEAA_NIPEBI@Z 0000000180128bd0 f i GuPCMContactCapsuleHeightField.obj
 0001:00128240       ?generateContacts@PCMCapsuleVsMeshContactGeneration@Gu@physx@@SAXAEBT__m128@@0000I000PEAVMeshPersistentContact@23@AEAI@Z 0000000180129240 f   GuPCMContactCapsuleMesh.obj
 0001:00128660       ?generateEE@PCMCapsuleVsMeshContactGeneration@Gu@physx@@QEAAXAEBT__m128@@000I00PEAVMeshPersistentContact@23@AEAI@Z 0000000180129660 f   GuPCMContactCapsuleMesh.obj
 0001:001288d0       ?generateEEMTD@PCMCapsuleVsMeshContactGeneration@Gu@physx@@SAXAEBT__m128@@000I00PEAVMeshPersistentContact@23@AEAI@Z 00000001801298d0 f   GuPCMContactCapsuleMesh.obj
 0001:00128b00       ?pcmContactCapsuleMesh@Gu@physx@@YA_NAEBVPxGeometry@2@0AEBUPxTransformPadded@2@1AEBUNarrowPhaseParams@12@AEAUCache@12@AEAVPxContactBuffer@2@PEAVPxRenderOutput@2@@Z 0000000180129b00 f   GuPCMContactCapsuleMesh.obj
 0001:0012a370       ?pcmDistanceSegmentTriangleSquaredExported@@YA?AT__m128@@AEBT1@0000AEAT1@11@Z 000000018012b370 f   GuPCMContactCapsuleMesh.obj
 0001:0012a7d0       ?processTriangle@PCMCapsuleVsMeshContactGeneration@Gu@physx@@QEAA_NPEBV?$PxVec3T@M@3@IEPEBI@Z 000000018012b7d0 f   GuPCMContactCapsuleMesh.obj
 0001:0012b3d0       ?processTriangle@PCMCapsuleVsMeshContactGeneration@Gu@physx@@SA_NAEBVTriangleV@23@IAEBVCapsuleV@23@AEBT__m128@@EPEAVMeshPersistentContact@23@AEAI@Z 000000018012c3d0 f   GuPCMContactCapsuleMesh.obj
 0001:0012b700       ?addContactsToPatch@PCMConvexVsMeshContactGeneration@Gu@physx@@QEAAXAEBT__m128@@I@Z 000000018012c700 f   GuPCMContactConvexCommon.obj
 0001:0012c040       ?doSupport@?$SupportLocalImpl@VTriangleV@Gu@physx@@@Gu@physx@@UEBA?AT__m128@@AEBT4@@Z 000000018012d040 f i GuPCMContactConvexCommon.obj
 0001:0012c0d0       ?doSupport@?$SupportLocalImpl@VTriangleV@Gu@physx@@@Gu@physx@@UEBAXAEBT__m128@@AEAT4@1@Z 000000018012d0d0 f i GuPCMContactConvexCommon.obj
 0001:0012c140       ?generateLastContacts@PCMConvexVsMeshContactGeneration@Gu@physx@@QEAAXXZ 000000018012d140 f   GuPCMContactConvexCommon.obj
 0001:0012c6a0       ?populateVerts@?$SupportLocalImpl@VTriangleV@Gu@physx@@@Gu@physx@@UEBAXPEBEIPEBV?$PxVec3T@M@3@PEAT__m128@@@Z 000000018012d6a0 f i GuPCMContactConvexCommon.obj
 0001:0012c7e0       ?processTriangle@PCMConvexVsMeshContactGeneration@Gu@physx@@QEAA_NPEBV?$PxVec3T@M@3@IEPEBI@Z 000000018012d7e0 f   GuPCMContactConvexCommon.obj
 0001:0012cd30       ?processTriangle@PCMConvexVsMeshContactGeneration@Gu@physx@@SA_NAEBUPolygonalData@23@PEBVSupportLocal@23@PEBV?$PxVec3T@M@3@IEAEBT__m128@@_NAEBVPxTransformV@aos@3@AEBVPxMatTransformV@93@PEAVMeshPersistentContact@23@AEAI@Z 000000018012dd30 f   GuPCMContactConvexCommon.obj
 0001:0012cfb0       ??$gjkPenetration@U?$RelativeConvex@VConvexHullNoScaleV@Gu@physx@@@Gu@physx@@U?$LocalConvex@VConvexHullNoScaleV@Gu@physx@@@23@@Gu@physx@@YA?AW4GjkStatus@01@AEBU?$RelativeConvex@VConvexHullNoScaleV@Gu@physx@@@01@AEBU?$LocalConvex@VConvexHullNoScaleV@Gu@physx@@@01@AEBT__m128@@2_NPEIAE4AEAEAEAUGjkOutput@01@@Z 000000018012dfb0 f i GuPCMContactConvexConvex.obj
 0001:0012d020       ??$gjkPenetration@U?$RelativeConvex@VConvexHullNoScaleV@Gu@physx@@@Gu@physx@@U?$LocalConvex@VConvexHullNoScaleV@Gu@physx@@@23@@Gu@physx@@YA?AW4GjkStatus@01@AEBU?$RelativeConvex@VConvexHullNoScaleV@Gu@physx@@@01@AEBU?$LocalConvex@VConvexHullNoScaleV@Gu@physx@@@01@AEBT__m128@@2_NPEIAE4PEIAT5@5AEAEAEAUGjkOutput@01@@Z 000000018012e020 f i GuPCMContactConvexConvex.obj
 0001:0012e530       ??$gjkPenetration@U?$RelativeConvex@VConvexHullNoScaleV@Gu@physx@@@Gu@physx@@U?$LocalConvex@VConvexHullV@Gu@physx@@@23@@Gu@physx@@YA?AW4GjkStatus@01@AEBU?$RelativeConvex@VConvexHullNoScaleV@Gu@physx@@@01@AEBU?$LocalConvex@VConvexHullV@Gu@physx@@@01@AEBT__m128@@2_NPEIAE4AEAEAEAUGjkOutput@01@@Z 000000018012f530 f i GuPCMContactConvexConvex.obj
 0001:0012e5a0       ??$gjkPenetration@U?$RelativeConvex@VConvexHullNoScaleV@Gu@physx@@@Gu@physx@@U?$LocalConvex@VConvexHullV@Gu@physx@@@23@@Gu@physx@@YA?AW4GjkStatus@01@AEBU?$RelativeConvex@VConvexHullNoScaleV@Gu@physx@@@01@AEBU?$LocalConvex@VConvexHullV@Gu@physx@@@01@AEBT__m128@@2_NPEIAE4PEIAT5@5AEAEAEAUGjkOutput@01@@Z 000000018012f5a0 f i GuPCMContactConvexConvex.obj
 0001:0012fb40       ??$gjkPenetration@U?$RelativeConvex@VConvexHullV@Gu@physx@@@Gu@physx@@U?$LocalConvex@VConvexHullNoScaleV@Gu@physx@@@23@@Gu@physx@@YA?AW4GjkStatus@01@AEBU?$RelativeConvex@VConvexHullV@Gu@physx@@@01@AEBU?$LocalConvex@VConvexHullNoScaleV@Gu@physx@@@01@AEBT__m128@@2_NPEIAE4AEAEAEAUGjkOutput@01@@Z 0000000180130b40 f i GuPCMContactConvexConvex.obj
 0001:0012fbb0       ??$gjkPenetration@U?$RelativeConvex@VConvexHullV@Gu@physx@@@Gu@physx@@U?$LocalConvex@VConvexHullNoScaleV@Gu@physx@@@23@@Gu@physx@@YA?AW4GjkStatus@01@AEBU?$RelativeConvex@VConvexHullV@Gu@physx@@@01@AEBU?$LocalConvex@VConvexHullNoScaleV@Gu@physx@@@01@AEBT__m128@@2_NPEIAE4PEIAT5@5AEAEAEAUGjkOutput@01@@Z 0000000180130bb0 f i GuPCMContactConvexConvex.obj
 0001:00131ba0       ?pcmContactConvexConvex@Gu@physx@@YA_NAEBVPxGeometry@2@0AEBUPxTransformPadded@2@1AEBUNarrowPhaseParams@12@AEAUCache@12@AEAVPxContactBuffer@2@PEAVPxRenderOutput@2@@Z 0000000180132ba0 f   GuPCMContactConvexConvex.obj
 0001:00132cd0       ?support@?$RelativeConvex@VConvexHullNoScaleV@Gu@physx@@@Gu@physx@@UEBA?AT__m128@@AEBT4@@Z 0000000180133cd0 f i GuPCMContactConvexConvex.obj
 0001:00132d80       ?support@?$RelativeConvex@VConvexHullNoScaleV@Gu@physx@@@Gu@physx@@UEBA?AT__m128@@AEBT4@AEAH@Z 0000000180133d80 f i GuPCMContactConvexConvex.obj
 0001:00132e40       ?supportPoint@?$RelativeConvex@VConvexHullNoScaleV@Gu@physx@@@Gu@physx@@UEBA?AT__m128@@H@Z 0000000180133e40 f i GuPCMContactConvexConvex.obj
 0001:00132ea0       ?PCMContactConvexHeightfield@Gu@physx@@YA_NAEBUPolygonalData@12@PEAVSupportLocal@12@AEBT__m128@@AEBVPxBounds3@2@AEBVPxHeightFieldGeometry@2@AEBV?$PxTransformT@M@2@5MAEAVPxContactBuffer@2@AEBVFastVertex2ShapeScaling@Cm@2@_NAEAVMultiplePersistentContactManifold@12@PEAVPxRenderOutput@2@@Z 0000000180133ea0 f   GuPCMContactConvexHeightField.obj
 0001:00133d30       ?pcmContactBoxHeightField@Gu@physx@@YA_NAEBVPxGeometry@2@0AEBUPxTransformPadded@2@1AEBUNarrowPhaseParams@12@AEAUCache@12@AEAVPxContactBuffer@2@PEAVPxRenderOutput@2@@Z 0000000180134d30 f   GuPCMContactConvexHeightField.obj
 0001:00133fd0       ?pcmContactConvexHeightField@Gu@physx@@YA_NAEBVPxGeometry@2@0AEBUPxTransformPadded@2@1AEBUNarrowPhaseParams@12@AEAUCache@12@AEAVPxContactBuffer@2@PEAVPxRenderOutput@2@@Z 0000000180134fd0 f   GuPCMContactConvexHeightField.obj
 0001:001346b0       ?reportTouchedTris@?$PCMHeightfieldContactGenerationCallback@UPCMConvexVsHeightfieldContactGenerationCallback@physx@@@Gu@physx@@UEAA_NIPEBI@Z 00000001801356b0 f i GuPCMContactConvexHeightField.obj
 0001:00134c60       ??$processTriangleCache@$0BA@@PCMConvexVsMeshContactGenerationCallback@physx@@QEAAXAEAU?$TriangleCache@$0BA@@Gu@1@@Z 0000000180135c60 f i GuPCMContactConvexMesh.obj
 0001:00134cf0       ??_EPCMConvexVsMeshContactGenerationCallback@physx@@UEAAPEAXI@Z 0000000180135cf0 f i GuPCMContactConvexMesh.obj
 0001:00134cf0       ??_GPCMConvexVsMeshContactGenerationCallback@physx@@UEAAPEAXI@Z 0000000180135cf0 f i GuPCMContactConvexMesh.obj
 0001:00134d20       ?PCMContactConvexMesh@Gu@physx@@YA_NAEBUPolygonalData@12@PEAVSupportLocal@12@AEBT__m128@@AEBVPxBounds3@2@AEBVPxTriangleMeshGeometry@2@AEBV?$PxTransformT@M@2@5MAEAVPxContactBuffer@2@AEBVFastVertex2ShapeScaling@Cm@2@7_N8AEAVMultiplePersistentContactManifold@12@PEAVPxRenderOutput@2@@Z 0000000180135d20 f   GuPCMContactConvexMesh.obj
 0001:00135820       ?pcmContactBoxMesh@Gu@physx@@YA_NAEBVPxGeometry@2@0AEBUPxTransformPadded@2@1AEBUNarrowPhaseParams@12@AEAUCache@12@AEAVPxContactBuffer@2@PEAVPxRenderOutput@2@@Z 0000000180136820 f   GuPCMContactConvexMesh.obj
 0001:00135b60       ?pcmContactConvexMesh@Gu@physx@@YA_NAEBVPxGeometry@2@0AEBUPxTransformPadded@2@1AEBUNarrowPhaseParams@12@AEAUCache@12@AEAVPxContactBuffer@2@PEAVPxRenderOutput@2@@Z 0000000180136b60 f   GuPCMContactConvexMesh.obj
 0001:001362b0       ?processHit@?$PCMMeshContactGenerationCallback@UPCMConvexVsMeshContactGenerationCallback@physx@@@Gu@physx@@UEAA_NAEBUPxGeomRaycastHit@3@AEBV?$PxVec3T@M@3@11AEAMPEBI@Z 00000001801372b0 f i GuPCMContactConvexMesh.obj
 0001:00136770       ?addGJKEPAContacts@Gu@physx@@YA_NPEBUGjkConvex@12@0AEBVPxMatTransformV@aos@2@W4GjkStatus@12@PEAVPersistentContact@12@T__m128@@4AEAUGjkOutput@12@AEAVPersistentContactManifold@12@@Z 0000000180137770 f   GuPCMContactGenBoxConvex.obj
 0001:00136970       ?buildPartialHull@Gu@physx@@YAXAEBUPolygonalData@12@PEBVSupportLocal@12@AEAVSeparatingAxes@12@AEBT__m128@@3@Z 0000000180137970 f   GuPCMContactGenBoxConvex.obj
 0001:00136c20       ?computeMTD@Gu@physx@@YA_NAEBUPolygonalData@12@0PEBVSupportLocal@12@1AEAT__m128@@2@Z 0000000180137c20 f   GuPCMContactGenBoxConvex.obj
 0001:00137250       ?generateFullContactManifold@Gu@physx@@YA_NAEBUPolygonalData@12@0PEBVSupportLocal@12@1PEAVPersistentContact@12@AEAIAEBT__m128@@444MM_NPEAVPxRenderOutput@2@M@Z 0000000180138250 f   GuPCMContactGenBoxConvex.obj
 0001:00137d60       ?generatedContacts@Gu@physx@@YAXAEBUPolygonalData@12@0AEBUHullPolygonData@12@1PEBVSupportLocal@12@2AEBVPxMatTransformV@aos@2@PEAVPersistentContact@12@AEAIAEBT__m128@@PEAVPxRenderOutput@2@@Z 0000000180138d60 f   GuPCMContactGenBoxConvex.obj
 0001:001391c0       ?computeMTD@Gu@physx@@YA_NAEBVCapsuleV@12@AEBUPolygonalData@12@PEBVSupportLocal@12@AEAT__m128@@3@Z 000000018013a1c0 f   GuPCMContactGenSphereCapsule.obj
 0001:001392b0       ?generateCapsuleBoxFullContactManifold@Gu@physx@@YA_NAEBVCapsuleV@12@AEBUPolygonalData@12@PEBVSupportLocal@12@AEBVPxMatTransformV@aos@2@PEAVPersistentContact@12@AEAIAEBT__m128@@AEAT9@6M_NMPEAVPxRenderOutput@2@@Z 000000018013a2b0 f   GuPCMContactGenSphereCapsule.obj
 0001:00139450       ?generateFullContactManifold@Gu@physx@@YA_NAEBVCapsuleV@12@AEBUPolygonalData@12@PEBVSupportLocal@12@AEBVPxMatTransformV@aos@2@PEAVPersistentContact@12@AEAIAEBT__m128@@AEAT9@6M_NM@Z 000000018013a450 f   GuPCMContactGenSphereCapsule.obj
 0001:00139640       ?generateSphereFullContactManifold@Gu@physx@@YA_NAEBVCapsuleV@12@AEBUPolygonalData@12@PEBVSupportLocal@12@PEAVPersistentContact@12@AEAIAEBT__m128@@AEAT7@_N@Z 000000018013a640 f   GuPCMContactGenSphereCapsule.obj
 0001:0013ab30       ?pcmContactPlaneBox@Gu@physx@@YA_NAEBVPxGeometry@2@0AEBUPxTransformPadded@2@1AEBUNarrowPhaseParams@12@AEAUCache@12@AEAVPxContactBuffer@2@PEAVPxRenderOutput@2@@Z 000000018013bb30 f   GuPCMContactPlaneBox.obj
 0001:0013b6f0       ?pcmContactPlaneCapsule@Gu@physx@@YA_NAEBVPxGeometry@2@0AEBUPxTransformPadded@2@1AEBUNarrowPhaseParams@12@AEAUCache@12@AEAVPxContactBuffer@2@PEAVPxRenderOutput@2@@Z 000000018013c6f0 f   GuPCMContactPlaneCapsule.obj
 0001:0013be70       ?pcmContactPlaneConvex@Gu@physx@@YA_NAEBVPxGeometry@2@0AEBUPxTransformPadded@2@1AEBUNarrowPhaseParams@12@AEAUCache@12@AEAVPxContactBuffer@2@PEAVPxRenderOutput@2@@Z 000000018013ce70 f   GuPCMContactPlaneConvex.obj
 0001:0013caf0       ?pcmContactSphereBox@Gu@physx@@YA_NAEBVPxGeometry@2@0AEBUPxTransformPadded@2@1AEBUNarrowPhaseParams@12@AEAUCache@12@AEAVPxContactBuffer@2@PEAVPxRenderOutput@2@@Z 000000018013daf0 f   GuPCMContactSphereBox.obj
 0001:0013cf50       ?pcmContactSphereCapsule@Gu@physx@@YA_NAEBVPxGeometry@2@0AEBUPxTransformPadded@2@1AEBUNarrowPhaseParams@12@AEAUCache@12@AEAVPxContactBuffer@2@PEAVPxRenderOutput@2@@Z 000000018013df50 f   GuPCMContactSphereCapsule.obj
 0001:0013d3c0       ?pcmContactSphereConvex@Gu@physx@@YA_NAEBVPxGeometry@2@0AEBUPxTransformPadded@2@1AEBUNarrowPhaseParams@12@AEAUCache@12@AEAVPxContactBuffer@2@PEAVPxRenderOutput@2@@Z 000000018013e3c0 f   GuPCMContactSphereConvex.obj
 0001:0013e090       ??1?$PxArray@USortedTriangle@Gu@physx@@V?$PxInlineAllocator@$0IAA@V?$PxReflectionAllocator@USortedTriangle@Gu@physx@@@physx@@@3@@physx@@QEAA@XZ 000000018013f090 f i GuPCMContactSphereHeightField.obj
 0001:0013e100       ??_EPCMSphereVsHeightfieldContactGenerationCallback@physx@@UEAAPEAXI@Z 000000018013f100 f i GuPCMContactSphereHeightField.obj
 0001:0013e100       ??_GPCMSphereVsHeightfieldContactGenerationCallback@physx@@UEAAPEAXI@Z 000000018013f100 f i GuPCMContactSphereHeightField.obj
 0001:0013e150       ?pcmContactSphereHeightField@Gu@physx@@YA_NAEBVPxGeometry@2@0AEBUPxTransformPadded@2@1AEBUNarrowPhaseParams@12@AEAUCache@12@AEAVPxContactBuffer@2@PEAVPxRenderOutput@2@@Z 000000018013f150 f   GuPCMContactSphereHeightField.obj
 0001:0013ec10       ?reportTouchedTris@?$PCMHeightfieldContactGenerationCallback@UPCMSphereVsHeightfieldContactGenerationCallback@physx@@@Gu@physx@@UEAA_NIPEBI@Z 000000018013fc10 f i GuPCMContactSphereHeightField.obj
 0001:0013f1c0       ??$PxSort@USortedTriangle@Gu@physx@@U?$PxLess@USortedTriangle@Gu@physx@@@3@V?$PxReflectionAllocator@USortedTriangle@Gu@physx@@@3@@physx@@YAXPEAUSortedTriangle@Gu@0@IAEBU?$PxLess@USortedTriangle@Gu@physx@@@0@AEBV?$PxReflectionAllocator@USortedTriangle@Gu@physx@@@0@I@Z 00000001801401c0 f i GuPCMContactSphereMesh.obj
 0001:0013f6e0       ??$processTriangleCache@$0BA@VPCMSphereVsMeshContactGeneration@Gu@physx@@@PCMMeshContactGeneration@Gu@physx@@QEAA_NAEAU?$TriangleCache@$0BA@@12@@Z 00000001801406e0 f i GuPCMContactSphereMesh.obj
 0001:0013fbb0       ?addToPatch@PCMSphereVsMeshContactGeneration@Gu@physx@@QEAAXAEBT__m128@@0T4@I@Z 0000000180140bb0 f   GuPCMContactSphereMesh.obj
 0001:00140270       ?allocate@?$PxArray@IV?$PxInlineAllocator@$0PAA@V?$PxReflectionAllocator@I@physx@@@physx@@@physx@@IEAAPEAII@Z 0000000180141270 f i GuPCMContactSphereMesh.obj
 0001:00140330       ?allocate@?$PxArray@USortedTriangle@Gu@physx@@V?$PxInlineAllocator@$0IAA@V?$PxReflectionAllocator@USortedTriangle@Gu@physx@@@physx@@@3@@physx@@IEAAPEAUSortedTriangle@Gu@2@I@Z 0000000180141330 f i GuPCMContactSphereMesh.obj
 0001:001403f0       ?generateLastContacts@PCMSphereVsMeshContactGeneration@Gu@physx@@QEAAXXZ 00000001801413f0 f   GuPCMContactSphereMesh.obj
 0001:00140a20       ?growAndPushBack@?$PxArray@USortedTriangle@Gu@physx@@V?$PxInlineAllocator@$0IAA@V?$PxReflectionAllocator@USortedTriangle@Gu@physx@@@physx@@@3@@physx@@IEAAAEAUSortedTriangle@Gu@2@AEBU342@@Z 0000000180141a20 f i GuPCMContactSphereMesh.obj
 0001:00140b30       ?pcmContactSphereMesh@Gu@physx@@YA_NAEBVPxGeometry@2@0AEBUPxTransformPadded@2@1AEBUNarrowPhaseParams@12@AEAUCache@12@AEAVPxContactBuffer@2@PEAVPxRenderOutput@2@@Z 0000000180141b30 f   GuPCMContactSphereMesh.obj
 0001:001420a0       ?processTriangle@PCMSphereVsMeshContactGeneration@Gu@physx@@QEAA_NPEBV?$PxVec3T@M@3@IEPEBI@Z 00000001801430a0 f   GuPCMContactSphereMesh.obj
 0001:00142490       ?recreate@?$PxArray@IV?$PxInlineAllocator@$0PAA@V?$PxReflectionAllocator@I@physx@@@physx@@@physx@@IEAAXI@Z 0000000180143490 f i GuPCMContactSphereMesh.obj
 0001:00142550       ?pcmContactSpherePlane@Gu@physx@@YA_NAEBVPxGeometry@2@0AEBUPxTransformPadded@2@1AEBUNarrowPhaseParams@12@AEAUCache@12@AEAVPxContactBuffer@2@PEAVPxRenderOutput@2@@Z 0000000180143550 f   GuPCMContactSpherePlane.obj
 0001:001426d0       ?pcmContactSphereSphere@Gu@physx@@YA_NAEBVPxGeometry@2@0AEBUPxTransformPadded@2@1AEBUNarrowPhaseParams@12@AEAUCache@12@AEAVPxContactBuffer@2@PEAVPxRenderOutput@2@@Z 00000001801436d0 f   GuPCMContactSphereSphere.obj
 0001:00142fa0       ?pcmContactGeometryCustomGeometry@Gu@physx@@YA_NAEBVPxGeometry@2@0AEBUPxTransformPadded@2@1AEBUNarrowPhaseParams@12@AEAUCache@12@AEAVPxContactBuffer@2@PEAVPxRenderOutput@2@@Z 0000000180143fa0 f   GuPCMContactCustomGeometry.obj
 0001:00143050       ?getPCMConvexData@Gu@physx@@YAXAEBVConvexHullV@12@_NAEAUPolygonalData@12@@Z 0000000180144050 f   GuPCMShapeConvex.obj
 0001:00143090       ?getPCMConvexData@Gu@physx@@YA_NAEBVPxConvexMeshGeometry@2@AEAVFastVertex2ShapeScaling@Cm@2@AEAVPxBounds3@2@AEAUPolygonalData@12@@Z 0000000180144090 f   GuPCMShapeConvex.obj
 0001:001435f0       ?getPolygonalData@PCMPolygonalBox@Gu@physx@@QEBAXPEIAUPolygonalData@23@@Z 00000001801445f0 f   GuPCMShapeConvex.obj
 0001:00143670       ?generatePolyDataContactManifold@PCMConvexVsMeshContactGeneration@Gu@physx@@QEAA_NAEBVTriangleV@23@IIEPEAVMeshPersistentContact@23@AEAIAEBT__m128@@AEAT6@@Z 0000000180144670 f   GuPCMTriangleContactGen.obj
 0001:00143790       ?generateTriangleFullContactManifold@PCMConvexVsMeshContactGeneration@Gu@physx@@QEAA_NAEBVTriangleV@23@IPEBIEAEBUPolygonalData@23@PEBV?$SupportLocalImpl@VTriangleV@Gu@physx@@@23@PEBVSupportLocal@23@PEAVMeshPersistentContact@23@AEAIAEBT__m128@@AEAT9@@Z 0000000180144790 f   GuPCMTriangleContactGen.obj
 0001:00143cc0       ?generateTriangleFullContactManifold@PCMConvexVsMeshContactGeneration@Gu@physx@@SA_NAEBVTriangleV@23@IEAEBUPolygonalData@23@PEBV?$SupportLocalImpl@VTriangleV@Gu@physx@@@23@PEBVSupportLocal@23@PEAVMeshPersistentContact@23@AEAIAEBT__m128@@AEAT9@PEAVPxRenderOutput@3@@Z 0000000180144cc0 f   GuPCMTriangleContactGen.obj
 0001:00145d50       ?addBatchManifoldContacts2@PersistentContactManifold@Gu@physx@@QEAAXPEBVPersistentContact@23@I@Z 0000000180146d50 f   GuPersistentContactManifold.obj
 0001:00145dc0       ?addBatchManifoldContacts@PersistentContactManifold@Gu@physx@@QEAAXPEBVPersistentContact@23@IM@Z 0000000180146dc0 f   GuPersistentContactManifold.obj
 0001:00145e40       ?addBatchManifoldContactsCluster@PersistentContactManifold@Gu@physx@@QEAAXPEBVPersistentContact@23@I@Z 0000000180146e40 f   GuPersistentContactManifold.obj
 0001:001460c0       ?addManifoldContactPoints@MultiplePersistentContactManifold@Gu@physx@@QEAAXPEAVMeshPersistentContact@23@IPEAPEAUPCMContactPatch@23@IAEBT__m128@@2E@Z 00000001801470c0 f   GuPersistentContactManifold.obj
 0001:001464b0       ?addManifoldContactsToContactBuffer@MultiplePersistentContactManifold@Gu@physx@@QEAA_NAEAVPxContactBuffer@3@AEBVPxTransformV@aos@3@1AEBT__m128@@@Z 00000001801474b0 f   GuPersistentContactManifold.obj
 0001:00146760       ?addManifoldContactsToContactBuffer@MultiplePersistentContactManifold@Gu@physx@@QEAA_NAEAVPxContactBuffer@3@AEBVPxTransformV@aos@3@@Z 0000000180147760 f   GuPersistentContactManifold.obj
 0001:001469e0       ?addManifoldContactsToContactBuffer@PersistentContactManifold@Gu@physx@@QEAAXAEAVPxContactBuffer@3@AEBT__m128@@1AEBVPxTransformV@aos@3@11@Z 00000001801479e0 f   GuPersistentContactManifold.obj
 0001:00146b70       ?addManifoldContactsToContactBuffer@PersistentContactManifold@Gu@physx@@QEAAXAEAVPxContactBuffer@3@AEBT__m128@@AEBVPxMatTransformV@aos@3@@Z 0000000180147b70 f   GuPersistentContactManifold.obj
 0001:00146c20       ?addManifoldContactsToContactBuffer@PersistentContactManifold@Gu@physx@@QEAAXAEAVPxContactBuffer@3@AEBT__m128@@AEBVPxTransformV@aos@3@1@Z 0000000180147c20 f   GuPersistentContactManifold.obj
 0001:00146d80       ?addManifoldPoint2@PersistentContactManifold@Gu@physx@@QEAAIAEBT__m128@@000@Z 0000000180147d80 f   GuPersistentContactManifold.obj
 0001:00146eb0       ?addManifoldPoint@Gu@physx@@YAXPEAVPersistentContact@12@AEAVPersistentContactManifold@12@AEAUGjkOutput@12@AEBVPxMatTransformV@aos@2@T__m128@@@Z 0000000180147eb0 f   GuPersistentContactManifold.obj
 0001:00147060       ?addManifoldPoint@PersistentContactManifold@Gu@physx@@QEAAIAEBT__m128@@000@Z 0000000180148060 f   GuPersistentContactManifold.obj
 0001:001474a0       ?drawLine@MultiplePersistentContactManifold@Gu@physx@@SAXAEAVPxRenderOutput@3@AEBT__m128@@1I@Z 00000001801484a0 f   GuPersistentContactManifold.obj
 0001:00147550       ?drawLine@MultiplePersistentContactManifold@Gu@physx@@SAXAEAVPxRenderOutput@3@V?$PxVec3T@M@3@1I@Z 0000000180148550 f   GuPersistentContactManifold.obj
 0001:001475c0       ?drawManifold@MultiplePersistentContactManifold@Gu@physx@@QEAAXAEAVPxRenderOutput@3@AEBVPxTransformV@aos@3@1@Z 00000001801485c0 f   GuPersistentContactManifold.obj
 0001:00147640       ?drawManifold@SinglePersistentContactManifold@Gu@physx@@QEAAXAEAVPxRenderOutput@3@AEBVPxTransformV@aos@3@1@Z 0000000180148640 f   GuPersistentContactManifold.obj
 0001:00147c70       ?drawPoint@MultiplePersistentContactManifold@Gu@physx@@SAXAEAVPxRenderOutput@3@AEBT__m128@@MI@Z 0000000180148c70 f   GuPersistentContactManifold.obj
 0001:00147e80       ?drawPolygon@MultiplePersistentContactManifold@Gu@physx@@SAXAEAVPxRenderOutput@3@AEBVPxTransformV@aos@3@PEAT__m128@@II@Z 0000000180148e80 f   GuPersistentContactManifold.obj
 0001:00148100       ?findRotationMatrixFromZAxis@Gu@physx@@YA?AUMat33V@aos@2@AEBT__m128@@@Z 0000000180149100 f   GuPersistentContactManifold.obj
 0001:00148380       ?fromBuffer@MultiplePersistentContactManifold@Gu@physx@@QEAAXPEIAE@Z 0000000180149380 f   GuPersistentContactManifold.obj
 0001:001484e0       ?reduceBatchContacts2@PersistentContactManifold@Gu@physx@@QEAAXPEBVPersistentContact@23@I@Z 00000001801494e0 f   GuPersistentContactManifold.obj
 0001:001486e0       ?reduceBatchContacts@PersistentContactManifold@Gu@physx@@QEAAXPEBVPersistentContact@23@IM@Z 00000001801496e0 f   GuPersistentContactManifold.obj
 0001:00148ba0       ?reduceBatchContactsCapsule@SinglePersistentContactManifold@Gu@physx@@QEAA?AT__m128@@PEBVMeshPersistentContact@23@IAEAUPCMContactPatch@23@@Z 0000000180149ba0 f   GuPersistentContactManifold.obj
 0001:00148e30       ?reduceBatchContactsCluster@PersistentContactManifold@Gu@physx@@QEAAXPEBVPersistentContact@23@I@Z 0000000180149e30 f   GuPersistentContactManifold.obj
 0001:001492c0       ?reduceBatchContactsConvex@SinglePersistentContactManifold@Gu@physx@@QEAA?AT__m128@@PEBVMeshPersistentContact@23@IAEAUPCMContactPatch@23@@Z 000000018014a2c0 f   GuPersistentContactManifold.obj
 0001:001498b0       ?reduceContacts@SinglePersistentContactManifold@Gu@physx@@SAIPEAVMeshPersistentContact@23@I@Z 000000018014a8b0 f   GuPersistentContactManifold.obj
 0001:00149e30       ?reduceContactsForPCM@PersistentContactManifold@Gu@physx@@QEAAIAEBT__m128@@00@Z 000000018014ae30 f   GuPersistentContactManifold.obj
 0001:0014a3d0       ?refreshContactPoints@SinglePersistentContactManifold@Gu@physx@@QEAA?AT__m128@@AEBVPxMatTransformV@aos@3@AEBT4@1@Z 000000018014b3d0 f   GuPersistentContactManifold.obj
 0001:0014a520       ?replaceManifoldPoint@PersistentContactManifold@Gu@physx@@QEAA_NAEBT__m128@@000@Z 000000018014b520 f   GuPersistentContactManifold.obj
 0001:0014a5e0       ?contains@Gu@physx@@YA_NPEAT__m128@@IAEBT3@11@Z 000000018014b5e0 f   GuPCMContactGenUtil.obj
 0001:0014a7a0       ?getPolygonIndex@Gu@physx@@YAHAEBUPolygonalData@12@PEBVSupportLocal@12@AEBT__m128@@AEAH@Z 000000018014b7a0 f   GuPCMContactGenUtil.obj
 0001:0014aa40       ?getWitnessPolygonIndex@Gu@physx@@YAIAEBUPolygonalData@12@PEBVSupportLocal@12@AEBT__m128@@2M@Z 000000018014ba40 f   GuPCMContactGenUtil.obj
 0001:0014af90       ?sweepBoxBox@Gu@physx@@YA_NAEBVBox@12@0AEBV?$PxVec3T@M@2@MV?$PxFlags@W4Enum@PxHitFlag@physx@@G@2@AEAUPxGeomSweepHit@2@@Z 000000018014bf90 f   GuSweepBoxBox.obj
 0001:0014c5d0       ?sweepBoxSphere@Gu@physx@@YA_NAEBVBox@12@MAEBV?$PxVec3T@M@2@1MAEAMAEAV42@V?$PxFlags@W4Enum@PxHitFlag@physx@@G@2@@Z 000000018014d5d0 f   GuSweepBoxSphere.obj
 0001:0014d280       ?sweepBoxTriangle@Gu@physx@@YA_NAEBVPxTriangle@2@AEBVPxBounds3@2@AEBV?$PxVec3T@M@2@2AEAV52@3AEAM_N@Z 000000018014e280 f   GuSweepBoxTriangle_FeatureBased.obj
 0001:0014e9a0       ?triBoxSweepTestBoxSpace@Gu@physx@@YAHAEBVPxTriangle@2@AEBV?$PxVec3T@M@2@11MAEAM_N@Z 000000018014f9a0 f   GuSweepBoxTriangle_SAT.obj
 0001:001502b0       ?sweepCapsuleBox@Gu@physx@@YA_NAEBVCapsule@12@AEBV?$PxTransformT@M@2@AEBV?$PxVec3T@M@2@2MAEAV52@AEAM3V?$PxFlags@W4Enum@PxHitFlag@physx@@G@2@@Z 00000001801512b0 f   GuSweepCapsuleBox.obj
 0001:00150600       ?distancePointSegmentSquared@Gu@physx@@YAMAEBVSegment@12@AEBV?$PxVec3T@M@2@PEAM@Z 0000000180151600 f i GuSweepCapsuleCapsule.obj
 0001:00150980       ?sweepCapsuleCapsule@Gu@physx@@YA_NAEBVCapsule@12@0AEBV?$PxVec3T@M@2@MAEAMAEAV42@3IAEAG@Z 0000000180151980 f   GuSweepCapsuleCapsule.obj
 0001:00151790       ?sweepCapsuleTriangles_Precise@Gu@physx@@YA_NIPEIBVPxTriangle@2@AEBVCapsule@12@AEBV?$PxVec3T@M@2@MPEIBIAEAUPxGeomSweepHit@2@AEAV52@V?$PxFlags@W4Enum@PxHitFlag@physx@@G@2@_NPEBVBoxPadded@12@@Z 0000000180152790 f   GuSweepCapsuleTriangle.obj
 0001:00153900       ?sweepSphereCapsule@Gu@physx@@YA_NAEBVSphere@12@AEBVCapsule@12@AEBV?$PxVec3T@M@2@MAEAMAEAV52@4V?$PxFlags@W4Enum@PxHitFlag@physx@@G@2@@Z 0000000180154900 f   GuSweepSphereCapsule.obj
 0001:00153fa0       ?sweepSphereSphere@Gu@physx@@YA_NAEBV?$PxVec3T@M@2@M0M0AEAMAEAV32@@Z 0000000180154fa0 f   GuSweepSphereSphere.obj
 0001:00154210       ?sweepSphereTriangles@Gu@physx@@YA_NIPEIBVPxTriangle@2@AEBV?$PxVec3T@M@2@M1MPEIBIAEAUPxGeomSweepHit@2@AEAV42@_N555@Z 0000000180155210 f   GuSweepSphereTriangle.obj
 0001:00154ae0       ?sweepSphereVSQuad@Gu@physx@@YA_NPEIBV?$PxVec3T@M@2@AEBV32@1M1AEAM@Z 0000000180155ae0 f   GuSweepSphereTriangle.obj
 0001:00155ac0       ?sweepSphereVSTri@Gu@physx@@YA_NPEIBV?$PxVec3T@M@2@AEBV32@1M1AEAMAEA_N_N@Z 0000000180156ac0 f   GuSweepSphereTriangle.obj
 0001:001567e0       ??$gjk@U?$LocalConvex@VTriangleV@Gu@physx@@@Gu@physx@@U?$LocalConvex@VBoxV@Gu@physx@@@23@@Gu@physx@@YA?AW4GjkStatus@01@AEBU?$LocalConvex@VTriangleV@Gu@physx@@@01@AEBU?$LocalConvex@VBoxV@Gu@physx@@@01@AEBT__m128@@2AEAT5@333@Z 00000001801577e0 f i GuSweepTriangleUtils.obj
 0001:001574c0       ?computeBoxTriImpactData@Gu@physx@@YAXAEAV?$PxVec3T@M@2@0AEBV32@1AEBVPxTriangle@2@M@Z 00000001801584c0 f   GuSweepTriangleUtils.obj
 0001:00157740       ?computeEdgeEdgeNormal@Gu@physx@@YAXAEAV?$PxVec3T@M@2@AEBV32@1111M@Z 0000000180158740 f   GuSweepTriangleUtils.obj
 0001:00157a00       ?computeSphereTriImpactData@Gu@physx@@YAXAEAV?$PxVec3T@M@2@0AEBV32@1MAEBVPxTriangle@2@@Z 0000000180158a00 f   GuSweepTriangleUtils.obj
 0001:00157ee0       ??0ShapeData@Gu@physx@@QEAA@AEBVPxGeometry@2@AEBV?$PxTransformT@M@2@M@Z 0000000180158ee0 f   GuBounds.obj
 0001:00158450       ?computeBounds@Gu@physx@@YAXAEAVPxBounds3@2@AEBVPxGeometry@2@AEBV?$PxTransformT@M@2@MM@Z 0000000180159450 f   GuBounds.obj
 0001:00159120       ?computeBoundsAroundVertices@Gu@physx@@YAXAEAVPxBounds3@2@IPEIBV?$PxVec3T@M@2@@Z 000000018015a120 f   GuBounds.obj
 0001:001591d0       ?computeGlobalBox@Gu@physx@@YAXAEAVPxBounds3@2@IPEIBV32@PEIBI@Z 000000018015a1d0 f   GuBounds.obj
 0001:00159260       ?computeLocalBoundsAndGeomEpsilon@Gu@physx@@YAXPEBV?$PxVec3T@M@2@IAEAVPxBounds3@2@AEAM@Z 000000018015a260 f   GuBounds.obj
 0001:0015a620       ??0AABBTree@Gu@physx@@QEAA@XZ 000000018015b620 f   GuAABBTree.obj
 0001:0015a650       ??0BVHPartialRefitData@Gu@physx@@QEAA@XZ 000000018015b650 f   GuAABBTree.obj
 0001:0015a680       ??0NodeAllocator@Gu@physx@@QEAA@XZ 000000018015b680 f   GuAABBTree.obj
 0001:0015a6a0       ??1AABBTree@Gu@physx@@QEAA@XZ 000000018015b6a0 f   GuAABBTree.obj
 0001:0015a6c0       ??1BVHPartialRefitData@Gu@physx@@QEAA@XZ 000000018015b6c0 f   GuAABBTree.obj
 0001:0015a760       ??1NodeAllocator@Gu@physx@@QEAA@XZ 000000018015b760 f   GuAABBTree.obj
 0001:0015a7b0       ?_buildHierarchy@AABBTreeBuildNode@Gu@physx@@QEAAXAEBVAABBTreeBuildParams@23@AEAUBuildStats@23@AEAVNodeAllocator@23@QEAI@Z 000000018015b7b0 f   GuAABBTree.obj
 0001:0015a840       ?_buildHierarchySAH@AABBTreeBuildNode@Gu@physx@@QEAAXAEBVAABBTreeBuildParams@23@AEAUSAH_Buffers@23@AEAUBuildStats@23@AEAVNodeAllocator@23@QEAI@Z 000000018015b840 f   GuAABBTree.obj
 0001:0015a8f0       ?addRuntimeChilds@AABBTree@Gu@physx@@AEAAXAEAIAEBVAABBTreeMergeData@23@@Z 000000018015b8f0 f   GuAABBTree.obj
 0001:0015a9f0       ?build@AABBTree@Gu@physx@@QEAA_NAEBVAABBTreeBuildParams@23@AEAVNodeAllocator@23@@Z 000000018015b9f0 f   GuAABBTree.obj
 0001:0015ac10       ?buildAABBTree@Gu@physx@@YAPEAIAEBVAABBTreeBuildParams@12@AEAVNodeAllocator@12@AEAUBuildStats@12@@Z 000000018015bc10 f   GuAABBTree.obj
 0001:0015acb0       ?buildAABBTree@Gu@physx@@YAXIAEBVAABBTreeBounds@12@AEAV?$PxArray@UBVHNode@Gu@physx@@V?$PxReflectionAllocator@UBVHNode@Gu@physx@@@3@@2@@Z 000000018015bcb0 f   GuAABBTree.obj
 0001:0015b080       ?buildEnd@AABBTree@Gu@physx@@AEAAXAEBVAABBTreeBuildParams@23@AEAVNodeAllocator@23@AEBUBuildStats@23@@Z 000000018015c080 f   GuAABBTree.obj
 0001:0015b2a0       ?createUpdateMap@BVHPartialRefitData@Gu@physx@@QEAAXI@Z 000000018015c2a0 f   GuAABBTree.obj
 0001:0015b3c0       ?flattenTree@Gu@physx@@YAXAEBVNodeAllocator@12@PEAUBVHNode@12@PEBI@Z 000000018015c3c0 f   GuAABBTree.obj
 0001:0015b5b0       ?fullRefit@BVHCoreData@Gu@physx@@QEAAXPEBVPxBounds3@3@@Z 000000018015c5b0 f   GuAABBTree.obj
 0001:0015b770       ?getBiNode@NodeAllocator@Gu@physx@@QEAAPEAVAABBTreeBuildNode@23@XZ 000000018015c770 f   GuAABBTree.obj
 0001:0015b8a0       ?getParentIndices@BVHPartialRefitData@Gu@physx@@IEAAPEAIXZ 000000018015c8a0 f   GuAABBTree.obj
 0001:0015b930       ?growAndPushBack@?$PxArray@PEAVAABBTreeBuildNode@Gu@physx@@V?$PxReflectionAllocator@PEAVAABBTreeBuildNode@Gu@physx@@@3@@physx@@IEAAAEAPEAVAABBTreeBuildNode@Gu@2@AEBQEAV342@@Z 000000018015c930 f i GuAABBTree.obj
 0001:0015ba50       ?growAndPushBack@?$PxArray@USlab@NodeAllocator@Gu@physx@@V?$PxReflectionAllocator@USlab@NodeAllocator@Gu@physx@@@4@@physx@@IEAAAEAUSlab@NodeAllocator@Gu@2@AEBU3452@@Z 000000018015ca50 f i GuAABBTree.obj
 0001:0015bb10       ?init@AABBTreeBounds@Gu@physx@@QEAAXIPEBVPxBounds3@3@@Z 000000018015cb10 f   GuAABBTree.obj
 0001:0015bbd0       ?init@NodeAllocator@Gu@physx@@QEAAXII@Z 000000018015cbd0 f   GuAABBTree.obj
 0001:0015bf10       ?initTree@AABBTree@Gu@physx@@QEAAXAEBVAABBTreeMergeData@23@@Z 000000018015cf10 f   GuAABBTree.obj
 0001:0015c040       ?markNodeForRefit@BVHPartialRefitData@Gu@physx@@QEAAXI@Z 000000018015d040 f   GuAABBTree.obj
 0001:0015c150       ?mergeRuntimeLeaf@AABBTree@Gu@physx@@AEAAXAEAUBVHNode@23@AEBVAABBTreeMergeData@23@I@Z 000000018015d150 f   GuAABBTree.obj
 0001:0015c3a0       ?mergeRuntimeNode@AABBTree@Gu@physx@@AEAAXAEAUBVHNode@23@AEBVAABBTreeMergeData@23@I@Z 000000018015d3a0 f   GuAABBTree.obj
 0001:0015c6c0       ?mergeTree@AABBTree@Gu@physx@@QEAAXAEBVAABBTreeMergeData@23@@Z 000000018015d6c0 f   GuAABBTree.obj
 0001:0015c950       ?progressiveBuild@AABBTree@Gu@physx@@QEAAIAEBVAABBTreeBuildParams@23@AEAVNodeAllocator@23@AEAUBuildStats@23@II@Z 000000018015d950 f   GuAABBTree.obj
 0001:0015cc00       ?refitMarkedNodes@BVHPartialRefitData@Gu@physx@@QEAAXPEBVPxBounds3@3@@Z 000000018015dc00 f   GuAABBTree.obj
 0001:0015cd70       ?release@AABBTree@Gu@physx@@QEAAX_N@Z 000000018015dd70 f   GuAABBTree.obj
 0001:0015ce60       ?release@AABBTreeBounds@Gu@physx@@QEAAXXZ 000000018015de60 f   GuAABBTree.obj
 0001:0015ceb0       ?release@NodeAllocator@Gu@physx@@QEAAXXZ 000000018015deb0 f   GuAABBTree.obj
 0001:0015cf60       ?releasePartialRefitData@BVHPartialRefitData@Gu@physx@@QEAAX_N@Z 000000018015df60 f   GuAABBTree.obj
 0001:0015cff0       ?reshuffle@Gu@physx@@YAIIQEIAIPEIBV?$PxVec3T@M@2@MI@Z 000000018015dff0 f   GuAABBTree.obj
 0001:0015d130       ?resize@?$PxArray@USlab@NodeAllocator@Gu@physx@@V?$PxReflectionAllocator@USlab@NodeAllocator@Gu@physx@@@4@@physx@@QEAAXIAEBUSlab@NodeAllocator@Gu@2@@Z 000000018015e130 f i GuAABBTree.obj
 0001:0015d1b0       ?resize@AABBTreeBounds@Gu@physx@@QEAAXII@Z 000000018015e1b0 f   GuAABBTree.obj
 0001:0015d250       ?shiftIndices@AABBTree@Gu@physx@@QEAAXI@Z 000000018015e250 f   GuAABBTree.obj
 0001:0015d270       ?shiftOrigin@AABBTree@Gu@physx@@QEAAXAEBV?$PxVec3T@M@3@@Z 000000018015e270 f   GuAABBTree.obj
 0001:0015d5e0       ?subdivide@AABBTreeBuildNode@Gu@physx@@QEAAXAEBVAABBTreeBuildParams@23@AEAUBuildStats@23@AEAVNodeAllocator@23@QEAI@Z 000000018015e5e0 f   GuAABBTree.obj
 0001:0015d7e0       ?subdivideSAH@AABBTreeBuildNode@Gu@physx@@QEAAXAEBVAABBTreeBuildParams@23@AEAUSAH_Buffers@23@AEAUBuildStats@23@AEAVNodeAllocator@23@QEAI@Z 000000018015e7e0 f   GuAABBTree.obj
 0001:0015d8d0       ?traverseRuntimeNode@AABBTree@Gu@physx@@AEAAXAEAUBVHNode@23@AEBVAABBTreeMergeData@23@I@Z 000000018015e8d0 f   GuAABBTree.obj
 0001:0015da10       ?initMap@AABBTreeUpdateMap@Gu@physx@@QEAAXIAEBVAABBTree@23@@Z 000000018015ea10 f   GuAABBTreeUpdateMap.obj
 0001:0015dba0       ?invalidate@AABBTreeUpdateMap@Gu@physx@@QEAAXIIAEAVAABBTree@23@@Z 000000018015eba0 f   GuAABBTreeUpdateMap.obj
 0001:0015de40       ?visualizeTree@@YAXAEAVPxRenderOutput@physx@@IPEBVAABBTree@Gu@2@@Z 000000018015ee40 f   GuSqInternal.obj
 0001:0015deb0       ?visualizeTree@@YAXAEAVPxRenderOutput@physx@@IPEBVBVH@Gu@2@@Z 000000018015eeb0 f   GuSqInternal.obj
 0001:0015df20       ?visualizeTree@@YAXAEAVPxRenderOutput@physx@@IPEBVIncrementalAABBTree@Gu@2@PEAVDebugVizCallback@2@@Z 000000018015ef20 f   GuSqInternal.obj
 0001:0015dfa0       ??$PxSort@PEAXU?$PxLess@PEAX@physx@@V?$PxReflectionAllocator@UAABBTreeIndices@Gu@physx@@@2@@physx@@YAXPEAPEAXIAEBU?$PxLess@PEAX@0@AEBV?$PxReflectionAllocator@UAABBTreeIndices@Gu@physx@@@0@I@Z 000000018015efa0 f i GuIncrementalAABBTree.obj
 0001:0015e400       ??$PxSort@PEAXU?$PxLess@PEAX@physx@@V?$PxReflectionAllocator@UIncrementalAABBTreeNodePair@Gu@physx@@@2@@physx@@YAXPEAPEAXIAEBU?$PxLess@PEAX@0@AEBV?$PxReflectionAllocator@UIncrementalAABBTreeNodePair@Gu@physx@@@0@I@Z 000000018015f400 f i GuIncrementalAABBTree.obj
 0001:0015e860       ??0IncrementalAABBTree@Gu@physx@@QEAA@XZ 000000018015f860 f   GuIncrementalAABBTree.obj
 0001:0015e8e0       ??1?$PxPoolBase@UAABBTreeIndices@Gu@physx@@V?$PxReflectionAllocator@UAABBTreeIndices@Gu@physx@@@3@@physx@@QEAA@XZ 000000018015f8e0 f i GuIncrementalAABBTree.obj
 0001:0015ea40       ??1?$PxPoolBase@UIncrementalAABBTreeNodePair@Gu@physx@@V?$PxReflectionAllocator@UIncrementalAABBTreeNodePair@Gu@physx@@@3@@physx@@QEAA@XZ 000000018015fa40 f i GuIncrementalAABBTree.obj
 0001:0015eba0       ??1IncrementalAABBTree@Gu@physx@@QEAA@XZ 000000018015fba0 f   GuIncrementalAABBTree.obj
 0001:0015ebe0       ?allocate@?$PxArray@PEAXV?$PxReflectionAllocator@UAABBTreeIndices@Gu@physx@@@physx@@@physx@@IEAAPEAPEAXI@Z 000000018015fbe0 f i GuIncrementalAABBTree.obj
 0001:0015ec70       ?allocate@?$PxArray@PEAXV?$PxReflectionAllocator@UIncrementalAABBTreeNodePair@Gu@physx@@@physx@@@physx@@IEAAPEAPEAXI@Z 000000018015fc70 f i GuIncrementalAABBTree.obj
 0001:0015ed00       ?allocate@?$PxPoolBase@UAABBTreeIndices@Gu@physx@@V?$PxReflectionAllocator@UAABBTreeIndices@Gu@physx@@@3@@physx@@QEAAPEAUAABBTreeIndices@Gu@2@XZ 000000018015fd00 f i GuIncrementalAABBTree.obj
 0001:0015edf0       ?allocate@?$PxPoolBase@UIncrementalAABBTreeNodePair@Gu@physx@@V?$PxReflectionAllocator@UIncrementalAABBTreeNodePair@Gu@physx@@@3@@physx@@QEAAPEAUIncrementalAABBTreeNodePair@Gu@2@XZ 000000018015fdf0 f i GuIncrementalAABBTree.obj
 0001:0015eee0       ?build@IncrementalAABBTree@Gu@physx@@QEAA_NAEBVAABBTreeBuildParams@23@AEAV?$PxArray@PEAVIncrementalAABBTreeNode@Gu@physx@@V?$PxReflectionAllocator@PEAVIncrementalAABBTreeNode@Gu@physx@@@3@@3@@Z 000000018015fee0 f   GuIncrementalAABBTree.obj
 0001:0015f0c0       ?clone@IncrementalAABBTree@Gu@physx@@AEAAXAEAV?$PxArray@PEAVIncrementalAABBTreeNode@Gu@physx@@V?$PxReflectionAllocator@PEAVIncrementalAABBTreeNode@Gu@physx@@@3@@3@PEBIPEAPEAVIncrementalAABBTreeNode@23@@Z 00000001801600c0 f   GuIncrementalAABBTree.obj
 0001:0015f5b0       ?copy@IncrementalAABBTree@Gu@physx@@QEAAXAEBVBVH@23@AEAV?$PxArray@PEAVIncrementalAABBTreeNode@Gu@physx@@V?$PxReflectionAllocator@PEAVIncrementalAABBTreeNode@Gu@physx@@@3@@3@@Z 00000001801605b0 f   GuIncrementalAABBTree.obj
 0001:0015f660       ?copyNode@IncrementalAABBTree@Gu@physx@@AEAAXAEAVIncrementalAABBTreeNode@23@AEBUBVHNode@23@PEBU523@PEAV423@PEBIAEAV?$PxArray@PEAVIncrementalAABBTreeNode@Gu@physx@@V?$PxReflectionAllocator@PEAVIncrementalAABBTreeNode@Gu@physx@@@3@@3@@Z 0000000180160660 f   GuIncrementalAABBTree.obj
 0001:0015f820       ?fixupTreeIndices@IncrementalAABBTree@Gu@physx@@QEAAXPEAVIncrementalAABBTreeNode@23@II@Z 0000000180160820 f   GuIncrementalAABBTree.obj
 0001:0015f850       ?getTreeLeafDepth@IncrementalAABBTree@Gu@physx@@QEAAIPEAVIncrementalAABBTreeNode@23@@Z 0000000180160850 f   GuIncrementalAABBTree.obj
 0001:0015f870       ?growAndPushBack@?$PxArray@PEAVIncrementalAABBTreeNode@Gu@physx@@V?$PxReflectionAllocator@PEAVIncrementalAABBTreeNode@Gu@physx@@@3@@physx@@IEAAAEAPEAVIncrementalAABBTreeNode@Gu@2@AEBQEAV342@@Z 0000000180160870 f i GuIncrementalAABBTree.obj
 0001:0015f990       ?growAndPushBack@?$PxArray@PEAXV?$PxReflectionAllocator@UAABBTreeIndices@Gu@physx@@@physx@@@physx@@IEAAAEAPEAXAEBQEAX@Z 0000000180160990 f i GuIncrementalAABBTree.obj
 0001:0015fa50       ?growAndPushBack@?$PxArray@PEAXV?$PxReflectionAllocator@UIncrementalAABBTreeNodePair@Gu@physx@@@physx@@@physx@@IEAAAEAPEAXAEBQEAX@Z 0000000180160a50 f i GuIncrementalAABBTree.obj
 0001:0015fb10       ?hierarchyCheck@IncrementalAABBTree@Gu@physx@@QEAAXIPEBVPxBounds3@3@@Z 0000000180160b10 f   GuIncrementalAABBTree.obj
 0001:0015fc60       ?hierarchyCheck@IncrementalAABBTree@Gu@physx@@QEAAXPEBVPxBounds3@3@@Z 0000000180160c60 f   GuIncrementalAABBTree.obj
 0001:0015fdd0       ?insert@IncrementalAABBTree@Gu@physx@@QEAAPEAVIncrementalAABBTreeNode@23@IPEBVPxBounds3@3@AEAV?$PxArray@PEAVIncrementalAABBTreeNode@Gu@physx@@V?$PxReflectionAllocator@PEAVIncrementalAABBTreeNode@Gu@physx@@@3@@3@@Z 0000000180160dd0 f   GuIncrementalAABBTree.obj
 0001:001604b0       ?recreate@?$PxArray@PEAXV?$PxReflectionAllocator@UAABBTreeIndices@Gu@physx@@@physx@@@physx@@IEAAXI@Z 00000001801614b0 f i GuIncrementalAABBTree.obj
 0001:00160550       ?recreate@?$PxArray@PEAXV?$PxReflectionAllocator@UIncrementalAABBTreeNodePair@Gu@physx@@@physx@@@physx@@IEAAXI@Z 0000000180161550 f i GuIncrementalAABBTree.obj
 0001:001605f0       ?release@IncrementalAABBTree@Gu@physx@@QEAAXXZ 00000001801615f0 f   GuIncrementalAABBTree.obj
 0001:00160620       ?releaseNode@IncrementalAABBTree@Gu@physx@@AEAAXPEAVIncrementalAABBTreeNode@23@@Z 0000000180161620 f   GuIncrementalAABBTree.obj
 0001:001606b0       ?remove@IncrementalAABBTree@Gu@physx@@QEAAPEAVIncrementalAABBTreeNode@23@PEAV423@IPEBVPxBounds3@3@@Z 00000001801616b0 f   GuIncrementalAABBTree.obj
 0001:001609d0       ?rotateTree@IncrementalAABBTree@Gu@physx@@AEAAXPEAVIncrementalAABBTreeNode@23@AEAV?$PxArray@PEAVIncrementalAABBTreeNode@Gu@physx@@V?$PxReflectionAllocator@PEAVIncrementalAABBTreeNode@Gu@physx@@@3@@3@IPEBVPxBounds3@3@_N@Z 00000001801619d0 f   GuIncrementalAABBTree.obj
 0001:00161330       ?shiftOrigin@IncrementalAABBTree@Gu@physx@@QEAAXAEBV?$PxVec3T@M@3@@Z 0000000180162330 f   GuIncrementalAABBTree.obj
 0001:00161390       ?splitLeafNode@IncrementalAABBTree@Gu@physx@@AEAAPEAVIncrementalAABBTreeNode@23@PEAV423@IAEBT__m128@@1PEBVPxBounds3@3@@Z 0000000180162390 f   GuIncrementalAABBTree.obj
 0001:00161680       ?update@IncrementalAABBTree@Gu@physx@@QEAAPEAVIncrementalAABBTreeNode@23@PEAV423@IPEBVPxBounds3@3@AEAV?$PxArray@PEAVIncrementalAABBTreeNode@Gu@physx@@V?$PxReflectionAllocator@PEAVIncrementalAABBTreeNode@Gu@physx@@@3@@3@@Z 0000000180162680 f   GuIncrementalAABBTree.obj
 0001:00161740       ?updateFast@IncrementalAABBTree@Gu@physx@@QEAAPEAVIncrementalAABBTreeNode@23@PEAV423@IPEBVPxBounds3@3@AEAV?$PxArray@PEAVIncrementalAABBTreeNode@Gu@physx@@V?$PxReflectionAllocator@PEAVIncrementalAABBTreeNode@Gu@physx@@@3@@3@@Z 0000000180162740 f   GuIncrementalAABBTree.obj
 0001:00161960       ??0SAH_Buffers@Gu@physx@@QEAA@I@Z 0000000180162960 f   GuSAH.obj
 0001:00161a70       ??1SAH_Buffers@Gu@physx@@QEAA@XZ 0000000180162a70 f   GuSAH.obj
 0001:00161b40       ?split@SAH_Buffers@Gu@physx@@QEAA_NAEAIIPEIBIPEIBVPxBounds3@3@PEIBV?$PxVec3T@M@3@@Z 0000000180162b40 f   GuSAH.obj
 0001:00162220       ??0BVH@Gu@physx@@QEAA@AEBUPxBVHInternalData@2@@Z 0000000180163220 f   GuBVH.obj
 0001:001622e0       ??0BVH@Gu@physx@@QEAA@PEAVMeshFactory@12@@Z 00000001801632e0 f   GuBVH.obj
 0001:00162350       ??0BVH@Gu@physx@@QEAA@PEAVMeshFactory@12@AEAVBVHData@12@@Z 0000000180163350 f   GuBVH.obj
 0001:00162400       ??1BVHData@Gu@physx@@QEAA@XZ 0000000180163400 f i GuBVH.obj
 0001:00165bf0       ??_EBVH@Gu@physx@@WBA@EAAPEAXI@Z 0000000180166bf0 f i GuBVH.obj
 0001:00165c00       ??_EBVH@Gu@physx@@UEAAPEAXI@Z 0000000180166c00 f i GuBVH.obj
 0001:00165c00       ??_GBVH@Gu@physx@@UEAAPEAXI@Z 0000000180166c00 f i GuBVH.obj
 0001:00165c90       ??_ERefCountable@Cm@physx@@UEAAPEAXI@Z 0000000180166c90 f i GuBVH.obj
 0001:00165c90       ??_GRefCountable@Cm@physx@@UEAAPEAXI@Z 0000000180166c90 f i GuBVH.obj
 0001:00165ec0       ?allocate@?$PxArray@PEBUBVHNode@Gu@physx@@V?$PxInlineAllocator@$0IAA@V?$PxReflectionAllocator@PEBUBVHNode@Gu@physx@@@physx@@@3@@physx@@IEAAPEAPEBUBVHNode@Gu@2@I@Z 0000000180166ec0 f i GuBVH.obj
 0001:00165f80       ?build@BVHData@Gu@physx@@QEAA_NIPEBXIMIW4BVHBuildStrategy@23@@Z 0000000180166f80 f   GuBVH.obj
 0001:00166380       ?cull@BVH@Gu@physx@@UEBA_NIPEBVPxPlane@3@AEAUOverlapCallback@PxBVH@3@V?$PxFlags@W4Enum@PxGeometryQueryFlag@physx@@I@3@@Z 0000000180167380 f   GuBVH.obj
 0001:00166cc0       ?getConcreteTypeName@PxBVH@physx@@UEBAPEBDXZ 0000000180167cc0 f i GuBVH.obj
 0001:00166cd0       ?init@BVH@Gu@physx@@QEAA_NIPEAVAABBTreeBounds@23@PEBXIW4BVHBuildStrategy@23@IM@Z 0000000180167cd0 f   GuBVH.obj
 0001:001670e0       ?isKindOf@PxBVH@physx@@MEBA_NPEBD@Z 00000001801680e0 f i GuBVH.obj
 0001:00167130       ?load@BVH@Gu@physx@@QEAA_NAEAVPxInputStream@3@@Z 0000000180168130 f   GuBVH.obj
 0001:001672c0       ?onRefCountZero@BVH@Gu@physx@@UEAAXXZ 00000001801682c0 f   GuBVH.obj
 0001:001673a0       ?onRefCountZero@RefCountable@Cm@physx@@UEAAXXZ 00000001801683a0 f i GuBVH.obj
 0001:001673c0       ?overlap@BVH@Gu@physx@@QEBA_NAEBVShapeData@23@AEAUOverlapCallback@PxBVH@3@V?$PxFlags@W4Enum@PxGeometryQueryFlag@physx@@I@3@@Z 00000001801683c0 f   GuBVH.obj
 0001:00167bf0       ?overlap@BVH@Gu@physx@@UEBA_NAEBVPxGeometry@3@AEBV?$PxTransformT@M@3@AEAUOverlapCallback@PxBVH@3@V?$PxFlags@W4Enum@PxGeometryQueryFlag@physx@@I@3@@Z 0000000180168bf0 f   GuBVH.obj
 0001:00167c50       ?partialRefit@BVH@Gu@physx@@UEAAXXZ 0000000180168c50 f   GuBVH.obj
 0001:00167c60       ?raycast@BVH@Gu@physx@@UEBA_NAEBV?$PxVec3T@M@3@0MAEAURaycastCallback@PxBVH@3@V?$PxFlags@W4Enum@PxGeometryQueryFlag@physx@@I@3@@Z 0000000180168c60 f   GuBVH.obj
 0001:00167d90       ?recreate@?$PxArray@PEBUBVHNode@Gu@physx@@V?$PxInlineAllocator@$0IAA@V?$PxReflectionAllocator@PEBUBVHNode@Gu@physx@@@physx@@@3@@physx@@IEAAXI@Z 0000000180168d90 f i GuBVH.obj
 0001:00167e50       ?refit@BVH@Gu@physx@@UEAAXXZ 0000000180168e50 f   GuBVH.obj
 0001:00167e60       ?release@BVH@Gu@physx@@UEAAXXZ 0000000180168e60 f   GuBVH.obj
 0001:00167e90       ?resizeUninitialized@?$PxArray@PEBUBVHNode@Gu@physx@@V?$PxInlineAllocator@$0IAA@V?$PxReflectionAllocator@PEBUBVHNode@Gu@physx@@@physx@@@3@@physx@@QEAAXI@Z 0000000180168e90 f i GuBVH.obj
 0001:00167ee0       ?save@BVHData@Gu@physx@@QEBA_NAEAVPxOutputStream@3@_N@Z 0000000180168ee0 f   GuBVH.obj
 0001:00168050       ?sweep@BVH@Gu@physx@@QEBA_NAEBVShapeData@23@AEBV?$PxVec3T@M@3@MAEAURaycastCallback@PxBVH@3@V?$PxFlags@W4Enum@PxGeometryQueryFlag@physx@@I@3@@Z 0000000180169050 f   GuBVH.obj
 0001:00168240       ?sweep@BVH@Gu@physx@@UEBA_NAEBVPxGeometry@3@AEBV?$PxTransformT@M@3@AEBV?$PxVec3T@M@3@MAEAURaycastCallback@PxBVH@3@V?$PxFlags@W4Enum@PxGeometryQueryFlag@physx@@I@3@@Z 0000000180169240 f   GuBVH.obj
 0001:001682c0       ?traverse@BVH@Gu@physx@@UEBA_NAEAUTraversalCallback@PxBVH@3@@Z 00000001801692c0 f   GuBVH.obj
 0001:00168430       ?updateBounds@BVH@Gu@physx@@UEAA_NIAEBVPxBounds3@3@@Z 0000000180169430 f   GuBVH.obj
 0001:001684e0       ?updateBoundsInternal@BVH@Gu@physx@@QEAA_NIAEBVPxBounds3@3@@Z 00000001801694e0 f   GuBVH.obj
 0001:00168590       PxFindOverlap              0000000180169590 f   GuBVH.obj
 0001:00168680       PxGetBVHInternalData       0000000180169680 f   GuBVH.obj
 0001:001686c0       ??0IncrementalAABBPrunerCore@Gu@physx@@QEAA@PEBVPruningPool@12@@Z 00000001801696c0 f   GuIncrementalAABBPrunerCore.obj
 0001:001687d0       ??1IncrementalAABBPrunerCore@Gu@physx@@QEAA@XZ 00000001801697d0 f   GuIncrementalAABBPrunerCore.obj
 0001:00168940       ??R?$AABBTreeOverlap@$00U?$OBBAABBTests@$00@Gu@physx@@VIncrementalAABBTree@23@VIncrementalAABBTreeNode@23@UOverlapCallbackAdapter@23@@Gu@physx@@QEAA_NAEBVAABBTreeBounds@12@AEBVIncrementalAABBTree@12@AEBU?$OBBAABBTests@$00@12@AEAUOverlapCallbackAdapter@12@@Z 0000000180169940 f i GuIncrementalAABBPrunerCore.obj
 0001:00168ee0       ??R?$AABBTreeOverlap@$00UAABBAABBTest@Gu@physx@@VIncrementalAABBTree@23@VIncrementalAABBTreeNode@23@UOverlapCallbackAdapter@23@@Gu@physx@@QEAA_NAEBVAABBTreeBounds@12@AEBVIncrementalAABBTree@12@AEBUAABBAABBTest@12@AEAUOverlapCallbackAdapter@12@@Z 0000000180169ee0 f i GuIncrementalAABBPrunerCore.obj
 0001:00169140       ??R?$AABBTreeOverlap@$00UCapsuleAABBTest@Gu@physx@@VIncrementalAABBTree@23@VIncrementalAABBTreeNode@23@UOverlapCallbackAdapter@23@@Gu@physx@@QEAA_NAEBVAABBTreeBounds@12@AEBVIncrementalAABBTree@12@AEBUCapsuleAABBTest@12@AEAUOverlapCallbackAdapter@12@@Z 000000018016a140 f i GuIncrementalAABBPrunerCore.obj
 0001:00169480       ??R?$AABBTreeRaycast@$00$00VIncrementalAABBTree@Gu@physx@@VIncrementalAABBTreeNode@23@URaycastCallbackAdapter@23@@Gu@physx@@QEAA_NAEBVAABBTreeBounds@12@AEBVIncrementalAABBTree@12@AEBV?$PxVec3T@M@2@2AEAM2AEAURaycastCallbackAdapter@12@@Z 000000018016a480 f i GuIncrementalAABBPrunerCore.obj
 0001:00169b40       ??R?$AABBTreeRaycast@$0A@$00VIncrementalAABBTree@Gu@physx@@VIncrementalAABBTreeNode@23@URaycastCallbackAdapter@23@@Gu@physx@@QEAA_NAEBVAABBTreeBounds@12@AEBVIncrementalAABBTree@12@AEBV?$PxVec3T@M@2@2AEAM2AEAURaycastCallbackAdapter@12@@Z 000000018016ab40 f i GuIncrementalAABBPrunerCore.obj
 0001:0016a190       ?addObject@IncrementalAABBPrunerCore@Gu@physx@@QEAA_NII@Z 000000018016b190 f   GuIncrementalAABBPrunerCore.obj
 0001:0016a280       ?allocate@?$PxArray@PEBVIncrementalAABBTreeNode@Gu@physx@@V?$PxInlineAllocator@$0IAA@V?$PxReflectionAllocator@PEBVIncrementalAABBTreeNode@Gu@physx@@@physx@@@3@@physx@@IEAAPEAPEBVIncrementalAABBTreeNode@Gu@2@I@Z 000000018016b280 f i GuIncrementalAABBPrunerCore.obj
 0001:0016a340       ?clear@?$PxHashMapBase@IPEAVIncrementalAABBTreeNode@Gu@physx@@U?$PxHash@I@3@VPxAllocator@3@@physx@@QEAAXXZ 000000018016b340 f i GuIncrementalAABBPrunerCore.obj
 0001:0016a340       ?clear@?$PxHashMapBase@UPrunerPayload@Gu@physx@@UExtendedBucketPrunerData@23@UExtendedBucketPrunerHash@23@VPxAllocator@3@@physx@@QEAAXXZ 000000018016b340 f i GuExtendedBucketPruner.obj
 0001:0016a3d0       ?create@?$PxHashBase@V?$PxPair@$$CBIPEAVIncrementalAABBTreeNode@Gu@physx@@@physx@@IU?$PxHash@I@2@UGetKey@?$PxHashMapBase@IPEAVIncrementalAABBTreeNode@Gu@physx@@U?$PxHash@I@3@VPxAllocator@3@@2@VPxAllocator@2@$00@physx@@QEAAPEAV?$PxPair@$$CBIPEAVIncrementalAABBTreeNode@Gu@physx@@@2@AEBIAEA_N@Z 000000018016b3d0 f i GuIncrementalAABBPrunerCore.obj
 0001:0016a520       ?erase@?$PxHashBase@V?$PxPair@$$CBIPEAVIncrementalAABBTreeNode@Gu@physx@@@physx@@IU?$PxHash@I@2@UGetKey@?$PxHashMapBase@IPEAVIncrementalAABBTreeNode@Gu@physx@@U?$PxHash@I@3@VPxAllocator@3@@2@VPxAllocator@2@$00@physx@@QEAA_NAEBIAEAV?$PxPair@$$CBIPEAVIncrementalAABBTreeNode@Gu@physx@@@2@@Z 000000018016b520 f i GuIncrementalAABBPrunerCore.obj
 0001:0016a690       ?getCurrentWorldBoxes@PruningPool@Gu@physx@@QEAAPEAVPxBounds3@3@XZ 000000018016b690 f i GuIncrementalAABBPrunerCore.obj
 0001:0016a690       ?getCurrentWorldBoxes@PruningPool@Gu@physx@@QEBAPEBVPxBounds3@3@XZ 000000018016b690 f i GuIncrementalAABBPrunerCore.obj
 0001:0016a690       ?getMesh@CollisionTetrahedronMeshData@Gu@physx@@UEAAPEAVPxTetrahedronMeshData@3@XZ 000000018016b690 f i GuCookingTetrahedronMesh.obj
 0001:0016a690       ?getMesh@CollisionTetrahedronMeshData@Gu@physx@@UEBAPEBVPxTetrahedronMeshData@3@XZ 000000018016b690 f i GuCookingTetrahedronMesh.obj
 0001:0016a690       ?getMesh@SimulationTetrahedronMeshData@Gu@physx@@UEAAPEAVPxTetrahedronMeshData@3@XZ 000000018016b690 f i GuCookingTetrahedronMesh.obj
 0001:0016a6a0       ?getGlobalBounds@IncrementalAABBPrunerCore@Gu@physx@@QEBAXAEAVPxBounds3@3@@Z 000000018016b6a0 f   GuIncrementalAABBPrunerCore.obj
 0001:0016a7d0       ?getIndex@PruningPool@Gu@physx@@QEBAII@Z 000000018016b7d0 f i GuIncrementalAABBPrunerCore.obj
 0001:0016a7e0       ?getPayloadData@PruningPool@Gu@physx@@QEBAAEBUPrunerPayload@23@IPEAUPrunerPayloadData@23@@Z 000000018016b7e0 f i GuIncrementalAABBPrunerCore.obj
 0001:0016a830       ?overlap@IncrementalAABBPrunerCore@Gu@physx@@QEBA_NAEBVShapeData@23@AEAUPrunerOverlapCallback@23@@Z 000000018016b830 f   GuIncrementalAABBPrunerCore.obj
 0001:0016b380       ?raycast@IncrementalAABBPrunerCore@Gu@physx@@QEBA_NAEBV?$PxVec3T@M@3@0AEAMAEAUPrunerRaycastCallback@23@@Z 000000018016c380 f   GuIncrementalAABBPrunerCore.obj
 0001:0016b460       ?recreate@?$PxArray@PEAVIncrementalAABBTreeNode@Gu@physx@@V?$PxReflectionAllocator@PEAVIncrementalAABBTreeNode@Gu@physx@@@3@@physx@@IEAAXI@Z 000000018016c460 f i GuIncrementalAABBPrunerCore.obj
 0001:0016b550       ?recreate@?$PxArray@PEBVIncrementalAABBTreeNode@Gu@physx@@V?$PxInlineAllocator@$0IAA@V?$PxReflectionAllocator@PEBVIncrementalAABBTreeNode@Gu@physx@@@physx@@@3@@physx@@IEAAXI@Z 000000018016c550 f i GuIncrementalAABBPrunerCore.obj
 0001:0016b610       ?release@IncrementalAABBPrunerCore@Gu@physx@@QEAAXXZ 000000018016c610 f   GuIncrementalAABBPrunerCore.obj
 0001:0016b710       ?removeMarkedObjects@IncrementalAABBPrunerCore@Gu@physx@@QEAAII@Z 000000018016c710 f   GuIncrementalAABBPrunerCore.obj
 0001:0016b770       ?removeObject@IncrementalAABBPrunerCore@Gu@physx@@QEAA_NIIAEAI@Z 000000018016c770 f   GuIncrementalAABBPrunerCore.obj
 0001:0016b980       ?reserveInternal@?$PxHashBase@V?$PxPair@$$CBIPEAVIncrementalAABBTreeNode@Gu@physx@@@physx@@IU?$PxHash@I@2@UGetKey@?$PxHashMapBase@IPEAVIncrementalAABBTreeNode@Gu@physx@@U?$PxHash@I@3@VPxAllocator@3@@2@VPxAllocator@2@$00@physx@@AEAAXI@Z 000000018016c980 f i GuIncrementalAABBPrunerCore.obj
 0001:0016bb40       ?resizeUninitialized@?$PxArray@PEBVIncrementalAABBTreeNode@Gu@physx@@V?$PxInlineAllocator@$0IAA@V?$PxReflectionAllocator@PEBVIncrementalAABBTreeNode@Gu@physx@@@physx@@@3@@physx@@QEAAXI@Z 000000018016cb40 f i GuIncrementalAABBPrunerCore.obj
 0001:0016bb90       ?setTransform@PruningPool@Gu@physx@@QEAA_NIAEBV?$PxTransformT@M@3@@Z 000000018016cb90 f i GuIncrementalAABBPrunerCore.obj
 0001:0016bbf0       ?shiftOrigin@IncrementalAABBPrunerCore@Gu@physx@@QEAAXAEBV?$PxVec3T@M@3@@Z 000000018016cbf0 f   GuIncrementalAABBPrunerCore.obj
 0001:0016bc40       ?swapIndex@IncrementalAABBPrunerCore@Gu@physx@@QEAAXII@Z 000000018016cc40 f   GuIncrementalAABBPrunerCore.obj
 0001:0016bd20       ?sweep@IncrementalAABBPrunerCore@Gu@physx@@QEBA_NAEBVShapeData@23@AEBV?$PxVec3T@M@3@AEAMAEAUPrunerRaycastCallback@23@@Z 000000018016cd20 f   GuIncrementalAABBPrunerCore.obj
 0001:0016bed0       ?updateMapping@IncrementalAABBPrunerCore@Gu@physx@@AEAAXAEAV?$PxHashMap@IPEAVIncrementalAABBTreeNode@Gu@physx@@U?$PxHash@I@3@VPxAllocator@3@@3@IPEAVIncrementalAABBTreeNode@23@@Z 000000018016ced0 f   GuIncrementalAABBPrunerCore.obj
 0001:0016c020       ?updateObject@IncrementalAABBPrunerCore@Gu@physx@@QEAA_NI@Z 000000018016d020 f   GuIncrementalAABBPrunerCore.obj
 0001:0016c1c0       ?visualize@IncrementalAABBPrunerCore@Gu@physx@@QEBAXAEAVPxRenderOutput@3@I@Z 000000018016d1c0 f   GuIncrementalAABBPrunerCore.obj
 0001:0016c220       ??0IncrementalAABBPruner@Gu@physx@@QEAA@I_K@Z 000000018016d220 f   GuIncrementalAABBPruner.obj
 0001:0016c2d0       ??R?$AABBTreeOverlap@$00USphereAABBTest@Gu@physx@@VIncrementalAABBTree@23@VIncrementalAABBTreeNode@23@UOverlapCallbackAdapter@23@@Gu@physx@@QEAA_NAEBVAABBTreeBounds@12@AEBVIncrementalAABBTree@12@AEBUSphereAABBTest@12@AEAUOverlapCallbackAdapter@12@@Z 000000018016d2d0 f i GuIncrementalAABBPruner.obj
 0001:0016c5a0       ??_EBasePruner@Gu@physx@@UEAAPEAXI@Z 000000018016d5a0 f i GuIncrementalAABBPruner.obj
 0001:0016c5a0       ??_GBasePruner@Gu@physx@@UEAAPEAXI@Z 000000018016d5a0 f i GuIncrementalAABBPruner.obj
 0001:0016c5f0       ??_EIncrementalAABBPruner@Gu@physx@@UEAAPEAXI@Z 000000018016d5f0 f i GuIncrementalAABBPruner.obj
 0001:0016c5f0       ??_GIncrementalAABBPruner@Gu@physx@@UEAAPEAXI@Z 000000018016d5f0 f i GuIncrementalAABBPruner.obj
 0001:0016c700       ?addObjects@IncrementalAABBPruner@Gu@physx@@UEAA_NPEAIPEBVPxBounds3@3@PEBUPrunerPayload@23@PEBV?$PxTransformT@M@3@I_N@Z 000000018016d700 f   GuIncrementalAABBPruner.obj
 0001:0016c880       ?commit@IncrementalAABBPruner@Gu@physx@@UEAAXXZ 000000018016d880 f   GuIncrementalAABBPruner.obj
 0001:0016ca50       ?getGlobalBounds@IncrementalAABBPruner@Gu@physx@@UEBAXAEAVPxBounds3@3@@Z 000000018016da50 f   GuIncrementalAABBPruner.obj
 0001:0016cac0       ?getPayloadData@IncrementalAABBPruner@Gu@physx@@UEBAAEBUPrunerPayload@23@IPEAUPrunerPayloadData@23@@Z 000000018016dac0 f i GuIncrementalAABBPruner.obj
 0001:0016cb10       ?overlap@IncrementalAABBPruner@Gu@physx@@UEBA_NAEBVShapeData@23@AEAUPrunerOverlapCallback@23@@Z 000000018016db10 f   GuIncrementalAABBPruner.obj
 0001:0016d220       ?preallocate@IncrementalAABBPruner@Gu@physx@@UEAAXI@Z 000000018016e220 f i GuIncrementalAABBPruner.obj
 0001:0016d230       ?purge@IncrementalAABBPruner@Gu@physx@@UEAAXXZ 000000018016e230 f   GuIncrementalAABBPruner.obj
 0001:0016d280       ?raycast@IncrementalAABBPruner@Gu@physx@@UEBA_NAEBV?$PxVec3T@M@3@0AEAMAEAUPrunerRaycastCallback@23@@Z 000000018016e280 f   GuIncrementalAABBPruner.obj
 0001:0016d300       ?removeObjects@IncrementalAABBPruner@Gu@physx@@UEAAXPEBIIPEAUPrunerPayloadRemovalCallback@23@@Z 000000018016e300 f   GuIncrementalAABBPruner.obj
 0001:0016d500       ?resize@?$PxArray@PEAVIncrementalAABBTreeNode@Gu@physx@@V?$PxReflectionAllocator@PEAVIncrementalAABBTreeNode@Gu@physx@@@3@@physx@@QEAAXIAEBQEAVIncrementalAABBTreeNode@Gu@2@@Z 000000018016e500 f i GuIncrementalAABBPruner.obj
 0001:0016d5c0       ?resizeUninitialized@?$PxArray@PEAVIncrementalAABBTreeNode@Gu@physx@@V?$PxReflectionAllocator@PEAVIncrementalAABBTreeNode@Gu@physx@@@3@@physx@@QEAAXI@Z 000000018016e5c0 f i GuIncrementalAABBPruner.obj
 0001:0016d600       ?setTransform@IncrementalAABBPruner@Gu@physx@@UEAA_NIAEBV?$PxTransformT@M@3@@Z 000000018016e600 f i GuIncrementalAABBPruner.obj
 0001:0016d660       ?shiftOrigin@IncrementalAABBPruner@Gu@physx@@UEAAXAEBV?$PxVec3T@M@3@@Z 000000018016e660 f   GuIncrementalAABBPruner.obj
 0001:0016d6a0       ?sweep@IncrementalAABBPruner@Gu@physx@@UEBA_NAEBVShapeData@23@AEBV?$PxVec3T@M@3@AEAMAEAUPrunerRaycastCallback@23@@Z 000000018016e6a0 f   GuIncrementalAABBPruner.obj
 0001:0016d7c0       ?updateMapping@IncrementalAABBPruner@Gu@physx@@AEAAXIPEAVIncrementalAABBTreeNode@23@@Z 000000018016e7c0 f   GuIncrementalAABBPruner.obj
 0001:0016d8b0       ?updateObjects@IncrementalAABBPruner@Gu@physx@@UEAAXPEBIIM0PEBVPxBounds3@3@PEBUPxTransformPadded@3@@Z 000000018016e8b0 f   GuIncrementalAABBPruner.obj
 0001:0016da70       ?visualize@IncrementalAABBPruner@Gu@physx@@UEBAXAEAVPxRenderOutput@3@II@Z 000000018016ea70 f   GuIncrementalAABBPruner.obj
 0001:0016dc60       ??0PruningPool@Gu@physx@@QEAA@_KW4TransformCacheMode@12@@Z 000000018016ec60 f   GuPruningPool.obj
 0001:0016dc90       ??1PruningPool@Gu@physx@@QEAA@XZ 000000018016ec90 f   GuPruningPool.obj
 0001:0016dd60       ?addObjects@PruningPool@Gu@physx@@QEAAIPEAIPEBVPxBounds3@3@PEBUPrunerPayload@23@PEBV?$PxTransformT@M@3@I@Z 000000018016ed60 f   GuPruningPool.obj
 0001:0016dfe0       ?preallocate@PruningPool@Gu@physx@@QEAAXI@Z 000000018016efe0 f   GuPruningPool.obj
 0001:0016dff0       ?removeObject@PruningPool@Gu@physx@@QEAAIIPEAUPrunerPayloadRemovalCallback@23@@Z 000000018016eff0 f   GuPruningPool.obj
 0001:0016e1c0       ?resize@PruningPool@Gu@physx@@QEAA_NI@Z 000000018016f1c0 f   GuPruningPool.obj
 0001:0016e560       ?shiftOrigin@PruningPool@Gu@physx@@QEAAXAEBV?$PxVec3T@M@3@@Z 000000018016f560 f   GuPruningPool.obj
 0001:0016e9b0       ?updateAndInflateBounds@PruningPool@Gu@physx@@QEAAXPEBI0PEBVPxBounds3@3@PEBUPxTransformPadded@3@IM@Z 000000018016f9b0 f   GuPruningPool.obj
 0001:001704c0       ??0BucketPruner@Gu@physx@@QEAA@_K@Z 00000001801714c0 f   GuBucketPruner.obj
 0001:00170510       ??0BucketPrunerCore@Gu@physx@@QEAA@_N@Z 0000000180171510 f   GuBucketPruner.obj
 0001:00170890       ??1BucketPrunerCore@Gu@physx@@QEAA@XZ 0000000180171890 f   GuBucketPruner.obj
 0001:001708b0       ??R?$BucketPrunerOverlapTraversal@UBucketPrunerAABBAABBTest@@$00@@QEBA_NAEBVBucketPrunerCore@Gu@physx@@AEBUBucketPrunerAABBAABBTest@@AEAUPrunerOverlapCallback@23@AEBVPxBounds3@3@@Z 00000001801718b0 f i GuBucketPruner.obj
 0001:00170e70       ??R?$BucketPrunerOverlapTraversal@UOBBAABBTest_SIMD@@$0A@@@QEBA_NAEBVBucketPrunerCore@Gu@physx@@AEBUOBBAABBTest_SIMD@@AEAUPrunerOverlapCallback@23@AEBVPxBounds3@3@@Z 0000000180171e70 f i GuBucketPruner.obj
 0001:001716f0       ??R?$BucketPrunerOverlapTraversal@USphereAABBTest_SIMD@@$00@@QEBA_NAEBVBucketPrunerCore@Gu@physx@@AEBUSphereAABBTest_SIMD@@AEAUPrunerOverlapCallback@23@AEBVPxBounds3@3@@Z 00000001801726f0 f i GuBucketPruner.obj
 0001:00171cd0       ??_FBucketPrunerCore@Gu@physx@@QEAAXXZ 0000000180172cd0 f i GuBucketPruner.obj
 0001:00171ce0       ??_EBucketPruner@Gu@physx@@UEAAPEAXI@Z 0000000180172ce0 f i GuBucketPruner.obj
 0001:00171ce0       ??_GBucketPruner@Gu@physx@@UEAAPEAXI@Z 0000000180172ce0 f i GuBucketPruner.obj
 0001:00171d80       ?addObject@BucketPrunerCore@Gu@physx@@QEAA_NAEBUPrunerPayload@23@AEBVPxBounds3@3@AEBV?$PxTransformT@M@3@I@Z 0000000180172d80 f   GuBucketPruner.obj
 0001:00172090       ?addObjects@BucketPruner@Gu@physx@@UEAA_NPEAIPEBVPxBounds3@3@PEBUPrunerPayload@23@PEBV?$PxTransformT@M@3@I_N@Z 0000000180173090 f   GuBucketPruner.obj
 0001:00172120       ?addPair@BucketPrunerMap@Gu@physx@@QEAAPEAUBucketPrunerPair@23@AEBUPrunerPayload@23@II@Z 0000000180173120 f   GuBucketPruner.obj
 0001:00172320       ?allocateSortedMemory@BucketPrunerCore@Gu@physx@@AEAAXI@Z 0000000180173320 f   GuBucketPruner.obj
 0001:001724e0       ?classifyBoxes@BucketPrunerCore@Gu@physx@@AEAAXXZ 00000001801734e0 f   GuBucketPruner.obj
 0001:00172cd0       ?classifyBoxes@BucketPrunerNode@Gu@physx@@QEAAXMMIPEIAUBucketBox@23@PEIBUPrunerPayload@23@PEIBV?$PxTransformT@M@3@0PEIAU523@PEIAV63@_NI@Z 0000000180173cd0 f   GuBucketPruner.obj
 0001:00173550       ?build@CompanionPrunerBucket@@UEAAXXZ 0000000180174550 f   GuSecondaryPruner.obj
 0001:00173550       ?commit@BucketPruner@Gu@physx@@UEAAXXZ 0000000180174550 f   GuBucketPruner.obj
 0001:00173560       ?findPair@BucketPrunerMap@Gu@physx@@QEBAPEBUBucketPrunerPair@23@AEBUPrunerPayload@23@@Z 0000000180174560 f   GuBucketPruner.obj
 0001:00173950       ?getGlobalBounds@BucketPruner@Gu@physx@@UEBAXAEAVPxBounds3@3@@Z 0000000180174950 f   GuBucketPruner.obj
 0001:001739d0       ?getGlobalBounds@BucketPrunerCore@Gu@physx@@QEBAXAEAVPxBounds3@3@@Z 00000001801749d0 f   GuBucketPruner.obj
 0001:00173a50       ?getPayloadData@BucketPruner@Gu@physx@@UEBAAEBUPrunerPayload@23@IPEAUPrunerPayloadData@23@@Z 0000000180174a50 f i GuBucketPruner.obj
 0001:00173ab0       ?overlap@BucketPruner@Gu@physx@@UEBA_NAEBVShapeData@23@AEAUPrunerOverlapCallback@23@@Z 0000000180174ab0 f   GuBucketPruner.obj
 0001:00173ad0       ?overlap@BucketPrunerCore@Gu@physx@@QEBA_NAEBVShapeData@23@AEAUPrunerOverlapCallback@23@@Z 0000000180174ad0 f   GuBucketPruner.obj
 0001:00173db0       ?preallocate@BucketPruner@Gu@physx@@UEAAXI@Z 0000000180174db0 f i GuBucketPruner.obj
 0001:00173f90       ?purge@BucketPrunerMap@Gu@physx@@QEAAXXZ 0000000180174f90 f   GuBucketPruner.obj
 0001:00174020       ?raycast@BucketPruner@Gu@physx@@UEBA_NAEBV?$PxVec3T@M@3@0AEAMAEAUPrunerRaycastCallback@23@@Z 0000000180175020 f   GuBucketPruner.obj
 0001:00174070       ?raycast@BucketPrunerCore@Gu@physx@@QEBA_NAEBV?$PxVec3T@M@3@0AEAMAEAUPrunerRaycastCallback@23@@Z 0000000180175070 f   GuBucketPruner.obj
 0001:001740b0       ?reallocPairs@BucketPrunerMap@Gu@physx@@QEAAXXZ 00000001801750b0 f   GuBucketPruner.obj
 0001:001742f0       ?release@BucketPrunerCore@Gu@physx@@QEAAXXZ 00000001801752f0 f   GuBucketPruner.obj
 0001:00174430       ?removeMarkedObjects@BucketPrunerCore@Gu@physx@@QEAAII@Z 0000000180175430 f   GuBucketPruner.obj
 0001:00174800       ?removeObject@BucketPrunerCore@Gu@physx@@QEAA_NAEBUPrunerPayload@23@AEAI@Z 0000000180175800 f   GuBucketPruner.obj
 0001:00174ac0       ?removeObjects@BucketPruner@Gu@physx@@UEAAXPEBIIPEAUPrunerPayloadRemovalCallback@23@@Z 0000000180175ac0 f   GuBucketPruner.obj
 0001:00174b70       ?removePair@BucketPrunerMap@Gu@physx@@QEAA_NAEBUPrunerPayload@23@AEAI1@Z 0000000180175b70 f   GuBucketPruner.obj
 0001:00174cf0       ?removePairInternal@BucketPrunerMap@Gu@physx@@QEAAXAEBUPrunerPayload@23@II@Z 0000000180175cf0 f   GuBucketPruner.obj
 0001:00174e80       ?resizeCore@BucketPrunerCore@Gu@physx@@AEAAXXZ 0000000180175e80 f   GuBucketPruner.obj
 0001:001750d0       ?setTransform@BucketPruner@Gu@physx@@UEAA_NIAEBV?$PxTransformT@M@3@@Z 00000001801760d0 f i GuBucketPruner.obj
 0001:00175130       ?shiftOrigin@BucketPruner@Gu@physx@@UEAAXAEBV?$PxVec3T@M@3@@Z 0000000180176130 f   GuBucketPruner.obj
 0001:00175130       ?shiftOrigin@CompanionPrunerBucket@@UEAAXAEBV?$PxVec3T@M@physx@@@Z 0000000180176130 f   GuSecondaryPruner.obj
 0001:00175140       ?shiftOrigin@BucketPrunerCore@Gu@physx@@QEAAXAEBV?$PxVec3T@M@3@@Z 0000000180176140 f   GuBucketPruner.obj
 0001:00175f70       ?sweep@BucketPruner@Gu@physx@@UEBA_NAEBVShapeData@23@AEBV?$PxVec3T@M@3@AEAMAEAUPrunerRaycastCallback@23@@Z 0000000180176f70 f   GuBucketPruner.obj
 0001:00175f90       ?sweep@BucketPrunerCore@Gu@physx@@QEBA_NAEBVShapeData@23@AEBV?$PxVec3T@M@3@AEAMAEAUPrunerRaycastCallback@23@@Z 0000000180176f90 f   GuBucketPruner.obj
 0001:00176060       ?updateObject@BucketPrunerCore@Gu@physx@@QEAA_NAEBVPxBounds3@3@AEBUPrunerPayload@23@AEBV?$PxTransformT@M@3@@Z 0000000180177060 f   GuBucketPruner.obj
 0001:001760c0       ?updateObjects@BucketPruner@Gu@physx@@UEAAXPEBIIM0PEBVPxBounds3@3@PEBUPxTransformPadded@3@@Z 00000001801770c0 f   GuBucketPruner.obj
 0001:001761d0       ?visualize@BucketPruner@Gu@physx@@UEBAXAEAVPxRenderOutput@3@II@Z 00000001801771d0 f   GuBucketPruner.obj
 0001:001761d0       ?visualize@CompanionPrunerBucket@@UEBAXAEAVPxRenderOutput@physx@@I@Z 00000001801771d0 f   GuSecondaryPruner.obj
 0001:001761e0       ?visualize@BucketPrunerCore@Gu@physx@@QEBAXAEAVPxRenderOutput@3@I@Z 00000001801771e0 f   GuBucketPruner.obj
 0001:00176500       ?addObject@MaverickNode@Gu@physx@@QEAA_NAEBUPrunerPayload@23@IAEBVPxBounds3@3@AEBV?$PxTransformT@M@3@I@Z 0000000180177500 f   GuMaverickNode.obj
 0001:001765e0       ?removeMarkedObjects@MaverickNode@Gu@physx@@QEAAII@Z 00000001801775e0 f   GuMaverickNode.obj
 0001:00176770       ?removeObject@MaverickNode@Gu@physx@@QEAA_NIAEAI@Z 0000000180177770 f   GuMaverickNode.obj
 0001:00176900       ?shiftOrigin@MaverickNode@Gu@physx@@QEAAXAEBV?$PxVec3T@M@3@@Z 0000000180177900 f   GuMaverickNode.obj
 0001:001769f0       ?updateObject@MaverickNode@Gu@physx@@QEAA_NIAEBVPxBounds3@3@AEBV?$PxTransformT@M@3@@Z 00000001801779f0 f   GuMaverickNode.obj
 0001:00176ad0       ??0ExtendedBucketPruner@Gu@physx@@QEAA@_KW4CompanionPrunerType@12@PEBVPruningPool@12@@Z 0000000180177ad0 f   GuExtendedBucketPruner.obj
 0001:00176d00       ??1ExtendedBucketPruner@Gu@physx@@QEAA@XZ 0000000180177d00 f   GuExtendedBucketPruner.obj
 0001:00176e70       ??R?$AABBTreeOverlap@$00U?$OBBAABBTests@$00@Gu@physx@@VAABBTree@23@UBVHNode@23@U?$MainTreeOverlapPrunerCallback@U?$OBBAABBTests@$00@Gu@physx@@@@@Gu@physx@@QEAA_NAEBVAABBTreeBounds@12@AEBVAABBTree@12@AEBU?$OBBAABBTests@$00@12@AEAU?$MainTreeOverlapPrunerCallback@U?$OBBAABBTests@$00@Gu@physx@@@@@Z 0000000180177e70 f i GuExtendedBucketPruner.obj
 0001:00177450       ??R?$AABBTreeOverlap@$00U?$OBBAABBTests@$00@Gu@physx@@VAABBTree@23@UBVHNode@23@UOverlapCallbackAdapter@23@@Gu@physx@@QEAA_NAEBVAABBTreeBounds@12@AEBVAABBTree@12@AEBU?$OBBAABBTests@$00@12@AEAUOverlapCallbackAdapter@12@@Z 0000000180178450 f i GuExtendedBucketPruner.obj
 0001:00177a10       ??R?$AABBTreeOverlap@$00UAABBAABBTest@Gu@physx@@VAABBTree@23@UBVHNode@23@U?$MainTreeOverlapPrunerCallback@UAABBAABBTest@Gu@physx@@@@@Gu@physx@@QEAA_NAEBVAABBTreeBounds@12@AEBVAABBTree@12@AEBUAABBAABBTest@12@AEAU?$MainTreeOverlapPrunerCallback@UAABBAABBTest@Gu@physx@@@@@Z 0000000180178a10 f i GuExtendedBucketPruner.obj
 0001:00177cb0       ??R?$AABBTreeOverlap@$00UAABBAABBTest@Gu@physx@@VAABBTree@23@UBVHNode@23@UOverlapCallbackAdapter@23@@Gu@physx@@QEAA_NAEBVAABBTreeBounds@12@AEBVAABBTree@12@AEBUAABBAABBTest@12@AEAUOverlapCallbackAdapter@12@@Z 0000000180178cb0 f i GuExtendedBucketPruner.obj
 0001:00177f40       ??R?$AABBTreeOverlap@$00UCapsuleAABBTest@Gu@physx@@VAABBTree@23@UBVHNode@23@U?$MainTreeOverlapPrunerCallback@UCapsuleAABBTest@Gu@physx@@@@@Gu@physx@@QEAA_NAEBVAABBTreeBounds@12@AEBVAABBTree@12@AEBUCapsuleAABBTest@12@AEAU?$MainTreeOverlapPrunerCallback@UCapsuleAABBTest@Gu@physx@@@@@Z 0000000180178f40 f i GuExtendedBucketPruner.obj
 0001:001782e0       ??R?$AABBTreeOverlap@$00UCapsuleAABBTest@Gu@physx@@VAABBTree@23@UBVHNode@23@UOverlapCallbackAdapter@23@@Gu@physx@@QEAA_NAEBVAABBTreeBounds@12@AEBVAABBTree@12@AEBUCapsuleAABBTest@12@AEAUOverlapCallbackAdapter@12@@Z 00000001801792e0 f i GuExtendedBucketPruner.obj
 0001:00178670       ??R?$AABBTreeOverlap@$00USphereAABBTest@Gu@physx@@VAABBTree@23@UBVHNode@23@U?$MainTreeOverlapPrunerCallback@USphereAABBTest@Gu@physx@@@@@Gu@physx@@QEAA_NAEBVAABBTreeBounds@12@AEBVAABBTree@12@AEBUSphereAABBTest@12@AEAU?$MainTreeOverlapPrunerCallback@USphereAABBTest@Gu@physx@@@@@Z 0000000180179670 f i GuExtendedBucketPruner.obj
 0001:00178980       ??R?$AABBTreeOverlap@$00USphereAABBTest@Gu@physx@@VAABBTree@23@UBVHNode@23@UOverlapCallbackAdapter@23@@Gu@physx@@QEAA_NAEBVAABBTreeBounds@12@AEBVAABBTree@12@AEBUSphereAABBTest@12@AEAUOverlapCallbackAdapter@12@@Z 0000000180179980 f i GuExtendedBucketPruner.obj
 0001:00178c70       ??R?$AABBTreeRaycast@$00$00VAABBTree@Gu@physx@@UBVHNode@23@U?$MainTreeRaycastPrunerCallback@$00@@@Gu@physx@@QEAA_NAEBVAABBTreeBounds@12@AEBVAABBTree@12@AEBV?$PxVec3T@M@2@2AEAM2AEAU?$MainTreeRaycastPrunerCallback@$00@@@Z 0000000180179c70 f i GuExtendedBucketPruner.obj
 0001:00179390       ??R?$AABBTreeRaycast@$00$00VAABBTree@Gu@physx@@UBVHNode@23@URaycastCallbackAdapter@23@@Gu@physx@@QEAA_NAEBVAABBTreeBounds@12@AEBVAABBTree@12@AEBV?$PxVec3T@M@2@2AEAM2AEAURaycastCallbackAdapter@12@@Z 000000018017a390 f i GuExtendedBucketPruner.obj
 0001:00179a70       ??R?$AABBTreeRaycast@$0A@$00VAABBTree@Gu@physx@@UBVHNode@23@U?$MainTreeRaycastPrunerCallback@$0A@@@@Gu@physx@@QEAA_NAEBVAABBTreeBounds@12@AEBVAABBTree@12@AEBV?$PxVec3T@M@2@2AEAM2AEAU?$MainTreeRaycastPrunerCallback@$0A@@@@Z 000000018017aa70 f i GuExtendedBucketPruner.obj
 0001:0017a130       ??R?$AABBTreeRaycast@$0A@$00VAABBTree@Gu@physx@@UBVHNode@23@URaycastCallbackAdapter@23@@Gu@physx@@QEAA_NAEBVAABBTreeBounds@12@AEBVAABBTree@12@AEBV?$PxVec3T@M@2@2AEAM2AEAURaycastCallbackAdapter@12@@Z 000000018017b130 f i GuExtendedBucketPruner.obj
 0001:0017a7b0       ?addTree@ExtendedBucketPruner@Gu@physx@@QEAAXAEBVAABBTreeMergeData@23@I@Z 000000018017b7b0 f   GuExtendedBucketPruner.obj
 0001:0017aa80       ?buildMainAABBTree@ExtendedBucketPruner@Gu@physx@@AEAAXXZ 000000018017ba80 f   GuExtendedBucketPruner.obj
 0001:0017ab30       ?create@?$PxHashBase@V?$PxPair@$$CBUPrunerPayload@Gu@physx@@UExtendedBucketPrunerData@23@@physx@@UPrunerPayload@Gu@2@UExtendedBucketPrunerHash@42@UGetKey@?$PxHashMapBase@UPrunerPayload@Gu@physx@@UExtendedBucketPrunerData@23@UExtendedBucketPrunerHash@23@VPxAllocator@3@@2@VPxAllocator@2@$00@physx@@QEAAPEAV?$PxPair@$$CBUPrunerPayload@Gu@physx@@UExtendedBucketPrunerData@23@@2@AEBUPrunerPayload@Gu@2@AEA_N@Z 000000018017bb30 f i GuExtendedBucketPruner.obj
 0001:0017ad00       ?eraseInternal@?$PxHashBase@V?$PxPair@$$CBUPrunerPayload@Gu@physx@@UExtendedBucketPrunerData@23@@physx@@UPrunerPayload@Gu@2@UExtendedBucketPrunerHash@42@UGetKey@?$PxHashMapBase@UPrunerPayload@Gu@physx@@UExtendedBucketPrunerData@23@UExtendedBucketPrunerHash@23@VPxAllocator@3@@2@VPxAllocator@2@$00@physx@@AEAA_NPEAI@Z 000000018017bd00 f i GuExtendedBucketPruner.obj
 0001:0017ae20       ?find@?$PxHashMapBase@UPrunerPayload@Gu@physx@@UExtendedBucketPrunerData@23@UExtendedBucketPrunerHash@23@VPxAllocator@3@@physx@@QEBAPEBV?$PxPair@$$CBUPrunerPayload@Gu@physx@@UExtendedBucketPrunerData@23@@2@AEBUPrunerPayload@Gu@2@@Z 000000018017be20 f i GuExtendedBucketPruner.obj
 0001:0017af10       ?getGlobalBounds@ExtendedBucketPruner@Gu@physx@@QEBAXAEAVPxBounds3@3@@Z 000000018017bf10 f   GuExtendedBucketPruner.obj
 0001:0017afe0       ?invalidateObject@ExtendedBucketPruner@Gu@physx@@AEAAXAEBUExtendedBucketPrunerData@23@IAEBUPrunerPayload@23@I@Z 000000018017bfe0 f   GuExtendedBucketPruner.obj
 0001:0017b120       ?overlap@ExtendedBucketPruner@Gu@physx@@QEBA_NAEBVShapeData@23@AEAUPrunerOverlapCallback@23@@Z 000000018017c120 f   GuExtendedBucketPruner.obj
 0001:0017b900       ?raycast@ExtendedBucketPruner@Gu@physx@@QEBA_NAEBV?$PxVec3T@M@3@0AEAMAEAUPrunerRaycastCallback@23@@Z 000000018017c900 f   GuExtendedBucketPruner.obj
 0001:0017b9e0       ?refitMarkedNodes@ExtendedBucketPruner@Gu@physx@@QEAAXPEBVPxBounds3@3@@Z 000000018017c9e0 f   GuExtendedBucketPruner.obj
 0001:0017bf60       ?release@ExtendedBucketPruner@Gu@physx@@QEAAXXZ 000000018017cf60 f   GuExtendedBucketPruner.obj
 0001:0017c030       ?removeMarkedObjects@ExtendedBucketPruner@Gu@physx@@QEAAII@Z 000000018017d030 f   GuExtendedBucketPruner.obj
 0001:0017c350       ?removeObject@ExtendedBucketPruner@Gu@physx@@QEAA_NAEBUPrunerPayload@23@II0I@Z 000000018017d350 f   GuExtendedBucketPruner.obj
 0001:0017c540       ?reserveInternal@?$PxHashBase@V?$PxPair@$$CBUPrunerPayload@Gu@physx@@UExtendedBucketPrunerData@23@@physx@@UPrunerPayload@Gu@2@UExtendedBucketPrunerHash@42@UGetKey@?$PxHashMapBase@UPrunerPayload@Gu@physx@@UExtendedBucketPrunerData@23@UExtendedBucketPrunerHash@23@VPxAllocator@3@@2@VPxAllocator@2@$00@physx@@AEAAXI@Z 000000018017d540 f i GuExtendedBucketPruner.obj
 0001:0017c740       ?shiftOrigin@ExtendedBucketPruner@Gu@physx@@QEAAXAEBV?$PxVec3T@M@3@@Z 000000018017d740 f   GuExtendedBucketPruner.obj
 0001:0017c7c0       ?swapIndex@ExtendedBucketPruner@Gu@physx@@QEAAXIAEBUPrunerPayload@23@I_N@Z 000000018017d7c0 f   GuExtendedBucketPruner.obj
 0001:0017c890       ?sweep@ExtendedBucketPruner@Gu@physx@@QEBA_NAEBVShapeData@23@AEBV?$PxVec3T@M@3@AEAMAEAUPrunerRaycastCallback@23@@Z 000000018017d890 f   GuExtendedBucketPruner.obj
 0001:0017ca20       ?updateObject@ExtendedBucketPruner@Gu@physx@@QEAA_NAEBVPxBounds3@3@AEBV?$PxTransformT@M@3@AEBUPrunerPayload@23@II@Z 000000018017da20 f   GuExtendedBucketPruner.obj
 0001:0017caf0       ?visualize@ExtendedBucketPruner@Gu@physx@@QEBAXAEAVPxRenderOutput@3@I@Z 000000018017daf0 f   GuExtendedBucketPruner.obj
 0001:0017cb80       ??0?$OBBAABBTests@$00@Gu@physx@@QEAA@AEBV?$PxVec3T@M@2@AEBV?$PxMat33T@M@2@0@Z 000000018017db80 f i GuSecondaryPruner.obj
 0001:0017ead0       ??_ECompanionPruner@Gu@physx@@UEAAPEAXI@Z 000000018017fad0 f i GuSecondaryPruner.obj
 0001:0017ead0       ??_GCompanionPruner@Gu@physx@@UEAAPEAXI@Z 000000018017fad0 f i GuSecondaryPruner.obj
 0001:0017eb20       ??_ECompanionPrunerAABBTree@@UEAAPEAXI@Z 000000018017fb20 f i GuSecondaryPruner.obj
 0001:0017eb20       ??_GCompanionPrunerAABBTree@@UEAAPEAXI@Z 000000018017fb20 f i GuSecondaryPruner.obj
 0001:0017ebd0       ??_ECompanionPrunerBucket@@UEAAPEAXI@Z 000000018017fbd0 f i GuSecondaryPruner.obj
 0001:0017ebd0       ??_GCompanionPrunerBucket@@UEAAPEAXI@Z 000000018017fbd0 f i GuSecondaryPruner.obj
 0001:0017ec50       ??_ECompanionPrunerIncremental@@UEAAPEAXI@Z 000000018017fc50 f i GuSecondaryPruner.obj
 0001:0017ec50       ??_GCompanionPrunerIncremental@@UEAAPEAXI@Z 000000018017fc50 f i GuSecondaryPruner.obj
 0001:0017ecd0       ?addObject@CompanionPrunerAABBTree@@UEAA_NAEBUPrunerPayload@Gu@physx@@IAEBVPxBounds3@4@AEBV?$PxTransformT@M@4@II@Z 000000018017fcd0 f   GuSecondaryPruner.obj
 0001:0017ef10       ?addObject@CompanionPrunerBucket@@UEAA_NAEBUPrunerPayload@Gu@physx@@IAEBVPxBounds3@4@AEBV?$PxTransformT@M@4@II@Z 000000018017ff10 f i GuSecondaryPruner.obj
 0001:0017ef30       ?addObject@CompanionPrunerIncremental@@UEAA_NAEBUPrunerPayload@Gu@physx@@IAEBVPxBounds3@4@AEBV?$PxTransformT@M@4@II@Z 000000018017ff30 f i GuSecondaryPruner.obj
 0001:0017ef50       ?addObjectInternal@CompanionPrunerAABBTree@@QEAA_NII@Z 000000018017ff50 f   GuSecondaryPruner.obj
 0001:0017f0f0       ?build@CompanionPrunerAABBTree@@UEAAXXZ 00000001801800f0 f   GuSecondaryPruner.obj
 0001:0017f5c0       ?createCompanionPruner@Gu@physx@@YAPEAVCompanionPruner@12@_KW4CompanionPrunerType@12@PEBVPruningPool@12@@Z 00000001801805c0 f   GuSecondaryPruner.obj
 0001:0017f7c0       ?getGlobalBounds@CompanionPrunerAABBTree@@UEBAXAEAVPxBounds3@physx@@@Z 00000001801807c0 f   GuSecondaryPruner.obj
 0001:0017f8d0       ?getGlobalBounds@CompanionPrunerBucket@@UEBAXAEAVPxBounds3@physx@@@Z 00000001801808d0 f i GuSecondaryPruner.obj
 0001:0017f8e0       ?getGlobalBounds@CompanionPrunerIncremental@@UEBAXAEAVPxBounds3@physx@@@Z 00000001801808e0 f i GuSecondaryPruner.obj
 0001:0017f8f0       ?getNbObjects@CompanionPrunerAABBTree@@UEBAIXZ 00000001801808f0 f   GuSecondaryPruner.obj
 0001:0017f900       ?getNbObjects@CompanionPrunerBucket@@UEBAIXZ 0000000180180900 f i GuSecondaryPruner.obj
 0001:0017f910       ?getNbObjects@CompanionPrunerIncremental@@UEBAIXZ 0000000180180910 f i GuSecondaryPruner.obj
 0001:0017f920       ?growAndPushBack@?$PxArray@ULocalData@CompanionPrunerAABBTree@@V?$PxReflectionAllocator@ULocalData@CompanionPrunerAABBTree@@@physx@@@physx@@IEAAAEAULocalData@CompanionPrunerAABBTree@@AEBU34@@Z 0000000180180920 f i GuSecondaryPruner.obj
 0001:0017fa40       ?overlap@CompanionPrunerAABBTree@@UEBA_NAEBVShapeData@Gu@physx@@AEAUPrunerOverlapCallback@34@@Z 0000000180180a40 f   GuSecondaryPruner.obj
 0001:001809d0       ?overlap@CompanionPrunerBucket@@UEBA_NAEBVShapeData@Gu@physx@@AEAUPrunerOverlapCallback@34@@Z 00000001801819d0 f i GuSecondaryPruner.obj
 0001:001809f0       ?overlap@CompanionPrunerIncremental@@UEBA_NAEBVShapeData@Gu@physx@@AEAUPrunerOverlapCallback@34@@Z 00000001801819f0 f i GuSecondaryPruner.obj
 0001:00180a10       ?raycast@CompanionPrunerAABBTree@@UEBA_NAEBV?$PxVec3T@M@physx@@0AEAMAEAUPrunerRaycastCallback@Gu@3@@Z 0000000180181a10 f   GuSecondaryPruner.obj
 0001:00180e00       ?raycast@CompanionPrunerBucket@@UEBA_NAEBV?$PxVec3T@M@physx@@0AEAMAEAUPrunerRaycastCallback@Gu@3@@Z 0000000180181e00 f i GuSecondaryPruner.obj
 0001:00180e20       ?raycast@CompanionPrunerIncremental@@UEBA_NAEBV?$PxVec3T@M@physx@@0AEAMAEAUPrunerRaycastCallback@Gu@3@@Z 0000000180181e20 f i GuSecondaryPruner.obj
 0001:00180e40       ?release@CompanionPrunerAABBTree@@UEAAXXZ 0000000180181e40 f   GuSecondaryPruner.obj
 0001:00180e50       ?release@CompanionPrunerBucket@@UEAAXXZ 0000000180181e50 f i GuSecondaryPruner.obj
 0001:00180e60       ?release@CompanionPrunerIncremental@@UEAAXXZ 0000000180181e60 f i GuSecondaryPruner.obj
 0001:00180e70       ?releaseInternal@CompanionPrunerAABBTree@@QEAAXXZ 0000000180181e70 f   GuSecondaryPruner.obj
 0001:00180ef0       ?removeMarkedObjects@CompanionPrunerAABBTree@@UEAAII@Z 0000000180181ef0 f   GuSecondaryPruner.obj
 0001:00180f10       ?removeMarkedObjects@CompanionPrunerBucket@@UEAAII@Z 0000000180181f10 f i GuSecondaryPruner.obj
 0001:00180f20       ?removeMarkedObjects@CompanionPrunerIncremental@@UEAAII@Z 0000000180181f20 f i GuSecondaryPruner.obj
 0001:00180f30       ?removeObject@CompanionPrunerAABBTree@@UEAA_NAEBUPrunerPayload@Gu@physx@@III@Z 0000000180181f30 f   GuSecondaryPruner.obj
 0001:00180fd0       ?removeObject@CompanionPrunerBucket@@UEAA_NAEBUPrunerPayload@Gu@physx@@III@Z 0000000180181fd0 f i GuSecondaryPruner.obj
 0001:00180ff0       ?removeObject@CompanionPrunerIncremental@@UEAA_NAEBUPrunerPayload@Gu@physx@@III@Z 0000000180181ff0 f i GuSecondaryPruner.obj
 0001:00181010       ?shiftOrigin@CompanionPrunerAABBTree@@UEAAXAEBV?$PxVec3T@M@physx@@@Z 0000000180182010 f   GuSecondaryPruner.obj
 0001:00181140       ?shiftOrigin@CompanionPrunerIncremental@@UEAAXAEBV?$PxVec3T@M@physx@@@Z 0000000180182140 f i GuSecondaryPruner.obj
 0001:00181150       ?swapIndex@CompanionPrunerIncremental@@UEAAXII@Z 0000000180182150 f i GuSecondaryPruner.obj
 0001:00181160       ?sweep@CompanionPrunerAABBTree@@UEBA_NAEBVShapeData@Gu@physx@@AEBV?$PxVec3T@M@4@AEAMAEAUPrunerRaycastCallback@34@@Z 0000000180182160 f   GuSecondaryPruner.obj
 0001:00181690       ?sweep@CompanionPrunerBucket@@UEBA_NAEBVShapeData@Gu@physx@@AEBV?$PxVec3T@M@4@AEAMAEAUPrunerRaycastCallback@34@@Z 0000000180182690 f i GuSecondaryPruner.obj
 0001:001816b0       ?sweep@CompanionPrunerIncremental@@UEBA_NAEBVShapeData@Gu@physx@@AEBV?$PxVec3T@M@4@AEAMAEAUPrunerRaycastCallback@34@@Z 00000001801826b0 f i GuSecondaryPruner.obj
 0001:001816d0       ?timeStampChange@CompanionPrunerIncremental@@UEAAXXZ 00000001801826d0 f i GuSecondaryPruner.obj
 0001:001816f0       ?updateObject@CompanionPrunerAABBTree@@UEAA_NAEBUPrunerPayload@Gu@physx@@IAEBVPxBounds3@4@AEBV?$PxTransformT@M@4@I@Z 00000001801826f0 f   GuSecondaryPruner.obj
 0001:00181770       ?updateObject@CompanionPrunerBucket@@UEAA_NAEBUPrunerPayload@Gu@physx@@IAEBVPxBounds3@4@AEBV?$PxTransformT@M@4@I@Z 0000000180182770 f i GuSecondaryPruner.obj
 0001:00181790       ?updateObject@CompanionPrunerIncremental@@UEAA_NAEBUPrunerPayload@Gu@physx@@IAEBVPxBounds3@4@AEBV?$PxTransformT@M@4@I@Z 0000000180182790 f i GuSecondaryPruner.obj
 0001:001817a0       ?visualize@CompanionPrunerAABBTree@@UEBAXAEAVPxRenderOutput@physx@@I@Z 00000001801827a0 f   GuSecondaryPruner.obj
 0001:001817c0       ?visualize@CompanionPrunerIncremental@@UEBAXAEAVPxRenderOutput@physx@@I@Z 00000001801827c0 f i GuSecondaryPruner.obj
 0001:001817d0       ??0AABBPruner@Gu@physx@@QEAA@_N_KW4CompanionPrunerType@12@W4BVHBuildStrategy@12@I@Z 00000001801827d0 f   GuAABBPruner.obj
 0001:00181900       ??1AABBPruner@Gu@physx@@UEAA@XZ 0000000180182900 f   GuAABBPruner.obj
 0001:00181a60       ??_EAABBPruner@Gu@physx@@UEAAPEAXI@Z 0000000180182a60 f i GuAABBPruner.obj
 0001:00181a60       ??_GAABBPruner@Gu@physx@@UEAAPEAXI@Z 0000000180182a60 f i GuAABBPruner.obj
 0001:00181ad0       ?addObjects@AABBPruner@Gu@physx@@UEAA_NPEAIPEBVPxBounds3@3@PEBUPrunerPayload@23@PEBV?$PxTransformT@M@3@I_N@Z 0000000180182ad0 f   GuAABBPruner.obj
 0001:00181db0       ?buildStep@AABBPruner@Gu@physx@@UEAA_N_N@Z 0000000180182db0 f   GuAABBPruner.obj
 0001:001821b0       ?commit@AABBPruner@Gu@physx@@UEAAXXZ 00000001801831b0 f   GuAABBPruner.obj
 0001:001828b0       ?fullRebuildAABBTree@AABBPruner@Gu@physx@@QEAA_NXZ 00000001801838b0 f   GuAABBPruner.obj
 0001:00182ab0       ?getGlobalBounds@AABBPruner@Gu@physx@@UEBAXAEAVPxBounds3@3@@Z 0000000180183ab0 f   GuAABBPruner.obj
 0001:00182bf0       ?getPayloadData@AABBPruner@Gu@physx@@UEBAAEBUPrunerPayload@23@IPEAUPrunerPayloadData@23@@Z 0000000180183bf0 f i GuAABBPruner.obj
 0001:00182c50       ?growAndPushBack@?$PxArray@UNewTreeFixup@AABBPruner@Gu@physx@@V?$PxReflectionAllocator@UNewTreeFixup@AABBPruner@Gu@physx@@@4@@physx@@IEAAAEAUNewTreeFixup@AABBPruner@Gu@2@AEBU3452@@Z 0000000180183c50 f i GuAABBPruner.obj
 0001:00182d70       ?isDynamic@AABBPruner@Gu@physx@@UEBA_NXZ 0000000180183d70 f i GuAABBPruner.obj
 0001:00182d80       ?merge@AABBPruner@Gu@physx@@UEAAXPEBX@Z 0000000180183d80 f   GuAABBPruner.obj
 0001:00182e00       ?overlap@AABBPruner@Gu@physx@@UEBA_NAEBVShapeData@23@AEAUPrunerOverlapCallback@23@@Z 0000000180183e00 f   GuAABBPruner.obj
 0001:001833d0       ?preallocate@AABBPruner@Gu@physx@@UEAAXI@Z 00000001801843d0 f i GuAABBPruner.obj
 0001:001833e0       ?prepareBuild@AABBPruner@Gu@physx@@UEAA_NXZ 00000001801843e0 f   GuAABBPruner.obj
 0001:001835f0       ?purge@AABBPruner@Gu@physx@@UEAAXXZ 00000001801845f0 f   GuAABBPruner.obj
 0001:00183610       ?raycast@AABBPruner@Gu@physx@@UEBA_NAEBV?$PxVec3T@M@3@0AEAMAEAUPrunerRaycastCallback@23@@Z 0000000180184610 f   GuAABBPruner.obj
 0001:00183700       ?refitUpdatedAndRemoved@AABBPruner@Gu@physx@@QEAAXXZ 0000000180184700 f   GuAABBPruner.obj
 0001:001837d0       ?release@AABBPruner@Gu@physx@@QEAAXXZ 00000001801847d0 f   GuAABBPruner.obj
 0001:00183900       ?removeObjects@AABBPruner@Gu@physx@@UEAAXPEBIIPEAUPrunerPayloadRemovalCallback@23@@Z 0000000180184900 f   GuAABBPruner.obj
 0001:00183bd0       ?setRebuildRateHint@AABBPruner@Gu@physx@@UEAAXI@Z 0000000180184bd0 f   GuAABBPruner.obj
 0001:00183bf0       ?setTransform@AABBPruner@Gu@physx@@UEAA_NIAEBV?$PxTransformT@M@3@@Z 0000000180184bf0 f i GuAABBPruner.obj
 0001:00183c50       ?shiftOrigin@AABBPruner@Gu@physx@@UEAAXAEBV?$PxVec3T@M@3@@Z 0000000180184c50 f   GuAABBPruner.obj
 0001:00183cc0       ?sweep@AABBPruner@Gu@physx@@UEBA_NAEBVShapeData@23@AEBV?$PxVec3T@M@3@AEAMAEAUPrunerRaycastCallback@23@@Z 0000000180184cc0 f   GuAABBPruner.obj
 0001:00183e50       ?updateObjects@AABBPruner@Gu@physx@@UEAAXPEBIIM0PEBVPxBounds3@3@PEBUPxTransformPadded@3@@Z 0000000180184e50 f   GuAABBPruner.obj
 0001:001840f0       ?visualize@AABBPruner@Gu@physx@@UEBAXAEAVPxRenderOutput@3@II@Z 00000001801850f0 f   GuAABBPruner.obj
 0001:001841a0       ??0ActorShapeMap@Gu@physx@@QEAA@XZ 00000001801851a0 f   GuActorShapeMap.obj
 0001:00184200       ??1ActorShapeMap@Gu@physx@@QEAA@XZ 0000000180185200 f   GuActorShapeMap.obj
 0001:00184260       ?add@ActorShapeMap@Gu@physx@@QEAA_NIPEBX0_K@Z 0000000180185260 f   GuActorShapeMap.obj
 0001:00184400       ?create@?$PxHashBase@V?$PxPair@$$CBUActorShape@ActorShapeMap@Gu@physx@@_K@physx@@UActorShape@ActorShapeMap@Gu@2@U?$PxHash@UActorShape@ActorShapeMap@Gu@physx@@@2@UGetKey@?$PxHashMapBase@UActorShape@ActorShapeMap@Gu@physx@@_KU?$PxHash@UActorShape@ActorShapeMap@Gu@physx@@@4@VPxAllocator@4@@2@VPxAllocator@2@$00@physx@@QEAAPEAV?$PxPair@$$CBUActorShape@ActorShapeMap@Gu@physx@@_K@2@AEBUActorShape@ActorShapeMap@Gu@2@AEA_N@Z 0000000180185400 f i GuActorShapeMap.obj
 0001:001845f0       ?eraseInternal@?$PxHashBase@V?$PxPair@$$CBUActorShape@ActorShapeMap@Gu@physx@@_K@physx@@UActorShape@ActorShapeMap@Gu@2@U?$PxHash@UActorShape@ActorShapeMap@Gu@physx@@@2@UGetKey@?$PxHashMapBase@UActorShape@ActorShapeMap@Gu@physx@@_KU?$PxHash@UActorShape@ActorShapeMap@Gu@physx@@@4@VPxAllocator@4@@2@VPxAllocator@2@$00@physx@@AEAA_NPEAI@Z 00000001801855f0 f i GuActorShapeMap.obj
 0001:00184700       ?find@ActorShapeMap@Gu@physx@@QEBA_KIPEBX0@Z 0000000180185700 f   GuActorShapeMap.obj
 0001:001847f0       ?remove@ActorShapeMap@Gu@physx@@QEAA_NIPEBX0PEA_K@Z 00000001801857f0 f   GuActorShapeMap.obj
 0001:00184940       ?reserveInternal@?$PxHashBase@V?$PxPair@$$CBUActorShape@ActorShapeMap@Gu@physx@@_K@physx@@UActorShape@ActorShapeMap@Gu@2@U?$PxHash@UActorShape@ActorShapeMap@Gu@physx@@@2@UGetKey@?$PxHashMapBase@UActorShape@ActorShapeMap@Gu@physx@@_KU?$PxHash@UActorShape@ActorShapeMap@Gu@physx@@@4@VPxAllocator@4@@2@VPxAllocator@2@$00@physx@@AEAAXI@Z 0000000180185940 f i GuActorShapeMap.obj
 0001:00184b50       ??0QuerySystem@Gu@physx@@QEAA@_KMAEBVAdapter@12@_N@Z 0000000180185b50 f   GuQuerySystem.obj
 0001:00184c20       ??1QuerySystem@Gu@physx@@QEAA@XZ 0000000180185c20 f   GuQuerySystem.obj
 0001:00184e70       ??_GPrunerExt@QuerySystem@Gu@physx@@QEAAPEAXI@Z 0000000180185e70 f i GuQuerySystem.obj
 0001:00184f80       ?addPruner@QuerySystem@Gu@physx@@QEAAIPEAVPruner@23@I@Z 0000000180185f80 f   GuQuerySystem.obj
 0001:001850a0       ?addPrunerShape@QuerySystem@Gu@physx@@QEAA_KAEBUPrunerPayload@23@I_NAEBV?$PxTransformT@M@3@PEBVPxBounds3@3@@Z 00000001801860a0 f   GuQuerySystem.obj
 0001:001851e0       ?addToDirtyList@PrunerExt@QuerySystem@Gu@physx@@QEAAXIIAEBV?$PxTransformT@M@4@PEBVPxBounds3@4@@Z 00000001801861e0 f   GuQuerySystem.obj
 0001:00185430       ?commitUpdates@QuerySystem@Gu@physx@@QEAAXXZ 0000000180186430 f   GuQuerySystem.obj
 0001:00185550       ?createTreeOfPruners@QuerySystem@Gu@physx@@QEAAXXZ 0000000180186550 f   GuQuerySystem.obj
 0001:00185720       ?flushMemory@QuerySystem@Gu@physx@@QEAAXXZ 0000000180186720 f   GuQuerySystem.obj
 0001:001857b0       ?getPayloadData@QuerySystem@Gu@physx@@QEBAAEBUPrunerPayload@23@_KPEAUPrunerPayloadData@23@@Z 00000001801867b0 f   GuQuerySystem.obj
 0001:001857d0       ?growAndPushBack@?$PxArray@PEAUPrunerExt@QuerySystem@Gu@physx@@V?$PxReflectionAllocator@PEAUPrunerExt@QuerySystem@Gu@physx@@@4@@physx@@IEAAAEAPEAUPrunerExt@QuerySystem@Gu@2@AEBQEAU3452@@Z 00000001801867d0 f i GuQuerySystem.obj
 0001:001858f0       ?overlap@QuerySystem@Gu@physx@@QEBAXAEBVShapeData@23@AEAUPrunerOverlapCallback@23@PEBVPrunerFilter@23@@Z 00000001801868f0 f   GuQuerySystem.obj
 0001:001859f0       ?processDirtyList@PrunerExt@QuerySystem@Gu@physx@@QEAA_NAEBVAdapter@34@M@Z 00000001801869f0 f   GuQuerySystem.obj
 0001:00185c30       ?processDirtyLists@QuerySystem@Gu@physx@@AEAAXXZ 0000000180186c30 f   GuQuerySystem.obj
 0001:00185d90       ?raycast@QuerySystem@Gu@physx@@QEBAXAEBV?$PxVec3T@M@3@0AEAMAEAUPrunerRaycastCallback@23@PEBVPrunerFilter@23@@Z 0000000180186d90 f   GuQuerySystem.obj
 0001:00185ed0       ?recreate@?$PxArray@UData@PrunerExt@QuerySystem@Gu@physx@@V?$PxReflectionAllocator@UData@PrunerExt@QuerySystem@Gu@physx@@@5@@physx@@IEAAXI@Z 0000000180186ed0 f i GuQuerySystem.obj
 0001:001861c0       ?removePruner@QuerySystem@Gu@physx@@QEAAXI@Z 00000001801871c0 f   GuQuerySystem.obj
 0001:001862a0       ?removePrunerShape@QuerySystem@Gu@physx@@QEAAX_KPEAUPrunerPayloadRemovalCallback@23@@Z 00000001801872a0 f   GuQuerySystem.obj
 0001:001864d0       ?sweep@QuerySystem@Gu@physx@@QEBAXAEBVShapeData@23@AEBV?$PxVec3T@M@3@AEAMAEAUPrunerRaycastCallback@23@PEBVPrunerFilter@23@@Z 00000001801874d0 f   GuQuerySystem.obj
 0001:00186600       ?sync@QuerySystem@Gu@physx@@QEAAXIPEBI0PEBVPxBounds3@3@PEBUPxTransformPadded@3@I@Z 0000000180187600 f   GuQuerySystem.obj
 0001:001866b0       ?update@QuerySystem@Gu@physx@@QEAAX_N0@Z 00000001801876b0 f   GuQuerySystem.obj
 0001:00186820       ?updatePrunerShape@QuerySystem@Gu@physx@@QEAAX_K_NAEBV?$PxTransformT@M@3@PEBVPxBounds3@3@@Z 0000000180187820 f   GuQuerySystem.obj
 0001:00186a10       createAABBPruner           0000000180187a10 f   GuFactory.obj
 0001:00186ad0       createBucketPruner         0000000180187ad0 f   GuFactory.obj
 0001:00186b60       createIncrementalPruner    0000000180187b60 f   GuFactory.obj
 0001:00186bf0       ??$PxSmallSort@I$$CBUSortBoundsPredicate@physx@@@physx@@YAXPEAIHHAEBUSortBoundsPredicate@0@@Z 0000000180187bf0 f i GuRTreeCooking.obj
 0001:00186e90       ??$PxSort@IU?$PxLess@I@physx@@V?$PxReflectionAllocator@I@2@@physx@@YAXPEAIIAEBU?$PxLess@I@0@AEBV?$PxReflectionAllocator@I@0@I@Z 0000000180187e90 f i GuRTreeCooking.obj
 0001:001872e0       ??$PxSort@IUSortBoundsPredicate@physx@@V?$PxReflectionAllocator@I@2@@physx@@YAXPEAIIAEBUSortBoundsPredicate@0@AEBV?$PxReflectionAllocator@I@0@I@Z 00000001801882e0 f i GuRTreeCooking.obj
 0001:00187790       ??$quickSelectFirstK@UBoundsLTE@physx@@@quickSelect@physx@@YAXPEIAIIIIAEBUBoundsLTE@1@@Z 0000000180188790 f i GuRTreeCooking.obj
 0001:00187970       ?allocate@?$PxArray@UInterval@physx@@V?$PxInlineAllocator@$0CAAA@V?$PxReflectionAllocator@UInterval@physx@@@physx@@@2@@physx@@IEAAPEAUInterval@2@I@Z 0000000180188970 f i GuRTreeCooking.obj
 0001:00187a30       ?allocate@?$PxArray@UPxBounds3V@physx@@V?$PxReflectionAllocator@UPxBounds3V@physx@@@2@@physx@@IEAAPEAUPxBounds3V@2@I@Z 0000000180188a30 f i GuRTreeCooking.obj
 0001:00187ac0       ?allocate@?$PxArray@URTreeNodeNQ@physx@@V?$PxReflectionAllocator@URTreeNodeNQ@physx@@@2@@physx@@IEAAPEAURTreeNodeNQ@2@I@Z 0000000180188ac0 f i GuRTreeCooking.obj
 0001:00187b50       ?allocate@?$PxArray@URTreeNodeQ@Gu@physx@@V?$PxReflectionAllocator@URTreeNodeQ@Gu@physx@@@3@@physx@@IEAAPEAURTreeNodeQ@Gu@2@I@Z 0000000180188b50 f i GuRTreeCooking.obj
 0001:00188860       ?buildFromTriangles@RTreeCooker@physx@@SAXAEAURTree@Gu@2@PEBV?$PxVec3T@M@2@IPEBGPEBIIAEAV?$PxArray@IV?$PxReflectionAllocator@I@physx@@@2@PEAURemapCallback@12@MW4Enum@PxMeshCookingHint@2@@Z 0000000180189860 f   GuRTreeCooking.obj
 0001:00188b20       ?copy@?$PxArray@URTreeNodeNQ@physx@@V?$PxReflectionAllocator@URTreeNodeNQ@physx@@@2@@physx@@KAXPEAURTreeNodeNQ@2@0PEBU32@@Z 0000000180189b20 f i GuRTreeCooking.obj
 0001:00188ce0       ?growAndPushBack@?$PxArray@UInterval@physx@@V?$PxInlineAllocator@$0CAAA@V?$PxReflectionAllocator@UInterval@physx@@@physx@@@2@@physx@@IEAAAEAUInterval@2@AEBU32@@Z 0000000180189ce0 f i GuRTreeCooking.obj
 0001:00188dc0       ?growAndPushBack@?$PxArray@UPxBounds3V@physx@@V?$PxReflectionAllocator@UPxBounds3V@physx@@@2@@physx@@IEAAAEAUPxBounds3V@2@AEBU32@@Z 0000000180189dc0 f i GuRTreeCooking.obj
 0001:00188ea0       ?growAndPushBack@?$PxArray@URTreeNodeNQ@physx@@V?$PxReflectionAllocator@URTreeNodeNQ@physx@@@2@@physx@@IEAAAEAURTreeNodeNQ@2@AEBU32@@Z 0000000180189ea0 f i GuRTreeCooking.obj
 0001:00188f80       ?growAndPushBack@?$PxArray@URTreeNodeQ@Gu@physx@@V?$PxReflectionAllocator@URTreeNodeQ@Gu@physx@@@3@@physx@@IEAAAEAURTreeNodeQ@Gu@2@AEBU342@@Z 0000000180189f80 f i GuRTreeCooking.obj
 0001:00189070       ?recreate@?$PxArray@UPxBounds3V@physx@@V?$PxReflectionAllocator@UPxBounds3V@physx@@@2@@physx@@IEAAXI@Z 000000018018a070 f i GuRTreeCooking.obj
 0001:00189120       ?recreate@?$PxArray@URTreeNodeNQ@physx@@V?$PxReflectionAllocator@URTreeNodeNQ@physx@@@2@@physx@@IEAAXI@Z 000000018018a120 f i GuRTreeCooking.obj
 0001:001891b0       ?recreate@?$PxArray@URTreeNodeQ@Gu@physx@@V?$PxReflectionAllocator@URTreeNodeQ@Gu@physx@@@3@@physx@@IEAAXI@Z 000000018018a1b0 f i GuRTreeCooking.obj
 0001:00189270       ?resizeUninitialized@?$PxArray@URTreeNodeNQ@physx@@V?$PxReflectionAllocator@URTreeNodeNQ@physx@@@2@@physx@@QEAAXI@Z 000000018018a270 f i GuRTreeCooking.obj
 0001:001892b0       ?sort4@SubSortQuick@physx@@QEAAXPEIAIIAEAV?$PxArray@URTreeNodeNQ@physx@@V?$PxReflectionAllocator@URTreeNodeNQ@physx@@@2@@2@AEAIAEAUPxBounds3V@2@I@Z 000000018018a2b0 f i GuRTreeCooking.obj
 0001:00189640       ?sort4@SubSortSAH@physx@@QEAAXPEAIIAEAV?$PxArray@URTreeNodeNQ@physx@@V?$PxReflectionAllocator@URTreeNodeNQ@physx@@@2@@2@AEAIIPEAURTreeNodeNQ@2@@Z 000000018018a640 f i GuRTreeCooking.obj
 0001:00189e80       ?split@SubSortSAH@physx@@QEAAIPEAII@Z 000000018018ae80 f i GuRTreeCooking.obj
 0001:0018a8f0       cookBVH                    000000018018b8f0 f   GuCookingBVH.obj
 0001:0018aa80       createBVH                  000000018018ba80 f   GuCookingBVH.obj
 0001:0018ac10       cookHeightField            000000018018bc10 f   GuCookingHF.obj
 0001:0018ad20       createHeightField          000000018018bd20 f   GuCookingHF.obj
 0001:0018b350       ?isFinite@?$PxVec3T@M@physx@@QEBA_NXZ 000000018018c350 f i GuCookingConvexMesh.obj
 0001:0018b3b0       computeHullPolygons        000000018018c3b0 f   GuCookingConvexMesh.obj
 0001:0018b590       cookConvexMesh             000000018018c590 f   GuCookingConvexMesh.obj
 0001:0018b700       createConvexMesh           000000018018c700 f   GuCookingConvexMesh.obj
 0001:0018b8a0       validateConvexMesh         000000018018c8a0 f   GuCookingConvexMesh.obj
 0001:0018b9c0       ??1BV4TriangleMeshBuilder@physx@@UEAA@XZ 000000018018c9c0 f   GuCookingTriangleMesh.obj
 0001:0018ba50       ??1RTreeTriangleMeshBuilder@physx@@UEAA@XZ 000000018018ca50 f   GuCookingTriangleMesh.obj
 0001:0018bac0       ??_EBV4TriangleMeshBuilder@physx@@UEAAPEAXI@Z 000000018018cac0 f i GuCookingTriangleMesh.obj
 0001:0018bac0       ??_GBV4TriangleMeshBuilder@physx@@UEAAPEAXI@Z 000000018018cac0 f i GuCookingTriangleMesh.obj
 0001:0018bb00       ??_ERTreeTriangleMeshBuilder@physx@@UEAAPEAXI@Z 000000018018cb00 f i GuCookingTriangleMesh.obj
 0001:0018bb00       ??_GRTreeTriangleMeshBuilder@physx@@UEAAPEAXI@Z 000000018018cb00 f i GuCookingTriangleMesh.obj
 0001:0018bb40       ??_ETriangleMeshBuilder@physx@@UEAAPEAXI@Z 000000018018cb40 f i GuCookingTriangleMesh.obj
 0001:0018bb40       ??_GTriangleMeshBuilder@physx@@UEAAPEAXI@Z 000000018018cb40 f i GuCookingTriangleMesh.obj
 0001:0018c4f0       ?buildInertiaTensor@TriangleMeshBuilder@physx@@IEAAX_N@Z 000000018018d4f0 f   GuCookingTriangleMesh.obj
 0001:0018c650       ?buildInertiaTensorFromSDF@TriangleMeshBuilder@physx@@IEAAXXZ 000000018018d650 f   GuCookingTriangleMesh.obj
 0001:0018c890       ?cleanMesh@TriangleMeshBuilder@physx@@QEAA_N_NPEAW4Enum@PxTriangleMeshCookingResult@2@@Z 000000018018d890 f   GuCookingTriangleMesh.obj
 0001:0018cd30       ?createGRBMidPhaseAndData@TriangleMeshBuilder@physx@@QEAAXI@Z 000000018018dd30 f   GuCookingTriangleMesh.obj
 0001:0018cee0       ?createMidPhaseStructure@BV32TriangleMeshBuilder@physx@@SAXAEBUPxCookingParams@2@AEAVTriangleMeshData@Gu@2@AEAVBV32Tree@52@@Z 000000018018dee0 f   GuCookingTriangleMesh.obj
 0001:0018d120       ?createMidPhaseStructure@BV4TriangleMeshBuilder@physx@@UEAAXXZ 000000018018e120 f   GuCookingTriangleMesh.obj
 0001:0018d3e0       ?createMidPhaseStructure@RTreeTriangleMeshBuilder@physx@@UEAAXXZ 000000018018e3e0 f   GuCookingTriangleMesh.obj
 0001:0018d4d0       ?createSharedEdgeData@TriangleMeshBuilder@physx@@QEAAX_N0@Z 000000018018e4d0 f   GuCookingTriangleMesh.obj
 0001:0018db80       ?createVertMapping@TriangleMeshBuilder@physx@@QEAAXXZ 000000018018eb80 f   GuCookingTriangleMesh.obj
 0001:0018dee0       ?importMesh@TriangleMeshBuilder@physx@@IEAA_NAEBVPxTriangleMeshDesc@2@AEBUPxCookingParams@2@PEAW4Enum@PxTriangleMeshCookingResult@2@_N@Z 000000018018eee0 f   GuCookingTriangleMesh.obj
 0001:0018e3d0       ?isValid@PxTriangleMeshDesc@physx@@QEBA_NXZ 000000018018f3d0 f i GuCookingTriangleMesh.obj
 0001:0018e4a0       ?loadFromDescInternal@TriangleMeshBuilder@physx@@IEAA_NAEAVPxTriangleMeshDesc@2@PEAW4Enum@PxTriangleMeshCookingResult@2@_N@Z 000000018018f4a0 f   GuCookingTriangleMesh.obj
 0001:0018e6c0       ?onMeshIndexFormatChange@BV4TriangleMeshBuilder@physx@@UEAAXXZ 000000018018f6c0 f   GuCookingTriangleMesh.obj
 0001:0018e700       ?remap@RTreeCookerRemap@@UEAAXPEAIII@Z 000000018018f700 f i GuCookingTriangleMesh.obj
 0001:0018e720       ?remapTopology@TriangleMeshBuilder@physx@@QEAAXPEBI@Z 000000018018f720 f   GuCookingTriangleMesh.obj
 0001:0018e9c0       ?save@TriangleMeshBuilder@physx@@QEBA_NAEAVPxOutputStream@2@_NAEBUPxCookingParams@2@@Z 000000018018f9c0 f   GuCookingTriangleMesh.obj
 0001:0018f170       ?saveMidPhaseStructure@BV32TriangleMeshBuilder@physx@@SAXPEAVBV32Tree@Gu@2@AEAVPxOutputStream@2@_N@Z 0000000180190170 f   GuCookingTriangleMesh.obj
 0001:0018f370       ?saveMidPhaseStructure@BV4TriangleMeshBuilder@physx@@UEBAXAEAVPxOutputStream@2@_N@Z 0000000180190370 f   GuCookingTriangleMesh.obj
 0001:0018f520       ?saveMidPhaseStructure@RTreeTriangleMeshBuilder@physx@@UEBAXAEAVPxOutputStream@2@_N@Z 0000000180190520 f   GuCookingTriangleMesh.obj
 0001:0018f760       cookTriangleMesh           0000000180190760 f   GuCookingTriangleMesh.obj
 0001:0018fa70       createTriangleMesh         0000000180190a70 f   GuCookingTriangleMesh.obj
 0001:0018fc90       validateTriangleMesh       0000000180190c90 f   GuCookingTriangleMesh.obj
 0001:0018ff50       ??0SoftBodyCollisionData@Gu@physx@@QEAA@XZ 0000000180190f50 f i GuCookingTetrahedronMesh.obj
 0001:0018ffb0       ??_ECollisionTetrahedronMeshData@Gu@physx@@UEAAPEAXI@Z 0000000180190fb0 f i GuCookingTetrahedronMesh.obj
 0001:0018ffb0       ??_GCollisionTetrahedronMeshData@Gu@physx@@UEAAPEAXI@Z 0000000180190fb0 f i GuCookingTetrahedronMesh.obj
 0001:00190080       ??_EPxCollisionTetrahedronMeshData@physx@@UEAAPEAXI@Z 0000000180191080 f i GuCookingTetrahedronMesh.obj
 0001:00190080       ??_GPxCollisionTetrahedronMeshData@physx@@UEAAPEAXI@Z 0000000180191080 f i GuCookingTetrahedronMesh.obj
 0001:001900d0       ??_EPxSimulationTetrahedronMeshData@physx@@UEAAPEAXI@Z 00000001801910d0 f i GuCookingTetrahedronMesh.obj
 0001:001900d0       ??_GPxSimulationTetrahedronMeshData@physx@@UEAAPEAXI@Z 00000001801910d0 f i GuCookingTetrahedronMesh.obj
 0001:00190120       ??_ESimulationTetrahedronMeshData@Gu@physx@@UEAAPEAXI@Z 0000000180191120 f i GuCookingTetrahedronMesh.obj
 0001:00190120       ??_GSimulationTetrahedronMeshData@Gu@physx@@UEAAPEAXI@Z 0000000180191120 f i GuCookingTetrahedronMesh.obj
 0001:001901f0       ?combineGridModelPartitions@@YAXAEBVTetrahedronMeshData@Gu@physx@@AEAVSoftBodySimulationData@23@PEAPEAI@Z 00000001801911f0 f   GuCookingTetrahedronMesh.obj
 0001:00190a40       ?combineGridModelPartitionsHexMesh@@YAXAEBVTetrahedronMeshData@Gu@physx@@AEAVSoftBodySimulationData@23@PEAPEAI@Z 0000000180191a40 f   GuCookingTetrahedronMesh.obj
 0001:00191380       ?computeCollisionData@TetrahedronMeshBuilder@physx@@SA_NAEBVPxTetrahedronMeshDesc@2@AEAVTetrahedronMeshData@Gu@2@AEAVSoftBodyCollisionData@52@AEBUPxCookingParams@2@_N@Z 0000000180192380 f   GuCookingTetrahedronMesh.obj
 0001:001915b0       ?computeGridModelTetrahedronPartitions@@YAPEAIAEBVTetrahedronMeshData@Gu@physx@@AEAVSoftBodySimulationData@23@@Z 00000001801925b0 f   GuCookingTetrahedronMesh.obj
 0001:00191a50       ?computeModelsMapping@TetrahedronMeshBuilder@physx@@SAXAEAVTetrahedronMeshData@Gu@2@AEBV342@AEBVSoftBodyCollisionData@42@AEAVCollisionMeshMappingData@42@_NPEBUPxBoundedData@2@@Z 0000000180192a50 f   GuCookingTetrahedronMesh.obj
 0001:00192660       ?computeRestPoseAndPointMass@@YAXPEAU?$TetrahedronT@I@Gu@physx@@IPEBV?$PxVec3T@M@3@PEAMPEAV?$PxMat33T@M@3@@Z 0000000180193660 f   GuCookingTetrahedronMesh.obj
 0001:00192bb0       ?computeSimData@TetrahedronMeshBuilder@physx@@SAXAEBVPxTetrahedronMeshDesc@2@AEAVTetrahedronMeshData@Gu@2@AEAVSoftBodySimulationData@52@AEBUPxCookingParams@2@@Z 0000000180193bb0 f   GuCookingTetrahedronMesh.obj
 0001:00193280       ?computeTetData@TetrahedronMeshBuilder@physx@@SAXAEBVPxTetrahedronMeshDesc@2@AEAVTetrahedronMeshData@Gu@2@@Z 0000000180194280 f   GuCookingTetrahedronMesh.obj
 0001:00193370       ?computeTetrahedronPartition@@YAIPEBU?$TetrahedronT@I@Gu@physx@@IPEAII@Z 0000000180194370 f   GuCookingTetrahedronMesh.obj
 0001:00193460       ?createCollisionModelMapping@TetrahedronMeshBuilder@physx@@SAXAEBVTetrahedronMeshData@Gu@2@AEBVSoftBodyCollisionData@42@AEAVCollisionMeshMappingData@42@@Z 0000000180194460 f   GuCookingTetrahedronMesh.obj
 0001:00193a40       ?createGRBMidPhaseAndData@TetrahedronMeshBuilder@physx@@SAXIAEAVTetrahedronMeshData@Gu@2@AEAVSoftBodyCollisionData@42@AEBUPxCookingParams@2@@Z 0000000180194a40 f   GuCookingTetrahedronMesh.obj
 0001:00194770       ?createMidPhaseStructure@BV32TetrahedronMeshBuilder@physx@@SAXAEBUPxCookingParams@2@AEAVTetrahedronMeshData@Gu@2@AEAVBV32Tree@52@AEAVSoftBodyCollisionData@52@@Z 0000000180195770 f   GuCookingTetrahedronMesh.obj
 0001:00194a40       ?createMidPhaseStructure@TetrahedronMeshBuilder@physx@@SAXAEAVTetrahedronMeshData@Gu@2@AEAVSoftBodyCollisionData@42@AEBUPxCookingParams@2@@Z 0000000180195a40 f   GuCookingTetrahedronMesh.obj
 0001:00195710       ?getData@CollisionTetrahedronMeshData@Gu@physx@@UEAAPEAVPxSoftBodyCollisionData@3@XZ 0000000180196710 f i GuCookingTetrahedronMesh.obj
 0001:00195710       ?getData@CollisionTetrahedronMeshData@Gu@physx@@UEBAPEBVPxSoftBodyCollisionData@3@XZ 0000000180196710 f i GuCookingTetrahedronMesh.obj
 0001:00195710       ?getData@SimulationTetrahedronMeshData@Gu@physx@@UEAAPEAVPxSoftBodySimulationData@3@XZ 0000000180196710 f i GuCookingTetrahedronMesh.obj
 0001:00195730       ?importMesh@TetrahedronMeshBuilder@physx@@SA_NAEBVPxTetrahedronMeshDesc@2@AEBUPxCookingParams@2@AEAVTetrahedronMeshData@Gu@2@AEAVSoftBodyCollisionData@62@_N@Z 0000000180196730 f   GuCookingTetrahedronMesh.obj
 0001:00195a30       ?isValid@PxTetrahedronMeshDesc@physx@@QEBA_NXZ 0000000180196a30 f i GuCookingTetrahedronMesh.obj
 0001:00195aa0       ?loadFromDesc@TetrahedronMeshBuilder@physx@@SA_NAEBVPxTetrahedronMeshDesc@2@0VPxSoftBodySimulationDataDesc@2@AEAVTetrahedronMeshData@Gu@2@AEAVSoftBodySimulationData@62@2AEAVSoftBodyCollisionData@62@AEAVCollisionMeshMappingData@62@AEBUPxCookingParams@2@_N@Z 0000000180196aa0 f   GuCookingTetrahedronMesh.obj
 0001:00195c10       ?release@CollisionTetrahedronMeshData@Gu@physx@@UEAAXXZ 0000000180196c10 f i GuCookingTetrahedronMesh.obj
 0001:00195c30       ?reserveInternal@?$PxHashBase@V?$PxPair@$$CBVSortedTriangleInds@@I@physx@@VSortedTriangleInds@@USortedTriangleIndsHash@@UGetKey@?$PxHashMapBase@VSortedTriangleInds@@IUSortedTriangleIndsHash@@VPxAllocator@physx@@@2@VPxAllocator@2@$00@physx@@AEAAXI@Z 0000000180196c30 f i GuCookingTetrahedronMesh.obj
 0001:00195e70       ?saveSoftBodyMeshData@TetrahedronMeshBuilder@physx@@SA_NAEAVPxOutputStream@2@_NAEBUPxCookingParams@2@AEBVTetrahedronMeshData@Gu@2@AEBVSoftBodySimulationData@62@3AEBVSoftBodyCollisionData@62@AEBVCollisionMeshMappingData@62@@Z 0000000180196e70 f   GuCookingTetrahedronMesh.obj
 0001:00196580       ?saveTetrahedronMeshData@TetrahedronMeshBuilder@physx@@SA_NAEAVPxOutputStream@2@_NAEBUPxCookingParams@2@AEBVTetrahedronMeshData@Gu@2@@Z 0000000180197580 f   GuCookingTetrahedronMesh.obj
 0001:00196730       ?smoothMassRatiosWhilePreservingTotalMass@@YAXPEAMIPEBIHMM@Z 0000000180197730 f   GuCookingTetrahedronMesh.obj
 0001:00196bd0       ?support@?$LocalConvex@VTetrahedronV@Gu@physx@@@Gu@physx@@UEBA?AT__m128@@AEBT4@@Z 0000000180197bd0 f i GuCookingTetrahedronMesh.obj
 0001:00196c90       ?support@?$LocalConvex@VTetrahedronV@Gu@physx@@@Gu@physx@@UEBA?AT__m128@@AEBT4@AEAH@Z 0000000180197c90 f i GuCookingTetrahedronMesh.obj
 0001:00196e40       assembleSoftBodyMesh       0000000180197e40 f   GuCookingTetrahedronMesh.obj
 0001:00196ea0       assembleSoftBodyMesh_Sim   0000000180197ea0 f   GuCookingTetrahedronMesh.obj
 0001:00196f50       computeCollisionData       0000000180197f50 f   GuCookingTetrahedronMesh.obj
 0001:00197150       computeModelsMapping       0000000180198150 f   GuCookingTetrahedronMesh.obj
 0001:00197250       computeSimulationData      0000000180198250 f   GuCookingTetrahedronMesh.obj
 0001:00197420       cookSoftBodyMesh           0000000180198420 f   GuCookingTetrahedronMesh.obj
 0001:00197a40       cookTetrahedronMesh        0000000180198a40 f   GuCookingTetrahedronMesh.obj
 0001:00197b30       createSoftBodyMesh         0000000180198b30 f   GuCookingTetrahedronMesh.obj
 0001:001981d0       createTetrahedronMesh      00000001801991d0 f   GuCookingTetrahedronMesh.obj
 0001:00199eb0       ?computeVolumeIntegrals@physx@@YA_NAEBVPxSimpleTriangleMesh@1@MAEAUPxIntegrals@1@@Z 000000018019aeb0 f   GuCookingVolumeIntegration.obj
 0001:00199ef0       ?computeVolumeIntegralsEberly@physx@@YA_NAEBVPxConvexMeshDesc@1@MAEAUPxIntegrals@1@AEBV?$PxVec3T@M@1@_N@Z 000000018019aef0 f   GuCookingVolumeIntegration.obj
 0001:0019a550       ??0QuickHull@local@@QEAA@AEBUPxCookingParams@physx@@AEBVPxConvexMeshDesc@3@@Z 000000018019b550 f   GuCookingQuickHullConvexHullLib.obj
 0001:0019a600       ??0QuickHullConvexHullLib@physx@@QEAA@AEBVPxConvexMeshDesc@1@AEBUPxCookingParams@1@@Z 000000018019b600 f   GuCookingQuickHullConvexHullLib.obj
 0001:0019a6e0       ??1?$MemBlock@UQuickHullFace@local@@$00@local@@QEAA@XZ 000000018019b6e0 f i GuCookingQuickHullConvexHullLib.obj
 0001:0019a6e0       ??1?$MemBlock@UQuickHullHalfEdge@local@@$0A@@local@@QEAA@XZ 000000018019b6e0 f i GuCookingQuickHullConvexHullLib.obj
 0001:0019a7a0       ??1QuickHull@local@@QEAA@XZ 000000018019b7a0 f   GuCookingQuickHullConvexHullLib.obj
 0001:0019a900       ??_GConvexHull@physx@@QEAAPEAXI@Z 000000018019b900 f i GuCookingQuickHullConvexHullLib.obj
 0001:0019a9f0       ??_EConvexHullLib@physx@@UEAAPEAXI@Z 000000018019b9f0 f i GuCookingQuickHullConvexHullLib.obj
 0001:0019a9f0       ??_GConvexHullLib@physx@@UEAAPEAXI@Z 000000018019b9f0 f i GuCookingQuickHullConvexHullLib.obj
 0001:0019aa30       ??_EQuickHullConvexHullLib@physx@@UEAAPEAXI@Z 000000018019ba30 f i GuCookingQuickHullConvexHullLib.obj
 0001:0019aa30       ??_GQuickHullConvexHullLib@physx@@UEAAPEAXI@Z 000000018019ba30 f i GuCookingQuickHullConvexHullLib.obj
 0001:0019ab50       ?addPointToHull@QuickHull@local@@IEAA_NPEBUQuickHullVertex@2@AEAUQuickHullFace@2@AEA_N@Z 000000018019bb50 f   GuCookingQuickHullConvexHullLib.obj
 0001:0019ae20       ?addSimplex@QuickHull@local@@IEAAXPEAUQuickHullVertex@2@_N@Z 000000018019be20 f   GuCookingQuickHullConvexHullLib.obj
 0001:0019b2f0       ?allocate@?$PxArray@PEAUQuickHullFace@local@@V?$PxReflectionAllocator@PEAUQuickHullFace@local@@@physx@@@physx@@IEAAPEAPEAUQuickHullFace@local@@I@Z 000000018019c2f0 f i GuCookingQuickHullConvexHullLib.obj
 0001:0019b380       ?allocate@?$PxArray@PEAUQuickHullHalfEdge@local@@V?$PxReflectionAllocator@PEAUQuickHullHalfEdge@local@@@physx@@@physx@@IEAAPEAPEAUQuickHullHalfEdge@local@@I@Z 000000018019c380 f i GuCookingQuickHullConvexHullLib.obj
 0001:0019b410       ?allocate@?$PxArray@PEAUQuickHullVertex@local@@V?$PxReflectionAllocator@PEAUQuickHullVertex@local@@@physx@@@physx@@IEAAPEAPEAUQuickHullVertex@local@@I@Z 000000018019c410 f i GuCookingQuickHullConvexHullLib.obj
 0001:0019b4a0       ?allocate@?$PxArray@UExpandPoint@local@@V?$PxReflectionAllocator@UExpandPoint@local@@@physx@@@physx@@IEAAPEAUExpandPoint@local@@I@Z 000000018019c4a0 f i GuCookingQuickHullConvexHullLib.obj
 0001:0019b530       ?allocate@?$PxArray@VPxPlane@physx@@V?$PxReflectionAllocator@VPxPlane@physx@@@2@@physx@@IEAAPEAVPxPlane@2@I@Z 000000018019c530 f i GuCookingQuickHullConvexHullLib.obj
 0001:0019b5c0       ?buildHull@QuickHull@local@@QEAA?AW4Enum@QuickHullResult@2@XZ 000000018019c5c0 f   GuCookingQuickHullConvexHullLib.obj
 0001:0019b810       ?calculateHorizon@QuickHull@local@@IEAAXAEBV?$PxVec3T@M@physx@@PEAUQuickHullHalfEdge@2@AEAUQuickHullFace@2@AEAV?$PxArray@PEAUQuickHullHalfEdge@local@@V?$PxReflectionAllocator@PEAUQuickHullHalfEdge@local@@@physx@@@4@AEAV?$PxArray@PEAUQuickHullFace@local@@V?$PxReflectionAllocator@PEAUQuickHullFace@local@@@physx@@@4@@Z 000000018019c810 f   GuCookingQuickHullConvexHullLib.obj
 0001:0019b9c0       ?canMergeFaces@QuickHull@local@@IEAA_NAEBUQuickHullHalfEdge@2@@Z 000000018019c9c0 f   GuCookingQuickHullConvexHullLib.obj
 0001:0019c1f0       ?cleanupForSimplex@QuickHullConvexHullLib@physx@@IEAA_NPEAV?$PxVec3T@M@2@IPEAUQuickHullVertex@local@@1AEAM2@Z 000000018019d1f0 f   GuCookingQuickHullConvexHullLib.obj
 0001:0019ce10       ?computeMinMaxVerts@QuickHull@local@@IEAAXXZ 000000018019de10 f   GuCookingQuickHullConvexHullLib.obj
 0001:0019d1e0       ?connectHalfEdges@QuickHullFace@local@@AEAAPEAU12@PEAUQuickHullHalfEdge@2@0@Z 000000018019e1e0 f   GuCookingQuickHullConvexHullLib.obj
 0001:0019d550       ?copy@?$PxArray@UExpandPoint@local@@V?$PxReflectionAllocator@UExpandPoint@local@@@physx@@@physx@@KAXPEAUExpandPoint@local@@0PEBU34@@Z 000000018019e550 f i GuCookingQuickHullConvexHullLib.obj
 0001:0019d600       ?copy@?$PxArray@VPxPlane@physx@@V?$PxReflectionAllocator@VPxPlane@physx@@@2@@physx@@KAXPEAVPxPlane@2@0PEBV32@@Z 000000018019e600 f i GuCookingQuickHullConvexHullLib.obj
 0001:0019d700       ?createConvexHull@QuickHullConvexHullLib@physx@@UEAA?AW4Enum@PxConvexMeshCookingResult@2@XZ 000000018019e700 f   GuCookingQuickHullConvexHullLib.obj
 0001:0019db10       ?createEdgeList@QuickHullConvexHullLib@physx@@UEAA_NIPEBEPEAPEAEPEAPEAG2@Z 000000018019eb10 f   GuCookingQuickHullConvexHullLib.obj
 0001:0019dd30       ?createTriangle@QuickHull@local@@IEAAPEAUQuickHullFace@2@AEBUQuickHullVertex@2@00@Z 000000018019ed30 f   GuCookingQuickHullConvexHullLib.obj
 0001:0019e120       ?doAdjacentMerge@QuickHull@local@@IEAA_NAEAUQuickHullFace@2@_NAEA_N@Z 000000018019f120 f   GuCookingQuickHullConvexHullLib.obj
 0001:0019e470       ?expandHull@QuickHullConvexHullLib@physx@@IEAA?AW4Enum@PxConvexMeshCookingResult@2@XZ 000000018019f470 f   GuCookingQuickHullConvexHullLib.obj
 0001:0019edb0       ?expandHullOBB@QuickHullConvexHullLib@physx@@IEAA?AW4Enum@PxConvexMeshCookingResult@2@XZ 000000018019fdb0 f   GuCookingQuickHullConvexHullLib.obj
 0001:0019f1f0       ?fillConvexMeshDesc@QuickHullConvexHullLib@physx@@UEAAXAEAVPxConvexMeshDesc@2@@Z 00000001801a01f0 f   GuCookingQuickHullConvexHullLib.obj
 0001:0019f240       ?fillConvexMeshDescFromCroppedHull@QuickHullConvexHullLib@physx@@IEAAXAEAVPxConvexMeshDesc@2@@Z 00000001801a0240 f   GuCookingQuickHullConvexHullLib.obj
 0001:0019f430       ?fillConvexMeshDescFromQuickHull@QuickHullConvexHullLib@physx@@IEAAXAEAVPxConvexMeshDesc@2@@Z 00000001801a0430 f   GuCookingQuickHullConvexHullLib.obj
 0001:0019f7b0       ?findSimplex@QuickHull@local@@IEAA_NXZ 00000001801a07b0 f   GuCookingQuickHullConvexHullLib.obj
 0001:001a0430       ?getFreeItem@?$MemBlock@UQuickHullFace@local@@$00@local@@QEAAPEAUQuickHullFace@2@XZ 00000001801a1430 f i GuCookingQuickHullConvexHullLib.obj
 0001:001a0560       ?getFreeItem@?$MemBlock@UQuickHullHalfEdge@local@@$0A@@local@@QEAAPEAUQuickHullHalfEdge@2@XZ 00000001801a1560 f i GuCookingQuickHullConvexHullLib.obj
 0001:001a0630       ?growAndPushBack@?$PxArray@PEAUQuickHullFace@local@@V?$PxReflectionAllocator@PEAUQuickHullFace@local@@@physx@@@physx@@IEAAAEAPEAUQuickHullFace@local@@AEBQEAU34@@Z 00000001801a1630 f i GuCookingQuickHullConvexHullLib.obj
 0001:001a06f0       ?growAndPushBack@?$PxArray@PEAUQuickHullHalfEdge@local@@V?$PxReflectionAllocator@PEAUQuickHullHalfEdge@local@@@physx@@@physx@@IEAAAEAPEAUQuickHullHalfEdge@local@@AEBQEAU34@@Z 00000001801a16f0 f i GuCookingQuickHullConvexHullLib.obj
 0001:001a07b0       ?growAndPushBack@?$PxArray@PEAUQuickHullVertex@local@@V?$PxReflectionAllocator@PEAUQuickHullVertex@local@@@physx@@@physx@@IEAAAEAPEAUQuickHullVertex@local@@AEBQEAU34@@Z 00000001801a17b0 f i GuCookingQuickHullConvexHullLib.obj
 0001:001a0870       ?growAndPushBack@?$PxArray@UExpandPoint@local@@V?$PxReflectionAllocator@UExpandPoint@local@@@physx@@@physx@@IEAAAEAUExpandPoint@local@@AEBU34@@Z 00000001801a1870 f i GuCookingQuickHullConvexHullLib.obj
 0001:001a0970       ?growAndPushBack@?$PxArray@VPxPlane@physx@@V?$PxReflectionAllocator@VPxPlane@physx@@@2@@physx@@IEAAAEAVPxPlane@2@AEBV32@@Z 00000001801a1970 f i GuCookingQuickHullConvexHullLib.obj
 0001:001a0a30       ?init@?$MemBlock@UQuickHullFace@local@@$00@local@@QEAAXI@Z 00000001801a1a30 f i GuCookingQuickHullConvexHullLib.obj
 0001:001a0b30       ?init@?$MemBlock@UQuickHullHalfEdge@local@@$0A@@local@@QEAAXI@Z 00000001801a1b30 f i GuCookingQuickHullConvexHullLib.obj
 0001:001a0bd0       ?mergeAdjacentFace@QuickHullFace@local@@QEAA_NPEAUQuickHullHalfEdge@2@AEAV?$PxArray@PEAUQuickHullFace@local@@V?$PxReflectionAllocator@PEAUQuickHullFace@local@@@physx@@@physx@@@Z 00000001801a1bd0 f   GuCookingQuickHullConvexHullLib.obj
 0001:001a1030       ?nextPointToAdd@QuickHull@local@@IEAAPEAUQuickHullVertex@2@AEAPEAUQuickHullFace@2@@Z 00000001801a2030 f   GuCookingQuickHullConvexHullLib.obj
 0001:001a11b0       ?parseInputVertices@QuickHull@local@@QEAAXPEBV?$PxVec3T@M@physx@@I@Z 00000001801a21b0 f   GuCookingQuickHullConvexHullLib.obj
 0001:001a1330       ?postMergeHull@QuickHull@local@@IEAAXXZ 00000001801a2330 f   GuCookingQuickHullConvexHullLib.obj
 0001:001a1590       ?preallocate@QuickHull@local@@QEAAXI@Z 00000001801a2590 f   GuCookingQuickHullConvexHullLib.obj
 0001:001a16d0       ?recreate@?$PxArray@PEAUQuickHullFace@local@@V?$PxReflectionAllocator@PEAUQuickHullFace@local@@@physx@@@physx@@IEAAXI@Z 00000001801a26d0 f i GuCookingQuickHullConvexHullLib.obj
 0001:001a1770       ?recreate@?$PxArray@PEAUQuickHullHalfEdge@local@@V?$PxReflectionAllocator@PEAUQuickHullHalfEdge@local@@@physx@@@physx@@IEAAXI@Z 00000001801a2770 f i GuCookingQuickHullConvexHullLib.obj
 0001:001a1810       ?recreate@?$PxArray@PEAUQuickHullVertex@local@@V?$PxReflectionAllocator@PEAUQuickHullVertex@local@@@physx@@@physx@@IEAAXI@Z 00000001801a2810 f i GuCookingQuickHullConvexHullLib.obj
 0001:001a18b0       ?recreate@?$PxArray@UExpandPoint@local@@V?$PxReflectionAllocator@UExpandPoint@local@@@physx@@@physx@@IEAAXI@Z 00000001801a28b0 f i GuCookingQuickHullConvexHullLib.obj
 0001:001a1940       ?recreate@?$PxArray@VPxPlane@physx@@V?$PxReflectionAllocator@VPxPlane@physx@@@2@@physx@@IEAAXI@Z 00000001801a2940 f i GuCookingQuickHullConvexHullLib.obj
 0001:001a19d0       ?resolveUnclaimedPoints@QuickHull@local@@IEAAXAEBV?$PxArray@PEAUQuickHullFace@local@@V?$PxReflectionAllocator@PEAUQuickHullFace@local@@@physx@@@physx@@@Z 00000001801a29d0 f   GuCookingQuickHullConvexHullLib.obj
 0001:001a1c50       ??$copy@V?$PxReflectionAllocator@VPair@@@physx@@@?$PxArray@VPair@@V?$PxReflectionAllocator@VPair@@@physx@@@physx@@IEAAXAEBV01@@Z 00000001801a2c50 f i GuCookingConvexPolygonsBuilder.obj
 0001:001a1cd0       ??0ConvexPolygonsBuilder@physx@@QEAA@PEAUConvexHullData@Gu@1@_N@Z 00000001801a2cd0 f   GuCookingConvexPolygonsBuilder.obj
 0001:001a1cf0       ??1ConvexPolygonsBuilder@physx@@QEAA@XZ 00000001801a2cf0 f   GuCookingConvexPolygonsBuilder.obj
 0001:001a2540       ?allocate@?$PxArray@VPair@@V?$PxReflectionAllocator@VPair@@@physx@@@physx@@IEAAPEAVPair@@I@Z 00000001801a3540 f i GuCookingConvexPolygonsBuilder.obj
 0001:001a3020       ?computeHullPolygons@ConvexPolygonsBuilder@physx@@QEAA_NAEBIPEBV?$PxVec3T@M@2@0PEBI@Z 00000001801a4020 f   GuCookingConvexPolygonsBuilder.obj
 0001:001a42e0       ?createPolygonData@ConvexPolygonsBuilder@physx@@AEAA_NXZ 00000001801a52e0 f   GuCookingConvexPolygonsBuilder.obj
 0001:001a4d40       ?createTrianglesFromPolygons@ConvexPolygonsBuilder@physx@@AEAA_NXZ 00000001801a5d40 f   GuCookingConvexPolygonsBuilder.obj
 0001:001a63c0       ?growAndPushBack@?$PxArray@VPair@@V?$PxReflectionAllocator@VPair@@@physx@@@physx@@IEAAAEAVPair@@AEBV3@@Z 00000001801a73c0 f i GuCookingConvexPolygonsBuilder.obj
 0001:001a6550       ??0ConvexMeshBuilder@physx@@QEAA@_N@Z 00000001801a7550 f   GuCookingConvexMeshBuilder.obj
 0001:001a65c0       ??1ConvexMeshBuilder@physx@@QEAA@XZ 00000001801a75c0 f   GuCookingConvexMeshBuilder.obj
 0001:001a6a50       ?build@ConvexMeshBuilder@physx@@QEAA_NAEBVPxConvexMeshDesc@2@I_NPEAVConvexHullLib@2@@Z 00000001801a7a50 f   GuCookingConvexMeshBuilder.obj
 0001:001a6de0       ?computeHullPolygons@ConvexMeshBuilder@physx@@QEAA_NAEBIPEBV?$PxVec3T@M@2@0PEBIAEAVPxAllocatorCallback@2@AEAIAEAPEAV32@4AEAPEAI4AEAPEAUPxHullPolygon@2@@Z 00000001801a7de0 f   GuCookingConvexMeshBuilder.obj
 0001:001a6ff0       ?computeMassInfo@ConvexMeshBuilder@physx@@QEAAX_N@Z 00000001801a7ff0 f   GuCookingConvexMeshBuilder.obj
 0001:001a7380       ?computeSDF@ConvexMeshBuilder@physx@@QEAAXAEBVPxConvexMeshDesc@2@@Z 00000001801a8380 f   GuCookingConvexMeshBuilder.obj
 0001:001a7790       ?copy@ConvexMeshBuilder@physx@@QEAA_NAEAUConvexHullInitData@Gu@2@@Z 00000001801a8790 f   GuCookingConvexMeshBuilder.obj
 0001:001a78f0       ?loadConvexHull@ConvexMeshBuilder@physx@@QEAA_NAEBVPxConvexMeshDesc@2@PEAVConvexHullLib@2@@Z 00000001801a88f0 f   GuCookingConvexMeshBuilder.obj
 0001:001a7b40       ?save@ConvexMeshBuilder@physx@@QEBA_NAEAVPxOutputStream@2@_N@Z 00000001801a8b40 f   GuCookingConvexMeshBuilder.obj
 0001:001a7f60       ??0ConvexHull@physx@@QEAA@AEBV?$PxVec3T@M@1@AEBV?$PxTransformT@M@1@AEBV?$PxArray@VPxPlane@physx@@V?$PxReflectionAllocator@VPxPlane@physx@@@2@@1@@Z 00000001801a8f60 f   GuCookingConvexHullUtils.obj
 0001:001a9080       ?allocate@?$PxArray@VHalfEdge@ConvexHull@physx@@V?$PxReflectionAllocator@VHalfEdge@ConvexHull@physx@@@3@@physx@@IEAAPEAVHalfEdge@ConvexHull@2@I@Z 00000001801aa080 f i GuCookingConvexHullUtils.obj
 0001:001a9110       ?assertIntact@ConvexHull@physx@@QEBA_NM@Z 00000001801aa110 f   GuCookingConvexHullUtils.obj
 0001:001a9430       ?computeOBBFromConvex@physx@@YA_NAEBVPxConvexMeshDesc@1@AEAV?$PxVec3T@M@1@AEAV?$PxTransformT@M@1@@Z 00000001801aa430 f   GuCookingConvexHullUtils.obj
 0001:001a9a90       ?computeOBBSIMD@local@@YAXIPEBT__m128@@AEAT2@AEBT2@1@Z 00000001801aaa90 f   GuCookingConvexHullUtils.obj
 0001:001a9e40       ?convexHullCrop@physx@@YAPEAVConvexHull@1@AEBV21@AEBVPxPlane@1@M@Z 00000001801aae40 f   GuCookingConvexHullUtils.obj
 0001:001aac40       ?findCandidatePlane@ConvexHull@physx@@QEBAHMM@Z 00000001801abc40 f   GuCookingConvexHullUtils.obj
 0001:001ab090       ?growAndPushBack@?$PxArray@VHalfEdge@ConvexHull@physx@@V?$PxReflectionAllocator@VHalfEdge@ConvexHull@physx@@@3@@physx@@IEAAAEAVHalfEdge@ConvexHull@2@AEBV342@@Z 00000001801ac090 f i GuCookingConvexHullUtils.obj
 0001:001ab150       ?maxNumVertsPerFace@ConvexHull@physx@@QEBAIXZ 00000001801ac150 f   GuCookingConvexHullUtils.obj
 0001:001ab1c0       ?recreate@?$PxArray@VHalfEdge@ConvexHull@physx@@V?$PxReflectionAllocator@VHalfEdge@ConvexHull@physx@@@3@@physx@@IEAAXI@Z 00000001801ac1c0 f i GuCookingConvexHullUtils.obj
 0001:001ab260       ?resize@?$PxArray@VHalfEdge@ConvexHull@physx@@V?$PxReflectionAllocator@VHalfEdge@ConvexHull@physx@@@3@@physx@@QEAAXIAEBVHalfEdge@ConvexHull@2@@Z 00000001801ac260 f i GuCookingConvexHullUtils.obj
 0001:001ab320       ?resize@?$PxArray@VPxPlane@physx@@V?$PxReflectionAllocator@VPxPlane@physx@@@2@@physx@@QEAAXIAEBVPxPlane@2@@Z 00000001801ac320 f i GuCookingConvexHullUtils.obj
 0001:001ab440       ??1ConvexHullLib@physx@@UEAA@XZ 00000001801ac440 f   GuCookingConvexHullLib.obj
 0001:001aba30       ?cleanupVertices@ConvexHullLib@physx@@IEAA_NIPEBV?$PxVec3T@M@2@IAEAIPEAV32@@Z 00000001801aca30 f   GuCookingConvexHullLib.obj
 0001:001abb70       ?shiftAndcleanupVertices@ConvexHullLib@physx@@IEAA_NIPEBV?$PxVec3T@M@2@IAEAIPEAV32@@Z 00000001801acb70 f   GuCookingConvexHullLib.obj
 0001:001ac150       ?shiftConvexMeshDesc@ConvexHullLib@physx@@IEAAXAEAVPxConvexMeshDesc@2@@Z 00000001801ad150 f   GuCookingConvexHullLib.obj
 0001:001ac210       ?swapLargestFace@ConvexHullLib@physx@@IEAAXAEAVPxConvexMeshDesc@2@@Z 00000001801ad210 f   GuCookingConvexHullLib.obj
 0001:001ac440       ??0ConvexHullBuilder@physx@@QEAA@PEAUConvexHullData@Gu@1@_N@Z 00000001801ad440 f   GuCookingConvexHullBuilder.obj
 0001:001ac470       ??1ConvexHullBuilder@physx@@QEAA@XZ 00000001801ad470 f   GuCookingConvexHullBuilder.obj
 0001:001ac580       ?calculateVertexMapTable@ConvexHullBuilder@physx@@QEAA_NI_N@Z 00000001801ad580 f   GuCookingConvexHullBuilder.obj
 0001:001ac740       ?checkHullPolygons@ConvexHullBuilder@physx@@QEBA_NXZ 00000001801ad740 f   GuCookingConvexHullBuilder.obj
 0001:001acd00       ?copy@ConvexHullBuilder@physx@@QEAA_NAEAUConvexHullData@Gu@2@AEAI@Z 00000001801add00 f   GuCookingConvexHullBuilder.obj
 0001:001acf70       ?createEdgeList@ConvexHullBuilder@physx@@QEAA_N_NI@Z 00000001801adf70 f   GuCookingConvexHullBuilder.obj
 0001:001ad6b0       ?init@ConvexHullBuilder@physx@@QEAA_NIPEBV?$PxVec3T@M@2@PEBIIIPEBUPxHullPolygon@2@_NPEAVConvexHullLib@2@@Z 00000001801ae6b0 f   GuCookingConvexHullBuilder.obj
 0001:001adff0       ?save@ConvexHullBuilder@physx@@QEBA_NAEAVPxOutputStream@2@_N@Z 00000001801aeff0 f   GuCookingConvexHullBuilder.obj
 0001:001ae310       ??0BigConvexDataBuilder@physx@@QEAA@PEBUConvexHullData@Gu@1@PEAVBigConvexData@1@PEBV?$PxVec3T@M@1@@Z 00000001801af310 f   GuCookingBigConvexDataBuilder.obj
 0001:001ae320       ?computeValencies@BigConvexDataBuilder@physx@@QEAA_NAEBVConvexHullBuilder@2@@Z 00000001801af320 f   GuCookingBigConvexDataBuilder.obj
 0001:001ae710       ?precompute@BigConvexDataBuilder@physx@@QEAA_NI@Z 00000001801af710 f   GuCookingBigConvexDataBuilder.obj
 0001:001af300       ?save@BigConvexDataBuilder@physx@@QEBA_NAEAVPxOutputStream@2@_N@Z 00000001801b0300 f   GuCookingBigConvexDataBuilder.obj
 0001:001af4ee       __imp_load_PxGetFoundation 00000001801b04ee f   PhysXFoundation_64:PhysXFoundation_64.dll
 0001:001af4fa       __tailMerge_physxfoundation_64_dll 00000001801b04fa     PhysXFoundation_64:PhysXFoundation_64.dll
 0001:001af573       __imp_load_PxGetBroadcastAllocator 00000001801b0573 f   PhysXFoundation_64:PhysXFoundation_64.dll
 0001:001af57f       __imp_load_?PxAtomicIncrement@physx@@YAHPECH@Z 00000001801b057f f   PhysXFoundation_64:PhysXFoundation_64.dll
 0001:001af58b       __imp_load_??0PxMutexImpl@physx@@QEAA@XZ 00000001801b058b f   PhysXFoundation_64:PhysXFoundation_64.dll
 0001:001af597       __imp_load_??1PxMutexImpl@physx@@QEAA@XZ 00000001801b0597 f   PhysXFoundation_64:PhysXFoundation_64.dll
 0001:001af5a3       __imp_load_?lock@PxMutexImpl@physx@@QEAAXXZ 00000001801b05a3 f   PhysXFoundation_64:PhysXFoundation_64.dll
 0001:001af5af       __imp_load_?unlock@PxMutexImpl@physx@@QEAAXXZ 00000001801b05af f   PhysXFoundation_64:PhysXFoundation_64.dll
 0001:001af5bb       __imp_load_?getSize@PxMutexImpl@physx@@SAIXZ 00000001801b05bb f   PhysXFoundation_64:PhysXFoundation_64.dll
 0001:001af5c7       __imp_load_?PxAtomicDecrement@physx@@YAHPECH@Z 00000001801b05c7 f   PhysXFoundation_64:PhysXFoundation_64.dll
 0001:001af5d3       __imp_load_?PxTransformFromSegment@physx@@YA?AV?$PxTransformT@M@1@AEBV?$PxVec3T@M@1@0PEAM@Z 00000001801b05d3 f   PhysXFoundation_64:PhysXFoundation_64.dll
 0001:001af5df       __imp_load_?PxAtomicAdd@physx@@YAHPECHH@Z 00000001801b05df f   PhysXFoundation_64:PhysXFoundation_64.dll
 0001:001af5eb       __imp_load_?getDefaultStackSize@PxThreadImpl@physx@@SAIXZ 00000001801b05eb f   PhysXFoundation_64:PhysXFoundation_64.dll
 0001:001af5f7       __imp_load_??0PxThreadImpl@physx@@QEAA@P6APEAXPEAX@Z0PEBD@Z 00000001801b05f7 f   PhysXFoundation_64:PhysXFoundation_64.dll
 0001:001af603       __imp_load_??1PxThreadImpl@physx@@QEAA@XZ 00000001801b0603 f   PhysXFoundation_64:PhysXFoundation_64.dll
 0001:001af60f       __imp_load_?start@PxThreadImpl@physx@@QEAAXIPEAVPxRunnable@2@@Z 00000001801b060f f   PhysXFoundation_64:PhysXFoundation_64.dll
 0001:001af61b       __imp_load_?waitForQuit@PxThreadImpl@physx@@QEAA_NXZ 00000001801b061b f   PhysXFoundation_64:PhysXFoundation_64.dll
 0001:001af627       __imp_load_?getSize@PxThreadImpl@physx@@SAIXZ 00000001801b0627 f   PhysXFoundation_64:PhysXFoundation_64.dll
 0001:001af633       __imp_load_?allocate@PxTempAllocator@physx@@QEAAPEAX_KPEBDH@Z 00000001801b0633 f   PhysXFoundation_64:PhysXFoundation_64.dll
 0001:001af63f       __imp_load_?deallocate@PxTempAllocator@physx@@QEAAXPEAX@Z 00000001801b063f f   PhysXFoundation_64:PhysXFoundation_64.dll
 0001:001af64b       __imp_load_?PxOptimizeBoundingBox@physx@@YA?AV?$PxVec3T@M@1@AEAV?$PxMat33T@M@1@@Z 00000001801b064b f   PhysXFoundation_64:PhysXFoundation_64.dll
 0001:001af657       __imp_load_PxGetProfilerCallback 00000001801b0657 f   PhysXFoundation_64:PhysXFoundation_64.dll
 0001:001af663       __imp_load_??0PxFPUGuard@physx@@QEAA@XZ 00000001801b0663 f   PhysXFoundation_64:PhysXFoundation_64.dll
 0001:001af66f       __imp_load_??1PxFPUGuard@physx@@QEAA@XZ 00000001801b066f f   PhysXFoundation_64:PhysXFoundation_64.dll
 0001:001af67b       __imp_load_?PxDiagonalize@physx@@YA?AV?$PxVec3T@M@1@AEBV?$PxMat33T@M@1@AEAV?$PxQuatT@M@1@@Z 00000001801b067b f   PhysXFoundation_64:PhysXFoundation_64.dll
 0001:001af688       ?DloadAcquireSectionWriteAccess@@YAXXZ 00000001801b0688 f i Delayimp:delayhlp.obj
 0001:001af734       ?DloadGetSRWLockFunctionPointers@@YAEXZ 00000001801b0734 f i Delayimp:delayhlp.obj
 0001:001af7d4       ?DloadMakePermanentImageCommit@@YAXPEAX_K@Z 00000001801b07d4 f i Delayimp:delayhlp.obj
 0001:001af86c       ?DloadObtainSection@@YAPEAXPEAK0@Z 00000001801b086c f i Delayimp:delayhlp.obj
 0001:001af908       ?DloadProtectSection@@YAXKPEAK@Z 00000001801b0908 f i Delayimp:delayhlp.obj
 0001:001af998       ?DloadReleaseSectionWriteAccess@@YAXXZ 00000001801b0998 f i Delayimp:delayhlp.obj
 0001:001afa2c       __delayLoadHelper2         00000001801b0a2c f   Delayimp:delayhlp.obj
 0001:001afd04       ??3@YAXPEAX_K@Z            00000001801b0d04 f   LIBCMT:delete_scalar_size.obj
 0001:001afd04       ??_V@YAXPEAX@Z             00000001801b0d04 f   LIBCMT:delete_array.obj
 0001:001afd0c       ??_Etype_info@@UEAAPEAXI@Z 00000001801b0d0c f i LIBCMT:std_type_info_static.obj
 0001:001afd0c       ??_Gtype_info@@UEAAPEAXI@Z 00000001801b0d0c f i LIBCMT:std_type_info_static.obj
 0001:001afd38       ?__scrt_initialize_type_info@@YAXXZ 00000001801b0d38 f   LIBCMT:tncleanup.obj
 0001:001afd48       ?__scrt_uninitialize_type_info@@YAXXZ 00000001801b0d48 f   LIBCMT:tncleanup.obj
 0001:001afd70       __chkstk                   00000001801b0d70 f   LIBCMT:chkstk.obj
 0001:001afd70       _alloca_probe              00000001801b0d70 f   LIBCMT:chkstk.obj
 0001:001afdc0       __vdecl_sinf4              00000001801b0dc0 f   LIBCMT:svml_ssinf4_dispatch.obj
 0001:001afde0       __libm_sse2_sincosf_       00000001801b0de0 f   LIBCMT:svml_ssinf4_dispatch.obj
 0001:001afe23       __libm_sse2_sincosf4_      00000001801b0e23 f   LIBCMT:svml_ssinf4_dispatch.obj
 0001:001afe30       ??3@YAXPEAX@Z              00000001801b0e30 f   LIBCMT:delete_scalar.obj
 0001:001afe38       __scrt_acquire_startup_lock 00000001801b0e38 f   LIBCMT:utility.obj
 0001:001afe74       __scrt_dllmain_after_initialize_c 00000001801b0e74 f   LIBCMT:utility.obj
 0001:001afea8       __scrt_dllmain_before_initialize_c 00000001801b0ea8 f   LIBCMT:utility.obj
 0001:001afec0       __scrt_dllmain_crt_thread_attach 00000001801b0ec0 f   LIBCMT:utility.obj
 0001:001afee8       __scrt_dllmain_crt_thread_detach 00000001801b0ee8 f   LIBCMT:utility.obj
 0001:001aff00       __scrt_dllmain_exception_filter 00000001801b0f00 f   LIBCMT:utility.obj
 0001:001aff60       __scrt_dllmain_uninitialize_c 00000001801b0f60 f   LIBCMT:utility.obj
 0001:001aff90       __scrt_dllmain_uninitialize_critical 00000001801b0f90 f   LIBCMT:utility.obj
 0001:001affa4       __scrt_initialize_crt      00000001801b0fa4 f   LIBCMT:utility.obj
 0001:001afff0       __scrt_initialize_onexit_tables 00000001801b0ff0 f   LIBCMT:utility.obj
 0001:001b007c       __scrt_is_nonwritable_in_current_image 00000001801b107c f   LIBCMT:utility.obj
 0001:001b0114       __scrt_release_startup_lock 00000001801b1114 f   LIBCMT:utility.obj
 0001:001b0138       __scrt_uninitialize_crt    00000001801b1138 f   LIBCMT:utility.obj
 0001:001b0164       _onexit                    00000001801b1164 f   LIBCMT:utility.obj
 0001:001b01a0       atexit                     00000001801b11a0 f   LIBCMT:utility.obj
 0001:001b01b8       __isa_available_init       00000001801b11b8 f   LIBCMT:cpu_disp.obj
 0001:001b0684       _DllMainCRTStartup         00000001801b1684 f   LIBCMT:dll_dllmain.obj
 0001:001b06d0       __sse2_sinf4@@16           00000001801b16d0 f   LIBCMT:svml_ssinf4_sse2.obj
 0001:001b1010       __sse4_sinf4@@16           00000001801b2010 f   LIBCMT:svml_ssinf4_sse4.obj
 0001:001b1784       __scrt_is_ucrt_dll_in_use  00000001801b2784 f   LIBCMT:ucrt_detection.obj
 0001:001b1790       __crt_debugger_hook        00000001801b2790 f   LIBCMT:utility_desktop.obj
 0001:001b1798       __scrt_fastfail            00000001801b2798 f   LIBCMT:utility_desktop.obj
 0001:001b18e4       __security_init_cookie     00000001801b28e4 f   LIBCMT:gs_support.obj
 0001:001b1990       __local_stdio_scanf_options 00000001801b2990 f i LIBCMT:default_local_stdio_options.obj
 0001:001b1998       __scrt_initialize_default_local_stdio_options 00000001801b2998 f   LIBCMT:default_local_stdio_options.obj
 0001:001b19b4       __scrt_get_dyn_tls_init_callback 00000001801b29b4 f   LIBCMT:dyn_tls_init.obj
 0001:001b19bc       _RTC_Initialize            00000001801b29bc f   LIBCMT:initsect.obj
 0001:001b19f8       _RTC_Terminate             00000001801b29f8 f   LIBCMT:initsect.obj
 0001:001b1a40       __common_ssin_cout_rare    00000001801b2a40 f   LIBCMT:svml_s_sin_cout.obj
 0001:001b1ac0       memcpy_repmovs             00000001801b2ac0 f   libvcruntime:memcpy.obj
 0001:001b1ae0       memcpy                     00000001801b2ae0 f   libvcruntime:memcpy.obj
 0001:001b1ae0       memmove                    00000001801b2ae0 f   libvcruntime:memcpy.obj
 0001:001b2158       _get_purecall_handler      00000001801b3158 f   libvcruntime:purevirt.obj
 0001:001b2164       _purecall                  00000001801b3164 f   libvcruntime:purevirt.obj
 0001:001b2188       __std_type_info_compare    00000001801b3188 f   libvcruntime:std_type_info.obj
 0001:001b21b0       __std_type_info_destroy_list 00000001801b31b0 f   libvcruntime:std_type_info.obj
 0001:001b21dc       __std_type_info_name       00000001801b31dc f   libvcruntime:std_type_info.obj
 0001:001b2310       memset_repstos             00000001801b3310 f   libvcruntime:memset.obj
 0001:001b2330       memset                     00000001801b3330 f   libvcruntime:memset.obj
 0001:001b26b8       strstr                     00000001801b36b8 f   libvcruntime:strstr.obj
 0001:001b28b0       __vcrt_initialize          00000001801b38b0 f   libvcruntime:initialization.obj
 0001:001b28d8       __vcrt_thread_attach       00000001801b38d8 f   libvcruntime:initialization.obj
 0001:001b28ec       __vcrt_thread_detach       00000001801b38ec f   libvcruntime:initialization.obj
 0001:001b2900       __vcrt_uninitialize        00000001801b3900 f   libvcruntime:initialization.obj
 0001:001b291c       __vcrt_uninitialize_critical 00000001801b391c f   libvcruntime:initialization.obj
 0001:001b292c       __C_specific_handler       00000001801b392c f   libvcruntime:riscchandler.obj
 0001:001b2b24       __DestructExceptionObject  00000001801b3b24 f   libvcruntime:ehhelpers.obj
 0001:001b2b94       ?_CallMemberFunction0@@YAXQEAX0@Z 00000001801b3b94 f i libvcruntime:ehhelpers.obj
 0001:001b2b98       _IsExceptionObjectToBeDestroyed 00000001801b3b98 f   libvcruntime:ehhelpers.obj
 0001:001b2bc8       __AdjustPointer            00000001801b3bc8 f   libvcruntime:ehhelpers.obj
 0001:001b2bec       __FrameUnwindFilter        00000001801b3bec f   libvcruntime:ehhelpers.obj
 0001:001b2c54       __std_terminate            00000001801b3c54 f   libvcruntime:ehhelpers.obj
 0001:001b2c60       ??$?0$00@DName@@QEAA@PEBDU?$StringLifeSelector@$00@@@Z 00000001801b3c60 f i libvcruntime:undname.obj
 0001:001b2ca0       ??$?0$01@DName@@QEAA@PEBDU?$StringLifeSelector@$01@@@Z 00000001801b3ca0 f i libvcruntime:undname.obj
 0001:001b2ca0       ??$?0$0A@@DName@@QEAA@PEBDU?$StringLifeSelector@$0A@@@@Z 00000001801b3ca0 f i libvcruntime:undname.obj
 0001:001b2ce0       ??$?0$01@pcharNode@@QEAA@PEBDHU?$StringLifeSelector@$01@@@Z 00000001801b3ce0 f i libvcruntime:undname.obj
 0001:001b2ce0       ??$?0$0A@@pcharNode@@QEAA@PEBDHU?$StringLifeSelector@$0A@@@@Z 00000001801b3ce0 f i libvcruntime:undname.obj
 0001:001b2d54       ??$append@VDNameNode@@@DName@@AEAAXPEBVDNameNode@@@Z 00000001801b3d54 f i libvcruntime:undname.obj
 0001:001b2d54       ??$append@VDNameStatusNode@@@DName@@AEAAXPEBVDNameStatusNode@@@Z 00000001801b3d54 f i libvcruntime:undname.obj
 0001:001b2d54       ??$append@VcharNode@@@DName@@AEAAXPEBVcharNode@@@Z 00000001801b3d54 f i libvcruntime:undname.obj
 0001:001b2d54       ??$append@VpcharNode@@@DName@@AEAAXPEBVpcharNode@@@Z 00000001801b3d54 f i libvcruntime:undname.obj
 0001:001b2db8       ??$doPchar@$00@DName@@AEAAXPEBDH@Z 00000001801b3db8 f i libvcruntime:undname.obj
 0001:001b2e5c       ??$doPchar@$01@DName@@AEAAXPEBDH@Z 00000001801b3e5c f i libvcruntime:undname.obj
 0001:001b2e5c       ??$doPchar@$0A@@DName@@AEAAXPEBDH@Z 00000001801b3e5c f i libvcruntime:undname.obj
 0001:001b2ef4       ??0DName@@QEAA@AEAPEBDD@Z  00000001801b3ef4 f   libvcruntime:undname.obj
 0001:001b2fa4       ??0DName@@QEAA@AEBUStringLiteral@@@Z 00000001801b3fa4 f   libvcruntime:undname.obj
 0001:001b2fd0       ??0DName@@QEAA@PEAV0@@Z    00000001801b3fd0 f   libvcruntime:undname.obj
 0001:001b3054       ??0DName@@QEAA@_J@Z        00000001801b4054 f   libvcruntime:undname.obj
 0001:001b30fc       ??0DName@@QEAA@_K@Z        00000001801b40fc f   libvcruntime:undname.obj
 0001:001b318c       ??2@YAPEAX_KAEAV_HeapManager@@H@Z 00000001801b418c f   libvcruntime:undname.obj
 0001:001b31b8       ??4DName@@QEAAAEAV0@W4DNameStatus@@@Z 00000001801b41b8 f   libvcruntime:undname.obj
 0001:001b31e8       ??AReplicator@@QEBA?AVDName@@H@Z 00000001801b41e8 f   libvcruntime:undname.obj
 0001:001b3228       ??HDName@@QEBA?AV0@AEBUStringLiteral@@@Z 00000001801b4228 f   libvcruntime:undname.obj
 0001:001b3254       ??HDName@@QEBA?AV0@AEBV0@@Z 00000001801b4254 f   libvcruntime:undname.obj
 0001:001b3280       ??HDName@@QEBA?AV0@D@Z     00000001801b4280 f   libvcruntime:undname.obj
 0001:001b32ac       ??HDName@@QEBA?AV0@W4DNameStatus@@@Z 00000001801b42ac f   libvcruntime:undname.obj
 0001:001b32d8       ??YDName@@QEAAAEAV0@AEBUStringLiteral@@@Z 00000001801b42d8 f   libvcruntime:undname.obj
 0001:001b3358       ??YDName@@QEAAAEAV0@AEBV0@@Z 00000001801b4358 f   libvcruntime:undname.obj
 0001:001b33b0       ??YDName@@QEAAAEAV0@D@Z    00000001801b43b0 f   libvcruntime:undname.obj
 0001:001b341c       ??YDName@@QEAAAEAV0@W4DNameStatus@@@Z 00000001801b441c f   libvcruntime:undname.obj
 0001:001b3474       ??YReplicator@@QEAAAEAV0@AEBVDName@@@Z 00000001801b4474 f   libvcruntime:undname.obj
 0001:001b34cc       ?UScore@UnDecorator@@SA?AUStringLiteral@@W4Tokens@@@Z 00000001801b44cc f   libvcruntime:undname.obj
 0001:001b3518       ?composeDeclaration@UnDecorator@@CA?AVDName@@AEBV2@@Z 00000001801b4518 f i libvcruntime:undname.obj
 0001:001b440c       ?doPchar@DName@@AEAAXD@Z   00000001801b540c f   libvcruntime:undname.obj
 0001:001b445c       ?getAddressOf@UnDecorator@@CA?AVDName@@XZ 00000001801b545c f   libvcruntime:undname.obj
 0001:001b44ec       ?getArgumentList@UnDecorator@@CA?AVDName@@XZ 00000001801b54ec f   libvcruntime:undname.obj
 0001:001b46a0       ?getArgumentTypes@UnDecorator@@CA?AVDName@@XZ 00000001801b56a0 f   libvcruntime:undname.obj
 0001:001b47ec       ?getArrayAccess@UnDecorator@@CA?AVDName@@XZ 00000001801b57ec f   libvcruntime:undname.obj
 0001:001b4888       ?getArrayObject@UnDecorator@@CA?AVDName@@XZ 00000001801b5888 f   libvcruntime:undname.obj
 0001:001b4944       ?getArrayType@UnDecorator@@CA?AVDName@@AEBV2@@Z 00000001801b5944 f i libvcruntime:undname.obj
 0001:001b4bb0       ?getBasedType@UnDecorator@@CA?AVDName@@XZ 00000001801b5bb0 f   libvcruntime:undname.obj
 0001:001b4ca8       ?getBasicDataType@UnDecorator@@CA?AVDName@@AEBV2@@Z 00000001801b5ca8 f   libvcruntime:undname.obj
 0001:001b52ac       ?getCallingConvention@UnDecorator@@CA?AVDName@@XZ 00000001801b62ac f   libvcruntime:undname.obj
 0001:001b53e4       ?getDataIndirectType@UnDecorator@@CA?AVDName@@AEBV2@W4IndirectionKind@@0H@Z 00000001801b63e4 f   libvcruntime:undname.obj
 0001:001b5d08       ?getDataType@UnDecorator@@CA?AVDName@@PEAV2@@Z 00000001801b6d08 f   libvcruntime:undname.obj
 0001:001b5e1c       ?getDecoratedName@UnDecorator@@CA?AVDName@@XZ 00000001801b6e1c f   libvcruntime:undname.obj
 0001:001b6104       ?getDimension@UnDecorator@@CA?AVDName@@_N@Z 00000001801b7104 f   libvcruntime:undname.obj
 0001:001b624c       ?getDispatchTarget@UnDecorator@@CA?AVDName@@XZ 00000001801b724c f   libvcruntime:undname.obj
 0001:001b62ac       ?getECSUDataType@UnDecorator@@CA?AVDName@@XZ 00000001801b72ac f   libvcruntime:undname.obj
 0001:001b64a8       ?getEnumType@UnDecorator@@CA?AVDName@@XZ 00000001801b74a8 f i libvcruntime:undname.obj
 0001:001b65d8       ?getExtendedDataIndirectType@UnDecorator@@CA?AVDName@@AEAW4IndirectionKind@@AEA_NH@Z 00000001801b75d8 f   libvcruntime:undname.obj
 0001:001b67dc       ?getExternalDataType@UnDecorator@@CA?AVDName@@AEBV2@@Z 00000001801b77dc f i libvcruntime:undname.obj
 0001:001b689c       ?getFloatingPoint@UnDecorator@@CA?AVDName@@H@Z 00000001801b789c f   libvcruntime:undname.obj
 0001:001b6a04       ?getFunctionIndirectType@UnDecorator@@CA?AVDName@@AEBV2@@Z 00000001801b7a04 f   libvcruntime:undname.obj
 0001:001b6f38       ?getLastChar@DNameStatusNode@@UEBADXZ 00000001801b7f38 f i libvcruntime:undname.obj
 0001:001b6f44       ?getLastChar@charNode@@UEBADXZ 00000001801b7f44 f i libvcruntime:undname.obj
 0001:001b6f48       ?getLastChar@pDNameNode@@UEBADXZ 00000001801b7f48 f i libvcruntime:undname.obj
 0001:001b6f74       ?getLastChar@pairNode@@UEBADXZ 00000001801b7f74 f i libvcruntime:undname.obj
 0001:001b6fac       ?getLastChar@pcharNode@@UEBADXZ 00000001801b7fac f i libvcruntime:undname.obj
 0001:001b6fc0       ?getLexicalFrame@UnDecorator@@CA?AVDName@@XZ 00000001801b7fc0 f i libvcruntime:undname.obj
 0001:001b7024       ?getMemberAccess@UnDecorator@@CA?AVDName@@XZ 00000001801b8024 f   libvcruntime:undname.obj
 0001:001b70b8       ?getMemoryWithBuffer@_HeapManager@@QEAAPEAX_K@Z 00000001801b80b8 f   libvcruntime:undname.obj
 0001:001b7148       ?getNoexcept@UnDecorator@@CA?AVDName@@XZ 00000001801b8148 f   libvcruntime:undname.obj
 0001:001b71ac       ?getNumberOfDimensions@UnDecorator@@CAHXZ 00000001801b81ac f   libvcruntime:undname.obj
 0001:001b7214       ?getOperatorName@UnDecorator@@CA?AVDName@@_NPEA_N@Z 00000001801b8214 f i libvcruntime:undname.obj
 0001:001b7bc4       ?getPointerToMember@UnDecorator@@CA?AVDName@@XZ 00000001801b8bc4 f   libvcruntime:undname.obj
 0001:001b7cbc       ?getPrimaryDataType@UnDecorator@@CA?AVDName@@AEBV2@@Z 00000001801b8cbc f   libvcruntime:undname.obj
 0001:001b7f74       ?getPtrRefDataType@UnDecorator@@CA?AVDName@@AEBV2@H@Z 00000001801b8f74 f   libvcruntime:undname.obj
 0001:001b8140       ?getPtrRefType@UnDecorator@@CA?AVDName@@AEBV2@0W4IndirectionKind@@@Z 00000001801b9140 f   libvcruntime:undname.obj
 0001:001b8318       ?getRestrictionSpec@UnDecorator@@CA?AVDName@@XZ 00000001801b9318 f   libvcruntime:undname.obj
 0001:001b84f4       ?getReturnType@UnDecorator@@CA?AVDName@@PEAV2@@Z 00000001801b94f4 f   libvcruntime:undname.obj
 0001:001b8528       ?getScope@UnDecorator@@CA?AVDName@@XZ 00000001801b9528 f   libvcruntime:undname.obj
 0001:001b89e0       ?getScopedName@UnDecorator@@CA?AVDName@@XZ 00000001801b99e0 f   libvcruntime:undname.obj
 0001:001b8b20       ?getSignedDimension@UnDecorator@@CA?AVDName@@XZ 00000001801b9b20 f   libvcruntime:undname.obj
 0001:001b8ba8       ?getString@DNameStatusNode@@UEBAPEADPEAD0@Z 00000001801b9ba8 f i libvcruntime:undname.obj
 0001:001b8bf0       ?getString@charNode@@UEBAPEADPEAD0@Z 00000001801b9bf0 f i libvcruntime:undname.obj
 0001:001b8c04       ?getString@pDNameNode@@UEBAPEADPEAD0@Z 00000001801b9c04 f i libvcruntime:undname.obj
 0001:001b8c34       ?getString@pairNode@@UEBAPEADPEAD0@Z 00000001801b9c34 f i libvcruntime:undname.obj
 0001:001b8c80       ?getString@pcharNode@@UEBAPEADPEAD0@Z 00000001801b9c80 f i libvcruntime:undname.obj
 0001:001b8cb8       ?getStringEncoding@UnDecorator@@CA?AVDName@@W4PrefixKind@@H@Z 00000001801b9cb8 f   libvcruntime:undname.obj
 0001:001b8dc8       ?getStringObject@UnDecorator@@CA?AVDName@@XZ 00000001801b9dc8 f   libvcruntime:undname.obj
 0001:001b8e30       ?getSymbolName@UnDecorator@@CA?AVDName@@XZ 00000001801b9e30 f i libvcruntime:undname.obj
 0001:001b8e7c       ?getTemplateArgumentList@UnDecorator@@CA?AVDName@@XZ 00000001801b9e7c f   libvcruntime:undname.obj
 0001:001b9098       ?getTemplateName@UnDecorator@@CA?AVDName@@_N@Z 00000001801ba098 f   libvcruntime:undname.obj
 0001:001b932c       ?getTemplateNonTypeArgument@UnDecorator@@CA?AVDName@@XZ 00000001801ba32c f   libvcruntime:undname.obj
 0001:001b987c       ?getTemplateTypeArgument@UnDecorator@@CA?AVDName@@XZ 00000001801ba87c f   libvcruntime:undname.obj
 0001:001b99e4       ?getThrowTypes@UnDecorator@@CA?AVDName@@XZ 00000001801ba9e4 f   libvcruntime:undname.obj
 0001:001b9a08       ?getTypeEncoding@UnDecorator@@CAHXZ 00000001801baa08 f i libvcruntime:undname.obj
 0001:001b9dc4       ?getUndecoratedName@UnDecorator@@QEAAPEADPEADH@Z 00000001801badc4 f i libvcruntime:undname.obj
 0001:001b9f18       ?getUnionObject@UnDecorator@@CA?AVDName@@XZ 00000001801baf18 f   libvcruntime:undname.obj
 0001:001b9ff0       ?getVCallThunkType@UnDecorator@@CA?AVDName@@XZ 00000001801baff0 f i libvcruntime:undname.obj
 0001:001ba068       ?getValue@UnDecorator@@CA?AV?$optional@_K@std@@XZ 00000001801bb068 f   libvcruntime:undname.obj
 0001:001ba0b8       ?getValueObject@UnDecorator@@CA?AVDName@@XZ 00000001801bb0b8 f   libvcruntime:undname.obj
 0001:001ba1f8       ?getVdispMapType@UnDecorator@@CA?AVDName@@AEBV2@@Z 00000001801bb1f8 f i libvcruntime:undname.obj
 0001:001ba274       ?getVfTableType@UnDecorator@@CA?AVDName@@AEBV2@@Z 00000001801bb274 f i libvcruntime:undname.obj
 0001:001ba480       ?getZName@UnDecorator@@CA?AVDName@@_N0@Z 00000001801bb480 f   libvcruntime:undname.obj
 0001:001ba754       ?length@pDNameNode@@UEBAHXZ 00000001801bb754 f i libvcruntime:undname.obj
 0001:001ba77c       ?length@pairNode@@UEBAHXZ  00000001801bb77c f i libvcruntime:undname.obj
 0001:001ba7c4       ?parseDecoratedName@UnDecorator@@CA?AVDName@@XZ 00000001801bb7c4 f   libvcruntime:undname.obj
 0001:001ba8dc       ?raw_length@pDNameNode@@UEBAHXZ 00000001801bb8dc f i libvcruntime:undname.obj
 0001:001ba8e0       ?raw_length@pairNode@@UEBAHXZ 00000001801bb8e0 f i libvcruntime:undname.obj
 0001:001ba8e4       __unDName                  00000001801bb8e4 f   libvcruntime:undname.obj
 0001:001ba90c       __unDNameEx                00000001801bb90c f   libvcruntime:undname.obj
 0001:001baa40       snprintf                   00000001801bba40 f i libvcruntime:undname.obj
 0001:001baa98       sprintf_s                  00000001801bba98 f i libvcruntime:undname.obj
 0001:001baaec       __vcrt_freefls             00000001801bbaec f   libvcruntime:per_thread_data.obj
 0001:001bab0c       __vcrt_freeptd             00000001801bbb0c f   libvcruntime:per_thread_data.obj
 0001:001bab5c       __vcrt_getptd              00000001801bbb5c f   libvcruntime:per_thread_data.obj
 0001:001bab78       __vcrt_getptd_noexit       00000001801bbb78 f   libvcruntime:per_thread_data.obj
 0001:001bac38       __vcrt_initialize_ptd      00000001801bbc38 f   libvcruntime:per_thread_data.obj
 0001:001bac80       __vcrt_uninitialize_ptd    00000001801bbc80 f   libvcruntime:per_thread_data.obj
 0001:001baca4       __vcrt_initialize_locks    00000001801bbca4 f   libvcruntime:locks.obj
 0001:001bacec       __vcrt_lock                00000001801bbcec f   libvcruntime:locks.obj
 0001:001bad08       __vcrt_uninitialize_locks  00000001801bbd08 f   libvcruntime:locks.obj
 0001:001bad40       __vcrt_unlock              00000001801bbd40 f   libvcruntime:locks.obj
 0001:001bad70       _NLG_Notify                00000001801bbd70 f   libvcruntime:notify.obj
 0001:001bad90       __NLG_Dispatch2            00000001801bbd90 f   libvcruntime:notify.obj
 0001:001bada0       __NLG_Return2              00000001801bbda0 f   libvcruntime:notify.obj
 0001:001bada4       __except_validate_context_record 00000001801bbda4 f   libvcruntime:jbcxrval.obj
 0001:001baddc       ??$_CallSETranslator@V__FrameHandler3@@@@YAHPEAUEHExceptionRecord@@PEA_KPEAU_CONTEXT@@PEAU_xDISPATCHER_CONTEXT@@PEBU_s_FuncInfo@@K1H@Z 00000001801bbddc f i libvcruntime:risctrnsctrl.obj
 0001:001bae30       ??$_CallSETranslator@V__FrameHandler4@@@@YAHPEAUEHExceptionRecord@@PEA_KPEAU_CONTEXT@@PEAU_xDISPATCHER_CONTEXT@@PEAUFuncInfo4@FH4@@K1H@Z 00000001801bbe30 f i libvcruntime:risctrnsctrl.obj
 0001:001bae84       ?CatchTryBlock@__FrameHandler3@@SAPEBU_s_TryBlockMapEntry@@PEBU_s_FuncInfo@@H@Z 00000001801bbe84 f   libvcruntime:risctrnsctrl.obj
 0001:001baee8       ?DecompFuncInfo@FH4@@YA_JPEAEAEAUFuncInfo4@1@_KH_N@Z 00000001801bbee8 f i libvcruntime:risctrnsctrl.obj
 0001:001bb01c       ?ExecutionInCatch@__FrameHandler3@@SA_NPEAU_xDISPATCHER_CONTEXT@@PEBU_s_FuncInfo@@@Z 00000001801bc01c f   libvcruntime:risctrnsctrl.obj
 0001:001bb048       ?ExecutionInCatch@__FrameHandler4@@SA_NPEAU_xDISPATCHER_CONTEXT@@PEAUFuncInfo4@FH4@@@Z 00000001801bc048 f   libvcruntime:risctrnsctrl.obj
 0001:001bb050       ?FrameUnwindToEmptyState@__FrameHandler3@@SAXPEA_KPEAU_xDISPATCHER_CONTEXT@@PEBU_s_FuncInfo@@@Z 00000001801bc050 f   libvcruntime:risctrnsctrl.obj
 0001:001bb0b4       ?FrameUnwindToEmptyState@__FrameHandler4@@SAXPEA_KPEAU_xDISPATCHER_CONTEXT@@PEAUFuncInfo4@FH4@@@Z 00000001801bc0b4 f   libvcruntime:risctrnsctrl.obj
 0001:001bb0e8       ?GetEstablisherFrame@__FrameHandler3@@SAPEA_KPEA_KPEAU_xDISPATCHER_CONTEXT@@PEBU_s_FuncInfo@@0@Z 00000001801bc0e8 f   libvcruntime:risctrnsctrl.obj
 0001:001bb1b4       ?GetEstablisherFrame@__FrameHandler4@@SAPEA_KPEA_KPEAU_xDISPATCHER_CONTEXT@@PEAUFuncInfo4@FH4@@0@Z 00000001801bc1b4 f   libvcruntime:risctrnsctrl.obj
 0001:001bb1d8       ?GetRangeOfTrysToCheck@__FrameHandler3@@SA?AU?$pair@Viterator@TryBlockMap@__FrameHandler3@@V123@@std@@AEAVTryBlockMap@1@HPEAU_xDISPATCHER_CONTEXT@@PEBU_s_FuncInfo@@H@Z 00000001801bc1d8 f   libvcruntime:risctrnsctrl.obj
 0001:001bb318       ?GetRangeOfTrysToCheck@__FrameHandler4@@SA?AU?$pair@Viterator@TryBlockMap4@FH4@@V123@@std@@AEAVTryBlockMap4@FH4@@HPEAU_xDISPATCHER_CONTEXT@@PEAUFuncInfo4@5@H@Z 00000001801bc318 f   libvcruntime:risctrnsctrl.obj
 0001:001bb484       ?UnwindNestedFrames@__FrameHandler3@@SAXPEA_KPEAUEHExceptionRecord@@PEAU_CONTEXT@@0PEAXPEBU_s_FuncInfo@@HHPEBU_s_HandlerType@@PEAU_xDISPATCHER_CONTEXT@@E@Z 00000001801bc484 f   libvcruntime:risctrnsctrl.obj
 0001:001bb588       ?UnwindNestedFrames@__FrameHandler4@@SAXPEA_KPEAUEHExceptionRecord@@PEAU_CONTEXT@@0PEAXPEAUFuncInfo4@FH4@@HHPEAUHandlerType4@5@PEAU_xDISPATCHER_CONTEXT@@E@Z 00000001801bc588 f   libvcruntime:risctrnsctrl.obj
 0001:001bb6a8       ?setBuffer@TryBlockMap4@FH4@@QEAAXViterator@12@@Z 00000001801bc6a8 f i libvcruntime:risctrnsctrl.obj
 0001:001bb86c       _CreateFrameInfo           00000001801bc86c f   libvcruntime:risctrnsctrl.obj
 0001:001bb8a8       _FindAndUnlinkFrame        00000001801bc8a8 f   libvcruntime:risctrnsctrl.obj
 0001:001bb8fc       _GetImageBase              00000001801bc8fc f   libvcruntime:risctrnsctrl.obj
 0001:001bb910       _GetThrowImageBase         00000001801bc910 f   libvcruntime:risctrnsctrl.obj
 0001:001bb924       _SetImageBase              00000001801bc924 f   libvcruntime:risctrnsctrl.obj
 0001:001bb93c       _SetThrowImageBase         00000001801bc93c f   libvcruntime:risctrnsctrl.obj
 0001:001bb954       __CxxFrameHandler3         00000001801bc954 f   libvcruntime:risctrnsctrl.obj
 0001:001bb9dc       __CxxFrameHandler4         00000001801bc9dc f   libvcruntime:risctrnsctrl.obj
 0001:001bbbec       __vcrt_FlsAlloc            00000001801bcbec f   libvcruntime:winapi_downlevel.obj
 0001:001bbc34       __vcrt_FlsFree             00000001801bcc34 f   libvcruntime:winapi_downlevel.obj
 0001:001bbc7c       __vcrt_FlsGetValue         00000001801bcc7c f   libvcruntime:winapi_downlevel.obj
 0001:001bbcc4       __vcrt_FlsSetValue         00000001801bccc4 f   libvcruntime:winapi_downlevel.obj
 0001:001bbd18       __vcrt_InitializeCriticalSectionEx 00000001801bcd18 f   libvcruntime:winapi_downlevel.obj
 0001:001bbd7c       ?GetCurrentState@__FrameHandler3@@SAHPEA_KPEAU_xDISPATCHER_CONTEXT@@PEBU_s_FuncInfo@@@Z 00000001801bcd7c f   libvcruntime:ehstate.obj
 0001:001bbda4       ?GetUnwindTryBlock@__FrameHandler3@@SAHPEA_KPEAU_xDISPATCHER_CONTEXT@@PEBU_s_FuncInfo@@@Z 00000001801bcda4 f   libvcruntime:ehstate.obj
 0001:001bbdd0       ?SetState@__FrameHandler3@@SAXPEA_KPEBU_s_FuncInfo@@H@Z 00000001801bcdd0 f   libvcruntime:ehstate.obj
 0001:001bbddc       ?SetUnwindTryBlock@__FrameHandler3@@SAXPEA_KPEAU_xDISPATCHER_CONTEXT@@PEBU_s_FuncInfo@@H@Z 00000001801bcddc f   libvcruntime:ehstate.obj
 0001:001bbe18       ?StateFromControlPc@__FrameHandler3@@SAHPEBU_s_FuncInfo@@PEAU_xDISPATCHER_CONTEXT@@@Z 00000001801bce18 f   libvcruntime:ehstate.obj
 0001:001bbe20       ?StateFromControlPc@__FrameHandler4@@SAHPEAUFuncInfo4@FH4@@PEAU_xDISPATCHER_CONTEXT@@@Z 00000001801bce20 f   libvcruntime:ehstate.obj
 0001:001bbe28       ?StateFromIp@__FrameHandler3@@SAHPEBU_s_FuncInfo@@PEAU_xDISPATCHER_CONTEXT@@_K@Z 00000001801bce28 f   libvcruntime:ehstate.obj
 0001:001bbe90       ?StateFromIp@__FrameHandler4@@SAHPEAUFuncInfo4@FH4@@PEAU_xDISPATCHER_CONTEXT@@_K@Z 00000001801bce90 f   libvcruntime:ehstate.obj
 0001:001bd590       ??$TypeMatchHelper@V__FrameHandler3@@@@YAHPEBU_s_HandlerType@@PEBU_s_CatchableType@@PEBU_s_ThrowInfo@@@Z 00000001801be590 f i libvcruntime:frame.obj
 0001:001bd6d0       ??$TypeMatchHelper@V__FrameHandler4@@@@YAHPEAUHandlerType4@FH4@@PEBU_s_CatchableType@@PEBU_s_ThrowInfo@@@Z 00000001801be6d0 f i libvcruntime:frame.obj
 0001:001bd814       ??$__InternalCxxFrameHandler@V__FrameHandler3@@@@YA?AW4_EXCEPTION_DISPOSITION@@PEAUEHExceptionRecord@@PEA_KPEAU_CONTEXT@@PEAU_xDISPATCHER_CONTEXT@@PEBU_s_FuncInfo@@H1E@Z 00000001801be814 f i libvcruntime:frame.obj
 0001:001bda4c       ??$__InternalCxxFrameHandler@V__FrameHandler4@@@@YA?AW4_EXCEPTION_DISPOSITION@@PEAUEHExceptionRecord@@PEA_KPEAU_CONTEXT@@PEAU_xDISPATCHER_CONTEXT@@PEAUFuncInfo4@FH4@@H1E@Z 00000001801bea4c f i libvcruntime:frame.obj
 0001:001bdce0       ??$__InternalCxxFrameHandlerWrapper@V__FrameHandler3@@@@YA?AW4_EXCEPTION_DISPOSITION@@PEAUEHExceptionRecord@@PEA_KPEAU_CONTEXT@@PEAU_xDISPATCHER_CONTEXT@@PEBU_s_FuncInfo@@H1E@Z 00000001801bece0 f i libvcruntime:frame.obj
 0001:001bdce8       ??$__InternalCxxFrameHandlerWrapper@V__FrameHandler4@@@@YA?AW4_EXCEPTION_DISPOSITION@@PEAUEHExceptionRecord@@PEA_KPEAU_CONTEXT@@PEAU_xDISPATCHER_CONTEXT@@PEAUFuncInfo4@FH4@@H1E@Z 00000001801bece8 f i libvcruntime:frame.obj
 0001:001bdd44       ??0HandlerMap4@FH4@@QEAA@PEBUTryBlockMapEntry4@1@_KH@Z 00000001801bed44 f i libvcruntime:frame.obj
 0001:001bddc0       ??0TryBlockMap4@FH4@@QEAA@PEBUFuncInfo4@1@_K@Z 00000001801bedc0 f i libvcruntime:frame.obj
 0001:001bde98       ??0bad_exception@std@@QEAA@AEBV01@@Z 00000001801bee98 f i libvcruntime:frame.obj
 0001:001bded4       ??0bad_exception@std@@QEAA@XZ 00000001801beed4 f i libvcruntime:frame.obj
 0001:001bdef4       ??0exception@std@@QEAA@AEBV01@@Z 00000001801beef4 f i libvcruntime:frame.obj
 0001:001bdf28       ??1bad_exception@std@@UEAA@XZ 00000001801bef28 f i libvcruntime:frame.obj
 0001:001bdf3c       ??_Ebad_exception@std@@UEAAPEAXI@Z 00000001801bef3c f i libvcruntime:frame.obj
 0001:001bdf3c       ??_Eexception@std@@UEAAPEAXI@Z 00000001801bef3c f i libvcruntime:frame.obj
 0001:001bdf3c       ??_Gbad_exception@std@@UEAAPEAXI@Z 00000001801bef3c f i libvcruntime:frame.obj
 0001:001bdf3c       ??_Gexception@std@@UEAAPEAXI@Z 00000001801bef3c f i libvcruntime:frame.obj
 0001:001bdf80       ?CxxCallCatchBlock@__FrameHandler3@@SAPEAXPEAU_EXCEPTION_RECORD@@@Z 00000001801bef80 f   libvcruntime:frame.obj
 0001:001be16c       ?CxxCallCatchBlock@__FrameHandler4@@SAPEAXPEAU_EXCEPTION_RECORD@@@Z 00000001801bf16c f   libvcruntime:frame.obj
 0001:001be3bc       ?DecompHandler@HandlerMap4@FH4@@AEAAXXZ 00000001801bf3bc f i libvcruntime:frame.obj
 0001:001be608       ?FrameUnwindToState@__FrameHandler3@@SAXPEA_KPEAU_xDISPATCHER_CONTEXT@@PEBU_s_FuncInfo@@H@Z 00000001801bf608 f   libvcruntime:frame.obj
 0001:001be794       ?FrameUnwindToState@__FrameHandler4@@SAXPEA_KPEAU_xDISPATCHER_CONTEXT@@PEAUFuncInfo4@FH4@@H@Z 00000001801bf794 f   libvcruntime:frame.obj
 0001:001bea90       ?GetHandlerSearchState@__FrameHandler3@@SAHPEA_KPEAU_xDISPATCHER_CONTEXT@@PEBU_s_FuncInfo@@@Z 00000001801bfa90 f i libvcruntime:frame.obj
 0001:001beca0       ?ReadEntry@UWMap4@FH4@@AEAAXPEAPEAE@Z 00000001801bfca0 f i libvcruntime:frame.obj
 0001:001bed3c       ?_CallMemberFunction1@@YAXQEAX00@Z 00000001801bfd3c f i libvcruntime:frame.obj
 0001:001bed48       ?_CallMemberFunction2@@YAXQEAX00H@Z 00000001801bfd48 f i libvcruntime:frame.obj
 0001:001bed58       ?getStartStop@UWMap4@FH4@@QEAAXHHAEAViterator@12@0@Z 00000001801bfd58 f i libvcruntime:frame.obj
 0001:001bee28       ?getStateFromIterators@UWMap4@FH4@@SAHAEBViterator@12@H0H0@Z 00000001801bfe28 f i libvcruntime:frame.obj
 0001:001beed8       ?what@exception@std@@UEBAPEBDXZ 00000001801bfed8 f i libvcruntime:frame.obj
 0001:001bef00       _CallSettingFrame          00000001801bff00 f   libvcruntime:handlers.obj
 0001:001bef50       _CallSettingFrame_LookupContinuationIndex 00000001801bff50 f   libvcruntime:handlers.obj
 0001:001bef80       _CallSettingFrame_NotifyContinuationAddr 00000001801bff80 f   libvcruntime:handlers.obj
 0001:001befb0       _CallSettingFrameEncoded   00000001801bffb0 f   libvcruntime:handlers.obj
 0001:001beff8       __std_exception_copy       00000001801bfff8 f   libvcruntime:std_exception.obj
 0001:001bf088       __std_exception_destroy    00000001801c0088 f   libvcruntime:std_exception.obj
 0001:001bf0b0       _CxxThrowException         00000001801c00b0 f   libvcruntime:throw.obj
 0001:001bf150       _local_unwind              00000001801c0150 f   libvcruntime:jmpuwind.obj
 0001:001bf180       cosf                       00000001801c0180 f   libucrt:cosf.obj
 0001:001bf680       sinf                       00000001801c0680 f   libucrt:sinf.obj
 0001:001bfd80       tanf                       00000001801c0d80 f   libucrt:tanf.obj
 0001:001c03f4       __acrt_initialize_stdio    00000001801c13f4 f   libucrt:_file.obj
 0001:001c0514       __acrt_iob_func            00000001801c1514 f   libucrt:_file.obj
 0001:001c0528       __acrt_uninitialize_stdio  00000001801c1528 f   libucrt:_file.obj
 0001:001c0584       _lock_file                 00000001801c1584 f   libucrt:_file.obj
 0001:001c0590       _unlock_file               00000001801c1590 f   libucrt:_file.obj
 0001:001c078c       ??$ensure_buffer_is_big_enough@D@formatting_buffer@__crt_stdio_output@@QEAA_N_KAEAV__crt_cached_ptd_host@@@Z 00000001801c178c f i libucrt:output.obj
 0001:001c0834       ??$parse_integer@KV?$c_string_character_source@D@__crt_strtox@@$0A@@__crt_strtox@@YAKAEAV__crt_cached_ptd_host@@V?$c_string_character_source@D@0@H_N@Z 00000001801c1834 f i libucrt:output.obj
 0001:001c0ae4       ??$type_case_integer@$07@?$output_processor@DV?$stream_output_adapter@D@__crt_stdio_output@@V?$standard_base@DV?$stream_output_adapter@D@__crt_stdio_output@@@2@@__crt_stdio_output@@AEAA_N_N@Z 00000001801c1ae4 f i libucrt:output.obj
 0001:001c0ae4       ??$type_case_integer@$07@?$output_processor@DV?$string_output_adapter@D@__crt_stdio_output@@V?$format_validation_base@DV?$string_output_adapter@D@__crt_stdio_output@@@2@@__crt_stdio_output@@AEAA_N_N@Z 00000001801c1ae4 f i libucrt:output.obj
 0001:001c0ae4       ??$type_case_integer@$07@?$output_processor@DV?$string_output_adapter@D@__crt_stdio_output@@V?$standard_base@DV?$string_output_adapter@D@__crt_stdio_output@@@2@@__crt_stdio_output@@AEAA_N_N@Z 00000001801c1ae4 f i libucrt:output.obj
 0001:001c0ccc       ??$type_case_integer@$09@?$output_processor@DV?$stream_output_adapter@D@__crt_stdio_output@@V?$standard_base@DV?$stream_output_adapter@D@__crt_stdio_output@@@2@@__crt_stdio_output@@AEAA_N_N@Z 00000001801c1ccc f i libucrt:output.obj
 0001:001c0ccc       ??$type_case_integer@$09@?$output_processor@DV?$string_output_adapter@D@__crt_stdio_output@@V?$format_validation_base@DV?$string_output_adapter@D@__crt_stdio_output@@@2@@__crt_stdio_output@@AEAA_N_N@Z 00000001801c1ccc f i libucrt:output.obj
 0001:001c0ccc       ??$type_case_integer@$09@?$output_processor@DV?$string_output_adapter@D@__crt_stdio_output@@V?$standard_base@DV?$string_output_adapter@D@__crt_stdio_output@@@2@@__crt_stdio_output@@AEAA_N_N@Z 00000001801c1ccc f i libucrt:output.obj
 0001:001c0eb4       ??$type_case_integer@$0BA@@?$output_processor@DV?$stream_output_adapter@D@__crt_stdio_output@@V?$standard_base@DV?$stream_output_adapter@D@__crt_stdio_output@@@2@@__crt_stdio_output@@AEAA_N_N@Z 00000001801c1eb4 f i libucrt:output.obj
 0001:001c0eb4       ??$type_case_integer@$0BA@@?$output_processor@DV?$string_output_adapter@D@__crt_stdio_output@@V?$format_validation_base@DV?$string_output_adapter@D@__crt_stdio_output@@@2@@__crt_stdio_output@@AEAA_N_N@Z 00000001801c1eb4 f i libucrt:output.obj
 0001:001c0eb4       ??$type_case_integer@$0BA@@?$output_processor@DV?$string_output_adapter@D@__crt_stdio_output@@V?$standard_base@DV?$string_output_adapter@D@__crt_stdio_output@@@2@@__crt_stdio_output@@AEAA_N_N@Z 00000001801c1eb4 f i libucrt:output.obj
 0001:001c109c       ??$type_case_integer_parse_into_buffer@I$07@?$output_processor@DV?$stream_output_adapter@D@__crt_stdio_output@@V?$standard_base@DV?$stream_output_adapter@D@__crt_stdio_output@@@2@@__crt_stdio_output@@AEAAXI_N@Z 00000001801c209c f i libucrt:output.obj
 0001:001c109c       ??$type_case_integer_parse_into_buffer@I$07@?$output_processor@DV?$string_output_adapter@D@__crt_stdio_output@@V?$format_validation_base@DV?$string_output_adapter@D@__crt_stdio_output@@@2@@__crt_stdio_output@@AEAAXI_N@Z 00000001801c209c f i libucrt:output.obj
 0001:001c109c       ??$type_case_integer_parse_into_buffer@I$07@?$output_processor@DV?$string_output_adapter@D@__crt_stdio_output@@V?$standard_base@DV?$string_output_adapter@D@__crt_stdio_output@@@2@@__crt_stdio_output@@AEAAXI_N@Z 00000001801c209c f i libucrt:output.obj
 0001:001c1118       ??$type_case_integer_parse_into_buffer@I$09@?$output_processor@DV?$stream_output_adapter@D@__crt_stdio_output@@V?$standard_base@DV?$stream_output_adapter@D@__crt_stdio_output@@@2@@__crt_stdio_output@@AEAAXI_N@Z 00000001801c2118 f i libucrt:output.obj
 0001:001c1118       ??$type_case_integer_parse_into_buffer@I$09@?$output_processor@DV?$string_output_adapter@D@__crt_stdio_output@@V?$format_validation_base@DV?$string_output_adapter@D@__crt_stdio_output@@@2@@__crt_stdio_output@@AEAAXI_N@Z 00000001801c2118 f i libucrt:output.obj
 0001:001c1118       ??$type_case_integer_parse_into_buffer@I$09@?$output_processor@DV?$string_output_adapter@D@__crt_stdio_output@@V?$standard_base@DV?$string_output_adapter@D@__crt_stdio_output@@@2@@__crt_stdio_output@@AEAAXI_N@Z 00000001801c2118 f i libucrt:output.obj
 0001:001c11c0       ??$type_case_integer_parse_into_buffer@I$0BA@@?$output_processor@DV?$stream_output_adapter@D@__crt_stdio_output@@V?$standard_base@DV?$stream_output_adapter@D@__crt_stdio_output@@@2@@__crt_stdio_output@@AEAAXI_N@Z 00000001801c21c0 f i libucrt:output.obj
 0001:001c11c0       ??$type_case_integer_parse_into_buffer@I$0BA@@?$output_processor@DV?$string_output_adapter@D@__crt_stdio_output@@V?$format_validation_base@DV?$string_output_adapter@D@__crt_stdio_output@@@2@@__crt_stdio_output@@AEAAXI_N@Z 00000001801c21c0 f i libucrt:output.obj
 0001:001c11c0       ??$type_case_integer_parse_into_buffer@I$0BA@@?$output_processor@DV?$string_output_adapter@D@__crt_stdio_output@@V?$standard_base@DV?$string_output_adapter@D@__crt_stdio_output@@@2@@__crt_stdio_output@@AEAAXI_N@Z 00000001801c21c0 f i libucrt:output.obj
 0001:001c124c       ??$type_case_integer_parse_into_buffer@_K$07@?$output_processor@DV?$stream_output_adapter@D@__crt_stdio_output@@V?$standard_base@DV?$stream_output_adapter@D@__crt_stdio_output@@@2@@__crt_stdio_output@@AEAAX_K_N@Z 00000001801c224c f i libucrt:output.obj
 0001:001c124c       ??$type_case_integer_parse_into_buffer@_K$07@?$output_processor@DV?$string_output_adapter@D@__crt_stdio_output@@V?$format_validation_base@DV?$string_output_adapter@D@__crt_stdio_output@@@2@@__crt_stdio_output@@AEAAX_K_N@Z 00000001801c224c f i libucrt:output.obj
 0001:001c124c       ??$type_case_integer_parse_into_buffer@_K$07@?$output_processor@DV?$string_output_adapter@D@__crt_stdio_output@@V?$standard_base@DV?$string_output_adapter@D@__crt_stdio_output@@@2@@__crt_stdio_output@@AEAAX_K_N@Z 00000001801c224c f i libucrt:output.obj
 0001:001c12c8       ??$type_case_integer_parse_into_buffer@_K$09@?$output_processor@DV?$stream_output_adapter@D@__crt_stdio_output@@V?$standard_base@DV?$stream_output_adapter@D@__crt_stdio_output@@@2@@__crt_stdio_output@@AEAAX_K_N@Z 00000001801c22c8 f i libucrt:output.obj
 0001:001c12c8       ??$type_case_integer_parse_into_buffer@_K$09@?$output_processor@DV?$string_output_adapter@D@__crt_stdio_output@@V?$format_validation_base@DV?$string_output_adapter@D@__crt_stdio_output@@@2@@__crt_stdio_output@@AEAAX_K_N@Z 00000001801c22c8 f i libucrt:output.obj
 0001:001c12c8       ??$type_case_integer_parse_into_buffer@_K$09@?$output_processor@DV?$string_output_adapter@D@__crt_stdio_output@@V?$standard_base@DV?$string_output_adapter@D@__crt_stdio_output@@@2@@__crt_stdio_output@@AEAAX_K_N@Z 00000001801c22c8 f i libucrt:output.obj
 0001:001c1374       ??$type_case_integer_parse_into_buffer@_K$0BA@@?$output_processor@DV?$stream_output_adapter@D@__crt_stdio_output@@V?$standard_base@DV?$stream_output_adapter@D@__crt_stdio_output@@@2@@__crt_stdio_output@@AEAAX_K_N@Z 00000001801c2374 f i libucrt:output.obj
 0001:001c1374       ??$type_case_integer_parse_into_buffer@_K$0BA@@?$output_processor@DV?$string_output_adapter@D@__crt_stdio_output@@V?$format_validation_base@DV?$string_output_adapter@D@__crt_stdio_output@@@2@@__crt_stdio_output@@AEAAX_K_N@Z 00000001801c2374 f i libucrt:output.obj
 0001:001c1374       ??$type_case_integer_parse_into_buffer@_K$0BA@@?$output_processor@DV?$string_output_adapter@D@__crt_stdio_output@@V?$standard_base@DV?$string_output_adapter@D@__crt_stdio_output@@@2@@__crt_stdio_output@@AEAAX_K_N@Z 00000001801c2374 f i libucrt:output.obj
 0001:001c151c       ?crop_zeroes@__crt_stdio_output@@YAXPEADQEAU__crt_locale_pointers@@@Z 00000001801c251c f i libucrt:output.obj
 0001:001c1590       ?get_raw_ptd@__crt_cached_ptd_host@@QEAAPEAU__acrt_ptd@@XZ 00000001801c2590 f i libucrt:output.obj
 0001:001c15f8       ?parse_int_from_format_string@?$output_processor@DV?$stream_output_adapter@D@__crt_stdio_output@@V?$standard_base@DV?$stream_output_adapter@D@__crt_stdio_output@@@2@@__crt_stdio_output@@AEAA_NQEAH@Z 00000001801c25f8 f i libucrt:output.obj
 0001:001c15f8       ?parse_int_from_format_string@?$output_processor@DV?$string_output_adapter@D@__crt_stdio_output@@V?$format_validation_base@DV?$string_output_adapter@D@__crt_stdio_output@@@2@@__crt_stdio_output@@AEAA_NQEAH@Z 00000001801c25f8 f i libucrt:output.obj
 0001:001c15f8       ?parse_int_from_format_string@?$output_processor@DV?$string_output_adapter@D@__crt_stdio_output@@V?$standard_base@DV?$string_output_adapter@D@__crt_stdio_output@@@2@@__crt_stdio_output@@AEAA_NQEAH@Z 00000001801c25f8 f i libucrt:output.obj
 0001:001c1688       ?process@?$output_processor@DV?$stream_output_adapter@D@__crt_stdio_output@@V?$standard_base@DV?$stream_output_adapter@D@__crt_stdio_output@@@2@@__crt_stdio_output@@QEAAHXZ 00000001801c2688 f i libucrt:output.obj
 0001:001c1a14       ?process@?$output_processor@DV?$string_output_adapter@D@__crt_stdio_output@@V?$format_validation_base@DV?$string_output_adapter@D@__crt_stdio_output@@@2@@__crt_stdio_output@@QEAAHXZ 00000001801c2a14 f i libucrt:output.obj
 0001:001c1da4       ?process@?$output_processor@DV?$string_output_adapter@D@__crt_stdio_output@@V?$standard_base@DV?$string_output_adapter@D@__crt_stdio_output@@@2@@__crt_stdio_output@@QEAAHXZ 00000001801c2da4 f i libucrt:output.obj
 0001:001c2128       ?state_case_size@?$output_processor@DV?$stream_output_adapter@D@__crt_stdio_output@@V?$standard_base@DV?$stream_output_adapter@D@__crt_stdio_output@@@2@@__crt_stdio_output@@AEAA_NXZ 00000001801c3128 f i libucrt:output.obj
 0001:001c22ac       ?state_case_size@?$output_processor@DV?$string_output_adapter@D@__crt_stdio_output@@V?$format_validation_base@DV?$string_output_adapter@D@__crt_stdio_output@@@2@@__crt_stdio_output@@AEAA_NXZ 00000001801c32ac f i libucrt:output.obj
 0001:001c22ac       ?state_case_size@?$output_processor@DV?$string_output_adapter@D@__crt_stdio_output@@V?$standard_base@DV?$string_output_adapter@D@__crt_stdio_output@@@2@@__crt_stdio_output@@AEAA_NXZ 00000001801c32ac f i libucrt:output.obj
 0001:001c2430       ?state_case_type@?$output_processor@DV?$stream_output_adapter@D@__crt_stdio_output@@V?$standard_base@DV?$stream_output_adapter@D@__crt_stdio_output@@@2@@__crt_stdio_output@@AEAA_NXZ 00000001801c3430 f i libucrt:output.obj
 0001:001c2864       ?state_case_type@?$output_processor@DV?$string_output_adapter@D@__crt_stdio_output@@V?$format_validation_base@DV?$string_output_adapter@D@__crt_stdio_output@@@2@@__crt_stdio_output@@AEAA_NXZ 00000001801c3864 f i libucrt:output.obj
 0001:001c2864       ?state_case_type@?$output_processor@DV?$string_output_adapter@D@__crt_stdio_output@@V?$standard_base@DV?$string_output_adapter@D@__crt_stdio_output@@@2@@__crt_stdio_output@@AEAA_NXZ 00000001801c3864 f i libucrt:output.obj
 0001:001c2c30       ?type_case_Z@?$output_processor@DV?$stream_output_adapter@D@__crt_stdio_output@@V?$standard_base@DV?$stream_output_adapter@D@__crt_stdio_output@@@2@@__crt_stdio_output@@AEAA_NXZ 00000001801c3c30 f i libucrt:output.obj
 0001:001c2c30       ?type_case_Z@?$output_processor@DV?$string_output_adapter@D@__crt_stdio_output@@V?$format_validation_base@DV?$string_output_adapter@D@__crt_stdio_output@@@2@@__crt_stdio_output@@AEAA_NXZ 00000001801c3c30 f i libucrt:output.obj
 0001:001c2c30       ?type_case_Z@?$output_processor@DV?$string_output_adapter@D@__crt_stdio_output@@V?$standard_base@DV?$string_output_adapter@D@__crt_stdio_output@@@2@@__crt_stdio_output@@AEAA_NXZ 00000001801c3c30 f i libucrt:output.obj
 0001:001c2ca8       ?type_case_a@?$output_processor@DV?$stream_output_adapter@D@__crt_stdio_output@@V?$standard_base@DV?$stream_output_adapter@D@__crt_stdio_output@@@2@@__crt_stdio_output@@AEAA_NXZ 00000001801c3ca8 f i libucrt:output.obj
 0001:001c2ca8       ?type_case_a@?$output_processor@DV?$string_output_adapter@D@__crt_stdio_output@@V?$format_validation_base@DV?$string_output_adapter@D@__crt_stdio_output@@@2@@__crt_stdio_output@@AEAA_NXZ 00000001801c3ca8 f i libucrt:output.obj
 0001:001c2ca8       ?type_case_a@?$output_processor@DV?$string_output_adapter@D@__crt_stdio_output@@V?$standard_base@DV?$string_output_adapter@D@__crt_stdio_output@@@2@@__crt_stdio_output@@AEAA_NXZ 00000001801c3ca8 f i libucrt:output.obj
 0001:001c2ef4       ?type_case_c_tchar@?$output_processor@DV?$stream_output_adapter@D@__crt_stdio_output@@V?$standard_base@DV?$stream_output_adapter@D@__crt_stdio_output@@@2@@__crt_stdio_output@@AEAA_ND@Z 00000001801c3ef4 f i libucrt:output.obj
 0001:001c2ef4       ?type_case_c_tchar@?$output_processor@DV?$string_output_adapter@D@__crt_stdio_output@@V?$format_validation_base@DV?$string_output_adapter@D@__crt_stdio_output@@@2@@__crt_stdio_output@@AEAA_ND@Z 00000001801c3ef4 f i libucrt:output.obj
 0001:001c2ef4       ?type_case_c_tchar@?$output_processor@DV?$string_output_adapter@D@__crt_stdio_output@@V?$standard_base@DV?$string_output_adapter@D@__crt_stdio_output@@@2@@__crt_stdio_output@@AEAA_ND@Z 00000001801c3ef4 f i libucrt:output.obj
 0001:001c2fb8       ?type_case_n@?$output_processor@DV?$stream_output_adapter@D@__crt_stdio_output@@V?$standard_base@DV?$stream_output_adapter@D@__crt_stdio_output@@@2@@__crt_stdio_output@@AEAA_NXZ 00000001801c3fb8 f i libucrt:output.obj
 0001:001c2fb8       ?type_case_n@?$output_processor@DV?$string_output_adapter@D@__crt_stdio_output@@V?$format_validation_base@DV?$string_output_adapter@D@__crt_stdio_output@@@2@@__crt_stdio_output@@AEAA_NXZ 00000001801c3fb8 f i libucrt:output.obj
 0001:001c2fb8       ?type_case_n@?$output_processor@DV?$string_output_adapter@D@__crt_stdio_output@@V?$standard_base@DV?$string_output_adapter@D@__crt_stdio_output@@@2@@__crt_stdio_output@@AEAA_NXZ 00000001801c3fb8 f i libucrt:output.obj
 0001:001c306c       ?type_case_s@?$output_processor@DV?$stream_output_adapter@D@__crt_stdio_output@@V?$standard_base@DV?$stream_output_adapter@D@__crt_stdio_output@@@2@@__crt_stdio_output@@AEAA_NXZ 00000001801c406c f i libucrt:output.obj
 0001:001c306c       ?type_case_s@?$output_processor@DV?$string_output_adapter@D@__crt_stdio_output@@V?$format_validation_base@DV?$string_output_adapter@D@__crt_stdio_output@@@2@@__crt_stdio_output@@AEAA_NXZ 00000001801c406c f i libucrt:output.obj
 0001:001c306c       ?type_case_s@?$output_processor@DV?$string_output_adapter@D@__crt_stdio_output@@V?$standard_base@DV?$string_output_adapter@D@__crt_stdio_output@@@2@@__crt_stdio_output@@AEAA_NXZ 00000001801c406c f i libucrt:output.obj
 0001:001c3110       ?update_locale_slow@__crt_cached_ptd_host@@AEAAXXZ 00000001801c4110 f i libucrt:output.obj
 0001:001c3188       ?validate_stream_is_ansi_if_required@?$__acrt_stdio_char_traits@D@@SA_NQEAU_iobuf@@@Z 00000001801c4188 f i libucrt:output.obj
 0001:001c3224       ?write_string@?$string_output_adapter@D@__crt_stdio_output@@QEBAXQEBDHQEAHAEAV__crt_cached_ptd_host@@@Z 00000001801c4224 f i libucrt:output.obj
 0001:001c32c8       ?write_string_impl@?$output_adapter_common@DV?$stream_output_adapter@D@__crt_stdio_output@@@__crt_stdio_output@@IEBAXQEBDHQEAHAEAV__crt_cached_ptd_host@@@Z 00000001801c42c8 f i libucrt:output.obj
 0001:001c3394       __stdio_common_vfprintf    00000001801c4394 f   libucrt:output.obj
 0001:001c34b8       __stdio_common_vsprintf    00000001801c44b8 f   libucrt:output.obj
 0001:001c370c       __stdio_common_vsprintf_s  00000001801c470c f   libucrt:output.obj
 0001:001c3820       _fpclass                   00000001801c4820 f   libucrt:ieeemisc.obj
 0001:001c38b0       powf                       00000001801c48b0 f   libucrt:powf.obj
 0001:001c4778       atan2f                     00000001801c5778 f   libucrt:atan2f.obj
 0001:001c4b80       strcmp                     00000001801c5b80 f   libucrt:strcmp.obj
 0001:001c4be8       acosf                      00000001801c5be8 f   libucrt:acosf.obj
 0001:001c4e14       free                       00000001801c5e14 f   libucrt:free.obj
 0001:001c4e28       _seh_filter_dll            00000001801c5e28 f   libucrt:exception_filter.obj
 0001:001c4e3c       _seh_filter_exe            00000001801c5e3c f   libucrt:exception_filter.obj
 0001:001c5260       __acrt_initialize_thread_local_exit_callback 00000001801c6260 f   libucrt:exit.obj
 0001:001c5268       _cexit                     00000001801c6268 f   libucrt:exit.obj
 0001:001c5278       _exit                      00000001801c6278 f   libucrt:exit.obj
 0001:001c5284       _is_c_termination_complete 00000001801c6284 f   libucrt:exit.obj
 0001:001c544c       __acrt_allocate_buffer_for_argv 00000001801c644c f   libucrt:argv_parsing.obj
 0001:001c54ac       _configure_narrow_argv     00000001801c64ac f   libucrt:argv_parsing.obj
 0001:001c5834       __dcrt_uninitialize_environments_nolock 00000001801c6834 f   libucrt:environment_initialization.obj
 0001:001c5878       _initialize_narrow_environment 00000001801c6878 f   libucrt:environment_initialization.obj
 0001:001c5bc8       _crt_atexit                00000001801c6bc8 f   libucrt:onexit.obj
 0001:001c5bd8       _execute_onexit_table      00000001801c6bd8 f   libucrt:onexit.obj
 0001:001c5c1c       _initialize_onexit_table   00000001801c6c1c f   libucrt:onexit.obj
 0001:001c5c44       _register_onexit_function  00000001801c6c44 f   libucrt:onexit.obj
 0001:001c5cc4       __acrt_uninitialize_command_line 00000001801c6cc4 f   libucrt:argv_data.obj
 0001:001c5dbc       __acrt_initialize          00000001801c6dbc f   libucrt:initialization.obj
 0001:001c5dd0       __acrt_thread_attach       00000001801c6dd0 f   libucrt:initialization.obj
 0001:001c5de4       __acrt_thread_detach       00000001801c6de4 f   libucrt:initialization.obj
 0001:001c5df4       __acrt_uninitialize        00000001801c6df4 f   libucrt:initialization.obj
 0001:001c5e2c       __acrt_uninitialize_critical 00000001801c6e2c f   libucrt:initialization.obj
 0001:001c5e3c       _initterm                  00000001801c6e3c f   libucrt:initterm.obj
 0001:001c5e80       _initterm_e                00000001801c6e80 f   libucrt:initterm.obj
 0001:001c5ec8       terminate                  00000001801c6ec8 f   libucrt:terminate.obj
 0001:001c5ef4       abort                      00000001801c6ef4 f   libucrt:abort.obj
 0001:001c5f4c       malloc                     00000001801c6f4c f   libucrt:malloc.obj
 0001:001c5f54       strcpy_s                   00000001801c6f54 f   libucrt:strcpy_s.obj
 0001:001c5fb4       ??$parse_integer@KV?$c_string_character_source@D@__crt_strtox@@$00@__crt_strtox@@YAKAEAV__crt_cached_ptd_host@@V?$c_string_character_source@D@0@H_N@Z 00000001801c6fb4 f i libucrt:atox.obj
 0001:001c6294       _ischartype_l              00000001801c7294 f i libucrt:atox.obj
 0001:001c630c       atol                       00000001801c730c f   libucrt:atox.obj
 0001:001c63d0       strncmp                    00000001801c73d0 f   libucrt:strncmp.obj
 0001:001c6450       calloc                     00000001801c7450 f   libucrt:calloc.obj
 0001:001c6458       wcsncmp                    00000001801c7458 f   libucrt:wcsncmp.obj
 0001:001c6490       __remainder_piby2d2f_forAsm 00000001801c7490 f   libucrt:remainder_piby2f_forasm.obj
 0001:001c65e0       __remainder_piby2_fma3     00000001801c75e0 f   libucrt:remainder_piby2_forfma3.obj
 0001:001c67d0       __remainder_piby2_fma3_bdl 00000001801c77d0 f   libucrt:remainder_piby2_forfma3.obj
 0001:001c6848       _cosf_special              00000001801c7848 f   libucrt:sincos_special.obj
 0001:001c68e8       _sinf_special              00000001801c78e8 f   libucrt:sincos_special.obj
 0001:001c68fc       _tanf_special              00000001801c78fc f   libucrt:sincos_special.obj
 0001:001c6910       _clrfp                     00000001801c7910 f   libucrt:fpctrl.obj
 0001:001c6930       _ctrlfp                    00000001801c7930 f   libucrt:fpctrl.obj
 0001:001c69ac       _set_statfp                00000001801c79ac f   libucrt:fpctrl.obj
 0001:001c69cc       _statfp                    00000001801c79cc f   libucrt:fpctrl.obj
 0001:001c69e0       __acrt_initialize_fma3     00000001801c79e0 f   libucrt:fma3_available.obj
 0001:001c6a50       __remainder_piby2d2f_forC  00000001801c7a50 f   libucrt:remainder_piby2f_forc.obj
 0001:001c6bdc       ?get_raw_ptd_noexit@__crt_cached_ptd_host@@QEAAPEAU__acrt_ptd@@XZ 00000001801c7bdc f i libucrt:invalid_parameter.obj
 0001:001c6c48       ?value@?$dual_state_global@P6AXPEB_W00I_K@Z@__crt_state_management@@QEAAAEAP6AXPEB_W00I_K@ZAEAV__crt_cached_ptd_host@@@Z 00000001801c7c48 f i libucrt:invalid_parameter.obj
 0001:001c6c94       __acrt_call_reportfault    00000001801c7c94 f   libucrt:invalid_parameter.obj
 0001:001c6df0       __acrt_initialize_invalid_parameter_handler 00000001801c7df0 f   libucrt:invalid_parameter.obj
 0001:001c6df8       _invalid_parameter         00000001801c7df8 f   libucrt:invalid_parameter.obj
 0001:001c6e94       _invalid_parameter_internal 00000001801c7e94 f   libucrt:invalid_parameter.obj
 0001:001c6f64       _invalid_parameter_noinfo  00000001801c7f64 f   libucrt:invalid_parameter.obj
 0001:001c6f84       _invoke_watson             00000001801c7f84 f   libucrt:invalid_parameter.obj
 0001:001c6fcc       __acrt_errno_from_os_error 00000001801c7fcc f   libucrt:errno.obj
 0001:001c7014       __acrt_errno_map_os_error  00000001801c8014 f   libucrt:errno.obj
 0001:001c705c       __acrt_errno_map_os_error_ptd 00000001801c805c f   libucrt:errno.obj
 0001:001c7080       __doserrno                 00000001801c8080 f   libucrt:errno.obj
 0001:001c70a0       _errno                     00000001801c80a0 f   libucrt:errno.obj
 0001:001c70c0       _calloc_base               00000001801c80c0 f   libucrt:calloc_base.obj
 0001:001c7138       _free_base                 00000001801c8138 f   libucrt:free_base.obj
 0001:001c7334       __acrt_AppPolicyGetProcessTerminationMethodInternal 00000001801c8334 f   libucrt:winapi_thunks.obj
 0001:001c738c       __acrt_AreFileApisANSI     00000001801c838c f   libucrt:winapi_thunks.obj
 0001:001c73d0       __acrt_FlsAlloc            00000001801c83d0 f   libucrt:winapi_thunks.obj
 0001:001c73d8       __acrt_FlsFree             00000001801c83d8 f   libucrt:winapi_thunks.obj
 0001:001c73e0       __acrt_FlsGetValue         00000001801c83e0 f   libucrt:winapi_thunks.obj
 0001:001c73e8       __acrt_FlsSetValue         00000001801c83e8 f   libucrt:winapi_thunks.obj
 0001:001c73f0       __acrt_InitializeCriticalSectionEx 00000001801c83f0 f   libucrt:winapi_thunks.obj
 0001:001c7460       __acrt_LCMapStringEx       00000001801c8460 f   libucrt:winapi_thunks.obj
 0001:001c754c       __acrt_LocaleNameToLCID    00000001801c854c f   libucrt:winapi_thunks.obj
 0001:001c75ac       __acrt_initialize_winapi_thunks 00000001801c85ac f   libucrt:winapi_thunks.obj
 0001:001c75d0       __acrt_uninitialize_winapi_thunks 00000001801c85d0 f   libucrt:winapi_thunks.obj
 0001:001c7614       _fcloseall                 00000001801c8614 f   libucrt:closeall.obj
 0001:001c78a4       __acrt_stdio_flush_nolock  00000001801c88a4 f   libucrt:fflush.obj
 0001:001c7930       _fflush_nolock             00000001801c8930 f   libucrt:fflush.obj
 0001:001c7a04       _flushall                  00000001801c8a04 f   libucrt:fflush.obj
 0001:001c7a0c       __acrt_stdio_free_buffer_nolock 00000001801c8a0c f   libucrt:_freebuf.obj
 0001:001c7c44       __acrt_initialize_lowio    00000001801c8c44 f   libucrt:ioinit.obj
 0001:001c7c80       __acrt_uninitialize_lowio  00000001801c8c80 f   libucrt:ioinit.obj
 0001:001c7cc0       _malloc_base               00000001801c8cc0 f   libucrt:malloc_base.obj
 0001:001c7d20       strnlen                    00000001801c8d20 f   libucrt:strnlen.obj
 0001:001c7e70       wcsnlen                    00000001801c8e70 f   libucrt:strnlen.obj
 0001:001c8048       __acrt_update_locale_info  00000001801c9048 f   libucrt:locale_update.obj
 0001:001c807c       __acrt_update_locale_info_explicit 00000001801c907c f   libucrt:locale_update.obj
 0001:001c80b4       __acrt_update_multibyte_info 00000001801c90b4 f   libucrt:locale_update.obj
 0001:001c80e8       __acrt_update_multibyte_info_explicit 00000001801c90e8 f   libucrt:locale_update.obj
 0001:001c8c50       __acrt_fp_format           00000001801c9c50 f   libucrt:cvt.obj
 0001:001c8f38       _wctomb_internal           00000001801c9f38 f   libucrt:wctomb.obj
 0001:001c90e8       _mbtowc_internal           00000001801ca0e8 f   libucrt:mbtowc.obj
 0001:001c9260       _fileno                    00000001801ca260 f   libucrt:fileno.obj
 0001:001c9288       _get_printf_count_output   00000001801ca288 f   libucrt:printf_count_output.obj
 0001:001c92a0       _fputc_nolock_internal     00000001801ca2a0 f   libucrt:fputc.obj
 0001:001c92b8       __acrt_should_use_temporary_buffer 00000001801ca2b8 f   libucrt:_sftbuf.obj
 0001:001c9300       __acrt_stdio_begin_temporary_buffering_nolock 00000001801ca300 f   libucrt:_sftbuf.obj
 0001:001c93c8       __acrt_stdio_end_temporary_buffering_nolock 00000001801ca3c8 f   libucrt:_sftbuf.obj
 0001:001c977c       __acrt_freeptd             00000001801ca77c f   libucrt:per_thread_data.obj
 0001:001c97c0       __acrt_getptd              00000001801ca7c0 f   libucrt:per_thread_data.obj
 0001:001c9894       __acrt_getptd_head         00000001801ca894 f   libucrt:per_thread_data.obj
 0001:001c9938       __acrt_getptd_noexit       00000001801ca938 f   libucrt:per_thread_data.obj
 0001:001c9a00       __acrt_getptd_noexit_explicit 00000001801caa00 f   libucrt:per_thread_data.obj
 0001:001c9ac0       __acrt_initialize_ptd      00000001801caac0 f   libucrt:per_thread_data.obj
 0001:001c9afc       __acrt_uninitialize_ptd    00000001801caafc f   libucrt:per_thread_data.obj
 0001:001c9b90       __acrt_set_locale_changed  00000001801cab90 f   libucrt:wsetlocale.obj
 0001:001c9b9c       __acrt_uninitialize_locale 00000001801cab9c f   libucrt:wsetlocale.obj
 0001:001c9cf0       _handle_error              00000001801cacf0 f   libucrt:libm_error.obj
 0001:001c9e18       _handle_errorf             00000001801cae18 f   libucrt:libm_error.obj
 0001:001c9f4c       _handle_nan                00000001801caf4c f   libucrt:libm_error.obj
 0001:001c9f68       _handle_nanf               00000001801caf68 f   libucrt:libm_error.obj
 0001:001c9f80       _powf_special              00000001801caf80 f   libucrt:pow_special.obj
 0001:001ca0d0       __acrt_initialize_locks    00000001801cb0d0 f   libucrt:locks.obj
 0001:001ca118       __acrt_lock                00000001801cb118 f   libucrt:locks.obj
 0001:001ca134       __acrt_uninitialize_locks  00000001801cb134 f   libucrt:locks.obj
 0001:001ca16c       __acrt_unlock              00000001801cb16c f   libucrt:locks.obj
 0001:001ca188       __acrt_get_process_end_policy 00000001801cb188 f   libucrt:win_policies.obj
 0001:001ca1d8       ??$__acrt_convert_wcs_mbs_cp@D_WV<lambda_7c9dea7b4ca7285d2cdb541a38da6275>@@U__crt_win32_buffer_internal_dynamic_resizing@@@@YAHQEBDAEAV?$__crt_win32_buffer@_WU__crt_win32_buffer_internal_dynamic_resizing@@@@AEBV<lambda_7c9dea7b4ca7285d2cdb541a38da6275>@@I@Z 00000001801cb1d8 f i libucrt:argv_wildcards.obj
 0001:001ca354       ??$__acrt_convert_wcs_mbs_cp@_WDV<lambda_d8593a27d1aa8c02be35c86a17d324c4>@@U__crt_win32_buffer_internal_dynamic_resizing@@@@YAHQEB_WAEAV?$__crt_win32_buffer@DU__crt_win32_buffer_internal_dynamic_resizing@@@@AEBV<lambda_d8593a27d1aa8c02be35c86a17d324c4>@@I@Z 00000001801cb354 f i libucrt:argv_wildcards.obj
 0001:001cabfc       ??0_LocaleUpdate@@QEAA@QEAU__crt_locale_pointers@@@Z 00000001801cbbfc f i libucrt:argv_wildcards.obj
 0001:001cac98       __acrt_expand_narrow_argv_wildcards 00000001801cbc98 f   libucrt:argv_wildcards.obj
 0001:001caca0       ??$__acrt_convert_wcs_mbs_cp@_WDV<lambda_f788ae46380686e8b737efdd8c720d07>@@U__crt_win32_buffer_no_resizing@@@@YAHQEB_WAEAV?$__crt_win32_buffer@DU__crt_win32_buffer_no_resizing@@@@AEBV<lambda_f788ae46380686e8b737efdd8c720d07>@@I@Z 00000001801cbca0 f i libucrt:getmodulefilenamea.obj
 0001:001cadbc       __acrt_GetModuleFileNameA  00000001801cbdbc f   libucrt:getmodulefilenamea.obj
 0001:001cb6d8       __acrt_initialize_multibyte 00000001801cc6d8 f   libucrt:mbctype.obj
 0001:001cb738       __acrt_update_thread_multibyte_data 00000001801cc738 f   libucrt:mbctype.obj
 0001:001cb754       _setmbcp_nolock            00000001801cc754 f   libucrt:mbctype.obj
 0001:001cba88       _ismbblead                 00000001801cca88 f   libucrt:ismbbyte.obj
 0001:001cba9c       __acrt_initialize_command_line 00000001801cca9c f   libucrt:argv_data.obj
 0001:001cbac4       __acrt_MultiByteToWideChar 00000001801ccac4 f   libucrt:multibytetowidechar.obj
 0001:001cbb20       __acrt_WideCharToMultiByte 00000001801ccb20 f   libucrt:widechartomultibyte.obj
 0001:001cbbd0       __dcrt_get_narrow_environment_from_os 00000001801ccbd0 f   libucrt:get_environment_from_os.obj
 0001:001cbce0       _recalloc_base             00000001801ccce0 f   libucrt:recalloc.obj
 0001:001cbd78       __acrt_initialize_heap     00000001801ccd78 f   libucrt:heap_handle.obj
 0001:001cbd94       __acrt_uninitialize_heap   00000001801ccd94 f   libucrt:heap_handle.obj
 0001:001cbda0       __acrt_execute_initializers 00000001801ccda0 f   libucrt:shared_initialization.obj
 0001:001cbe34       __acrt_execute_uninitializers 00000001801cce34 f   libucrt:shared_initialization.obj
 0001:001cbe7c       __acrt_initialize_new_handler 00000001801cce7c f   libucrt:new_handler.obj
 0001:001cbe84       _callnewh                  00000001801cce84 f   libucrt:new_handler.obj
 0001:001cbec0       _query_new_handler         00000001801ccec0 f   libucrt:new_handler.obj
 0001:001cbf3c       __acrt_get_sigabrt_handler 00000001801ccf3c f   libucrt:signal.obj
 0001:001cbf6c       __acrt_initialize_signal_handlers 00000001801ccf6c f   libucrt:signal.obj
 0001:001cbf8c       raise                      00000001801ccf8c f   libucrt:signal.obj
 0001:001cc20c       __acrt_has_user_matherr    00000001801cd20c f   libucrt:matherr.obj
 0001:001cc22c       __acrt_initialize_user_matherr 00000001801cd22c f   libucrt:matherr.obj
 0001:001cc234       __acrt_invoke_user_matherr 00000001801cd234 f   libucrt:matherr.obj
 0001:001cc26c       __pctype_func              00000001801cd26c f   libucrt:ctype.obj
 0001:001cc29c       _isctype_l                 00000001801cd29c f   libucrt:isctype.obj
 0001:001cc3c0       _get_fpsr                  00000001801cd3c0 f   libucrt:fpsr.obj
 0001:001cc3d0       _set_fpsr                  00000001801cd3d0 f   libucrt:fpsr.obj
 0001:001cc3da       _fclrf                     00000001801cd3da f   libucrt:fpsr.obj
 0001:001cc3ee       _frnd                      00000001801cd3ee f   libucrt:fpsr.obj
 0001:001cc410       _query_new_mode            00000001801cd410 f   libucrt:new_mode.obj
 0001:001cc418       __acrt_DownlevelLocaleNameToLCID 00000001801cd418 f   libucrt:lcidtoname_downlevel.obj
 0001:001cc5e0       fclose                     00000001801cd5e0 f   libucrt:fclose.obj
 0001:001cc704       _commit                    00000001801cd704 f   libucrt:commit.obj
 0001:001ccfb4       _write_internal            00000001801cdfb4 f   libucrt:write.obj
 0001:001cd0dc       _write_nolock              00000001801ce0dc f   libucrt:write.obj
 0001:001cd3ec       __acrt_lowio_create_handle_array 00000001801ce3ec f   libucrt:osfinfo.obj
 0001:001cd494       __acrt_lowio_destroy_handle_array 00000001801ce494 f   libucrt:osfinfo.obj
 0001:001cd4e4       __acrt_lowio_ensure_fh_exists 00000001801ce4e4 f   libucrt:osfinfo.obj
 0001:001cd58c       __acrt_lowio_lock_fh       00000001801ce58c f   libucrt:osfinfo.obj
 0001:001cd5b4       __acrt_lowio_unlock_fh     00000001801ce5b4 f   libucrt:osfinfo.obj
 0001:001cd5dc       _free_osfhnd               00000001801ce5dc f   libucrt:osfinfo.obj
 0001:001cd698       _get_osfhandle             00000001801ce698 f   libucrt:osfinfo.obj
 0001:001cd710       __acrt_add_locale_ref      00000001801ce710 f   libucrt:locale_refcounting.obj
 0001:001cd79c       __acrt_free_locale         00000001801ce79c f   libucrt:locale_refcounting.obj
 0001:001cd914       __acrt_locale_add_lc_time_reference 00000001801ce914 f   libucrt:locale_refcounting.obj
 0001:001cd93c       __acrt_locale_free_lc_time_if_unreferenced 00000001801ce93c f   libucrt:locale_refcounting.obj
 0001:001cd974       __acrt_locale_release_lc_time_reference 00000001801ce974 f   libucrt:locale_refcounting.obj
 0001:001cd99c       __acrt_release_locale_ref  00000001801ce99c f   libucrt:locale_refcounting.obj
 0001:001cda44       __acrt_update_thread_locale_data 00000001801cea44 f   libucrt:locale_refcounting.obj
 0001:001cdab4       _updatetlocinfoEx_nolock   00000001801ceab4 f   libucrt:locale_refcounting.obj
 0001:001cdb1c       __acrt_fp_strflt_to_string 00000001801ceb1c f   libucrt:_fptostr.obj
 0001:001cdca0       ?divide@__crt_strtox@@YA_KAEAUbig_integer@1@AEBU21@@Z 00000001801ceca0 f i libucrt:cfout.obj
 0001:001ce12c       __acrt_fltout              00000001801cf12c f   libucrt:cfout.obj
 0001:001cf3f4       fegetround                 00000001801d03f4 f   libucrt:fegetround.obj
 0001:001cf408       ?__c32rtomb_utf8@__crt_mbstring@@YA_KPEAD_UPEAU_Mbstatet@@AEAV__crt_cached_ptd_host@@@Z 00000001801d0408 f   libucrt:c32rtomb.obj
 0001:001cf4ac       ?__mbrtowc_utf8@__crt_mbstring@@YA_KPEA_WPEBD_KPEAU_Mbstatet@@AEAV__crt_cached_ptd_host@@@Z 00000001801d04ac f   libucrt:mbrtowc.obj
 0001:001cf4f0       ?__mbsrtowcs_utf8@__crt_mbstring@@YA_KPEA_WPEAPEBD_KPEAU_Mbstatet@@AEAV__crt_cached_ptd_host@@@Z 00000001801d04f0 f   libucrt:mbrtowc.obj
 0001:001cf808       __acrt_stdio_flush_and_write_narrow_nolock 00000001801d0808 f   libucrt:_flsbuf.obj
 0001:001cf8cc       _isatty                    00000001801d08cc f   libucrt:isatty.obj
 0001:001cf92c       __acrt_locale_free_monetary 00000001801d092c f   libucrt:initmon.obj
 0001:001cfa38       __acrt_locale_free_numeric 00000001801d0a38 f   libucrt:initnum.obj
 0001:001cfad8       __acrt_locale_free_time    00000001801d0ad8 f   libucrt:inittime.obj
 0001:001cfbe0       __acrt_GetStringTypeA      00000001801d0be0 f   libucrt:getstringtypea.obj
 0001:001cfd7c       _raise_exc                 00000001801d0d7c f   libucrt:fpexcept.obj
 0001:001cfda4       _raise_exc_ex              00000001801d0da4 f   libucrt:fpexcept.obj
 0001:001d00b4       _raise_excf                00000001801d10b4 f   libucrt:fpexcept.obj
 0001:001d00e0       _set_errno_from_matherr    00000001801d10e0 f   libucrt:fpexcept.obj
 0001:001d0110       qsort                      00000001801d1110 f   libucrt:qsort.obj
 0001:001d0520       strncpy_s                  00000001801d1520 f   libucrt:strncpy_s.obj
 0001:001d06b0       strpbrk                    00000001801d16b0 f   libucrt:strpbrk.obj
 0001:001d0a78       _mbsdec                    00000001801d1a78 f   libucrt:mbsdec.obj
 0001:001d0a80       _mbsdec_l                  00000001801d1a80 f   libucrt:mbsdec.obj
 0001:001d0e34       __acrt_LCMapStringA        00000001801d1e34 f   libucrt:lcmapstringa.obj
 0001:001d0ee4       _msize_base                00000001801d1ee4 f   libucrt:msize.obj
 0001:001d0f20       _realloc_base              00000001801d1f20 f   libucrt:realloc_base.obj
 0001:001d0f9c       __ascii_wcsnicmp           00000001801d1f9c f   libucrt:wcsnicmp.obj
 0001:001d1060       _close_internal            00000001801d2060 f   libucrt:close.obj
 0001:001d1124       _close_nolock_internal     00000001801d2124 f   libucrt:close.obj
 0001:001d11f4       ?__acrt_stdio_free_stream@@YAXV__crt_stdio_stream@@@Z 00000001801d21f4 f   libucrt:stream.obj
 0001:001d13e4       _lseeki64                  00000001801d23e4 f   libucrt:lseek.obj
 0001:001d1480       _lseeki64_nolock_internal  00000001801d2480 f   libucrt:lseek.obj
 0001:001d1488       _putwch_nolock             00000001801d2488 f   libucrt:putwch.obj
 0001:001d14c4       _query_app_type            00000001801d24c4 f   libucrt:report_runtime_error.obj
 0001:001d14cc       _controlfp_s               00000001801d24cc f   libucrt:contrlfp.obj
 0001:001d1530       fegetenv                   00000001801d2530 f   libucrt:fegetenv.obj
 0001:001d1550       fesetenv                   00000001801d2550 f   libucrt:fesetenv.obj
 0001:001d159c       feholdexcept               00000001801d259c f   libucrt:feholdexcept.obj
 0001:001d15ec       ceil                       00000001801d25ec f   libucrt:ceil.obj
 0001:001d16b0       log10                      00000001801d26b0 f   libucrt:log10.obj
 0001:001d1c5c       __acrt_fenv_get_common_round_control 00000001801d2c5c f   libucrt:_fenvutils.obj
 0001:001d1c68       __acrt_fenv_get_control    00000001801d2c68 f   libucrt:_fenvutils.obj
 0001:001d1d4c       __acrt_fenv_get_status     00000001801d2d4c f   libucrt:_fenvutils.obj
 0001:001d1da4       __acrt_fenv_set_control    00000001801d2da4 f   libucrt:_fenvutils.obj
 0001:001d1ee0       __acrt_fenv_set_status     00000001801d2ee0 f   libucrt:_fenvutils.obj
 0001:001d1f54       ?reset_and_return@__crt_mbstring@@YA_K_KPEAU_Mbstatet@@@Z 00000001801d2f54 f   libucrt:common_utf8.obj
 0001:001d1f5c       ?return_illegal_sequence@__crt_mbstring@@YA_KPEAU_Mbstatet@@AEAV__crt_cached_ptd_host@@@Z 00000001801d2f5c f   libucrt:common_utf8.obj
 0001:001d1f70       ?__mbrtoc32_utf8@__crt_mbstring@@YA_KPEA_UPEBD_KPEAU_Mbstatet@@AEAV__crt_cached_ptd_host@@@Z 00000001801d2f70 f   libucrt:mbrtoc32.obj
 0001:001d214c       __acrt_stdio_allocate_buffer_nolock 00000001801d314c f   libucrt:_getbuf.obj
 0001:001d21b8       __strncnt                  00000001801d31b8 f   libucrt:strncnt.obj
 0001:001d21d0       __dcrt_lowio_ensure_console_output_initialized 00000001801d31d0 f   libucrt:initcon.obj
 0001:001d2224       __dcrt_terminate_console_output 00000001801d3224 f   libucrt:initcon.obj
 0001:001d2240       __dcrt_write_console       00000001801d3240 f   libucrt:initcon.obj
 0001:001d2300       _clearfp                   00000001801d3300 f   libucrt:ieee.obj
 0001:001d2370       _control87                 00000001801d3370 f   libucrt:ieee.obj
 0001:001d2640       _log10_special             00000001801d3640 f   libucrt:log_special.obj
 0001:001d2700       _FindPESection             00000001801d3700 f   LIBCMT:pesect.obj
 0001:001d2750       _IsNonwritableInCurrentImage 00000001801d3750 f   LIBCMT:pesect.obj
 0001:001d27a0       _ValidateImageBase         00000001801d37a0 f   LIBCMT:pesect.obj
 0001:001d27cc       __GSHandlerCheck           00000001801d37cc f   LIBCMT:gshandler.obj
 0001:001d27ec       __GSHandlerCheckCommon     00000001801d37ec f   LIBCMT:gshandler.obj
 0001:001d2860       __security_check_cookie    00000001801d3860 f   LIBCMT:amdsecgs.obj
 0001:001d2880       __GSHandlerCheck_SEH       00000001801d3880 f   LIBCMT:gshandlerseh.obj
 0001:001d2908       __raise_securityfailure    00000001801d3908 f   LIBCMT:gs_report.obj
 0001:001d293c       __report_gsfailure         00000001801d393c f   LIBCMT:gs_report.obj
 0001:001d2a10       __report_rangecheckfailure 00000001801d3a10 f   LIBCMT:gs_report.obj
 0001:001d2a24       __report_securityfailure   00000001801d3a24 f   LIBCMT:gs_report.obj
 0001:001d2ba4       __GSHandlerCheck_EH        00000001801d3ba4 f   LIBCMT:gshandlereh.obj
 0001:001d2c24       __C_specific_handler_noexcept 00000001801d3c24 f   libvcruntime:chandler_noexcept.obj
 0001:001d2c70       strrchr                    00000001801d3c70 f   libvcruntime:strrchr.obj
 0001:001d2dc0       memcmp                     00000001801d3dc0 f   libvcruntime:memcmp.obj
 0001:001d2ea0       _guard_dispatch_icall_nop  00000001801d3ea0 f   LIBCMT:guard_dispatch.obj
 0001:001d2ec0       _guard_xfg_dispatch_icall_nop 00000001801d3ec0 f   LIBCMT:guard_xfg_dispatch.obj
 0002:00000000       __imp_GetLastError         00000001801d5000     kernel32:KERNEL32.dll
 0002:00000008       __imp_FreeLibrary          00000001801d5008     kernel32:KERNEL32.dll
 0002:00000010       __imp_GetProcAddress       00000001801d5010     kernel32:KERNEL32.dll
 0002:00000018       __imp_LoadLibraryA         00000001801d5018     kernel32:KERNEL32.dll
 0002:00000020       __imp_WriteConsoleW        00000001801d5020     kernel32:KERNEL32.dll
 0002:00000028       __imp_RaiseException       00000001801d5028     kernel32:KERNEL32.dll
 0002:00000030       __imp_GetSystemInfo        00000001801d5030     kernel32:KERNEL32.dll
 0002:00000038       __imp_VirtualProtect       00000001801d5038     kernel32:KERNEL32.dll
 0002:00000040       __imp_VirtualQuery         00000001801d5040     kernel32:KERNEL32.dll
 0002:00000048       __imp_GetModuleHandleW     00000001801d5048     kernel32:KERNEL32.dll
 0002:00000050       __imp_LoadLibraryExA       00000001801d5050     kernel32:KERNEL32.dll
 0002:00000058       __imp_InitializeSListHead  00000001801d5058     kernel32:KERNEL32.dll
 0002:00000060       __imp_RtlCaptureContext    00000001801d5060     kernel32:KERNEL32.dll
 0002:00000068       __imp_RtlLookupFunctionEntry 00000001801d5068     kernel32:KERNEL32.dll
 0002:00000070       __imp_RtlVirtualUnwind     00000001801d5070     kernel32:KERNEL32.dll
 0002:00000078       __imp_IsDebuggerPresent    00000001801d5078     kernel32:KERNEL32.dll
 0002:00000080       __imp_UnhandledExceptionFilter 00000001801d5080     kernel32:KERNEL32.dll
 0002:00000088       __imp_SetUnhandledExceptionFilter 00000001801d5088     kernel32:KERNEL32.dll
 0002:00000090       __imp_GetStartupInfoW      00000001801d5090     kernel32:KERNEL32.dll
 0002:00000098       __imp_IsProcessorFeaturePresent 00000001801d5098     kernel32:KERNEL32.dll
 0002:000000a0       __imp_QueryPerformanceCounter 00000001801d50a0     kernel32:KERNEL32.dll
 0002:000000a8       __imp_GetCurrentProcessId  00000001801d50a8     kernel32:KERNEL32.dll
 0002:000000b0       __imp_GetCurrentThreadId   00000001801d50b0     kernel32:KERNEL32.dll
 0002:000000b8       __imp_GetSystemTimeAsFileTime 00000001801d50b8     kernel32:KERNEL32.dll
 0002:000000c0       __imp_InterlockedPushEntrySList 00000001801d50c0     kernel32:KERNEL32.dll
 0002:000000c8       __imp_InterlockedFlushSList 00000001801d50c8     kernel32:KERNEL32.dll
 0002:000000d0       __imp_RtlUnwindEx          00000001801d50d0     kernel32:KERNEL32.dll
 0002:000000d8       __imp_SetLastError         00000001801d50d8     kernel32:KERNEL32.dll
 0002:000000e0       __imp_EnterCriticalSection 00000001801d50e0     kernel32:KERNEL32.dll
 0002:000000e8       __imp_LeaveCriticalSection 00000001801d50e8     kernel32:KERNEL32.dll
 0002:000000f0       __imp_DeleteCriticalSection 00000001801d50f0     kernel32:KERNEL32.dll
 0002:000000f8       __imp_InitializeCriticalSectionAndSpinCount 00000001801d50f8     kernel32:KERNEL32.dll
 0002:00000100       __imp_TlsAlloc             00000001801d5100     kernel32:KERNEL32.dll
 0002:00000108       __imp_TlsGetValue          00000001801d5108     kernel32:KERNEL32.dll
 0002:00000110       __imp_TlsSetValue          00000001801d5110     kernel32:KERNEL32.dll
 0002:00000118       __imp_TlsFree              00000001801d5118     kernel32:KERNEL32.dll
 0002:00000120       __imp_LoadLibraryExW       00000001801d5120     kernel32:KERNEL32.dll
 0002:00000128       __imp_EncodePointer        00000001801d5128     kernel32:KERNEL32.dll
 0002:00000130       __imp_RtlPcToFileHeader    00000001801d5130     kernel32:KERNEL32.dll
 0002:00000138       __imp_RtlUnwind            00000001801d5138     kernel32:KERNEL32.dll
 0002:00000140       __imp_GetCurrentProcess    00000001801d5140     kernel32:KERNEL32.dll
 0002:00000148       __imp_ExitProcess          00000001801d5148     kernel32:KERNEL32.dll
 0002:00000150       __imp_TerminateProcess     00000001801d5150     kernel32:KERNEL32.dll
 0002:00000158       __imp_GetModuleHandleExW   00000001801d5158     kernel32:KERNEL32.dll
 0002:00000160       __imp_GetModuleFileNameW   00000001801d5160     kernel32:KERNEL32.dll
 0002:00000168       __imp_HeapAlloc            00000001801d5168     kernel32:KERNEL32.dll
 0002:00000170       __imp_HeapFree             00000001801d5170     kernel32:KERNEL32.dll
 0002:00000178       __imp_FlsAlloc             00000001801d5178     kernel32:KERNEL32.dll
 0002:00000180       __imp_FlsGetValue          00000001801d5180     kernel32:KERNEL32.dll
 0002:00000188       __imp_FlsSetValue          00000001801d5188     kernel32:KERNEL32.dll
 0002:00000190       __imp_FlsFree              00000001801d5190     kernel32:KERNEL32.dll
 0002:00000198       __imp_LCMapStringW         00000001801d5198     kernel32:KERNEL32.dll
 0002:000001a0       __imp_GetStdHandle         00000001801d51a0     kernel32:KERNEL32.dll
 0002:000001a8       __imp_GetFileType          00000001801d51a8     kernel32:KERNEL32.dll
 0002:000001b0       __imp_FindClose            00000001801d51b0     kernel32:KERNEL32.dll
 0002:000001b8       __imp_FindFirstFileExW     00000001801d51b8     kernel32:KERNEL32.dll
 0002:000001c0       __imp_FindNextFileW        00000001801d51c0     kernel32:KERNEL32.dll
 0002:000001c8       __imp_IsValidCodePage      00000001801d51c8     kernel32:KERNEL32.dll
 0002:000001d0       __imp_GetACP               00000001801d51d0     kernel32:KERNEL32.dll
 0002:000001d8       __imp_GetOEMCP             00000001801d51d8     kernel32:KERNEL32.dll
 0002:000001e0       __imp_GetCPInfo            00000001801d51e0     kernel32:KERNEL32.dll
 0002:000001e8       __imp_GetCommandLineA      00000001801d51e8     kernel32:KERNEL32.dll
 0002:000001f0       __imp_GetCommandLineW      00000001801d51f0     kernel32:KERNEL32.dll
 0002:000001f8       __imp_MultiByteToWideChar  00000001801d51f8     kernel32:KERNEL32.dll
 0002:00000200       __imp_WideCharToMultiByte  00000001801d5200     kernel32:KERNEL32.dll
 0002:00000208       __imp_GetEnvironmentStringsW 00000001801d5208     kernel32:KERNEL32.dll
 0002:00000210       __imp_FreeEnvironmentStringsW 00000001801d5210     kernel32:KERNEL32.dll
 0002:00000218       __imp_GetProcessHeap       00000001801d5218     kernel32:KERNEL32.dll
 0002:00000220       __imp_FlushFileBuffers     00000001801d5220     kernel32:KERNEL32.dll
 0002:00000228       __imp_WriteFile            00000001801d5228     kernel32:KERNEL32.dll
 0002:00000230       __imp_GetConsoleOutputCP   00000001801d5230     kernel32:KERNEL32.dll
 0002:00000238       __imp_GetConsoleMode       00000001801d5238     kernel32:KERNEL32.dll
 0002:00000240       __imp_SetStdHandle         00000001801d5240     kernel32:KERNEL32.dll
 0002:00000248       __imp_GetFileSizeEx        00000001801d5248     kernel32:KERNEL32.dll
 0002:00000250       __imp_SetFilePointerEx     00000001801d5250     kernel32:KERNEL32.dll
 0002:00000258       __imp_GetStringTypeW       00000001801d5258     kernel32:KERNEL32.dll
 0002:00000260       __imp_HeapSize             00000001801d5260     kernel32:KERNEL32.dll
 0002:00000268       __imp_HeapReAlloc          00000001801d5268     kernel32:KERNEL32.dll
 0002:00000270       __imp_CloseHandle          00000001801d5270     kernel32:KERNEL32.dll
 0002:00000278       __imp_CreateFileW          00000001801d5278     kernel32:KERNEL32.dll
 0002:00000280       \177KERNEL32_NULL_THUNK_DATA 00000001801d5280     kernel32:KERNEL32.dll
 0002:00000288       __guard_check_icall_fptr   00000001801d5288     LIBCMT:guard_support.obj
 0002:00000290       __guard_xfg_check_icall_fptr 00000001801d5290     LIBCMT:guard_support.obj
 0002:00000298       __guard_dispatch_icall_fptr 00000001801d5298     LIBCMT:guard_support.obj
 0002:000002a0       __guard_xfg_dispatch_icall_fptr 00000001801d52a0     LIBCMT:guard_support.obj
 0002:000002a8       __guard_xfg_table_dispatch_icall_fptr 00000001801d52a8     LIBCMT:guard_support.obj
 0002:000002b0       __castguard_check_failure_os_handled_fptr 00000001801d52b0     LIBCMT:guard_support.obj
 0002:000002b8       __guard_memcpy_fptr        00000001801d52b8     libvcruntime:softmemtag.obj
 0002:000002c0       __xc_a                     00000001801d52c0     LIBCMT:initializers.obj
 0002:00001c68       __xc_z                     00000001801d6c68     LIBCMT:initializers.obj
 0002:00001c70       __xi_a                     00000001801d6c70     LIBCMT:initializers.obj
 0002:00001c78       __acrt_stdio_initializer   00000001801d6c78     libucrt:stdio_initializer.obj
 0002:00001c80       __acrt_tran_fma3_initializer 00000001801d6c80     libucrt:fma3_initializer.obj
 0002:00001c88       __acrt_multibyte_initializer 00000001801d6c88     libucrt:multibyte_initializer.obj
 0002:00001c90       __xi_z                     00000001801d6c90     LIBCMT:initializers.obj
 0002:00001c98       __xp_a                     00000001801d6c98     LIBCMT:initializers.obj
 0002:00001ca0       __acrt_locale_terminator   00000001801d6ca0     libucrt:locale_initializer.obj
 0002:00001ca8       __dcrt_console_output_terminator 00000001801d6ca8     libucrt:console_output_initializer.obj
 0002:00001cb0       __acrt_stdio_terminator    00000001801d6cb0     libucrt:stdio_initializer.obj
 0002:00001cb8       __xp_z                     00000001801d6cb8     LIBCMT:initializers.obj
 0002:00001cc0       __xt_a                     00000001801d6cc0     LIBCMT:initializers.obj
 0002:00001cc8       __xt_z                     00000001801d6cc8     LIBCMT:initializers.obj
 0002:00001cd0       ??_C@_08MDGMHCHN@PtrTable@ 00000001801d6cd0     CmPtrTable.obj
 0002:00001cdc       ??_C@_04GKJNKENE@void@     00000001801d6cdc     CmPtrTable.obj
 0002:00001ce8       ??_C@_07DFEBJDHE@mSingle@  00000001801d6ce8     CmPtrTable.obj
 0002:00001cf0       ??_C@_05NLHHBMOH@PxU16@    00000001801d6cf0     CmPtrTable.obj
 0002:00001cf8       ??_C@_06EPKHJPIM@mCount@   00000001801d6cf8     CmPtrTable.obj
 0002:00001d00       ??_C@_04DDKJGDCM@bool@     00000001801d6d00     CmPtrTable.obj
 0002:00001d08       ??_C@_0M@DAGELID@mOwnsMemory@ 00000001801d6d08     CmPtrTable.obj
 0002:00001d18       ??_C@_0M@MMPOMMLP@mBufferUsed@ 00000001801d6d18     CmPtrTable.obj
 0002:00001d24       ??_C@_05LMJPANIN@PxU32@    00000001801d6d24     CmPtrTable.obj
 0002:00001d30       ??_C@_09PMLNMEMN@mFreeSlot@ 00000001801d6d30     CmPtrTable.obj
 0002:00001d40       ??_7PxCollection@physx@@6B@ 00000001801d6d40     CmCollection.obj
 0002:00001dc0       ??_C@_00CNPNBAHC@@         00000001801d6dc0     CmCollection.obj
 0002:00001dc8       ??_7Collection@Cm@physx@@6B@ 00000001801d6dc8     CmCollection.obj
 0002:00001e50       ??_C@_0GE@GBACBMOC@PxCollection?3?3add?5called?5for?5an@ 00000001801d6e50     CmCollection.obj
 0002:00001ec0       ??_C@_0FH@CNBKOMJB@D?3?2Repositories?2PhysX?2PhysX?9105@ 00000001801d6ec0     CmCollection.obj
 0002:00001f20       ??_C@_0EM@OMMGDOMK@PxCollection?3?3add?5called?5with?5a@ 00000001801d6f20     CmCollection.obj
 0002:00001f70       ??_C@_0FJ@FPCGEDFE@D?3?2Repositories?2PhysX?2PhysX?9105@ 00000001801d6f70     CmCollection.obj
 0002:00001fd0       ??_C@_0BM@OIFKLHDN@?$DMallocation?5names?5disabled?$DO@ 00000001801d6fd0     CmCollection.obj
 0002:00001ff0       ??_7RadixSort@Cm@physx@@6B@ 00000001801d6ff0     CmRadixSort.obj
 0002:00001ff8       ??_7RadixSortBuffered@Cm@physx@@6B@ 00000001801d6ff8     CmRadixSort.obj
 0002:00002000       ??_C@_0FG@MAJDHOMO@D?3?2Repositories?2PhysX?2PhysX?9105@ 00000001801d7000     CmRadixSort.obj
 0002:00002060       __xmm@00000001000000010000000100000001 00000001801d7060     CmRadixSort.obj
 0002:00002070       __xmm@00000003000000020000000100000000 00000001801d7070     CmRadixSort.obj
 0002:00002080       __real@3d4ccccd            00000001801d7080     CmVisualization.obj
 0002:00002084       __real@3e19999a            00000001801d7084     CmVisualization.obj
 0002:00002088       __real@3e490fdb            00000001801d7088     CmVisualization.obj
 0002:0000208c       __real@3e800000            00000001801d708c     CmVisualization.obj
 0002:00002090       __real@3e99999a            00000001801d7090     CmVisualization.obj
 0002:00002094       __real@3ea0d97c            00000001801d7094     CmVisualization.obj
 0002:00002098       __real@3eddb3d7            00000001801d7098     CmVisualization.obj
 0002:0000209c       __real@3f3504f3            00000001801d709c     CmVisualization.obj
 0002:000020a0       __real@3f800000            00000001801d70a0     CmVisualization.obj
 0002:000020a4       __real@3fc00000            00000001801d70a4     CmVisualization.obj
 0002:000020a8       __real@3fddb3d7            00000001801d70a8     CmVisualization.obj
 0002:000020ac       __real@40100000            00000001801d70ac     CmVisualization.obj
 0002:000020b0       __real@40c90fdb            00000001801d70b0     CmVisualization.obj
 0002:000020b4       __real@bfddb3d7            00000001801d70b4     CmVisualization.obj
 0002:000020b8       __real@c0000000            00000001801d70b8     CmVisualization.obj
 0002:000020c0       __xmm@3f800000000000000000000000000000 00000001801d70c0     CmVisualization.obj
 0002:000020d0       __xmm@7fffffff7fffffff7fffffff7fffffff 00000001801d70d0     CmVisualization.obj
 0002:000020e0       __xmm@80000000800000008000000080000000 00000001801d70e0     CmVisualization.obj
 0002:000020f0       ??_C@_0BB@CPDDPFKD@GetUpdatedModule@ 00000001801d70f0     CmWindowsModuleUpdateLoader.obj
 0002:00002110       ??_C@_0GO@FPCOIPMO@D?3?2Repositories?2PhysX?2PhysX?9105@ 00000001801d7110     CmWindowsModuleUpdateLoader.obj
 0002:00002180       ??_C@_0CP@PGOIOJOO@?$CFs?3?$CFi?3?5loadLibrary?5error?5when?5l@ 00000001801d7180     CmWindowsModuleUpdateLoader.obj
 0002:000021b0       ??_C@_0BA@EGLNOO@PhysXFoundation@ 00000001801d71b0     CmWindowsDelayLoadHook.obj
 0002:000021c0       ??_C@_0M@ILKNCJKN@PhysXCommon@ 00000001801d71c0     CmWindowsDelayLoadHook.obj
 0002:000021f0       __real@3f000000            00000001801d71f0     GuBox.obj
 0002:000021f4       __real@3f7ff972            00000001801d71f4     GuBox.obj
 0002:00002200       __xmm@000000003a83126f3a83126f3a83126f 00000001801d7200     GuBox.obj
 0002:00002210       __xmm@00000000ba83126fba83126fba83126f 00000001801d7210     GuBox.obj
 0002:00002220       __xmm@3a83126f3a83126f3a83126f3a83126f 00000001801d7220     GuBox.obj
 0002:00002230       __xmm@ba83126fba83126fba83126fba83126f 00000001801d7230     GuBox.obj
 0002:00002260       ??_7EntityReport@Gu@physx@@6B@ 00000001801d7260     GuSweepsHF.obj
 0002:00002260       ??_7OverlapCallback@PxBVH@physx@@6B@ 00000001801d7260     GuQuerySystem.obj
 0002:00002260       ??_7OverlapReport@Gu@physx@@6B@ 00000001801d7260     GuCCTSweepTests.obj
 0002:00002260       ??_7RaycastCallback@PxBVH@physx@@6B@ 00000001801d7260     GuQuerySystem.obj
 0002:00002260       ??_7RemapCallback@RTreeCooker@physx@@6B@ 00000001801d7260     GuCookingTriangleMesh.obj
 0002:00002280       __real@3b03126f            00000001801d7280     GuCCTSweepTests.obj
 0002:00002284       __real@40000000            00000001801d7284     GuCCTSweepTests.obj
 0002:000022c0       ??_7SupportLocal@Gu@physx@@6B@ 00000001801d72c0     GuGeometryQuery.obj
 0002:000022e0       ??_7?$SupportLocalImpl@VBoxV@Gu@physx@@@Gu@physx@@6B@ 00000001801d72e0     GuGeometryQuery.obj
 0002:00002300       ??_7?$SupportLocalImpl@VConvexHullV@Gu@physx@@@Gu@physx@@6B@ 00000001801d7300     GuGeometryQuery.obj
 0002:00002320       ??_C@_0FB@HGJJDNBK@D?3?2Repositories?2PhysX?2PhysX?9105@ 00000001801d7320     GuGeometryQuery.obj
 0002:00002374       __real@30d1b7e9            00000001801d7374     GuGeometryQuery.obj
 0002:00002378       __real@322bcc77            00000001801d7378     GuGeometryQuery.obj
 0002:0000237c       __real@358637bd            00000001801d737c     GuGeometryQuery.obj
 0002:00002380       __real@3a83126f            00000001801d7380     GuGeometryQuery.obj
 0002:00002384       __real@3ccccccd            00000001801d7384     GuGeometryQuery.obj
 0002:00002388       __real@3dcccccd            00000001801d7388     GuGeometryQuery.obj
 0002:0000238c       __real@49742400            00000001801d738c     GuGeometryQuery.obj
 0002:00002390       __real@7f7fffff            00000001801d7390     GuGeometryQuery.obj
 0002:00002394       __real@bf800000            00000001801d7394     GuGeometryQuery.obj
 0002:000023a0       __xmm@0000000000000000000000003f800000 00000001801d73a0     GuGeometryQuery.obj
 0002:000023b0       __xmm@00000000000000003f80000000000000 00000001801d73b0     GuGeometryQuery.obj
 0002:000023c0       __xmm@00000000000000003f8000003f800000 00000001801d73c0     GuGeometryQuery.obj
 0002:000023d0       __xmm@000000003f8000000000000000000000 00000001801d73d0     GuGeometryQuery.obj
 0002:000023e0       __xmm@000000003f8000003f8000003f800000 00000001801d73e0     GuGeometryQuery.obj
 0002:000023f0       __xmm@00000000ffffffffffffffffffffffff 00000001801d73f0     GuGeometryQuery.obj
 0002:00002400       __xmm@3d4ccccd3d4ccccd3d4ccccd3d4ccccd 00000001801d7400     GuGeometryQuery.obj
 0002:00002410       __xmm@3e19999a3e19999a3e19999a3e19999a 00000001801d7410     GuGeometryQuery.obj
 0002:00002420       __xmm@3e4ccccd3e4ccccd3e4ccccd3e4ccccd 00000001801d7420     GuGeometryQuery.obj
 0002:00002430       __xmm@3e8000003e8000003e8000003e800000 00000001801d7430     GuGeometryQuery.obj
 0002:00002440       __xmm@3f7ef9db3f7ef9db3f7ef9db3f7ef9db 00000001801d7440     GuGeometryQuery.obj
 0002:00002450       __xmm@3f7ff2e53f7ff2e53f7ff2e53f7ff2e5 00000001801d7450     GuGeometryQuery.obj
 0002:00002460       __xmm@3f8000003f8000003f8000003f800000 00000001801d7460     GuGeometryQuery.obj
 0002:00002470       __xmm@7f7fffff7f7fffff7f7fffff7f7fffff 00000001801d7470     GuGeometryQuery.obj
 0002:00002480       __xmm@bf000000bf000000bf000000bf000000 00000001801d7480     GuGeometryQuery.obj
 0002:000024b0       ??_C@_0FL@LDHENFIO@D?3?2Repositories?2PhysX?2PhysX?9105@ 00000001801d74b0     GuMeshFactory.obj
 0002:00002520       ??_C@_0EM@BDFDGBD@Inserting?5object?5failed?3?5Object@ 00000001801d7520     GuMeshFactory.obj
 0002:00002590       ??_7CallbackRaycast@RTree@Gu@physx@@6B@ 00000001801d7590     GuMidphaseRTree.obj
 0002:00002590       ??_7CallbackRefit@RTree@Gu@physx@@6B@ 00000001801d7590     GuTriangleMeshRTree.obj
 0002:00002590       ??_7PxInsertionCallback@physx@@6B@ 00000001801d7590     GuMeshFactory.obj
 0002:000025a0       ??_7PxCollisionMeshMappingData@physx@@6B@ 00000001801d75a0     GuMeshFactory.obj
 0002:000025b0       ??_7MeshFactory@Gu@physx@@6B@ 00000001801d75b0     GuMeshFactory.obj
 0002:000025b8       ??_7MeshDataBase@Gu@physx@@6B@ 00000001801d75b8     GuMeshFactory.obj
 0002:000025c0       ??_C@_0FL@FNKCNLAJ@D?3?2Repositories?2PhysX?2PhysX?9105@ 00000001801d75c0     GuMeshFactory.obj
 0002:00002620       ??_7TriangleMeshData@Gu@physx@@6B@ 00000001801d7620     GuMeshFactory.obj
 0002:00002628       ??_7RTreeTriangleData@Gu@physx@@6B@ 00000001801d7628     GuMeshFactory.obj
 0002:00002630       ??_7BV4TriangleData@Gu@physx@@6B@ 00000001801d7630     GuMeshFactory.obj
 0002:00002638       ??_7SoftBodyCollisionData@Gu@physx@@6B@ 00000001801d7638     GuMeshFactory.obj
 0002:00002640       ??_7CollisionMeshMappingData@Gu@physx@@6B@ 00000001801d7640     GuMeshFactory.obj
 0002:00002650       ??_7SoftBodySimulationData@Gu@physx@@6B@ 00000001801d7650     GuMeshFactory.obj
 0002:00002660       ??_C@_0GP@NHELMDAL@Loading?5triangle?5mesh?5failed?3?5D@ 00000001801d7660     GuMeshFactory.obj
 0002:000026d0       ??_C@_0BP@CDOKDACA@RTree?5binary?5image?5load?5error?4@ 00000001801d76d0     GuMeshFactory.obj
 0002:000026f0       ??_C@_0BN@MJPNIELF@BV4?5binary?5image?5load?5error?4@ 00000001801d76f0     GuMeshFactory.obj
 0002:00002710       ??_C@_0BO@JDPABAOF@BV32?5binary?5image?5load?5error?4@ 00000001801d7710     GuMeshFactory.obj
 0002:00002730       ??_C@_0FB@HPPEDEGD@D?3?2Repositories?2PhysX?2PhysX?9105@ 00000001801d7730     GuMeshFactory.obj
 0002:00002790       __xmm@fe7fffff7e7fffff7e7fffff7e7fffff 00000001801d7790     GuMeshFactory.obj
 0002:000027c0       ??_C@_06EJKDJEDO@PxBase@   00000001801d77c0     GuMetaData.obj
 0002:000027c8       ??_C@_07GFCEJNGM@Valency@  00000001801d77c8     GuMetaData.obj
 0002:000027d0       ??_C@_07NHGKEEIN@mOffset@  00000001801d77d0     GuMetaData.obj
 0002:000027d8       ??_C@_0BB@BAGHBMNJ@BigConvexRawData@ 00000001801d77d8     GuMetaData.obj
 0002:000027f0       ??_C@_07PBDEJAAC@mSubdiv@  00000001801d77f0     GuMetaData.obj
 0002:000027f8       ??_C@_0L@HNPACPGH@mNbSamples@ 00000001801d77f8     GuMetaData.obj
 0002:00002804       ??_C@_04NCKNBPPK@PxU8@     00000001801d7804     GuMetaData.obj
 0002:00002810       ??_C@_08DEPEKJNI@mSamples@ 00000001801d7810     GuMetaData.obj
 0002:00002820       ??_C@_08IJDNJBMI@mNbVerts@ 00000001801d7820     GuMetaData.obj
 0002:00002830       ??_C@_0M@MMKMIJAF@mNbAdjVerts@ 00000001801d7830     GuMetaData.obj
 0002:00002840       ??_C@_0L@EOKMNILC@mValencies@ 00000001801d7840     GuMetaData.obj
 0002:00002850       ??_C@_0P@DLGEAMHJ@mAdjacentVerts@ 00000001801d7850     GuMetaData.obj
 0002:00002860       ??_C@_03NGLDENDA@SDF@      00000001801d7860     GuMetaData.obj
 0002:00002864       ??_C@_06KDGGGLIJ@PxVec3@   00000001801d7864     GuMetaData.obj
 0002:0000286c       ??_C@_06GIEBFILM@PxReal@   00000001801d786c     GuMetaData.obj
 0002:00002878       ??_C@_0O@PFOPBKAM@BigConvexData@ 00000001801d7878     GuMetaData.obj
 0002:00002888       ??_C@_05PLKALGFN@mData@    00000001801d7888     GuMetaData.obj
 0002:00002890       ??_C@_08PEMCLHEM@mVBuffer@ 00000001801d7890     GuMetaData.obj
 0002:000028a0       ??_C@_09FBMAGD@Alignment@  00000001801d78a0     GuMetaData.obj
 0002:000028b0       ??_C@_0BE@KFHIBEEA@InternalObjectsData@ 00000001801d78b0     GuMetaData.obj
 0002:000028c8       ??_C@_07NKGFFIBH@mRadius@  00000001801d78c8     GuMetaData.obj
 0002:000028d0       ??_C@_08EHFCACAE@mExtents@ 00000001801d78d0     GuMetaData.obj
 0002:000028e0       ??_C@_0BA@LFMGGCBK@HullPolygonData@ 00000001801d78e0     GuMetaData.obj
 0002:000028f0       ??_C@_06BOHHGLB@mPlane@    00000001801d78f0     GuMetaData.obj
 0002:000028f8       ??_C@_06EHMLHGLN@mVRef8@   00000001801d78f8     GuMetaData.obj
 0002:00002900       ??_C@_09BAHHHINI@mMinIndex@ 00000001801d7900     GuMetaData.obj
 0002:00002910       ??_C@_0P@GBLBPIPB@ConvexHullData@ 00000001801d7910     GuMetaData.obj
 0002:00002920       ??_C@_09JDCJAPKD@PxBounds3@ 00000001801d7920     GuMetaData.obj
 0002:0000292c       ??_C@_05NDNHIFA@mAABB@     00000001801d792c     GuMetaData.obj
 0002:00002938       ??_C@_0O@LNOGEMJI@mCenterOfMass@ 00000001801d7938     GuMetaData.obj
 0002:00002948       ??_C@_09CNMCBBKH@mPolygons@ 00000001801d7948     GuMetaData.obj
 0002:00002958       ??_C@_0BC@KKPDCFJC@mBigConvexRawData@ 00000001801d7958     GuMetaData.obj
 0002:00002970       ??_C@_08MPNAAJLD@mSdfData@ 00000001801d7970     GuMetaData.obj
 0002:00002980       ??_C@_08ELDMKGKH@mNbEdges@ 00000001801d7980     GuMetaData.obj
 0002:00002990       ??_C@_0BA@CGLOHBAC@mNbHullVertices@ 00000001801d7990     GuMetaData.obj
 0002:000029a0       ??_C@_0M@HGFFLLDM@mNbPolygons@ 00000001801d79a0     GuMetaData.obj
 0002:000029b0       ??_C@_09BHJEMDGO@mInternal@ 00000001801d79b0     GuMetaData.obj
 0002:000029c0       ??_C@_0L@GMFHOMKA@ConvexMesh@ 00000001801d79c0     GuMetaData.obj
 0002:000029d0       ??_C@_09ILEBDLJH@mHullData@ 00000001801d79d0     GuMetaData.obj
 0002:000029dc       ??_C@_03DKDIKGNC@mNb@      00000001801d79dc     GuMetaData.obj
 0002:000029e0       ??_C@_0P@ENLHFHMD@mBigConvexData@ 00000001801d79e0     GuMetaData.obj
 0002:000029f0       ??_C@_05ILALLCHK@mMass@    00000001801d79f0     GuMetaData.obj
 0002:000029f8       ??_C@_07DBPDADGB@PxMat33@  00000001801d79f8     GuMetaData.obj
 0002:00002a00       ??_C@_08FNBHNDBI@mInertia@ 00000001801d7a00     GuMetaData.obj
 0002:00002a10       ??_C@_0O@FCKNKLMJ@GuMeshFactory@ 00000001801d7a10     GuMetaData.obj
 0002:00002a20       ??_C@_0N@EGBCLMAK@mMeshFactory@ 00000001801d7a20     GuMetaData.obj
 0002:00002a30       ??_C@_0BE@CJJAMAMK@PxHeightFieldSample@ 00000001801d7a30     GuMetaData.obj
 0002:00002a44       ??_C@_05MBLIPEMA@PxI16@    00000001801d7a44     GuMetaData.obj
 0002:00002a4c       ??_C@_06LNLHEAAG@height@   00000001801d7a4c     GuMetaData.obj
 0002:00002a58       ??_C@_0N@HHDGHJN@PxBitAndByte@ 00000001801d7a58     GuMetaData.obj
 0002:00002a68       ??_C@_0P@MBBMLBO@materialIndex0@ 00000001801d7a68     GuMetaData.obj
 0002:00002a78       ??_C@_0P@BFAKPKFP@materialIndex1@ 00000001801d7a78     GuMetaData.obj
 0002:00002a88       ??_C@_0BD@EBLPJEOE@PxHeightFieldFlags@ 00000001801d7a88     GuMetaData.obj
 0002:00002aa0       ??_C@_0BK@FNNCFFCN@PxHeightFieldFormat?3?3Enum@ 00000001801d7aa0     GuMetaData.obj
 0002:00002ac0       ??_C@_0BA@CLNFMAAA@HeightFieldData@ 00000001801d7ac0     GuMetaData.obj
 0002:00002ad0       ??_C@_04IMCGAIPI@rows@     00000001801d7ad0     GuMetaData.obj
 0002:00002ad8       ??_C@_07HIFEPIJN@columns@  00000001801d7ad8     GuMetaData.obj
 0002:00002ae0       ??_C@_08MOAGOABI@rowLimit@ 00000001801d7ae0     GuMetaData.obj
 0002:00002af0       ??_C@_08BAGEHOBO@colLimit@ 00000001801d7af0     GuMetaData.obj
 0002:00002b00       ??_C@_09LKDBLADF@nbColumns@ 00000001801d7b00     GuMetaData.obj
 0002:00002b10       ??_C@_07ODIFGGLK@samples@  00000001801d7b10     GuMetaData.obj
 0002:00002b18       ??_C@_0BE@POHEGOJG@convexEdgeThreshold@ 00000001801d7b18     GuMetaData.obj
 0002:00002b2c       ??_C@_05GECEPKB@flags@     00000001801d7b2c     GuMetaData.obj
 0002:00002b34       ??_C@_06DLEPGFEF@format@   00000001801d7b34     GuMetaData.obj
 0002:00002b40       ??_C@_0BF@MOGDNMPL@PxMaterialTableIndex@ 00000001801d7b40     GuMetaData.obj
 0002:00002b58       ??_C@_0M@JMJICJJO@HeightField@ 00000001801d7b58     GuMetaData.obj
 0002:00002b68       ??_C@_0O@ENGHMLJP@mSampleStride@ 00000001801d7b68     GuMetaData.obj
 0002:00002b78       ??_C@_0L@EBEEMFFB@mMinHeight@ 00000001801d7b78     GuMetaData.obj
 0002:00002b88       ??_C@_0L@EAEIFPOF@mMaxHeight@ 00000001801d7b88     GuMetaData.obj
 0002:00002b98       ??_C@_0N@FEFJOKKE@mModifyCount@ 00000001801d7b98     GuMetaData.obj
 0002:00002ba8       ??_C@_09PHDKHCK@RTreePage@ 00000001801d7ba8     GuMetaData.obj
 0002:00002bb4       ??_C@_04LLPOBGED@minx@     00000001801d7bb4     GuMetaData.obj
 0002:00002bbc       ??_C@_04KCOFCHAC@miny@     00000001801d7bbc     GuMetaData.obj
 0002:00002bc4       ??_C@_04IJMIHEMB@minz@     00000001801d7bc4     GuMetaData.obj
 0002:00002bcc       ??_C@_04GGOBOBGO@maxx@     00000001801d7bcc     GuMetaData.obj
 0002:00002bd4       ??_C@_04HPPKNACP@maxy@     00000001801d7bd4     GuMetaData.obj
 0002:00002bdc       ??_C@_04FENHIDOM@maxz@     00000001801d7bdc     GuMetaData.obj
 0002:00002be4       ??_C@_04HHDFEJON@ptrs@     00000001801d7be4     GuMetaData.obj
 0002:00002bec       ??_C@_05FFEIGAJF@RTree@    00000001801d7bec     GuMetaData.obj
 0002:00002bf4       ??_C@_06OMCHPNEO@PxVec4@   00000001801d7bf4     GuMetaData.obj
 0002:00002c00       ??_C@_0L@NBIFEFLN@mBoundsMin@ 00000001801d7c00     GuMetaData.obj
 0002:00002c10       ??_C@_0L@MDAOKBNC@mBoundsMax@ 00000001801d7c10     GuMetaData.obj
 0002:00002c20       ??_C@_0N@NJEHLCOF@mInvDiagonal@ 00000001801d7c20     GuMetaData.obj
 0002:00002c30       ??_C@_0BA@BEFIGPFG@mDiagonalScaler@ 00000001801d7c30     GuMetaData.obj
 0002:00002c40       ??_C@_09DICGGKGO@mPageSize@ 00000001801d7c40     GuMetaData.obj
 0002:00002c50       ??_C@_0O@BOFFCNOL@mNumRootPages@ 00000001801d7c50     GuMetaData.obj
 0002:00002c60       ??_C@_0L@JKLGBKAE@mNumLevels@ 00000001801d7c60     GuMetaData.obj
 0002:00002c70       ??_C@_0M@PHDOHJGK@mTotalNodes@ 00000001801d7c70     GuMetaData.obj
 0002:00002c80       ??_C@_0M@GDGHALAO@mTotalPages@ 00000001801d7c80     GuMetaData.obj
 0002:00002c8c       ??_C@_06MHCBBJGP@mFlags@   00000001801d7c8c     GuMetaData.obj
 0002:00002c94       ??_C@_06MMNBLHOK@mPages@   00000001801d7c94     GuMetaData.obj
 0002:00002ca0       ??_C@_0P@JNLGHJNH@SourceMeshBase@ 00000001801d7ca0     GuMetaData.obj
 0002:00002cb0       ??_C@_06JFCLJMNN@mVerts@   00000001801d7cb0     GuMetaData.obj
 0002:00002cb8       ??_C@_05GNIIDDHH@mType@    00000001801d7cb8     GuMetaData.obj
 0002:00002cc0       ??_C@_06DHAAKLFK@mRemap@   00000001801d7cc0     GuMetaData.obj
 0002:00002cc8       ??_C@_0L@LEOGNOEC@SourceMesh@ 00000001801d7cc8     GuMetaData.obj
 0002:00002cd8       ??_C@_07MPIKOOAP@mNbTris@  00000001801d7cd8     GuMetaData.obj
 0002:00002ce0       ??_C@_0N@FBMOMEHF@mTriangles32@ 00000001801d7ce0     GuMetaData.obj
 0002:00002cf0       ??_C@_0N@DGCGNFBP@mTriangles16@ 00000001801d7cf0     GuMetaData.obj
 0002:00002d00       ??_C@_0O@NLNHFNO@QuantizedAABB@ 00000001801d7d00     GuMetaData.obj
 0002:00002d10       ??_C@_0BC@OOGBEMHH@mData?$FL0?$FN?4mExtents@ 00000001801d7d10     GuMetaData.obj
 0002:00002d28       ??_C@_0BB@OCEDKIEF@mData?$FL0?$FN?4mCenter@ 00000001801d7d28     GuMetaData.obj
 0002:00002d40       ??_C@_0BC@HFMEAABI@mData?$FL1?$FN?4mExtents@ 00000001801d7d40     GuMetaData.obj
 0002:00002d58       ??_C@_0BB@CDMNHHIF@mData?$FL1?$FN?4mCenter@ 00000001801d7d58     GuMetaData.obj
 0002:00002d70       ??_C@_0BC@CFKNCOI@mData?$FL2?$FN?4mExtents@ 00000001801d7d70     GuMetaData.obj
 0002:00002d88       ??_C@_0BB@LKCPBBIE@mData?$FL2?$FN?4mCenter@ 00000001801d7d88     GuMetaData.obj
 0002:00002da0       ??_C@_0O@MJJKKPFN@BVDataPackedQ@ 00000001801d7da0     GuMetaData.obj
 0002:00002db0       ??_C@_0O@JFMLAIPJ@CenterExtents@ 00000001801d7db0     GuMetaData.obj
 0002:00002dc0       ??_C@_07GNKDIIKJ@mCenter@  00000001801d7dc0     GuMetaData.obj
 0002:00002dc8       ??_C@_0P@KBMJDPLO@BVDataPackedNQ@ 00000001801d7dc8     GuMetaData.obj
 0002:00002dd8       ??_C@_0M@PNCEBOG@LocalBounds@ 00000001801d7dd8     GuMetaData.obj
 0002:00002de4       ??_C@_05KNFBNCOH@float@    00000001801d7de4     GuMetaData.obj
 0002:00002df0       ??_C@_0BC@LADJKHPL@mExtentsMagnitude@ 00000001801d7df0     GuMetaData.obj
 0002:00002e08       ??_C@_07HELIOLAF@BV4Tree@  00000001801d7e08     GuMetaData.obj
 0002:00002e10       ??_C@_0P@EMMDNPMH@mMeshInterface@ 00000001801d7e10     GuMetaData.obj
 0002:00002e20       ??_C@_0N@DCKMHLCL@mLocalBounds@ 00000001801d7e20     GuMetaData.obj
 0002:00002e30       ??_C@_08EEJOMIJL@mNbNodes@ 00000001801d7e30     GuMetaData.obj
 0002:00002e3c       ??_C@_06FIIIMFIO@mNodes@   00000001801d7e3c     GuMetaData.obj
 0002:00002e48       ??_C@_09FGKNPI@mInitData@  00000001801d7e48     GuMetaData.obj
 0002:00002e58       ??_C@_0BC@CLDEHKCO@mCenterOrMinCoeff@ 00000001801d7e58     GuMetaData.obj
 0002:00002e70       ??_C@_0BD@LAOLBNJ@mExtentsOrMaxCoeff@ 00000001801d7e70     GuMetaData.obj
 0002:00002e88       ??_C@_0P@JEECKKBL@mUserAllocated@ 00000001801d7e88     GuMetaData.obj
 0002:00002e98       ??_C@_0L@GLIMNECG@mQuantized@ 00000001801d7e98     GuMetaData.obj
 0002:00002ea8       ??_C@_0L@CCOJDAID@mIsEdgeSet@ 00000001801d7ea8     GuMetaData.obj
 0002:00002eb8       ??_C@_08BNDBAGDH@mPadding@ 00000001801d7eb8     GuMetaData.obj
 0002:00002ec8       ??_C@_0N@OJNNNLIB@TriangleMesh@ 00000001801d7ec8     GuMetaData.obj
 0002:00002ed8       ??_C@_0M@OGEDMEAL@mNbVertices@ 00000001801d7ed8     GuMetaData.obj
 0002:00002ee8       ??_C@_0N@MGGDNHNI@mNbTriangles@ 00000001801d7ee8     GuMetaData.obj
 0002:00002ef8       ??_C@_09LNNEGOJA@mVertices@ 00000001801d7ef8     GuMetaData.obj
 0002:00002f08       ??_C@_0L@KBOFAKLO@mTriangles@ 00000001801d7f08     GuMetaData.obj
 0002:00002f18       ??_C@_0P@MHDFIHLD@mExtraTrigData@ 00000001801d7f18     GuMetaData.obj
 0002:00002f28       ??_C@_0N@MGIKKCI@mGeomEpsilon@ 00000001801d7f28     GuMetaData.obj
 0002:00002f38       ??_C@_0BB@IFLOOCNA@mMaterialIndices@ 00000001801d7f38     GuMetaData.obj
 0002:00002f50       ??_C@_0L@OPJMBFMI@mFaceRemap@ 00000001801d7f50     GuMetaData.obj
 0002:00002f60       ??_C@_0N@BIOECAPM@mAdjacencies@ 00000001801d7f60     GuMetaData.obj
 0002:00002f70       ??_C@_09CICJHLPI@mEdgeList@ 00000001801d7f70     GuMetaData.obj
 0002:00002f80       ??_C@_0BD@IPKCNNIK@mLocalCenterOfMass@ 00000001801d7f80     GuMetaData.obj
 0002:00002f98       ??_C@_0BA@OCOIGPII@mGRB_triIndices@ 00000001801d7f98     GuMetaData.obj
 0002:00002fa8       ??_C@_0BE@JPINNDAH@mGRB_triAdjacencies@ 00000001801d7fa8     GuMetaData.obj
 0002:00002fc0       ??_C@_0P@EDFJJHEF@mGRB_faceRemap@ 00000001801d7fc0     GuMetaData.obj
 0002:00002fd0       ??_C@_0BG@EEALPPCP@mGRB_faceRemapInverse@ 00000001801d7fd0     GuMetaData.obj
 0002:00002fe8       ??_C@_0O@CKMBAIFN@mGRB_BV32Tree@ 00000001801d7fe8     GuMetaData.obj
 0002:00002ff8       ??_C@_0BE@MGIOIICI@mSdfData?4mMeshLower@ 00000001801d7ff8     GuMetaData.obj
 0002:00003010       ??_C@_0BC@NNEDELGI@mSdfData?4mSpacing@ 00000001801d8010     GuMetaData.obj
 0002:00003028       ??_C@_0BB@OHOFDAIL@mSdfData?4mDims?4x@ 00000001801d8028     GuMetaData.obj
 0002:00003040       ??_C@_0BB@POPOABMK@mSdfData?4mDims?4y@ 00000001801d8040     GuMetaData.obj
 0002:00003058       ??_C@_0BB@NFNDFCAJ@mSdfData?4mDims?4z@ 00000001801d8058     GuMetaData.obj
 0002:00003070       ??_C@_0BC@GMPBGGPI@mSdfData?4mNumSdfs@ 00000001801d8070     GuMetaData.obj
 0002:00003088       ??_C@_0O@BCEBBLNE@mSdfData?4mSdf@ 00000001801d8088     GuMetaData.obj
 0002:00003098       ??_C@_0BG@HMHEFHIE@mSdfData?4mSubgridSize@ 00000001801d8098     GuMetaData.obj
 0002:000030b0       ??_C@_0BI@OFJBKPGB@mSdfData?4mNumStartSlots@ 00000001801d80b0     GuMetaData.obj
 0002:000030c8       ??_C@_0BM@MGEPBEON@mSdfData?4mSubgridStartSlots@ 00000001801d80c8     GuMetaData.obj
 0002:000030e8       ??_C@_0BJ@PKKGJLNM@mSdfData?4mNumSubgridSdfs@ 00000001801d80e8     GuMetaData.obj
 0002:00003108       ??_C@_0BF@HLMPGIBH@mSdfData?4mSubgridSdf@ 00000001801d8108     GuMetaData.obj
 0002:00003120       ??_C@_0CF@GMJNHGOK@mSdfData?4mSdfSubgrids3DTexBlock@ 00000001801d8120     GuMetaData.obj
 0002:00003148       ??_C@_0CF@HFIGEHKL@mSdfData?4mSdfSubgrids3DTexBlock@ 00000001801d8148     GuMetaData.obj
 0002:00003170       ??_C@_0CF@FOKLBEGI@mSdfData?4mSdfSubgrids3DTexBlock@ 00000001801d8170     GuMetaData.obj
 0002:00003198       ??_C@_0BO@EIPCIOJH@mSdfData?4mSubgridsMinSdfValue@ 00000001801d8198     GuMetaData.obj
 0002:000031b8       ??_C@_0BO@NIIBJOHN@mSdfData?4mSubgridsMaxSdfValue@ 00000001801d81b8     GuMetaData.obj
 0002:000031d8       ??_C@_0BO@GKGODKFG@mSdfData?4mBytesPerSparsePixel@ 00000001801d81d8     GuMetaData.obj
 0002:000031f8       ??_C@_0BJ@LEBGJKBE@mAccumulatedTrianglesRef@ 00000001801d81f8     GuMetaData.obj
 0002:00003218       ??_C@_0BF@OJMCNCDP@mTrianglesReferences@ 00000001801d8218     GuMetaData.obj
 0002:00003230       ??_C@_0BH@LDGPOFA@mNbTrianglesReferences@ 00000001801d8230     GuMetaData.obj
 0002:00003248       ??_C@_0BC@IFGECKF@RTreeTriangleMesh@ 00000001801d8248     GuMetaData.obj
 0002:0000325c       ??_C@_06JDIHDDGN@mRTree@   00000001801d825c     GuMetaData.obj
 0002:00003268       ??_C@_0BA@LNNFPOKA@BV4TriangleMesh@ 00000001801d8268     GuMetaData.obj
 0002:00003278       ??_C@_08FKLPEGDB@mBV4Tree@ 00000001801d8278     GuMetaData.obj
 0002:00003288       ??_7?$SupportLocalImpl@VConvexHullNoScaleV@Gu@physx@@@Gu@physx@@6B@ 00000001801d8288     GuMTD.obj
 0002:000032d0       ?absMask@?1??FAbs@aos@physx@@YA?AT__m128@@T4@@Z@4QBIB 00000001801d82d0     GuMTD.obj
 0002:000032e0       ??_7GjkConvex@Gu@physx@@6B@ 00000001801d82e0     GuMTD.obj
 0002:00003310       ??_7?$LocalConvex@VCapsuleV@Gu@physx@@@Gu@physx@@6B@ 00000001801d8310     GuMTD.obj
 0002:00003340       ??_7?$LocalConvex@VConvexHullV@Gu@physx@@@Gu@physx@@6B@ 00000001801d8340     GuMTD.obj
 0002:00003370       __real@2edbe6ff            00000001801d8370     GuMTD.obj
 0002:00003374       __real@34000000            00000001801d8374     GuMTD.obj
 0002:00003378       __real@ff7fffff            00000001801d8378     GuMTD.obj
 0002:00003380       __xmm@34000000340000003400000034000000 00000001801d8380     GuMTD.obj
 0002:00003390       __xmm@358637bd358637bd358637bd358637bd 00000001801d8390     GuMTD.obj
 0002:000033a0       __xmm@3dcccccd3dcccccd3dcccccd3dcccccd 00000001801d83a0     GuMTD.obj
 0002:000033b0       __xmm@3f7ff1413f7ff1413f7ff1413f7ff141 00000001801d83b0     GuMTD.obj
 0002:000033e0       ??_7?$RelativeConvex@VBoxV@Gu@physx@@@Gu@physx@@6B@ 00000001801d83e0     GuOverlapTests.obj
 0002:00003410       ??_7?$RelativeConvex@VConvexHullV@Gu@physx@@@Gu@physx@@6B@ 00000001801d8410     GuOverlapTests.obj
 0002:00003470       __real@1e3ce508            00000001801d8470     GuRaycastTests.obj
 0002:00003474       __real@28800000            00000001801d8474     GuRaycastTests.obj
 0002:00003478       __real@33d6bf95            00000001801d8478     GuRaycastTests.obj
 0002:0000347c       __real@3727c5ac            00000001801d847c     GuRaycastTests.obj
 0002:00003480       __real@38d1b717            00000001801d8480     GuRaycastTests.obj
 0002:00003484       __real@3f0147ae            00000001801d8484     GuRaycastTests.obj
 0002:00003488       __real@3f7ffffe            00000001801d8488     GuRaycastTests.obj
 0002:0000348c       __real@3f800347            00000001801d848c     GuRaycastTests.obj
 0002:00003490       __real@41200000            00000001801d8490     GuRaycastTests.obj
 0002:00003494       __real@80000000            00000001801d8494     GuRaycastTests.obj
 0002:00003498       __real@b3d6bf95            00000001801d8498     GuRaycastTests.obj
 0002:0000349c       __real@b8d1b717            00000001801d849c     GuRaycastTests.obj
 0002:000034a0       __real@c1200000            00000001801d84a0     GuRaycastTests.obj
 0002:000034e0       ??_7?$MeshHitCallback@UPxGeomRaycastHit@physx@@@Gu@physx@@6B@ 00000001801d84e0     GuSweepMTD.obj
 0002:000034f0       ??_7MeshMTDGenerationCallback@@6B@ 00000001801d84f0     GuSweepMTD.obj
 0002:00003500       ??_7MidPhaseQueryLocalReport@@6B@ 00000001801d8500     GuSweepMTD.obj
 0002:00003510       __real@3f8147ae            00000001801d8510     GuSweepMTD.obj
 0002:00003514       __real@3f933333            00000001801d8514     GuSweepMTD.obj
 0002:00003540       __real@3c23d70a            00000001801d8540     GuSweepSharedTests.obj
 0002:00003544       __real@42c80000            00000001801d8544     GuSweepSharedTests.obj
 0002:00003550       __xmm@ffffffffffffffffffffffffffffffff 00000001801d8550     GuSweepSharedTests.obj
 0002:00003580       ??_7?$LocalConvex@VBoxV@Gu@physx@@@Gu@physx@@6B@ 00000001801d8580     GuSweepTests.obj
 0002:000035b0       ??_7?$LocalConvex@VTriangleV@Gu@physx@@@Gu@physx@@6B@ 00000001801d85b0     GuSweepTests.obj
 0002:000035e0       __xmm@00000002000000020000000200000002 00000001801d85e0     GuSweepTests.obj
 0002:000035f0       __xmm@3eaaaa9f3eaaaa9f3eaaaa9f3eaaaa9f 00000001801d85f0     GuSweepTests.obj
 0002:000036a8       ??_7PxRunnable@physx@@6B@  00000001801d86a8     GuSDF.obj
 0002:000036c0       ??_C@_0FD@JJOLCKGK@D?3?2Repositories?2PhysX?2PhysX?9105@ 00000001801d86c0     GuSDF.obj
 0002:00003718       ??_7PointOntoTriangleMeshProjector@Gu@physx@@6B@ 00000001801d8718     GuSDF.obj
 0002:00003730       ??_7?$PxThreadT@V?$PxReflectionAllocator@VPxThreadImpl@physx@@@physx@@@physx@@6B@ 00000001801d8730     GuSDF.obj
 0002:00003740       ??_C@_06FJHNOCKE@thread@   00000001801d8740     GuSDF.obj
 0002:00003750       ??_C@_0LB@PNCFCFJO@SDF?5creation?3?5Fixing?5of?5the?5inp@ 00000001801d8750     GuSDF.obj
 0002:00003810       ??_C@_0GH@OCDHPNNL@SDF?5creation?3?5Input?5mesh?5is?5not@ 00000001801d8810     GuSDF.obj
 0002:00003880       ??_C@_0FC@BAKDHMEL@D?3?2Repositories?2PhysX?2PhysX?9105@ 00000001801d8880     GuSDF.obj
 0002:000038e0       ??_C@_0FA@OBALIIJD@D?3?2Repositories?2PhysX?2PhysX?9105@ 00000001801d88e0     GuSDF.obj
 0002:00003930       ??_C@_0FJ@LNBLLAFF@D?3?2Repositories?2PhysX?2PhysX?9105@ 00000001801d8930     GuSDF.obj
 0002:0000398c       __real@37800080            00000001801d898c     GuSDF.obj
 0002:00003990       __real@3b808081            00000001801d8990     GuSDF.obj
 0002:00003994       __real@3e2aaaab            00000001801d8994     GuSDF.obj
 0002:00003998       __real@3eaaaaab            00000001801d8998     GuSDF.obj
 0002:0000399c       __real@3f7d70a4            00000001801d899c     GuSDF.obj
 0002:000039a0       __real@7e7fffff            00000001801d89a0     GuSDF.obj
 0002:000039a4       __real@bf000000            00000001801d89a4     GuSDF.obj
 0002:000039a8       __real@fe7fffff            00000001801d89a8     GuSDF.obj
 0002:000039b0       __xmm@00000001000000000000000000000000 00000001801d89b0     GuSDF.obj
 0002:000039c0       __real@437f0000            00000001801d89c0     GuCookingSDF.obj
 0002:000039c4       __real@477fff00            00000001801d89c4     GuCookingSDF.obj
 0002:000039f0       ??_7?$RelativeConvex@UCustomConvexV@@@Gu@physx@@6B@ 00000001801d89f0     GuGjkQuery.obj
 0002:00003a20       ??_7?$LocalConvex@UCustomConvexV@@@Gu@physx@@6B@ 00000001801d8a20     GuGjkQuery.obj
 0002:00003a50       ??_7?$LocalConvex@UPointConvexV@@@Gu@physx@@6B@ 00000001801d8a50     GuGjkQuery.obj
 0002:00003aa0       __real@3da2f983            00000001801d8aa0     GuWindingNumber.obj
 0002:00003aa4       __real@3e22f983            00000001801d8aa4     GuWindingNumber.obj
 0002:00003aa8       __real@3f99999a            00000001801d8aa8     GuWindingNumber.obj
 0002:00003b10       __real@3c343958            00000001801d8b10     GuCCDSweepConvexMesh.obj
 0002:00003b14       __real@3ca3d70a            00000001801d8b14     GuCCDSweepConvexMesh.obj
 0002:00003b18       __real@3f0ccccd            00000001801d8b18     GuCCDSweepConvexMesh.obj
 0002:00003b1c       __real@3f8ccccd            00000001801d8b1c     GuCCDSweepConvexMesh.obj
 0002:00003b20       __real@b58637bd            00000001801d8b20     GuCCDSweepConvexMesh.obj
 0002:00003b50       ??_7?$RelativeConvex@VCapsuleV@Gu@physx@@@Gu@physx@@6B@ 00000001801d8b50     GuCCDSweepPrimitives.obj
 0002:00003b80       ??_7?$RelativeConvex@VTriangleV@Gu@physx@@@Gu@physx@@6B@ 00000001801d8b80     GuCCDSweepPrimitives.obj
 0002:00003bb0       __real@3ba3d70a            00000001801d8bb0     GuCCDSweepPrimitives.obj
 0002:00003bb4       __real@501502f9            00000001801d8bb4     GuCCDSweepPrimitives.obj
 0002:00003be0       ??_C@_0GC@NLNKDHPG@D?3?2Repositories?2PhysX?2PhysX?9105@ 00000001801d8be0     GuAdjacencies.obj
 0002:00003c48       ??_C@_0DA@FMEHLBKI@Adjacencies?3?3UpdateLink?3?5invali@ 00000001801d8c48     GuAdjacencies.obj
 0002:00003c80       ??_C@_0EA@CPHOACLK@Adjacencies?3?3CreateDatabase?3?5ca@ 00000001801d8c80     GuAdjacencies.obj
 0002:00003cc0       ??_C@_0FP@ENDFBJKH@D?3?2Repositories?2PhysX?2PhysX?9105@ 00000001801d8cc0     GuEdgeList.obj
 0002:00003d20       ??_C@_0CO@GBNJFPN@EdgeList?3?3CreateFacesToEdges?3?5N@ 00000001801d8d20     GuEdgeList.obj
 0002:00003d50       ??_C@_0CO@EHJBBMNK@EdgeList?3?3ComputeActiveEdges?3?5N@ 00000001801d8d50     GuEdgeList.obj
 0002:00003d80       ??_C@_0DI@GBHLFOFP@ActiveEdges?3?3ComputeConvexEdges@ 00000001801d8d80     GuEdgeList.obj
 0002:00003db8       ??_C@_0DM@JOGBLHDI@ActiveEdges?3?3ComputeConvexEdges@ 00000001801d8db8     GuEdgeList.obj
 0002:00003e00       ??_C@_0ED@FEMJKPEL@ActiveEdges?3?3ComputeConvexEdges@ 00000001801d8e00     GuEdgeList.obj
 0002:00003e50       ??_C@_0EB@BFDPMFCD@ActiveEdges?3?3ComputeConvexEdges@ 00000001801d8e50     GuEdgeList.obj
 0002:00003e94       __real@bf7fbe77            00000001801d8e94     GuEdgeList.obj
 0002:00003e98       ??_7Quantizer@Gu@physx@@6B@ 00000001801d8e98     GuQuantizer.obj
 0002:00003ec0       ??_7QuantizerImpl@@6B@     00000001801d8ec0     GuQuantizer.obj
 0002:00003ef0       ??_C@_0GA@IBBCHGLA@D?3?2Repositories?2PhysX?2PhysX?9105@ 00000001801d8ef0     GuQuantizer.obj
 0002:00003f50       __real@3f0020c5            00000001801d8f50     GuQuantizer.obj
 0002:00003f54       __real@3f8020c5            00000001801d8f54     GuQuantizer.obj
 0002:00003f60       ??_C@_0GC@POIBBKKC@D?3?2Repositories?2PhysX?2PhysX?9105@ 00000001801d8f60     GuMeshCleaner.obj
 0002:00003fd0       ??_C@_0GE@LHJMIJDK@D?3?2Repositories?2PhysX?2PhysX?9105@ 00000001801d8fd0     GuVertexReducer.obj
 0002:00004130       __real@3f7fbe77            00000001801d9130     GuContactBoxBox.obj
 0002:00004180       __real@3f7ff2e5            00000001801d9180     GuContactCapsuleCapsule.obj
 0002:00004184       __real@40800000            00000001801d9184     GuContactCapsuleCapsule.obj
 0002:00004210       __real@358637be            00000001801d9210     GuContactCapsuleMesh.obj
 0002:00004214       __real@ba83126f            00000001801d9214     GuContactCapsuleMesh.obj
 0002:00004270       ??_7ConvexMeshContactGenerationCallback@@6B@ 00000001801d9270     GuContactConvexMesh.obj
 0002:000042f0       __real@3ec90fdb            00000001801d92f0     GuContactPolygonPolygon.obj
 0002:000042f4       __real@3f490fdb            00000001801d92f4     GuContactPolygonPolygon.obj
 0002:000042f8       __real@3f96cbe4            00000001801d92f8     GuContactPolygonPolygon.obj
 0002:000042fc       __real@3fc90fdb            00000001801d92fc     GuContactPolygonPolygon.obj
 0002:00004300       __real@3ffb53d2            00000001801d9300     GuContactPolygonPolygon.obj
 0002:00004304       __real@4016cbe4            00000001801d9304     GuContactPolygonPolygon.obj
 0002:00004308       __real@402feddf            00000001801d9308     GuContactPolygonPolygon.obj
 0002:00004370       ??_C@_0GE@OFBPONBO@D?3?2Repositories?2PhysX?2PhysX?9105@ 00000001801d9370     GuBigConvexData.obj
 0002:00004400       ??_C@_0N@CDGINLLF@PxConvexMesh@ 00000001801d9400     GuConvexMesh.obj
 0002:00004410       ??_7PxBase@physx@@6B@      00000001801d9410     GuConvexMesh.obj
 0002:00004438       ??_C@_0N@OPPDBGAG@PxRefCounted@ 00000001801d9438     GuConvexMesh.obj
 0002:00004448       ??_7ConvexMesh@Gu@physx@@6B@ 00000001801d9448     GuConvexMesh.obj
 0002:000044e0       ??_C@_0GB@BENMCAIG@D?3?2Repositories?2PhysX?2PhysX?9105@ 00000001801d94e0     GuConvexMesh.obj
 0002:00004548       ??_C@_0DM@NEJKOFIP@Loading?5convex?5mesh?5failed?3?5Dep@ 00000001801d9548     GuConvexMesh.obj
 0002:00004588       ??_C@_0DB@PAHEPIEL@PxConvexMesh?3?3release?3?5double?5d@ 00000001801d9588     GuConvexMesh.obj
 0002:000045c0       ??_C@_0FJ@KLLIAANO@D?3?2Repositories?2PhysX?2PhysX?9105@ 00000001801d95c0     GuConvexMesh.obj
 0002:00004640       __xmm@000000000000000000000000ffffffff 00000001801d9640     GuConvexSupportTable.obj
 0002:00004650       __xmm@0000000000000000ffffffff00000000 00000001801d9650     GuConvexSupportTable.obj
 0002:00004660       __xmm@0000000000000000ffffffffffffffff 00000001801d9660     GuConvexSupportTable.obj
 0002:00004670       __xmm@00000000ffffffff0000000000000000 00000001801d9670     GuConvexSupportTable.obj
 0002:00004680       __xmm@00000000ffffffff00000000ffffffff 00000001801d9680     GuConvexSupportTable.obj
 0002:00004690       __xmm@00000000ffffffffffffffff00000000 00000001801d9690     GuConvexSupportTable.obj
 0002:00004760       __xmm@3f0000003f0000003f0000003f000000 00000001801d9760     GuDistanceSegmentSegment.obj
 0002:00004790       __real@2b8cbccc            00000001801d9790     GuDistanceSegmentTriangle.obj
 0002:000047a0       __xmm@3f8000013f8000013f8000013f800001 00000001801d97a0     GuDistanceSegmentTriangle.obj
 0002:000047b0       __xmm@b4000000b4000000b4000000b4000000 00000001801d97b0     GuDistanceSegmentTriangle.obj
 0002:00004830       __xmm@38d1b71738d1b71738d1b71738d1b717 00000001801d9830     GuGJKSimplex.obj
 0002:00004860       ??_C@_0O@PBAKPCEC@PxHeightField@ 00000001801d9860     GuHeightField.obj
 0002:00004870       ??_7HeightField@Gu@physx@@6B@ 00000001801d9870     GuHeightField.obj
 0002:00004928       ??_C@_0DC@BDMMBOKH@PxHeightField?3?3release?3?5double?5@ 00000001801d9928     GuHeightField.obj
 0002:00004960       ??_C@_0FO@BEMECPHD@D?3?2Repositories?2PhysX?2PhysX?9105@ 00000001801d9960     GuHeightField.obj
 0002:000049c0       ??_C@_0CI@DMKEKGNK@Gu?3?3HeightField?3?3load?3?5PX_ALLOC@ 00000001801d99c0     GuHeightField.obj
 0002:000049f0       ??_C@_0FC@FEIHDFIH@D?3?2Repositories?2PhysX?2PhysX?9105@ 00000001801d99f0     GuHeightField.obj
 0002:00004a70       __real@3a03126f            00000001801d9a70     GuHeightFieldUtil.obj
 0002:00004a74       __real@3f19999a            00000001801d9a74     GuHeightFieldUtil.obj
 0002:00004a80       __xmm@40000000000000000000000000000000 00000001801d9a80     GuHeightFieldUtil.obj
 0002:00004b10       ??_7HeightFieldTraceSegmentReport@@6B@ 00000001801d9b10     GuSweepsHF.obj
 0002:00004b20       ??_7CapsuleTraceSegmentReport@@6B@ 00000001801d9b20     GuSweepsHF.obj
 0002:00004b30       ??_7ConvexTraceSegmentReport@@6B@ 00000001801d9b30     GuSweepsHF.obj
 0002:00004b40       ??_7BoxTraceSegmentReport@@6B@ 00000001801d9b40     GuSweepsHF.obj
 0002:00004b50       __real@aedbe6ff            00000001801d9b50     GuSweepsHF.obj
 0002:00004b80       __real@3089705f            00000001801d9b80     GuIntersectionRayBox.obj
 0002:00004b84       __real@b4000000            00000001801d9b84     GuIntersectionRayBox.obj
 0002:00004b90       __xmm@000000003089705f3089705f3089705f 00000001801d9b90     GuIntersectionRayBox.obj
 0002:00004ba0       __xmm@00000000bf800000bf800000bf800000 00000001801d9ba0     GuIntersectionRayBox.obj
 0002:00004bd0       __real@7fc00000            00000001801d9bd0     GuIntersectionTriangleTriangle.obj
 0002:00004be0       __xmm@7fc000007fc000007fc000007fc00000 00000001801d9be0     GuIntersectionTriangleTriangle.obj
 0002:00004c10       ??_7SourceMeshBase@Gu@physx@@6B@ 00000001801d9c10     GuBV4.obj
 0002:00004c38       ??_7SourceMesh@Gu@physx@@6B@ 00000001801d9c38     GuBV4.obj
 0002:00004c60       ??_7TetrahedronSourceMesh@Gu@physx@@6B@ 00000001801d9c60     GuBV4.obj
 0002:00004c90       ??_C@_0FI@FILHMBPB@D?3?2Repositories?2PhysX?2PhysX?9105@ 00000001801d9c90     GuBV4.obj
 0002:00004cf0       __xmm@ff7fffffff7fffffff7fffffff7fffff 00000001801d9cf0     GuBV4.obj
 0002:00004d20       ??_C@_0FN@GBJEFJJK@D?3?2Repositories?2PhysX?2PhysX?9105@ 00000001801d9d20     GuBV4Build.obj
 0002:00004d80       __real@38000100            00000001801d9d80     GuBV4Build.obj
 0002:00004d84       __real@3e93cd3a            00000001801d9d84     GuBV4Build.obj
 0002:00004d88       __real@46fffe00            00000001801d9d88     GuBV4Build.obj
 0002:00004d8c       __real@be93cd3a            00000001801d9d8c     GuBV4Build.obj
 0002:00004db0       __xmm@0000ffff0000ffff0000ffff0000ffff 00000001801d9db0     GuBV4_AABBSweep.obj
 0002:00004dc0       __xmm@3089705f3089705f3089705f3089705f 00000001801d9dc0     GuBV4_AABBSweep.obj
 0002:00004dd0       __xmm@33d6bf9533d6bf9533d6bf9533d6bf95 00000001801d9dd0     GuBV4_AABBSweep.obj
 0002:00004de0       __xmm@40000000400000004000000040000000 00000001801d9de0     GuBV4_AABBSweep.obj
 0002:00004eb0       __real@00000000            00000001801d9eb0     GuBV4_Raycast.obj
 0002:00004ee0       __real@4f7fffff            00000001801d9ee0     GuBV4_SphereOverlap.obj
 0002:00004f30       __xmm@000000007f7fffff0000000000000000 00000001801d9f30     GuMidphaseBV4.obj
 0002:00004fa0       ??_C@_0FD@EHCCILIF@Adjacency?5information?5not?5creat@ 00000001801d9fa0     GuMeshQuery.obj
 0002:00005000       ??_C@_0FO@BHCMNHBI@D?3?2Repositories?2PhysX?2PhysX?9105@ 00000001801da000     GuMeshQuery.obj
 0002:00005060       ??_C@_0FL@BKNMAHIA@PxMeshQuery?3?3findOverlapTriangl@ 00000001801da060     GuMeshQuery.obj
 0002:000050c0       ??_C@_0BA@MBAFFELP@MeshQuery?4sweep@ 00000001801da0c0     GuMeshQuery.obj
 0002:000050d0       __real@4cbebc20            00000001801da0d0     GuMeshQuery.obj
 0002:00005100       ??_7Callback@RTree@Gu@physx@@6B@ 00000001801da100     GuMidphaseRTree.obj
 0002:00005118       ??_7?$RayRTreeCallback@$00$0A@@@6BCallbackRaycast@RTree@Gu@physx@@@ 00000001801da118     GuMidphaseRTree.obj
 0002:00005118       ??_7?$RayRTreeCallback@$0A@$0A@@@6BCallbackRaycast@RTree@Gu@physx@@@ 00000001801da118     GuMidphaseRTree.obj
 0002:00005128       ??_7?$RayRTreeCallback@$00$0A@@@6BCallback@RTree@Gu@physx@@@ 00000001801da128     GuMidphaseRTree.obj
 0002:00005128       ??_7?$RayRTreeCallback@$0A@$0A@@@6BCallback@RTree@Gu@physx@@@ 00000001801da128     GuMidphaseRTree.obj
 0002:00005140       ??_7RayMeshColliderCallback@@6B@ 00000001801da140     GuMidphaseRTree.obj
 0002:00005150       ??_C@_0EN@DPPFLBLF@Point?9mesh?5distance?5query?5not?5s@ 00000001801da150     GuMidphaseRTree.obj
 0002:000051a0       ??_C@_0GC@JPACNJIE@D?3?2Repositories?2PhysX?2PhysX?9105@ 00000001801da1a0     GuMidphaseRTree.obj
 0002:00005208       ??_7?$RayRTreeCallback@$0A@$00@@6BCallbackRaycast@RTree@Gu@physx@@@ 00000001801da208     GuMidphaseRTree.obj
 0002:00005218       ??_7?$RayRTreeCallback@$0A@$00@@6BCallback@RTree@Gu@physx@@@ 00000001801da218     GuMidphaseRTree.obj
 0002:00005230       ??_7?$RayRTreeCallback@$00$00@@6BCallbackRaycast@RTree@Gu@physx@@@ 00000001801da230     GuMidphaseRTree.obj
 0002:00005240       ??_7?$RayRTreeCallback@$00$00@@6BCallback@RTree@Gu@physx@@@ 00000001801da240     GuMidphaseRTree.obj
 0002:000052c0       __xmm@7f7fffff000000000000000000000000 00000001801da2c0     GuMidphaseRTree.obj
 0002:00005340       ??_7?$PxReportCallback@UPxGeomIndexPair@physx@@@physx@@6B@ 00000001801da340     GuOverlapTestsMesh.obj
 0002:00005360       ??_C@_0EP@CEFGCJKJ@PxGeometryQuery?3?3overlap?$CI?$CJ?3?5onl@ 00000001801da360     GuOverlapTestsMesh.obj
 0002:000053b0       ??_C@_0GF@GCJCENFK@D?3?2Repositories?2PhysX?2PhysX?9105@ 00000001801da3b0     GuOverlapTestsMesh.obj
 0002:00005440       ?MN@RTreePage@Gu@physx@@2MB 00000001801da440     GuRTree.obj
 0002:00005444       ?MX@RTreePage@Gu@physx@@2MB 00000001801da444     GuRTree.obj
 0002:00005450       ??_C@_0FK@CJHKECIK@D?3?2Repositories?2PhysX?2PhysX?9105@ 00000001801da450     GuRTree.obj
 0002:00005520       ??_7SweepShapeMeshHitCallback@Gu@physx@@6B@ 00000001801da520     GuSweepsMesh.obj
 0002:00005530       ??_7SweepCapsuleMeshHitCallback@Gu@physx@@6B@ 00000001801da530     GuSweepsMesh.obj
 0002:00005540       ??_7SweepBoxMeshHitCallback@Gu@physx@@6B@ 00000001801da540     GuSweepsMesh.obj
 0002:00005550       ??_7SweepConvexMeshHitCallback@Gu@physx@@6B@ 00000001801da550     GuSweepsMesh.obj
 0002:00005580       ??_C@_0P@GGNFNHKF@PxTriangleMesh@ 00000001801da580     GuTriangleMesh.obj
 0002:00005590       ??_7TriangleMesh@Gu@physx@@6B@ 00000001801da590     GuTriangleMesh.obj
 0002:00005668       ??_C@_0DD@LOOPMCGG@PxTriangleMesh?3?3release?3?5double@ 00000001801da668     GuTriangleMesh.obj
 0002:000056a0       ??_C@_0FH@PMPAJDGI@PxTriangleMesh?3?3getVerticesForM@ 00000001801da6a0     GuTriangleMesh.obj
 0002:00005700       ??_C@_0GB@CKIMIPGH@D?3?2Repositories?2PhysX?2PhysX?9105@ 00000001801da700     GuTriangleMesh.obj
 0002:00005770       ??_C@_0EF@GMNFLDH@PxTriangleMesh?3?3refitBVH?$CI?$CJ?5is?5n@ 00000001801da770     GuTriangleMesh.obj
 0002:000057c0       __xmm@38383838383838383838383838383838 00000001801da7c0     GuTriangleMesh.obj
 0002:000057f0       ??_C@_0BE@CNJKIINO@PxBVH34TriangleMesh@ 00000001801da7f0     GuTriangleMeshBV4.obj
 0002:00005808       ??_7BV4TriangleMesh@Gu@physx@@6B@ 00000001801da808     GuTriangleMeshBV4.obj
 0002:000058e0       ??_C@_0EF@JLFNNPLP@BVH34?5trees?3?5refit?5operation?5on@ 00000001801da8e0     GuTriangleMeshBV4.obj
 0002:00005930       ??_C@_0GE@CJCFNJJK@D?3?2Repositories?2PhysX?2PhysX?9105@ 00000001801da930     GuTriangleMeshBV4.obj
 0002:00005994       __real@3951b717            00000001801da994     GuTriangleMeshBV4.obj
 0002:000059c0       ??_C@_0BE@EIFHCCBO@PxBVH33TriangleMesh@ 00000001801da9c0     GuTriangleMeshRTree.obj
 0002:000059d8       ??_7RTreeTriangleMesh@Gu@physx@@6B@ 00000001801da9d8     GuTriangleMeshRTree.obj
 0002:00005ab0       ??_7?$RefitCallback@G@physx@@6B@ 00000001801daab0     GuTriangleMeshRTree.obj
 0002:00005ac0       ??_7?$RefitCallback@I@physx@@6B@ 00000001801daac0     GuTriangleMeshRTree.obj
 0002:00005af0       ??_C@_0FJ@LGKBJEFK@D?3?2Repositories?2PhysX?2PhysX?9105@ 00000001801daaf0     GuBV32.obj
 0002:00005b70       ??_C@_0FO@ECOGAJCN@D?3?2Repositories?2PhysX?2PhysX?9105@ 00000001801dab70     GuBV32Build.obj
 0002:00005bf0       ??_C@_0BC@FDAIDHBP@PxTetrahedronMesh@ 00000001801dabf0     GuTetrahedronMesh.obj
 0002:00005c08       ??_C@_0BC@FBICGJIB@PxSoftBodyAuxData@ 00000001801dac08     GuTetrahedronMesh.obj
 0002:00005c20       ??_C@_0P@CLLFGFAA@PxSoftBodyMesh@ 00000001801dac20     GuTetrahedronMesh.obj
 0002:00005c30       ??_7SoftBodyAuxData@Gu@physx@@6B@ 00000001801dac30     GuTetrahedronMesh.obj
 0002:00005c78       ??_7TetrahedronMesh@Gu@physx@@6B@ 00000001801dac78     GuTetrahedronMesh.obj
 0002:00005cf0       ??_7BVTetrahedronMesh@Gu@physx@@6B@ 00000001801dacf0     GuTetrahedronMesh.obj
 0002:00005d68       ??_7SoftBodyMesh@Gu@physx@@6B@ 00000001801dad68     GuTetrahedronMesh.obj
 0002:00005de8       ??_C@_0DG@JJNMDPMD@PxTetrahedronMesh?3?3release?3?5dou@ 00000001801dade8     GuTetrahedronMesh.obj
 0002:00005e20       ??_C@_0DD@GGFGEPII@PxSoftBodyMesh?3?3release?3?5double@ 00000001801dae20     GuTetrahedronMesh.obj
 0002:00005e60       ??_C@_0GE@MLGGDDAO@D?3?2Repositories?2PhysX?2PhysX?9105@ 00000001801dae60     GuTetrahedronMesh.obj
 0002:00005f10       __xmm@00000000358637bd358637bd358637bd 00000001801daf10     GuPCMContactBoxBox.obj
 0002:00005f20       __xmm@3f4ccccd3f4ccccd3f4ccccd3f4ccccd 00000001801daf20     GuPCMContactBoxBox.obj
 0002:00005f30       __xmm@3f8003473f8003473f8003473f800347 00000001801daf30     GuPCMContactBoxBox.obj
 0002:00005f40       __xmm@ffffffff00000000ffffffffffffffff 00000001801daf40     GuPCMContactBoxBox.obj
 0002:00005f70       ??_7?$LocalConvex@VConvexHullNoScaleV@Gu@physx@@@Gu@physx@@6B@ 00000001801daf70     GuPCMContactBoxConvex.obj
 0002:00005fa0       __xmm@3f3504f33f3504f33f3504f33f3504f3 00000001801dafa0     GuPCMContactBoxConvex.obj
 0002:00005ff0       __xmm@ffffffffffffffffffffffff00000000 00000001801daff0     GuPCMContactCapsuleCapsule.obj
 0002:00006020       __xmm@3fa000003fa000003fa000003fa00000 00000001801db020     GuPCMContactCapsuleConvex.obj
 0002:00006050       ??_7PCMCapsuleVsHeightfieldContactGenerationCallback@@6B@ 00000001801db050     GuPCMContactCapsuleHeightField.obj
 0002:00006060       __real@3f7f3b64            00000001801db060     GuPCMContactCapsuleHeightField.obj
 0002:000060b0       __xmm@3f7ff9723f7ff9723f7ff9723f7ff972 00000001801db0b0     GuPCMContactCapsuleMesh.obj
 0002:000060c0       __xmm@3f7fffef3f7fffef3f7fffef3f7fffef 00000001801db0c0     GuPCMContactCapsuleMesh.obj
 0002:000060d0       __xmm@60ad78ec60ad78ec60ad78ec60ad78ec 00000001801db0d0     GuPCMContactCapsuleMesh.obj
 0002:00006100       ??_7?$SupportLocalImpl@VTriangleV@Gu@physx@@@Gu@physx@@6B@ 00000001801db100     GuPCMContactConvexCommon.obj
 0002:00006120       __xmm@3cf5c2803cf5c2803cf5c2803cf5c280 00000001801db120     GuPCMContactConvexCommon.obj
 0002:00006130       __xmm@3f7851ec3f7851ec3f7851ec3f7851ec 00000001801db130     GuPCMContactConvexCommon.obj
 0002:00006160       ??_7?$RelativeConvex@VConvexHullNoScaleV@Gu@physx@@@Gu@physx@@6B@ 00000001801db160     GuPCMContactConvexConvex.obj
 0002:000061b0       ??_7PCMConvexVsHeightfieldContactGenerationCallback@physx@@6B@ 00000001801db1b0     GuPCMContactConvexHeightField.obj
 0002:000061c0       __xmm@3f19999a3f19999a3f19999a3f19999a 00000001801db1c0     GuPCMContactConvexHeightField.obj
 0002:00006200       ??_7PCMConvexVsMeshContactGenerationCallback@physx@@6B@ 00000001801db200     GuPCMContactConvexMesh.obj
 0002:00006230       __xmm@3f34fdf43f34fdf43f34fdf43f34fdf4 00000001801db230     GuPCMContactGenBoxConvex.obj
 0002:00006260       __xmm@3f80a3d73f80a3d73f80a3d73f80a3d7 00000001801db260     GuPCMContactGenSphereCapsule.obj
 0002:00006270       __xmm@bba3d70abba3d70abba3d70abba3d70a 00000001801db270     GuPCMContactGenSphereCapsule.obj
 0002:000062a0       __xmm@3f7ffd613f7ffd613f7ffd613f7ffd61 00000001801db2a0     GuPCMContactPlaneBox.obj
 0002:000062d0       __real@3b23d70b            00000001801db2d0     GuPCMContactPlaneCapsule.obj
 0002:000062e0       __xmm@3ca3d70a3ca3d70a3ca3d70a3ca3d70a 00000001801db2e0     GuPCMContactPlaneCapsule.obj
 0002:00006310       __xmm@3a03126f3a03126f3a03126f3a03126f 00000001801db310     GuPCMContactPlaneConvex.obj
 0002:000063a0       ??_7PCMSphereVsHeightfieldContactGenerationCallback@physx@@6B@ 00000001801db3a0     GuPCMContactSphereHeightField.obj
 0002:00006430       __xmm@3727c5ac3727c5ac3727c5ac3727c5ac 00000001801db430     GuPCMContactSphereSphere.obj
 0002:00006460       __xmm@3f7f06f73f7f06f73f7f06f73f7f06f7 00000001801db460     GuPCMContactCustomGeometry.obj
 0002:00006470       ?gPCMBoxPolygonData@Gu@physx@@3QBEB 00000001801db470     GuPCMShapeConvex.obj
 0002:000064f0       ?invalidateThresholds@Gu@physx@@3QBMB 00000001801db4f0     GuPersistentContactManifold.obj
 0002:00006508       ?invalidateQuatThresholds@Gu@physx@@3QBMB 00000001801db508     GuPersistentContactManifold.obj
 0002:00006520       ?invalidateThresholds2@Gu@physx@@3QBMB 00000001801db520     GuPersistentContactManifold.obj
 0002:00006530       ?invalidateQuatThresholds2@Gu@physx@@3QBMB 00000001801db530     GuPersistentContactManifold.obj
 0002:00006540       __xmm@00000000340000003400000034000000 00000001801db540     GuPersistentContactManifold.obj
 0002:00006550       __xmm@000000003f8000003f80000000000000 00000001801db550     GuPersistentContactManifold.obj
 0002:00006560       __xmm@00000000bf8000003f80000000000000 00000001801db560     GuPersistentContactManifold.obj
 0002:00006570       __xmm@ffffffffffffffff00000000ffffffff 00000001801db570     GuPersistentContactManifold.obj
 0002:000065a0       __xmm@c1200000c1200000c1200000c1200000 00000001801db5a0     GuPCMContactGenUtil.obj
 0002:000065f0       __real@b727c5ac            00000001801db5f0     GuSweepBoxSphere.obj
 0002:00006660       ??_C@_0GF@KALICIAI@D?3?2Repositories?2PhysX?2PhysX?9105@ 00000001801db660     GuSweepCapsuleBox.obj
 0002:00006710       __real@3f7fff58            00000001801db710     GuSweepCapsuleTriangle.obj
 0002:00006780       ??_C@_0CH@DHJGKCPD@Gu?3?3computeBounds?3?5Unknown?5shap@ 00000001801db780     GuBounds.obj
 0002:000067b0       ??_C@_0FG@GNFKBAKA@D?3?2Repositories?2PhysX?2PhysX?9105@ 00000001801db7b0     GuBounds.obj
 0002:00006808       __real@34800000            00000001801db808     GuBounds.obj
 0002:0000680c       __real@3f7fffef            00000001801db80c     GuBounds.obj
 0002:00006810       __xmm@3f8147ae3f8147ae3f8147ae3f8147ae 00000001801db810     GuBounds.obj
 0002:00006840       ??_C@_0FI@GHMFICJB@D?3?2Repositories?2PhysX?2PhysX?9105@ 00000001801db840     GuAABBTree.obj
 0002:000068a0       __xmm@5a60b17f5a60b17f5a60b17f5a60b17f 00000001801db8a0     GuAABBTree.obj
 0002:000068b0       __xmm@da60b17fda60b17fda60b17fda60b17f 00000001801db8b0     GuAABBTree.obj
 0002:00006920       ??_C@_0GD@JMNHDOCO@D?3?2Repositories?2PhysX?2PhysX?9105@ 00000001801db920     GuIncrementalAABBTree.obj
 0002:00006990       ??_C@_0FA@NNDOLOEN@D?3?2Repositories?2PhysX?2PhysX?9105@ 00000001801db990     GuIncrementalAABBTree.obj
 0002:000069e0       __real@40400000            00000001801db9e0     GuIncrementalAABBTree.obj
 0002:000069f0       ??_C@_0FD@PBNJGELN@D?3?2Repositories?2PhysX?2PhysX?9105@ 00000001801db9f0     GuSAH.obj
 0002:00006a70       ??_7PxBVH@physx@@6B@       00000001801dba70     GuBVH.obj
 0002:00006ae8       ??_C@_05OKJNPKBM@PxBVH@    00000001801dbae8     GuBVH.obj
 0002:00006af0       ??_7RefCountable@Cm@physx@@6B@ 00000001801dbaf0     GuBVH.obj
 0002:00006b00       ??_7BVH@Gu@physx@@6BPxBVH@2@@ 00000001801dbb00     GuBVH.obj
 0002:00006b78       ??_7BVH@Gu@physx@@6BRefCountable@Cm@2@@ 00000001801dbb78     GuBVH.obj
 0002:00006b90       ??_C@_0FD@ODLBPHEI@D?3?2Repositories?2PhysX?2PhysX?9105@ 00000001801dbb90     GuBVH.obj
 0002:00006be8       ??_C@_0CK@HAIOEINI@PxBVH?3?3release?3?5double?5deletion@ 00000001801dbbe8     GuBVH.obj
 0002:00006c40       ??_C@_0GJ@KDJEOJIK@D?3?2Repositories?2PhysX?2PhysX?9105@ 00000001801dbc40     GuIncrementalAABBPrunerCore.obj
 0002:00006cac       __real@3f80a3d7            00000001801dbcac     GuIncrementalAABBPrunerCore.obj
 0002:00006cd0       ??_7BasePruner@Gu@physx@@6B@ 00000001801dbcd0     GuIncrementalAABBPruner.obj
 0002:00006ce8       ??_7IncrementalAABBPruner@Gu@physx@@6B@ 00000001801dbce8     GuIncrementalAABBPruner.obj
 0002:00006d70       ??_C@_0BM@FLAABPLG@SceneQuery?4prunerAddObjects@ 00000001801dbd70     GuIncrementalAABBPruner.obj
 0002:00006d90       ??_C@_0BP@EAAOKPEE@SceneQuery?4prunerUpdateObjects@ 00000001801dbd90     GuIncrementalAABBPruner.obj
 0002:00006db0       ??_C@_0BP@EHMBNBOH@SceneQuery?4prunerRemoveObjects@ 00000001801dbdb0     GuIncrementalAABBPruner.obj
 0002:00006dd0       ??_C@_0BI@HOKOKBIM@SceneQuery?4prunerCommit@ 00000001801dbdd0     GuIncrementalAABBPruner.obj
 0002:00006df0       ??_C@_0GF@LLNCMNDF@D?3?2Repositories?2PhysX?2PhysX?9105@ 00000001801dbdf0     GuIncrementalAABBPruner.obj
 0002:00006e80       ??_C@_0BE@PKINCBHP@PruningPool?3?3resize@ 00000001801dbe80     GuPruningPool.obj
 0002:00006ea0       ??_C@_0FL@KBOEAAML@D?3?2Repositories?2PhysX?2PhysX?9105@ 00000001801dbea0     GuPruningPool.obj
 0002:00006f00       ??_C@_0BI@HMDEMGJB@PruningPool?3?3addObjects@ 00000001801dbf00     GuPruningPool.obj
 0002:00006f18       ??_C@_0BK@JPNIEHEJ@PruningPool?3?3removeObject@ 00000001801dbf18     GuPruningPool.obj
 0002:00006f38       ??_C@_0BJ@GNLAFFBD@PruningPool?3?3shiftOrigin@ 00000001801dbf38     GuPruningPool.obj
 0002:00006f58       ??_C@_0CE@MGPCCKGE@PruningPool?3?3updateAndInflateBo@ 00000001801dbf58     GuPruningPool.obj
 0002:00006fc0       ??_7BucketPruner@Gu@physx@@6B@ 00000001801dbfc0     GuBucketPruner.obj
 0002:00007050       ??_C@_0FM@DALEECGC@D?3?2Repositories?2PhysX?2PhysX?9105@ 00000001801dc050     GuBucketPruner.obj
 0002:000070ac       __real@bf13cd3a            00000001801dc0ac     GuBucketPruner.obj
 0002:000070b0       __xmm@000000007e7fffff7e7fffff7e7fffff 00000001801dc0b0     GuBucketPruner.obj
 0002:000070c0       __xmm@00000000fe7ffffffe7ffffffe7fffff 00000001801dc0c0     GuBucketPruner.obj
 0002:000070d0       __xmm@3f13cd3a3f13cd3a3f13cd3a3f13cd3a 00000001801dc0d0     GuBucketPruner.obj
 0002:000070e0       __xmm@bf13cd3abf13cd3abf13cd3a3f13cd3a 00000001801dc0e0     GuBucketPruner.obj
 0002:000070f0       __xmm@bf8000003f8000003f800000bf800000 00000001801dc0f0     GuBucketPruner.obj
 0002:00007100       __xmm@bf8000003f800000bf8000003f800000 00000001801dc100     GuBucketPruner.obj
 0002:00007110       __xmm@bf800000bf8000003f8000003f800000 00000001801dc110     GuBucketPruner.obj
 0002:00007120       __xmm@bf800000bf800000bf8000003f800000 00000001801dc120     GuBucketPruner.obj
 0002:00007130       ?mIndices@MaverickNode@Gu@physx@@2QBIB 00000001801dc130     GuMaverickNode.obj
 0002:00007190       ??_C@_0GE@JPCMPAOD@D?3?2Repositories?2PhysX?2PhysX?9105@ 00000001801dc190     GuExtendedBucketPruner.obj
 0002:00007220       ??_7CompanionPruner@Gu@physx@@6B@ 00000001801dc220     GuSecondaryPruner.obj
 0002:000072a0       ??_7CompanionPrunerBucket@@6B@ 00000001801dc2a0     GuSecondaryPruner.obj
 0002:00007320       ??_7CompanionPrunerIncremental@@6B@ 00000001801dc320     GuSecondaryPruner.obj
 0002:000073a0       ??_7CompanionPrunerAABBTree@@6B@ 00000001801dc3a0     GuSecondaryPruner.obj
 0002:00007420       ??_C@_0FP@IEGFGMAE@D?3?2Repositories?2PhysX?2PhysX?9105@ 00000001801dc420     GuSecondaryPruner.obj
 0002:000074a0       ??_7AABBPruner@Gu@physx@@6B@ 00000001801dc4a0     GuAABBPruner.obj
 0002:00007540       ??_C@_0CC@JANKLMNO@SceneQuery?4bucketPrunerAddObjec@ 00000001801dc540     GuAABBPruner.obj
 0002:00007570       ??_C@_0LA@IHBEIKND@SceneQuery?5static?5AABB?5Tree?5reb@ 00000001801dc570     GuAABBPruner.obj
 0002:00007620       ??_C@_0FK@BKFIHLPH@D?3?2Repositories?2PhysX?2PhysX?9105@ 00000001801dc620     GuAABBPruner.obj
 0002:00007680       ??_C@_0CB@JOCHAJIC@SceneQuery?4prunerNewTreeFinaliz@ 00000001801dc680     GuAABBPruner.obj
 0002:000076a8       ??_C@_0BP@IOICCIGM@SceneQuery?4prunerNewTreeSwitch@ 00000001801dc6a8     GuAABBPruner.obj
 0002:000076c8       ??_C@_0CA@LJGALBJD@SceneQuery?4prunerNewTreeMapping@ 00000001801dc6c8     GuAABBPruner.obj
 0002:000076e8       ??_C@_0CD@OCIEMIME@SceneQuery?4prunerNewTreeFinalRe@ 00000001801dc6e8     GuAABBPruner.obj
 0002:00007710       ??_C@_0CG@PMFEEPAE@SceneQuery?4prunerNewTreeRemoveO@ 00000001801dc710     GuAABBPruner.obj
 0002:00007738       ??_C@_0BL@NAENOAHO@SceneQuery?4prunerBuildStep@ 00000001801dc738     GuAABBPruner.obj
 0002:00007758       ??_C@_0CC@MJCIDELA@SceneQuery?4prunerNewTreeFullRef@ 00000001801dc758     GuAABBPruner.obj
 0002:00007780       ??_C@_0BI@DAHHAEPA@SceneQuery?4prepareBuild@ 00000001801dc780     GuAABBPruner.obj
 0002:00007798       ??_C@_0CF@PDMDBIIO@SceneQuery?4prunerFullRebuildAAB@ 00000001801dc798     GuAABBPruner.obj
 0002:000077c0       ??_C@_0CE@GKMPPEJP@SceneQuery?4prunerUpdateBucketPr@ 00000001801dc7c0     GuAABBPruner.obj
 0002:000077e8       ??_C@_0CI@MKOHFNNO@SceneQuery?4prunerRefitUpdatedAn@ 00000001801dc7e8     GuAABBPruner.obj
 0002:00007810       ??_C@_0FN@GDCDADEJ@D?3?2Repositories?2PhysX?2PhysX?9105@ 00000001801dc810     GuActorShapeMap.obj
 0002:00007890       ??_C@_0BF@DNABLJAF@Invalid?5pruner?5index@ 00000001801dc890     GuQuerySystem.obj
 0002:000078b0       ??_C@_0FL@PPICPIEB@D?3?2Repositories?2PhysX?2PhysX?9105@ 00000001801dc8b0     GuQuerySystem.obj
 0002:00007910       ??_C@_0BO@MMDENGGP@QuerySystem?4processDirtyLists@ 00000001801dc910     GuQuerySystem.obj
 0002:00007930       ??_C@_0BE@PHJMAGEL@QuerySystem?3?3update@ 00000001801dc930     GuQuerySystem.obj
 0002:00007948       ??_C@_0BK@GODFCMPK@QuerySystem?4commitUpdates@ 00000001801dc948     GuQuerySystem.obj
 0002:00007998       ??_C@_0CA@NAJNANMC@QuerySystem?4createTreeOfPruners@ 00000001801dc998     GuQuerySystem.obj
 0002:000079e0       ??_C@_0FH@LDPDOCBD@D?3?2Repositories?2PhysX?2PhysX?9105@ 00000001801dc9e0     GuFactory.obj
 0002:00007a40       ?reductionFactors@SubSortQuick@physx@@2QBMB 00000001801dca40     GuRTreeCooking.obj
 0002:00007a50       ?stopAtTrisPerLeaf1@SubSortQuick@physx@@2QBIB 00000001801dca50     GuRTreeCooking.obj
 0002:00007b20       ??_C@_0GE@HJPILKBG@D?3?2Repositories?2PhysX?2PhysX?9105@ 00000001801dcb20     GuRTreeCooking.obj
 0002:00007b84       __real@41100000            00000001801dcb84     GuRTreeCooking.obj
 0002:00007b88       __real@41700000            00000001801dcb88     GuRTreeCooking.obj
 0002:00007b8c       __real@42200000            00000001801dcb8c     GuRTreeCooking.obj
 0002:00007b90       __xmm@00000004000000030000000200000001 00000001801dcb90     GuRTreeCooking.obj
 0002:00007bc0       ??_C@_0GC@FJHDKAPE@D?3?2Repositories?2PhysX?2PhysX?9105@ 00000001801dcbc0     GuCookingBVH.obj
 0002:00007c28       ??_C@_0DL@JHPKHGFA@Cooking?3?3cookBVH?3?5user?9provided@ 00000001801dcc28     GuCookingBVH.obj
 0002:00007c68       ??_C@_0DN@PLNPGFEB@Cooking?3?3createBVH?3?5user?9provid@ 00000001801dcc68     GuCookingBVH.obj
 0002:00007cb0       ??_C@_0EL@JCJBAPHL@Cooking?3?3cookHeightField?3?5user?9@ 00000001801dccb0     GuCookingHF.obj
 0002:00007d00       ??_C@_0GB@FGFCNALB@D?3?2Repositories?2PhysX?2PhysX?9105@ 00000001801dcd00     GuCookingHF.obj
 0002:00007d70       ??_C@_0EN@FCEPCAFC@Cooking?3?3createHeightField?3?5use@ 00000001801dcd70     GuCookingHF.obj
 0002:00007dc0       ??_C@_0EK@EKAIJEBL@Cooking?3?3cookConvexMesh?3?5user?9p@ 00000001801dcdc0     GuCookingConvexMesh.obj
 0002:00007e10       ??_C@_0FA@GFFGAPML@Cooking?3?3cookConvexMesh?3?5provid@ 00000001801dce10     GuCookingConvexMesh.obj
 0002:00007e60       ??_C@_0EP@PKDCPNNO@Cooking?3?3cookConvexMesh?3?5provid@ 00000001801dce60     GuCookingConvexMesh.obj
 0002:00007eb0       ??_C@_0EO@LKFMMDE@Cooking?3?3cookConvexMesh?3?5user?9p@ 00000001801dceb0     GuCookingConvexMesh.obj
 0002:00007f00       ??_C@_0EL@KJEPJALG@Cooking?3?3cookConvexMesh?3?5user?9p@ 00000001801dcf00     GuCookingConvexMesh.obj
 0002:00007f50       ??_C@_0FM@LHMEBKMM@Cooking?3?3cookConvexMesh?3?5GPU?9co@ 00000001801dcf50     GuCookingConvexMesh.obj
 0002:00007fb0       ??_C@_0FJ@FHCFFABE@Cooking?3?3cookConvexMesh?3?5GPU?9co@ 00000001801dcfb0     GuCookingConvexMesh.obj
 0002:00008010       ??_C@_0GJ@LNFBJBJH@D?3?2Repositories?2PhysX?2PhysX?9105@ 00000001801dd010     GuCookingConvexMesh.obj
 0002:000080a0       ??_7TriangleMeshBuilder@physx@@6B@ 00000001801dd0a0     GuCookingTriangleMesh.obj
 0002:000080c8       ??_7RTreeTriangleMeshBuilder@physx@@6B@ 00000001801dd0c8     GuCookingTriangleMesh.obj
 0002:000080f0       ??_7BV4TriangleMeshBuilder@physx@@6B@ 00000001801dd0f0     GuCookingTriangleMesh.obj
 0002:00008120       ??_C@_0GL@MMPNHBHI@D?3?2Repositories?2PhysX?2PhysX?9105@ 00000001801dd120     GuCookingTriangleMesh.obj
 0002:00008190       ??_C@_0DJ@IGODLHLP@TriangleMesh?3?5Enable?5mesh?5weldi@ 00000001801dd190     GuCookingTriangleMesh.obj
 0002:000081d0       ??_C@_0FJ@HHJLKGDF@TriangleMesh?3?5triangles?5are?5too@ 00000001801dd1d0     GuCookingTriangleMesh.obj
 0002:00008230       ??_C@_0CN@KGPHHHLK@TriangleMesh?3?5mesh?5is?5too?5big?5f@ 00000001801dd230     GuCookingTriangleMesh.obj
 0002:00008260       ??_C@_0DD@CMJGDCNN@TriangleMesh?3?3loadFromDesc?3?5des@ 00000001801dd260     GuCookingTriangleMesh.obj
 0002:000082a0       ??_C@_0ED@ILJJNHIP@TriangleMesh?3?3loadFromDesc?3?5mPa@ 00000001801dd2a0     GuCookingTriangleMesh.obj
 0002:000082e8       ??_C@_0BJ@BKHDBBHO@cleaning?5the?5mesh?5failed@ 00000001801dd2e8     GuCookingTriangleMesh.obj
 0002:00008308       ??_C@_0BK@JIDHMMCE@BV4?5tree?5failed?5to?5build?4@ 00000001801dd308     GuCookingTriangleMesh.obj
 0002:00008328       ??_C@_0BL@DHNECNBE@BV32?5tree?5failed?5to?5build?4@ 00000001801dd328     GuCookingTriangleMesh.obj
 0002:00008348       ??_7RTreeCookerRemap@@6B@  00000001801dd348     GuCookingTriangleMesh.obj
 0002:00008360       ??_C@_0FC@PJIHAFK@Cooking?3?3validateTriangleMesh?3?5@ 00000001801dd360     GuCookingTriangleMesh.obj
 0002:000083b4       __real@48742400            00000001801dd3b4     GuCookingTriangleMesh.obj
 0002:000083e0       ??_7PxCollisionTetrahedronMeshData@physx@@6B@ 00000001801dd3e0     GuCookingTetrahedronMesh.obj
 0002:00008410       ??_7PxSimulationTetrahedronMeshData@physx@@6B@ 00000001801dd410     GuCookingTetrahedronMesh.obj
 0002:00008430       ??_7CollisionTetrahedronMeshData@Gu@physx@@6B@ 00000001801dd430     GuCookingTetrahedronMesh.obj
 0002:00008460       ??_7SimulationTetrahedronMeshData@Gu@physx@@6B@ 00000001801dd460     GuCookingTetrahedronMesh.obj
 0002:00008480       ??_C@_0GO@HBCBFKDM@D?3?2Repositories?2PhysX?2PhysX?9105@ 00000001801dd480     GuCookingTetrahedronMesh.obj
 0002:000084f0       ??_7?$LocalConvex@VTetrahedronV@Gu@physx@@@Gu@physx@@6B@ 00000001801dd4f0     GuCookingTetrahedronMesh.obj
 0002:00008520       ??_C@_0CD@OJGNHLOE@BV4_AABBTree?5tree?5failed?5to?5bui@ 00000001801dd520     GuCookingTetrahedronMesh.obj
 0002:00008548       ??_C@_0DG@NCNIEEHB@TetrahedronMesh?3?3loadFromDesc?3?5@ 00000001801dd548     GuCookingTetrahedronMesh.obj
 0002:00008580       ??_C@_0EG@CJIFGLMC@TetrahedronMesh?3?3loadFromDesc?3?5@ 00000001801dd580     GuCookingTetrahedronMesh.obj
 0002:000085c8       __real@be2aaaab            00000001801dd5c8     GuCookingTetrahedronMesh.obj
 0002:000085d0       __xmm@00000003000000030000000300000003 00000001801dd5d0     GuCookingTetrahedronMesh.obj
 0002:00008600       __real@3bc79ca10c924223    00000001801dd600     GuCookingVolumeIntegration.obj
 0002:00008608       __real@3f91111111111111    00000001801dd608     GuCookingVolumeIntegration.obj
 0002:00008610       __real@3fa5555555555555    00000001801dd610     GuCookingVolumeIntegration.obj
 0002:00008618       __real@3fa999999999999a    00000001801dd618     GuCookingVolumeIntegration.obj
 0002:00008620       __real@3fb5555555555555    00000001801dd620     GuCookingVolumeIntegration.obj
 0002:00008628       __real@3fc5555555555555    00000001801dd628     GuCookingVolumeIntegration.obj
 0002:00008630       __real@3fe0000000000000    00000001801dd630     GuCookingVolumeIntegration.obj
 0002:00008638       __real@3ff0000000000000    00000001801dd638     GuCookingVolumeIntegration.obj
 0002:00008640       __real@4008000000000000    00000001801dd640     GuCookingVolumeIntegration.obj
 0002:00008648       __real@4010000000000000    00000001801dd648     GuCookingVolumeIntegration.obj
 0002:00008650       __real@bf91111111111111    00000001801dd650     GuCookingVolumeIntegration.obj
 0002:00008658       __real@bfa999999999999a    00000001801dd658     GuCookingVolumeIntegration.obj
 0002:00008660       __real@bfb5555555555555    00000001801dd660     GuCookingVolumeIntegration.obj
 0002:00008668       __real@bfc5555555555555    00000001801dd668     GuCookingVolumeIntegration.obj
 0002:00008670       __xmm@3c0888893c0888893c0888893c088889 00000001801dd670     GuCookingVolumeIntegration.obj
 0002:00008680       __xmm@3c8888893c8888893c8888893c888889 00000001801dd680     GuCookingVolumeIntegration.obj
 0002:00008690       __xmm@3d2aaaab3d2aaaab3d2aaaab3d2aaaab 00000001801dd690     GuCookingVolumeIntegration.obj
 0002:000086a0       __xmm@3e2aaaab3e2aaaab3e2aaaab3e2aaaab 00000001801dd6a0     GuCookingVolumeIntegration.obj
 0002:000086b0       __xmm@3f811111111111113f81111111111111 00000001801dd6b0     GuCookingVolumeIntegration.obj
 0002:000086c0       __xmm@3f811111111111113f91111111111111 00000001801dd6c0     GuCookingVolumeIntegration.obj
 0002:000086d0       __xmm@3f911111111111113f91111111111111 00000001801dd6d0     GuCookingVolumeIntegration.obj
 0002:000086e0       __xmm@3fa55555555555553fa5555555555555 00000001801dd6e0     GuCookingVolumeIntegration.obj
 0002:000086f0       __xmm@3fa55555555555553fc5555555555555 00000001801dd6f0     GuCookingVolumeIntegration.obj
 0002:00008700       __xmm@3fd55555555555553fd5555555555555 00000001801dd700     GuCookingVolumeIntegration.obj
 0002:00008710       __xmm@3fe00000000000003fe0000000000000 00000001801dd710     GuCookingVolumeIntegration.obj
 0002:00008720       __xmm@7fffffffffffffff7fffffffffffffff 00000001801dd720     GuCookingVolumeIntegration.obj
 0002:00008730       __xmm@80000000000000008000000000000000 00000001801dd730     GuCookingVolumeIntegration.obj
 0002:00008740       ??_7ConvexHullLib@physx@@6B@ 00000001801dd740     GuCookingQuickHullConvexHullLib.obj
 0002:00008760       ??_7QuickHullConvexHullLib@physx@@6B@ 00000001801dd760     GuCookingQuickHullConvexHullLib.obj
 0002:00008780       ??_C@_0HF@NAPPMPDG@D?3?2Repositories?2PhysX?2PhysX?9105@ 00000001801dd780     GuCookingQuickHullConvexHullLib.obj
 0002:00008800       ??_C@_0GA@EPPAEJPM@QuickHullConvexHullLib?3?3findSim@ 00000001801dd800     GuCookingQuickHullConvexHullLib.obj
 0002:00008860       ??_C@_0FB@NEBIJMML@QuickHullConvexHullLib?3?3findSim@ 00000001801dd860     GuCookingQuickHullConvexHullLib.obj
 0002:000088c0       ??_C@_0FB@CLLCBEMM@QuickHullConvexHullLib?3?3findSim@ 00000001801dd8c0     GuCookingQuickHullConvexHullLib.obj
 0002:00008914       __real@34c00000            00000001801dd914     GuCookingQuickHullConvexHullLib.obj
 0002:00008918       ??_C@_0DP@PJBJBEGF@Meshmerizer?3?3extractHullPolygon@ 00000001801dd918     GuCookingConvexPolygonsBuilder.obj
 0002:00008960       ??_C@_0HE@BAMEOKCA@D?3?2Repositories?2PhysX?2PhysX?9105@ 00000001801dd960     GuCookingConvexPolygonsBuilder.obj
 0002:000089d8       ??_C@_0DL@IAFKOCCK@ConvexHullBuilder?3?5convex?5hull?5@ 00000001801dd9d8     GuCookingConvexPolygonsBuilder.obj
 0002:00008a20       ??_C@_0GF@OJLJHAMH@ConvexHullBuilder?3?3CreateTriang@ 00000001801dda20     GuCookingConvexPolygonsBuilder.obj
 0002:00008ab0       ??_C@_0DF@LLFJIJGM@Gu?3?3ConvexMesh?3?3loadFromDesc?3?5d@ 00000001801ddab0     GuCookingConvexMeshBuilder.obj
 0002:00008af0       ??_C@_0HK@JOGKIEAA@Gu?3?3ConvexMesh?3?5Mesh?5has?5a?5nega@ 00000001801ddaf0     GuCookingConvexMeshBuilder.obj
 0002:00008b70       ??_C@_0DH@NJPPHFFD@Gu?3?3ConvexMesh?3?5Error?5computing@ 00000001801ddb70     GuCookingConvexMeshBuilder.obj
 0002:00008ba8       ??_C@_0DJ@LJDLGLDJ@Gu?3?3ConvexMesh?3?3loadConvexHull?3@ 00000001801ddba8     GuCookingConvexMeshBuilder.obj
 0002:00008bf0       ??_C@_0HJ@KJANPPOE@ConvexMeshBuilder?3?3computeHullP@ 00000001801ddbf0     GuCookingConvexMeshBuilder.obj
 0002:00008c70       ??_C@_0HA@LADHAMJ@D?3?2Repositories?2PhysX?2PhysX?9105@ 00000001801ddc70     GuCookingConvexMeshBuilder.obj
 0002:00008ce0       ??_C@_0O@JMAGMMGG@PxHullPolygon@ 00000001801ddce0     GuCookingConvexMeshBuilder.obj
 0002:00008cf0       __real@3f13cd3a            00000001801ddcf0     GuCookingConvexMeshBuilder.obj
 0002:00008d20       ??_C@_0GO@KGAKCH@D?3?2Repositories?2PhysX?2PhysX?9105@ 00000001801ddd20     GuCookingConvexHullUtils.obj
 0002:00008d90       __real@3e20d97c            00000001801ddd90     GuCookingConvexHullUtils.obj
 0002:00008da0       ??_C@_0GM@JMKICPLK@D?3?2Repositories?2PhysX?2PhysX?9105@ 00000001801ddda0     GuCookingConvexHullLib.obj
 0002:00008e10       ??_C@_0JE@PABBNGEL@ConvexHullLib?3?3cleanupVertices?3@ 00000001801dde10     GuCookingConvexHullLib.obj
 0002:00008ed0       ??_C@_0HA@MFKHNAJM@D?3?2Repositories?2PhysX?2PhysX?9105@ 00000001801dded0     GuCookingConvexHullBuilder.obj
 0002:00008f40       ??_C@_0EB@DCEIFDGC@ConvexHullBuilder?3?3init?3?5convex@ 00000001801ddf40     GuCookingConvexHullBuilder.obj
 0002:00008f90       ??_C@_0FM@KICBLCBH@Gu?3?3ConvexMesh?3?3checkHullPolygo@ 00000001801ddf90     GuCookingConvexHullBuilder.obj
 0002:00008ff0       ??_C@_0GO@HBFIOGLL@Gu?3?3ConvexMesh?3?3checkHullPolygo@ 00000001801ddff0     GuCookingConvexHullBuilder.obj
 0002:00009060       ??_C@_0HF@OLJFBIEL@ConvexHullBuilder?3?5convex?5hull?5@ 00000001801de060     GuCookingConvexHullBuilder.obj
 0002:000090e0       ??_C@_0OG@JNHFOIL@ConvexHullBuilder?3?5convex?5hull?5@ 00000001801de0e0     GuCookingConvexHullBuilder.obj
 0002:000091d0       ??_C@_0EJ@NIOIBAKH@Cooking?3?3cookConvexMesh?3?5non?9ma@ 00000001801de1d0     GuCookingConvexHullBuilder.obj
 0002:00009240       ??_C@_0HD@OGJOLIJ@D?3?2Repositories?2PhysX?2PhysX?9105@ 00000001801de240     GuCookingBigConvexDataBuilder.obj
 0002:000092c0       __sz_PhysXFoundation_64_dll 00000001801de2c0     PhysXFoundation_64:PhysXFoundation_64.dll
 0002:000092d8       ??_C@_1BK@DBDEIDLH@?$AAK?$AAE?$AAR?$AAN?$AAE?$AAL?$AA3?$AA2?$AA?4?$AAD?$AAL?$AAL@ 00000001801de2d8     Delayimp:delayhlp.obj
 0002:000092f8       ??_C@_0BI@OMNLIJDB@AcquireSRWLockExclusive@ 00000001801de2f8     Delayimp:delayhlp.obj
 0002:00009310       ??_C@_0BI@HMIEPCNJ@ReleaseSRWLockExclusive@ 00000001801de310     Delayimp:delayhlp.obj
 0002:00009328       __pfnDliFailureHook2       00000001801de328     Delayimp:delayhk1.obj
 0002:00009338       ??_7type_info@@6B@         00000001801de338     LIBCMT:std_type_info_static.obj
 0002:000093a0       _pDefaultRawDllMain        00000001801de3a0     LIBCMT:dll_dllmain.obj
 0002:000093a0       _pRawDllMain               00000001801de3a0     LIBCMT:dll_dllmain.obj
 0002:000093b0       _load_config_used          00000001801de3b0     LIBCMT:loadcfg.obj
 0002:000094f0       _pDestructExceptionObject  00000001801de4f0     libvcruntime:ehhelpers.obj
 0002:00009c10       ??_C@_08EHJDFFNH@__based?$CI@ 00000001801dec10     libvcruntime:undname.obj
 0002:00009c20       ??_C@_07KOLFKCDI@__cdecl@  00000001801dec20     libvcruntime:undname.obj
 0002:00009c28       ??_C@_08GHMPAG@__pascal@   00000001801dec28     libvcruntime:undname.obj
 0002:00009c38       ??_C@_09IFJBGAPI@__stdcall@ 00000001801dec38     libvcruntime:undname.obj
 0002:00009c48       ??_C@_0L@NPHFGOKO@__thiscall@ 00000001801dec48     libvcruntime:undname.obj
 0002:00009c58       ??_C@_0L@JMKHOMEK@__fastcall@ 00000001801dec58     libvcruntime:undname.obj
 0002:00009c68       ??_C@_0N@BCKKPABJ@__vectorcall@ 00000001801dec68     libvcruntime:undname.obj
 0002:00009c78       ??_C@_09HIJEGCPM@__clrcall@ 00000001801dec78     libvcruntime:undname.obj
 0002:00009c84       ??_C@_06GHPCKEAG@__eabi@   00000001801dec84     libvcruntime:undname.obj
 0002:00009c90       ??_C@_09IOPIDJLG@__swift_1@ 00000001801dec90     libvcruntime:undname.obj
 0002:00009ca0       ??_C@_09KFNFGKHF@__swift_2@ 00000001801deca0     libvcruntime:undname.obj
 0002:00009cb0       ??_C@_09LMMOFLDE@__swift_3@ 00000001801decb0     libvcruntime:undname.obj
 0002:00009cc0       ??_C@_07JOMMBBKO@__ptr64@  00000001801decc0     libvcruntime:undname.obj
 0002:00009cc8       ??_C@_0L@PILCLIHE@__restrict@ 00000001801decc8     libvcruntime:undname.obj
 0002:00009cd8       ??_C@_0M@GFIIJFMG@__unaligned@ 00000001801decd8     libvcruntime:undname.obj
 0002:00009ce8       ??_C@_09DHDLOLLB@restrict?$CI@ 00000001801dece8     libvcruntime:undname.obj
 0002:00009cf4       ??_C@_04NIHEBCM@?5new@     00000001801decf4     libvcruntime:undname.obj
 0002:00009d00       ??_C@_07FPCDHGMM@?5delete@ 00000001801ded00     libvcruntime:undname.obj
 0002:00009d08       ??_C@_01NEMOKFLO@?$DN@     00000001801ded08     libvcruntime:undname.obj
 0002:00009d0c       ??_C@_02GPIOPFAK@?$DO?$DO@ 00000001801ded0c     libvcruntime:undname.obj
 0002:00009d10       ??_C@_02FODMEDOG@?$DM?$DM@ 00000001801ded10     libvcruntime:undname.obj
 0002:00009d14       ??_C@_01DCLJPIOD@?$CB@     00000001801ded14     libvcruntime:undname.obj
 0002:00009d18       ??_C@_02EGOFBIJA@?$DN?$DN@ 00000001801ded18     libvcruntime:undname.obj
 0002:00009d1c       ??_C@_02FDNJECIE@?$CB?$DN@ 00000001801ded1c     libvcruntime:undname.obj
 0002:00009d20       ??_C@_02GPECMEKF@?$FL?$FN@ 00000001801ded20     libvcruntime:undname.obj
 0002:00009d28       ??_C@_08LHJFAFGD@operator@ 00000001801ded28     libvcruntime:undname.obj
 0002:00009d34       ??_C@_02HBOOOICD@?9?$DO@   00000001801ded34     libvcruntime:undname.obj
 0002:00009d38       ??_C@_01NBENCBCI@?$CK@     00000001801ded38     libvcruntime:undname.obj
 0002:00009d3c       ??_C@_02ECNGHCIF@?$CL?$CL@ 00000001801ded3c     libvcruntime:undname.obj
 0002:00009d40       ??_C@_02BAABKJLB@?9?9@     00000001801ded40     libvcruntime:undname.obj
 0002:00009d44       ??_C@_01JOAMLHOP@?9@       00000001801ded44     libvcruntime:undname.obj
 0002:00009d48       ??_C@_01MIFGBAGJ@?$CL@     00000001801ded48     libvcruntime:undname.obj
 0002:00009d4c       ??_C@_01HNPIGOCE@?$CG@     00000001801ded4c     libvcruntime:undname.obj
 0002:00009d50       ??_C@_03MNHNFDLC@?9?$DO?$CK@ 00000001801ded50     libvcruntime:undname.obj
 0002:00009d54       ??_C@_01KMDKNFGN@?1@       00000001801ded54     libvcruntime:undname.obj
 0002:00009d58       ??_C@_01FGNFDNOH@?$CF@     00000001801ded58     libvcruntime:undname.obj
 0002:00009d5c       ??_C@_01MNNFJEPP@?$DM@     00000001801ded5c     libvcruntime:undname.obj
 0002:00009d60       ??_C@_02EHCHHCKH@?$DM?$DN@ 00000001801ded60     libvcruntime:undname.obj
 0002:00009d64       ??_C@_01PPODPGHN@?$DO@     00000001801ded64     libvcruntime:undname.obj
 0002:00009d68       ??_C@_02EEKDKGMJ@?$DO?$DN@ 00000001801ded68     libvcruntime:undname.obj
 0002:00009d6c       ??_C@_01IHBHIGKO@?0@       00000001801ded6c     libvcruntime:undname.obj
 0002:00009d70       ??_C@_02HCKGKOFO@?$CI?$CJ@ 00000001801ded70     libvcruntime:undname.obj
 0002:00009d74       ??_C@_01PJKLJHI@?$HO@      00000001801ded74     libvcruntime:undname.obj
 0002:00009d78       ??_C@_01JKBOJNNK@?$FO@     00000001801ded78     libvcruntime:undname.obj
 0002:00009d7c       ??_C@_01DNKMNLPK@?$HM@     00000001801ded7c     libvcruntime:undname.obj
 0002:00009d80       ??_C@_02PPKAJPJL@?$CG?$CG@ 00000001801ded80     libvcruntime:undname.obj
 0002:00009d84       ??_C@_02NONPIBCD@?$HM?$HM@ 00000001801ded84     libvcruntime:undname.obj
 0002:00009d88       ??_C@_02FPIMKNGF@?$CK?$DN@ 00000001801ded88     libvcruntime:undname.obj
 0002:00009d8c       ??_C@_02FOEOMHFC@?$CL?$DN@ 00000001801ded8c     libvcruntime:undname.obj
 0002:00009d90       ??_C@_02FKMDLLOA@?9?$DN@   00000001801ded90     libvcruntime:undname.obj
 0002:00009d94       ??_C@_02FJEHGPIO@?1?$DN@   00000001801ded94     libvcruntime:undname.obj
 0002:00009d98       ??_C@_02FENAOKFI@?$CF?$DN@ 00000001801ded98     libvcruntime:undname.obj
 0002:00009d9c       ??_C@_03IKFCCPFF@?$DO?$DO?$DN@ 00000001801ded9c     libvcruntime:undname.obj
 0002:00009da0       ??_C@_03CDNPDDLA@?$DM?$DM?$DN@ 00000001801deda0     libvcruntime:undname.obj
 0002:00009da4       ??_C@_02FGJGFEAB@?$CG?$DN@ 00000001801deda4     libvcruntime:undname.obj
 0002:00009da8       ??_C@_02DHLNPPGH@?$HM?$DN@ 00000001801deda8     libvcruntime:undname.obj
 0002:00009dac       ??_C@_02MHEGNOJ@?$FO?$DN@  00000001801dedac     libvcruntime:undname.obj
 0002:00009db0       ??_C@_09IFPLHPGF@?$GAvftable?8@ 00000001801dedb0     libvcruntime:undname.obj
 0002:00009dc0       ??_C@_09BLBHBJP@?$GAvbtable?8@ 00000001801dedc0     libvcruntime:undname.obj
 0002:00009dd0       ??_C@_07FEEIOKP@?$GAvcall?8@ 00000001801dedd0     libvcruntime:undname.obj
 0002:00009dd8       ??_C@_08LLFFHHDJ@?$GAtypeof?8@ 00000001801dedd8     libvcruntime:undname.obj
 0002:00009de8       ??_C@_0BF@KDPPACIK@?$GAlocal?5static?5guard?8@ 00000001801dede8     libvcruntime:undname.obj
 0002:00009e00       ??_C@_08OBABFOLI@?$GAstring?8@ 00000001801dee00     libvcruntime:undname.obj
 0002:00009e10       ??_C@_0BD@JDLKDPAB@?$GAvbase?5destructor?8@ 00000001801dee10     libvcruntime:undname.obj
 0002:00009e28       ??_C@_0BN@DEGPLNFK@?$GAvector?5deleting?5destructor?8@ 00000001801dee28     libvcruntime:undname.obj
 0002:00009e48       ??_C@_0BO@OBMKPJIG@?$GAdefault?5constructor?5closure?8@ 00000001801dee48     libvcruntime:undname.obj
 0002:00009e68       ??_C@_0BN@IMDCHIKM@?$GAscalar?5deleting?5destructor?8@ 00000001801dee68     libvcruntime:undname.obj
 0002:00009e88       ??_C@_0BO@PFGOCPJJ@?$GAvector?5constructor?5iterator?8@ 00000001801dee88     libvcruntime:undname.obj
 0002:00009ea8       ??_C@_0BN@LFPFMEDL@?$GAvector?5destructor?5iterator?8@ 00000001801deea8     libvcruntime:undname.obj
 0002:00009ec8       ??_C@_0CE@IKBNEHA@?$GAvector?5vbase?5constructor?5itera@ 00000001801deec8     libvcruntime:undname.obj
 0002:00009ef0       ??_C@_0BL@NILFHHPC@?$GAvirtual?5displacement?5map?8@ 00000001801deef0     libvcruntime:undname.obj
 0002:00009f10       ??_C@_0CB@JONCMFFK@?$GAeh?5vector?5constructor?5iterator@ 00000001801def10     libvcruntime:undname.obj
 0002:00009f38       ??_C@_0CA@GCEOPDGL@?$GAeh?5vector?5destructor?5iterator?8@ 00000001801def38     libvcruntime:undname.obj
 0002:00009f58       ??_C@_0CH@OOJPLCPH@?$GAeh?5vector?5vbase?5constructor?5it@ 00000001801def58     libvcruntime:undname.obj
 0002:00009f80       ??_C@_0BL@LLKPOHJI@?$GAcopy?5constructor?5closure?8@ 00000001801def80     libvcruntime:undname.obj
 0002:00009fa0       ??_C@_0BA@KBCDOMBN@?$GAudt?5returning?8@ 00000001801defa0     libvcruntime:undname.obj
 0002:00009fb0       ??_C@_03KLGMFNMG@?$GAEH@   00000001801defb0     libvcruntime:undname.obj
 0002:00009fb4       ??_C@_05KHLCHHI@?$GARTTI@  00000001801defb4     libvcruntime:undname.obj
 0002:00009fc0       ??_C@_0BA@KKLDJDLB@?$GAlocal?5vftable?8@ 00000001801defc0     libvcruntime:undname.obj
 0002:00009fd0       ??_C@_0CE@IIHCMGGL@?$GAlocal?5vftable?5constructor?5clos@ 00000001801defd0     libvcruntime:undname.obj
 0002:00009ff4       ??_C@_06FHBGPFGH@?5new?$FL?$FN@ 00000001801deff4     libvcruntime:undname.obj
 0002:0000a000       ??_C@_09LBNFPBCA@?5delete?$FL?$FN@ 00000001801df000     libvcruntime:undname.obj
 0002:0000a010       ??_C@_0P@HJKNJFNN@?$GAomni?5callsig?8@ 00000001801df010     libvcruntime:undname.obj
 0002:0000a020       ??_C@_0BL@CNOONJFP@?$GAplacement?5delete?5closure?8@ 00000001801df020     libvcruntime:undname.obj
 0002:0000a040       ??_C@_0BN@CKNJLHMB@?$GAplacement?5delete?$FL?$FN?5closure?8@ 00000001801df040     libvcruntime:undname.obj
 0002:0000a060       ??_C@_0CG@CFDHKGGD@?$GAmanaged?5vector?5constructor?5ite@ 00000001801df060     libvcruntime:undname.obj
 0002:0000a088       ??_C@_0CF@IMGKMJNO@?$GAmanaged?5vector?5destructor?5iter@ 00000001801df088     libvcruntime:undname.obj
 0002:0000a0b0       ??_C@_0CG@HLDDJMAG@?$GAeh?5vector?5copy?5constructor?5ite@ 00000001801df0b0     libvcruntime:undname.obj
 0002:0000a0d8       ??_C@_0CM@FCBBDIGB@?$GAeh?5vector?5vbase?5copy?5construct@ 00000001801df0d8     libvcruntime:undname.obj
 0002:0000a108       ??_C@_0BL@CLIPGLGB@?$GAdynamic?5initializer?5for?5?8@ 00000001801df108     libvcruntime:undname.obj
 0002:0000a128       ??_C@_0CB@PDBIFEP@?$GAdynamic?5atexit?5destructor?5for?5@ 00000001801df128     libvcruntime:undname.obj
 0002:0000a150       ??_C@_0CD@CGAJBKEJ@?$GAvector?5copy?5constructor?5iterat@ 00000001801df150     libvcruntime:undname.obj
 0002:0000a178       ??_C@_0CJ@GJELGAMM@?$GAvector?5vbase?5copy?5constructor?5@ 00000001801df178     libvcruntime:undname.obj
 0002:0000a1a8       ??_C@_0CL@FGIJHLCE@?$GAmanaged?5vector?5copy?5constructo@ 00000001801df1a8     libvcruntime:undname.obj
 0002:0000a1d8       ??_C@_0BM@PMGGMLDN@?$GAlocal?5static?5thread?5guard?8@ 00000001801df1d8     libvcruntime:undname.obj
 0002:0000a1f8       ??_C@_0N@BDNMDMOL@operator?5?$CC?$CC?5@ 00000001801df1f8     libvcruntime:undname.obj
 0002:0000a208       ??_C@_0BC@GGEBGALA@operator?5co_await@ 00000001801df208     libvcruntime:undname.obj
 0002:0000a220       ??_C@_0M@GAAIMMOH@operator?$DM?$DN?$DO@ 00000001801df220     libvcruntime:undname.obj
 0002:0000a230       ??_C@_0BC@DAFEJGAK@?5Type?5Descriptor?8@ 00000001801df230     libvcruntime:undname.obj
 0002:0000a248       ??_C@_0BM@LDKODKLH@?5Base?5Class?5Descriptor?5at?5?$CI@ 00000001801df248     libvcruntime:undname.obj
 0002:0000a268       ??_C@_0BD@LGICGFMM@?5Base?5Class?5Array?8@ 00000001801df268     libvcruntime:undname.obj
 0002:0000a280       ??_C@_0BN@MECKDCOJ@?5Class?5Hierarchy?5Descriptor?8@ 00000001801df280     libvcruntime:undname.obj
 0002:0000a2a0       ??_C@_0BK@CFCOFLF@?5Complete?5Object?5Locator?8@ 00000001801df2a0     libvcruntime:undname.obj
 0002:0000a2c0       ??_C@_0BG@JNJLAMPM@?$GAanonymous?5namespace?8@ 00000001801df2c0     libvcruntime:undname.obj
 0002:0000a2d8       ??_C@_04HEJADOOB@CV?3?5@   00000001801df2d8     libvcruntime:undname.obj
 0002:0000a2e0       ??_C@_02MOLJINC@?3?3@      00000001801df2e0     libvcruntime:undname.obj
 0002:0000a2e8       ??_C@_0BE@JAEOCHPE@template?9parameter?9@ 00000001801df2e8     libvcruntime:undname.obj
 0002:0000a300       ??_C@_0BF@LNLGBBNL@?$GAtemplate?9parameter?9@ 00000001801df300     libvcruntime:undname.obj
 0002:0000a318       ??_C@_0O@KHGCOMHP@generic?9type?9@ 00000001801df318     libvcruntime:undname.obj
 0002:0000a328       ??_C@_0P@ODDENDLM@?$GAgeneric?9type?9@ 00000001801df328     libvcruntime:undname.obj
 0002:0000a338       ??_C@_02OHHJMEON@?8?8@     00000001801df338     libvcruntime:undname.obj
 0002:0000a340       ??_C@_0BN@IBLMMFAP@?$GAnon?9type?9template?9parameter@ 00000001801df340     libvcruntime:undname.obj
 0002:0000a360       ??_C@_03DLDNIBIK@?$CFlf@   00000001801df360     libvcruntime:undname.obj
 0002:0000a364       ??_C@_04OFALKAJ@?$DP?$DP_C@ 00000001801df364     libvcruntime:undname.obj
 0002:0000a36c       ??_C@_03KHICJKCI@?4?4?4@   00000001801df36c     libvcruntime:undname.obj
 0002:0000a370       ??_C@_04HIBGFPH@NULL@      00000001801df370     libvcruntime:undname.obj
 0002:0000a378       ??_C@_02DPKJAMEF@?$CFd@    00000001801df378     libvcruntime:undname.obj
 0002:0000a380       ??_C@_0BK@IHCCFNEL@?$GAtemplate?9type?9parameter?9@ 00000001801df380     libvcruntime:undname.obj
 0002:0000a3a0       ??_C@_0BK@OFCNNNKO@?$GAgeneric?9class?9parameter?9@ 00000001801df3a0     libvcruntime:undname.obj
 0002:0000a3c0       ??_C@_0BL@NGJBLFIL@?$GAgeneric?9method?9parameter?9@ 00000001801df3c0     libvcruntime:undname.obj
 0002:0000a3e0       ??_C@_07OHNGEDJK@nullptr@  00000001801df3e0     libvcruntime:undname.obj
 0002:0000a3e8       ??_C@_06COJIGPIB@lambda@   00000001801df3e8     libvcruntime:undname.obj
 0002:0000a3f0       ??_C@_0BE@EODMJLIF@?$GAtemplate?9parameter@ 00000001801df3f0     libvcruntime:undname.obj
 0002:0000a404       ??_C@_03OPGICMGF@?$HN?8?5@ 00000001801df404     libvcruntime:undname.obj
 0002:0000a408       ??_C@_02IGFCGPIL@?$HN?8@   00000001801df408     libvcruntime:undname.obj
 0002:0000a410       ??_C@_0N@CBHHHENL@?$GAvtordispex?$HL@ 00000001801df410     libvcruntime:undname.obj
 0002:0000a420       ??_C@_0L@GHPFDFH@?$GAvtordisp?$HL@ 00000001801df420     libvcruntime:undname.obj
 0002:0000a430       ??_C@_0L@HNGCOGAE@?$GAadjustor?$HL@ 00000001801df430     libvcruntime:undname.obj
 0002:0000a440       ??_C@_0CB@KJDOOODE@?$GAlocal?5static?5destructor?5helper@ 00000001801df440     libvcruntime:undname.obj
 0002:0000a468       ??_C@_0DB@ILEFOCIJ@?$GAtemplate?5static?5data?5member?5co@ 00000001801df468     libvcruntime:undname.obj
 0002:0000a4a0       ??_C@_0DA@HGFJFBBE@?$GAtemplate?5static?5data?5member?5de@ 00000001801df4a0     libvcruntime:undname.obj
 0002:0000a4d0       ??_C@_07PGOEDBHP@static?5@ 00000001801df4d0     libvcruntime:undname.obj
 0002:0000a4d8       ??_C@_08NIEOINHE@virtual?5@ 00000001801df4d8     libvcruntime:undname.obj
 0002:0000a4e8       ??_C@_09LAPHOOG@private?3?5@ 00000001801df4e8     libvcruntime:undname.obj
 0002:0000a4f8       ??_C@_0M@GAIFPFIP@protected?3?5@ 00000001801df4f8     libvcruntime:undname.obj
 0002:0000a508       ??_C@_08GPDDCMKI@public?3?5@ 00000001801df508     libvcruntime:undname.obj
 0002:0000a518       ??_C@_08KJLFOPNE@?$FLthunk?$FN?3@ 00000001801df518     libvcruntime:undname.obj
 0002:0000a528       ??_C@_0M@DHNBOJMP@extern?5?$CCC?$CC?5@ 00000001801df528     libvcruntime:undname.obj
 0002:0000a534       ??_C@_02KCKGHPCA@?$CJ?5@   00000001801df534     libvcruntime:undname.obj
 0002:0000a538       ??_C@_05CIHEBHNO@char?5@   00000001801df538     libvcruntime:undname.obj
 0002:0000a540       ??_C@_06EHJMALKF@short?5@  00000001801df540     libvcruntime:undname.obj
 0002:0000a548       ??_C@_04LAHKHJMA@int?5@    00000001801df548     libvcruntime:undname.obj
 0002:0000a550       ??_C@_05CJIMAING@long?5@   00000001801df550     libvcruntime:undname.obj
 0002:0000a558       ??_C@_09EBBEKKIH@unsigned?5@ 00000001801df558     libvcruntime:undname.obj
 0002:0000a564       ??_C@_05BEFAKPML@void?5@   00000001801df564     libvcruntime:undname.obj
 0002:0000a570       ??_C@_09GAIEOBLP@volatile?5@ 00000001801df570     libvcruntime:undname.obj
 0002:0000a580       ??_C@_08PABEKFH@volatile@  00000001801df580     libvcruntime:undname.obj
 0002:0000a590       ??_C@_0BA@LKIJLKPP@std?3?3nullptr_t?5@ 00000001801df590     libvcruntime:undname.obj
 0002:0000a5a0       ??_C@_0P@GCOCNKDM@std?3?3nullptr_t@ 00000001801df5a0     libvcruntime:undname.obj
 0002:0000a5b0       ??_C@_0L@EGPHHEKN@?$DMellipsis?$DO@ 00000001801df5b0     libvcruntime:undname.obj
 0002:0000a5bc       ??_C@_04EENFHACM@?0?4?4?4@ 00000001801df5bc     libvcruntime:undname.obj
 0002:0000a5c8       ??_C@_0M@ELJOJFFH@?0?$DMellipsis?$DO@ 00000001801df5c8     libvcruntime:undname.obj
 0002:0000a5d8       ??_C@_09DNHFEOJI@?5noexcept@ 00000001801df5d8     libvcruntime:undname.obj
 0002:0000a5e4       ??_C@_03PBJBJNON@cpu@      00000001801df5e4     libvcruntime:undname.obj
 0002:0000a5e8       ??_C@_03DCBBJBAA@amp@      00000001801df5e8     libvcruntime:undname.obj
 0002:0000a5ec       ??_C@_02KEGNLNML@?0?5@     00000001801df5ec     libvcruntime:undname.obj
 0002:0000a5f0       ??_C@_04ENMBGAPA@char@     00000001801df5f0     libvcruntime:undname.obj
 0002:0000a5f8       ??_C@_05BFKKPKCG@short@    00000001801df5f8     libvcruntime:undname.obj
 0002:0000a600       ??_C@_03JBIPMCLC@int@      00000001801df600     libvcruntime:undname.obj
 0002:0000a604       ??_C@_04GOKPGOLB@long@     00000001801df604     libvcruntime:undname.obj
 0002:0000a60c       ??_C@_06BNJCAIGJ@double@   00000001801df60c     libvcruntime:undname.obj
 0002:0000a614       ??_C@_06EBGKOKIG@__int8@   00000001801df614     libvcruntime:undname.obj
 0002:0000a620       ??_C@_07ICFHOGAF@__int16@  00000001801df620     libvcruntime:undname.obj
 0002:0000a628       ??_C@_07OFLPPHGP@__int32@  00000001801df628     libvcruntime:undname.obj
 0002:0000a630       ??_C@_07LFCOJCAC@__int64@  00000001801df630     libvcruntime:undname.obj
 0002:0000a638       ??_C@_08GAHOLHEO@__int128@ 00000001801df638     libvcruntime:undname.obj
 0002:0000a648       ??_C@_09EEKGDCPH@?$DMunknown?$DO@ 00000001801df648     libvcruntime:undname.obj
 0002:0000a658       ??_C@_07CFHGOPCN@char8_t@  00000001801df658     libvcruntime:undname.obj
 0002:0000a660       ??_C@_08HBIPOFJB@char16_t@ 00000001801df660     libvcruntime:undname.obj
 0002:0000a670       ??_C@_08IECNCBKG@char32_t@ 00000001801df670     libvcruntime:undname.obj
 0002:0000a680       ??_C@_07CLGGIAMF@wchar_t@  00000001801df680     libvcruntime:undname.obj
 0002:0000a688       ??_C@_04HAPDLBFF@auto@     00000001801df688     libvcruntime:undname.obj
 0002:0000a690       ??_C@_0P@LHCGKIGK@decltype?$CIauto?$CJ@ 00000001801df690     libvcruntime:undname.obj
 0002:0000a6a0       ??_C@_05PCNBGHCF@this?5@   00000001801df6a0     libvcruntime:undname.obj
 0002:0000a6a8       ??_C@_06GCICPBLB@__w64?5@  00000001801df6a8     libvcruntime:undname.obj
 0002:0000a6b0       ??_C@_07NFANNNEC@UNKNOWN@  00000001801df6b0     libvcruntime:undname.obj
 0002:0000a6b8       ??_C@_07EDHNAJHC@signed?5@ 00000001801df6b8     libvcruntime:undname.obj
 0002:0000a6c0       ??_C@_05BNCCCJPP@const@    00000001801df6c0     libvcruntime:undname.obj
 0002:0000a6c8       ??_C@_09EFNPDFFP@?5volatile@ 00000001801df6c8     libvcruntime:undname.obj
 0002:0000a6d8       ??_C@_0P@GCIFDJCJ@?$GAunknown?5ecsu?8@ 00000001801df6d8     libvcruntime:undname.obj
 0002:0000a6e8       ??_C@_06MOJHIBMG@union?5@  00000001801df6e8     libvcruntime:undname.obj
 0002:0000a6f0       ??_C@_07DIBCDNGL@struct?5@ 00000001801df6f0     libvcruntime:undname.obj
 0002:0000a6f8       ??_C@_06LJBABKPM@class?5@  00000001801df6f8     libvcruntime:undname.obj
 0002:0000a700       ??_C@_08KOFANOFK@coclass?5@ 00000001801df700     libvcruntime:undname.obj
 0002:0000a710       ??_C@_0N@DLIEFKNA@cointerface?5@ 00000001801df710     libvcruntime:undname.obj
 0002:0000a720       ??_C@_05LJGMCFOG@enum?5@   00000001801df720     libvcruntime:undname.obj
 0002:0000a728       ??_C@_06LIJLOJAG@const?5@  00000001801df728     libvcruntime:undname.obj
 0002:0000a730       ??_C@_02KJPKDIBN@?$CG?5@   00000001801df730     libvcruntime:undname.obj
 0002:0000a734       ??_C@_03PCKGMOPB@?$CG?$CG?5@ 00000001801df734     libvcruntime:undname.obj
 0002:0000a738       ??_C@_0M@EALIELKG@cli?3?3array?$DM@ 00000001801df738     libvcruntime:undname.obj
 0002:0000a748       ??_C@_0O@GKABPPIF@cli?3?3pin_ptr?$DM@ 00000001801df748     libvcruntime:undname.obj
 0002:0000a758       ??_C@_02GOGNNPBN@?$CJ?$FL@ 00000001801df758     libvcruntime:undname.obj
 0002:0000a75c       ??_C@_06EEGAIFAK@?$HLflat?$HN@ 00000001801df75c     libvcruntime:undname.obj
 0002:0000a764       ??_C@_05JIBOFOHK@?$HLfor?5@ 00000001801df764     libvcruntime:undname.obj
 0002:0000a76c       ??_C@_02MDINNEEG@s?5@      00000001801df76c     libvcruntime:undname.obj
 0002:0000a778       ??_7charNode@@6B@          00000001801df778     libvcruntime:undname.obj
 0002:0000a7a0       ??_7pcharNode@@6B@         00000001801df7a0     libvcruntime:undname.obj
 0002:0000a7c8       ??_7pDNameNode@@6B@        00000001801df7c8     libvcruntime:undname.obj
 0002:0000a7f0       ??_7DNameStatusNode@@6B@   00000001801df7f0     libvcruntime:undname.obj
 0002:0000a818       ??_7pairNode@@6B@          00000001801df818     libvcruntime:undname.obj
 0002:0000a940       ??_C@_04OKOHEJBO@?5?$DP?$DP?5@ 00000001801df940     libvcruntime:undname.obj
 0002:0000a950       ?nodes@?1??make@DNameStatusNode@@SAPEBV2@W4DNameStatus@@@Z@4QBV2@B 00000001801df950     libvcruntime:undname.obj
 0002:0000a990       ?s_negLengthTab@FH4@@3QBCB 00000001801df990     libvcruntime:risctrnsctrl.obj
 0002:0000a9a0       ?s_shiftTab@FH4@@3QBEB     00000001801df9a0     libvcruntime:risctrnsctrl.obj
 0002:0000ab00       ??_C@_1DM@KHCHBNEB@?$AAa?$AAp?$AAi?$AA?9?$AAm?$AAs?$AA?9?$AAw?$AAi?$AAn?$AA?9?$AAc?$AAo?$AAr?$AAe@ 00000001801dfb00     libvcruntime:winapi_downlevel.obj
 0002:0000ab40       ??_C@_1DK@LPPGFMPP@?$AAa?$AAp?$AAi?$AA?9?$AAm?$AAs?$AA?9?$AAw?$AAi?$AAn?$AA?9?$AAc?$AAo?$AAr?$AAe@ 00000001801dfb40     libvcruntime:winapi_downlevel.obj
 0002:0000ab80       ??_C@_1BC@GDMECMAK@?$AAk?$AAe?$AAr?$AAn?$AAe?$AAl?$AA3?$AA2@ 00000001801dfb80     libvcruntime:winapi_downlevel.obj
 0002:0000ab98       ??_C@_1BA@PFFKHIOG@?$AAa?$AAp?$AAi?$AA?9?$AAm?$AAs?$AA?9@ 00000001801dfb98     libvcruntime:winapi_downlevel.obj
 0002:0000abb0       ??_C@_08KNHFBNJ@FlsAlloc@  00000001801dfbb0     libvcruntime:winapi_downlevel.obj
 0002:0000abc8       ??_C@_07PEJMOBNF@FlsFree@  00000001801dfbc8     libvcruntime:winapi_downlevel.obj
 0002:0000abd8       ??_C@_0M@GDNOONDI@FlsGetValue@ 00000001801dfbd8     libvcruntime:winapi_downlevel.obj
 0002:0000abf0       ??_C@_0M@JCPCPOEF@FlsSetValue@ 00000001801dfbf0     libvcruntime:winapi_downlevel.obj
 0002:0000ac08       ??_C@_0BM@HCFOFFN@InitializeCriticalSectionEx@ 00000001801dfc08     libvcruntime:winapi_downlevel.obj
 0002:0000ac30       ??_7exception@std@@6B@     00000001801dfc30     libvcruntime:frame.obj
 0002:0000ac40       ??_C@_0BC@EOODALEL@Unknown?5exception@ 00000001801dfc40     libvcruntime:frame.obj
 0002:0000ac60       ??_7bad_exception@std@@6B@ 00000001801dfc60     libvcruntime:frame.obj
 0002:0000ac70       ??_C@_0O@DPKOEFFH@bad?5exception@ 00000001801dfc70     libvcruntime:frame.obj
 0002:0000afc0       ?standard_lookup_table_spectre@__crt_stdio_output@@3V?$spectre_mitigated_lookup_table@Ustate_transition_pair@__crt_stdio_output@@$0IA@@1@B 00000001801dffc0     libucrt:output.obj
 0002:0000b0c0       ?format_validation_lookup_table_spectre@__crt_stdio_output@@3V?$spectre_mitigated_lookup_table@Ustate_transition_pair@__crt_stdio_output@@$0IA@@1@B 00000001801e00c0     libucrt:output.obj
 0002:0000b1c0       ??_C@_1O@CEDCILHN@?$AA?$CI?$AAn?$AAu?$AAl?$AAl?$AA?$CJ@ 00000001801e01c0     libucrt:output.obj
 0002:0000b1d0       ??_C@_06OJHGLDPL@?$CInull?$CJ@ 00000001801e01d0     libucrt:output.obj
 0002:0000c268       __real@3f1a36e2eb1c432d    00000001801e1268     libucrt:atan2f.obj
 0002:0000c270       __real@3fb0000000000000    00000001801e1270     libucrt:atan2f.obj
 0002:0000c278       __real@3fc2492482bd6be1    00000001801e1278     libucrt:atan2f.obj
 0002:0000c280       __real@3fc99999999643a3    00000001801e1280     libucrt:atan2f.obj
 0002:0000c288       __real@3fd5555555550877    00000001801e1288     libucrt:atan2f.obj
 0002:0000c290       __real@3fd5555555555538    00000001801e1290     libucrt:atan2f.obj
 0002:0000c298       __real@3ff921fb54442d18    00000001801e1298     libucrt:atan2f.obj
 0002:0000c2a0       __real@400921fb54442d18    00000001801e12a0     libucrt:atan2f.obj
 0002:0000c2a8       __real@40490fdb            00000001801e12a8     libucrt:atan2f.obj
 0002:0000c2b0       __real@4070000000000000    00000001801e12b0     libucrt:atan2f.obj
